ARM GAS  C:\Users\ldebo\AppData\Local\Temp\ccISOhOE.s 			page 1


   1              		.arch armv6zk
   2              		.eabi_attribute 28, 1
   3              		.eabi_attribute 20, 1
   4              		.eabi_attribute 21, 1
   5              		.eabi_attribute 23, 3
   6              		.eabi_attribute 24, 1
   7              		.eabi_attribute 25, 1
   8              		.eabi_attribute 26, 1
   9              		.eabi_attribute 30, 2
  10              		.eabi_attribute 34, 0
  11              		.eabi_attribute 18, 4
  12              		.file	"main.c"
  13              		.text
  14              		.align	2
  15              		.global	c_irq_handler
  16              		.syntax unified
  17              		.arm
  18              		.fpu vfp
  19              		.type	c_irq_handler, %function
  20              	c_irq_handler:
  21              		@ args = 0, pretend = 0, frame = 0
  22              		@ frame_needed = 0, uses_anonymous_args = 0
  23              		@ link register save eliminated.
  24 0000 10209FE5 		ldr	r2, .L2
  25 0004 0030D2E5 		ldrb	r3, [r2]	@ zero_extendqisi2
  26 0008 013023E2 		eor	r3, r3, #1
  27 000c 0300A0E1 		mov	r0, r3
  28 0010 0030C2E5 		strb	r3, [r2]
  29 0014 FEFFFFEA 		b	set_Activity_LED
  30              	.L3:
  31              		.align	2
  32              	.L2:
  33 0018 00000000 		.word	.LANCHOR0
  34              		.size	c_irq_handler, .-c_irq_handler
  35              		.align	2
  36              		.global	kernel_main
  37              		.syntax unified
  38              		.arm
  39              		.fpu vfp
  40              		.type	kernel_main, %function
  41              	kernel_main:
  42              		@ args = 0, pretend = 0, frame = 136
  43              		@ frame_needed = 0, uses_anonymous_args = 0
  44 001c 0020A0E3 		mov	r2, #0
  45 0020 F04F2DE9 		push	{r4, r5, r6, r7, r8, r9, r10, fp, lr}
  46 0024 9C319FE5 		ldr	r3, .L27
  47 0028 94D04DE2 		sub	sp, sp, #148
  48 002c 0210A0E1 		mov	r1, r2
  49 0030 0200A0E1 		mov	r0, r2
  50 0034 FEFFFFEB 		bl	PiConsole_Init
  51 0038 88019FE5 		ldr	r0, .L27
  52 003c FEFFFFEB 		bl	displaySmartStart
  53 0040 80019FE5 		ldr	r0, .L27
  54 0044 FEFFFFEB 		bl	ARM_setmaxspeed
  55 0048 7C119FE5 		ldr	r1, .L27+4
  56 004c 7C019FE5 		ldr	r0, .L27+8
  57 0050 FEFFFFEB 		bl	TimerIrqSetup
ARM GAS  C:\Users\ldebo\AppData\Local\Temp\ccISOhOE.s 			page 2


  58 0054 FEFFFFEB 		bl	EnableInterrupts
  59 0058 0010A0E3 		mov	r1, #0
  60 005c 64019FE5 		ldr	r0, .L27
  61 0060 FEFFFFEB 		bl	UsbInitialise
  62 0064 68019FE5 		ldr	r0, .L27+12
  63 0068 FEFFFFEB 		bl	printf
  64 006c FEFFFFEB 		bl	UsbGetRootHub
  65 0070 2B20A0E3 		mov	r2, #43
  66 0074 0110A0E3 		mov	r1, #1
  67 0078 FEFFFFEB 		bl	UsbShowTree
  68 007c 50019FE5 		ldr	r0, .L27+12
  69 0080 FEFFFFEB 		bl	printf
  70 0084 0C108DE2 		add	r1, sp, #12
  71 0088 08008DE2 		add	r0, sp, #8
  72 008c FEFFFFEB 		bl	WhereXY
  73 0090 0140A0E3 		mov	r4, #1
  74              	.L7:
  75 0094 7450EFE6 		uxtb	r5, r4
  76 0098 0500A0E1 		mov	r0, r5
  77 009c FEFFFFEB 		bl	IsMouse
  78 00a0 000050E3 		cmp	r0, #0
  79 00a4 014084E2 		add	r4, r4, #1
  80 00a8 0300001A 		bne	.L24
  81 00ac 210054E3 		cmp	r4, #33
  82 00b0 F7FFFF1A 		bne	.L7
  83 00b4 1C419FE5 		ldr	r4, .L27+16
  84 00b8 010000EA 		b	.L6
  85              	.L24:
  86 00bc 14419FE5 		ldr	r4, .L27+16
  87 00c0 0150C4E5 		strb	r5, [r4, #1]
  88              	.L6:
  89 00c4 0160A0E3 		mov	r6, #1
  90              	.L10:
  91 00c8 7650EFE6 		uxtb	r5, r6
  92 00cc 0500A0E1 		mov	r0, r5
  93 00d0 FEFFFFEB 		bl	IsKeyboard
  94 00d4 000050E3 		cmp	r0, #0
  95 00d8 016086E2 		add	r6, r6, #1
  96 00dc 3700001A 		bne	.L25
  97 00e0 210056E3 		cmp	r6, #33
  98 00e4 F7FFFF1A 		bne	.L10
  99 00e8 0250D4E5 		ldrb	r5, [r4, #2]	@ zero_extendqisi2
 100              	.L9:
 101 00ec 0520A0E1 		mov	r2, r5
 102 00f0 0110D4E5 		ldrb	r1, [r4, #1]	@ zero_extendqisi2
 103 00f4 E0009FE5 		ldr	r0, .L27+20
 104 00f8 FEFFFFEB 		bl	printf
 105 00fc 0070A0E3 		mov	r7, #0
 106 0100 0490A0E3 		mov	r9, #4
 107 0104 018CA0E3 		mov	r8, #256
 108 0108 0050A0E3 		mov	r5, #0
 109 010c CC609FE5 		ldr	r6, .L27+24
 110 0110 CCB09FE5 		ldr	fp, .L27+28
 111              	.L16:
 112 0114 08A0A0E3 		mov	r10, #8
 113 0118 020000EA 		b	.L14
 114              	.L12:
ARM GAS  C:\Users\ldebo\AppData\Local\Temp\ccISOhOE.s 			page 3


 115 011c 0200D4E5 		ldrb	r0, [r4, #2]	@ zero_extendqisi2
 116 0120 000050E3 		cmp	r0, #0
 117 0124 1900001A 		bne	.L26
 118              	.L14:
 119 0128 0600A0E1 		mov	r0, r6
 120 012c 0710A0E1 		mov	r1, r7
 121 0130 FEFFFFEB 		bl	timer_wait
 122 0134 08009DE5 		ldr	r0, [sp, #8]
 123 0138 0C109DE5 		ldr	r1, [sp, #12]
 124 013c FEFFFFEB 		bl	GotoXY
 125 0140 0100D4E5 		ldrb	r0, [r4, #1]	@ zero_extendqisi2
 126 0144 000050E3 		cmp	r0, #0
 127 0148 F3FFFF0A 		beq	.L12
 128 014c 00908DE5 		str	r9, [sp]
 129 0150 10308DE2 		add	r3, sp, #16
 130 0154 0820A0E1 		mov	r2, r8
 131 0158 0510A0E1 		mov	r1, r5
 132 015c FEFFFFEB 		bl	HIDReadReport
 133 0160 000050E3 		cmp	r0, #0
 134 0164 ECFFFF1A 		bne	.L12
 135 0168 1300DDE5 		ldrb	r0, [sp, #19]	@ zero_extendqisi2
 136 016c 1230DDE5 		ldrb	r3, [sp, #18]	@ zero_extendqisi2
 137 0170 00008DE5 		str	r0, [sp]
 138 0174 1120DDE5 		ldrb	r2, [sp, #17]	@ zero_extendqisi2
 139 0178 1010DDE5 		ldrb	r1, [sp, #16]	@ zero_extendqisi2
 140 017c 0B00A0E1 		mov	r0, fp
 141 0180 FEFFFFEB 		bl	printf
 142 0184 0200D4E5 		ldrb	r0, [r4, #2]	@ zero_extendqisi2
 143 0188 000050E3 		cmp	r0, #0
 144 018c E5FFFF0A 		beq	.L14
 145              	.L26:
 146 0190 00A08DE5 		str	r10, [sp]
 147 0194 10308DE2 		add	r3, sp, #16
 148 0198 0820A0E1 		mov	r2, r8
 149 019c 0510A0E1 		mov	r1, r5
 150 01a0 FEFFFFEB 		bl	HIDReadReport
 151 01a4 000050E3 		cmp	r0, #0
 152 01a8 DEFFFF1A 		bne	.L14
 153 01ac 1220DDE5 		ldrb	r2, [sp, #18]	@ zero_extendqisi2
 154 01b0 1010DDE5 		ldrb	r1, [sp, #16]	@ zero_extendqisi2
 155 01b4 2C009FE5 		ldr	r0, .L27+32
 156 01b8 FEFFFFEB 		bl	printf
 157 01bc D4FFFFEA 		b	.L16
 158              	.L25:
 159 01c0 0250C4E5 		strb	r5, [r4, #2]
 160 01c4 C8FFFFEA 		b	.L9
 161              	.L28:
 162              		.align	2
 163              	.L27:
 164 01c8 00000000 		.word	printf
 165 01cc 00000000 		.word	c_irq_handler
 166 01d0 20A10700 		.word	500000
 167 01d4 00000000 		.word	.LC0
 168 01d8 00000000 		.word	.LANCHOR0
 169 01dc 04000000 		.word	.LC1
 170 01e0 50C30000 		.word	50000
 171 01e4 30000000 		.word	.LC2
ARM GAS  C:\Users\ldebo\AppData\Local\Temp\ccISOhOE.s 			page 4


 172 01e8 84000000 		.word	.LC3
 173              		.size	kernel_main, .-kernel_main
 174              		.comm	__errno,4,4
 175              		.bss
 176              		.set	.LANCHOR0,. + 0
 177              		.type	lit, %object
 178              		.size	lit, 1
 179              	lit:
 180 0000 00       		.space	1
 181              		.type	firstMouse, %object
 182              		.size	firstMouse, 1
 183              	firstMouse:
 184 0001 00       		.space	1
 185              		.type	firstKbd, %object
 186              		.size	firstKbd, 1
 187              	firstKbd:
 188 0002 00       		.space	1
 189              		.section	.rodata.str1.4,"aMS",%progbits,1
 190              		.align	2
 191              	.LC0:
 192 0000 0A00     		.ascii	"\012\000"
 193 0002 0000     		.space	2
 194              	.LC1:
 195 0004 46697273 		.ascii	"First Mouse id: %i, First KeyBoard id: %i\012\000"
 195      74204D6F 
 195      75736520 
 195      69643A20 
 195      25692C20 
 196 002f 00       		.space	1
 197              	.LC2:
 198 0030 48494420 		.ascii	"HID MOUSE REPORT: Buttons: 0x%02x  X move: 0x%02x, "
 198      4D4F5553 
 198      45205245 
 198      504F5254 
 198      3A204275 
 199 0063 59206D6F 		.ascii	"Y move: 0x%02x, Wheel: 0x%02x\012\000"
 199      76653A20 
 199      30782530 
 199      32782C20 
 199      57686565 
 200 0082 0000     		.space	2
 201              	.LC3:
 202 0084 48494420 		.ascii	"HID KEYBOARD REPORT: Modifier: 0x%02x Key Press: 0x"
 202      4B455942 
 202      4F415244 
 202      20524550 
 202      4F52543A 
 203 00b7 25303278 		.ascii	"%02x\012\000"
 203      0A00
 204              		.ident	"GCC: (GNU Tools for ARM Embedded Processors 6-2017-q2-update) 6.3.1 20170620 (release) [AR
ARM GAS  C:\Users\ldebo\AppData\Local\Temp\ccISOhOE.s 			page 5


DEFINED SYMBOLS
                            *ABS*:00000000 main.c
C:\Users\ldebo\AppData\Local\Temp\ccISOhOE.s:14     .text:00000000 $a
C:\Users\ldebo\AppData\Local\Temp\ccISOhOE.s:20     .text:00000000 c_irq_handler
C:\Users\ldebo\AppData\Local\Temp\ccISOhOE.s:33     .text:00000018 $d
C:\Users\ldebo\AppData\Local\Temp\ccISOhOE.s:35     .text:0000001c $a
C:\Users\ldebo\AppData\Local\Temp\ccISOhOE.s:41     .text:0000001c kernel_main
C:\Users\ldebo\AppData\Local\Temp\ccISOhOE.s:164    .text:000001c8 $d
                            *COM*:00000004 __errno
C:\Users\ldebo\AppData\Local\Temp\ccISOhOE.s:179    .bss:00000000 lit
C:\Users\ldebo\AppData\Local\Temp\ccISOhOE.s:180    .bss:00000000 $d
C:\Users\ldebo\AppData\Local\Temp\ccISOhOE.s:183    .bss:00000001 firstMouse
C:\Users\ldebo\AppData\Local\Temp\ccISOhOE.s:187    .bss:00000002 firstKbd
C:\Users\ldebo\AppData\Local\Temp\ccISOhOE.s:190    .rodata.str1.4:00000000 $d

UNDEFINED SYMBOLS
set_Activity_LED
PiConsole_Init
displaySmartStart
ARM_setmaxspeed
TimerIrqSetup
EnableInterrupts
UsbInitialise
printf
UsbGetRootHub
UsbShowTree
WhereXY
IsMouse
IsKeyboard
timer_wait
GotoXY
HIDReadReport
ARM GAS  C:\Users\ldebo\AppData\Local\Temp\ccISOhOE.s 			page 1


   1              	# 1 "SmartStart32.S"
   1              	﻿;@"+++++++++++++++++++++++++++++++++++++++++++++++++++++++++++++++++++++++++"
   0              	
   0              	
   2              	;@"																			"			
   3              	;@"      Filename: smartstart32.s											"
   4              	;@"      Copyright(c): Leon de Boer(LdB) 2017								"
   5              	;@"      Version: 2.03														"
   6              	;@"																			"		
   7              	;@"**************[ THIS CODE IS FREEWARE UNDER CC Attribution]**************"
   8              	;@"																            "
   9              	;@"     This sourcecode is released for the purpose to promote programming  "
  10              	;@"  on the Raspberry Pi. You may redistribute it and/or modify with the    "
  11              	;@"  following disclaimer and condition.                                    "
  12              	;@"																            "
  13              	;@"      The SOURCE CODE is distributed "AS IS" WITHOUT WARRANTIES AS TO    "
  14              	;@"   PERFORMANCE OF MERCHANTABILITY WHETHER EXPRESSED OR IMPLIED.          "
  15              	;@"   Redistributions of source code must retain the copyright notices to   "
  16              	;@"   maintain the author credit (attribution) .							"
  17              	;@"																			"
  18              	;@"*************************************************************************"
  19              	;@"                                                                         "
  20              	;@"       This code expands on my earlier SmartStart bootstub assembler for "
  21              	;@" the Pi 1/2/3. It simplifies some of the autodetect code but importantly "
  22              	;@" directly supports multicore operation in C/C++. To do that it provides  "
  23              	;@" stack space to each core and provides a modified bootloader spinlock    "
  24              	;@" that protects against registers R0-R3 trashed. As any C/C++ compiler    "
  25              	;@" code will trash those registers, to use C/C++ in multicore programming  "
  26              	;@" this protection must be done.											"
  27              	;@"      The downside is this bootstub must be a little more complex in     "
  28              	;@" that it must start and setup multiple cores. The code is much more      "
  29              	;@" connected to the linker file which provides memory space to each core.  "
  30              	;@"       There is however matching paired AARCH64 stub and linker files    "
  31              	;@" so code written for this setup can be ported to AARCH64 with ease.		"
  32              	;@"																            "
  33              	;@"+++++++++++++++++++++++[ REVISIONS ]+++++++++++++++++++++++++++++++++++++"
  34              	;@"  1.01 Initial release .. Pi autodetection main aim                      "
  35              	;@"  1.02 Many functions moved out C to aide 32/64 bit compatability        "
  36              	;@"  2.01 Futher reductions to bare minmum assembeler code                  "
  37              	;@"  2.02 Multicore functionality added                                     "
  38              	;@"  2.03 Timer Irq support added  											"
  39              	;@"+++++++++++++++++++++++++++++++++++++++++++++++++++++++++++++++++++++++"*/
  40              	
  41              	;@"========================================================================="
  42              	;@"				 	 ARM CPU ID CONSTANT DEFINITIONS					    "
  43              	;@"========================================================================="
  44              	.equ ARM6_CPU_ID, 0x410FB767					;@ CPU id a BCM2835 reports
  45              	.equ ARM7_CPU_ID, 0x410FC073					;@ CPU id a BCM2836 reports
  46              	.equ ARM8_CPU_ID, 0x410FD034					;@ CPU id a BCM2837 reports
  47              	
  48              	;@"========================================================================="
  49              	;@"				 	 ARM CPU MODE CONSTANT DEFINITIONS					    "
  50              	;@"========================================================================="
  51              	.equ CPU_FIQMODE, 0x11							;@ CPU in FIQ mode
  52              	.equ CPU_IRQMODE, 0x12							;@ CPU in IRQ mode
  53              	.equ CPU_SVCMODE, 0x13							;@ CPU in SVC mode
  54              	.equ CPU_HYPMODE, 0x1A							;@ CPU in HYP mode
ARM GAS  C:\Users\ldebo\AppData\Local\Temp\ccISOhOE.s 			page 2


  55              	
  56              	;@"========================================================================="
  57              	;@"				 ARM CPU IRQ/FIQ BIT CONSTANT DEFINITIONS				    "
  58              	;@"========================================================================="
  59              	#define I_Bit  (1 << 7)							// Irq flag bit in cpsr (CPUMODE register)
  60              	#define F_Bit  (1 << 6)							// Fiq flag bit in cpsr (CPUMODE register)
  61              	
  62              	;@"========================================================================="
  63              	;@"				 	 ARM CPU MODE CONSTANT DEFINITIONS					    "
  64              	;@"========================================================================="
  65              	.equ CPU_FIQMODE_VALUE, (CPU_FIQMODE | I_Bit | F_Bit)	;@ CPU in FIQ mode with irq, fiq off
  66              	.equ CPU_IRQMODE_VALUE, (CPU_IRQMODE | I_Bit | F_Bit)	;@ CPU in IRQ mode with irq, fiq off
  67              	.equ CPU_SVCMODE_VALUE, (CPU_SVCMODE | I_Bit | F_Bit)	;@ CPU in SVC mode with irq, fiq off
  68              	
  69              	;@"*************************************************************************"
  70              	;@"          INTERNAL DATA FOR SMARTSTART NOT EXPOSED TO INTERFACE			"
  71              	;@"*************************************************************************"
  72              	.section ".data.smartstart", "aw"
  73              	.balign 4
  74              	
  75 0000 00000000 	RPi_BusAlias	: .4byte 0;				// Address offset between VC4 physical address and ARM address needed f
  76              	
  77              	
  78              	
  79              	.globl RPi_CPUCurrentMode;				// Make sure RPi_CPUCurrentMode label is global
  80 0004 00000000 	RPi_CPUCurrentMode : .4byte 0;			//  CPU current Mode is 4 byte variable
  81              	
  82              	.globl RPi_Heap; @ Make sure RPi_Heap label is global
  83 0008 00000000 	RPi_Heap : .4byte 0; @ RPi_Heap is 4 byte variable
  84              	
  85              	.section ".text.startup", "ax", %progbits
  86              	.balign	4
  87              	.globl _start
  88              	.syntax unified
  89              	.arm
  90              	_start:
  91              	;@"================================================================"
  92              	;@ Grab cpu mode and start address and hold in a high register.
  93              	;@"================================================================"
  94 0000 0FC0A0E1 		mov r12, pc;							;@ Hold boot address in high register R12
  95 0004 00B00FE1 		mrs r11, CPSR							;@ Read current CPU mode
  96 0008 1FB00BE2 		and r11, r11, #0x1F						;@ Clear all but CPU mode bits in register r11
  97              	;@"================================================================"
  98              	;@ If the cpu is in HYP_MODE(EL2) we will bring it SVC_MODE (EL1).
  99              	;@"================================================================"
 100              	multicore_start:
 101 000c 00000FE1 	    mrs r0,cpsr								;@ Fetch the cpsr register which includes CPU mode bits 
 102 0010 1F1000E2 	 	and r1, r0, #0x1F						;@ Mask off the CPU mode bits to register r1                            
 103 0014 1A0051E3 	 	cmp r1, #CPU_HYPMODE					;@ Check we are in HYP_MODE											
 104 0018 0500001A 		bne .NotInHypMode						;@ Branch if not equal meaning was not in HYP_MODE  
 105 001c 1F00C0E3 		bic r0,r0,#0x1F							;@ Clear the CPU mode bits in register r0							
 106 0020 D30080E3 		orr r0, r0, #CPU_SVCMODE_VALUE			;@ SVC_MODE bits onto register with Irq/Fiq disabled	
 107 0024 00F06FE1 	    msr spsr_cxsf,r0						;@ Hold value in spsr_cxsf
 108 0028 04E08FE2 	    add lr,pc,#4							;@ Calculate address of .NotInHypMode label
 109              		/* I borrowed this trick from Ultibo because ARM6 code running on an ARM7/8 needs this opcode  */
 110              		/* The ARM6 compiler does not know these instructions so it is a way to get needed opcode here */
 111              	    /* So our ARM6 code can drop an arm7 or arm8 out of HYP mode and run on an ARM7/8.             
ARM GAS  C:\Users\ldebo\AppData\Local\Temp\ccISOhOE.s 			page 3


 112              	 	/* Native ARM7/8 compilers already understand the OPCODE but do not mind it this way either	   */
 113 002c 0EF32EE1 		.long 0xE12EF30E						;@ "msr ELR_hyp, lr" Set the address to ELR_hyp
 114 0030 6E0060E1 		.long 0xE160006E						;@ "eret" Elevated return which will exit at .NotInHypMode in SVC_MODE
 115              	.NotInHypMode:
 116              	;@"================================================================"
 117              	;@  Setup stack pointers for each core and each CPU operation mode
 118              	;@"================================================================"
 119 0034 4C229FE5 	    ldr r2, = __SVC_stack_core0				;@ Address of svc_stack_core0 stack pointer value
 120 0038 4C329FE5 	    ldr r3, = __FIQ_stack_core0				;@ Address of fiq_stack_core0 stack pointer value
 121 003c 4C429FE5 	    ldr r4, = __IRQ_stack_core0				;@ Address of irq_stack_core0 stack pointer value
 122 0040 100F10EE 		mrc p15, 0, r0, c0, c0, 0				;@ Read CPU ID Register
 123 0044 48129FE5 		ldr r1, =#ARM6_CPU_ID					;@ Fetch ARM6_CPU_ID
 124 0048 000051E1 		cmp r1, r0								;@ Check for match
 125 004c 0F00000A 		beq set_svc_stack						;@ ARM6 only has 1 core so goto set svc_stack
 126 0050 B05F10EE 		mrc p15, 0, r5, c0, c0, 5				;@ Read core id on ARM7 & ARM8
 127 0054 035015E2 		ands r5, r5, #0x3						;@ Make cpu id bitmask
 128 0058 0C00000A 		beq set_svc_stack						;@ This is core 0 so set got set svc_stack
 129 005c 34229FE5 	    ldr r2, = __SVC_stack_core1				;@ Address of svc_stack_core1 stack pointer value
 130 0060 34329FE5 	    ldr r3, = __FIQ_stack_core1				;@ Address of fiq_stack_core1 stack pointer value
 131 0064 34429FE5 	    ldr r4, = __IRQ_stack_core1				;@ Address of irq_stack_core1 stack pointer value
 132 0068 010055E3 		cmp r5, #1								;@ Check cpu id for core 1
 133 006c 0700000A 		beq set_svc_stack						;@ This is core 1 so set svc_stack
 134 0070 2C229FE5 	    ldr r2, = __SVC_stack_core2				;@ Address of svc_stack_core2 stack pointer value
 135 0074 2C329FE5 	    ldr r3, = __FIQ_stack_core2				;@ Address of fiq_stack_core2 stack pointer value
 136 0078 2C429FE5 	    ldr r4, = __IRQ_stack_core2				;@ Address of irq_stack_core2 stack pointer value
 137 007c 020055E3 		cmp r5, #2								;@ Check cpu id for core 2
 138 0080 0200000A 		beq set_svc_stack						;@ This is core 2 so set svc_stack
 139 0084 24229FE5 	    ldr r2, = __SVC_stack_core3				;@ Address of svc_stack_core3 stack pointer value
 140 0088 24329FE5 	    ldr r3, = __FIQ_stack_core3				;@ Address of fiq_stack_core3 stack pointer value
 141 008c 24429FE5 	    ldr r4, = __IRQ_stack_core3				;@ Address of irq_stack_core3 stack pointer value
 142              	set_svc_stack:
 143 0090 02D0A0E1 		mov sp, r2								;@ Set the stack pointer for SVC_MODE 
 144 0094 00000FE1 	    mrs r0,cpsr								;@ Fetch the cpsr register which includes CPU mode bits 
 145 0098 1F00C0E3 		bic r0,r0,#0x1F							;@ Clear the CPU mode bits in register r0							
 146 009c D10080E3 		orr r0, r0, #CPU_FIQMODE_VALUE			;@ FIQ_MODE bits onto register with Irq/Fiq disabled
 147 00a0 00F021E1 	    msr CPSR_c, r0							;@ Switch to FIQ_MODE
 148 00a4 03D0A0E1 		mov sp, r3								;@ Set the stack pointer for FIQ_MODE 
 149 00a8 1F00C0E3 		bic r0,r0,#0x1F							;@ Clear the CPU mode bits in register r0	
 150 00ac D20080E3 		orr r0, r0, #CPU_IRQMODE_VALUE			;@ IRQ_MODE bits onto register with Irq/Fiq disabled	
 151 00b0 00F021E1 	    msr CPSR_c, r0							;@ Switch to IRQ_MODE
 152 00b4 04D0A0E1 		mov sp, r4								;@ Set the stack pointer for IRQ_MODE 
 153 00b8 1F00C0E3 		bic r0,r0,#0x1F							;@ Clear the CPU mode bits in register r0							
 154 00bc D30080E3 		orr r0, r0, #CPU_SVCMODE_VALUE			;@ SVC_MODE bits onto register with Irq/Fiq disabled	
 155 00c0 00F021E1 	    msr CPSR_c, r0							;@ Switch to SVC_MODE again all stacks ready to go
 156              	@"================================================================"
 157              	;@ PI NSACR regsister setup for access to floating point unit
 158              	;@ Cortex A-7 => Section 4.3.34. Non-Secure Access Control Register
 159              	;@ Cortex A-53 => Section 4.5.32. Non-Secure Access Control Register
 160              	;@"================================================================"
 161 00c4 510F11EE 		mrc p15, 0, r0, c1, c1, 2				;@ Read NSACR into R0
 162 00c8 030B50E3 		cmp r0, #0x00000C00						;@ Access turned on or in AARCH32 mode and can not touch register or EL3 
 163 00cc 0100000A 		beq .free_to_enable_fpu1
 164 00d0 030B80E3 		orr r0, r0, #0x3<<10					;@ Set access to both secure and non secure modes
 165 00d4 510F01EE 		mcr p15, 0, r0, c1, c1, 2				;@ Write NSACR
 166              	;@"================================================================"
 167              	;@ Bring fpu online
 168              	;@"================================================================"
ARM GAS  C:\Users\ldebo\AppData\Local\Temp\ccISOhOE.s 			page 4


 169              	.free_to_enable_fpu1:
 170 00d8 500F11EE 		mrc p15, 0, r0, c1, c0, #2				;@ R0 = Access Control Register
 171 00dc 0F0680E3 		orr r0, #(0x300000 + 0xC00000)			;@ Enable Single & Double Precision
 172 00e0 500F01EE 		mcr p15,0,r0,c1,c0, #2					;@ Access Control Register = R0
 173 00e4 0101A0E3 		mov r0, #0x40000000						;@ R0 = Enable VFP
 174 00e8 100AE8EE 		vmsr fpexc, r0							;@ FPEXC = R0
 175              	;@"================================================================"
 176              	;@ Enable L1 cache
 177              	;@"================================================================"
 178              	.equ SCTLR_ENABLE_DATA_CACHE,			0x4
 179              	.equ SCTLR_ENABLE_BRANCH_PREDICTION,	0x800
 180              	.equ SCTLR_ENABLE_INSTRUCTION_CACHE,	0x1000
 181 00ec 100F11EE 	    mrc p15,0,r0,c1,c0,0					;@ R0 = System Control Register
 182              	
 183              	    /* Enable caches and branch prediction */
 184 00f0 020B80E3 	    orr r0, #SCTLR_ENABLE_BRANCH_PREDICTION
 185 00f4 040080E3 	    orr r0, #SCTLR_ENABLE_DATA_CACHE
 186 00f8 010A80E3 	    orr r0, #SCTLR_ENABLE_INSTRUCTION_CACHE
 187              	
 188 00fc 100F01EE 	    mcr p15,0,r0,c1,c0,0					;@ System Control Register = R0
 189              	;@"================================================================"
 190              	;@ Check if BC2835 and if so branch over multi-core park routine
 191              	;@"================================================================"
 192 0100 100F10EE 		mrc p15,0,r0,c0,c0,0					;@ Read CPU ID Register
 193 0104 88119FE5 		ldr r1, =#ARM6_CPU_ID					;@ fetch ARM6_CPU_ID
 194 0108 000051E1 		cmp r1, r0								;@ Check for match
 195 010c 0700000A 		beq .cpu0_exit_multicore_park			;@ Branch as Arm6 has only 1 CPU 
 196              	;@"================================================================"
 197              	;@ Now park Core 1,2,3 into secondary spinloop on BCM2836, BCM2837
 198              	;@ If bootloader is used this will not happen but booting with the
 199              	;@ "OldKernel=1" from 0x0000 this can happen. Core 0 continues on.
 200              	;@"================================================================"
 201 0110 B00F10EE 		mrc p15, 0, r0, c0, c0, 5				;@ Read core id on ARM7 & ARM8
 202 0114 030010E2 		ands r0, r0, #0x3					    ;@ Make core 2 bit bitmask in R0
 203 0118 0400000A 		beq  .cpu0_exit_multicore_park			;@ Core 0 jumps out
 204 011c 98119FE5 		ldr r1, =RPi_CoresReady					;@ Address of CoreReady count
 205 0120 000091E5 		ldr r0, [r1]							;@ Load current core count 
 206 0124 010080E2 		add r0, r0, #1							;@ Add one as core about to go ready
 207 0128 000081E5 		str r0, [r1]							;@ Update CoreReady count
 208 012c 810000EA 		b    SecondarySpin						;@ Jump to setup secondary spin
 209              	.cpu0_exit_multicore_park:
 210              	;@"================================================================"
 211              	;@ Now store initial CPU boot mode and address we might need later.
 212              	;@"================================================================"
 213 0130 88119FE5 		ldr r1, =RPi_BootAddr					;@ Address to hold Boot address
 214 0134 08C04CE2 		sub r12, #8								;@ Subtract op-code offset
 215 0138 00C081E5 		str r12, [r1]							;@ Save the boot address we started at
 216 013c 80119FE5 		ldr r1, =RPi_CPUBootMode				;@ Memory address to save this CPU boot mode
 217 0140 00B081E5 		str r11, [r1]							;@ Save the boot mode we started in
 218              	;@"================================================================"
 219              	;@  Initial CPU core ready so set CoreReady count to 1.
 220              	;@"================================================================"
 221 0144 0100A0E3 		mov r0, #1								;@ Core0 is will be ready
 222 0148 6C119FE5 		ldr r1, =RPi_CoresReady					;@ Memory address to save Cores ready
 223 014c 000081E5 		str r0, [r1]							;@ Set RPi_CoresReady to 1
 224              	;@"================================================================"
 225              	;@ Fetch and hold CPU changed mode. If we changed modes this value
ARM GAS  C:\Users\ldebo\AppData\Local\Temp\ccISOhOE.s 			page 5


 226              	;@ will now reflect a change from the original held RPi_CPUBootMode.
 227              	;@"================================================================"
 228 0150 00200FE1 		mrs r2, CPSR
 229 0154 1F2002E2 		and r2, r2, #0x1F						;@ Clear all but CPU mode bits in register r2
 230 0158 68119FE5 		ldr r1, =RPi_CPUCurrentMode
 231 015c 002081E5 		str r2, [r1]							;@ Hold the changed CPU mode
 232              	;@"================================================================"
 233              	;@ Read the Arm Main CPUID register => sets RPi_CpuId
 234              	;@"================================================================"
 235 0160 64119FE5 		ldr r1, =RPi_CpuId						;@ Address to hold CPU id
 236 0164 100F10EE 		mrc p15, 0, r0, c0, c0, 0				;@ Read Main ID Register
 237 0168 000081E5 		str r0, [r1]							;@ Save CPU Id for interface 
 238              	;@"================================================================"
 239              	;@ Store the compiler mode in RPi_CompileMode
 240              	;@"================================================================"
 241 016c 000020E0 		eor r0, r0, r0;							;@ Zero register
 242              	.if (__ARM_ARCH == 6)						// Compiling for ARM6
 243 0170 0600A0E3 		mov r0, #0x06							;@ Compiled for ARM6 CPU
 244              	.endif
 245              	.if (__ARM_ARCH == 7)						// Compiling for ARM7
 246              		mov r0, #0x07							;@ Compiled for ARM7 CPU
 247              	.endif
 248              	.if (__ARM_ARCH == 8)						// Compiling for ARM8
 249              		mov r0, #0x08							;@ Compiled for ARM8 CPU
 250              	.endif
 251 0174 800080E3 		orr r0, r0, #(4 << 5)					;@ Code is setup to support 4 cores			
 252 0178 50119FE5 		ldr r1, =RPi_CompileMode
 253 017c 000081E5 		str r0, [r1]							;@ Store the compiler mode  
 254              	;;@"================================================================"
 255              	;@ Try Auto-Detect Raspberry PI IO base address at 1st position
 256              	;@"================================================================"
 257 0180 4C219FE5 		ldr r2, =#0x61757830
 258 0184 4C119FE5 		ldr r1, =#0x20215010
 259 0188 000091E5 		ldr r0, [r1]							;@ Fetch value at 0x20215010 being uart0
 260 018c 000052E1 		cmp r2, r0;								;@ Check if we have the value the uart0 will be at reset
 261 0190 0600001A 		bne .not_at_address_1
 262              	;@"================================================================"
 263              	;@  Raspberry PI IO base address was detected as 0x20000000
 264              	;@  RPi_IO_Base_Addr => 0x20000000
 265              	;@"================================================================"
 266 0194 40119FE5 		ldr r1, =RPi_BusAlias
 267 0198 0101A0E3 		mov	r0, #0x40000000
 268 019c 000081E5 		str	r0, [r1]							;@ Hold bus alias
 269 01a0 38119FE5 		ldr r1, =RPi_IO_Base_Addr
 270 01a4 0202A0E3 		mov	r0, #0x20000000
 271 01a8 000081E5 		str	r0, [r1]							;@ Hold the detected address
 272 01ac 0A0000EA 		b .autodetect_done;
 273              	;@"================================================================"
 274              	;@ Try Auto-Detect Raspberry PI IO base address at 2nd position
 275              	;@"================================================================"
 276              	.not_at_address_1:
 277 01b0 2C119FE5 		ldr r1, =#0x3f215010
 278 01b4 000091E5 		ldr r0, [r1]							;@ Fetch value at 0x3f215010
 279 01b8 000052E1 		cmp r2, r0								;@ Check if we have the value the uart0 will be at reset
 280 01bc 0000000A 		beq .At2ndAddress
 281              	;@"================================================================"
 282              	;@ ** Auto-Detected failed, not safe to do anything but deadloop **
ARM GAS  C:\Users\ldebo\AppData\Local\Temp\ccISOhOE.s 			page 6


 283              	;@ Would love to be display an error state but no ability on Pi
 284              	;@"================================================================"
 285              	.pi_detect_fail:
 286 01c0 FEFFFFEA 	    b .pi_detect_fail
 287              	;@"================================================================"
 288              	;@  Raspberry PI IO base address was detected as 0x3f000000
 289              	;@  RPi_IO_Base_Addr => 0x3f000000
 290              	;@"================================================================"
 291              	.At2ndAddress:
 292 01c4 10119FE5 		ldr r1, =RPi_BusAlias
 293 01c8 0301A0E3 		mov	r0, #0xC0000000
 294 01cc 000081E5 		str	r0, [r1]							;@ Hold bus alias
 295              	;@ Pi2 address 0x3f000000
 296 01d0 08119FE5 		ldr r1, =RPi_IO_Base_Addr
 297 01d4 3F04A0E3 		mov	r0, #0x3f000000						;@ Hold the detected address
 298 01d8 000081E5 		str	r0, [r1]
 299              	.autodetect_done:
 300              	;@"================================================================"
 301              	;@  We are getting close to handing over to C so we need to copy the 
 302              	;@  ISR table to position 0x0000 so interrupts can be used if wanted 
 303              	;@"================================================================"
 304 01dc 04019FE5 		ldr r0, = _isr_Table					;@ Address of isr_Table
 305 01e0 0010A0E3 		mov     r1, #0x0000						;@ Destination 0x0000
 306 01e4 FC03B0E8 	    ldmia   r0!,{r2, r3, r4, r5, r6, r7, r8, r9}
 307 01e8 FC03A1E8 	    stmia   r1!,{r2, r3, r4, r5, r6, r7, r8, r9}
 308 01ec FC03B0E8 	    ldmia   r0!,{r2, r3, r4, r5, r6, r7, r8, r9}
 309 01f0 FC03A1E8 	    stmia   r1!,{r2, r3, r4, r5, r6, r7, r8, r9}
 310              	;@"================================================================"
 311              	;@ Now Clear the .BSS segment as the C compiler expects us to do
 312              	;@"================================================================"
 313 01f4 F0009FE5 		ldr   r0, =__bss_start__
 314 01f8 F0109FE5 		ldr   r1, =__bss_end__	
 315 01fc 0020A0E3 		mov   r2, #0
 316              	.clear_bss:
 317 0200 010050E1 	    cmp   r0, r1
 318 0204 020000AA 	    bge   .clear_bss_exit
 319 0208 002080E5 	    str   r2, [r0]
 320 020c 040080E2 		add   r0, r0, #4
 321 0210 FAFFFFEA 	    b .clear_bss
 322              	.clear_bss_exit:
 323              	;@"================================================================"
 324              	;@ Bring Core 1,2,3 to secondary spin if not an ARM6 and bootloaded
 325              	;@"================================================================"
 326 0214 100F10EE 		mrc p15,0,r0,c0,c0,0					;@ Read Main ID Register
 327 0218 74109FE5 		ldr r1, =#ARM6_CPU_ID					;@ fetch ARM6_CPU_ID
 328 021c 000051E1 		cmp r1, r0								;@ Check for match
 329 0220 1600000A 		beq .NoMultiCoreSetup					;@ ARM6 jumps as no multicore
 330 0224 94109FE5 		ldr r1, =RPi_BootAddr					;@ Address to hold Boot address
 331 0228 000091E5 		ldr r0, [r1]							;@ Fetch bootAddress
 332 022c 0219A0E3 		ldr r1, =#0x8000						;@ Check against 0x8000
 333 0230 000051E1 		cmp r1, r0								;@ Check for match	
 334 0234 1100001A 		bne .NoMultiCoreSetup					;@ Not bootladed so jump multicore setup
 335 0238 0111A0E3 	 	mov	r1, #1073741824						;@ 0x40000000
 336 023c B0209FE5 	    ldr r2, =multicore_start				;@ Address of CoreSetup call
 337 0240 9C2081E5 		str	r2, [r1, #156]						;@ Write ExtraCoreSetup to 0x4000009C which signals core1 to jump
 338 0244 70309FE5 	 	ldr r3, =RPi_CoresReady					;@ Address of CoreReady count
 339              	.WaitCore1ACK:
ARM GAS  C:\Users\ldebo\AppData\Local\Temp\ccISOhOE.s 			page 7


 340 0248 001093E5 		ldr	r1, [r3]							;@ Read CoreReady
 341 024c 020051E3 		cmp	r1, #2								;@ Wait for setting of second core ready
 342 0250 FCFFFF0A 		beq	.WaitCore1ACK						;@ Core1 not ready so read again
 343 0254 0111A0E3 	 	mov	r1, #1073741824						;@ 0x40000000
 344 0258 94209FE5 	    ldr r2, =multicore_start				;@ Address of CoreSetup call
 345 025c AC2081E5 		str	r2, [r1, #172]						;@ Write ExtraCoreSetup to 0x400000AC which signals core2 to jump
 346              	.WaitCore2ACK:
 347 0260 001093E5 		ldr	r1, [r3]							;@ Read CoreReady count
 348 0264 030051E3 		cmp	r1, #3								;@ Wair for setting of third core ready
 349 0268 FCFFFF0A 		beq	.WaitCore2ACK						;@ Core2 not ready so read again
 350 026c 0111A0E3 	 	mov	r1, #1073741824						;@ 0x40000000
 351 0270 BC2081E5 		str	r2, [r1, #188]						;@ Write ExtraCoreSetup to 0x400000BC which signals core3 to jump
 352              	.WaitCore3ACK:
 353 0274 001093E5 		ldr	r1, [r3]							;@ Read CoreReady count
 354 0278 040051E3 		cmp	r1, #4								;@ check for ACK
 355 027c FCFFFF0A 		beq	.WaitCore3ACK						;@ Core2 not ready so read again
 356              	.NoMultiCoreSetup:
 357              	;@"================================================================"
 358              	;@ Finally that all done jump to the C compiler entry point
 359              	;@"================================================================"
 360 0280 FEFFFFEB 	   	 bl kernel_main
 361              	hang:
 362 0284 FEFFFFEA 		b hang
 363              	.balign	4
 364 0288 00000000 	.ltorg									;@ Tell assembler ltorg data for this code can go here
 364      00000000 
 364      00000000 
 364      67B70F41 
 364      00000000 
 365              	
 366              	_isr_Table:
 367 02f8 18F09FE5 	    ldr pc, _reset_h
 368 02fc 18F09FE5 	    ldr pc, _undefined_instruction_vector_h
 369 0300 18F09FE5 	    ldr pc, _software_interrupt_vector_h
 370 0304 18F09FE5 	    ldr pc, _prefetch_abort_vector_h
 371 0308 18F09FE5 	    ldr pc, _data_abort_vector_h
 372 030c 18F09FE5 	    ldr pc, _unused_handler_h
 373 0310 18F09FE5 	    ldr pc, _interrupt_vector_h
 374 0314 18F09FE5 	    ldr pc, _fast_interrupt_vector_h
 375              	
 376 0318 00000000 	_reset_h:                           .word   _start
 377 031c 84020000 	_undefined_instruction_vector_h:    .word   hang
 378 0320 84020000 	_software_interrupt_vector_h:       .word   hang
 379 0324 84020000 	_prefetch_abort_vector_h:           .word   hang
 380 0328 84020000 	_data_abort_vector_h:               .word   hang
 381 032c 84020000 	_unused_handler_h:                  .word   hang
 382 0330 14000000 	_interrupt_vector_h:                .word   _irq_handler_stub
 383 0334 84020000 	_fast_interrupt_vector_h:           .word   hang	
 384              	
 385              	
 386              	/*++++++++++++++++++++++++++++++++++++++++++++++++++++++++++++++++++++++++++}
 387              	{    Modified bootloader Spin loop but tolerant on registers R0-R3 for C    }
 388              	{++++++++++++++++++++++++++++++++++++++++++++++++++++++++++++++++++++++++++*/
 389              	.balign	4
 390              	SecondarySpin:
 391 0338 B00F10EE 		mrc     p15, 0, r0, c0, c0, 5
 392 033c 030010E2 		ands r0, r0, #0x3					    // Make core 2 bit bitmask in R0
ARM GAS  C:\Users\ldebo\AppData\Local\Temp\ccISOhOE.s 			page 8


 393 0340 44509FE5 		ldr r5, =mbox		
 394 0344 005095E5 		ldr r5, [r5]		@ mbox
 395 0348 0030A0E3 		mov	r3, #0			@ magic
 396 034c 405085E2 		add	r5, #(0x400000CC-0x4000008C)	@ mbox
 397              	SecondarySpinLoop:
 398 0350 004295E7 		ldr	r4, [r5, r0, lsl #4]
 399 0354 030054E1 		cmp	r4, r3
 400 0358 FCFFFF0A 		beq	SecondarySpinLoop
 401              	@ clear mailbox
 402 035c 004285E7 		str	r4, [r5, r0, lsl #4]
 403 0360 0000A0E3 		mov	r0, #0
 404 0364 24109FE5 		ldr r1, =machid		
 405 0368 001091E5 		ldr r1, [r1]		@ BCM2708 machine id
 406 036c 20209FE5 		ldr r2, = atags		
 407 0370 002092E5 		ldr r2, [r2]		@ ATAGS
 408 0374 1CE09FE5 		ldr lr, =SecondarySpin
 409 0378 14FF2FE1 		bx	r4
 410 037c EDFFFFEA 		b SecondarySpin
 411 0380 8C000040 	mbox: 	.4byte 0x4000008C
 412 0384 420C0000 	machid:	.4byte 3138
 413 0388 00010000 	atags:  .4byte 0x100
 414              	.balign	4
 415 038c 80030000 	.ltorg										;@ Tell assembler ltorg data for this code can go here
 415      84030000 
 415      88030000 
 415      38030000 
 416              	
 417              	.globl EnableInterrupts
 418              	EnableInterrupts:
 419 039c 800008F1 		cpsie i									;@ Enable IRQ
 420 03a0 1EFF2FE1 		bx  lr									;@ Return
 421              	
 422              	.globl DisableInterrupts
 423              	DisableInterrupts:
 424 03a4 80000CF1 	    cpsid i									;@ Disable IRQ
 425 03a8 1EFF2FE1 		bx  lr									;@ Return
 426              	
 427              	
 428              	.globl CoreExecute
 429              	CoreExecute:
 430 03ac FF0010E2 		ands r0, r0, #255
 431 03b0 0700000A 		beq CoreExecuteFail
 432 03b4 20309FE5 		ldr r3, =RPi_CoresReady
 433 03b8 002093E5 		ldr r2, [r3]							// Fetch cores ready count
 434 03bc 020050E1 		cmp r0, r2
 435 03c0 0300002A 		bcs	CoreExecuteFail
 436 03c4 14309FE5 		ldr r3, =#0x4000008C					// Load address of spins
 437 03c8 001283E7 		str r1, [r3, r0, lsl #4]				// Save caller address
 438 03cc 0100A0E3 		mov r0, #1
 439 03d0 1EFF2FE1 		bx  lr
 440              	CoreExecuteFail:
 441 03d4 0000A0E3 		mov r0, #0
 442 03d8 1EFF2FE1 		bx  lr
 443              	.balign	4
 444 03dc 00000000 	.ltorg										// Tell assembler ltorg data for this code can go here
 444      8C000040 
 445              	
ARM GAS  C:\Users\ldebo\AppData\Local\Temp\ccISOhOE.s 			page 9


 446              	/*++++++++++++++++++++++++++++++++++++++++++++++++++++++++++++++++++++++++++}
 447              	{				IRQ HELPER ROUTINES PROVIDE BY RPi-SmartStart API		    }
 448              	{++++++++++++++++++++++++++++++++++++++++++++++++++++++++++++++++++++++++++*/
 449              	/* "PROVIDE C FUNCTION: TimerIrqHandler setTimerIrqAddress ( TimerIrqHandler* ARMaddress);" */
 450              	.section .text.setTimerIrqAddress, "ax", %progbits
 451              	.balign	4
 452              	.globl setTimerIrqAddress;
 453              	.type setTimerIrqAddress, %function
 454              	setTimerIrqAddress:
 455 0000 80000CF1 	    	cpsid i								// Disable irq interrupts as we are clearly changing call
 456 0004 0C109FE5 		ldr r1, =RPi_TimerIrqAddr						// Load address of function to call on interrupt 
 457 0008 002091E5 		ldr r2, [r1]							// Load current irq call address
 458 000c 000081E5 		str r0, [r1]							// Store the new function pointer address we were given
 459 0010 0200A0E1 		mov r0, r2							// return the old call function
 460 0014 1EFF2FE1 		bx  lr								// Return
 461              	.balign	4
 462 0018 18000000 	.ltorg										// Tell assembler ltorg data for this code can go here
 463              	.size	setTimerIrqAddress, .-setTimerIrqAddress
 464              	
 465              	/*++++++++++++++++++++++++++++++++++++++++++++++++++++++++++++++++++++++++++}
 466              	{		VC4 GPU ADDRESS HELPER ROUTINES PROVIDE BY RPi-SmartStart API	    }
 467              	{++++++++++++++++++++++++++++++++++++++++++++++++++++++++++++++++++++++++++*/
 468              	
 469              	/* "PROVIDE C FUNCTION: uint32_t ARMaddrToGPUaddr (void* ARMaddress);" */
 470              	.section .text.ARMaddrToGPUaddr, "ax", %progbits
 471              	.balign	4
 472              	.globl ARMaddrToGPUaddr;		
 473              	.type ARMaddrToGPUaddr, %function
 474              	.syntax unified
 475              	.arm
 476              	;@"================================================================"
 477              	;@ ARMaddrToGPUaddr -- Composite Pi1, Pi2 & Pi3 code
 478              	;@ C Function: uint32_t ARMaddrToGPUaddr (void* ARMaddress);
 479              	;@ Entry: R0 will have ARMAddress value
 480              	;@"================================================================"
 481              	ARMaddrToGPUaddr:
 482 0000 08109FE5 		ldr r1, =RPi_BusAlias
 483 0004 001091E5 	    ldr r1,[r1]								;@ Fetch bus alias	
 484 0008 010080E1 		orr r0, r0, r1							;@ Create bus address
 485 000c 1EFF2FE1 		bx   lr									;@ Return
 486              	.balign	4
 487 0010 00000000 	.ltorg										;@ Tell assembler ltorg data for this code can go here
 488              	.size	ARMaddrToGPUaddr, .-ARMaddrToGPUaddr
 489              	
 490              	
 491              	/* "PROVIDE C FUNCTION: uint32_t GPUaddrToARMaddr (uint32_t BUSaddress);" */
 492              	.section .text.GPUaddrToARMaddr, "ax", %progbits
 493              	.balign	4
 494              	.globl GPUaddrToARMaddr;		
 495              	.type GPUaddrToARMaddr, %function
 496              	.syntax unified
 497              	.arm
 498              	;@"================================================================"
 499              	;@ GPUaddrToARMaddr -- Composite Pi1, Pi2 & Pi3 code
 500              	;@ C Function: uint32_t GPUaddrToARMaddr (uint32_t BUSaddress);
 501              	;@ Entry: R0 will have GPUAddress value
 502              	;@"================================================================"
ARM GAS  C:\Users\ldebo\AppData\Local\Temp\ccISOhOE.s 			page 10


 503              	GPUaddrToARMaddr:
 504 0000 08109FE5 		ldr r1, =RPi_BusAlias
 505 0004 001091E5 	    ldr r1,[r1]								;@ Fetch bus alias	
 506 0008 0100C0E1 		bic r0, r0, r1							;@ Create arm address
 507 000c 1EFF2FE1 		bx   lr									;@ Return
 508              	.balign	4
 509 0010 00000000 	.ltorg										;@ Tell assembler ltorg data for this code can go here
 510              	.size	GPUaddrToARMaddr, .-GPUaddrToARMaddr
 511              	
 512              	
 513              	/* Re-entrant interrupt handler stub */
 514              	/* http://infocenter.arm.com/help/index.jsp?topic=/com.arm.doc.faqs/ka13552.html */
 515              	_irq_handler_stub:
 516 0014 04E04EE2 	    sub lr, lr, #4							;@ Use SRS to save LR_irq and SPSP_irq
 517 0018 13056DF9 	    srsfd sp!, #0x13						;@ on to the SVC mode stack
 518              	
 519 001c 130002F1 	    cps #0x13								;@ Switch to SVC mode
 520 0020 0F102DE9 	    push {r0-r3, r12}						;@ Store AAPCS regs on to SVC stack
 521              	
 522 0024 0D10A0E1 	    mov r1, sp
 523 0028 041001E2 	    and r1, r1, #4							;@ Ensure 8-byte stack alignment…
 524 002c 01D04DE0 	    sub sp, sp, r1							;@ …adjust stack as necessary
 525 0030 02402DE9 	    push {r1, lr}							;@ Store adjustment and LR_svc
 526              	
 527              	
 528              		//  if (IRQ->IRQBasicPending.Timer_IRQ_pending) {				// Check irq on timer is triggered
 529              		//	  ARMTIMER->Clear = 1;										// Write any value to register to clear irq ... PAGE 198
 530              		//	  IRQ->IRQPending1 &= ~0x1;									// Clear timer pending irq bit 0
 531              		//  }
 532 0034 54309FE5 		ldr	r3, = RPi_IO_Base_Addr
 533 0038 003093E5 		ldr	r3, [r3]							// Fetch Pi IO base Address
 534 003c B22C83E2 		add	r2, r3, #45568						// Add 0xB200
 535 0040 001092E5 		ldr	r1, [r2]							// IRQ->IRQBasicPending
 536 0044 010011E3 		tst	r1, #1								// If timer IRQ pending not yet pending
 537 0048 0500000A 		beq	.NoTimerIrq							// Nothing to do
 538 004c 2D3B83E2 		add	r3, r3, #46080						// Add 0xB400
 539 0050 0110A0E3 		mov	r1, #1								// Load #1
 540 0054 0C1083E5 		str	r1, [r3, #12]						// Write to clear register
 541 0058 043092E5 		ldr	r3, [r2, #4]						// Fetch Irq pending
 542 005c 0130C3E3 		bic	r3, r3, #1							// Clear pending bit
 543 0060 043082E5 		str	r3, [r2, #4]						// Write value back
 544              	.NoTimerIrq:
 545              	
 546 0064 800008F1 	    cpsie i									;@ Enable IRQ
 547              	
 548 0068 24009FE5 	  	ldr r0, =RPi_TimerIrqAddr				// Address to TimerIrqAddr
 549 006c 000090E5 		ldr r0, [r0]							// Load TimerIrqAddr value
 550 0070 000050E3 		cmp r0, #0
 551 0074 0000000A 		beq no_irqset							// If zero no irq set 
 552 0078 30FF2FE1 		blx r0									// Call Irqhandler that has been set  
 553              	no_irqset:	
 554              	
 555 007c 80000CF1 	    cpsid i									;@ Disable IRQ
 556              	
 557 0080 0240BDE8 	    pop {r1, lr}							;@ Restore LR_svc
 558 0084 01D08DE0 	    add sp, sp, r1							;@ Un-adjust stack
 559              	
ARM GAS  C:\Users\ldebo\AppData\Local\Temp\ccISOhOE.s 			page 11


 560 0088 0F10BDE8 	    pop {r0-r3, r12}						;@ Restore AAPCS registers
 561 008c 000ABDF8 	    rfefd sp!								;@ Return from the SVC mode stack
 562              	
 563              	.section .text._sbrk, "ax", %progbits
 564              	.balign	4
 565              	.globl _sbrk;			
 566              	.type _sbrk, %function
 567              	.syntax unified
 568              	.arm
 569              	_sbrk:
 570 0000 1C209FE5 	        ldr     r2, =RPi_Heap
 571 0004 1C109FE5 	        ldr     r1, =_end
 572 0008 003092E5 	        ldr     r3, [r2]
 573 000c 000053E3 	        cmp     r3, #0
 574 0010 0130A001 	        moveq   r3, r1
 575 0014 000083E0 	        add     r0, r3, r0
 576 0018 000082E5 	        str     r0, [r2]
 577 001c 0300A0E1 	        mov     r0, r3
 578 0020 1EFF2FE1 	        bx      lr
 579              	.balign	4
 580 0024 00000000 	.ltorg										;@ Tell assembler ltorg data for this code can go here
 580      00000000 
 581              	.size	_sbrk, .-_sbrk
 582              	
 583              	/****************************************************************
 584              	       	   DATA FOR SMARTSTART32 EXPOSED TO INTERFACE 
 585              	****************************************************************/
 586              	.section ".data.smartstart32", "aw"
 587              	.balign 4
 588              	
 589              	.globl RPi_IO_Base_Addr;				// Make sure Pi_IO_Base_Addr label is global
 590 0000 00000000 	RPi_IO_Base_Addr : .4byte 0;			// Peripheral Base addr is 4 byte variable in 32bit mode
 591              	
 592              	.globl RPi_BootAddr;					// Make sure RPi_BootAddr label is global
 593 0004 00000000 	RPi_BootAddr : .4byte 0;				// CPU boot address is 4 byte variable in 32bit mode
 594              	
 595              	.globl RPi_CoresReady;					// Make sure RPi_CoresReady label is global
 596 0008 00000000 	RPi_CoresReady : .4byte 0;				// CPU cores ready for use is 4 byte variable in 32bit mode
 597              	
 598              	.globl RPi_CPUBootMode;					// Make sure RPi_CPUBootMode label is global
 599 000c 00000000 	RPi_CPUBootMode : .4byte 0;				// CPU Boot Mode is 4 byte variable in 32bit mode
 600              	
 601              	.globl RPi_CpuId;						// Make sure RPi_CpuId label is global
 602 0010 00000000 	RPi_CpuId : .4byte 0;					// CPU Id is 4 byte variable in 32bit mode
 603              	
 604              	.globl RPi_CompileMode;					// Make sure RPi_CompileMode label is global
 605 0014 00000000 	RPi_CompileMode : .4byte 0;				// Compile mode is 4 byte variable in 32bit mode
 606              	
 607              	/****************************************************************
 608              	       	   DATA FOR SMARTSTART32  NOT EXPOSED TO INTERFACE 
 609              	****************************************************************/
 610 0018 00000000 	RPi_TimerIrqAddr : .4byte 0;			// Timer Irq Address...
ARM GAS  C:\Users\ldebo\AppData\Local\Temp\ccISOhOE.s 			page 12


DEFINED SYMBOLS
      SmartStart32.S:44     *ABS*:410fb767 ARM6_CPU_ID
      SmartStart32.S:45     *ABS*:410fc073 ARM7_CPU_ID
      SmartStart32.S:46     *ABS*:410fd034 ARM8_CPU_ID
      SmartStart32.S:51     *ABS*:00000011 CPU_FIQMODE
      SmartStart32.S:52     *ABS*:00000012 CPU_IRQMODE
      SmartStart32.S:53     *ABS*:00000013 CPU_SVCMODE
      SmartStart32.S:54     *ABS*:0000001a CPU_HYPMODE
      SmartStart32.S:65     *ABS*:000000d1 CPU_FIQMODE_VALUE
      SmartStart32.S:66     *ABS*:000000d2 CPU_IRQMODE_VALUE
      SmartStart32.S:67     *ABS*:000000d3 CPU_SVCMODE_VALUE
      SmartStart32.S:73     .data.smartstart:00000000 $d
      SmartStart32.S:75     .data.smartstart:00000000 RPi_BusAlias
      SmartStart32.S:80     .data.smartstart:00000004 RPi_CPUCurrentMode
      SmartStart32.S:83     .data.smartstart:00000008 RPi_Heap
      SmartStart32.S:86     .text.startup:00000000 $a
      SmartStart32.S:90     .text.startup:00000000 _start
      SmartStart32.S:100    .text.startup:0000000c multicore_start
      SmartStart32.S:115    .text.startup:00000034 .NotInHypMode
      SmartStart32.S:113    .text.startup:0000002c $d
      SmartStart32.S:119    .text.startup:00000034 $a
      SmartStart32.S:142    .text.startup:00000090 set_svc_stack
      SmartStart32.S:169    .text.startup:000000d8 .free_to_enable_fpu1
      SmartStart32.S:178    *ABS*:00000004 SCTLR_ENABLE_DATA_CACHE
      SmartStart32.S:179    *ABS*:00000800 SCTLR_ENABLE_BRANCH_PREDICTION
      SmartStart32.S:180    *ABS*:00001000 SCTLR_ENABLE_INSTRUCTION_CACHE
      SmartStart32.S:209    .text.startup:00000130 .cpu0_exit_multicore_park
      SmartStart32.S:596    .data.smartstart32:00000008 RPi_CoresReady
      SmartStart32.S:390    .text.startup:00000338 SecondarySpin
      SmartStart32.S:593    .data.smartstart32:00000004 RPi_BootAddr
      SmartStart32.S:599    .data.smartstart32:0000000c RPi_CPUBootMode
      SmartStart32.S:602    .data.smartstart32:00000010 RPi_CpuId
      SmartStart32.S:605    .data.smartstart32:00000014 RPi_CompileMode
      SmartStart32.S:276    .text.startup:000001b0 .not_at_address_1
      SmartStart32.S:590    .data.smartstart32:00000000 RPi_IO_Base_Addr
      SmartStart32.S:299    .text.startup:000001dc .autodetect_done
      SmartStart32.S:291    .text.startup:000001c4 .At2ndAddress
      SmartStart32.S:285    .text.startup:000001c0 .pi_detect_fail
      SmartStart32.S:366    .text.startup:000002f8 _isr_Table
      SmartStart32.S:316    .text.startup:00000200 .clear_bss
      SmartStart32.S:322    .text.startup:00000214 .clear_bss_exit
      SmartStart32.S:356    .text.startup:00000280 .NoMultiCoreSetup
      SmartStart32.S:339    .text.startup:00000248 .WaitCore1ACK
      SmartStart32.S:346    .text.startup:00000260 .WaitCore2ACK
      SmartStart32.S:352    .text.startup:00000274 .WaitCore3ACK
      SmartStart32.S:361    .text.startup:00000284 hang
      SmartStart32.S:364    .text.startup:00000288 $d
      SmartStart32.S:376    .text.startup:00000318 _reset_h
      SmartStart32.S:367    .text.startup:000002f8 $a
      SmartStart32.S:377    .text.startup:0000031c _undefined_instruction_vector_h
      SmartStart32.S:378    .text.startup:00000320 _software_interrupt_vector_h
      SmartStart32.S:379    .text.startup:00000324 _prefetch_abort_vector_h
      SmartStart32.S:380    .text.startup:00000328 _data_abort_vector_h
      SmartStart32.S:381    .text.startup:0000032c _unused_handler_h
      SmartStart32.S:382    .text.startup:00000330 _interrupt_vector_h
      SmartStart32.S:383    .text.startup:00000334 _fast_interrupt_vector_h
      SmartStart32.S:376    .text.startup:00000318 $d
ARM GAS  C:\Users\ldebo\AppData\Local\Temp\ccISOhOE.s 			page 13


      SmartStart32.S:515    .text.GPUaddrToARMaddr:00000014 _irq_handler_stub
      SmartStart32.S:389    .text.startup:00000338 $a
      SmartStart32.S:411    .text.startup:00000380 mbox
      SmartStart32.S:397    .text.startup:00000350 SecondarySpinLoop
      SmartStart32.S:412    .text.startup:00000384 machid
      SmartStart32.S:413    .text.startup:00000388 atags
      SmartStart32.S:411    .text.startup:00000380 $d
      SmartStart32.S:415    .text.startup:0000038c $d
      SmartStart32.S:418    .text.startup:0000039c EnableInterrupts
      SmartStart32.S:419    .text.startup:0000039c $a
      SmartStart32.S:423    .text.startup:000003a4 DisableInterrupts
      SmartStart32.S:429    .text.startup:000003ac CoreExecute
      SmartStart32.S:440    .text.startup:000003d4 CoreExecuteFail
      SmartStart32.S:444    .text.startup:000003dc $d
      SmartStart32.S:451    .text.setTimerIrqAddress:00000000 $a
      SmartStart32.S:454    .text.setTimerIrqAddress:00000000 setTimerIrqAddress
      SmartStart32.S:610    .data.smartstart32:00000018 RPi_TimerIrqAddr
      SmartStart32.S:462    .text.setTimerIrqAddress:00000018 $d
      SmartStart32.S:471    .text.ARMaddrToGPUaddr:00000000 $a
      SmartStart32.S:481    .text.ARMaddrToGPUaddr:00000000 ARMaddrToGPUaddr
      SmartStart32.S:487    .text.ARMaddrToGPUaddr:00000010 $d
      SmartStart32.S:493    .text.GPUaddrToARMaddr:00000000 $a
      SmartStart32.S:503    .text.GPUaddrToARMaddr:00000000 GPUaddrToARMaddr
      SmartStart32.S:509    .text.GPUaddrToARMaddr:00000010 $d
      SmartStart32.S:516    .text.GPUaddrToARMaddr:00000014 $a
      SmartStart32.S:544    .text.GPUaddrToARMaddr:00000064 .NoTimerIrq
      SmartStart32.S:553    .text.GPUaddrToARMaddr:0000007c no_irqset
      SmartStart32.S:564    .text._sbrk:00000000 $a
      SmartStart32.S:569    .text._sbrk:00000000 _sbrk
      SmartStart32.S:580    .text._sbrk:00000024 $d
      SmartStart32.S:587    .data.smartstart32:00000000 $d
      SmartStart32.S:610    .text.GPUaddrToARMaddr:00000090 $d

UNDEFINED SYMBOLS
__SVC_stack_core0
__FIQ_stack_core0
__IRQ_stack_core0
__SVC_stack_core1
__FIQ_stack_core1
__IRQ_stack_core1
__SVC_stack_core2
__FIQ_stack_core2
__IRQ_stack_core2
__SVC_stack_core3
__FIQ_stack_core3
__IRQ_stack_core3
__bss_start__
__bss_end__
kernel_main
_end
ARM GAS  C:\Users\ldebo\AppData\Local\Temp\ccISOhOE.s 			page 1


   1              		.arch armv6zk
   2              		.eabi_attribute 28, 1
   3              		.eabi_attribute 20, 1
   4              		.eabi_attribute 21, 1
   5              		.eabi_attribute 23, 3
   6              		.eabi_attribute 24, 1
   7              		.eabi_attribute 25, 1
   8              		.eabi_attribute 26, 1
   9              		.eabi_attribute 30, 2
  10              		.eabi_attribute 34, 0
  11              		.eabi_attribute 18, 4
  12              		.file	"rpi-SmartStart.C"
  13              		.text
  14              		.align	2
  15              		.syntax unified
  16              		.arm
  17              		.fpu vfp
  18              		.type	_ZL11ClearArea16P8tagINTDCjjjj, %function
  19              	_ZL11ClearArea16P8tagINTDCjjjj:
  20              		@ args = 4, pretend = 0, frame = 0
  21              		@ frame_needed = 0, uses_anonymous_args = 0
  22 0000 F0472DE9 		push	{r4, r5, r6, r7, r8, r9, r10, lr}
  23 0004 04A090E5 		ldr	r10, [r0, #4]
  24 0008 20909DE5 		ldr	r9, [sp, #32]
  25 000c 921A24E0 		mla	r4, r2, r10, r1
  26 0010 006090E5 		ldr	r6, [r0]
  27 0014 029059E0 		subs	r9, r9, r2
  28 0018 2AE0D0E5 		ldrb	lr, [r0, #42]	@ zero_extendqisi2
  29 001c 29C0D0E5 		ldrb	ip, [r0, #41]	@ zero_extendqisi2
  30 0020 2820D0E5 		ldrb	r2, [r0, #40]	@ zero_extendqisi2
  31 0024 846086E0 		add	r6, r6, r4, lsl #1
  32 0028 F087BD08 		popeq	{r4, r5, r6, r7, r8, r9, r10, pc}
  33 002c 013053E0 		subs	r3, r3, r1
  34 0030 8AA0A0E1 		lsl	r10, r10, #1
  35 0034 F087BD08 		popeq	{r4, r5, r6, r7, r8, r9, r10, pc}
  36 0038 0070A0E3 		mov	r7, #0
  37 003c 2CC1A0E1 		lsr	ip, ip, #2
  38 0040 07500CE2 		and	r5, ip, #7
  39 0044 AEE1A0E1 		lsr	lr, lr, #3
  40 0048 A221A0E1 		lsr	r2, r2, #3
  41 004c 8380A0E1 		lsl	r8, r3, #1
  42 0050 1F4002E2 		and	r4, r2, #31
  43 0054 8EE1A0E1 		lsl	lr, lr, #3
  44 0058 8552A0E1 		lsl	r5, r5, #5
  45 005c ACC1A0E1 		lsr	ip, ip, #3
  46              	.L5:
  47 0060 0630A0E1 		mov	r3, r6
  48 0064 080086E0 		add	r0, r6, r8
  49              	.L4:
  50 0068 051084E1 		orr	r1, r4, r5
  51 006c 0C208EE1 		orr	r2, lr, ip
  52 0070 0010C3E5 		strb	r1, [r3]
  53 0074 0120C3E5 		strb	r2, [r3, #1]
  54 0078 023083E2 		add	r3, r3, #2
  55 007c 000053E1 		cmp	r3, r0
  56 0080 F8FFFF1A 		bne	.L4
  57 0084 017087E2 		add	r7, r7, #1
ARM GAS  C:\Users\ldebo\AppData\Local\Temp\ccISOhOE.s 			page 2


  58 0088 090057E1 		cmp	r7, r9
  59 008c 0A6086E0 		add	r6, r6, r10
  60 0090 F2FFFF1A 		bne	.L5
  61 0094 F087BDE8 		pop	{r4, r5, r6, r7, r8, r9, r10, pc}
  62              		.size	_ZL11ClearArea16P8tagINTDCjjjj, .-_ZL11ClearArea16P8tagINTDCjjjj
  63              		.align	2
  64              		.syntax unified
  65              		.arm
  66              		.fpu vfp
  67              		.type	_ZL10VertLine16P8tagINTDCji, %function
  68              	_ZL10VertLine16P8tagINTDCji:
  69              		@ args = 0, pretend = 0, frame = 0
  70              		@ frame_needed = 0, uses_anonymous_args = 0
  71 0098 F0472DE9 		push	{r4, r5, r6, r7, r8, r9, r10, lr}
  72 009c 048090E5 		ldr	r8, [r0, #4]
  73 00a0 14A090E5 		ldr	r10, [r0, #20]
  74 00a4 8880A0E1 		lsl	r8, r8, #1
  75 00a8 9A080CE0 		mul	ip, r10, r8
  76 00ac 103090E5 		ldr	r3, [r0, #16]
  77 00b0 00E090E5 		ldr	lr, [r0]
  78 00b4 83308CE0 		add	r3, ip, r3, lsl #1
  79 00b8 000051E3 		cmp	r1, #0
  80 00bc 2260D0E5 		ldrb	r6, [r0, #34]	@ zero_extendqisi2
  81 00c0 2150D0E5 		ldrb	r5, [r0, #33]	@ zero_extendqisi2
  82 00c4 2070D0E5 		ldrb	r7, [r0, #32]	@ zero_extendqisi2
  83 00c8 0E3083E0 		add	r3, r3, lr
  84 00cc 1200000A 		beq	.L16
  85 00d0 2551A0E1 		lsr	r5, r5, #2
  86 00d4 079005E2 		and	r9, r5, #7
  87 00d8 A661A0E1 		lsr	r6, r6, #3
  88 00dc A771A0E1 		lsr	r7, r7, #3
  89 00e0 010052E3 		cmp	r2, #1
  90 00e4 0040A0E3 		mov	r4, #0
  91 00e8 1F7007E2 		and	r7, r7, #31
  92 00ec 8661A0E1 		lsl	r6, r6, #3
  93 00f0 8992A0E1 		lsl	r9, r9, #5
  94 00f4 A551A0E1 		lsr	r5, r5, #3
  95 00f8 0A00000A 		beq	.L18
  96              	.L17:
  97 00fc 014084E2 		add	r4, r4, #1
  98 0100 09E087E1 		orr	lr, r7, r9
  99 0104 05C086E1 		orr	ip, r6, r5
 100 0108 040051E1 		cmp	r1, r4
 101 010c 00E0C3E5 		strb	lr, [r3]
 102 0110 01C0C3E5 		strb	ip, [r3, #1]
 103 0114 083043E0 		sub	r3, r3, r8
 104 0118 F7FFFF1A 		bne	.L17
 105              	.L16:
 106 011c 91A221E0 		mla	r1, r1, r2, r10
 107 0120 141080E5 		str	r1, [r0, #20]
 108 0124 F087BDE8 		pop	{r4, r5, r6, r7, r8, r9, r10, pc}
 109              	.L18:
 110 0128 014084E2 		add	r4, r4, #1
 111 012c 09E087E1 		orr	lr, r7, r9
 112 0130 05C086E1 		orr	ip, r6, r5
 113 0134 040051E1 		cmp	r1, r4
 114 0138 00E0C3E5 		strb	lr, [r3]
ARM GAS  C:\Users\ldebo\AppData\Local\Temp\ccISOhOE.s 			page 3


 115 013c 01C0C3E5 		strb	ip, [r3, #1]
 116 0140 083083E0 		add	r3, r3, r8
 117 0144 F7FFFF1A 		bne	.L18
 118 0148 F3FFFFEA 		b	.L16
 119              		.size	_ZL10VertLine16P8tagINTDCji, .-_ZL10VertLine16P8tagINTDCji
 120              		.align	2
 121              		.syntax unified
 122              		.arm
 123              		.fpu vfp
 124              		.type	_ZL10HorzLine16P8tagINTDCji, %function
 125              	_ZL10HorzLine16P8tagINTDCji:
 126              		@ args = 0, pretend = 0, frame = 0
 127              		@ frame_needed = 0, uses_anonymous_args = 0
 128 014c F0472DE9 		push	{r4, r5, r6, r7, r8, r9, r10, lr}
 129 0150 043090E5 		ldr	r3, [r0, #4]
 130 0154 109090E5 		ldr	r9, [r0, #16]
 131 0158 14E090E5 		ldr	lr, [r0, #20]
 132 015c 89C0A0E1 		lsl	ip, r9, #1
 133 0160 8330A0E1 		lsl	r3, r3, #1
 134 0164 9EC323E0 		mla	r3, lr, r3, ip
 135 0168 00C090E5 		ldr	ip, [r0]
 136 016c 000051E3 		cmp	r1, #0
 137 0170 2260D0E5 		ldrb	r6, [r0, #34]	@ zero_extendqisi2
 138 0174 2150D0E5 		ldrb	r5, [r0, #33]	@ zero_extendqisi2
 139 0178 2070D0E5 		ldrb	r7, [r0, #32]	@ zero_extendqisi2
 140 017c 0C3083E0 		add	r3, r3, ip
 141 0180 1100000A 		beq	.L25
 142 0184 0040A0E3 		mov	r4, #0
 143 0188 2551A0E1 		lsr	r5, r5, #2
 144 018c 078005E2 		and	r8, r5, #7
 145 0190 A661A0E1 		lsr	r6, r6, #3
 146 0194 A771A0E1 		lsr	r7, r7, #3
 147 0198 1F7007E2 		and	r7, r7, #31
 148 019c 8661A0E1 		lsl	r6, r6, #3
 149 01a0 8882A0E1 		lsl	r8, r8, #5
 150 01a4 A551A0E1 		lsr	r5, r5, #3
 151 01a8 82A0A0E1 		lsl	r10, r2, #1
 152              	.L26:
 153 01ac 014084E2 		add	r4, r4, #1
 154 01b0 08E087E1 		orr	lr, r7, r8
 155 01b4 05C086E1 		orr	ip, r6, r5
 156 01b8 040051E1 		cmp	r1, r4
 157 01bc 00E0C3E5 		strb	lr, [r3]
 158 01c0 01C0C3E5 		strb	ip, [r3, #1]
 159 01c4 0A3083E0 		add	r3, r3, r10
 160 01c8 F7FFFF1A 		bne	.L26
 161              	.L25:
 162 01cc 919221E0 		mla	r1, r1, r2, r9
 163 01d0 101080E5 		str	r1, [r0, #16]
 164 01d4 F087BDE8 		pop	{r4, r5, r6, r7, r8, r9, r10, pc}
 165              		.size	_ZL10HorzLine16P8tagINTDCji, .-_ZL10HorzLine16P8tagINTDCji
 166              		.align	2
 167              		.syntax unified
 168              		.arm
 169              		.fpu vfp
 170              		.type	_ZL10DiagLine16P8tagINTDCjjii, %function
 171              	_ZL10DiagLine16P8tagINTDCjjii:
ARM GAS  C:\Users\ldebo\AppData\Local\Temp\ccISOhOE.s 			page 4


 172              		@ args = 4, pretend = 0, frame = 24
 173              		@ frame_needed = 0, uses_anonymous_args = 0
 174 01d8 F04F2DE9 		push	{r4, r5, r6, r7, r8, r9, r10, fp, lr}
 175 01dc 0040A0E1 		mov	r4, r0
 176 01e0 10C090E5 		ldr	ip, [r0, #16]
 177 01e4 1CD04DE2 		sub	sp, sp, #28
 178 01e8 0CE0A0E1 		mov	lr, ip
 179 01ec 0CC08DE5 		str	ip, [sp, #12]
 180 01f0 14C094E5 		ldr	ip, [r4, #20]
 181 01f4 14008DE5 		str	r0, [sp, #20]
 182 01f8 0C50A0E1 		mov	r5, ip
 183 01fc 040090E5 		ldr	r0, [r0, #4]
 184 0200 8EE0A0E1 		lsl	lr, lr, #1
 185 0204 10C08DE5 		str	ip, [sp, #16]
 186 0208 80C0A0E1 		lsl	ip, r0, #1
 187 020c 95EC2CE0 		mla	ip, r5, ip, lr
 188 0210 020051E1 		cmp	r1, r2
 189 0214 00E094E5 		ldr	lr, [r4]
 190 0218 0120A031 		movcc	r2, r1
 191 021c 000051E3 		cmp	r1, #0
 192 0220 2280D4E5 		ldrb	r8, [r4, #34]	@ zero_extendqisi2
 193 0224 2170D4E5 		ldrb	r7, [r4, #33]	@ zero_extendqisi2
 194 0228 2090D4E5 		ldrb	r9, [r4, #32]	@ zero_extendqisi2
 195 022c 08308DE5 		str	r3, [sp, #8]
 196 0230 0EC08CE0 		add	ip, ip, lr
 197 0234 2000000A 		beq	.L32
 198 0238 0040A0E3 		mov	r4, #0
 199 023c 0430A0E1 		mov	r3, r4
 200 0240 40E09DE5 		ldr	lr, [sp, #64]
 201 0244 2771A0E1 		lsr	r7, r7, #2
 202 0248 8EE0A0E1 		lsl	lr, lr, #1
 203 024c 900E00E0 		mul	r0, r0, lr
 204 0250 04008DE5 		str	r0, [sp, #4]
 205 0254 08009DE5 		ldr	r0, [sp, #8]
 206 0258 07A007E2 		and	r10, r7, #7
 207 025c A881A0E1 		lsr	r8, r8, #3
 208 0260 A991A0E1 		lsr	r9, r9, #3
 209 0264 1F9009E2 		and	r9, r9, #31
 210 0268 8881A0E1 		lsl	r8, r8, #3
 211 026c 8AA2A0E1 		lsl	r10, r10, #5
 212 0270 A771A0E1 		lsr	r7, r7, #3
 213 0274 80B0A0E1 		lsl	fp, r0, #1
 214              	.L33:
 215 0278 04009DE5 		ldr	r0, [sp, #4]
 216 027c 033082E0 		add	r3, r2, r3
 217 0280 0BE08CE0 		add	lr, ip, fp
 218 0284 0A6089E1 		orr	r6, r9, r10
 219 0288 030051E1 		cmp	r1, r3
 220 028c 0060CCE5 		strb	r6, [ip]
 221 0290 00508EE0 		add	r5, lr, r0
 222 0294 014084E2 		add	r4, r4, #1
 223 0298 070088E1 		orr	r0, r8, r7
 224 029c 016043E0 		sub	r6, r3, r1
 225 02a0 0100CCE5 		strb	r0, [ip, #1]
 226 02a4 0630A091 		movls	r3, r6
 227 02a8 0EC0A081 		movhi	ip, lr
 228 02ac 05C0A091 		movls	ip, r5
ARM GAS  C:\Users\ldebo\AppData\Local\Temp\ccISOhOE.s 			page 5


 229 02b0 040051E1 		cmp	r1, r4
 230 02b4 EFFFFF1A 		bne	.L33
 231 02b8 08309DE5 		ldr	r3, [sp, #8]
 232              	.L32:
 233 02bc 0C009DE5 		ldr	r0, [sp, #12]
 234 02c0 910321E0 		mla	r1, r1, r3, r0
 235 02c4 40309DE5 		ldr	r3, [sp, #64]
 236 02c8 10009DE5 		ldr	r0, [sp, #16]
 237 02cc 920322E0 		mla	r2, r2, r3, r0
 238 02d0 14309DE5 		ldr	r3, [sp, #20]
 239 02d4 101083E5 		str	r1, [r3, #16]
 240 02d8 142083E5 		str	r2, [r3, #20]
 241 02dc 1CD08DE2 		add	sp, sp, #28
 242              		@ sp needed
 243 02e0 F08FBDE8 		pop	{r4, r5, r6, r7, r8, r9, r10, fp, pc}
 244              		.size	_ZL10DiagLine16P8tagINTDCjjii, .-_ZL10DiagLine16P8tagINTDCjjii
 245              		.align	2
 246              		.syntax unified
 247              		.arm
 248              		.fpu vfp
 249              		.type	_ZL11WriteChar16P8tagINTDCh, %function
 250              	_ZL11WriteChar16P8tagINTDCh:
 251              		@ args = 0, pretend = 0, frame = 16
 252              		@ frame_needed = 0, uses_anonymous_args = 0
 253 02e4 F04F2DE9 		push	{r4, r5, r6, r7, r8, r9, r10, fp, lr}
 254 02e8 102090E5 		ldr	r2, [r0, #16]
 255 02ec 14D04DE2 		sub	sp, sp, #20
 256 02f0 02C0A0E1 		mov	ip, r2
 257 02f4 08208DE5 		str	r2, [sp, #8]
 258 02f8 0020A0E1 		mov	r2, r0
 259 02fc 045090E5 		ldr	r5, [r0, #4]
 260 0300 0C008DE5 		str	r0, [sp, #12]
 261 0304 140090E5 		ldr	r0, [r0, #20]
 262 0308 8C30A0E1 		lsl	r3, ip, #1
 263 030c 8550A0E1 		lsl	r5, r5, #1
 264 0310 903520E0 		mla	r0, r0, r5, r3
 265 0314 0112A0E1 		lsl	r1, r1, #4
 266 0318 D4309FE5 		ldr	r3, .L43
 267 031c 00C092E5 		ldr	ip, [r2]
 268 0320 22B0D2E5 		ldrb	fp, [r2, #34]	@ zero_extendqisi2
 269 0324 21A0D2E5 		ldrb	r10, [r2, #33]	@ zero_extendqisi2
 270 0328 2090D2E5 		ldrb	r9, [r2, #32]	@ zero_extendqisi2
 271 032c 2680D2E5 		ldrb	r8, [r2, #38]	@ zero_extendqisi2
 272 0330 2570D2E5 		ldrb	r7, [r2, #37]	@ zero_extendqisi2
 273 0334 2460D2E5 		ldrb	r6, [r2, #36]	@ zero_extendqisi2
 274 0338 102081E2 		add	r2, r1, #16
 275 033c 022083E0 		add	r2, r3, r2
 276 0340 013083E0 		add	r3, r3, r1
 277 0344 0C0080E0 		add	r0, r0, ip
 278 0348 ABB1A0E1 		lsr	fp, fp, #3
 279 034c 2AA1A0E1 		lsr	r10, r10, #2
 280 0350 A991A0E1 		lsr	r9, r9, #3
 281 0354 A881A0E1 		lsr	r8, r8, #3
 282 0358 2771A0E1 		lsr	r7, r7, #2
 283 035c A661A0E1 		lsr	r6, r6, #3
 284 0360 04208DE5 		str	r2, [sp, #4]
 285 0364 00308DE5 		str	r3, [sp]
ARM GAS  C:\Users\ldebo\AppData\Local\Temp\ccISOhOE.s 			page 6


 286              	.L39:
 287 0368 0010A0E3 		mov	r1, #0
 288 036c 04E093E4 		ldr	lr, [r3], #4
 289 0370 00308DE5 		str	r3, [sp]
 290              	.L38:
 291 0374 00005EE3 		cmp	lr, #0
 292 0378 0A40A0B1 		movlt	r4, r10
 293 037c 0740A0A1 		movge	r4, r7
 294 0380 09C0A0B1 		movlt	ip, r9
 295 0384 06C0A0A1 		movge	ip, r6
 296 0388 0B30A0B1 		movlt	r3, fp
 297 038c 0830A0A1 		movge	r3, r8
 298 0390 072004E2 		and	r2, r4, #7
 299 0394 82C28CE1 		orr	ip, ip, r2, lsl #5
 300 0398 072001E2 		and	r2, r1, #7
 301 039c 82C0C0E7 		strb	ip, [r0, r2, lsl #1]
 302 03a0 070052E3 		cmp	r2, #7
 303 03a4 8331A0E1 		lsl	r3, r3, #3
 304 03a8 011081E2 		add	r1, r1, #1
 305 03ac 05C080E0 		add	ip, r0, r5
 306 03b0 A43183E1 		orr	r3, r3, r4, lsr #3
 307 03b4 824080E0 		add	r4, r0, r2, lsl #1
 308 03b8 0C00A001 		moveq	r0, ip
 309 03bc 200051E3 		cmp	r1, #32
 310 03c0 8EE0A0E1 		lsl	lr, lr, #1
 311 03c4 0130C4E5 		strb	r3, [r4, #1]
 312 03c8 E9FFFF1A 		bne	.L38
 313 03cc 00309DE5 		ldr	r3, [sp]
 314 03d0 04209DE5 		ldr	r2, [sp, #4]
 315 03d4 020053E1 		cmp	r3, r2
 316 03d8 E2FFFF1A 		bne	.L39
 317 03dc 08309DE5 		ldr	r3, [sp, #8]
 318 03e0 0C209DE5 		ldr	r2, [sp, #12]
 319 03e4 083083E2 		add	r3, r3, #8
 320 03e8 103082E5 		str	r3, [r2, #16]
 321 03ec 14D08DE2 		add	sp, sp, #20
 322              		@ sp needed
 323 03f0 F08FBDE8 		pop	{r4, r5, r6, r7, r8, r9, r10, fp, pc}
 324              	.L44:
 325              		.align	2
 326              	.L43:
 327 03f4 00000000 		.word	.LANCHOR0
 328              		.size	_ZL11WriteChar16P8tagINTDCh, .-_ZL11WriteChar16P8tagINTDCh
 329              		.align	2
 330              		.syntax unified
 331              		.arm
 332              		.fpu vfp
 333              		.type	_ZL22TransparentWriteChar16P8tagINTDCh, %function
 334              	_ZL22TransparentWriteChar16P8tagINTDCh:
 335              		@ args = 0, pretend = 0, frame = 8
 336              		@ frame_needed = 0, uses_anonymous_args = 0
 337 03f8 F04F2DE9 		push	{r4, r5, r6, r7, r8, r9, r10, fp, lr}
 338 03fc 103090E5 		ldr	r3, [r0, #16]
 339 0400 047090E5 		ldr	r7, [r0, #4]
 340 0404 0CD04DE2 		sub	sp, sp, #12
 341 0408 14C090E5 		ldr	ip, [r0, #20]
 342 040c 0112A0E1 		lsl	r1, r1, #4
ARM GAS  C:\Users\ldebo\AppData\Local\Temp\ccISOhOE.s 			page 7


 343 0410 A8B09FE5 		ldr	fp, .L53
 344 0414 00308DE5 		str	r3, [sp]
 345 0418 8770A0E1 		lsl	r7, r7, #1
 346 041c 8330A0E1 		lsl	r3, r3, #1
 347 0420 9C372CE0 		mla	ip, ip, r7, r3
 348 0424 103081E2 		add	r3, r1, #16
 349 0428 03308BE0 		add	r3, fp, r3
 350 042c 2160D0E5 		ldrb	r6, [r0, #33]	@ zero_extendqisi2
 351 0430 002090E5 		ldr	r2, [r0]
 352 0434 2290D0E5 		ldrb	r9, [r0, #34]	@ zero_extendqisi2
 353 0438 2080D0E5 		ldrb	r8, [r0, #32]	@ zero_extendqisi2
 354 043c 04008DE5 		str	r0, [sp, #4]
 355 0440 0300A0E1 		mov	r0, r3
 356 0444 2661A0E1 		lsr	r6, r6, #2
 357 0448 07A006E2 		and	r10, r6, #7
 358 044c 02C08CE0 		add	ip, ip, r2
 359 0450 8AA2A0E1 		lsl	r10, r10, #5
 360 0454 A661A0E1 		lsr	r6, r6, #3
 361 0458 A991A0E1 		lsr	r9, r9, #3
 362 045c A881A0E1 		lsr	r8, r8, #3
 363 0460 01B08BE0 		add	fp, fp, r1
 364              	.L49:
 365 0464 0030A0E3 		mov	r3, #0
 366 0468 04209BE4 		ldr	r2, [fp], #4
 367              	.L48:
 368 046c 000052E3 		cmp	r2, #0
 369 0470 071003E2 		and	r1, r3, #7
 370 0474 81E08CB0 		addlt	lr, ip, r1, lsl #1
 371 0478 0A5088B1 		orrlt	r5, r8, r10
 372 047c 894186B1 		orrlt	r4, r6, r9, lsl #3
 373 0480 8150CCB7 		strblt	r5, [ip, r1, lsl #1]
 374 0484 013083E2 		add	r3, r3, #1
 375 0488 0140CEB5 		strblt	r4, [lr, #1]
 376 048c 070051E3 		cmp	r1, #7
 377 0490 07C08C00 		addeq	ip, ip, r7
 378 0494 200053E3 		cmp	r3, #32
 379 0498 8220A0E1 		lsl	r2, r2, #1
 380 049c F2FFFF1A 		bne	.L48
 381 04a0 00005BE1 		cmp	fp, r0
 382 04a4 EEFFFF1A 		bne	.L49
 383 04a8 00309DE5 		ldr	r3, [sp]
 384 04ac 04009DE5 		ldr	r0, [sp, #4]
 385 04b0 083083E2 		add	r3, r3, #8
 386 04b4 103080E5 		str	r3, [r0, #16]
 387 04b8 0CD08DE2 		add	sp, sp, #12
 388              		@ sp needed
 389 04bc F08FBDE8 		pop	{r4, r5, r6, r7, r8, r9, r10, fp, pc}
 390              	.L54:
 391              		.align	2
 392              	.L53:
 393 04c0 00000000 		.word	.LANCHOR0
 394              		.size	_ZL22TransparentWriteChar16P8tagINTDCh, .-_ZL22TransparentWriteChar16P8tagINTDCh
 395              		.align	2
 396              		.syntax unified
 397              		.arm
 398              		.fpu vfp
 399              		.type	_ZL10PutImage16P8tagINTDCjj7HBITMAPb, %function
ARM GAS  C:\Users\ldebo\AppData\Local\Temp\ccISOhOE.s 			page 8


 400              	_ZL10PutImage16P8tagINTDCjj7HBITMAPb:
 401              		@ args = 4, pretend = 0, frame = 8
 402              		@ frame_needed = 0, uses_anonymous_args = 0
 403 04c4 F04F2DE9 		push	{r4, r5, r6, r7, r8, r9, r10, fp, lr}
 404 04c8 049090E5 		ldr	r9, [r0, #4]
 405 04cc 14C090E5 		ldr	ip, [r0, #20]
 406 04d0 8990A0E1 		lsl	r9, r9, #1
 407 04d4 9C090CE0 		mul	ip, ip, r9
 408 04d8 0CD04DE2 		sub	sp, sp, #12
 409 04dc 10E090E5 		ldr	lr, [r0, #16]
 410 04e0 004090E5 		ldr	r4, [r0]
 411 04e4 00A052E2 		subs	r10, r2, #0
 412 04e8 3020DDE5 		ldrb	r2, [sp, #48]	@ zero_extendqisi2
 413 04ec 8EC08CE0 		add	ip, ip, lr, lsl #1
 414 04f0 04408CE0 		add	r4, ip, r4
 415 04f4 04208DE5 		str	r2, [sp, #4]
 416 04f8 1900000A 		beq	.L55
 417 04fc 000051E3 		cmp	r1, #0
 418 0500 1700000A 		beq	.L55
 419 0504 0160A0E1 		mov	r6, r1
 420 0508 0080A0E3 		mov	r8, #0
 421 050c 0270A0E3 		mov	r7, #2
 422 0510 0350A0E1 		mov	r5, r3
 423 0514 8130A0E1 		lsl	r3, r1, #1
 424 0518 00308DE5 		str	r3, [sp]
 425              	.L58:
 426 051c 00B0A0E3 		mov	fp, #0
 427              	.L59:
 428 0520 8B00A0E1 		lsl	r0, fp, #1
 429 0524 001085E0 		add	r1, r5, r0
 430 0528 01B08BE2 		add	fp, fp, #1
 431 052c 000084E0 		add	r0, r4, r0
 432 0530 0720A0E1 		mov	r2, r7
 433 0534 FEFFFFEB 		bl	memcpy
 434 0538 0B0056E1 		cmp	r6, fp
 435 053c F7FFFF1A 		bne	.L59
 436 0540 04309DE5 		ldr	r3, [sp, #4]
 437 0544 018088E2 		add	r8, r8, #1
 438 0548 000053E3 		cmp	r3, #0
 439 054c 0600000A 		beq	.L60
 440 0550 00309DE5 		ldr	r3, [sp]
 441 0554 08005AE1 		cmp	r10, r8
 442 0558 094044E0 		sub	r4, r4, r9
 443 055c 035085E0 		add	r5, r5, r3
 444 0560 EDFFFF1A 		bne	.L58
 445              	.L55:
 446 0564 0CD08DE2 		add	sp, sp, #12
 447              		@ sp needed
 448 0568 F08FBDE8 		pop	{r4, r5, r6, r7, r8, r9, r10, fp, pc}
 449              	.L60:
 450 056c 00309DE5 		ldr	r3, [sp]
 451 0570 08005AE1 		cmp	r10, r8
 452 0574 094084E0 		add	r4, r4, r9
 453 0578 035085E0 		add	r5, r5, r3
 454 057c E6FFFF1A 		bne	.L58
 455 0580 0CD08DE2 		add	sp, sp, #12
 456              		@ sp needed
ARM GAS  C:\Users\ldebo\AppData\Local\Temp\ccISOhOE.s 			page 9


 457 0584 F08FBDE8 		pop	{r4, r5, r6, r7, r8, r9, r10, fp, pc}
 458              		.size	_ZL10PutImage16P8tagINTDCjj7HBITMAPb, .-_ZL10PutImage16P8tagINTDCjj7HBITMAPb
 459              		.align	2
 460              		.syntax unified
 461              		.arm
 462              		.fpu vfp
 463              		.type	_ZL11ClearArea24P8tagINTDCjjjj, %function
 464              	_ZL11ClearArea24P8tagINTDCjjjj:
 465              		@ args = 4, pretend = 0, frame = 0
 466              		@ frame_needed = 0, uses_anonymous_args = 0
 467 0588 F84F2DE9 		push	{r3, r4, r5, r6, r7, r8, r9, r10, fp, lr}
 468 058c 049090E5 		ldr	r9, [r0, #4]
 469 0590 28A09DE5 		ldr	r10, [sp, #40]
 470 0594 921925E0 		mla	r5, r2, r9, r1
 471 0598 00C090E5 		ldr	ip, [r0]
 472 059c 855085E0 		add	r5, r5, r5, lsl #1
 473 05a0 02A05AE0 		subs	r10, r10, r2
 474 05a4 0C5085E0 		add	r5, r5, ip
 475 05a8 F88FBD08 		popeq	{r3, r4, r5, r6, r7, r8, r9, r10, fp, pc}
 476 05ac 017053E0 		subs	r7, r3, r1
 477 05b0 899089E0 		add	r9, r9, r9, lsl #1
 478 05b4 F88FBD08 		popeq	{r3, r4, r5, r6, r7, r8, r9, r10, fp, pc}
 479 05b8 00B0A0E3 		mov	fp, #0
 480 05bc 0380A0E3 		mov	r8, #3
 481 05c0 877087E0 		add	r7, r7, r7, lsl #1
 482 05c4 286080E2 		add	r6, r0, #40
 483              	.L71:
 484 05c8 0040A0E3 		mov	r4, #0
 485              	.L70:
 486 05cc 040085E0 		add	r0, r5, r4
 487 05d0 0820A0E1 		mov	r2, r8
 488 05d4 0610A0E1 		mov	r1, r6
 489 05d8 034084E2 		add	r4, r4, #3
 490 05dc FEFFFFEB 		bl	memcpy
 491 05e0 070054E1 		cmp	r4, r7
 492 05e4 F8FFFF1A 		bne	.L70
 493 05e8 01B08BE2 		add	fp, fp, #1
 494 05ec 0A005BE1 		cmp	fp, r10
 495 05f0 095085E0 		add	r5, r5, r9
 496 05f4 F3FFFF1A 		bne	.L71
 497 05f8 F88FBDE8 		pop	{r3, r4, r5, r6, r7, r8, r9, r10, fp, pc}
 498              		.size	_ZL11ClearArea24P8tagINTDCjjjj, .-_ZL11ClearArea24P8tagINTDCjjjj
 499              		.align	2
 500              		.syntax unified
 501              		.arm
 502              		.fpu vfp
 503              		.type	_ZL10VertLine24P8tagINTDCji, %function
 504              	_ZL10VertLine24P8tagINTDCji:
 505              		@ args = 0, pretend = 0, frame = 0
 506              		@ frame_needed = 0, uses_anonymous_args = 0
 507 05fc F84F2DE9 		push	{r3, r4, r5, r6, r7, r8, r9, r10, fp, lr}
 508 0600 044090E5 		ldr	r4, [r0, #4]
 509 0604 103090E5 		ldr	r3, [r0, #16]
 510 0608 149090E5 		ldr	r9, [r0, #20]
 511 060c 844084E0 		add	r4, r4, r4, lsl #1
 512 0610 833083E0 		add	r3, r3, r3, lsl #1
 513 0614 993423E0 		mla	r3, r9, r4, r3
ARM GAS  C:\Users\ldebo\AppData\Local\Temp\ccISOhOE.s 			page 10


 514 0618 0080A0E1 		mov	r8, r0
 515 061c 000090E5 		ldr	r0, [r0]
 516 0620 005051E2 		subs	r5, r1, #0
 517 0624 02A0A0E1 		mov	r10, r2
 518 0628 003083E0 		add	r3, r3, r0
 519 062c 0C00000A 		beq	.L81
 520 0630 010052E3 		cmp	r2, #1
 521 0634 00B0A0E3 		mov	fp, #0
 522 0638 0370A0E3 		mov	r7, #3
 523 063c 206088E2 		add	r6, r8, #32
 524 0640 0A00000A 		beq	.L83
 525              	.L82:
 526 0644 0300A0E1 		mov	r0, r3
 527 0648 0720A0E1 		mov	r2, r7
 528 064c 0610A0E1 		mov	r1, r6
 529 0650 FEFFFFEB 		bl	memcpy
 530 0654 01B08BE2 		add	fp, fp, #1
 531 0658 0B0055E1 		cmp	r5, fp
 532 065c 043040E0 		sub	r3, r0, r4
 533 0660 F7FFFF1A 		bne	.L82
 534              	.L81:
 535 0664 959A25E0 		mla	r5, r5, r10, r9
 536 0668 145088E5 		str	r5, [r8, #20]
 537 066c F88FBDE8 		pop	{r3, r4, r5, r6, r7, r8, r9, r10, fp, pc}
 538              	.L83:
 539 0670 0300A0E1 		mov	r0, r3
 540 0674 0720A0E1 		mov	r2, r7
 541 0678 0610A0E1 		mov	r1, r6
 542 067c FEFFFFEB 		bl	memcpy
 543 0680 01B08BE2 		add	fp, fp, #1
 544 0684 0B0055E1 		cmp	r5, fp
 545 0688 043080E0 		add	r3, r0, r4
 546 068c F7FFFF1A 		bne	.L83
 547 0690 F3FFFFEA 		b	.L81
 548              		.size	_ZL10VertLine24P8tagINTDCji, .-_ZL10VertLine24P8tagINTDCji
 549              		.align	2
 550              		.syntax unified
 551              		.arm
 552              		.fpu vfp
 553              		.type	_ZL10HorzLine24P8tagINTDCji, %function
 554              	_ZL10HorzLine24P8tagINTDCji:
 555              		@ args = 0, pretend = 0, frame = 0
 556              		@ frame_needed = 0, uses_anonymous_args = 0
 557 0694 F84F2DE9 		push	{r3, r4, r5, r6, r7, r8, r9, r10, fp, lr}
 558 0698 0060A0E1 		mov	r6, r0
 559 069c 043090E5 		ldr	r3, [r0, #4]
 560 06a0 107090E5 		ldr	r7, [r0, #16]
 561 06a4 14C090E5 		ldr	ip, [r0, #20]
 562 06a8 833083E0 		add	r3, r3, r3, lsl #1
 563 06ac 870087E0 		add	r0, r7, r7, lsl #1
 564 06b0 9C0323E0 		mla	r3, ip, r3, r0
 565 06b4 000096E5 		ldr	r0, [r6]
 566 06b8 004051E2 		subs	r4, r1, #0
 567 06bc 0290A0E1 		mov	r9, r2
 568 06c0 003083E0 		add	r3, r3, r0
 569 06c4 00B0A013 		movne	fp, #0
 570 06c8 03A0A013 		movne	r10, #3
ARM GAS  C:\Users\ldebo\AppData\Local\Temp\ccISOhOE.s 			page 11


 571 06cc 82808210 		addne	r8, r2, r2, lsl #1
 572 06d0 20508612 		addne	r5, r6, #32
 573 06d4 0700000A 		beq	.L88
 574              	.L89:
 575 06d8 0300A0E1 		mov	r0, r3
 576 06dc 0A20A0E1 		mov	r2, r10
 577 06e0 0510A0E1 		mov	r1, r5
 578 06e4 FEFFFFEB 		bl	memcpy
 579 06e8 01B08BE2 		add	fp, fp, #1
 580 06ec 0B0054E1 		cmp	r4, fp
 581 06f0 083080E0 		add	r3, r0, r8
 582 06f4 F7FFFF1A 		bne	.L89
 583              	.L88:
 584 06f8 947924E0 		mla	r4, r4, r9, r7
 585 06fc 104086E5 		str	r4, [r6, #16]
 586 0700 F88FBDE8 		pop	{r3, r4, r5, r6, r7, r8, r9, r10, fp, pc}
 587              		.size	_ZL10HorzLine24P8tagINTDCji, .-_ZL10HorzLine24P8tagINTDCji
 588              		.align	2
 589              		.syntax unified
 590              		.arm
 591              		.fpu vfp
 592              		.type	_ZL10DiagLine24P8tagINTDCjjii, %function
 593              	_ZL10DiagLine24P8tagINTDCjjii:
 594              		@ args = 4, pretend = 0, frame = 16
 595              		@ frame_needed = 0, uses_anonymous_args = 0
 596 0704 00C0A0E1 		mov	ip, r0
 597 0708 F04F2DE9 		push	{r4, r5, r6, r7, r8, r9, r10, fp, lr}
 598 070c 0150A0E1 		mov	r5, r1
 599 0710 14109CE5 		ldr	r1, [ip, #20]
 600 0714 14D04DE2 		sub	sp, sp, #20
 601 0718 01E0A0E1 		mov	lr, r1
 602 071c 00008DE5 		str	r0, [sp]
 603 0720 04609CE5 		ldr	r6, [ip, #4]
 604 0724 100090E5 		ldr	r0, [r0, #16]
 605 0728 0C108DE5 		str	r1, [sp, #12]
 606 072c 08008DE5 		str	r0, [sp, #8]
 607 0730 861086E0 		add	r1, r6, r6, lsl #1
 608 0734 800080E0 		add	r0, r0, r0, lsl #1
 609 0738 9E0121E0 		mla	r1, lr, r1, r0
 610 073c 020055E1 		cmp	r5, r2
 611 0740 00009CE5 		ldr	r0, [ip]
 612 0744 0570A031 		movcc	r7, r5
 613 0748 0270A021 		movcs	r7, r2
 614 074c 000055E3 		cmp	r5, #0
 615 0750 04308DE5 		str	r3, [sp, #4]
 616 0754 003081E0 		add	r3, r1, r0
 617 0758 1700000A 		beq	.L94
 618 075c 00B0A0E3 		mov	fp, #0
 619 0760 03A0A0E3 		mov	r10, #3
 620 0764 0B40A0E1 		mov	r4, fp
 621 0768 38209DE5 		ldr	r2, [sp, #56]
 622 076c 822082E0 		add	r2, r2, r2, lsl #1
 623 0770 960206E0 		mul	r6, r6, r2
 624 0774 04209DE5 		ldr	r2, [sp, #4]
 625 0778 829082E0 		add	r9, r2, r2, lsl #1
 626 077c 00209DE5 		ldr	r2, [sp]
 627 0780 208082E2 		add	r8, r2, #32
ARM GAS  C:\Users\ldebo\AppData\Local\Temp\ccISOhOE.s 			page 12


 628              	.L95:
 629 0784 0A20A0E1 		mov	r2, r10
 630 0788 0810A0E1 		mov	r1, r8
 631 078c 0300A0E1 		mov	r0, r3
 632 0790 FEFFFFEB 		bl	memcpy
 633 0794 044087E0 		add	r4, r7, r4
 634 0798 093080E0 		add	r3, r0, r9
 635 079c 040055E1 		cmp	r5, r4
 636 07a0 01B08BE2 		add	fp, fp, #1
 637 07a4 061083E0 		add	r1, r3, r6
 638 07a8 052044E0 		sub	r2, r4, r5
 639 07ac 0130A091 		movls	r3, r1
 640 07b0 0240A091 		movls	r4, r2
 641 07b4 0B0055E1 		cmp	r5, fp
 642 07b8 F1FFFF1A 		bne	.L95
 643              	.L94:
 644 07bc 04309DE5 		ldr	r3, [sp, #4]
 645 07c0 08209DE5 		ldr	r2, [sp, #8]
 646 07c4 952325E0 		mla	r5, r5, r3, r2
 647 07c8 38309DE5 		ldr	r3, [sp, #56]
 648 07cc 0C209DE5 		ldr	r2, [sp, #12]
 649 07d0 972327E0 		mla	r7, r7, r3, r2
 650 07d4 00309DE5 		ldr	r3, [sp]
 651 07d8 105083E5 		str	r5, [r3, #16]
 652 07dc 147083E5 		str	r7, [r3, #20]
 653 07e0 14D08DE2 		add	sp, sp, #20
 654              		@ sp needed
 655 07e4 F08FBDE8 		pop	{r4, r5, r6, r7, r8, r9, r10, fp, pc}
 656              		.size	_ZL10DiagLine24P8tagINTDCjjii, .-_ZL10DiagLine24P8tagINTDCjjii
 657              		.align	2
 658              		.syntax unified
 659              		.arm
 660              		.fpu vfp
 661              		.type	_ZL11WriteChar24P8tagINTDCh, %function
 662              	_ZL11WriteChar24P8tagINTDCh:
 663              		@ args = 0, pretend = 0, frame = 0
 664              		@ frame_needed = 0, uses_anonymous_args = 0
 665 07e8 F04F2DE9 		push	{r4, r5, r6, r7, r8, r9, r10, fp, lr}
 666 07ec 10A090E5 		ldr	r10, [r0, #16]
 667 07f0 048090E5 		ldr	r8, [r0, #4]
 668 07f4 144090E5 		ldr	r4, [r0, #20]
 669 07f8 8A308AE0 		add	r3, r10, r10, lsl #1
 670 07fc 888088E0 		add	r8, r8, r8, lsl #1
 671 0800 943824E0 		mla	r4, r4, r8, r3
 672 0804 0112A0E1 		lsl	r1, r1, #4
 673 0808 78909FE5 		ldr	r9, .L106
 674 080c 003090E5 		ldr	r3, [r0]
 675 0810 10B081E2 		add	fp, r1, #16
 676 0814 0BB089E0 		add	fp, r9, fp
 677 0818 034084E0 		add	r4, r4, r3
 678 081c 019089E0 		add	r9, r9, r1
 679              	.L102:
 680 0820 0030A0E3 		mov	r3, #0
 681 0824 041099E4 		ldr	r1, [r9], #4
 682              	.L101:
 683 0828 000051E3 		cmp	r1, #0
 684 082c 2470D0E5 		ldrb	r7, [r0, #36]	@ zero_extendqisi2
ARM GAS  C:\Users\ldebo\AppData\Local\Temp\ccISOhOE.s 			page 13


 685 0830 072003E2 		and	r2, r3, #7
 686 0834 2070D0B5 		ldrblt	r7, [r0, #32]	@ zero_extendqisi2
 687 0838 2560D0E5 		ldrb	r6, [r0, #37]	@ zero_extendqisi2
 688 083c 2650D0E5 		ldrb	r5, [r0, #38]	@ zero_extendqisi2
 689 0840 2160D0B5 		ldrblt	r6, [r0, #33]	@ zero_extendqisi2
 690 0844 2250D0B5 		ldrblt	r5, [r0, #34]	@ zero_extendqisi2
 691 0848 82E082E0 		add	lr, r2, r2, lsl #1
 692 084c 070052E3 		cmp	r2, #7
 693 0850 013083E2 		add	r3, r3, #1
 694 0854 0EC084E0 		add	ip, r4, lr
 695 0858 0E70C4E7 		strb	r7, [r4, lr]
 696 085c 08408400 		addeq	r4, r4, r8
 697 0860 200053E3 		cmp	r3, #32
 698 0864 8110A0E1 		lsl	r1, r1, #1
 699 0868 0160CCE5 		strb	r6, [ip, #1]
 700 086c 0250CCE5 		strb	r5, [ip, #2]
 701 0870 ECFFFF1A 		bne	.L101
 702 0874 0B0059E1 		cmp	r9, fp
 703 0878 E8FFFF1A 		bne	.L102
 704 087c 08A08AE2 		add	r10, r10, #8
 705 0880 10A080E5 		str	r10, [r0, #16]
 706 0884 F08FBDE8 		pop	{r4, r5, r6, r7, r8, r9, r10, fp, pc}
 707              	.L107:
 708              		.align	2
 709              	.L106:
 710 0888 00000000 		.word	.LANCHOR0
 711              		.size	_ZL11WriteChar24P8tagINTDCh, .-_ZL11WriteChar24P8tagINTDCh
 712              		.align	2
 713              		.syntax unified
 714              		.arm
 715              		.fpu vfp
 716              		.type	_ZL22TransparentWriteChar24P8tagINTDCh, %function
 717              	_ZL22TransparentWriteChar24P8tagINTDCh:
 718              		@ args = 0, pretend = 0, frame = 16
 719              		@ frame_needed = 0, uses_anonymous_args = 0
 720 088c F04F2DE9 		push	{r4, r5, r6, r7, r8, r9, r10, fp, lr}
 721 0890 0080A0E1 		mov	r8, r0
 722 0894 0390A0E3 		mov	r9, #3
 723 0898 102090E5 		ldr	r2, [r0, #16]
 724 089c 047090E5 		ldr	r7, [r0, #4]
 725 08a0 14D04DE2 		sub	sp, sp, #20
 726 08a4 143090E5 		ldr	r3, [r0, #20]
 727 08a8 08208DE5 		str	r2, [sp, #8]
 728 08ac 877087E0 		add	r7, r7, r7, lsl #1
 729 08b0 822082E0 		add	r2, r2, r2, lsl #1
 730 08b4 932723E0 		mla	r3, r3, r7, r2
 731 08b8 202098E4 		ldr	r2, [r8], #32
 732 08bc 0112A0E1 		lsl	r1, r1, #4
 733 08c0 80A09FE5 		ldr	r10, .L117
 734 08c4 02B083E0 		add	fp, r3, r2
 735 08c8 102081E2 		add	r2, r1, #16
 736 08cc 02308AE0 		add	r3, r10, r2
 737 08d0 0C008DE5 		str	r0, [sp, #12]
 738 08d4 04308DE5 		str	r3, [sp, #4]
 739 08d8 01A08AE0 		add	r10, r10, r1
 740              	.L112:
 741 08dc 0040A0E3 		mov	r4, #0
ARM GAS  C:\Users\ldebo\AppData\Local\Temp\ccISOhOE.s 			page 14


 742 08e0 04509AE4 		ldr	r5, [r10], #4
 743 08e4 040000EA 		b	.L111
 744              	.L109:
 745 08e8 070056E3 		cmp	r6, #7
 746 08ec 07B08B00 		addeq	fp, fp, r7
 747 08f0 200054E3 		cmp	r4, #32
 748 08f4 8550A0E1 		lsl	r5, r5, #1
 749 08f8 0900000A 		beq	.L116
 750              	.L111:
 751 08fc 000055E3 		cmp	r5, #0
 752 0900 076004E2 		and	r6, r4, #7
 753 0904 014084E2 		add	r4, r4, #1
 754 0908 F6FFFFAA 		bge	.L109
 755 090c 860086E0 		add	r0, r6, r6, lsl #1
 756 0910 00008BE0 		add	r0, fp, r0
 757 0914 0920A0E1 		mov	r2, r9
 758 0918 0810A0E1 		mov	r1, r8
 759 091c FEFFFFEB 		bl	memcpy
 760 0920 F0FFFFEA 		b	.L109
 761              	.L116:
 762 0924 04309DE5 		ldr	r3, [sp, #4]
 763 0928 03005AE1 		cmp	r10, r3
 764 092c EAFFFF1A 		bne	.L112
 765 0930 08309DE5 		ldr	r3, [sp, #8]
 766 0934 0C209DE5 		ldr	r2, [sp, #12]
 767 0938 083083E2 		add	r3, r3, #8
 768 093c 103082E5 		str	r3, [r2, #16]
 769 0940 14D08DE2 		add	sp, sp, #20
 770              		@ sp needed
 771 0944 F08FBDE8 		pop	{r4, r5, r6, r7, r8, r9, r10, fp, pc}
 772              	.L118:
 773              		.align	2
 774              	.L117:
 775 0948 00000000 		.word	.LANCHOR0
 776              		.size	_ZL22TransparentWriteChar24P8tagINTDCh, .-_ZL22TransparentWriteChar24P8tagINTDCh
 777              		.align	2
 778              		.syntax unified
 779              		.arm
 780              		.fpu vfp
 781              		.type	_ZL10PutImage24P8tagINTDCjj7HBITMAPb, %function
 782              	_ZL10PutImage24P8tagINTDCjj7HBITMAPb:
 783              		@ args = 4, pretend = 0, frame = 8
 784              		@ frame_needed = 0, uses_anonymous_args = 0
 785 094c F04F2DE9 		push	{r4, r5, r6, r7, r8, r9, r10, fp, lr}
 786 0950 049090E5 		ldr	r9, [r0, #4]
 787 0954 10E090E5 		ldr	lr, [r0, #16]
 788 0958 14C090E5 		ldr	ip, [r0, #20]
 789 095c 899089E0 		add	r9, r9, r9, lsl #1
 790 0960 8EE08EE0 		add	lr, lr, lr, lsl #1
 791 0964 9CE92CE0 		mla	ip, ip, r9, lr
 792 0968 0CD04DE2 		sub	sp, sp, #12
 793 096c 004090E5 		ldr	r4, [r0]
 794 0970 00A052E2 		subs	r10, r2, #0
 795 0974 3020DDE5 		ldrb	r2, [sp, #48]	@ zero_extendqisi2
 796 0978 04408CE0 		add	r4, ip, r4
 797 097c 04208DE5 		str	r2, [sp, #4]
 798 0980 1500000A 		beq	.L119
ARM GAS  C:\Users\ldebo\AppData\Local\Temp\ccISOhOE.s 			page 15


 799 0984 000051E3 		cmp	r1, #0
 800 0988 1300000A 		beq	.L119
 801 098c 0350A0E1 		mov	r5, r3
 802 0990 0080A0E3 		mov	r8, #0
 803 0994 0370A0E3 		mov	r7, #3
 804 0998 816081E0 		add	r6, r1, r1, lsl #1
 805              	.L122:
 806 099c 00B0A0E3 		mov	fp, #0
 807              	.L123:
 808 09a0 0B1085E0 		add	r1, r5, fp
 809 09a4 0B0084E0 		add	r0, r4, fp
 810 09a8 0720A0E1 		mov	r2, r7
 811 09ac 03B08BE2 		add	fp, fp, #3
 812 09b0 FEFFFFEB 		bl	memcpy
 813 09b4 06005BE1 		cmp	fp, r6
 814 09b8 F8FFFF1A 		bne	.L123
 815 09bc 04309DE5 		ldr	r3, [sp, #4]
 816 09c0 018088E2 		add	r8, r8, #1
 817 09c4 000053E3 		cmp	r3, #0
 818 09c8 0500000A 		beq	.L124
 819 09cc 08005AE1 		cmp	r10, r8
 820 09d0 094044E0 		sub	r4, r4, r9
 821 09d4 065085E0 		add	r5, r5, r6
 822 09d8 EFFFFF1A 		bne	.L122
 823              	.L119:
 824 09dc 0CD08DE2 		add	sp, sp, #12
 825              		@ sp needed
 826 09e0 F08FBDE8 		pop	{r4, r5, r6, r7, r8, r9, r10, fp, pc}
 827              	.L124:
 828 09e4 08005AE1 		cmp	r10, r8
 829 09e8 094084E0 		add	r4, r4, r9
 830 09ec 065085E0 		add	r5, r5, r6
 831 09f0 E9FFFF1A 		bne	.L122
 832 09f4 0CD08DE2 		add	sp, sp, #12
 833              		@ sp needed
 834 09f8 F08FBDE8 		pop	{r4, r5, r6, r7, r8, r9, r10, fp, pc}
 835              		.size	_ZL10PutImage24P8tagINTDCjj7HBITMAPb, .-_ZL10PutImage24P8tagINTDCjj7HBITMAPb
 836              		.align	2
 837              		.syntax unified
 838              		.arm
 839              		.fpu vfp
 840              		.type	_ZL11ClearArea32P8tagINTDCjjjj, %function
 841              	_ZL11ClearArea32P8tagINTDCjjjj:
 842              		@ args = 4, pretend = 0, frame = 0
 843              		@ frame_needed = 0, uses_anonymous_args = 0
 844 09fc 30402DE9 		push	{r4, r5, lr}
 845 0a00 044090E5 		ldr	r4, [r0, #4]
 846 0a04 02C1A0E1 		lsl	ip, r2, #2
 847 0a08 94CC2CE0 		mla	ip, r4, ip, ip
 848 0a0c 0C509DE5 		ldr	r5, [sp, #12]
 849 0a10 00E090E5 		ldr	lr, [r0]
 850 0a14 025055E0 		subs	r5, r5, r2
 851 0a18 0EC08CE0 		add	ip, ip, lr
 852 0a1c 3080BD08 		popeq	{r4, r5, pc}
 853 0a20 011053E0 		subs	r1, r3, r1
 854 0a24 0441A0E1 		lsl	r4, r4, #2
 855 0a28 3080BD08 		popeq	{r4, r5, pc}
ARM GAS  C:\Users\ldebo\AppData\Local\Temp\ccISOhOE.s 			page 16


 856 0a2c 00E0A0E3 		mov	lr, #0
 857              	.L135:
 858 0a30 0030A0E3 		mov	r3, #0
 859              	.L134:
 860 0a34 282090E5 		ldr	r2, [r0, #40]
 861 0a38 03218CE7 		str	r2, [ip, r3, lsl #2]
 862 0a3c 013083E2 		add	r3, r3, #1
 863 0a40 030051E1 		cmp	r1, r3
 864 0a44 FAFFFF1A 		bne	.L134
 865 0a48 01E08EE2 		add	lr, lr, #1
 866 0a4c 05005EE1 		cmp	lr, r5
 867 0a50 04C08CE0 		add	ip, ip, r4
 868 0a54 F5FFFF1A 		bne	.L135
 869 0a58 3080BDE8 		pop	{r4, r5, pc}
 870              		.size	_ZL11ClearArea32P8tagINTDCjjjj, .-_ZL11ClearArea32P8tagINTDCjjjj
 871              		.align	2
 872              		.syntax unified
 873              		.arm
 874              		.fpu vfp
 875              		.type	_ZL10VertLine32P8tagINTDCji, %function
 876              	_ZL10VertLine32P8tagINTDCji:
 877              		@ args = 0, pretend = 0, frame = 0
 878              		@ frame_needed = 0, uses_anonymous_args = 0
 879 0a5c 30402DE9 		push	{r4, r5, lr}
 880 0a60 044090E5 		ldr	r4, [r0, #4]
 881 0a64 145090E5 		ldr	r5, [r0, #20]
 882 0a68 0441A0E1 		lsl	r4, r4, #2
 883 0a6c 95040CE0 		mul	ip, r5, r4
 884 0a70 103090E5 		ldr	r3, [r0, #16]
 885 0a74 00E090E5 		ldr	lr, [r0]
 886 0a78 03318CE0 		add	r3, ip, r3, lsl #2
 887 0a7c 000051E3 		cmp	r1, #0
 888 0a80 0E3083E0 		add	r3, r3, lr
 889 0a84 0800000A 		beq	.L146
 890 0a88 010052E3 		cmp	r2, #1
 891 0a8c 00C0A0E3 		mov	ip, #0
 892 0a90 0800000A 		beq	.L148
 893              	.L147:
 894 0a94 01C08CE2 		add	ip, ip, #1
 895 0a98 20E090E5 		ldr	lr, [r0, #32]
 896 0a9c 0C0051E1 		cmp	r1, ip
 897 0aa0 00E083E5 		str	lr, [r3]
 898 0aa4 043043E0 		sub	r3, r3, r4
 899 0aa8 F9FFFF1A 		bne	.L147
 900              	.L146:
 901 0aac 915221E0 		mla	r1, r1, r2, r5
 902 0ab0 141080E5 		str	r1, [r0, #20]
 903 0ab4 3080BDE8 		pop	{r4, r5, pc}
 904              	.L148:
 905 0ab8 01C08CE2 		add	ip, ip, #1
 906 0abc 20E090E5 		ldr	lr, [r0, #32]
 907 0ac0 0C0051E1 		cmp	r1, ip
 908 0ac4 04E083E6 		str	lr, [r3], r4
 909 0ac8 FAFFFF1A 		bne	.L148
 910 0acc F6FFFFEA 		b	.L146
 911              		.size	_ZL10VertLine32P8tagINTDCji, .-_ZL10VertLine32P8tagINTDCji
 912              		.align	2
ARM GAS  C:\Users\ldebo\AppData\Local\Temp\ccISOhOE.s 			page 17


 913              		.syntax unified
 914              		.arm
 915              		.fpu vfp
 916              		.type	_ZL10HorzLine32P8tagINTDCji, %function
 917              	_ZL10HorzLine32P8tagINTDCji:
 918              		@ args = 0, pretend = 0, frame = 0
 919              		@ frame_needed = 0, uses_anonymous_args = 0
 920 0ad0 30402DE9 		push	{r4, r5, lr}
 921 0ad4 04C090E5 		ldr	ip, [r0, #4]
 922 0ad8 104090E5 		ldr	r4, [r0, #16]
 923 0adc 14E090E5 		ldr	lr, [r0, #20]
 924 0ae0 0431A0E1 		lsl	r3, r4, #2
 925 0ae4 0CC1A0E1 		lsl	ip, ip, #2
 926 0ae8 9E3C2CE0 		mla	ip, lr, ip, r3
 927 0aec 003090E5 		ldr	r3, [r0]
 928 0af0 000051E3 		cmp	r1, #0
 929 0af4 03C08CE0 		add	ip, ip, r3
 930 0af8 0251A011 		lslne	r5, r2, #2
 931 0afc 0030A013 		movne	r3, #0
 932 0b00 0400000A 		beq	.L155
 933              	.L156:
 934 0b04 013083E2 		add	r3, r3, #1
 935 0b08 20E090E5 		ldr	lr, [r0, #32]
 936 0b0c 030051E1 		cmp	r1, r3
 937 0b10 05E08CE6 		str	lr, [ip], r5
 938 0b14 FAFFFF1A 		bne	.L156
 939              	.L155:
 940 0b18 914221E0 		mla	r1, r1, r2, r4
 941 0b1c 101080E5 		str	r1, [r0, #16]
 942 0b20 3080BDE8 		pop	{r4, r5, pc}
 943              		.size	_ZL10HorzLine32P8tagINTDCji, .-_ZL10HorzLine32P8tagINTDCji
 944              		.align	2
 945              		.syntax unified
 946              		.arm
 947              		.fpu vfp
 948              		.type	_ZL10DiagLine32P8tagINTDCjjii, %function
 949              	_ZL10DiagLine32P8tagINTDCjjii:
 950              		@ args = 4, pretend = 0, frame = 0
 951              		@ frame_needed = 0, uses_anonymous_args = 0
 952 0b24 F04F2DE9 		push	{r4, r5, r6, r7, r8, r9, r10, fp, lr}
 953 0b28 106090E5 		ldr	r6, [r0, #16]
 954 0b2c 045090E5 		ldr	r5, [r0, #4]
 955 0b30 147090E5 		ldr	r7, [r0, #20]
 956 0b34 06E1A0E1 		lsl	lr, r6, #2
 957 0b38 05C1A0E1 		lsl	ip, r5, #2
 958 0b3c 97EC2CE0 		mla	ip, r7, ip, lr
 959 0b40 020051E1 		cmp	r1, r2
 960 0b44 00E090E5 		ldr	lr, [r0]
 961 0b48 0120A031 		movcc	r2, r1
 962 0b4c 000051E3 		cmp	r1, #0
 963 0b50 0EC08CE0 		add	ip, ip, lr
 964 0b54 24809DE5 		ldr	r8, [sp, #36]
 965 0b58 0F00000A 		beq	.L162
 966 0b5c 0040A0E3 		mov	r4, #0
 967 0b60 04E0A0E1 		mov	lr, r4
 968 0b64 0891A0E1 		lsl	r9, r8, #2
 969 0b68 950905E0 		mul	r5, r5, r9
ARM GAS  C:\Users\ldebo\AppData\Local\Temp\ccISOhOE.s 			page 18


 970 0b6c 0391A0E1 		lsl	r9, r3, #2
 971              	.L163:
 972 0b70 20B090E5 		ldr	fp, [r0, #32]
 973 0b74 0EA082E0 		add	r10, r2, lr
 974 0b78 09B08CE6 		str	fp, [ip], r9
 975 0b7c 0A0051E1 		cmp	r1, r10
 976 0b80 014084E2 		add	r4, r4, #1
 977 0b84 05B08CE0 		add	fp, ip, r5
 978 0b88 01E04AE0 		sub	lr, r10, r1
 979 0b8c 0BC0A091 		movls	ip, fp
 980 0b90 0AE0A081 		movhi	lr, r10
 981 0b94 040051E1 		cmp	r1, r4
 982 0b98 F4FFFF1A 		bne	.L163
 983              	.L162:
 984 0b9c 916321E0 		mla	r1, r1, r3, r6
 985 0ba0 927822E0 		mla	r2, r2, r8, r7
 986 0ba4 101080E5 		str	r1, [r0, #16]
 987 0ba8 142080E5 		str	r2, [r0, #20]
 988 0bac F08FBDE8 		pop	{r4, r5, r6, r7, r8, r9, r10, fp, pc}
 989              		.size	_ZL10DiagLine32P8tagINTDCjjii, .-_ZL10DiagLine32P8tagINTDCjjii
 990              		.align	2
 991              		.syntax unified
 992              		.arm
 993              		.fpu vfp
 994              		.type	_ZL11WriteChar32P8tagINTDCh, %function
 995              	_ZL11WriteChar32P8tagINTDCh:
 996              		@ args = 0, pretend = 0, frame = 8
 997              		@ frame_needed = 0, uses_anonymous_args = 0
 998 0bb0 F0402DE9 		push	{r4, r5, r6, r7, lr}
 999 0bb4 107090E5 		ldr	r7, [r0, #16]
 1000 0bb8 044090E5 		ldr	r4, [r0, #4]
 1001 0bbc 14E090E5 		ldr	lr, [r0, #20]
 1002 0bc0 0731A0E1 		lsl	r3, r7, #2
 1003 0bc4 0441A0E1 		lsl	r4, r4, #2
 1004 0bc8 9E342EE0 		mla	lr, lr, r4, r3
 1005 0bcc 0112A0E1 		lsl	r1, r1, #4
 1006 0bd0 64509FE5 		ldr	r5, .L176
 1007 0bd4 003090E5 		ldr	r3, [r0]
 1008 0bd8 106081E2 		add	r6, r1, #16
 1009 0bdc 066085E0 		add	r6, r5, r6
 1010 0be0 0CD04DE2 		sub	sp, sp, #12
 1011 0be4 03E08EE0 		add	lr, lr, r3
 1012 0be8 015085E0 		add	r5, r5, r1
 1013              	.L172:
 1014 0bec 0030A0E3 		mov	r3, #0
 1015 0bf0 042095E4 		ldr	r2, [r5], #4
 1016              	.L171:
 1017 0bf4 000052E3 		cmp	r2, #0
 1018 0bf8 071003E2 		and	r1, r3, #7
 1019 0bfc 24C090A5 		ldrge	ip, [r0, #36]
 1020 0c00 20C090B5 		ldrlt	ip, [r0, #32]
 1021 0c04 013083E2 		add	r3, r3, #1
 1022 0c08 070051E3 		cmp	r1, #7
 1023 0c0c 01C18EE7 		str	ip, [lr, r1, lsl #2]
 1024 0c10 04E08E00 		addeq	lr, lr, r4
 1025 0c14 200053E3 		cmp	r3, #32
 1026 0c18 04C08DE5 		str	ip, [sp, #4]
ARM GAS  C:\Users\ldebo\AppData\Local\Temp\ccISOhOE.s 			page 19


 1027 0c1c 8220A0E1 		lsl	r2, r2, #1
 1028 0c20 F3FFFF1A 		bne	.L171
 1029 0c24 050056E1 		cmp	r6, r5
 1030 0c28 EFFFFF1A 		bne	.L172
 1031 0c2c 087087E2 		add	r7, r7, #8
 1032 0c30 107080E5 		str	r7, [r0, #16]
 1033 0c34 0CD08DE2 		add	sp, sp, #12
 1034              		@ sp needed
 1035 0c38 F080BDE8 		pop	{r4, r5, r6, r7, pc}
 1036              	.L177:
 1037              		.align	2
 1038              	.L176:
 1039 0c3c 00000000 		.word	.LANCHOR0
 1040              		.size	_ZL11WriteChar32P8tagINTDCh, .-_ZL11WriteChar32P8tagINTDCh
 1041              		.align	2
 1042              		.syntax unified
 1043              		.arm
 1044              		.fpu vfp
 1045              		.type	_ZL22TransparentWriteChar32P8tagINTDCh, %function
 1046              	_ZL22TransparentWriteChar32P8tagINTDCh:
 1047              		@ args = 0, pretend = 0, frame = 0
 1048              		@ frame_needed = 0, uses_anonymous_args = 0
 1049 0c40 F0402DE9 		push	{r4, r5, r6, r7, lr}
 1050 0c44 107090E5 		ldr	r7, [r0, #16]
 1051 0c48 044090E5 		ldr	r4, [r0, #4]
 1052 0c4c 14C090E5 		ldr	ip, [r0, #20]
 1053 0c50 0731A0E1 		lsl	r3, r7, #2
 1054 0c54 0441A0E1 		lsl	r4, r4, #2
 1055 0c58 9C342CE0 		mla	ip, ip, r4, r3
 1056 0c5c 0112A0E1 		lsl	r1, r1, #4
 1057 0c60 54509FE5 		ldr	r5, .L186
 1058 0c64 003090E5 		ldr	r3, [r0]
 1059 0c68 106081E2 		add	r6, r1, #16
 1060 0c6c 066085E0 		add	r6, r5, r6
 1061 0c70 03C08CE0 		add	ip, ip, r3
 1062 0c74 015085E0 		add	r5, r5, r1
 1063              	.L182:
 1064 0c78 0030A0E3 		mov	r3, #0
 1065 0c7c 042095E4 		ldr	r2, [r5], #4
 1066              	.L181:
 1067 0c80 000052E3 		cmp	r2, #0
 1068 0c84 20E090B5 		ldrlt	lr, [r0, #32]
 1069 0c88 071003E2 		and	r1, r3, #7
 1070 0c8c 01E18CB7 		strlt	lr, [ip, r1, lsl #2]
 1071 0c90 013083E2 		add	r3, r3, #1
 1072 0c94 070051E3 		cmp	r1, #7
 1073 0c98 04C08C00 		addeq	ip, ip, r4
 1074 0c9c 200053E3 		cmp	r3, #32
 1075 0ca0 8220A0E1 		lsl	r2, r2, #1
 1076 0ca4 F5FFFF1A 		bne	.L181
 1077 0ca8 050056E1 		cmp	r6, r5
 1078 0cac F1FFFF1A 		bne	.L182
 1079 0cb0 087087E2 		add	r7, r7, #8
 1080 0cb4 107080E5 		str	r7, [r0, #16]
 1081 0cb8 F080BDE8 		pop	{r4, r5, r6, r7, pc}
 1082              	.L187:
 1083              		.align	2
ARM GAS  C:\Users\ldebo\AppData\Local\Temp\ccISOhOE.s 			page 20


 1084              	.L186:
 1085 0cbc 00000000 		.word	.LANCHOR0
 1086              		.size	_ZL22TransparentWriteChar32P8tagINTDCh, .-_ZL22TransparentWriteChar32P8tagINTDCh
 1087              		.align	2
 1088              		.syntax unified
 1089              		.arm
 1090              		.fpu vfp
 1091              		.type	_ZL10PutImage32P8tagINTDCjj7HBITMAPb, %function
 1092              	_ZL10PutImage32P8tagINTDCjj7HBITMAPb:
 1093              		@ args = 4, pretend = 0, frame = 0
 1094              		@ frame_needed = 0, uses_anonymous_args = 0
 1095 0cc0 F0402DE9 		push	{r4, r5, r6, r7, lr}
 1096 0cc4 045090E5 		ldr	r5, [r0, #4]
 1097 0cc8 14C090E5 		ldr	ip, [r0, #20]
 1098 0ccc 0551A0E1 		lsl	r5, r5, #2
 1099 0cd0 9C050CE0 		mul	ip, ip, r5
 1100 0cd4 104090E5 		ldr	r4, [r0, #16]
 1101 0cd8 00E090E5 		ldr	lr, [r0]
 1102 0cdc 04C18CE0 		add	ip, ip, r4, lsl #2
 1103 0ce0 000052E3 		cmp	r2, #0
 1104 0ce4 0EE08CE0 		add	lr, ip, lr
 1105 0ce8 1470DDE5 		ldrb	r7, [sp, #20]	@ zero_extendqisi2
 1106 0cec F080BD08 		popeq	{r4, r5, r6, r7, pc}
 1107 0cf0 000051E3 		cmp	r1, #0
 1108 0cf4 F080BD08 		popeq	{r4, r5, r6, r7, pc}
 1109 0cf8 0040A0E3 		mov	r4, #0
 1110 0cfc 0161A0E1 		lsl	r6, r1, #2
 1111              	.L191:
 1112 0d00 0000A0E3 		mov	r0, #0
 1113              	.L192:
 1114 0d04 00C193E7 		ldr	ip, [r3, r0, lsl #2]
 1115 0d08 00C18EE7 		str	ip, [lr, r0, lsl #2]
 1116 0d0c 010080E2 		add	r0, r0, #1
 1117 0d10 000051E1 		cmp	r1, r0
 1118 0d14 FAFFFF1A 		bne	.L192
 1119 0d18 000057E3 		cmp	r7, #0
 1120 0d1c 014084E2 		add	r4, r4, #1
 1121 0d20 0400000A 		beq	.L193
 1122 0d24 040052E1 		cmp	r2, r4
 1123 0d28 05E04EE0 		sub	lr, lr, r5
 1124 0d2c 063083E0 		add	r3, r3, r6
 1125 0d30 F2FFFF1A 		bne	.L191
 1126 0d34 F080BDE8 		pop	{r4, r5, r6, r7, pc}
 1127              	.L193:
 1128 0d38 040052E1 		cmp	r2, r4
 1129 0d3c 05E08EE0 		add	lr, lr, r5
 1130 0d40 063083E0 		add	r3, r3, r6
 1131 0d44 EDFFFF1A 		bne	.L191
 1132 0d48 F080BDE8 		pop	{r4, r5, r6, r7, pc}
 1133              		.size	_ZL10PutImage32P8tagINTDCjj7HBITMAPb, .-_ZL10PutImage32P8tagINTDCjj7HBITMAPb
 1134              		.align	2
 1135              		.syntax unified
 1136              		.arm
 1137              		.fpu vfp
 1138              		.type	mailbox_tag_message.constprop.6, %function
 1139              	mailbox_tag_message.constprop.6:
 1140              		@ args = 4, pretend = 12, frame = 8
ARM GAS  C:\Users\ldebo\AppData\Local\Temp\ccISOhOE.s 			page 21


 1141              		@ frame_needed = 1, uses_anonymous_args = 1
 1142 0d4c 0E002DE9 		push	{r1, r2, r3}
 1143 0d50 0020A0E3 		mov	r2, #0
 1144 0d54 F0482DE9 		push	{r4, r5, r6, r7, fp, lr}
 1145 0d58 1C70A0E3 		mov	r7, #28
 1146 0d5c 14B08DE2 		add	fp, sp, #20
 1147 0d60 0CD04DE2 		sub	sp, sp, #12
 1148 0d64 90D04DE2 		sub	sp, sp, #144
 1149 0d68 14109BE5 		ldr	r1, [fp, #20]
 1150 0d6c 08609BE5 		ldr	r6, [fp, #8]
 1151 0d70 0CE09BE5 		ldr	lr, [fp, #12]
 1152 0d74 10C09BE5 		ldr	ip, [fp, #16]
 1153 0d78 0F408DE2 		add	r4, sp, #15
 1154 0d7c 0F40C4E3 		bic	r4, r4, #15
 1155 0d80 08308BE2 		add	r3, fp, #8
 1156 0d84 141084E5 		str	r1, [r4, #20]
 1157 0d88 0050A0E1 		mov	r5, r0
 1158 0d8c 007084E5 		str	r7, [r4]
 1159 0d90 0400A0E1 		mov	r0, r4
 1160 0d94 086084E5 		str	r6, [r4, #8]
 1161 0d98 0CE084E5 		str	lr, [r4, #12]
 1162 0d9c 10C084E5 		str	ip, [r4, #16]
 1163 0da0 182084E5 		str	r2, [r4, #24]
 1164 0da4 042084E5 		str	r2, [r4, #4]
 1165 0da8 1C300BE5 		str	r3, [fp, #-28]
 1166 0dac FEFFFFEB 		bl	ARMaddrToGPUaddr
 1167 0db0 7C309FE5 		ldr	r3, .L213
 1168 0db4 0F10C0E3 		bic	r1, r0, #15
 1169 0db8 003093E5 		ldr	r3, [r3]
 1170 0dbc 081081E3 		orr	r1, r1, #8
 1171 0dc0 2E3B83E2 		add	r3, r3, #47104
 1172 0dc4 803083E2 		add	r3, r3, #128
 1173              	.L201:
 1174 0dc8 382093E5 		ldr	r2, [r3, #56]
 1175 0dcc 000052E3 		cmp	r2, #0
 1176 0dd0 FCFFFFBA 		blt	.L201
 1177 0dd4 201083E5 		str	r1, [r3, #32]
 1178              	.L202:
 1179 0dd8 180093E5 		ldr	r0, [r3, #24]
 1180 0ddc 010110E2 		ands	r0, r0, #1073741824
 1181 0de0 FCFFFF1A 		bne	.L202
 1182 0de4 002093E5 		ldr	r2, [r3]
 1183 0de8 0F2002E2 		and	r2, r2, #15
 1184 0dec 080052E3 		cmp	r2, #8
 1185 0df0 F8FFFF1A 		bne	.L202
 1186 0df4 043094E5 		ldr	r3, [r4, #4]
 1187 0df8 020153E3 		cmp	r3, #-2147483648
 1188 0dfc 0300000A 		beq	.L212
 1189 0e00 14D04BE2 		sub	sp, fp, #20
 1190              		@ sp needed
 1191 0e04 F048BDE8 		pop	{r4, r5, r6, r7, fp, lr}
 1192 0e08 0CD08DE2 		add	sp, sp, #12
 1193 0e0c 1EFF2FE1 		bx	lr
 1194              	.L212:
 1195 0e10 000055E3 		cmp	r5, #0
 1196 0e14 08008412 		addne	r0, r4, #8
 1197 0e18 0F009018 		ldmne	r0, {r0, r1, r2, r3}
ARM GAS  C:\Users\ldebo\AppData\Local\Temp\ccISOhOE.s 			page 22


 1198 0e1c 0F008518 		stmne	r5, {r0, r1, r2, r3}
 1199              	.L206:
 1200 0e20 0100A0E3 		mov	r0, #1
 1201 0e24 14D04BE2 		sub	sp, fp, #20
 1202              		@ sp needed
 1203 0e28 F048BDE8 		pop	{r4, r5, r6, r7, fp, lr}
 1204 0e2c 0CD08DE2 		add	sp, sp, #12
 1205 0e30 1EFF2FE1 		bx	lr
 1206              	.L214:
 1207              		.align	2
 1208              	.L213:
 1209 0e34 00000000 		.word	RPi_IO_Base_Addr
 1210              		.size	mailbox_tag_message.constprop.6, .-mailbox_tag_message.constprop.6
 1211              		.align	2
 1212              		.syntax unified
 1213              		.arm
 1214              		.fpu vfp
 1215              		.type	mailbox_tag_message.constprop.4, %function
 1216              	mailbox_tag_message.constprop.4:
 1217              		@ args = 4, pretend = 12, frame = 8
 1218              		@ frame_needed = 1, uses_anonymous_args = 1
 1219 0e38 0E002DE9 		push	{r1, r2, r3}
 1220 0e3c 2000A0E3 		mov	r0, #32
 1221 0e40 0020A0E3 		mov	r2, #0
 1222 0e44 70482DE9 		push	{r4, r5, r6, fp, lr}
 1223 0e48 10B08DE2 		add	fp, sp, #16
 1224 0e4c 08D04DE2 		sub	sp, sp, #8
 1225 0e50 90D04DE2 		sub	sp, sp, #144
 1226 0e54 18109BE5 		ldr	r1, [fp, #24]
 1227 0e58 08609BE5 		ldr	r6, [fp, #8]
 1228 0e5c 0C509BE5 		ldr	r5, [fp, #12]
 1229 0e60 10E09BE5 		ldr	lr, [fp, #16]
 1230 0e64 14C09BE5 		ldr	ip, [fp, #20]
 1231 0e68 0F408DE2 		add	r4, sp, #15
 1232 0e6c 0F40C4E3 		bic	r4, r4, #15
 1233 0e70 08308BE2 		add	r3, fp, #8
 1234 0e74 000084E5 		str	r0, [r4]
 1235 0e78 181084E5 		str	r1, [r4, #24]
 1236 0e7c 1C2084E5 		str	r2, [r4, #28]
 1237 0e80 042084E5 		str	r2, [r4, #4]
 1238 0e84 0400A0E1 		mov	r0, r4
 1239 0e88 086084E5 		str	r6, [r4, #8]
 1240 0e8c 0C5084E5 		str	r5, [r4, #12]
 1241 0e90 10E084E5 		str	lr, [r4, #16]
 1242 0e94 14C084E5 		str	ip, [r4, #20]
 1243 0e98 14300BE5 		str	r3, [fp, #-20]
 1244 0e9c FEFFFFEB 		bl	ARMaddrToGPUaddr
 1245 0ea0 5C309FE5 		ldr	r3, .L223
 1246 0ea4 0F10C0E3 		bic	r1, r0, #15
 1247 0ea8 002093E5 		ldr	r2, [r3]
 1248 0eac 081081E3 		orr	r1, r1, #8
 1249 0eb0 2E2B82E2 		add	r2, r2, #47104
 1250 0eb4 802082E2 		add	r2, r2, #128
 1251              	.L216:
 1252 0eb8 383092E5 		ldr	r3, [r2, #56]
 1253 0ebc 000053E3 		cmp	r3, #0
 1254 0ec0 FCFFFFBA 		blt	.L216
ARM GAS  C:\Users\ldebo\AppData\Local\Temp\ccISOhOE.s 			page 23


 1255 0ec4 201082E5 		str	r1, [r2, #32]
 1256              	.L217:
 1257 0ec8 183092E5 		ldr	r3, [r2, #24]
 1258 0ecc 010113E3 		tst	r3, #1073741824
 1259 0ed0 FCFFFF1A 		bne	.L217
 1260 0ed4 003092E5 		ldr	r3, [r2]
 1261 0ed8 0F3003E2 		and	r3, r3, #15
 1262 0edc 080053E3 		cmp	r3, #8
 1263 0ee0 F8FFFF1A 		bne	.L217
 1264 0ee4 040094E5 		ldr	r0, [r4, #4]
 1265 0ee8 020140E2 		sub	r0, r0, #-2147483648
 1266 0eec 100F6FE1 		clz	r0, r0
 1267 0ef0 A002A0E1 		lsr	r0, r0, #5
 1268 0ef4 10D04BE2 		sub	sp, fp, #16
 1269              		@ sp needed
 1270 0ef8 7048BDE8 		pop	{r4, r5, r6, fp, lr}
 1271 0efc 0CD08DE2 		add	sp, sp, #12
 1272 0f00 1EFF2FE1 		bx	lr
 1273              	.L224:
 1274              		.align	2
 1275              	.L223:
 1276 0f04 00000000 		.word	RPi_IO_Base_Addr
 1277              		.size	mailbox_tag_message.constprop.4, .-mailbox_tag_message.constprop.4
 1278              		.align	2
 1279              		.syntax unified
 1280              		.arm
 1281              		.fpu vfp
 1282              		.type	mailbox_tag_message.constprop.7, %function
 1283              	mailbox_tag_message.constprop.7:
 1284              		@ args = 4, pretend = 12, frame = 8
 1285              		@ frame_needed = 1, uses_anonymous_args = 1
 1286 0f08 0E002DE9 		push	{r1, r2, r3}
 1287 0f0c F0482DE9 		push	{r4, r5, r6, r7, fp, lr}
 1288 0f10 14B08DE2 		add	fp, sp, #20
 1289 0f14 0CD04DE2 		sub	sp, sp, #12
 1290 0f18 90D04DE2 		sub	sp, sp, #144
 1291 0f1c 0F708DE2 		add	r7, sp, #15
 1292 0f20 0F70C7E3 		bic	r7, r7, #15
 1293 0f24 0030A0E3 		mov	r3, #0
 1294 0f28 5810A0E3 		mov	r1, #88
 1295 0f2c 086087E2 		add	r6, r7, #8
 1296 0f30 0050A0E1 		mov	r5, r0
 1297 0f34 0640A0E1 		mov	r4, r6
 1298 0f38 08208BE2 		add	r2, fp, #8
 1299 0f3c 001087E5 		str	r1, [r7]
 1300 0f40 543087E5 		str	r3, [r7, #84]
 1301 0f44 043087E5 		str	r3, [r7, #4]
 1302 0f48 541087E2 		add	r1, r7, #84
 1303 0f4c 1C200BE5 		str	r2, [fp, #-28]
 1304 0f50 04308BE2 		add	r3, fp, #4
 1305              	.L226:
 1306 0f54 0420B3E5 		ldr	r2, [r3, #4]!
 1307 0f58 042084E4 		str	r2, [r4], #4
 1308 0f5c 010054E1 		cmp	r4, r1
 1309 0f60 FBFFFF1A 		bne	.L226
 1310 0f64 0700A0E1 		mov	r0, r7
 1311 0f68 FEFFFFEB 		bl	ARMaddrToGPUaddr
ARM GAS  C:\Users\ldebo\AppData\Local\Temp\ccISOhOE.s 			page 24


 1312 0f6c 88309FE5 		ldr	r3, .L241
 1313 0f70 0F10C0E3 		bic	r1, r0, #15
 1314 0f74 003093E5 		ldr	r3, [r3]
 1315 0f78 081081E3 		orr	r1, r1, #8
 1316 0f7c 2E3B83E2 		add	r3, r3, #47104
 1317 0f80 803083E2 		add	r3, r3, #128
 1318              	.L227:
 1319 0f84 382093E5 		ldr	r2, [r3, #56]
 1320 0f88 000052E3 		cmp	r2, #0
 1321 0f8c FCFFFFBA 		blt	.L227
 1322 0f90 201083E5 		str	r1, [r3, #32]
 1323              	.L228:
 1324 0f94 180093E5 		ldr	r0, [r3, #24]
 1325 0f98 010110E2 		ands	r0, r0, #1073741824
 1326 0f9c FCFFFF1A 		bne	.L228
 1327 0fa0 002093E5 		ldr	r2, [r3]
 1328 0fa4 0F2002E2 		and	r2, r2, #15
 1329 0fa8 080052E3 		cmp	r2, #8
 1330 0fac F8FFFF1A 		bne	.L228
 1331 0fb0 043097E5 		ldr	r3, [r7, #4]
 1332 0fb4 020153E3 		cmp	r3, #-2147483648
 1333 0fb8 0300000A 		beq	.L240
 1334 0fbc 14D04BE2 		sub	sp, fp, #20
 1335              		@ sp needed
 1336 0fc0 F048BDE8 		pop	{r4, r5, r6, r7, fp, lr}
 1337 0fc4 0CD08DE2 		add	sp, sp, #12
 1338 0fc8 1EFF2FE1 		bx	lr
 1339              	.L240:
 1340 0fcc 000055E3 		cmp	r5, #0
 1341 0fd0 04504512 		subne	r5, r5, #4
 1342 0fd4 0300000A 		beq	.L232
 1343              	.L233:
 1344 0fd8 043096E4 		ldr	r3, [r6], #4
 1345 0fdc 040056E1 		cmp	r6, r4
 1346 0fe0 0430A5E5 		str	r3, [r5, #4]!
 1347 0fe4 FBFFFF1A 		bne	.L233
 1348              	.L232:
 1349 0fe8 0100A0E3 		mov	r0, #1
 1350 0fec 14D04BE2 		sub	sp, fp, #20
 1351              		@ sp needed
 1352 0ff0 F048BDE8 		pop	{r4, r5, r6, r7, fp, lr}
 1353 0ff4 0CD08DE2 		add	sp, sp, #12
 1354 0ff8 1EFF2FE1 		bx	lr
 1355              	.L242:
 1356              		.align	2
 1357              	.L241:
 1358 0ffc 00000000 		.word	RPi_IO_Base_Addr
 1359              		.size	mailbox_tag_message.constprop.7, .-mailbox_tag_message.constprop.7
 1360              		.align	2
 1361              		.syntax unified
 1362              		.arm
 1363              		.fpu vfp
 1364              		.type	mailbox_tag_message.constprop.5, %function
 1365              	mailbox_tag_message.constprop.5:
 1366              		@ args = 4, pretend = 12, frame = 8
 1367              		@ frame_needed = 1, uses_anonymous_args = 1
 1368 1000 0E002DE9 		push	{r1, r2, r3}
ARM GAS  C:\Users\ldebo\AppData\Local\Temp\ccISOhOE.s 			page 25


 1369 1004 2010A0E3 		mov	r1, #32
 1370 1008 0020A0E3 		mov	r2, #0
 1371 100c F0482DE9 		push	{r4, r5, r6, r7, fp, lr}
 1372 1010 14B08DE2 		add	fp, sp, #20
 1373 1014 0CD04DE2 		sub	sp, sp, #12
 1374 1018 90D04DE2 		sub	sp, sp, #144
 1375 101c 0F408DE2 		add	r4, sp, #15
 1376 1020 0F40C4E3 		bic	r4, r4, #15
 1377 1024 08709BE5 		ldr	r7, [fp, #8]
 1378 1028 0C609BE5 		ldr	r6, [fp, #12]
 1379 102c 10E09BE5 		ldr	lr, [fp, #16]
 1380 1030 14C09BE5 		ldr	ip, [fp, #20]
 1381 1034 001084E5 		str	r1, [r4]
 1382 1038 18109BE5 		ldr	r1, [fp, #24]
 1383 103c 08308BE2 		add	r3, fp, #8
 1384 1040 181084E5 		str	r1, [r4, #24]
 1385 1044 0050A0E1 		mov	r5, r0
 1386 1048 087084E5 		str	r7, [r4, #8]
 1387 104c 0400A0E1 		mov	r0, r4
 1388 1050 0C6084E5 		str	r6, [r4, #12]
 1389 1054 10E084E5 		str	lr, [r4, #16]
 1390 1058 14C084E5 		str	ip, [r4, #20]
 1391 105c 1C2084E5 		str	r2, [r4, #28]
 1392 1060 042084E5 		str	r2, [r4, #4]
 1393 1064 1C300BE5 		str	r3, [fp, #-28]
 1394 1068 FEFFFFEB 		bl	ARMaddrToGPUaddr
 1395 106c 88309FE5 		ldr	r3, .L256
 1396 1070 0F10C0E3 		bic	r1, r0, #15
 1397 1074 003093E5 		ldr	r3, [r3]
 1398 1078 081081E3 		orr	r1, r1, #8
 1399 107c 2E3B83E2 		add	r3, r3, #47104
 1400 1080 803083E2 		add	r3, r3, #128
 1401              	.L244:
 1402 1084 382093E5 		ldr	r2, [r3, #56]
 1403 1088 000052E3 		cmp	r2, #0
 1404 108c FCFFFFBA 		blt	.L244
 1405 1090 201083E5 		str	r1, [r3, #32]
 1406              	.L245:
 1407 1094 180093E5 		ldr	r0, [r3, #24]
 1408 1098 010110E2 		ands	r0, r0, #1073741824
 1409 109c FCFFFF1A 		bne	.L245
 1410 10a0 002093E5 		ldr	r2, [r3]
 1411 10a4 0F2002E2 		and	r2, r2, #15
 1412 10a8 080052E3 		cmp	r2, #8
 1413 10ac F8FFFF1A 		bne	.L245
 1414 10b0 043094E5 		ldr	r3, [r4, #4]
 1415 10b4 020153E3 		cmp	r3, #-2147483648
 1416 10b8 0300000A 		beq	.L255
 1417 10bc 14D04BE2 		sub	sp, fp, #20
 1418              		@ sp needed
 1419 10c0 F048BDE8 		pop	{r4, r5, r6, r7, fp, lr}
 1420 10c4 0CD08DE2 		add	sp, sp, #12
 1421 10c8 1EFF2FE1 		bx	lr
 1422              	.L255:
 1423 10cc 000055E3 		cmp	r5, #0
 1424 10d0 0400000A 		beq	.L249
 1425 10d4 0C0084E2 		add	r0, r4, #12
ARM GAS  C:\Users\ldebo\AppData\Local\Temp\ccISOhOE.s 			page 26


 1426 10d8 0F0090E8 		ldm	r0, {r0, r1, r2, r3}
 1427 10dc 0F0085E9 		stmib	r5, {r0, r1, r2, r3}
 1428 10e0 08C094E5 		ldr	ip, [r4, #8]
 1429 10e4 00C085E5 		str	ip, [r5]
 1430              	.L249:
 1431 10e8 0100A0E3 		mov	r0, #1
 1432 10ec 14D04BE2 		sub	sp, fp, #20
 1433              		@ sp needed
 1434 10f0 F048BDE8 		pop	{r4, r5, r6, r7, fp, lr}
 1435 10f4 0CD08DE2 		add	sp, sp, #12
 1436 10f8 1EFF2FE1 		bx	lr
 1437              	.L257:
 1438              		.align	2
 1439              	.L256:
 1440 10fc 00000000 		.word	RPi_IO_Base_Addr
 1441              		.size	mailbox_tag_message.constprop.5, .-mailbox_tag_message.constprop.5
 1442              		.align	2
 1443              		.global	RPi_CpuIdString
 1444              		.syntax unified
 1445              		.arm
 1446              		.fpu vfp
 1447              		.type	RPi_CpuIdString, %function
 1448              	RPi_CpuIdString:
 1449              		@ args = 0, pretend = 0, frame = 0
 1450              		@ frame_needed = 0, uses_anonymous_args = 0
 1451              		@ link register save eliminated.
 1452 1100 44309FE5 		ldr	r3, .L264
 1453 1104 44209FE5 		ldr	r2, .L264+4
 1454 1108 B030D3E1 		ldrh	r3, [r3]
 1455 110c 2332A0E1 		lsr	r3, r3, #4
 1456 1110 020053E1 		cmp	r3, r2
 1457 1114 0800000A 		beq	.L260
 1458 1118 FC2082E2 		add	r2, r2, #252
 1459 111c 020053E1 		cmp	r3, r2
 1460 1120 0700000A 		beq	.L261
 1461 1124 28109FE5 		ldr	r1, .L264+8
 1462 1128 28209FE5 		ldr	r2, .L264+12
 1463 112c 010053E1 		cmp	r3, r1
 1464 1130 24009FE5 		ldr	r0, .L264+16
 1465 1134 0200A011 		movne	r0, r2
 1466 1138 1EFF2FE1 		bx	lr
 1467              	.L260:
 1468 113c 1C009FE5 		ldr	r0, .L264+20
 1469 1140 1EFF2FE1 		bx	lr
 1470              	.L261:
 1471 1144 18009FE5 		ldr	r0, .L264+24
 1472 1148 1EFF2FE1 		bx	lr
 1473              	.L265:
 1474              		.align	2
 1475              	.L264:
 1476 114c 00000000 		.word	RPi_CpuId
 1477 1150 070C0000 		.word	3079
 1478 1154 760B0000 		.word	2934
 1479 1158 28000000 		.word	.LC3
 1480 115c 00000000 		.word	.LC0
 1481 1160 10000000 		.word	.LC1
 1482 1164 1C000000 		.word	.LC2
ARM GAS  C:\Users\ldebo\AppData\Local\Temp\ccISOhOE.s 			page 27


 1483              		.size	RPi_CpuIdString, .-RPi_CpuIdString
 1484              		.align	2
 1485              		.global	gpio_setup
 1486              		.syntax unified
 1487              		.arm
 1488              		.fpu vfp
 1489              		.type	gpio_setup, %function
 1490              	gpio_setup:
 1491              		@ args = 0, pretend = 0, frame = 0
 1492              		@ frame_needed = 0, uses_anonymous_args = 0
 1493 1168 360050E3 		cmp	r0, #54
 1494 116c 1200008A 		bhi	.L269
 1495 1170 070051E3 		cmp	r1, #7
 1496 1174 100000CA 		bgt	.L269
 1497 1178 04E02DE5 		str	lr, [sp, #-4]!
 1498 117c 07E0A0E3 		mov	lr, #7
 1499 1180 3C309FE5 		ldr	r3, .L274
 1500 1184 3C209FE5 		ldr	r2, .L274+4
 1501 1188 93C083E0 		umull	ip, r3, r3, r0
 1502 118c 00C092E5 		ldr	ip, [r2]
 1503 1190 A331A0E1 		lsr	r3, r3, #3
 1504 1194 032183E0 		add	r2, r3, r3, lsl #2
 1505 1198 02C68CE2 		add	ip, ip, #2097152
 1506 119c 820040E0 		sub	r0, r0, r2, lsl #1
 1507 11a0 03219CE7 		ldr	r2, [ip, r3, lsl #2]
 1508 11a4 800080E0 		add	r0, r0, r0, lsl #1
 1509 11a8 1E20C2E1 		bic	r2, r2, lr, lsl r0
 1510 11ac 110082E1 		orr	r0, r2, r1, lsl r0
 1511 11b0 03018CE7 		str	r0, [ip, r3, lsl #2]
 1512 11b4 0100A0E3 		mov	r0, #1
 1513 11b8 04F09DE4 		ldr	pc, [sp], #4
 1514              	.L269:
 1515 11bc 0000A0E3 		mov	r0, #0
 1516 11c0 1EFF2FE1 		bx	lr
 1517              	.L275:
 1518              		.align	2
 1519              	.L274:
 1520 11c4 CDCCCCCC 		.word	-858993459
 1521 11c8 00000000 		.word	RPi_IO_Base_Addr
 1522              		.size	gpio_setup, .-gpio_setup
 1523              		.align	2
 1524              		.global	gpio_output
 1525              		.syntax unified
 1526              		.arm
 1527              		.fpu vfp
 1528              		.type	gpio_output, %function
 1529              	gpio_output:
 1530              		@ args = 0, pretend = 0, frame = 0
 1531              		@ frame_needed = 0, uses_anonymous_args = 0
 1532              		@ link register save eliminated.
 1533 11cc 360050E3 		cmp	r0, #54
 1534 11d0 1500008A 		bhi	.L279
 1535 11d4 0120A0E3 		mov	r2, #1
 1536 11d8 1F3000E2 		and	r3, r0, #31
 1537 11dc 000051E3 		cmp	r1, #0
 1538 11e0 12C3A0E1 		lsl	ip, r2, r3
 1539 11e4 0700001A 		bne	.L280
ARM GAS  C:\Users\ldebo\AppData\Local\Temp\ccISOhOE.s 			page 28


 1540 11e8 44109FE5 		ldr	r1, .L281
 1541 11ec A032A0E1 		lsr	r3, r0, #5
 1542 11f0 001091E5 		ldr	r1, [r1]
 1543 11f4 0A3083E2 		add	r3, r3, #10
 1544 11f8 021681E2 		add	r1, r1, #2097152
 1545 11fc 0200A0E1 		mov	r0, r2
 1546 1200 03C181E7 		str	ip, [r1, r3, lsl #2]
 1547 1204 1EFF2FE1 		bx	lr
 1548              	.L280:
 1549 1208 24209FE5 		ldr	r2, .L281
 1550 120c A032A0E1 		lsr	r3, r0, #5
 1551 1210 000092E5 		ldr	r0, [r2]
 1552 1214 063083E2 		add	r3, r3, #6
 1553 1218 020680E2 		add	r0, r0, #2097152
 1554 121c 033180E0 		add	r3, r0, r3, lsl #2
 1555 1220 04C083E5 		str	ip, [r3, #4]
 1556 1224 0100A0E1 		mov	r0, r1
 1557 1228 1EFF2FE1 		bx	lr
 1558              	.L279:
 1559 122c 0000A0E3 		mov	r0, #0
 1560 1230 1EFF2FE1 		bx	lr
 1561              	.L282:
 1562              		.align	2
 1563              	.L281:
 1564 1234 00000000 		.word	RPi_IO_Base_Addr
 1565              		.size	gpio_output, .-gpio_output
 1566              		.align	2
 1567              		.global	gpio_input
 1568              		.syntax unified
 1569              		.arm
 1570              		.fpu vfp
 1571              		.type	gpio_input, %function
 1572              	gpio_input:
 1573              		@ args = 0, pretend = 0, frame = 0
 1574              		@ frame_needed = 0, uses_anonymous_args = 0
 1575              		@ link register save eliminated.
 1576 1238 360050E3 		cmp	r0, #54
 1577 123c 0C00008A 		bhi	.L285
 1578 1240 0110A0E3 		mov	r1, #1
 1579 1244 30309FE5 		ldr	r3, .L286
 1580 1248 A022A0E1 		lsr	r2, r0, #5
 1581 124c 003093E5 		ldr	r3, [r3]
 1582 1250 0C2082E2 		add	r2, r2, #12
 1583 1254 023683E2 		add	r3, r3, #2097152
 1584 1258 023183E0 		add	r3, r3, r2, lsl #2
 1585 125c 043093E5 		ldr	r3, [r3, #4]
 1586 1260 1F0000E2 		and	r0, r0, #31
 1587 1264 113013E0 		ands	r3, r3, r1, lsl r0
 1588 1268 0100A011 		movne	r0, r1
 1589 126c 0000A003 		moveq	r0, #0
 1590 1270 1EFF2FE1 		bx	lr
 1591              	.L285:
 1592 1274 0000A0E3 		mov	r0, #0
 1593 1278 1EFF2FE1 		bx	lr
 1594              	.L287:
 1595              		.align	2
 1596              	.L286:
ARM GAS  C:\Users\ldebo\AppData\Local\Temp\ccISOhOE.s 			page 29


 1597 127c 00000000 		.word	RPi_IO_Base_Addr
 1598              		.size	gpio_input, .-gpio_input
 1599              		.align	2
 1600              		.global	gpio_checkEvent
 1601              		.syntax unified
 1602              		.arm
 1603              		.fpu vfp
 1604              		.type	gpio_checkEvent, %function
 1605              	gpio_checkEvent:
 1606              		@ args = 0, pretend = 0, frame = 0
 1607              		@ frame_needed = 0, uses_anonymous_args = 0
 1608              		@ link register save eliminated.
 1609 1280 360050E3 		cmp	r0, #54
 1610 1284 0B00008A 		bhi	.L290
 1611 1288 0110A0E3 		mov	r1, #1
 1612 128c 2C309FE5 		ldr	r3, .L291
 1613 1290 A022A0E1 		lsr	r2, r0, #5
 1614 1294 003093E5 		ldr	r3, [r3]
 1615 1298 102082E2 		add	r2, r2, #16
 1616 129c 023683E2 		add	r3, r3, #2097152
 1617 12a0 023193E7 		ldr	r3, [r3, r2, lsl #2]
 1618 12a4 1F0000E2 		and	r0, r0, #31
 1619 12a8 113013E0 		ands	r3, r3, r1, lsl r0
 1620 12ac 0100A011 		movne	r0, r1
 1621 12b0 0000A003 		moveq	r0, #0
 1622 12b4 1EFF2FE1 		bx	lr
 1623              	.L290:
 1624 12b8 0000A0E3 		mov	r0, #0
 1625 12bc 1EFF2FE1 		bx	lr
 1626              	.L292:
 1627              		.align	2
 1628              	.L291:
 1629 12c0 00000000 		.word	RPi_IO_Base_Addr
 1630              		.size	gpio_checkEvent, .-gpio_checkEvent
 1631              		.align	2
 1632              		.global	gpio_clearEvent
 1633              		.syntax unified
 1634              		.arm
 1635              		.fpu vfp
 1636              		.type	gpio_clearEvent, %function
 1637              	gpio_clearEvent:
 1638              		@ args = 0, pretend = 0, frame = 0
 1639              		@ frame_needed = 0, uses_anonymous_args = 0
 1640              		@ link register save eliminated.
 1641 12c4 360050E3 		cmp	r0, #54
 1642 12c8 0A00008A 		bhi	.L295
 1643 12cc 0120A0E3 		mov	r2, #1
 1644 12d0 28309FE5 		ldr	r3, .L296
 1645 12d4 1FC000E2 		and	ip, r0, #31
 1646 12d8 001093E5 		ldr	r1, [r3]
 1647 12dc A032A0E1 		lsr	r3, r0, #5
 1648 12e0 021681E2 		add	r1, r1, #2097152
 1649 12e4 120CA0E1 		lsl	r0, r2, ip
 1650 12e8 103083E2 		add	r3, r3, #16
 1651 12ec 030181E7 		str	r0, [r1, r3, lsl #2]
 1652 12f0 0200A0E1 		mov	r0, r2
 1653 12f4 1EFF2FE1 		bx	lr
ARM GAS  C:\Users\ldebo\AppData\Local\Temp\ccISOhOE.s 			page 30


 1654              	.L295:
 1655 12f8 0000A0E3 		mov	r0, #0
 1656 12fc 1EFF2FE1 		bx	lr
 1657              	.L297:
 1658              		.align	2
 1659              	.L296:
 1660 1300 00000000 		.word	RPi_IO_Base_Addr
 1661              		.size	gpio_clearEvent, .-gpio_clearEvent
 1662              		.align	2
 1663              		.global	gpio_edgeDetect
 1664              		.syntax unified
 1665              		.arm
 1666              		.fpu vfp
 1667              		.type	gpio_edgeDetect, %function
 1668              	gpio_edgeDetect:
 1669              		@ args = 0, pretend = 0, frame = 0
 1670              		@ frame_needed = 0, uses_anonymous_args = 0
 1671 1304 360050E3 		cmp	r0, #54
 1672 1308 1A00008A 		bhi	.L303
 1673 130c 01C0A0E3 		mov	ip, #1
 1674 1310 1F3000E2 		and	r3, r0, #31
 1675 1314 000051E3 		cmp	r1, #0
 1676 1318 04E02DE5 		str	lr, [sp, #-4]!
 1677 131c 1CE3A0E1 		lsl	lr, ip, r3
 1678 1320 0A00000A 		beq	.L300
 1679 1324 000052E3 		cmp	r2, #0
 1680 1328 1400000A 		beq	.L301
 1681 132c 90109FE5 		ldr	r1, .L309
 1682 1330 A032A0E1 		lsr	r3, r0, #5
 1683 1334 000091E5 		ldr	r0, [r1]
 1684 1338 1E3083E2 		add	r3, r3, #30
 1685 133c 020680E2 		add	r0, r0, #2097152
 1686 1340 033180E0 		add	r3, r0, r3, lsl #2
 1687 1344 04E083E5 		str	lr, [r3, #4]
 1688 1348 0200A0E1 		mov	r0, r2
 1689 134c 04F09DE4 		ldr	pc, [sp], #4
 1690              	.L300:
 1691 1350 000052E3 		cmp	r2, #0
 1692 1354 1200001A 		bne	.L308
 1693 1358 64209FE5 		ldr	r2, .L309
 1694 135c A032A0E1 		lsr	r3, r0, #5
 1695 1360 002092E5 		ldr	r2, [r2]
 1696 1364 163083E2 		add	r3, r3, #22
 1697 1368 022682E2 		add	r2, r2, #2097152
 1698 136c 0C00A0E1 		mov	r0, ip
 1699 1370 03E182E7 		str	lr, [r2, r3, lsl #2]
 1700 1374 04F09DE4 		ldr	pc, [sp], #4
 1701              	.L303:
 1702 1378 0000A0E3 		mov	r0, #0
 1703 137c 1EFF2FE1 		bx	lr
 1704              	.L301:
 1705 1380 3C209FE5 		ldr	r2, .L309
 1706 1384 A032A0E1 		lsr	r3, r0, #5
 1707 1388 000092E5 		ldr	r0, [r2]
 1708 138c 123083E2 		add	r3, r3, #18
 1709 1390 020680E2 		add	r0, r0, #2097152
 1710 1394 033180E0 		add	r3, r0, r3, lsl #2
ARM GAS  C:\Users\ldebo\AppData\Local\Temp\ccISOhOE.s 			page 31


 1711 1398 04E083E5 		str	lr, [r3, #4]
 1712 139c 0100A0E1 		mov	r0, r1
 1713 13a0 04F09DE4 		ldr	pc, [sp], #4
 1714              	.L308:
 1715 13a4 18109FE5 		ldr	r1, .L309
 1716 13a8 A032A0E1 		lsr	r3, r0, #5
 1717 13ac 001091E5 		ldr	r1, [r1]
 1718 13b0 223083E2 		add	r3, r3, #34
 1719 13b4 021681E2 		add	r1, r1, #2097152
 1720 13b8 0200A0E1 		mov	r0, r2
 1721 13bc 03E181E7 		str	lr, [r1, r3, lsl #2]
 1722 13c0 04F09DE4 		ldr	pc, [sp], #4
 1723              	.L310:
 1724              		.align	2
 1725              	.L309:
 1726 13c4 00000000 		.word	RPi_IO_Base_Addr
 1727              		.size	gpio_edgeDetect, .-gpio_edgeDetect
 1728              		.align	2
 1729              		.global	gpio_fixResistor
 1730              		.syntax unified
 1731              		.arm
 1732              		.fpu vfp
 1733              		.type	gpio_fixResistor, %function
 1734              	gpio_fixResistor:
 1735              		@ args = 0, pretend = 0, frame = 0
 1736              		@ frame_needed = 0, uses_anonymous_args = 0
 1737 13c8 360050E3 		cmp	r0, #54
 1738 13cc 4600008A 		bhi	.L320
 1739 13d0 020051E3 		cmp	r1, #2
 1740 13d4 440000CA 		bgt	.L320
 1741 13d8 F04F2DE9 		push	{r4, r5, r6, r7, r8, r9, r10, fp, lr}
 1742 13dc 00A0A0E1 		mov	r10, r0
 1743 13e0 0C319FE5 		ldr	r3, .L331
 1744 13e4 00C093E5 		ldr	ip, [r3]
 1745 13e8 02B68CE2 		add	fp, ip, #2097152
 1746 13ec 94108BE5 		str	r1, [fp, #148]
 1747 13f0 03CA8CE2 		add	ip, ip, #12288
 1748              	.L313:
 1749 13f4 0030A0E3 		mov	r3, #0
 1750 13f8 0010A0E3 		mov	r1, #0
 1751 13fc 08209CE5 		ldr	r2, [ip, #8]
 1752 1400 04E09CE5 		ldr	lr, [ip, #4]
 1753 1404 08009CE5 		ldr	r0, [ip, #8]
 1754 1408 010053E1 		cmp	r3, r1
 1755 140c 00005201 		cmpeq	r2, r0
 1756 1410 F7FFFF1A 		bne	.L313
 1757 1414 0000A0E3 		mov	r0, #0
 1758 1418 0E0080E1 		orr	r0, r0, lr
 1759 141c 028090E2 		adds	r8, r0, #2
 1760 1420 0090A2E2 		adc	r9, r2, #0
 1761              	.L314:
 1762 1424 0030A0E3 		mov	r3, #0
 1763 1428 0010A0E3 		mov	r1, #0
 1764 142c 08209CE5 		ldr	r2, [ip, #8]
 1765 1430 04E09CE5 		ldr	lr, [ip, #4]
 1766 1434 08009CE5 		ldr	r0, [ip, #8]
 1767 1438 010053E1 		cmp	r3, r1
ARM GAS  C:\Users\ldebo\AppData\Local\Temp\ccISOhOE.s 			page 32


 1768 143c 00005201 		cmpeq	r2, r0
 1769 1440 F7FFFF1A 		bne	.L314
 1770 1444 0270A0E1 		mov	r7, r2
 1771 1448 0060A0E3 		mov	r6, #0
 1772 144c 070059E1 		cmp	r9, r7
 1773 1450 0E2086E1 		orr	r2, r6, lr
 1774 1454 02005801 		cmpeq	r8, r2
 1775 1458 F1FFFF8A 		bhi	.L314
 1776 145c 0130A0E3 		mov	r3, #1
 1777 1460 1F200AE2 		and	r2, r10, #31
 1778 1464 AAE2A0E1 		lsr	lr, r10, #5
 1779 1468 1332A0E1 		lsl	r3, r3, r2
 1780 146c 0EE18BE0 		add	lr, fp, lr, lsl #2
 1781 1470 98308EE5 		str	r3, [lr, #152]
 1782              	.L316:
 1783 1474 0030A0E3 		mov	r3, #0
 1784 1478 0010A0E3 		mov	r1, #0
 1785 147c 08209CE5 		ldr	r2, [ip, #8]
 1786 1480 04709CE5 		ldr	r7, [ip, #4]
 1787 1484 08009CE5 		ldr	r0, [ip, #8]
 1788 1488 010053E1 		cmp	r3, r1
 1789 148c 00005201 		cmpeq	r2, r0
 1790 1490 F7FFFF1A 		bne	.L316
 1791 1494 0000A0E3 		mov	r0, #0
 1792 1498 070080E1 		orr	r0, r0, r7
 1793 149c 026090E2 		adds	r6, r0, #2
 1794 14a0 0070A2E2 		adc	r7, r2, #0
 1795              	.L317:
 1796 14a4 0030A0E3 		mov	r3, #0
 1797 14a8 0010A0E3 		mov	r1, #0
 1798 14ac 08209CE5 		ldr	r2, [ip, #8]
 1799 14b0 04809CE5 		ldr	r8, [ip, #4]
 1800 14b4 08009CE5 		ldr	r0, [ip, #8]
 1801 14b8 010053E1 		cmp	r3, r1
 1802 14bc 00005201 		cmpeq	r2, r0
 1803 14c0 F7FFFF1A 		bne	.L317
 1804 14c4 0250A0E1 		mov	r5, r2
 1805 14c8 0040A0E3 		mov	r4, #0
 1806 14cc 050057E1 		cmp	r7, r5
 1807 14d0 082084E1 		orr	r2, r4, r8
 1808 14d4 02005601 		cmpeq	r6, r2
 1809 14d8 F1FFFF8A 		bhi	.L317
 1810 14dc 94408BE5 		str	r4, [fp, #148]
 1811 14e0 0100A0E3 		mov	r0, #1
 1812 14e4 98408EE5 		str	r4, [lr, #152]
 1813 14e8 F08FBDE8 		pop	{r4, r5, r6, r7, r8, r9, r10, fp, pc}
 1814              	.L320:
 1815 14ec 0000A0E3 		mov	r0, #0
 1816 14f0 1EFF2FE1 		bx	lr
 1817              	.L332:
 1818              		.align	2
 1819              	.L331:
 1820 14f4 00000000 		.word	RPi_IO_Base_Addr
 1821              		.size	gpio_fixResistor, .-gpio_fixResistor
 1822              		.align	2
 1823              		.global	timer_getTickCount
 1824              		.syntax unified
ARM GAS  C:\Users\ldebo\AppData\Local\Temp\ccISOhOE.s 			page 33


 1825              		.arm
 1826              		.fpu vfp
 1827              		.type	timer_getTickCount, %function
 1828              	timer_getTickCount:
 1829              		@ args = 0, pretend = 0, frame = 0
 1830              		@ frame_needed = 0, uses_anonymous_args = 0
 1831              		@ link register save eliminated.
 1832 14f8 44309FE5 		ldr	r3, .L337
 1833 14fc 30002DE9 		push	{r4, r5}
 1834 1500 001093E5 		ldr	r1, [r3]
 1835 1504 031A81E2 		add	r1, r1, #12288
 1836              	.L334:
 1837 1508 0030A0E3 		mov	r3, #0
 1838 150c 0050A0E3 		mov	r5, #0
 1839 1510 082091E5 		ldr	r2, [r1, #8]
 1840 1514 040091E5 		ldr	r0, [r1, #4]
 1841 1518 084091E5 		ldr	r4, [r1, #8]
 1842 151c 050053E1 		cmp	r3, r5
 1843 1520 04005201 		cmpeq	r2, r4
 1844 1524 F7FFFF1A 		bne	.L334
 1845 1528 0040A0E3 		mov	r4, #0
 1846 152c 0250A0E1 		mov	r5, r2
 1847 1530 004084E1 		orr	r4, r4, r0
 1848 1534 0400A0E1 		mov	r0, r4
 1849 1538 0510A0E1 		mov	r1, r5
 1850 153c 3000BDE8 		pop	{r4, r5}
 1851 1540 1EFF2FE1 		bx	lr
 1852              	.L338:
 1853              		.align	2
 1854              	.L337:
 1855 1544 00000000 		.word	RPi_IO_Base_Addr
 1856              		.size	timer_getTickCount, .-timer_getTickCount
 1857              		.align	2
 1858              		.global	timer_wait
 1859              		.syntax unified
 1860              		.arm
 1861              		.fpu vfp
 1862              		.type	timer_wait, %function
 1863              	timer_wait:
 1864              		@ args = 0, pretend = 0, frame = 0
 1865              		@ frame_needed = 0, uses_anonymous_args = 0
 1866 1548 74309FE5 		ldr	r3, .L347
 1867 154c F0402DE9 		push	{r4, r5, r6, r7, lr}
 1868 1550 00C093E5 		ldr	ip, [r3]
 1869 1554 03CA8CE2 		add	ip, ip, #12288
 1870              	.L340:
 1871 1558 0030A0E3 		mov	r3, #0
 1872 155c 0070A0E3 		mov	r7, #0
 1873 1560 08209CE5 		ldr	r2, [ip, #8]
 1874 1564 04E09CE5 		ldr	lr, [ip, #4]
 1875 1568 08609CE5 		ldr	r6, [ip, #8]
 1876 156c 070053E1 		cmp	r3, r7
 1877 1570 06005201 		cmpeq	r2, r6
 1878 1574 F7FFFF1A 		bne	.L340
 1879 1578 0060A0E3 		mov	r6, #0
 1880 157c 0E6086E1 		orr	r6, r6, lr
 1881 1580 006096E0 		adds	r6, r6, r0
ARM GAS  C:\Users\ldebo\AppData\Local\Temp\ccISOhOE.s 			page 34


 1882 1584 0170A2E0 		adc	r7, r2, r1
 1883              	.L341:
 1884 1588 0030A0E3 		mov	r3, #0
 1885 158c 0010A0E3 		mov	r1, #0
 1886 1590 08209CE5 		ldr	r2, [ip, #8]
 1887 1594 04E09CE5 		ldr	lr, [ip, #4]
 1888 1598 08009CE5 		ldr	r0, [ip, #8]
 1889 159c 010053E1 		cmp	r3, r1
 1890 15a0 00005201 		cmpeq	r2, r0
 1891 15a4 F7FFFF1A 		bne	.L341
 1892 15a8 0250A0E1 		mov	r5, r2
 1893 15ac 0040A0E3 		mov	r4, #0
 1894 15b0 050057E1 		cmp	r7, r5
 1895 15b4 0E2084E1 		orr	r2, r4, lr
 1896 15b8 02005601 		cmpeq	r6, r2
 1897 15bc F1FFFF8A 		bhi	.L341
 1898 15c0 F080BDE8 		pop	{r4, r5, r6, r7, pc}
 1899              	.L348:
 1900              		.align	2
 1901              	.L347:
 1902 15c4 00000000 		.word	RPi_IO_Base_Addr
 1903              		.size	timer_wait, .-timer_wait
 1904              		.align	2
 1905              		.global	tick_difference
 1906              		.syntax unified
 1907              		.arm
 1908              		.fpu vfp
 1909              		.type	tick_difference, %function
 1910              	tick_difference:
 1911              		@ args = 0, pretend = 0, frame = 0
 1912              		@ frame_needed = 0, uses_anonymous_args = 0
 1913              		@ link register save eliminated.
 1914 15c8 000052E0 		subs	r0, r2, r0
 1915 15cc 0110C3E0 		sbc	r1, r3, r1
 1916 15d0 1EFF2FE1 		bx	lr
 1917              		.size	tick_difference, .-tick_difference
 1918              		.align	2
 1919              		.global	mailbox_write
 1920              		.syntax unified
 1921              		.arm
 1922              		.fpu vfp
 1923              		.type	mailbox_write, %function
 1924              	mailbox_write:
 1925              		@ args = 0, pretend = 0, frame = 0
 1926              		@ frame_needed = 0, uses_anonymous_args = 0
 1927              		@ link register save eliminated.
 1928 15d4 090050E3 		cmp	r0, #9
 1929 15d8 0B0000CA 		bgt	.L353
 1930 15dc 30309FE5 		ldr	r3, .L355
 1931 15e0 0F10C1E3 		bic	r1, r1, #15
 1932 15e4 002093E5 		ldr	r2, [r3]
 1933 15e8 010080E1 		orr	r0, r0, r1
 1934 15ec 2E2B82E2 		add	r2, r2, #47104
 1935 15f0 802082E2 		add	r2, r2, #128
 1936              	.L352:
 1937 15f4 383092E5 		ldr	r3, [r2, #56]
 1938 15f8 000053E3 		cmp	r3, #0
ARM GAS  C:\Users\ldebo\AppData\Local\Temp\ccISOhOE.s 			page 35


 1939 15fc FCFFFFBA 		blt	.L352
 1940 1600 200082E5 		str	r0, [r2, #32]
 1941 1604 0100A0E3 		mov	r0, #1
 1942 1608 1EFF2FE1 		bx	lr
 1943              	.L353:
 1944 160c 0000A0E3 		mov	r0, #0
 1945 1610 1EFF2FE1 		bx	lr
 1946              	.L356:
 1947              		.align	2
 1948              	.L355:
 1949 1614 00000000 		.word	RPi_IO_Base_Addr
 1950              		.size	mailbox_write, .-mailbox_write
 1951              		.align	2
 1952              		.global	mailbox_read
 1953              		.syntax unified
 1954              		.arm
 1955              		.fpu vfp
 1956              		.type	mailbox_read, %function
 1957              	mailbox_read:
 1958              		@ args = 0, pretend = 0, frame = 0
 1959              		@ frame_needed = 0, uses_anonymous_args = 0
 1960              		@ link register save eliminated.
 1961 1618 090050E3 		cmp	r0, #9
 1962 161c 010000DA 		ble	.L364
 1963 1620 34009FE5 		ldr	r0, .L365
 1964 1624 1EFF2FE1 		bx	lr
 1965              	.L364:
 1966 1628 30309FE5 		ldr	r3, .L365+4
 1967 162c 002093E5 		ldr	r2, [r3]
 1968 1630 2E2B82E2 		add	r2, r2, #47104
 1969 1634 802082E2 		add	r2, r2, #128
 1970              	.L359:
 1971 1638 183092E5 		ldr	r3, [r2, #24]
 1972 163c 010113E3 		tst	r3, #1073741824
 1973 1640 FCFFFF1A 		bne	.L359
 1974 1644 003092E5 		ldr	r3, [r2]
 1975 1648 0F1003E2 		and	r1, r3, #15
 1976 164c 010050E1 		cmp	r0, r1
 1977 1650 F8FFFF1A 		bne	.L359
 1978 1654 0F00C3E3 		bic	r0, r3, #15
 1979 1658 1EFF2FE1 		bx	lr
 1980              	.L366:
 1981              		.align	2
 1982              	.L365:
 1983 165c ADDEEDFE 		.word	-17965395
 1984 1660 00000000 		.word	RPi_IO_Base_Addr
 1985              		.size	mailbox_read, .-mailbox_read
 1986              		.align	2
 1987              		.global	mailbox_tag_message
 1988              		.syntax unified
 1989              		.arm
 1990              		.fpu vfp
 1991              		.type	mailbox_tag_message, %function
 1992              	mailbox_tag_message:
 1993              		@ args = 4, pretend = 12, frame = 8
 1994              		@ frame_needed = 1, uses_anonymous_args = 1
 1995 1664 0E002DE9 		push	{r1, r2, r3}
ARM GAS  C:\Users\ldebo\AppData\Local\Temp\ccISOhOE.s 			page 36


 1996 1668 70482DE9 		push	{r4, r5, r6, fp, lr}
 1997 166c 10B08DE2 		add	fp, sp, #16
 1998 1670 08D04DE2 		sub	sp, sp, #8
 1999 1674 0020A0E3 		mov	r2, #0
 2000 1678 0460DBE5 		ldrb	r6, [fp, #4]	@ zero_extendqisi2
 2001 167c 90D04DE2 		sub	sp, sp, #144
 2002 1680 020056E1 		cmp	r6, r2
 2003 1684 0F508DE2 		add	r5, sp, #15
 2004 1688 033086E2 		add	r3, r6, #3
 2005 168c 0F50C5E3 		bic	r5, r5, #15
 2006 1690 0331A0E1 		lsl	r3, r3, #2
 2007 1694 0040A0E1 		mov	r4, r0
 2008 1698 021086E2 		add	r1, r6, #2
 2009 169c 08C08BE2 		add	ip, fp, #8
 2010 16a0 01008612 		addne	r0, r6, #1
 2011 16a4 003085E5 		str	r3, [r5]
 2012 16a8 14C00BE5 		str	ip, [fp, #-20]
 2013 16ac 012185E7 		str	r2, [r5, r1, lsl #2]
 2014 16b0 00018510 		addne	r0, r5, r0, lsl #2
 2015 16b4 042085E5 		str	r2, [r5, #4]
 2016 16b8 04308512 		addne	r3, r5, #4
 2017 16bc 04208B12 		addne	r2, fp, #4
 2018 16c0 0300000A 		beq	.L370
 2019              	.L371:
 2020 16c4 0410B2E5 		ldr	r1, [r2, #4]!
 2021 16c8 0410A3E5 		str	r1, [r3, #4]!
 2022 16cc 000053E1 		cmp	r3, r0
 2023 16d0 FBFFFF1A 		bne	.L371
 2024              	.L370:
 2025 16d4 0500A0E1 		mov	r0, r5
 2026 16d8 FEFFFFEB 		bl	ARMaddrToGPUaddr
 2027 16dc 9C309FE5 		ldr	r3, .L389
 2028 16e0 0F10C0E3 		bic	r1, r0, #15
 2029 16e4 003093E5 		ldr	r3, [r3]
 2030 16e8 081081E3 		orr	r1, r1, #8
 2031 16ec 2E3B83E2 		add	r3, r3, #47104
 2032 16f0 803083E2 		add	r3, r3, #128
 2033              	.L369:
 2034 16f4 382093E5 		ldr	r2, [r3, #56]
 2035 16f8 000052E3 		cmp	r2, #0
 2036 16fc FCFFFFBA 		blt	.L369
 2037 1700 201083E5 		str	r1, [r3, #32]
 2038              	.L372:
 2039 1704 180093E5 		ldr	r0, [r3, #24]
 2040 1708 010110E2 		ands	r0, r0, #1073741824
 2041 170c FCFFFF1A 		bne	.L372
 2042 1710 002093E5 		ldr	r2, [r3]
 2043 1714 0F2002E2 		and	r2, r2, #15
 2044 1718 080052E3 		cmp	r2, #8
 2045 171c F8FFFF1A 		bne	.L372
 2046 1720 043095E5 		ldr	r3, [r5, #4]
 2047 1724 020153E3 		cmp	r3, #-2147483648
 2048 1728 0300000A 		beq	.L388
 2049 172c 10D04BE2 		sub	sp, fp, #16
 2050              		@ sp needed
 2051 1730 7048BDE8 		pop	{r4, r5, r6, fp, lr}
 2052 1734 0CD08DE2 		add	sp, sp, #12
ARM GAS  C:\Users\ldebo\AppData\Local\Temp\ccISOhOE.s 			page 37


 2053 1738 1EFF2FE1 		bx	lr
 2054              	.L388:
 2055 173c 000054E3 		cmp	r4, #0
 2056 1740 0900000A 		beq	.L376
 2057 1744 000056E3 		cmp	r6, #0
 2058 1748 0700000A 		beq	.L376
 2059 174c 012086E2 		add	r2, r6, #1
 2060 1750 022185E0 		add	r2, r5, r2, lsl #2
 2061 1754 044044E2 		sub	r4, r4, #4
 2062 1758 045085E2 		add	r5, r5, #4
 2063              	.L377:
 2064 175c 0430B5E5 		ldr	r3, [r5, #4]!
 2065 1760 020055E1 		cmp	r5, r2
 2066 1764 0430A4E5 		str	r3, [r4, #4]!
 2067 1768 FBFFFF1A 		bne	.L377
 2068              	.L376:
 2069 176c 0100A0E3 		mov	r0, #1
 2070 1770 10D04BE2 		sub	sp, fp, #16
 2071              		@ sp needed
 2072 1774 7048BDE8 		pop	{r4, r5, r6, fp, lr}
 2073 1778 0CD08DE2 		add	sp, sp, #12
 2074 177c 1EFF2FE1 		bx	lr
 2075              	.L390:
 2076              		.align	2
 2077              	.L389:
 2078 1780 00000000 		.word	RPi_IO_Base_Addr
 2079              		.size	mailbox_tag_message, .-mailbox_tag_message
 2080              		.global	__aeabi_uldivmod
 2081              		.align	2
 2082              		.global	TimerIrqSetup
 2083              		.syntax unified
 2084              		.arm
 2085              		.fpu vfp
 2086              		.type	TimerIrqSetup, %function
 2087              	TimerIrqSetup:
 2088              		@ args = 0, pretend = 0, frame = 24
 2089              		@ frame_needed = 0, uses_anonymous_args = 0
 2090 1784 0020A0E3 		mov	r2, #0
 2091 1788 70402DE9 		push	{r4, r5, r6, lr}
 2092 178c 0830A0E3 		mov	r3, #8
 2093 1790 04E0A0E3 		mov	lr, #4
 2094 1794 0050A0E1 		mov	r5, r0
 2095 1798 C8409FE5 		ldr	r4, .L393
 2096 179c 28D04DE2 		sub	sp, sp, #40
 2097 17a0 00C094E5 		ldr	ip, [r4]
 2098 17a4 14208DE5 		str	r2, [sp, #20]
 2099 17a8 18208DE5 		str	r2, [sp, #24]
 2100 17ac 1C208DE5 		str	r2, [sp, #28]
 2101 17b0 20208DE5 		str	r2, [sp, #32]
 2102 17b4 24208DE5 		str	r2, [sp, #36]
 2103 17b8 2DCB8CE2 		add	ip, ip, #46080
 2104 17bc 08009CE5 		ldr	r0, [ip, #8]
 2105 17c0 0160A0E1 		mov	r6, r1
 2106 17c4 8010C0E3 		bic	r1, r0, #128
 2107 17c8 08108CE5 		str	r1, [ip, #8]
 2108 17cc 14008DE2 		add	r0, sp, #20
 2109 17d0 08408DE8 		stm	sp, {r3, lr}
ARM GAS  C:\Users\ldebo\AppData\Local\Temp\ccISOhOE.s 			page 38


 2110 17d4 08208DE5 		str	r2, [sp, #8]
 2111 17d8 0510A0E3 		mov	r1, #5
 2112 17dc 88209FE5 		ldr	r2, .L393+4
 2113 17e0 06FEFFEB 		bl	mailbox_tag_message.constprop.5
 2114 17e4 24C09DE5 		ldr	ip, [sp, #36]
 2115 17e8 80109FE5 		ldr	r1, .L393+8
 2116 17ec 80209FE5 		ldr	r2, .L393+12
 2117 17f0 911C8CE0 		umull	r1, ip, r1, ip
 2118 17f4 2CC2A0E1 		lsr	ip, ip, #4
 2119 17f8 950C81E0 		umull	r0, r1, r5, ip
 2120 17fc 0030A0E3 		mov	r3, #0
 2121 1800 24C08DE5 		str	ip, [sp, #36]
 2122 1804 FEFFFFEB 		bl	__aeabi_uldivmod
 2123 1808 0050A0E1 		mov	r5, r0
 2124 180c 0600A0E1 		mov	r0, r6
 2125 1810 FEFFFFEB 		bl	setTimerIrqAddress
 2126 1814 003094E5 		ldr	r3, [r4]
 2127 1818 B21C83E2 		add	r1, r3, #45568
 2128 181c 182091E5 		ldr	r2, [r1, #24]
 2129 1820 2D3B83E2 		add	r3, r3, #46080
 2130 1824 012082E3 		orr	r2, r2, #1
 2131 1828 182081E5 		str	r2, [r1, #24]
 2132 182c 005083E5 		str	r5, [r3]
 2133 1830 082093E5 		ldr	r2, [r3, #8]
 2134 1834 022082E3 		orr	r2, r2, #2
 2135 1838 082083E5 		str	r2, [r3, #8]
 2136 183c 0820D3E5 		ldrb	r2, [r3, #8]	@ zero_extendqisi2
 2137 1840 0C20C2E3 		bic	r2, r2, #12
 2138 1844 0820C3E5 		strb	r2, [r3, #8]
 2139 1848 082093E5 		ldr	r2, [r3, #8]
 2140 184c 202082E3 		orr	r2, r2, #32
 2141 1850 082083E5 		str	r2, [r3, #8]
 2142 1854 082093E5 		ldr	r2, [r3, #8]
 2143 1858 802082E3 		orr	r2, r2, #128
 2144 185c 082083E5 		str	r2, [r3, #8]
 2145 1860 28D08DE2 		add	sp, sp, #40
 2146              		@ sp needed
 2147 1864 7080BDE8 		pop	{r4, r5, r6, pc}
 2148              	.L394:
 2149              		.align	2
 2150              	.L393:
 2151 1868 00000000 		.word	RPi_IO_Base_Addr
 2152 186c 02000300 		.word	196610
 2153 1870 D34D6210 		.word	274877907
 2154 1874 40420F00 		.word	1000000
 2155              		.size	TimerIrqSetup, .-TimerIrqSetup
 2156              		.align	2
 2157              		.global	set_Activity_LED
 2158              		.syntax unified
 2159              		.arm
 2160              		.fpu vfp
 2161              		.type	set_Activity_LED, %function
 2162              	set_Activity_LED:
 2163              		@ args = 0, pretend = 0, frame = 16
 2164              		@ frame_needed = 0, uses_anonymous_args = 0
 2165 1878 48319FE5 		ldr	r3, .L418
 2166 187c 48219FE5 		ldr	r2, .L418+4
ARM GAS  C:\Users\ldebo\AppData\Local\Temp\ccISOhOE.s 			page 39


 2167 1880 B030D3E1 		ldrh	r3, [r3]
 2168 1884 2332A0E1 		lsr	r3, r3, #4
 2169 1888 020053E1 		cmp	r3, r2
 2170 188c 2E00000A 		beq	.L397
 2171 1890 10402DE9 		push	{r4, lr}
 2172 1894 FC2082E2 		add	r2, r2, #252
 2173 1898 020053E1 		cmp	r3, r2
 2174 189c 20D04DE2 		sub	sp, sp, #32
 2175 18a0 0040A0E1 		mov	r4, r0
 2176 18a4 1E00000A 		beq	.L398
 2177 18a8 20219FE5 		ldr	r2, .L418+8
 2178 18ac 020053E1 		cmp	r3, r2
 2179 18b0 0000A013 		movne	r0, #0
 2180 18b4 0100000A 		beq	.L416
 2181              	.L396:
 2182 18b8 20D08DE2 		add	sp, sp, #32
 2183              		@ sp needed
 2184 18bc 1080BDE8 		pop	{r4, pc}
 2185              	.L416:
 2186 18c0 0CC19FE5 		ldr	ip, .L418+12
 2187 18c4 0020DCE5 		ldrb	r2, [ip]	@ zero_extendqisi2
 2188 18c8 000052E3 		cmp	r2, #0
 2189 18cc 2900000A 		beq	.L417
 2190              	.L415:
 2191 18d0 00319FE5 		ldr	r3, .L418+16
 2192 18d4 003093E5 		ldr	r3, [r3]
 2193 18d8 360053E3 		cmp	r3, #54
 2194 18dc 0100A083 		movhi	r0, #1
 2195 18e0 F4FFFF8A 		bhi	.L396
 2196              	.L410:
 2197 18e4 0100A0E3 		mov	r0, #1
 2198 18e8 EC109FE5 		ldr	r1, .L418+20
 2199 18ec 000054E3 		cmp	r4, #0
 2200 18f0 001091E5 		ldr	r1, [r1]
 2201 18f4 1F2003E2 		and	r2, r3, #31
 2202 18f8 A332A0E1 		lsr	r3, r3, #5
 2203 18fc 06308312 		addne	r3, r3, #6
 2204 1900 02168112 		addne	r1, r1, #2097152
 2205 1904 1022A0E1 		lsl	r2, r0, r2
 2206 1908 03318110 		addne	r3, r1, r3, lsl #2
 2207 190c 0A308302 		addeq	r3, r3, #10
 2208 1910 02168102 		addeq	r1, r1, #2097152
 2209 1914 0400A011 		movne	r0, r4
 2210 1918 04208315 		strne	r2, [r3, #4]
 2211 191c 03218107 		streq	r2, [r1, r3, lsl #2]
 2212 1920 E4FFFFEA 		b	.L396
 2213              	.L398:
 2214 1924 0830A0E3 		mov	r3, #8
 2215 1928 8220A0E3 		mov	r2, #130
 2216 192c 00308DE5 		str	r3, [sp]
 2217 1930 14008DE9 		stmib	sp, {r2, r4}
 2218 1934 0510A0E3 		mov	r1, #5
 2219 1938 A0209FE5 		ldr	r2, .L418+24
 2220 193c 0000A0E3 		mov	r0, #0
 2221 1940 3CFDFFEB 		bl	mailbox_tag_message.constprop.4
 2222 1944 20D08DE2 		add	sp, sp, #32
 2223              		@ sp needed
ARM GAS  C:\Users\ldebo\AppData\Local\Temp\ccISOhOE.s 			page 40


 2224 1948 1080BDE8 		pop	{r4, pc}
 2225              	.L397:
 2226 194c 0229A0E3 		mov	r2, #32768
 2227 1950 84309FE5 		ldr	r3, .L418+20
 2228 1954 000050E3 		cmp	r0, #0
 2229 1958 00309315 		ldrne	r3, [r3]
 2230 195c 00309305 		ldreq	r3, [r3]
 2231 1960 02368312 		addne	r3, r3, #2097152
 2232 1964 02368302 		addeq	r3, r3, #2097152
 2233 1968 20208315 		strne	r2, [r3, #32]
 2234 196c 0100A003 		moveq	r0, #1
 2235 1970 2C208305 		streq	r2, [r3, #44]
 2236 1974 1EFF2FE1 		bx	lr
 2237              	.L417:
 2238 1978 0430A0E3 		mov	r3, #4
 2239 197c 01E0A0E3 		mov	lr, #1
 2240 1980 04208DE5 		str	r2, [sp, #4]
 2241 1984 00208DE5 		str	r2, [sp]
 2242 1988 0310A0E1 		mov	r1, r3
 2243 198c 50209FE5 		ldr	r2, .L418+28
 2244 1990 10008DE2 		add	r0, sp, #16
 2245 1994 00E0CCE5 		strb	lr, [ip]
 2246 1998 EBFCFFEB 		bl	mailbox_tag_message.constprop.6
 2247 199c 000050E3 		cmp	r0, #0
 2248 19a0 CAFFFF0A 		beq	.L415
 2249 19a4 1C309DE5 		ldr	r3, [sp, #28]
 2250 19a8 28109FE5 		ldr	r1, .L418+16
 2251 19ac 023043E2 		sub	r3, r3, #2
 2252 19b0 0D0053E3 		cmp	r3, #13
 2253 19b4 1020A093 		movls	r2, #16
 2254 19b8 2F20A083 		movhi	r2, #47
 2255 19bc 0230A0E1 		mov	r3, r2
 2256 19c0 002081E5 		str	r2, [r1]
 2257 19c4 C6FFFFEA 		b	.L410
 2258              	.L419:
 2259              		.align	2
 2260              	.L418:
 2261 19c8 00000000 		.word	RPi_CpuId
 2262 19cc 070C0000 		.word	3079
 2263 19d0 760B0000 		.word	2934
 2264 19d4 00000000 		.word	.LANCHOR1
 2265 19d8 00000000 		.word	.LANCHOR2
 2266 19dc 00000000 		.word	RPi_IO_Base_Addr
 2267 19e0 41800300 		.word	229441
 2268 19e4 02000100 		.word	65538
 2269              		.size	set_Activity_LED, .-set_Activity_LED
 2270              		.align	2
 2271              		.global	ARM_setmaxspeed
 2272              		.syntax unified
 2273              		.arm
 2274              		.fpu vfp
 2275              		.type	ARM_setmaxspeed, %function
 2276              	ARM_setmaxspeed:
 2277              		@ args = 0, pretend = 0, frame = 24
 2278              		@ frame_needed = 0, uses_anonymous_args = 0
 2279 19e8 70402DE9 		push	{r4, r5, r6, lr}
 2280 19ec 00C0A0E3 		mov	ip, #0
ARM GAS  C:\Users\ldebo\AppData\Local\Temp\ccISOhOE.s 			page 41


 2281 19f0 0840A0E3 		mov	r4, #8
 2282 19f4 0350A0E3 		mov	r5, #3
 2283 19f8 28D04DE2 		sub	sp, sp, #40
 2284 19fc 0060A0E1 		mov	r6, r0
 2285 1a00 08C08DE5 		str	ip, [sp, #8]
 2286 1a04 14008DE2 		add	r0, sp, #20
 2287 1a08 30008DE8 		stm	sp, {r4, r5}
 2288 1a0c 0430A0E1 		mov	r3, r4
 2289 1a10 78209FE5 		ldr	r2, .L431
 2290 1a14 0510A0E3 		mov	r1, #5
 2291 1a18 14C08DE5 		str	ip, [sp, #20]
 2292 1a1c 18C08DE5 		str	ip, [sp, #24]
 2293 1a20 1CC08DE5 		str	ip, [sp, #28]
 2294 1a24 20C08DE5 		str	ip, [sp, #32]
 2295 1a28 24C08DE5 		str	ip, [sp, #36]
 2296 1a2c 73FDFFEB 		bl	mailbox_tag_message.constprop.5
 2297 1a30 000050E3 		cmp	r0, #0
 2298 1a34 0300001A 		bne	.L421
 2299              	.L423:
 2300 1a38 0040A0E3 		mov	r4, #0
 2301              	.L422:
 2302 1a3c 0400A0E1 		mov	r0, r4
 2303 1a40 28D08DE2 		add	sp, sp, #40
 2304              		@ sp needed
 2305 1a44 7080BDE8 		pop	{r4, r5, r6, pc}
 2306              	.L421:
 2307 1a48 24209DE5 		ldr	r2, [sp, #36]
 2308 1a4c 30008DE8 		stm	sp, {r4, r5}
 2309 1a50 0430A0E1 		mov	r3, r4
 2310 1a54 08208DE5 		str	r2, [sp, #8]
 2311 1a58 14008DE2 		add	r0, sp, #20
 2312 1a5c 30209FE5 		ldr	r2, .L431+4
 2313 1a60 0510A0E3 		mov	r1, #5
 2314 1a64 65FDFFEB 		bl	mailbox_tag_message.constprop.5
 2315 1a68 004050E2 		subs	r4, r0, #0
 2316 1a6c F1FFFF0A 		beq	.L423
 2317 1a70 000056E3 		cmp	r6, #0
 2318 1a74 F0FFFF0A 		beq	.L422
 2319 1a78 24109DE5 		ldr	r1, [sp, #36]
 2320 1a7c 14009FE5 		ldr	r0, .L431+8
 2321 1a80 36FF2FE1 		blx	r6
 2322 1a84 0400A0E1 		mov	r0, r4
 2323 1a88 28D08DE2 		add	sp, sp, #40
 2324              		@ sp needed
 2325 1a8c 7080BDE8 		pop	{r4, r5, r6, pc}
 2326              	.L432:
 2327              		.align	2
 2328              	.L431:
 2329 1a90 04000300 		.word	196612
 2330 1a94 02800300 		.word	229378
 2331 1a98 38000000 		.word	.LC4
 2332              		.size	ARM_setmaxspeed, .-ARM_setmaxspeed
 2333              		.align	2
 2334              		.global	displaySmartStart
 2335              		.syntax unified
 2336              		.arm
 2337              		.fpu vfp
ARM GAS  C:\Users\ldebo\AppData\Local\Temp\ccISOhOE.s 			page 42


 2338              		.type	displaySmartStart, %function
 2339              	displaySmartStart:
 2340              		@ args = 0, pretend = 0, frame = 0
 2341              		@ frame_needed = 0, uses_anonymous_args = 0
 2342 1a9c 10402DE9 		push	{r4, lr}
 2343 1aa0 004050E2 		subs	r4, r0, #0
 2344 1aa4 1080BD08 		popeq	{r4, pc}
 2345 1aa8 80309FE5 		ldr	r3, .L441
 2346 1aac 80009FE5 		ldr	r0, .L441+4
 2347 1ab0 0010D3E5 		ldrb	r1, [r3]	@ zero_extendqisi2
 2348 1ab4 2122A0E1 		lsr	r2, r1, #4
 2349 1ab8 012002E2 		and	r2, r2, #1
 2350 1abc 012082E2 		add	r2, r2, #1
 2351 1ac0 A132A0E1 		lsr	r3, r1, #5
 2352 1ac4 8222A0E1 		lsl	r2, r2, #5
 2353 1ac8 0F1001E2 		and	r1, r1, #15
 2354 1acc 34FF2FE1 		blx	r4
 2355 1ad0 60209FE5 		ldr	r2, .L441+8
 2356 1ad4 60309FE5 		ldr	r3, .L441+12
 2357 1ad8 B020D2E1 		ldrh	r2, [r2]
 2358 1adc 2222A0E1 		lsr	r2, r2, #4
 2359 1ae0 030052E1 		cmp	r2, r3
 2360 1ae4 0F00000A 		beq	.L436
 2361 1ae8 FC3083E2 		add	r3, r3, #252
 2362 1aec 030052E1 		cmp	r2, r3
 2363 1af0 0A00000A 		beq	.L437
 2364 1af4 44009FE5 		ldr	r0, .L441+16
 2365 1af8 44309FE5 		ldr	r3, .L441+20
 2366 1afc 000052E1 		cmp	r2, r0
 2367 1b00 40109FE5 		ldr	r1, .L441+24
 2368 1b04 0310A011 		movne	r1, r3
 2369              	.L438:
 2370 1b08 3C309FE5 		ldr	r3, .L441+28
 2371 1b0c 04C0A0E1 		mov	ip, r4
 2372 1b10 1040BDE8 		pop	{r4, lr}
 2373 1b14 003093E5 		ldr	r3, [r3]
 2374 1b18 30009FE5 		ldr	r0, .L441+32
 2375 1b1c 1CFF2FE1 		bx	ip
 2376              	.L437:
 2377 1b20 2C109FE5 		ldr	r1, .L441+36
 2378 1b24 F7FFFFEA 		b	.L438
 2379              	.L436:
 2380 1b28 28109FE5 		ldr	r1, .L441+40
 2381 1b2c F5FFFFEA 		b	.L438
 2382              	.L442:
 2383              		.align	2
 2384              	.L441:
 2385 1b30 00000000 		.word	RPi_CompileMode
 2386 1b34 54000000 		.word	.LC5
 2387 1b38 00000000 		.word	RPi_CpuId
 2388 1b3c 070C0000 		.word	3079
 2389 1b40 760B0000 		.word	2934
 2390 1b44 28000000 		.word	.LC3
 2391 1b48 00000000 		.word	.LC0
 2392 1b4c 00000000 		.word	RPi_CoresReady
 2393 1b50 9C000000 		.word	.LC6
 2394 1b54 1C000000 		.word	.LC2
ARM GAS  C:\Users\ldebo\AppData\Local\Temp\ccISOhOE.s 			page 43


 2395 1b58 10000000 		.word	.LC1
 2396              		.size	displaySmartStart, .-displaySmartStart
 2397              		.align	2
 2398              		.global	Embedded_Console_WriteChar
 2399              		.syntax unified
 2400              		.arm
 2401              		.fpu vfp
 2402              		.type	Embedded_Console_WriteChar, %function
 2403              	Embedded_Console_WriteChar:
 2404              		@ args = 0, pretend = 0, frame = 0
 2405              		@ frame_needed = 0, uses_anonymous_args = 0
 2406 1b5c 0A0050E3 		cmp	r0, #10
 2407 1b60 2200000A 		beq	.L445
 2408 1b64 0D0050E3 		cmp	r0, #13
 2409 1b68 1C00000A 		beq	.L446
 2410 1b6c 090050E3 		cmp	r0, #9
 2411 1b70 0F00000A 		beq	.L454
 2412 1b74 10402DE9 		push	{r4, lr}
 2413 1b78 8C409FE5 		ldr	r4, .L455
 2414 1b7c 0010A0E1 		mov	r1, r0
 2415 1b80 1C2094E5 		ldr	r2, [r4, #28]
 2416 1b84 203094E5 		ldr	r3, [r4, #32]
 2417 1b88 8221A0E1 		lsl	r2, r2, #3
 2418 1b8c 0332A0E1 		lsl	r3, r3, #4
 2419 1b90 183084E5 		str	r3, [r4, #24]
 2420 1b94 142084E5 		str	r2, [r4, #20]
 2421 1b98 403094E5 		ldr	r3, [r4, #64]
 2422 1b9c 040084E2 		add	r0, r4, #4
 2423 1ba0 33FF2FE1 		blx	r3
 2424 1ba4 1C3094E5 		ldr	r3, [r4, #28]
 2425 1ba8 013083E2 		add	r3, r3, #1
 2426 1bac 1C3084E5 		str	r3, [r4, #28]
 2427 1bb0 1080BDE8 		pop	{r4, pc}
 2428              	.L454:
 2429 1bb4 50009FE5 		ldr	r0, .L455
 2430 1bb8 1C3090E5 		ldr	r3, [r0, #28]
 2431 1bbc 053083E2 		add	r3, r3, #5
 2432 1bc0 C32FA0E1 		asr	r2, r3, #31
 2433 1bc4 221FA0E1 		lsr	r1, r2, #30
 2434 1bc8 012083E0 		add	r2, r3, r1
 2435 1bcc 032002E2 		and	r2, r2, #3
 2436 1bd0 012042E0 		sub	r2, r2, r1
 2437 1bd4 023043E0 		sub	r3, r3, r2
 2438 1bd8 1C3080E5 		str	r3, [r0, #28]
 2439 1bdc 1EFF2FE1 		bx	lr
 2440              	.L446:
 2441 1be0 0020A0E3 		mov	r2, #0
 2442 1be4 20309FE5 		ldr	r3, .L455
 2443 1be8 1C2083E5 		str	r2, [r3, #28]
 2444 1bec 1EFF2FE1 		bx	lr
 2445              	.L445:
 2446 1bf0 0010A0E3 		mov	r1, #0
 2447 1bf4 10309FE5 		ldr	r3, .L455
 2448 1bf8 202093E5 		ldr	r2, [r3, #32]
 2449 1bfc 1C1083E5 		str	r1, [r3, #28]
 2450 1c00 012082E2 		add	r2, r2, #1
 2451 1c04 202083E5 		str	r2, [r3, #32]
ARM GAS  C:\Users\ldebo\AppData\Local\Temp\ccISOhOE.s 			page 44


 2452 1c08 1EFF2FE1 		bx	lr
 2453              	.L456:
 2454              		.align	2
 2455              	.L455:
 2456 1c0c 00000000 		.word	.LANCHOR1
 2457              		.size	Embedded_Console_WriteChar, .-Embedded_Console_WriteChar
 2458              		.align	2
 2459              		.global	WriteText
 2460              		.syntax unified
 2461              		.arm
 2462              		.fpu vfp
 2463              		.type	WriteText, %function
 2464              	WriteText:
 2465              		@ args = 0, pretend = 0, frame = 0
 2466              		@ frame_needed = 0, uses_anonymous_args = 0
 2467 1c10 F0412DE9 		push	{r4, r5, r6, r7, r8, lr}
 2468 1c14 004052E2 		subs	r4, r2, #0
 2469 1c18 F081BD08 		popeq	{r4, r5, r6, r7, r8, pc}
 2470 1c1c 0030A0E1 		mov	r3, r0
 2471 1c20 C0509FE5 		ldr	r5, .L475
 2472 1c24 0400A0E1 		mov	r0, r4
 2473 1c28 1C3085E5 		str	r3, [r5, #28]
 2474 1c2c 201085E5 		str	r1, [r5, #32]
 2475 1c30 FEFFFFEB 		bl	strlen
 2476 1c34 000050E3 		cmp	r0, #0
 2477 1c38 F081BD08 		popeq	{r4, r5, r6, r7, r8, pc}
 2478 1c3c 0080A0E3 		mov	r8, #0
 2479 1c40 007084E0 		add	r7, r4, r0
 2480 1c44 046085E2 		add	r6, r5, #4
 2481 1c48 120000EA 		b	.L465
 2482              	.L474:
 2483 1c4c 0D0051E3 		cmp	r1, #13
 2484 1c50 1C808505 		streq	r8, [r5, #28]
 2485 1c54 0D00000A 		beq	.L464
 2486 1c58 090051E3 		cmp	r1, #9
 2487 1c5c 1700000A 		beq	.L472
 2488 1c60 1C2095E5 		ldr	r2, [r5, #28]
 2489 1c64 203095E5 		ldr	r3, [r5, #32]
 2490 1c68 8221A0E1 		lsl	r2, r2, #3
 2491 1c6c 0332A0E1 		lsl	r3, r3, #4
 2492 1c70 183085E5 		str	r3, [r5, #24]
 2493 1c74 142085E5 		str	r2, [r5, #20]
 2494 1c78 403095E5 		ldr	r3, [r5, #64]
 2495 1c7c 0600A0E1 		mov	r0, r6
 2496 1c80 33FF2FE1 		blx	r3
 2497 1c84 1C3095E5 		ldr	r3, [r5, #28]
 2498 1c88 013083E2 		add	r3, r3, #1
 2499 1c8c 1C3085E5 		str	r3, [r5, #28]
 2500              	.L464:
 2501 1c90 040057E1 		cmp	r7, r4
 2502 1c94 0800000A 		beq	.L473
 2503              	.L465:
 2504 1c98 0110D4E4 		ldrb	r1, [r4], #1	@ zero_extendqisi2
 2505 1c9c 0A0051E3 		cmp	r1, #10
 2506 1ca0 E9FFFF1A 		bne	.L474
 2507 1ca4 203095E5 		ldr	r3, [r5, #32]
 2508 1ca8 040057E1 		cmp	r7, r4
ARM GAS  C:\Users\ldebo\AppData\Local\Temp\ccISOhOE.s 			page 45


 2509 1cac 013083E2 		add	r3, r3, #1
 2510 1cb0 1C8085E5 		str	r8, [r5, #28]
 2511 1cb4 203085E5 		str	r3, [r5, #32]
 2512 1cb8 F6FFFF1A 		bne	.L465
 2513              	.L473:
 2514 1cbc F081BDE8 		pop	{r4, r5, r6, r7, r8, pc}
 2515              	.L472:
 2516 1cc0 1C3095E5 		ldr	r3, [r5, #28]
 2517 1cc4 053083E2 		add	r3, r3, #5
 2518 1cc8 C32FA0E1 		asr	r2, r3, #31
 2519 1ccc 221FA0E1 		lsr	r1, r2, #30
 2520 1cd0 012083E0 		add	r2, r3, r1
 2521 1cd4 032002E2 		and	r2, r2, #3
 2522 1cd8 012042E0 		sub	r2, r2, r1
 2523 1cdc 023043E0 		sub	r3, r3, r2
 2524 1ce0 1C3085E5 		str	r3, [r5, #28]
 2525 1ce4 E9FFFFEA 		b	.L464
 2526              	.L476:
 2527              		.align	2
 2528              	.L475:
 2529 1ce8 00000000 		.word	.LANCHOR1
 2530              		.size	WriteText, .-WriteText
 2531              		.align	2
 2532              		.global	SetDCPenColor
 2533              		.syntax unified
 2534              		.arm
 2535              		.fpu vfp
 2536              		.type	SetDCPenColor, %function
 2537              	SetDCPenColor:
 2538              		@ args = 0, pretend = 0, frame = 0
 2539              		@ frame_needed = 0, uses_anonymous_args = 0
 2540              		@ link register save eliminated.
 2541 1cec 003050E2 		subs	r3, r0, #0
 2542 1cf0 20009315 		ldrne	r0, [r3, #32]
 2543 1cf4 20108315 		strne	r1, [r3, #32]
 2544 1cf8 0300A001 		moveq	r0, r3
 2545 1cfc 1EFF2FE1 		bx	lr
 2546              		.size	SetDCPenColor, .-SetDCPenColor
 2547              		.align	2
 2548              		.global	SetDCBrushColor
 2549              		.syntax unified
 2550              		.arm
 2551              		.fpu vfp
 2552              		.type	SetDCBrushColor, %function
 2553              	SetDCBrushColor:
 2554              		@ args = 0, pretend = 0, frame = 0
 2555              		@ frame_needed = 0, uses_anonymous_args = 0
 2556              		@ link register save eliminated.
 2557 1d00 003050E2 		subs	r3, r0, #0
 2558 1d04 28009315 		ldrne	r0, [r3, #40]
 2559 1d08 28108315 		strne	r1, [r3, #40]
 2560 1d0c 0300A001 		moveq	r0, r3
 2561 1d10 1EFF2FE1 		bx	lr
 2562              		.size	SetDCBrushColor, .-SetDCBrushColor
 2563              		.align	2
 2564              		.global	MoveToEx
 2565              		.syntax unified
ARM GAS  C:\Users\ldebo\AppData\Local\Temp\ccISOhOE.s 			page 46


 2566              		.arm
 2567              		.fpu vfp
 2568              		.type	MoveToEx, %function
 2569              	MoveToEx:
 2570              		@ args = 0, pretend = 0, frame = 0
 2571              		@ frame_needed = 0, uses_anonymous_args = 0
 2572 1d14 00C050E2 		subs	ip, r0, #0
 2573 1d18 0900000A 		beq	.L486
 2574 1d1c 04E02DE5 		str	lr, [sp, #-4]!
 2575 1d20 01E0A0E1 		mov	lr, r1
 2576 1d24 000053E3 		cmp	r3, #0
 2577 1d28 10108C12 		addne	r1, ip, #16
 2578 1d2c 03009118 		ldmne	r1, {r0, r1}
 2579 1d30 03008318 		stmne	r3, {r0, r1}
 2580 1d34 10E08CE5 		str	lr, [ip, #16]
 2581 1d38 14208CE5 		str	r2, [ip, #20]
 2582 1d3c 0100A0E3 		mov	r0, #1
 2583 1d40 04F09DE4 		ldr	pc, [sp], #4
 2584              	.L486:
 2585 1d44 0C00A0E1 		mov	r0, ip
 2586 1d48 1EFF2FE1 		bx	lr
 2587              		.size	MoveToEx, .-MoveToEx
 2588              		.align	2
 2589              		.global	LineTo
 2590              		.syntax unified
 2591              		.arm
 2592              		.fpu vfp
 2593              		.type	LineTo, %function
 2594              	LineTo:
 2595              		@ args = 0, pretend = 0, frame = 0
 2596              		@ frame_needed = 0, uses_anonymous_args = 0
 2597 1d4c 000050E3 		cmp	r0, #0
 2598 1d50 1EFF2F01 		bxeq	lr
 2599 1d54 10C090E5 		ldr	ip, [r0, #16]
 2600 1d58 10402DE9 		push	{r4, lr}
 2601 1d5c 01005CE1 		cmp	ip, r1
 2602 1d60 01104CC0 		subgt	r1, ip, r1
 2603 1d64 0C1041D0 		suble	r1, r1, ip
 2604 1d68 14C090E5 		ldr	ip, [r0, #20]
 2605 1d6c 0030E0C3 		mvngt	r3, #0
 2606 1d70 0130A0D3 		movle	r3, #1
 2607 1d74 02005CE1 		cmp	ip, r2
 2608 1d78 02C04CC0 		subgt	ip, ip, r2
 2609 1d7c 00E0E0C3 		mvngt	lr, #0
 2610 1d80 01E0A0D3 		movle	lr, #1
 2611 1d84 0CC042D0 		suble	ip, r2, ip
 2612 1d88 000051E3 		cmp	r1, #0
 2613 1d8c 08D04DE2 		sub	sp, sp, #8
 2614 1d90 0E00000A 		beq	.L507
 2615 1d94 00005CE3 		cmp	ip, #0
 2616 1d98 0600000A 		beq	.L508
 2617 1d9c 00E08DE5 		str	lr, [sp]
 2618 1da0 384090E5 		ldr	r4, [r0, #56]
 2619 1da4 0C20A0E1 		mov	r2, ip
 2620 1da8 34FF2FE1 		blx	r4
 2621 1dac 0100A0E3 		mov	r0, #1
 2622 1db0 08D08DE2 		add	sp, sp, #8
ARM GAS  C:\Users\ldebo\AppData\Local\Temp\ccISOhOE.s 			page 47


 2623              		@ sp needed
 2624 1db4 1080BDE8 		pop	{r4, pc}
 2625              	.L508:
 2626 1db8 0320A0E1 		mov	r2, r3
 2627 1dbc 343090E5 		ldr	r3, [r0, #52]
 2628 1dc0 33FF2FE1 		blx	r3
 2629 1dc4 0100A0E3 		mov	r0, #1
 2630 1dc8 08D08DE2 		add	sp, sp, #8
 2631              		@ sp needed
 2632 1dcc 1080BDE8 		pop	{r4, pc}
 2633              	.L507:
 2634 1dd0 303090E5 		ldr	r3, [r0, #48]
 2635 1dd4 0E20A0E1 		mov	r2, lr
 2636 1dd8 0C10A0E1 		mov	r1, ip
 2637 1ddc 33FF2FE1 		blx	r3
 2638 1de0 0100A0E3 		mov	r0, #1
 2639 1de4 08D08DE2 		add	sp, sp, #8
 2640              		@ sp needed
 2641 1de8 1080BDE8 		pop	{r4, pc}
 2642              		.size	LineTo, .-LineTo
 2643              		.align	2
 2644              		.global	TextOut
 2645              		.syntax unified
 2646              		.arm
 2647              		.fpu vfp
 2648              		.type	TextOut, %function
 2649              	TextOut:
 2650              		@ args = 4, pretend = 0, frame = 0
 2651              		@ frame_needed = 0, uses_anonymous_args = 0
 2652 1dec F0472DE9 		push	{r4, r5, r6, r7, r8, r9, r10, lr}
 2653 1df0 20709DE5 		ldr	r7, [sp, #32]
 2654 1df4 000057E3 		cmp	r7, #0
 2655 1df8 00005313 		cmpne	r3, #0
 2656 1dfc 0100A013 		movne	r0, #1
 2657 1e00 0000A003 		moveq	r0, #0
 2658 1e04 F087BD08 		popeq	{r4, r5, r6, r7, r8, r9, r10, pc}
 2659 1e08 000057E3 		cmp	r7, #0
 2660 1e0c 0E0000DA 		ble	.L512
 2661 1e10 0160A0E1 		mov	r6, r1
 2662 1e14 0280A0E1 		mov	r8, r2
 2663 1e18 0340A0E1 		mov	r4, r3
 2664 1e1c 30509FE5 		ldr	r5, .L516
 2665 1e20 077083E0 		add	r7, r3, r7
 2666 1e24 049085E2 		add	r9, r5, #4
 2667              	.L513:
 2668 1e28 146085E5 		str	r6, [r5, #20]
 2669 1e2c 188085E5 		str	r8, [r5, #24]
 2670 1e30 0110D4E4 		ldrb	r1, [r4], #1	@ zero_extendqisi2
 2671 1e34 403095E5 		ldr	r3, [r5, #64]
 2672 1e38 0900A0E1 		mov	r0, r9
 2673 1e3c 33FF2FE1 		blx	r3
 2674 1e40 070054E1 		cmp	r4, r7
 2675 1e44 086086E2 		add	r6, r6, #8
 2676 1e48 F6FFFF1A 		bne	.L513
 2677              	.L512:
 2678 1e4c 0100A0E3 		mov	r0, #1
 2679 1e50 F087BDE8 		pop	{r4, r5, r6, r7, r8, r9, r10, pc}
ARM GAS  C:\Users\ldebo\AppData\Local\Temp\ccISOhOE.s 			page 48


 2680              	.L517:
 2681              		.align	2
 2682              	.L516:
 2683 1e54 00000000 		.word	.LANCHOR1
 2684              		.size	TextOut, .-TextOut
 2685              		.align	2
 2686              		.global	TransparentTextOut
 2687              		.syntax unified
 2688              		.arm
 2689              		.fpu vfp
 2690              		.type	TransparentTextOut, %function
 2691              	TransparentTextOut:
 2692              		@ args = 0, pretend = 0, frame = 0
 2693              		@ frame_needed = 0, uses_anonymous_args = 0
 2694 1e58 F0412DE9 		push	{r4, r5, r6, r7, r8, lr}
 2695 1e5c 004052E2 		subs	r4, r2, #0
 2696 1e60 1200000A 		beq	.L523
 2697 1e64 0030D4E5 		ldrb	r3, [r4]	@ zero_extendqisi2
 2698 1e68 000053E3 		cmp	r3, #0
 2699 1e6c 0D00000A 		beq	.L521
 2700 1e70 0060A0E1 		mov	r6, r0
 2701 1e74 0170A0E1 		mov	r7, r1
 2702 1e78 38509FE5 		ldr	r5, .L528
 2703 1e7c 048085E2 		add	r8, r5, #4
 2704              	.L522:
 2705 1e80 146085E5 		str	r6, [r5, #20]
 2706 1e84 187085E5 		str	r7, [r5, #24]
 2707 1e88 0110D4E4 		ldrb	r1, [r4], #1	@ zero_extendqisi2
 2708 1e8c 443095E5 		ldr	r3, [r5, #68]
 2709 1e90 0800A0E1 		mov	r0, r8
 2710 1e94 33FF2FE1 		blx	r3
 2711 1e98 0030D4E5 		ldrb	r3, [r4]	@ zero_extendqisi2
 2712 1e9c 086086E2 		add	r6, r6, #8
 2713 1ea0 000053E3 		cmp	r3, #0
 2714 1ea4 F5FFFF1A 		bne	.L522
 2715              	.L521:
 2716 1ea8 0100A0E3 		mov	r0, #1
 2717 1eac F081BDE8 		pop	{r4, r5, r6, r7, r8, pc}
 2718              	.L523:
 2719 1eb0 0400A0E1 		mov	r0, r4
 2720 1eb4 F081BDE8 		pop	{r4, r5, r6, r7, r8, pc}
 2721              	.L529:
 2722              		.align	2
 2723              	.L528:
 2724 1eb8 00000000 		.word	.LANCHOR1
 2725              		.size	TransparentTextOut, .-TransparentTextOut
 2726              		.align	2
 2727              		.global	BmpOut
 2728              		.syntax unified
 2729              		.arm
 2730              		.fpu vfp
 2731              		.type	BmpOut, %function
 2732              	BmpOut:
 2733              		@ args = 8, pretend = 0, frame = 0
 2734              		@ frame_needed = 0, uses_anonymous_args = 0
 2735 1ebc 00C050E2 		subs	ip, r0, #0
 2736 1ec0 0F00000A 		beq	.L532
ARM GAS  C:\Users\ldebo\AppData\Local\Temp\ccISOhOE.s 			page 49


 2737 1ec4 30402DE9 		push	{r4, r5, lr}
 2738 1ec8 0140A0E3 		mov	r4, #1
 2739 1ecc 0CD04DE2 		sub	sp, sp, #12
 2740 1ed0 18E09DE5 		ldr	lr, [sp, #24]
 2741 1ed4 10108CE5 		str	r1, [ip, #16]
 2742 1ed8 0E2082E0 		add	r2, r2, lr
 2743 1edc 14208CE5 		str	r2, [ip, #20]
 2744 1ee0 00408DE5 		str	r4, [sp]
 2745 1ee4 0310A0E1 		mov	r1, r3
 2746 1ee8 44509CE5 		ldr	r5, [ip, #68]
 2747 1eec 1C309DE5 		ldr	r3, [sp, #28]
 2748 1ef0 0E20A0E1 		mov	r2, lr
 2749 1ef4 35FF2FE1 		blx	r5
 2750 1ef8 0400A0E1 		mov	r0, r4
 2751 1efc 0CD08DE2 		add	sp, sp, #12
 2752              		@ sp needed
 2753 1f00 3080BDE8 		pop	{r4, r5, pc}
 2754              	.L532:
 2755 1f04 0C00A0E1 		mov	r0, ip
 2756 1f08 1EFF2FE1 		bx	lr
 2757              		.size	BmpOut, .-BmpOut
 2758              		.align	2
 2759              		.global	CvtBmpLine
 2760              		.syntax unified
 2761              		.arm
 2762              		.fpu vfp
 2763              		.type	CvtBmpLine, %function
 2764              	CvtBmpLine:
 2765              		@ args = 8, pretend = 0, frame = 4096
 2766              		@ frame_needed = 0, uses_anonymous_args = 0
 2767 1f0c 70402DE9 		push	{r4, r5, r6, lr}
 2768 1f10 01DA4DE2 		sub	sp, sp, #4096
 2769 1f14 08D04DE2 		sub	sp, sp, #8
 2770 1f18 01CA8DE2 		add	ip, sp, #4096
 2771 1f1c 18C08CE2 		add	ip, ip, #24
 2772 1f20 000050E3 		cmp	r0, #0
 2773 1f24 00E09CE5 		ldr	lr, [ip]
 2774 1f28 1200000A 		beq	.L537
 2775 1f2c 0CC090E5 		ldr	ip, [r0, #12]
 2776 1f30 101080E5 		str	r1, [r0, #16]
 2777 1f34 0E005CE1 		cmp	ip, lr
 2778 1f38 142080E5 		str	r2, [r0, #20]
 2779 1f3c 0500000A 		beq	.L540
 2780 1f40 18005CE3 		cmp	ip, #24
 2781 1f44 0E00000A 		beq	.L541
 2782 1f48 20005CE3 		cmp	ip, #32
 2783 1f4c 3F00000A 		beq	.L542
 2784 1f50 10005CE3 		cmp	ip, #16
 2785 1f54 1E00000A 		beq	.L585
 2786              	.L540:
 2787 1f58 0140A0E3 		mov	r4, #1
 2788 1f5c 00408DE5 		str	r4, [sp]
 2789 1f60 0310A0E1 		mov	r1, r3
 2790 1f64 445090E5 		ldr	r5, [r0, #68]
 2791 1f68 08308DE2 		add	r3, sp, #8
 2792 1f6c 0420A0E1 		mov	r2, r4
 2793 1f70 35FF2FE1 		blx	r5
ARM GAS  C:\Users\ldebo\AppData\Local\Temp\ccISOhOE.s 			page 50


 2794 1f74 0400A0E1 		mov	r0, r4
 2795              	.L537:
 2796 1f78 01DA8DE2 		add	sp, sp, #4096
 2797 1f7c 08D08DE2 		add	sp, sp, #8
 2798              		@ sp needed
 2799 1f80 7080BDE8 		pop	{r4, r5, r6, pc}
 2800              	.L541:
 2801 1f84 10005EE3 		cmp	lr, #16
 2802 1f88 4400000A 		beq	.L549
 2803 1f8c 000053E3 		cmp	r3, #0
 2804 1f90 F0FFFF0A 		beq	.L540
 2805 1f94 012A8DE2 		add	r2, sp, #4096
 2806 1f98 1C2082E2 		add	r2, r2, #28
 2807 1f9c 001092E5 		ldr	r1, [r2]
 2808 1fa0 834083E0 		add	r4, r3, r3, lsl #1
 2809 1fa4 08208DE2 		add	r2, sp, #8
 2810 1fa8 044082E0 		add	r4, r2, r4
 2811              	.L552:
 2812 1fac 041081E2 		add	r1, r1, #4
 2813 1fb0 04C051E5 		ldrb	ip, [r1, #-4]	@ zero_extendqisi2
 2814 1fb4 03E051E5 		ldrb	lr, [r1, #-3]	@ zero_extendqisi2
 2815 1fb8 03C0C2E4 		strb	ip, [r2], #3
 2816 1fbc 02C051E5 		ldrb	ip, [r1, #-2]	@ zero_extendqisi2
 2817 1fc0 040052E1 		cmp	r2, r4
 2818 1fc4 02E042E5 		strb	lr, [r2, #-2]
 2819 1fc8 01C042E5 		strb	ip, [r2, #-1]
 2820 1fcc F6FFFF1A 		bne	.L552
 2821 1fd0 E0FFFFEA 		b	.L540
 2822              	.L585:
 2823 1fd4 18005EE3 		cmp	lr, #24
 2824 1fd8 5E00000A 		beq	.L544
 2825 1fdc 000053E3 		cmp	r3, #0
 2826 1fe0 DCFFFF0A 		beq	.L540
 2827 1fe4 0010A0E3 		mov	r1, #0
 2828 1fe8 012A8DE2 		add	r2, sp, #4096
 2829 1fec 1C2082E2 		add	r2, r2, #28
 2830 1ff0 002092E5 		ldr	r2, [r2]
 2831 1ff4 08C08DE2 		add	ip, sp, #8
 2832              	.L548:
 2833 1ff8 00E0DCE5 		ldrb	lr, [ip]	@ zero_extendqisi2
 2834 1ffc 042082E2 		add	r2, r2, #4
 2835 2000 044052E5 		ldrb	r4, [r2, #-4]	@ zero_extendqisi2
 2836 2004 1FE0CEE3 		bic	lr, lr, #31
 2837 2008 A4E18EE1 		orr	lr, lr, r4, lsr #3
 2838 200c 00E0CCE5 		strb	lr, [ip]
 2839 2010 B0E0DCE1 		ldrh	lr, [ip]
 2840 2014 035052E5 		ldrb	r5, [r2, #-3]	@ zero_extendqisi2
 2841 2018 024052E5 		ldrb	r4, [r2, #-2]	@ zero_extendqisi2
 2842 201c 2551A0E1 		lsr	r5, r5, #2
 2843 2020 7EEECEE3 		bic	lr, lr, #2016
 2844 2024 85E28EE1 		orr	lr, lr, r5, lsl #5
 2845 2028 011081E2 		add	r1, r1, #1
 2846 202c F84004E2 		and	r4, r4, #248
 2847 2030 8E5AA0E1 		lsl	r5, lr, #21
 2848 2034 A54E84E1 		orr	r4, r4, r5, lsr #29
 2849 2038 010053E1 		cmp	r3, r1
 2850 203c B0E0CCE1 		strh	lr, [ip]	@ movhi
ARM GAS  C:\Users\ldebo\AppData\Local\Temp\ccISOhOE.s 			page 51


 2851 2040 0140CCE5 		strb	r4, [ip, #1]
 2852 2044 02C08CE2 		add	ip, ip, #2
 2853 2048 EAFFFF1A 		bne	.L548
 2854 204c C1FFFFEA 		b	.L540
 2855              	.L542:
 2856 2050 10005EE3 		cmp	lr, #16
 2857 2054 2800000A 		beq	.L553
 2858 2058 000053E3 		cmp	r3, #0
 2859 205c BDFFFF0A 		beq	.L540
 2860 2060 012A8DE2 		add	r2, sp, #4096
 2861 2064 1C2082E2 		add	r2, r2, #28
 2862 2068 002092E5 		ldr	r2, [r2]
 2863 206c 83C083E0 		add	ip, r3, r3, lsl #1
 2864 2070 08108DE2 		add	r1, sp, #8
 2865 2074 0CC082E0 		add	ip, r2, ip
 2866              	.L556:
 2867 2078 032082E2 		add	r2, r2, #3
 2868 207c 035052E5 		ldrb	r5, [r2, #-3]	@ zero_extendqisi2
 2869 2080 024052E5 		ldrb	r4, [r2, #-2]	@ zero_extendqisi2
 2870 2084 01E052E5 		ldrb	lr, [r2, #-1]	@ zero_extendqisi2
 2871 2088 0450C1E4 		strb	r5, [r1], #4
 2872 208c 0C0052E1 		cmp	r2, ip
 2873 2090 034041E5 		strb	r4, [r1, #-3]
 2874 2094 02E041E5 		strb	lr, [r1, #-2]
 2875 2098 F6FFFF1A 		bne	.L556
 2876 209c ADFFFFEA 		b	.L540
 2877              	.L549:
 2878 20a0 000053E3 		cmp	r3, #0
 2879 20a4 ABFFFF0A 		beq	.L540
 2880 20a8 012A8DE2 		add	r2, sp, #4096
 2881 20ac 1C2082E2 		add	r2, r2, #28
 2882 20b0 08108DE2 		add	r1, sp, #8
 2883 20b4 836083E0 		add	r6, r3, r3, lsl #1
 2884 20b8 00E092E5 		ldr	lr, [r2]
 2885 20bc 066081E0 		add	r6, r1, r6
 2886              	.L551:
 2887 20c0 01C0DEE5 		ldrb	ip, [lr, #1]	@ zero_extendqisi2
 2888 20c4 0040DEE5 		ldrb	r4, [lr]	@ zero_extendqisi2
 2889 20c8 07200CE2 		and	r2, ip, #7
 2890 20cc 8221A0E1 		lsl	r2, r2, #3
 2891 20d0 8451A0E1 		lsl	r5, r4, #3
 2892 20d4 0350C1E4 		strb	r5, [r1], #3
 2893 20d8 A42282E1 		orr	r2, r2, r4, lsr #5
 2894 20dc F8C00CE2 		and	ip, ip, #248
 2895 20e0 0221A0E1 		lsl	r2, r2, #2
 2896 20e4 060051E1 		cmp	r1, r6
 2897 20e8 01C041E5 		strb	ip, [r1, #-1]
 2898 20ec 022041E5 		strb	r2, [r1, #-2]
 2899 20f0 02E08EE2 		add	lr, lr, #2
 2900 20f4 F1FFFF1A 		bne	.L551
 2901 20f8 96FFFFEA 		b	.L540
 2902              	.L553:
 2903 20fc 000053E3 		cmp	r3, #0
 2904 2100 94FFFF0A 		beq	.L540
 2905 2104 0050A0E3 		mov	r5, #0
 2906 2108 012A8DE2 		add	r2, sp, #4096
 2907 210c 1C2082E2 		add	r2, r2, #28
ARM GAS  C:\Users\ldebo\AppData\Local\Temp\ccISOhOE.s 			page 52


 2908 2110 004092E5 		ldr	r4, [r2]
 2909 2114 08E08DE2 		add	lr, sp, #8
 2910              	.L555:
 2911 2118 0110D4E5 		ldrb	r1, [r4, #1]	@ zero_extendqisi2
 2912 211c 00C0D4E5 		ldrb	ip, [r4]	@ zero_extendqisi2
 2913 2120 072001E2 		and	r2, r1, #7
 2914 2124 8221A0E1 		lsl	r2, r2, #3
 2915 2128 AC2282E1 		orr	r2, r2, ip, lsr #5
 2916 212c 015085E2 		add	r5, r5, #1
 2917 2130 8CC1A0E1 		lsl	ip, ip, #3
 2918 2134 04C0CEE4 		strb	ip, [lr], #4
 2919 2138 F81001E2 		and	r1, r1, #248
 2920 213c 0221A0E1 		lsl	r2, r2, #2
 2921 2140 050053E1 		cmp	r3, r5
 2922 2144 02104EE5 		strb	r1, [lr, #-2]
 2923 2148 03204EE5 		strb	r2, [lr, #-3]
 2924 214c 024084E2 		add	r4, r4, #2
 2925 2150 F0FFFF1A 		bne	.L555
 2926 2154 7FFFFFEA 		b	.L540
 2927              	.L544:
 2928 2158 000053E3 		cmp	r3, #0
 2929 215c 7DFFFF0A 		beq	.L540
 2930 2160 012A8DE2 		add	r2, sp, #4096
 2931 2164 1C2082E2 		add	r2, r2, #28
 2932 2168 00E092E5 		ldr	lr, [r2]
 2933 216c 831083E0 		add	r1, r3, r3, lsl #1
 2934 2170 08C08DE2 		add	ip, sp, #8
 2935 2174 01108EE0 		add	r1, lr, r1
 2936              	.L547:
 2937 2178 03E08EE2 		add	lr, lr, #3
 2938 217c 0020DCE5 		ldrb	r2, [ip]	@ zero_extendqisi2
 2939 2180 03405EE5 		ldrb	r4, [lr, #-3]	@ zero_extendqisi2
 2940 2184 1F20C2E3 		bic	r2, r2, #31
 2941 2188 A42182E1 		orr	r2, r2, r4, lsr #3
 2942 218c 0020CCE5 		strb	r2, [ip]
 2943 2190 B020DCE1 		ldrh	r2, [ip]
 2944 2194 02505EE5 		ldrb	r5, [lr, #-2]	@ zero_extendqisi2
 2945 2198 01405EE5 		ldrb	r4, [lr, #-1]	@ zero_extendqisi2
 2946 219c 2551A0E1 		lsr	r5, r5, #2
 2947 21a0 7E2EC2E3 		bic	r2, r2, #2016
 2948 21a4 852282E1 		orr	r2, r2, r5, lsl #5
 2949 21a8 F84004E2 		and	r4, r4, #248
 2950 21ac 825AA0E1 		lsl	r5, r2, #21
 2951 21b0 A54E84E1 		orr	r4, r4, r5, lsr #29
 2952 21b4 01005EE1 		cmp	lr, r1
 2953 21b8 B020CCE1 		strh	r2, [ip]	@ movhi
 2954 21bc 0140CCE5 		strb	r4, [ip, #1]
 2955 21c0 02C08CE2 		add	ip, ip, #2
 2956 21c4 EBFFFF1A 		bne	.L547
 2957 21c8 62FFFFEA 		b	.L540
 2958              		.size	CvtBmpLine, .-CvtBmpLine
 2959              		.align	2
 2960              		.global	Rectangle
 2961              		.syntax unified
 2962              		.arm
 2963              		.fpu vfp
 2964              		.type	Rectangle, %function
ARM GAS  C:\Users\ldebo\AppData\Local\Temp\ccISOhOE.s 			page 53


 2965              	Rectangle:
 2966              		@ args = 4, pretend = 0, frame = 0
 2967              		@ frame_needed = 0, uses_anonymous_args = 0
 2968 21cc 00C050E2 		subs	ip, r0, #0
 2969 21d0 0800000A 		beq	.L588
 2970 21d4 10402DE9 		push	{r4, lr}
 2971 21d8 08D04DE2 		sub	sp, sp, #8
 2972 21dc 10E09DE5 		ldr	lr, [sp, #16]
 2973 21e0 00E08DE5 		str	lr, [sp]
 2974 21e4 2C409CE5 		ldr	r4, [ip, #44]
 2975 21e8 34FF2FE1 		blx	r4
 2976 21ec 0100A0E3 		mov	r0, #1
 2977 21f0 08D08DE2 		add	sp, sp, #8
 2978              		@ sp needed
 2979 21f4 1080BDE8 		pop	{r4, pc}
 2980              	.L588:
 2981 21f8 0C00A0E1 		mov	r0, ip
 2982 21fc 1EFF2FE1 		bx	lr
 2983              		.size	Rectangle, .-Rectangle
 2984              		.align	2
 2985              		.global	PiConsole_Init
 2986              		.syntax unified
 2987              		.arm
 2988              		.fpu vfp
 2989              		.type	PiConsole_Init, %function
 2990              	PiConsole_Init:
 2991              		@ args = 0, pretend = 0, frame = 80
 2992              		@ frame_needed = 0, uses_anonymous_args = 0
 2993 2200 000051E3 		cmp	r1, #0
 2994 2204 00005013 		cmpne	r0, #0
 2995 2208 F0432DE9 		push	{r4, r5, r6, r7, r8, r9, lr}
 2996 220c 9CD04DE2 		sub	sp, sp, #156
 2997 2210 0240A0E1 		mov	r4, r2
 2998 2214 0380A0E1 		mov	r8, r3
 2999 2218 0050A0E1 		mov	r5, r0
 3000 221c 0160A0E1 		mov	r6, r1
 3001 2220 4C908D12 		addne	r9, sp, #76
 3002 2224 5500000A 		beq	.L618
 3003              	.L594:
 3004 2228 000054E3 		cmp	r4, #0
 3005 222c 0800001A 		bne	.L598
 3006 2230 0430A0E3 		mov	r3, #4
 3007 2234 08229FE5 		ldr	r2, .L620
 3008 2238 18008DE8 		stm	sp, {r3, r4}
 3009 223c 0310A0E1 		mov	r1, r3
 3010 2240 0900A0E1 		mov	r0, r9
 3011 2244 C0FAFFEB 		bl	mailbox_tag_message.constprop.6
 3012 2248 000050E3 		cmp	r0, #0
 3013 224c 1D00000A 		beq	.L599
 3014 2250 58409DE5 		ldr	r4, [sp, #88]
 3015              	.L598:
 3016 2254 0420A0E3 		mov	r2, #4
 3017 2258 0830A0E3 		mov	r3, #8
 3018 225c 10C0A0E3 		mov	ip, #16
 3019 2260 0070A0E3 		mov	r7, #0
 3020 2264 DCE19FE5 		ldr	lr, .L620+4
 3021 2268 DC119FE5 		ldr	r1, .L620+8
ARM GAS  C:\Users\ldebo\AppData\Local\Temp\ccISOhOE.s 			page 54


 3022 226c 38208DE5 		str	r2, [sp, #56]
 3023 2270 28208DE5 		str	r2, [sp, #40]
 3024 2274 24208DE5 		str	r2, [sp, #36]
 3025 2278 122982E2 		add	r2, r2, #294912
 3026 227c 0900A0E1 		mov	r0, r9
 3027 2280 20108DE5 		str	r1, [sp, #32]
 3028 2284 0C208DE5 		str	r2, [sp, #12]
 3029 2288 2C408DE5 		str	r4, [sp, #44]
 3030 228c 1C608DE5 		str	r6, [sp, #28]
 3031 2290 18508DE5 		str	r5, [sp, #24]
 3032 2294 60008DE9 		stmib	sp, {r5, r6}
 3033 2298 34308DE5 		str	r3, [sp, #52]
 3034 229c 14308DE5 		str	r3, [sp, #20]
 3035 22a0 10308DE5 		str	r3, [sp, #16]
 3036 22a4 00308DE5 		str	r3, [sp]
 3037 22a8 30E08DE5 		str	lr, [sp, #48]
 3038 22ac 012042E2 		sub	r2, r2, #1
 3039 22b0 1310A0E3 		mov	r1, #19
 3040 22b4 40708DE5 		str	r7, [sp, #64]
 3041 22b8 3CC08DE5 		str	ip, [sp, #60]
 3042 22bc 11FBFFEB 		bl	mailbox_tag_message.constprop.7
 3043 22c0 009050E2 		subs	r9, r0, #0
 3044 22c4 0300001A 		bne	.L619
 3045              	.L599:
 3046 22c8 0090A0E3 		mov	r9, #0
 3047              	.L596:
 3048 22cc 0900A0E1 		mov	r0, r9
 3049 22d0 9CD08DE2 		add	sp, sp, #156
 3050              		@ sp needed
 3051 22d4 F083BDE8 		pop	{r4, r5, r6, r7, r8, r9, pc}
 3052              	.L619:
 3053 22d8 90009DE5 		ldr	r0, [sp, #144]
 3054 22dc FEFFFFEB 		bl	GPUaddrToARMaddr
 3055 22e0 0010E0E3 		mvn	r1, #0
 3056 22e4 64319FE5 		ldr	r3, .L620+12
 3057 22e8 64219FE5 		ldr	r2, .L620+16
 3058 22ec 180054E3 		cmp	r4, #24
 3059 22f0 040083E5 		str	r0, [r3, #4]
 3060 22f4 287083E5 		str	r7, [r3, #40]
 3061 22f8 085083E5 		str	r5, [r3, #8]
 3062 22fc 0C6083E5 		str	r6, [r3, #12]
 3063 2300 104083E5 		str	r4, [r3, #16]
 3064 2304 241083E5 		str	r1, [r3, #36]
 3065 2308 2C2083E5 		str	r2, [r3, #44]
 3066 230c 3D00000A 		beq	.L601
 3067 2310 200054E3 		cmp	r4, #32
 3068 2314 2C00000A 		beq	.L602
 3069 2318 100054E3 		cmp	r4, #16
 3070 231c 0D00001A 		bne	.L600
 3071 2320 30219FE5 		ldr	r2, .L620+20
 3072 2324 30119FE5 		ldr	r1, .L620+24
 3073 2328 302083E5 		str	r2, [r3, #48]
 3074 232c 2C219FE5 		ldr	r2, .L620+28
 3075 2330 341083E5 		str	r1, [r3, #52]
 3076 2334 382083E5 		str	r2, [r3, #56]
 3077 2338 24119FE5 		ldr	r1, .L620+32
 3078 233c 24219FE5 		ldr	r2, .L620+36
ARM GAS  C:\Users\ldebo\AppData\Local\Temp\ccISOhOE.s 			page 55


 3079 2340 3C1083E5 		str	r1, [r3, #60]
 3080 2344 402083E5 		str	r2, [r3, #64]
 3081 2348 1C119FE5 		ldr	r1, .L620+40
 3082 234c 1C219FE5 		ldr	r2, .L620+44
 3083 2350 441083E5 		str	r1, [r3, #68]
 3084 2354 482083E5 		str	r2, [r3, #72]
 3085              	.L600:
 3086 2358 000058E3 		cmp	r8, #0
 3087 235c DAFFFF0A 		beq	.L596
 3088 2360 0430A0E1 		mov	r3, r4
 3089 2364 0620A0E1 		mov	r2, r6
 3090 2368 0510A0E1 		mov	r1, r5
 3091 236c 00019FE5 		ldr	r0, .L620+48
 3092 2370 38FF2FE1 		blx	r8
 3093 2374 0900A0E1 		mov	r0, r9
 3094 2378 9CD08DE2 		add	sp, sp, #156
 3095              		@ sp needed
 3096 237c F083BDE8 		pop	{r4, r5, r6, r7, r8, r9, pc}
 3097              	.L618:
 3098 2380 0030A0E3 		mov	r3, #0
 3099 2384 4C908DE2 		add	r9, sp, #76
 3100 2388 08308DE5 		str	r3, [sp, #8]
 3101 238c 04308DE5 		str	r3, [sp, #4]
 3102 2390 00308DE5 		str	r3, [sp]
 3103 2394 0900A0E1 		mov	r0, r9
 3104 2398 0830A0E3 		mov	r3, #8
 3105 239c D4209FE5 		ldr	r2, .L620+52
 3106 23a0 0510A0E3 		mov	r1, #5
 3107 23a4 15FBFFEB 		bl	mailbox_tag_message.constprop.5
 3108 23a8 000050E3 		cmp	r0, #0
 3109 23ac C5FFFF0A 		beq	.L599
 3110 23b0 000055E3 		cmp	r5, #0
 3111 23b4 0200001A 		bne	.L597
 3112 23b8 000056E3 		cmp	r6, #0
 3113 23bc 58509DE5 		ldr	r5, [sp, #88]
 3114 23c0 98FFFF1A 		bne	.L594
 3115              	.L597:
 3116 23c4 5C609DE5 		ldr	r6, [sp, #92]
 3117 23c8 96FFFFEA 		b	.L594
 3118              	.L602:
 3119 23cc A8209FE5 		ldr	r2, .L620+56
 3120 23d0 A8109FE5 		ldr	r1, .L620+60
 3121 23d4 302083E5 		str	r2, [r3, #48]
 3122 23d8 A4209FE5 		ldr	r2, .L620+64
 3123 23dc 341083E5 		str	r1, [r3, #52]
 3124 23e0 382083E5 		str	r2, [r3, #56]
 3125 23e4 9C109FE5 		ldr	r1, .L620+68
 3126 23e8 9C209FE5 		ldr	r2, .L620+72
 3127 23ec 3C1083E5 		str	r1, [r3, #60]
 3128 23f0 402083E5 		str	r2, [r3, #64]
 3129 23f4 94109FE5 		ldr	r1, .L620+76
 3130 23f8 94209FE5 		ldr	r2, .L620+80
 3131 23fc 441083E5 		str	r1, [r3, #68]
 3132 2400 482083E5 		str	r2, [r3, #72]
 3133 2404 D3FFFFEA 		b	.L600
 3134              	.L601:
 3135 2408 88209FE5 		ldr	r2, .L620+84
ARM GAS  C:\Users\ldebo\AppData\Local\Temp\ccISOhOE.s 			page 56


 3136 240c 88109FE5 		ldr	r1, .L620+88
 3137 2410 302083E5 		str	r2, [r3, #48]
 3138 2414 84209FE5 		ldr	r2, .L620+92
 3139 2418 341083E5 		str	r1, [r3, #52]
 3140 241c 382083E5 		str	r2, [r3, #56]
 3141 2420 7C109FE5 		ldr	r1, .L620+96
 3142 2424 7C209FE5 		ldr	r2, .L620+100
 3143 2428 3C1083E5 		str	r1, [r3, #60]
 3144 242c 402083E5 		str	r2, [r3, #64]
 3145 2430 74109FE5 		ldr	r1, .L620+104
 3146 2434 74209FE5 		ldr	r2, .L620+108
 3147 2438 441083E5 		str	r1, [r3, #68]
 3148 243c 482083E5 		str	r2, [r3, #72]
 3149 2440 C4FFFFEA 		b	.L600
 3150              	.L621:
 3151              		.align	2
 3152              	.L620:
 3153 2444 05000400 		.word	262149
 3154 2448 01000400 		.word	262145
 3155 244c 05800400 		.word	294917
 3156 2450 00000000 		.word	.LANCHOR1
 3157 2454 00FF00FF 		.word	-16711936
 3158 2458 00000000 		.word	_ZL11ClearArea16P8tagINTDCjjjj
 3159 245c 00000000 		.word	_ZL10VertLine16P8tagINTDCji
 3160 2460 00000000 		.word	_ZL10HorzLine16P8tagINTDCji
 3161 2464 00000000 		.word	_ZL10DiagLine16P8tagINTDCjjii
 3162 2468 00000000 		.word	_ZL11WriteChar16P8tagINTDCh
 3163 246c 00000000 		.word	_ZL22TransparentWriteChar16P8tagINTDCh
 3164 2470 00000000 		.word	_ZL10PutImage16P8tagINTDCjj7HBITMAPb
 3165 2474 DC000000 		.word	.LC7
 3166 2478 03000400 		.word	262147
 3167 247c 00000000 		.word	_ZL11ClearArea32P8tagINTDCjjjj
 3168 2480 00000000 		.word	_ZL10VertLine32P8tagINTDCji
 3169 2484 00000000 		.word	_ZL10HorzLine32P8tagINTDCji
 3170 2488 00000000 		.word	_ZL10DiagLine32P8tagINTDCjjii
 3171 248c 00000000 		.word	_ZL11WriteChar32P8tagINTDCh
 3172 2490 00000000 		.word	_ZL22TransparentWriteChar32P8tagINTDCh
 3173 2494 00000000 		.word	_ZL10PutImage32P8tagINTDCjj7HBITMAPb
 3174 2498 00000000 		.word	_ZL11ClearArea24P8tagINTDCjjjj
 3175 249c 00000000 		.word	_ZL10VertLine24P8tagINTDCji
 3176 24a0 00000000 		.word	_ZL10HorzLine24P8tagINTDCji
 3177 24a4 00000000 		.word	_ZL10DiagLine24P8tagINTDCjjii
 3178 24a8 00000000 		.word	_ZL11WriteChar24P8tagINTDCh
 3179 24ac 00000000 		.word	_ZL22TransparentWriteChar24P8tagINTDCh
 3180 24b0 00000000 		.word	_ZL10PutImage24P8tagINTDCjj7HBITMAPb
 3181              		.size	PiConsole_Init, .-PiConsole_Init
 3182              		.align	2
 3183              		.global	GetConsoleDC
 3184              		.syntax unified
 3185              		.arm
 3186              		.fpu vfp
 3187              		.type	GetConsoleDC, %function
 3188              	GetConsoleDC:
 3189              		@ args = 0, pretend = 0, frame = 0
 3190              		@ frame_needed = 0, uses_anonymous_args = 0
 3191              		@ link register save eliminated.
 3192 24b4 00009FE5 		ldr	r0, .L623
ARM GAS  C:\Users\ldebo\AppData\Local\Temp\ccISOhOE.s 			page 57


 3193 24b8 1EFF2FE1 		bx	lr
 3194              	.L624:
 3195              		.align	2
 3196              	.L623:
 3197 24bc 04000000 		.word	.LANCHOR1+4
 3198              		.size	GetConsoleDC, .-GetConsoleDC
 3199              		.align	2
 3200              		.global	GetConsole_FrameBuffer
 3201              		.syntax unified
 3202              		.arm
 3203              		.fpu vfp
 3204              		.type	GetConsole_FrameBuffer, %function
 3205              	GetConsole_FrameBuffer:
 3206              		@ args = 0, pretend = 0, frame = 0
 3207              		@ frame_needed = 0, uses_anonymous_args = 0
 3208              		@ link register save eliminated.
 3209 24c0 04309FE5 		ldr	r3, .L626
 3210 24c4 040093E5 		ldr	r0, [r3, #4]
 3211 24c8 1EFF2FE1 		bx	lr
 3212              	.L627:
 3213              		.align	2
 3214              	.L626:
 3215 24cc 00000000 		.word	.LANCHOR1
 3216              		.size	GetConsole_FrameBuffer, .-GetConsole_FrameBuffer
 3217              		.align	2
 3218              		.global	GetConsole_Width
 3219              		.syntax unified
 3220              		.arm
 3221              		.fpu vfp
 3222              		.type	GetConsole_Width, %function
 3223              	GetConsole_Width:
 3224              		@ args = 0, pretend = 0, frame = 0
 3225              		@ frame_needed = 0, uses_anonymous_args = 0
 3226              		@ link register save eliminated.
 3227 24d0 04309FE5 		ldr	r3, .L629
 3228 24d4 080093E5 		ldr	r0, [r3, #8]
 3229 24d8 1EFF2FE1 		bx	lr
 3230              	.L630:
 3231              		.align	2
 3232              	.L629:
 3233 24dc 00000000 		.word	.LANCHOR1
 3234              		.size	GetConsole_Width, .-GetConsole_Width
 3235              		.align	2
 3236              		.global	GetConsole_Height
 3237              		.syntax unified
 3238              		.arm
 3239              		.fpu vfp
 3240              		.type	GetConsole_Height, %function
 3241              	GetConsole_Height:
 3242              		@ args = 0, pretend = 0, frame = 0
 3243              		@ frame_needed = 0, uses_anonymous_args = 0
 3244              		@ link register save eliminated.
 3245 24e0 04309FE5 		ldr	r3, .L632
 3246 24e4 0C0093E5 		ldr	r0, [r3, #12]
 3247 24e8 1EFF2FE1 		bx	lr
 3248              	.L633:
 3249              		.align	2
ARM GAS  C:\Users\ldebo\AppData\Local\Temp\ccISOhOE.s 			page 58


 3250              	.L632:
 3251 24ec 00000000 		.word	.LANCHOR1
 3252              		.size	GetConsole_Height, .-GetConsole_Height
 3253              		.align	2
 3254              		.global	WhereXY
 3255              		.syntax unified
 3256              		.arm
 3257              		.fpu vfp
 3258              		.type	WhereXY, %function
 3259              	WhereXY:
 3260              		@ args = 0, pretend = 0, frame = 0
 3261              		@ frame_needed = 0, uses_anonymous_args = 0
 3262              		@ link register save eliminated.
 3263 24f0 000050E3 		cmp	r0, #0
 3264 24f4 18309F15 		ldrne	r3, .L643
 3265 24f8 1C309315 		ldrne	r3, [r3, #28]
 3266 24fc 00308015 		strne	r3, [r0]
 3267 2500 000051E3 		cmp	r1, #0
 3268 2504 08309F15 		ldrne	r3, .L643
 3269 2508 20309315 		ldrne	r3, [r3, #32]
 3270 250c 00308115 		strne	r3, [r1]
 3271 2510 1EFF2FE1 		bx	lr
 3272              	.L644:
 3273              		.align	2
 3274              	.L643:
 3275 2514 00000000 		.word	.LANCHOR1
 3276              		.size	WhereXY, .-WhereXY
 3277              		.align	2
 3278              		.global	GotoXY
 3279              		.syntax unified
 3280              		.arm
 3281              		.fpu vfp
 3282              		.type	GotoXY, %function
 3283              	GotoXY:
 3284              		@ args = 0, pretend = 0, frame = 0
 3285              		@ frame_needed = 0, uses_anonymous_args = 0
 3286              		@ link register save eliminated.
 3287 2518 08309FE5 		ldr	r3, .L646
 3288 251c 1C0083E5 		str	r0, [r3, #28]
 3289 2520 201083E5 		str	r1, [r3, #32]
 3290 2524 1EFF2FE1 		bx	lr
 3291              	.L647:
 3292              		.align	2
 3293              	.L646:
 3294 2528 00000000 		.word	.LANCHOR1
 3295              		.size	GotoXY, .-GotoXY
 3296              		.align	2
 3297              		.weak	_sbrk
 3298              		.syntax unified
 3299              		.arm
 3300              		.fpu vfp
 3301              		.type	_sbrk, %function
 3302              	_sbrk:
 3303              		@ args = 0, pretend = 0, frame = 0
 3304              		@ frame_needed = 0, uses_anonymous_args = 0
 3305              		@ link register save eliminated.
 3306 252c 1C209FE5 		ldr	r2, .L651
ARM GAS  C:\Users\ldebo\AppData\Local\Temp\ccISOhOE.s 			page 59


 3307 2530 1C109FE5 		ldr	r1, .L651+4
 3308 2534 4C3092E5 		ldr	r3, [r2, #76]
 3309 2538 000053E3 		cmp	r3, #0
 3310 253c 0130A001 		moveq	r3, r1
 3311 2540 000083E0 		add	r0, r3, r0
 3312 2544 4C0082E5 		str	r0, [r2, #76]
 3313 2548 0300A0E1 		mov	r0, r3
 3314 254c 1EFF2FE1 		bx	lr
 3315              	.L652:
 3316              		.align	2
 3317              	.L651:
 3318 2550 00000000 		.word	.LANCHOR1
 3319 2554 00000000 		.word	_end
 3320              		.size	_sbrk, .-_sbrk
 3321              		.global	console
 3322              		.section	.rodata
 3323              		.align	2
 3324              		.set	.LANCHOR0,. + 0
 3325              		.type	_ZL7BitFont, %object
 3326              		.size	_ZL7BitFont, 4096
 3327              	_ZL7BitFont:
 3328 0000 00000000 		.word	0
 3329 0004 00000000 		.word	0
 3330 0008 00000000 		.word	0
 3331 000c 00000000 		.word	0
 3332 0010 817E0000 		.word	32385
 3333 0014 BD8181A5 		.word	-1518239299
 3334 0018 7E818199 		.word	-1719565954
 3335 001c 00000000 		.word	0
 3336 0020 FF7E0000 		.word	32511
 3337 0024 C3FFFFDB 		.word	-603979837
 3338 0028 7EFFFFE7 		.word	-402653314
 3339 002c 00000000 		.word	0
 3340 0030 00000000 		.word	0
 3341 0034 FEFEFE6C 		.word	1828650750
 3342 0038 10387CFE 		.word	-25413616
 3343 003c 00000000 		.word	0
 3344 0040 00000000 		.word	0
 3345 0044 FE7C3810 		.word	272137470
 3346 0048 0010387C 		.word	2084048896
 3347 004c 00000000 		.word	0
 3348 0050 18000000 		.word	24
 3349 0054 E7E73C3C 		.word	1010624487
 3350 0058 3C1818E7 		.word	-417851332
 3351 005c 00000000 		.word	0
 3352 0060 18000000 		.word	24
 3353 0064 FFFF7E3C 		.word	1014956031
 3354 0068 3C18187E 		.word	2115508284
 3355 006c 00000000 		.word	0
 3356 0070 00000000 		.word	0
 3357 0074 3C180000 		.word	6204
 3358 0078 0000183C 		.word	1008205824
 3359 007c 00000000 		.word	0
 3360 0080 FFFFFFFF 		.word	-1
 3361 0084 C3E7FFFF 		.word	-6205
 3362 0088 FFFFE7C3 		.word	-1008205825
 3363 008c FFFFFFFF 		.word	-1
ARM GAS  C:\Users\ldebo\AppData\Local\Temp\ccISOhOE.s 			page 60


 3364 0090 00000000 		.word	0
 3365 0094 42663C00 		.word	3958338
 3366 0098 003C6642 		.word	1113996288
 3367 009c 00000000 		.word	0
 3368 00a0 FFFFFFFF 		.word	-1
 3369 00a4 BD99C3FF 		.word	-3958339
 3370 00a8 FFC399BD 		.word	-1113996289
 3371 00ac FFFFFFFF 		.word	-1
 3372 00b0 0E1E0000 		.word	7694
 3373 00b4 CC78321A 		.word	439515340
 3374 00b8 78CCCCCC 		.word	-858993544
 3375 00bc 00000000 		.word	0
 3376 00c0 663C0000 		.word	15462
 3377 00c4 3C666666 		.word	1717986876
 3378 00c8 18187E18 		.word	410916888
 3379 00cc 00000000 		.word	0
 3380 00d0 333F0000 		.word	16179
 3381 00d4 3030303F 		.word	1060122672
 3382 00d8 E0F07030 		.word	812708064
 3383 00dc 00000000 		.word	0
 3384 00e0 637F0000 		.word	32611
 3385 00e4 6363637F 		.word	2137219939
 3386 00e8 E6E76763 		.word	1667753958
 3387 00ec 000000C0 		.word	-1073741824
 3388 00f0 18000000 		.word	24
 3389 00f4 E73CDB18 		.word	417021159
 3390 00f8 1818DB3C 		.word	1020991512
 3391 00fc 00000000 		.word	0
 3392 0100 E0C08000 		.word	8437984
 3393 0104 F8FEF8F0 		.word	-252117256
 3394 0108 80C0E0F0 		.word	-253706112
 3395 010c 00000000 		.word	0
 3396 0110 0E060200 		.word	132622
 3397 0114 3EFE3E1E 		.word	507444798
 3398 0118 02060E1E 		.word	504235522
 3399 011c 00000000 		.word	0
 3400 0120 3C180000 		.word	6204
 3401 0124 1818187E 		.word	2115508248
 3402 0128 00183C7E 		.word	2117867520
 3403 012c 00000000 		.word	0
 3404 0130 66660000 		.word	26214
 3405 0134 66666666 		.word	1717986918
 3406 0138 66660066 		.word	1711302246
 3407 013c 00000000 		.word	0
 3408 0140 DB7F0000 		.word	32731
 3409 0144 1B7BDBDB 		.word	-606373093
 3410 0148 1B1B1B1B 		.word	454761243
 3411 014c 00000000 		.word	0
 3412 0150 60C67C00 		.word	8177248
 3413 0154 C6C66C38 		.word	946652870
 3414 0158 C60C386C 		.word	1815612614
 3415 015c 0000007C 		.word	2080374784
 3416 0160 00000000 		.word	0
 3417 0164 00000000 		.word	0
 3418 0168 FEFEFEFE 		.word	-16843010
 3419 016c 00000000 		.word	0
 3420 0170 3C180000 		.word	6204
ARM GAS  C:\Users\ldebo\AppData\Local\Temp\ccISOhOE.s 			page 61


 3421 0174 1818187E 		.word	2115508248
 3422 0178 7E183C7E 		.word	2117867646
 3423 017c 00000000 		.word	0
 3424 0180 3C180000 		.word	6204
 3425 0184 1818187E 		.word	2115508248
 3426 0188 18181818 		.word	404232216
 3427 018c 00000000 		.word	0
 3428 0190 18180000 		.word	6168
 3429 0194 18181818 		.word	404232216
 3430 0198 183C7E18 		.word	410926104
 3431 019c 00000000 		.word	0
 3432 01a0 00000000 		.word	0
 3433 01a4 FE0C1800 		.word	1576190
 3434 01a8 0000180C 		.word	202899456
 3435 01ac 00000000 		.word	0
 3436 01b0 00000000 		.word	0
 3437 01b4 FE603000 		.word	3170558
 3438 01b8 00003060 		.word	1613758464
 3439 01bc 00000000 		.word	0
 3440 01c0 00000000 		.word	0
 3441 01c4 C0C00000 		.word	49344
 3442 01c8 0000FEC0 		.word	-1057095680
 3443 01cc 00000000 		.word	0
 3444 01d0 00000000 		.word	0
 3445 01d4 FE6C2800 		.word	2649342
 3446 01d8 0000286C 		.word	1814560768
 3447 01dc 00000000 		.word	0
 3448 01e0 00000000 		.word	0
 3449 01e4 7C383810 		.word	272119932
 3450 01e8 00FEFE7C 		.word	2097085952
 3451 01ec 00000000 		.word	0
 3452 01f0 00000000 		.word	0
 3453 01f4 7C7CFEFE 		.word	-16876420
 3454 01f8 00103838 		.word	943198208
 3455 01fc 00000000 		.word	0
 3456 0200 00000000 		.word	0
 3457 0204 00000000 		.word	0
 3458 0208 00000000 		.word	0
 3459 020c 00000000 		.word	0
 3460 0210 3C180000 		.word	6204
 3461 0214 18183C3C 		.word	1010571288
 3462 0218 18180018 		.word	402659352
 3463 021c 00000000 		.word	0
 3464 0220 66666600 		.word	6710886
 3465 0224 00000024 		.word	603979776
 3466 0228 00000000 		.word	0
 3467 022c 00000000 		.word	0
 3468 0230 6C000000 		.word	108
 3469 0234 6C6CFE6C 		.word	1828613228
 3470 0238 6C6CFE6C 		.word	1828613228
 3471 023c 00000000 		.word	0
 3472 0240 C67C1818 		.word	404257990
 3473 0244 067CC0C2 		.word	-1027572730
 3474 0248 7CC68606 		.word	109495932
 3475 024c 00001818 		.word	404226048
 3476 0250 00000000 		.word	0
 3477 0254 180CC6C2 		.word	-1027208168
ARM GAS  C:\Users\ldebo\AppData\Local\Temp\ccISOhOE.s 			page 62


 3478 0258 86C66030 		.word	811648646
 3479 025c 00000000 		.word	0
 3480 0260 6C380000 		.word	14444
 3481 0264 DC76386C 		.word	1815639772
 3482 0268 76CCCCCC 		.word	-858993546
 3483 026c 00000000 		.word	0
 3484 0270 30303000 		.word	3158064
 3485 0274 00000060 		.word	1610612736
 3486 0278 00000000 		.word	0
 3487 027c 00000000 		.word	0
 3488 0280 180C0000 		.word	3096
 3489 0284 30303030 		.word	808464432
 3490 0288 0C183030 		.word	808458252
 3491 028c 00000000 		.word	0
 3492 0290 18300000 		.word	12312
 3493 0294 0C0C0C0C 		.word	202116108
 3494 0298 30180C0C 		.word	202119216
 3495 029c 00000000 		.word	0
 3496 02a0 00000000 		.word	0
 3497 02a4 FF3C6600 		.word	6700287
 3498 02a8 0000663C 		.word	1013317632
 3499 02ac 00000000 		.word	0
 3500 02b0 00000000 		.word	0
 3501 02b4 7E181800 		.word	1579134
 3502 02b8 00001818 		.word	404226048
 3503 02bc 00000000 		.word	0
 3504 02c0 00000000 		.word	0
 3505 02c4 00000000 		.word	0
 3506 02c8 18181800 		.word	1579032
 3507 02cc 00000030 		.word	805306368
 3508 02d0 00000000 		.word	0
 3509 02d4 FE000000 		.word	254
 3510 02d8 00000000 		.word	0
 3511 02dc 00000000 		.word	0
 3512 02e0 00000000 		.word	0
 3513 02e4 00000000 		.word	0
 3514 02e8 18180000 		.word	6168
 3515 02ec 00000000 		.word	0
 3516 02f0 00000000 		.word	0
 3517 02f4 180C0602 		.word	33950744
 3518 02f8 80C06030 		.word	811647104
 3519 02fc 00000000 		.word	0
 3520 0300 6C380000 		.word	14444
 3521 0304 D6D6C6C6 		.word	-960047402
 3522 0308 386CC6C6 		.word	-960074696
 3523 030c 00000000 		.word	0
 3524 0310 38180000 		.word	6200
 3525 0314 18181878 		.word	2014844952
 3526 0318 7E181818 		.word	404232318
 3527 031c 00000000 		.word	0
 3528 0320 C67C0000 		.word	31942
 3529 0324 30180C06 		.word	101455920
 3530 0328 FEC6C060 		.word	1623246590
 3531 032c 00000000 		.word	0
 3532 0330 C67C0000 		.word	31942
 3533 0334 063C0606 		.word	101071878
 3534 0338 7CC60606 		.word	101107324
ARM GAS  C:\Users\ldebo\AppData\Local\Temp\ccISOhOE.s 			page 63


 3535 033c 00000000 		.word	0
 3536 0340 1C0C0000 		.word	3100
 3537 0344 FECC6C3C 		.word	1013763326
 3538 0348 1E0C0C0C 		.word	202116126
 3539 034c 00000000 		.word	0
 3540 0350 C0FE0000 		.word	65216
 3541 0354 06FCC0C0 		.word	-1061094394
 3542 0358 7CC60606 		.word	101107324
 3543 035c 00000000 		.word	0
 3544 0360 60380000 		.word	14432
 3545 0364 C6FCC0C0 		.word	-1061094202
 3546 0368 7CC6C6C6 		.word	-960051588
 3547 036c 00000000 		.word	0
 3548 0370 C6FE0000 		.word	65222
 3549 0374 180C0606 		.word	101059608
 3550 0378 30303030 		.word	808464432
 3551 037c 00000000 		.word	0
 3552 0380 C67C0000 		.word	31942
 3553 0384 C67CC6C6 		.word	-960070458
 3554 0388 7CC6C6C6 		.word	-960051588
 3555 038c 00000000 		.word	0
 3556 0390 C67C0000 		.word	31942
 3557 0394 067EC6C6 		.word	-960070138
 3558 0398 780C0606 		.word	101059704
 3559 039c 00000000 		.word	0
 3560 03a0 00000000 		.word	0
 3561 03a4 00001818 		.word	404226048
 3562 03a8 00181800 		.word	1579008
 3563 03ac 00000000 		.word	0
 3564 03b0 00000000 		.word	0
 3565 03b4 00001818 		.word	404226048
 3566 03b8 30181800 		.word	1579056
 3567 03bc 00000000 		.word	0
 3568 03c0 06000000 		.word	6
 3569 03c4 6030180C 		.word	202911840
 3570 03c8 060C1830 		.word	806882310
 3571 03cc 00000000 		.word	0
 3572 03d0 00000000 		.word	0
 3573 03d4 00007E00 		.word	8257536
 3574 03d8 0000007E 		.word	2113929216
 3575 03dc 00000000 		.word	0
 3576 03e0 60000000 		.word	96
 3577 03e4 060C1830 		.word	806882310
 3578 03e8 6030180C 		.word	202911840
 3579 03ec 00000000 		.word	0
 3580 03f0 C67C0000 		.word	31942
 3581 03f4 18180CC6 		.word	-972285928
 3582 03f8 18180018 		.word	402659352
 3583 03fc 00000000 		.word	0
 3584 0400 7C000000 		.word	124
 3585 0404 DEDEC6C6 		.word	-960045346
 3586 0408 7CC0DCDE 		.word	-555958148
 3587 040c 00000000 		.word	0
 3588 0410 38100000 		.word	4152
 3589 0414 FEC6C66C 		.word	1824966398
 3590 0418 C6C6C6C6 		.word	-960051514
 3591 041c 00000000 		.word	0
ARM GAS  C:\Users\ldebo\AppData\Local\Temp\ccISOhOE.s 			page 64


 3592 0420 66FC0000 		.word	64614
 3593 0424 667C6666 		.word	1717992550
 3594 0428 FC666666 		.word	1717987068
 3595 042c 00000000 		.word	0
 3596 0430 663C0000 		.word	15462
 3597 0434 C0C0C0C2 		.word	-1027555136
 3598 0438 3C66C2C0 		.word	-1061001668
 3599 043c 00000000 		.word	0
 3600 0440 6CF80000 		.word	63596
 3601 0444 66666666 		.word	1717986918
 3602 0448 F86C6666 		.word	1717988600
 3603 044c 00000000 		.word	0
 3604 0450 66FE0000 		.word	65126
 3605 0454 68786862 		.word	1651013736
 3606 0458 FE666260 		.word	1617061630
 3607 045c 00000000 		.word	0
 3608 0460 66FE0000 		.word	65126
 3609 0464 68786862 		.word	1651013736
 3610 0468 F0606060 		.word	1616929008
 3611 046c 00000000 		.word	0
 3612 0470 663C0000 		.word	15462
 3613 0474 DEC0C0C2 		.word	-1027555106
 3614 0478 3A66C6C6 		.word	-960076230
 3615 047c 00000000 		.word	0
 3616 0480 C6C60000 		.word	50886
 3617 0484 C6FEC6C6 		.word	-960037178
 3618 0488 C6C6C6C6 		.word	-960051514
 3619 048c 00000000 		.word	0
 3620 0490 183C0000 		.word	15384
 3621 0494 18181818 		.word	404232216
 3622 0498 3C181818 		.word	404232252
 3623 049c 00000000 		.word	0
 3624 04a0 0C1E0000 		.word	7692
 3625 04a4 0C0C0C0C 		.word	202116108
 3626 04a8 78CCCCCC 		.word	-858993544
 3627 04ac 00000000 		.word	0
 3628 04b0 66E60000 		.word	58982
 3629 04b4 78786C66 		.word	1718384760
 3630 04b8 E666666C 		.word	1818650342
 3631 04bc 00000000 		.word	0
 3632 04c0 60F00000 		.word	61536
 3633 04c4 60606060 		.word	1616928864
 3634 04c8 FE666260 		.word	1617061630
 3635 04cc 00000000 		.word	0
 3636 04d0 EEC60000 		.word	50926
 3637 04d4 C6D6FEFE 		.word	-16853306
 3638 04d8 C6C6C6C6 		.word	-960051514
 3639 04dc 00000000 		.word	0
 3640 04e0 E6C60000 		.word	50918
 3641 04e4 CEDEFEF6 		.word	-151068978
 3642 04e8 C6C6C6C6 		.word	-960051514
 3643 04ec 00000000 		.word	0
 3644 04f0 C67C0000 		.word	31942
 3645 04f4 C6C6C6C6 		.word	-960051514
 3646 04f8 7CC6C6C6 		.word	-960051588
 3647 04fc 00000000 		.word	0
 3648 0500 66FC0000 		.word	64614
ARM GAS  C:\Users\ldebo\AppData\Local\Temp\ccISOhOE.s 			page 65


 3649 0504 607C6666 		.word	1717992544
 3650 0508 F0606060 		.word	1616929008
 3651 050c 00000000 		.word	0
 3652 0510 C67C0000 		.word	31942
 3653 0514 C6C6C6C6 		.word	-960051514
 3654 0518 7CDED6C6 		.word	-958996868
 3655 051c 00000E0C 		.word	202244096
 3656 0520 66FC0000 		.word	64614
 3657 0524 6C7C6666 		.word	1717992556
 3658 0528 E6666666 		.word	1717987046
 3659 052c 00000000 		.word	0
 3660 0530 C67C0000 		.word	31942
 3661 0534 0C3860C6 		.word	-966772724
 3662 0538 7CC6C606 		.word	113690236
 3663 053c 00000000 		.word	0
 3664 0540 7E7E0000 		.word	32382
 3665 0544 1818185A 		.word	1511528472
 3666 0548 3C181818 		.word	404232252
 3667 054c 00000000 		.word	0
 3668 0550 C6C60000 		.word	50886
 3669 0554 C6C6C6C6 		.word	-960051514
 3670 0558 7CC6C6C6 		.word	-960051588
 3671 055c 00000000 		.word	0
 3672 0560 C6C60000 		.word	50886
 3673 0564 C6C6C6C6 		.word	-960051514
 3674 0568 10386CC6 		.word	-965986288
 3675 056c 00000000 		.word	0
 3676 0570 C6C60000 		.word	50886
 3677 0574 D6D6C6C6 		.word	-960047402
 3678 0578 6CEEFED6 		.word	-687935892
 3679 057c 00000000 		.word	0
 3680 0580 C6C60000 		.word	50886
 3681 0584 38387C6C 		.word	1820080184
 3682 0588 C6C66C7C 		.word	2087503558
 3683 058c 00000000 		.word	0
 3684 0590 66660000 		.word	26214
 3685 0594 183C6666 		.word	1717976088
 3686 0598 3C181818 		.word	404232252
 3687 059c 00000000 		.word	0
 3688 05a0 C6FE0000 		.word	65222
 3689 05a4 30180C86 		.word	-2046027728
 3690 05a8 FEC6C260 		.word	1623377662
 3691 05ac 00000000 		.word	0
 3692 05b0 303C0000 		.word	15408
 3693 05b4 30303030 		.word	808464432
 3694 05b8 3C303030 		.word	808464444
 3695 05bc 00000000 		.word	0
 3696 05c0 80000000 		.word	128
 3697 05c4 3870E0C0 		.word	-1059033032
 3698 05c8 02060E1C 		.word	470681090
 3699 05cc 00000000 		.word	0
 3700 05d0 0C3C0000 		.word	15372
 3701 05d4 0C0C0C0C 		.word	202116108
 3702 05d8 3C0C0C0C 		.word	202116156
 3703 05dc 00000000 		.word	0
 3704 05e0 C66C3810 		.word	272133318
 3705 05e4 00000000 		.word	0
ARM GAS  C:\Users\ldebo\AppData\Local\Temp\ccISOhOE.s 			page 66


 3706 05e8 00000000 		.word	0
 3707 05ec 00000000 		.word	0
 3708 05f0 00000000 		.word	0
 3709 05f4 00000000 		.word	0
 3710 05f8 00000000 		.word	0
 3711 05fc 0000FF00 		.word	16711680
 3712 0600 00183030 		.word	808458240
 3713 0604 00000000 		.word	0
 3714 0608 00000000 		.word	0
 3715 060c 00000000 		.word	0
 3716 0610 00000000 		.word	0
 3717 0614 7C0C7800 		.word	7867516
 3718 0618 76CCCCCC 		.word	-858993546
 3719 061c 00000000 		.word	0
 3720 0620 60E00000 		.word	57440
 3721 0624 666C7860 		.word	1618504806
 3722 0628 7C666666 		.word	1717986940
 3723 062c 00000000 		.word	0
 3724 0630 00000000 		.word	0
 3725 0634 C0C67C00 		.word	8177344
 3726 0638 7CC6C0C0 		.word	-1061108100
 3727 063c 00000000 		.word	0
 3728 0640 0C1C0000 		.word	7180
 3729 0644 CC6C3C0C 		.word	205286604
 3730 0648 76CCCCCC 		.word	-858993546
 3731 064c 00000000 		.word	0
 3732 0650 00000000 		.word	0
 3733 0654 FEC67C00 		.word	8177406
 3734 0658 7CC6C0C0 		.word	-1061108100
 3735 065c 00000000 		.word	0
 3736 0660 6C380000 		.word	14444
 3737 0664 60F06064 		.word	1684074592
 3738 0668 F0606060 		.word	1616929008
 3739 066c 00000000 		.word	0
 3740 0670 00000000 		.word	0
 3741 0674 CCCC7600 		.word	7785676
 3742 0678 7CCCCCCC 		.word	-858993540
 3743 067c 0078CC0C 		.word	214726656
 3744 0680 60E00000 		.word	57440
 3745 0684 66766C60 		.word	1617720934
 3746 0688 E6666666 		.word	1717987046
 3747 068c 00000000 		.word	0
 3748 0690 18180000 		.word	6168
 3749 0694 18183800 		.word	3676184
 3750 0698 3C181818 		.word	404232252
 3751 069c 00000000 		.word	0
 3752 06a0 06060000 		.word	1542
 3753 06a4 06060E00 		.word	919046
 3754 06a8 06060606 		.word	101058054
 3755 06ac 003C6666 		.word	1717976064
 3756 06b0 60E00000 		.word	57440
 3757 06b4 786C6660 		.word	1617325176
 3758 06b8 E6666C78 		.word	2020370150
 3759 06bc 00000000 		.word	0
 3760 06c0 18380000 		.word	14360
 3761 06c4 18181818 		.word	404232216
 3762 06c8 3C181818 		.word	404232252
ARM GAS  C:\Users\ldebo\AppData\Local\Temp\ccISOhOE.s 			page 67


 3763 06cc 00000000 		.word	0
 3764 06d0 00000000 		.word	0
 3765 06d4 D6FEEC00 		.word	15531734
 3766 06d8 C6D6D6D6 		.word	-690563386
 3767 06dc 00000000 		.word	0
 3768 06e0 00000000 		.word	0
 3769 06e4 6666DC00 		.word	14444134
 3770 06e8 66666666 		.word	1717986918
 3771 06ec 00000000 		.word	0
 3772 06f0 00000000 		.word	0
 3773 06f4 C6C67C00 		.word	8177350
 3774 06f8 7CC6C6C6 		.word	-960051588
 3775 06fc 00000000 		.word	0
 3776 0700 00000000 		.word	0
 3777 0704 6666DC00 		.word	14444134
 3778 0708 7C666666 		.word	1717986940
 3779 070c 00F06060 		.word	1616965632
 3780 0710 00000000 		.word	0
 3781 0714 CCCC7600 		.word	7785676
 3782 0718 7CCCCCCC 		.word	-858993540
 3783 071c 001E0C0C 		.word	202120704
 3784 0720 00000000 		.word	0
 3785 0724 6676DC00 		.word	14448230
 3786 0728 F0606060 		.word	1616929008
 3787 072c 00000000 		.word	0
 3788 0730 00000000 		.word	0
 3789 0734 60C67C00 		.word	8177248
 3790 0738 7CC60C38 		.word	940361340
 3791 073c 00000000 		.word	0
 3792 0740 30100000 		.word	4144
 3793 0744 3030FC30 		.word	821833776
 3794 0748 1C363030 		.word	808465948
 3795 074c 00000000 		.word	0
 3796 0750 00000000 		.word	0
 3797 0754 CCCCCC00 		.word	13421772
 3798 0758 76CCCCCC 		.word	-858993546
 3799 075c 00000000 		.word	0
 3800 0760 00000000 		.word	0
 3801 0764 66666600 		.word	6710886
 3802 0768 183C6666 		.word	1717976088
 3803 076c 00000000 		.word	0
 3804 0770 00000000 		.word	0
 3805 0774 D6C6C600 		.word	13027030
 3806 0778 6CFED6D6 		.word	-690553236
 3807 077c 00000000 		.word	0
 3808 0780 00000000 		.word	0
 3809 0784 386CC600 		.word	13003832
 3810 0788 C66C3838 		.word	943221958
 3811 078c 00000000 		.word	0
 3812 0790 00000000 		.word	0
 3813 0794 C6C6C600 		.word	13027014
 3814 0798 7EC6C6C6 		.word	-960051586
 3815 079c 00F80C06 		.word	101513216
 3816 07a0 00000000 		.word	0
 3817 07a4 18CCFE00 		.word	16698392
 3818 07a8 FEC66030 		.word	811648766
 3819 07ac 00000000 		.word	0
ARM GAS  C:\Users\ldebo\AppData\Local\Temp\ccISOhOE.s 			page 68


 3820 07b0 180E0000 		.word	3608
 3821 07b4 18701818 		.word	404254744
 3822 07b8 0E181818 		.word	404232206
 3823 07bc 00000000 		.word	0
 3824 07c0 18180000 		.word	6168
 3825 07c4 18001818 		.word	404226072
 3826 07c8 18181818 		.word	404232216
 3827 07cc 00000000 		.word	0
 3828 07d0 18700000 		.word	28696
 3829 07d4 180E1818 		.word	404229656
 3830 07d8 70181818 		.word	404232304
 3831 07dc 00000000 		.word	0
 3832 07e0 DC760000 		.word	30428
 3833 07e4 00000000 		.word	0
 3834 07e8 00000000 		.word	0
 3835 07ec 00000000 		.word	0
 3836 07f0 00000000 		.word	0
 3837 07f4 C66C3810 		.word	272133318
 3838 07f8 00FEC6C6 		.word	-960037376
 3839 07fc 00000000 		.word	0
 3840 0800 663C0000 		.word	15462
 3841 0804 C0C0C0C2 		.word	-1027555136
 3842 0808 0C3C66C2 		.word	-1033487348
 3843 080c 00007C06 		.word	108789760
 3844 0810 00CC0000 		.word	52224
 3845 0814 CCCCCC00 		.word	13421772
 3846 0818 76CCCCCC 		.word	-858993546
 3847 081c 00000000 		.word	0
 3848 0820 30180C00 		.word	792624
 3849 0824 FEC67C00 		.word	8177406
 3850 0828 7CC6C0C0 		.word	-1061108100
 3851 082c 00000000 		.word	0
 3852 0830 6C381000 		.word	1063020
 3853 0834 7C0C7800 		.word	7867516
 3854 0838 76CCCCCC 		.word	-858993546
 3855 083c 00000000 		.word	0
 3856 0840 00CC0000 		.word	52224
 3857 0844 7C0C7800 		.word	7867516
 3858 0848 76CCCCCC 		.word	-858993546
 3859 084c 00000000 		.word	0
 3860 0850 18306000 		.word	6303768
 3861 0854 7C0C7800 		.word	7867516
 3862 0858 76CCCCCC 		.word	-858993546
 3863 085c 00000000 		.word	0
 3864 0860 386C3800 		.word	3697720
 3865 0864 7C0C7800 		.word	7867516
 3866 0868 76CCCCCC 		.word	-858993546
 3867 086c 00000000 		.word	0
 3868 0870 00000000 		.word	0
 3869 0874 6060663C 		.word	1013342304
 3870 0878 060C3C66 		.word	1715211270
 3871 087c 0000003C 		.word	1006632960
 3872 0880 6C381000 		.word	1063020
 3873 0884 FEC67C00 		.word	8177406
 3874 0888 7CC6C0C0 		.word	-1061108100
 3875 088c 00000000 		.word	0
 3876 0890 00C60000 		.word	50688
ARM GAS  C:\Users\ldebo\AppData\Local\Temp\ccISOhOE.s 			page 69


 3877 0894 FEC67C00 		.word	8177406
 3878 0898 7CC6C0C0 		.word	-1061108100
 3879 089c 00000000 		.word	0
 3880 08a0 18306000 		.word	6303768
 3881 08a4 FEC67C00 		.word	8177406
 3882 08a8 7CC6C0C0 		.word	-1061108100
 3883 08ac 00000000 		.word	0
 3884 08b0 00660000 		.word	26112
 3885 08b4 18183800 		.word	3676184
 3886 08b8 3C181818 		.word	404232252
 3887 08bc 00000000 		.word	0
 3888 08c0 663C1800 		.word	1588326
 3889 08c4 18183800 		.word	3676184
 3890 08c8 3C181818 		.word	404232252
 3891 08cc 00000000 		.word	0
 3892 08d0 18306000 		.word	6303768
 3893 08d4 18183800 		.word	3676184
 3894 08d8 3C181818 		.word	404232252
 3895 08dc 00000000 		.word	0
 3896 08e0 1000C600 		.word	12976144
 3897 08e4 C6C66C38 		.word	946652870
 3898 08e8 C6C6C6FE 		.word	-20527418
 3899 08ec 00000000 		.word	0
 3900 08f0 00386C38 		.word	946616320
 3901 08f4 C6C66C38 		.word	946652870
 3902 08f8 C6C6C6FE 		.word	-20527418
 3903 08fc 00000000 		.word	0
 3904 0900 00603018 		.word	405823488
 3905 0904 7C6066FE 		.word	-26845060
 3906 0908 FE666060 		.word	1616930558
 3907 090c 00000000 		.word	0
 3908 0910 00000000 		.word	0
 3909 0914 3676CC00 		.word	13399606
 3910 0918 6ED8D87E 		.word	2128140398
 3911 091c 00000000 		.word	0
 3912 0920 6C3E0000 		.word	15980
 3913 0924 CCFECCCC 		.word	-858980660
 3914 0928 CECCCCCC 		.word	-858993458
 3915 092c 00000000 		.word	0
 3916 0930 6C381000 		.word	1063020
 3917 0934 C6C67C00 		.word	8177350
 3918 0938 7CC6C6C6 		.word	-960051588
 3919 093c 00000000 		.word	0
 3920 0940 00C60000 		.word	50688
 3921 0944 C6C67C00 		.word	8177350
 3922 0948 7CC6C6C6 		.word	-960051588
 3923 094c 00000000 		.word	0
 3924 0950 18306000 		.word	6303768
 3925 0954 C6C67C00 		.word	8177350
 3926 0958 7CC6C6C6 		.word	-960051588
 3927 095c 00000000 		.word	0
 3928 0960 CC783000 		.word	3176652
 3929 0964 CCCCCC00 		.word	13421772
 3930 0968 76CCCCCC 		.word	-858993546
 3931 096c 00000000 		.word	0
 3932 0970 18306000 		.word	6303768
 3933 0974 CCCCCC00 		.word	13421772
ARM GAS  C:\Users\ldebo\AppData\Local\Temp\ccISOhOE.s 			page 70


 3934 0978 76CCCCCC 		.word	-858993546
 3935 097c 00000000 		.word	0
 3936 0980 00C60000 		.word	50688
 3937 0984 C6C6C600 		.word	13027014
 3938 0988 7EC6C6C6 		.word	-960051586
 3939 098c 00780C06 		.word	101480448
 3940 0990 7C00C600 		.word	12976252
 3941 0994 C6C6C6C6 		.word	-960051514
 3942 0998 7CC6C6C6 		.word	-960051588
 3943 099c 00000000 		.word	0
 3944 09a0 C600C600 		.word	12976326
 3945 09a4 C6C6C6C6 		.word	-960051514
 3946 09a8 7CC6C6C6 		.word	-960051588
 3947 09ac 00000000 		.word	0
 3948 09b0 3C181800 		.word	1579068
 3949 09b4 60606066 		.word	1717592160
 3950 09b8 18183C66 		.word	1715214360
 3951 09bc 00000000 		.word	0
 3952 09c0 646C3800 		.word	3697764
 3953 09c4 6060F060 		.word	1626366048
 3954 09c8 FCE66060 		.word	1616963324
 3955 09cc 00000000 		.word	0
 3956 09d0 66660000 		.word	26214
 3957 09d4 187E183C 		.word	1008238104
 3958 09d8 1818187E 		.word	2115508248
 3959 09dc 00000000 		.word	0
 3960 09e0 CCCCF800 		.word	16305356
 3961 09e4 DECCC4F8 		.word	-121320226
 3962 09e8 C6CCCCCC 		.word	-858993466
 3963 09ec 00000000 		.word	0
 3964 09f0 181B0E00 		.word	924440
 3965 09f4 187E1818 		.word	404258328
 3966 09f8 18181818 		.word	404232216
 3967 09fc 000070D8 		.word	-663748608
 3968 0a00 60301800 		.word	1585248
 3969 0a04 7C0C7800 		.word	7867516
 3970 0a08 76CCCCCC 		.word	-858993546
 3971 0a0c 00000000 		.word	0
 3972 0a10 30180C00 		.word	792624
 3973 0a14 18183800 		.word	3676184
 3974 0a18 3C181818 		.word	404232252
 3975 0a1c 00000000 		.word	0
 3976 0a20 60301800 		.word	1585248
 3977 0a24 C6C67C00 		.word	8177350
 3978 0a28 7CC6C6C6 		.word	-960051588
 3979 0a2c 00000000 		.word	0
 3980 0a30 60301800 		.word	1585248
 3981 0a34 CCCCCC00 		.word	13421772
 3982 0a38 76CCCCCC 		.word	-858993546
 3983 0a3c 00000000 		.word	0
 3984 0a40 DC760000 		.word	30428
 3985 0a44 6666DC00 		.word	14444134
 3986 0a48 66666666 		.word	1717986918
 3987 0a4c 00000000 		.word	0
 3988 0a50 C600DC76 		.word	1994129606
 3989 0a54 DEFEF6E6 		.word	-420020514
 3990 0a58 C6C6C6CE 		.word	-825833786
ARM GAS  C:\Users\ldebo\AppData\Local\Temp\ccISOhOE.s 			page 71


 3991 0a5c 00000000 		.word	0
 3992 0a60 6C6C3C00 		.word	3959916
 3993 0a64 007E003E 		.word	1040219648
 3994 0a68 00000000 		.word	0
 3995 0a6c 00000000 		.word	0
 3996 0a70 6C6C3800 		.word	3697772
 3997 0a74 007C0038 		.word	939555840
 3998 0a78 00000000 		.word	0
 3999 0a7c 00000000 		.word	0
 4000 0a80 30300000 		.word	12336
 4001 0a84 60303000 		.word	3158112
 4002 0a88 7CC6C6C0 		.word	-1060714884
 4003 0a8c 00000000 		.word	0
 4004 0a90 00000000 		.word	0
 4005 0a94 C0FE0000 		.word	65216
 4006 0a98 00C0C0C0 		.word	-1061109760
 4007 0a9c 00000000 		.word	0
 4008 0aa0 00000000 		.word	0
 4009 0aa4 06FE0000 		.word	65030
 4010 0aa8 00060606 		.word	101058048
 4011 0aac 00000000 		.word	0
 4012 0ab0 C2C0C000 		.word	12632258
 4013 0ab4 3018CCC6 		.word	-959702992
 4014 0ab8 0C86DC60 		.word	1625064972
 4015 0abc 00003E18 		.word	406716416
 4016 0ac0 C2C0C000 		.word	12632258
 4017 0ac4 3018CCC6 		.word	-959702992
 4018 0ac8 3E9ECE66 		.word	1724816958
 4019 0acc 00000606 		.word	101056512
 4020 0ad0 18180000 		.word	6168
 4021 0ad4 18181800 		.word	1579032
 4022 0ad8 183C3C3C 		.word	1010580504
 4023 0adc 00000000 		.word	0
 4024 0ae0 00000000 		.word	0
 4025 0ae4 D86C3600 		.word	3566808
 4026 0ae8 0000366C 		.word	1815478272
 4027 0aec 00000000 		.word	0
 4028 0af0 00000000 		.word	0
 4029 0af4 366CD800 		.word	14183478
 4030 0af8 0000D86C 		.word	1826095104
 4031 0afc 00000000 		.word	0
 4032 0b00 44114411 		.word	289673540
 4033 0b04 44114411 		.word	289673540
 4034 0b08 44114411 		.word	289673540
 4035 0b0c 44114411 		.word	289673540
 4036 0b10 AA55AA55 		.word	1437226410
 4037 0b14 AA55AA55 		.word	1437226410
 4038 0b18 AA55AA55 		.word	1437226410
 4039 0b1c AA55AA55 		.word	1437226410
 4040 0b20 77DD77DD 		.word	-579347081
 4041 0b24 77DD77DD 		.word	-579347081
 4042 0b28 77DD77DD 		.word	-579347081
 4043 0b2c 77DD77DD 		.word	-579347081
 4044 0b30 18181818 		.word	404232216
 4045 0b34 18181818 		.word	404232216
 4046 0b38 18181818 		.word	404232216
 4047 0b3c 18181818 		.word	404232216
ARM GAS  C:\Users\ldebo\AppData\Local\Temp\ccISOhOE.s 			page 72


 4048 0b40 18181818 		.word	404232216
 4049 0b44 F8181818 		.word	404232440
 4050 0b48 18181818 		.word	404232216
 4051 0b4c 18181818 		.word	404232216
 4052 0b50 18181818 		.word	404232216
 4053 0b54 F818F818 		.word	418912504
 4054 0b58 18181818 		.word	404232216
 4055 0b5c 18181818 		.word	404232216
 4056 0b60 36363636 		.word	909522486
 4057 0b64 F6363636 		.word	909522678
 4058 0b68 36363636 		.word	909522486
 4059 0b6c 36363636 		.word	909522486
 4060 0b70 00000000 		.word	0
 4061 0b74 FE000000 		.word	254
 4062 0b78 36363636 		.word	909522486
 4063 0b7c 36363636 		.word	909522486
 4064 0b80 00000000 		.word	0
 4065 0b84 F818F800 		.word	16259320
 4066 0b88 18181818 		.word	404232216
 4067 0b8c 18181818 		.word	404232216
 4068 0b90 36363636 		.word	909522486
 4069 0b94 F606F636 		.word	922093302
 4070 0b98 36363636 		.word	909522486
 4071 0b9c 36363636 		.word	909522486
 4072 0ba0 36363636 		.word	909522486
 4073 0ba4 36363636 		.word	909522486
 4074 0ba8 36363636 		.word	909522486
 4075 0bac 36363636 		.word	909522486
 4076 0bb0 00000000 		.word	0
 4077 0bb4 F606FE00 		.word	16647926
 4078 0bb8 36363636 		.word	909522486
 4079 0bbc 36363636 		.word	909522486
 4080 0bc0 36363636 		.word	909522486
 4081 0bc4 FE06F636 		.word	922093310
 4082 0bc8 00000000 		.word	0
 4083 0bcc 00000000 		.word	0
 4084 0bd0 36363636 		.word	909522486
 4085 0bd4 FE363636 		.word	909522686
 4086 0bd8 00000000 		.word	0
 4087 0bdc 00000000 		.word	0
 4088 0be0 18181818 		.word	404232216
 4089 0be4 F818F818 		.word	418912504
 4090 0be8 00000000 		.word	0
 4091 0bec 00000000 		.word	0
 4092 0bf0 00000000 		.word	0
 4093 0bf4 F8000000 		.word	248
 4094 0bf8 18181818 		.word	404232216
 4095 0bfc 18181818 		.word	404232216
 4096 0c00 18181818 		.word	404232216
 4097 0c04 1F181818 		.word	404232223
 4098 0c08 00000000 		.word	0
 4099 0c0c 00000000 		.word	0
 4100 0c10 18181818 		.word	404232216
 4101 0c14 FF181818 		.word	404232447
 4102 0c18 00000000 		.word	0
 4103 0c1c 00000000 		.word	0
 4104 0c20 00000000 		.word	0
ARM GAS  C:\Users\ldebo\AppData\Local\Temp\ccISOhOE.s 			page 73


 4105 0c24 FF000000 		.word	255
 4106 0c28 18181818 		.word	404232216
 4107 0c2c 18181818 		.word	404232216
 4108 0c30 18181818 		.word	404232216
 4109 0c34 1F181818 		.word	404232223
 4110 0c38 18181818 		.word	404232216
 4111 0c3c 18181818 		.word	404232216
 4112 0c40 00000000 		.word	0
 4113 0c44 FF000000 		.word	255
 4114 0c48 00000000 		.word	0
 4115 0c4c 00000000 		.word	0
 4116 0c50 18181818 		.word	404232216
 4117 0c54 FF181818 		.word	404232447
 4118 0c58 18181818 		.word	404232216
 4119 0c5c 18181818 		.word	404232216
 4120 0c60 18181818 		.word	404232216
 4121 0c64 1F181F18 		.word	404690975
 4122 0c68 18181818 		.word	404232216
 4123 0c6c 18181818 		.word	404232216
 4124 0c70 36363636 		.word	909522486
 4125 0c74 37363636 		.word	909522487
 4126 0c78 36363636 		.word	909522486
 4127 0c7c 36363636 		.word	909522486
 4128 0c80 36363636 		.word	909522486
 4129 0c84 3F303736 		.word	909586495
 4130 0c88 00000000 		.word	0
 4131 0c8c 00000000 		.word	0
 4132 0c90 00000000 		.word	0
 4133 0c94 37303F00 		.word	4141111
 4134 0c98 36363636 		.word	909522486
 4135 0c9c 36363636 		.word	909522486
 4136 0ca0 36363636 		.word	909522486
 4137 0ca4 FF00F736 		.word	922157311
 4138 0ca8 00000000 		.word	0
 4139 0cac 00000000 		.word	0
 4140 0cb0 00000000 		.word	0
 4141 0cb4 F700FF00 		.word	16711927
 4142 0cb8 36363636 		.word	909522486
 4143 0cbc 36363636 		.word	909522486
 4144 0cc0 36363636 		.word	909522486
 4145 0cc4 37303736 		.word	909586487
 4146 0cc8 36363636 		.word	909522486
 4147 0ccc 36363636 		.word	909522486
 4148 0cd0 00000000 		.word	0
 4149 0cd4 FF00FF00 		.word	16711935
 4150 0cd8 00000000 		.word	0
 4151 0cdc 00000000 		.word	0
 4152 0ce0 36363636 		.word	909522486
 4153 0ce4 F700F736 		.word	922157303
 4154 0ce8 36363636 		.word	909522486
 4155 0cec 36363636 		.word	909522486
 4156 0cf0 18181818 		.word	404232216
 4157 0cf4 FF00FF18 		.word	419365119
 4158 0cf8 00000000 		.word	0
 4159 0cfc 00000000 		.word	0
 4160 0d00 36363636 		.word	909522486
 4161 0d04 FF363636 		.word	909522687
ARM GAS  C:\Users\ldebo\AppData\Local\Temp\ccISOhOE.s 			page 74


 4162 0d08 00000000 		.word	0
 4163 0d0c 00000000 		.word	0
 4164 0d10 00000000 		.word	0
 4165 0d14 FF00FF00 		.word	16711935
 4166 0d18 18181818 		.word	404232216
 4167 0d1c 18181818 		.word	404232216
 4168 0d20 00000000 		.word	0
 4169 0d24 FF000000 		.word	255
 4170 0d28 36363636 		.word	909522486
 4171 0d2c 36363636 		.word	909522486
 4172 0d30 36363636 		.word	909522486
 4173 0d34 3F363636 		.word	909522495
 4174 0d38 00000000 		.word	0
 4175 0d3c 00000000 		.word	0
 4176 0d40 18181818 		.word	404232216
 4177 0d44 1F181F18 		.word	404690975
 4178 0d48 00000000 		.word	0
 4179 0d4c 00000000 		.word	0
 4180 0d50 00000000 		.word	0
 4181 0d54 1F181F00 		.word	2037791
 4182 0d58 18181818 		.word	404232216
 4183 0d5c 18181818 		.word	404232216
 4184 0d60 00000000 		.word	0
 4185 0d64 3F000000 		.word	63
 4186 0d68 36363636 		.word	909522486
 4187 0d6c 36363636 		.word	909522486
 4188 0d70 36363636 		.word	909522486
 4189 0d74 FF363636 		.word	909522687
 4190 0d78 36363636 		.word	909522486
 4191 0d7c 36363636 		.word	909522486
 4192 0d80 18181818 		.word	404232216
 4193 0d84 FF18FF18 		.word	419371263
 4194 0d88 18181818 		.word	404232216
 4195 0d8c 18181818 		.word	404232216
 4196 0d90 18181818 		.word	404232216
 4197 0d94 F8181818 		.word	404232440
 4198 0d98 00000000 		.word	0
 4199 0d9c 00000000 		.word	0
 4200 0da0 00000000 		.word	0
 4201 0da4 1F000000 		.word	31
 4202 0da8 18181818 		.word	404232216
 4203 0dac 18181818 		.word	404232216
 4204 0db0 FFFFFFFF 		.word	-1
 4205 0db4 FFFFFFFF 		.word	-1
 4206 0db8 FFFFFFFF 		.word	-1
 4207 0dbc FFFFFFFF 		.word	-1
 4208 0dc0 00000000 		.word	0
 4209 0dc4 FF000000 		.word	255
 4210 0dc8 FFFFFFFF 		.word	-1
 4211 0dcc FFFFFFFF 		.word	-1
 4212 0dd0 F0F0F0F0 		.word	-252645136
 4213 0dd4 F0F0F0F0 		.word	-252645136
 4214 0dd8 F0F0F0F0 		.word	-252645136
 4215 0ddc F0F0F0F0 		.word	-252645136
 4216 0de0 0F0F0F0F 		.word	252645135
 4217 0de4 0F0F0F0F 		.word	252645135
 4218 0de8 0F0F0F0F 		.word	252645135
ARM GAS  C:\Users\ldebo\AppData\Local\Temp\ccISOhOE.s 			page 75


 4219 0dec 0F0F0F0F 		.word	252645135
 4220 0df0 FFFFFFFF 		.word	-1
 4221 0df4 00FFFFFF 		.word	-256
 4222 0df8 00000000 		.word	0
 4223 0dfc 00000000 		.word	0
 4224 0e00 00000000 		.word	0
 4225 0e04 D8DC7600 		.word	7789784
 4226 0e08 76DCD8D8 		.word	-656876426
 4227 0e0c 00000000 		.word	0
 4228 0e10 CC780000 		.word	30924
 4229 0e14 CCD8CCCC 		.word	-858990388
 4230 0e18 CCC6C6C6 		.word	-960051508
 4231 0e1c 00000000 		.word	0
 4232 0e20 C6FE0000 		.word	65222
 4233 0e24 C0C0C0C6 		.word	-960446272
 4234 0e28 C0C0C0C0 		.word	-1061109568
 4235 0e2c 00000000 		.word	0
 4236 0e30 00000000 		.word	0
 4237 0e34 6C6C6CFE 		.word	-26448788
 4238 0e38 6C6C6C6C 		.word	1819044972
 4239 0e3c 00000000 		.word	0
 4240 0e40 FE000000 		.word	254
 4241 0e44 183060C6 		.word	-966774760
 4242 0e48 FEC66030 		.word	811648766
 4243 0e4c 00000000 		.word	0
 4244 0e50 00000000 		.word	0
 4245 0e54 D8D87E00 		.word	8313048
 4246 0e58 70D8D8D8 		.word	-656877456
 4247 0e5c 00000000 		.word	0
 4248 0e60 00000000 		.word	0
 4249 0e64 66666666 		.word	1717986918
 4250 0e68 60607C66 		.word	1719427168
 4251 0e6c 000000C0 		.word	-1073741824
 4252 0e70 00000000 		.word	0
 4253 0e74 1818DC76 		.word	1994135576
 4254 0e78 18181818 		.word	404232216
 4255 0e7c 00000000 		.word	0
 4256 0e80 7E000000 		.word	126
 4257 0e84 66663C18 		.word	406611558
 4258 0e88 7E183C66 		.word	1715214462
 4259 0e8c 00000000 		.word	0
 4260 0e90 38000000 		.word	56
 4261 0e94 FEC6C66C 		.word	1824966398
 4262 0e98 386CC6C6 		.word	-960074696
 4263 0e9c 00000000 		.word	0
 4264 0ea0 6C380000 		.word	14444
 4265 0ea4 6CC6C6C6 		.word	-960051604
 4266 0ea8 EE6C6C6C 		.word	1819045102
 4267 0eac 00000000 		.word	0
 4268 0eb0 301E0000 		.word	7728
 4269 0eb4 663E0C18 		.word	403455590
 4270 0eb8 3C666666 		.word	1717986876
 4271 0ebc 00000000 		.word	0
 4272 0ec0 00000000 		.word	0
 4273 0ec4 DBDB7E00 		.word	8313819
 4274 0ec8 00007EDB 		.word	-612499456
 4275 0ecc 00000000 		.word	0
ARM GAS  C:\Users\ldebo\AppData\Local\Temp\ccISOhOE.s 			page 76


 4276 0ed0 03000000 		.word	3
 4277 0ed4 DBDB7E06 		.word	108977115
 4278 0ed8 C0607EF3 		.word	-209821504
 4279 0edc 00000000 		.word	0
 4280 0ee0 301C0000 		.word	7216
 4281 0ee4 607C6060 		.word	1616936032
 4282 0ee8 1C306060 		.word	1616916508
 4283 0eec 00000000 		.word	0
 4284 0ef0 7C000000 		.word	124
 4285 0ef4 C6C6C6C6 		.word	-960051514
 4286 0ef8 C6C6C6C6 		.word	-960051514
 4287 0efc 00000000 		.word	0
 4288 0f00 00000000 		.word	0
 4289 0f04 FE0000FE 		.word	-33554178
 4290 0f08 00FE0000 		.word	65024
 4291 0f0c 00000000 		.word	0
 4292 0f10 00000000 		.word	0
 4293 0f14 187E1818 		.word	404258328
 4294 0f18 FF000018 		.word	402653439
 4295 0f1c 00000000 		.word	0
 4296 0f20 30000000 		.word	48
 4297 0f24 0C060C18 		.word	403441164
 4298 0f28 7E003018 		.word	405799038
 4299 0f2c 00000000 		.word	0
 4300 0f30 0C000000 		.word	12
 4301 0f34 30603018 		.word	405823536
 4302 0f38 7E000C18 		.word	403439742
 4303 0f3c 00000000 		.word	0
 4304 0f40 1B0E0000 		.word	3611
 4305 0f44 1818181B 		.word	454563864
 4306 0f48 18181818 		.word	404232216
 4307 0f4c 18181818 		.word	404232216
 4308 0f50 18181818 		.word	404232216
 4309 0f54 18181818 		.word	404232216
 4310 0f58 70D8D8D8 		.word	-656877456
 4311 0f5c 00000000 		.word	0
 4312 0f60 00000000 		.word	0
 4313 0f64 7E001818 		.word	404226174
 4314 0f68 00181800 		.word	1579008
 4315 0f6c 00000000 		.word	0
 4316 0f70 00000000 		.word	0
 4317 0f74 00DC7600 		.word	7789568
 4318 0f78 0000DC76 		.word	1994129408
 4319 0f7c 00000000 		.word	0
 4320 0f80 6C6C3800 		.word	3697772
 4321 0f84 00000038 		.word	939524096
 4322 0f88 00000000 		.word	0
 4323 0f8c 00000000 		.word	0
 4324 0f90 00000000 		.word	0
 4325 0f94 18000000 		.word	24
 4326 0f98 00000018 		.word	402653184
 4327 0f9c 00000000 		.word	0
 4328 0fa0 00000000 		.word	0
 4329 0fa4 00000000 		.word	0
 4330 0fa8 00000018 		.word	402653184
 4331 0fac 00000000 		.word	0
 4332 0fb0 0C0C0F00 		.word	986124
ARM GAS  C:\Users\ldebo\AppData\Local\Temp\ccISOhOE.s 			page 77


 4333 0fb4 EC0C0C0C 		.word	202116332
 4334 0fb8 1C3C6C6C 		.word	1819032604
 4335 0fbc 00000000 		.word	0
 4336 0fc0 6C6CD800 		.word	14183532
 4337 0fc4 006C6C6C 		.word	1819044864
 4338 0fc8 00000000 		.word	0
 4339 0fcc 00000000 		.word	0
 4340 0fd0 30D87000 		.word	7395376
 4341 0fd4 00F8C860 		.word	1623783424
 4342 0fd8 00000000 		.word	0
 4343 0fdc 00000000 		.word	0
 4344 0fe0 00000000 		.word	0
 4345 0fe4 7C7C7C7C 		.word	2088533116
 4346 0fe8 007C7C7C 		.word	2088532992
 4347 0fec 00000000 		.word	0
 4348 0ff0 00000000 		.word	0
 4349 0ff4 00000000 		.word	0
 4350 0ff8 00000000 		.word	0
 4351 0ffc 00000000 		.word	0
 4352              		.data
 4353              		.align	2
 4354              		.set	.LANCHOR2,. + 0
 4355              		.type	_ZL16ActivityGPIOPort, %object
 4356              		.size	_ZL16ActivityGPIOPort, 4
 4357              	_ZL16ActivityGPIOPort:
 4358 0000 2F000000 		.word	47
 4359              		.bss
 4360              		.align	2
 4361              		.set	.LANCHOR1,. + 0
 4362              		.type	_ZL16ModelCheckHasRun, %object
 4363              		.size	_ZL16ModelCheckHasRun, 1
 4364              	_ZL16ModelCheckHasRun:
 4365 0000 00       		.space	1
 4366 0001 000000   		.space	3
 4367              		.type	console, %object
 4368              		.size	console, 72
 4369              	console:
 4370 0004 00000000 		.space	72
 4370      00000000 
 4370      00000000 
 4370      00000000 
 4370      00000000 
 4371              		.type	_ZZ5_sbrkE8heap_end, %object
 4372              		.size	_ZZ5_sbrkE8heap_end, 4
 4373              	_ZZ5_sbrkE8heap_end:
 4374 004c 00000000 		.space	4
 4375              		.section	.rodata.str1.4,"aMS",%progbits,1
 4376              		.align	2
 4377              	.LC0:
 4378 0000 61726D31 		.ascii	"arm1176jzf-s\000"
 4378      3137366A 
 4378      7A662D73 
 4378      00
 4379 000d 000000   		.space	3
 4380              	.LC1:
 4381 0010 636F7274 		.ascii	"cortex-a7\000"
 4381      65782D61 
ARM GAS  C:\Users\ldebo\AppData\Local\Temp\ccISOhOE.s 			page 78


 4381      3700
 4382 001a 0000     		.space	2
 4383              	.LC2:
 4384 001c 636F7274 		.ascii	"cortex-a53\000"
 4384      65782D61 
 4384      353300
 4385 0027 00       		.space	1
 4386              	.LC3:
 4387 0028 756E6B6E 		.ascii	"unknown ARM cpu\000"
 4387      6F776E20 
 4387      41524D20 
 4387      63707500 
 4388              	.LC4:
 4389 0038 43505520 		.ascii	"CPU frequency set to %u Hz\012\000"
 4389      66726571 
 4389      75656E63 
 4389      79207365 
 4389      7420746F 
 4390              	.LC5:
 4391 0054 536D6172 		.ascii	"SmartStart v2.02 compiled for Arm%d, AARCH%d with %"
 4391      74537461 
 4391      72742076 
 4391      322E3032 
 4391      20636F6D 
 4392 0087 7520636F 		.ascii	"u core s/w support\012\000"
 4392      72652073 
 4392      2F772073 
 4392      7570706F 
 4392      72740A00 
 4393 009b 00       		.space	1
 4394              	.LC6:
 4395 009c 44657465 		.ascii	"Detected %s CPU, part id: 0x%03X, Cores made ready "
 4395      63746564 
 4395      20257320 
 4395      4350552C 
 4395      20706172 
 4396 00cf 666F7220 		.ascii	"for use: %u\012\000"
 4396      7573653A 
 4396      2025750A 
 4396      00
 4397              	.LC7:
 4398 00dc 53637265 		.ascii	"Screen resolution %i x %i Colour Depth: %i\012\000"
 4398      656E2072 
 4398      65736F6C 
 4398      7574696F 
 4398      6E202569 
 4399              		.ident	"GCC: (GNU Tools for ARM Embedded Processors 6-2017-q2-update) 6.3.1 20170620 (release) [AR
ARM GAS  C:\Users\ldebo\AppData\Local\Temp\ccISOhOE.s 			page 79


DEFINED SYMBOLS
                            *ABS*:00000000 rpi-SmartStart.C
C:\Users\ldebo\AppData\Local\Temp\ccISOhOE.s:14     .text:00000000 $a
C:\Users\ldebo\AppData\Local\Temp\ccISOhOE.s:19     .text:00000000 _ZL11ClearArea16P8tagINTDCjjjj
C:\Users\ldebo\AppData\Local\Temp\ccISOhOE.s:68     .text:00000098 _ZL10VertLine16P8tagINTDCji
C:\Users\ldebo\AppData\Local\Temp\ccISOhOE.s:125    .text:0000014c _ZL10HorzLine16P8tagINTDCji
C:\Users\ldebo\AppData\Local\Temp\ccISOhOE.s:171    .text:000001d8 _ZL10DiagLine16P8tagINTDCjjii
C:\Users\ldebo\AppData\Local\Temp\ccISOhOE.s:250    .text:000002e4 _ZL11WriteChar16P8tagINTDCh
C:\Users\ldebo\AppData\Local\Temp\ccISOhOE.s:327    .text:000003f4 $d
C:\Users\ldebo\AppData\Local\Temp\ccISOhOE.s:329    .text:000003f8 $a
C:\Users\ldebo\AppData\Local\Temp\ccISOhOE.s:334    .text:000003f8 _ZL22TransparentWriteChar16P8tagINTDCh
C:\Users\ldebo\AppData\Local\Temp\ccISOhOE.s:393    .text:000004c0 $d
C:\Users\ldebo\AppData\Local\Temp\ccISOhOE.s:395    .text:000004c4 $a
C:\Users\ldebo\AppData\Local\Temp\ccISOhOE.s:400    .text:000004c4 _ZL10PutImage16P8tagINTDCjj7HBITMAPb
C:\Users\ldebo\AppData\Local\Temp\ccISOhOE.s:464    .text:00000588 _ZL11ClearArea24P8tagINTDCjjjj
C:\Users\ldebo\AppData\Local\Temp\ccISOhOE.s:504    .text:000005fc _ZL10VertLine24P8tagINTDCji
C:\Users\ldebo\AppData\Local\Temp\ccISOhOE.s:554    .text:00000694 _ZL10HorzLine24P8tagINTDCji
C:\Users\ldebo\AppData\Local\Temp\ccISOhOE.s:593    .text:00000704 _ZL10DiagLine24P8tagINTDCjjii
C:\Users\ldebo\AppData\Local\Temp\ccISOhOE.s:662    .text:000007e8 _ZL11WriteChar24P8tagINTDCh
C:\Users\ldebo\AppData\Local\Temp\ccISOhOE.s:710    .text:00000888 $d
C:\Users\ldebo\AppData\Local\Temp\ccISOhOE.s:712    .text:0000088c $a
C:\Users\ldebo\AppData\Local\Temp\ccISOhOE.s:717    .text:0000088c _ZL22TransparentWriteChar24P8tagINTDCh
C:\Users\ldebo\AppData\Local\Temp\ccISOhOE.s:775    .text:00000948 $d
C:\Users\ldebo\AppData\Local\Temp\ccISOhOE.s:777    .text:0000094c $a
C:\Users\ldebo\AppData\Local\Temp\ccISOhOE.s:782    .text:0000094c _ZL10PutImage24P8tagINTDCjj7HBITMAPb
C:\Users\ldebo\AppData\Local\Temp\ccISOhOE.s:841    .text:000009fc _ZL11ClearArea32P8tagINTDCjjjj
C:\Users\ldebo\AppData\Local\Temp\ccISOhOE.s:876    .text:00000a5c _ZL10VertLine32P8tagINTDCji
C:\Users\ldebo\AppData\Local\Temp\ccISOhOE.s:917    .text:00000ad0 _ZL10HorzLine32P8tagINTDCji
C:\Users\ldebo\AppData\Local\Temp\ccISOhOE.s:949    .text:00000b24 _ZL10DiagLine32P8tagINTDCjjii
C:\Users\ldebo\AppData\Local\Temp\ccISOhOE.s:995    .text:00000bb0 _ZL11WriteChar32P8tagINTDCh
C:\Users\ldebo\AppData\Local\Temp\ccISOhOE.s:1039   .text:00000c3c $d
C:\Users\ldebo\AppData\Local\Temp\ccISOhOE.s:1041   .text:00000c40 $a
C:\Users\ldebo\AppData\Local\Temp\ccISOhOE.s:1046   .text:00000c40 _ZL22TransparentWriteChar32P8tagINTDCh
C:\Users\ldebo\AppData\Local\Temp\ccISOhOE.s:1085   .text:00000cbc $d
C:\Users\ldebo\AppData\Local\Temp\ccISOhOE.s:1087   .text:00000cc0 $a
C:\Users\ldebo\AppData\Local\Temp\ccISOhOE.s:1092   .text:00000cc0 _ZL10PutImage32P8tagINTDCjj7HBITMAPb
C:\Users\ldebo\AppData\Local\Temp\ccISOhOE.s:1139   .text:00000d4c mailbox_tag_message.constprop.6
C:\Users\ldebo\AppData\Local\Temp\ccISOhOE.s:1209   .text:00000e34 $d
C:\Users\ldebo\AppData\Local\Temp\ccISOhOE.s:1211   .text:00000e38 $a
C:\Users\ldebo\AppData\Local\Temp\ccISOhOE.s:1216   .text:00000e38 mailbox_tag_message.constprop.4
C:\Users\ldebo\AppData\Local\Temp\ccISOhOE.s:1276   .text:00000f04 $d
C:\Users\ldebo\AppData\Local\Temp\ccISOhOE.s:1278   .text:00000f08 $a
C:\Users\ldebo\AppData\Local\Temp\ccISOhOE.s:1283   .text:00000f08 mailbox_tag_message.constprop.7
C:\Users\ldebo\AppData\Local\Temp\ccISOhOE.s:1358   .text:00000ffc $d
C:\Users\ldebo\AppData\Local\Temp\ccISOhOE.s:1360   .text:00001000 $a
C:\Users\ldebo\AppData\Local\Temp\ccISOhOE.s:1365   .text:00001000 mailbox_tag_message.constprop.5
C:\Users\ldebo\AppData\Local\Temp\ccISOhOE.s:1440   .text:000010fc $d
C:\Users\ldebo\AppData\Local\Temp\ccISOhOE.s:1442   .text:00001100 $a
C:\Users\ldebo\AppData\Local\Temp\ccISOhOE.s:1448   .text:00001100 RPi_CpuIdString
C:\Users\ldebo\AppData\Local\Temp\ccISOhOE.s:1476   .text:0000114c $d
C:\Users\ldebo\AppData\Local\Temp\ccISOhOE.s:1484   .text:00001168 $a
C:\Users\ldebo\AppData\Local\Temp\ccISOhOE.s:1490   .text:00001168 gpio_setup
C:\Users\ldebo\AppData\Local\Temp\ccISOhOE.s:1520   .text:000011c4 $d
C:\Users\ldebo\AppData\Local\Temp\ccISOhOE.s:1523   .text:000011cc $a
C:\Users\ldebo\AppData\Local\Temp\ccISOhOE.s:1529   .text:000011cc gpio_output
C:\Users\ldebo\AppData\Local\Temp\ccISOhOE.s:1564   .text:00001234 $d
C:\Users\ldebo\AppData\Local\Temp\ccISOhOE.s:1566   .text:00001238 $a
ARM GAS  C:\Users\ldebo\AppData\Local\Temp\ccISOhOE.s 			page 80


C:\Users\ldebo\AppData\Local\Temp\ccISOhOE.s:1572   .text:00001238 gpio_input
C:\Users\ldebo\AppData\Local\Temp\ccISOhOE.s:1597   .text:0000127c $d
C:\Users\ldebo\AppData\Local\Temp\ccISOhOE.s:1599   .text:00001280 $a
C:\Users\ldebo\AppData\Local\Temp\ccISOhOE.s:1605   .text:00001280 gpio_checkEvent
C:\Users\ldebo\AppData\Local\Temp\ccISOhOE.s:1629   .text:000012c0 $d
C:\Users\ldebo\AppData\Local\Temp\ccISOhOE.s:1631   .text:000012c4 $a
C:\Users\ldebo\AppData\Local\Temp\ccISOhOE.s:1637   .text:000012c4 gpio_clearEvent
C:\Users\ldebo\AppData\Local\Temp\ccISOhOE.s:1660   .text:00001300 $d
C:\Users\ldebo\AppData\Local\Temp\ccISOhOE.s:1662   .text:00001304 $a
C:\Users\ldebo\AppData\Local\Temp\ccISOhOE.s:1668   .text:00001304 gpio_edgeDetect
C:\Users\ldebo\AppData\Local\Temp\ccISOhOE.s:1726   .text:000013c4 $d
C:\Users\ldebo\AppData\Local\Temp\ccISOhOE.s:1728   .text:000013c8 $a
C:\Users\ldebo\AppData\Local\Temp\ccISOhOE.s:1734   .text:000013c8 gpio_fixResistor
C:\Users\ldebo\AppData\Local\Temp\ccISOhOE.s:1820   .text:000014f4 $d
C:\Users\ldebo\AppData\Local\Temp\ccISOhOE.s:1822   .text:000014f8 $a
C:\Users\ldebo\AppData\Local\Temp\ccISOhOE.s:1828   .text:000014f8 timer_getTickCount
C:\Users\ldebo\AppData\Local\Temp\ccISOhOE.s:1855   .text:00001544 $d
C:\Users\ldebo\AppData\Local\Temp\ccISOhOE.s:1857   .text:00001548 $a
C:\Users\ldebo\AppData\Local\Temp\ccISOhOE.s:1863   .text:00001548 timer_wait
C:\Users\ldebo\AppData\Local\Temp\ccISOhOE.s:1902   .text:000015c4 $d
C:\Users\ldebo\AppData\Local\Temp\ccISOhOE.s:1904   .text:000015c8 $a
C:\Users\ldebo\AppData\Local\Temp\ccISOhOE.s:1910   .text:000015c8 tick_difference
C:\Users\ldebo\AppData\Local\Temp\ccISOhOE.s:1924   .text:000015d4 mailbox_write
C:\Users\ldebo\AppData\Local\Temp\ccISOhOE.s:1949   .text:00001614 $d
C:\Users\ldebo\AppData\Local\Temp\ccISOhOE.s:1951   .text:00001618 $a
C:\Users\ldebo\AppData\Local\Temp\ccISOhOE.s:1957   .text:00001618 mailbox_read
C:\Users\ldebo\AppData\Local\Temp\ccISOhOE.s:1983   .text:0000165c $d
C:\Users\ldebo\AppData\Local\Temp\ccISOhOE.s:1986   .text:00001664 $a
C:\Users\ldebo\AppData\Local\Temp\ccISOhOE.s:1992   .text:00001664 mailbox_tag_message
C:\Users\ldebo\AppData\Local\Temp\ccISOhOE.s:2078   .text:00001780 $d
C:\Users\ldebo\AppData\Local\Temp\ccISOhOE.s:2081   .text:00001784 $a
C:\Users\ldebo\AppData\Local\Temp\ccISOhOE.s:2087   .text:00001784 TimerIrqSetup
C:\Users\ldebo\AppData\Local\Temp\ccISOhOE.s:2151   .text:00001868 $d
C:\Users\ldebo\AppData\Local\Temp\ccISOhOE.s:2156   .text:00001878 $a
C:\Users\ldebo\AppData\Local\Temp\ccISOhOE.s:2162   .text:00001878 set_Activity_LED
C:\Users\ldebo\AppData\Local\Temp\ccISOhOE.s:2261   .text:000019c8 $d
C:\Users\ldebo\AppData\Local\Temp\ccISOhOE.s:2270   .text:000019e8 $a
C:\Users\ldebo\AppData\Local\Temp\ccISOhOE.s:2276   .text:000019e8 ARM_setmaxspeed
C:\Users\ldebo\AppData\Local\Temp\ccISOhOE.s:2329   .text:00001a90 $d
C:\Users\ldebo\AppData\Local\Temp\ccISOhOE.s:2333   .text:00001a9c $a
C:\Users\ldebo\AppData\Local\Temp\ccISOhOE.s:2339   .text:00001a9c displaySmartStart
C:\Users\ldebo\AppData\Local\Temp\ccISOhOE.s:2385   .text:00001b30 $d
C:\Users\ldebo\AppData\Local\Temp\ccISOhOE.s:2397   .text:00001b5c $a
C:\Users\ldebo\AppData\Local\Temp\ccISOhOE.s:2403   .text:00001b5c Embedded_Console_WriteChar
C:\Users\ldebo\AppData\Local\Temp\ccISOhOE.s:2456   .text:00001c0c $d
C:\Users\ldebo\AppData\Local\Temp\ccISOhOE.s:2458   .text:00001c10 $a
C:\Users\ldebo\AppData\Local\Temp\ccISOhOE.s:2464   .text:00001c10 WriteText
C:\Users\ldebo\AppData\Local\Temp\ccISOhOE.s:2529   .text:00001ce8 $d
C:\Users\ldebo\AppData\Local\Temp\ccISOhOE.s:2531   .text:00001cec $a
C:\Users\ldebo\AppData\Local\Temp\ccISOhOE.s:2537   .text:00001cec SetDCPenColor
C:\Users\ldebo\AppData\Local\Temp\ccISOhOE.s:2553   .text:00001d00 SetDCBrushColor
C:\Users\ldebo\AppData\Local\Temp\ccISOhOE.s:2569   .text:00001d14 MoveToEx
C:\Users\ldebo\AppData\Local\Temp\ccISOhOE.s:2594   .text:00001d4c LineTo
C:\Users\ldebo\AppData\Local\Temp\ccISOhOE.s:2649   .text:00001dec TextOut
C:\Users\ldebo\AppData\Local\Temp\ccISOhOE.s:2683   .text:00001e54 $d
C:\Users\ldebo\AppData\Local\Temp\ccISOhOE.s:2685   .text:00001e58 $a
C:\Users\ldebo\AppData\Local\Temp\ccISOhOE.s:2691   .text:00001e58 TransparentTextOut
ARM GAS  C:\Users\ldebo\AppData\Local\Temp\ccISOhOE.s 			page 81


C:\Users\ldebo\AppData\Local\Temp\ccISOhOE.s:2724   .text:00001eb8 $d
C:\Users\ldebo\AppData\Local\Temp\ccISOhOE.s:2726   .text:00001ebc $a
C:\Users\ldebo\AppData\Local\Temp\ccISOhOE.s:2732   .text:00001ebc BmpOut
C:\Users\ldebo\AppData\Local\Temp\ccISOhOE.s:2764   .text:00001f0c CvtBmpLine
C:\Users\ldebo\AppData\Local\Temp\ccISOhOE.s:2965   .text:000021cc Rectangle
C:\Users\ldebo\AppData\Local\Temp\ccISOhOE.s:2990   .text:00002200 PiConsole_Init
C:\Users\ldebo\AppData\Local\Temp\ccISOhOE.s:3153   .text:00002444 $d
C:\Users\ldebo\AppData\Local\Temp\ccISOhOE.s:3182   .text:000024b4 $a
C:\Users\ldebo\AppData\Local\Temp\ccISOhOE.s:3188   .text:000024b4 GetConsoleDC
C:\Users\ldebo\AppData\Local\Temp\ccISOhOE.s:3197   .text:000024bc $d
C:\Users\ldebo\AppData\Local\Temp\ccISOhOE.s:3199   .text:000024c0 $a
C:\Users\ldebo\AppData\Local\Temp\ccISOhOE.s:3205   .text:000024c0 GetConsole_FrameBuffer
C:\Users\ldebo\AppData\Local\Temp\ccISOhOE.s:3215   .text:000024cc $d
C:\Users\ldebo\AppData\Local\Temp\ccISOhOE.s:3217   .text:000024d0 $a
C:\Users\ldebo\AppData\Local\Temp\ccISOhOE.s:3223   .text:000024d0 GetConsole_Width
C:\Users\ldebo\AppData\Local\Temp\ccISOhOE.s:3233   .text:000024dc $d
C:\Users\ldebo\AppData\Local\Temp\ccISOhOE.s:3235   .text:000024e0 $a
C:\Users\ldebo\AppData\Local\Temp\ccISOhOE.s:3241   .text:000024e0 GetConsole_Height
C:\Users\ldebo\AppData\Local\Temp\ccISOhOE.s:3251   .text:000024ec $d
C:\Users\ldebo\AppData\Local\Temp\ccISOhOE.s:3253   .text:000024f0 $a
C:\Users\ldebo\AppData\Local\Temp\ccISOhOE.s:3259   .text:000024f0 WhereXY
C:\Users\ldebo\AppData\Local\Temp\ccISOhOE.s:3275   .text:00002514 $d
C:\Users\ldebo\AppData\Local\Temp\ccISOhOE.s:3277   .text:00002518 $a
C:\Users\ldebo\AppData\Local\Temp\ccISOhOE.s:3283   .text:00002518 GotoXY
C:\Users\ldebo\AppData\Local\Temp\ccISOhOE.s:3294   .text:00002528 $d
C:\Users\ldebo\AppData\Local\Temp\ccISOhOE.s:3296   .text:0000252c $a
C:\Users\ldebo\AppData\Local\Temp\ccISOhOE.s:3302   .text:0000252c _sbrk
C:\Users\ldebo\AppData\Local\Temp\ccISOhOE.s:3318   .text:00002550 $d
C:\Users\ldebo\AppData\Local\Temp\ccISOhOE.s:4369   .bss:00000004 console
C:\Users\ldebo\AppData\Local\Temp\ccISOhOE.s:3323   .rodata:00000000 $d
C:\Users\ldebo\AppData\Local\Temp\ccISOhOE.s:3327   .rodata:00000000 _ZL7BitFont
C:\Users\ldebo\AppData\Local\Temp\ccISOhOE.s:4353   .data:00000000 $d
C:\Users\ldebo\AppData\Local\Temp\ccISOhOE.s:4357   .data:00000000 _ZL16ActivityGPIOPort
C:\Users\ldebo\AppData\Local\Temp\ccISOhOE.s:4360   .bss:00000000 $d
C:\Users\ldebo\AppData\Local\Temp\ccISOhOE.s:4364   .bss:00000000 _ZL16ModelCheckHasRun
C:\Users\ldebo\AppData\Local\Temp\ccISOhOE.s:4373   .bss:0000004c _ZZ5_sbrkE8heap_end
C:\Users\ldebo\AppData\Local\Temp\ccISOhOE.s:4376   .rodata.str1.4:00000000 $d

UNDEFINED SYMBOLS
memcpy
ARMaddrToGPUaddr
RPi_IO_Base_Addr
RPi_CpuId
__aeabi_uldivmod
setTimerIrqAddress
RPi_CompileMode
RPi_CoresReady
strlen
GPUaddrToARMaddr
_end
ARM GAS  C:\Users\ldebo\AppData\Local\Temp\ccISOhOE.s 			page 1


   1              		.arch armv6zk
   2              		.eabi_attribute 28, 1
   3              		.eabi_attribute 20, 1
   4              		.eabi_attribute 21, 1
   5              		.eabi_attribute 23, 3
   6              		.eabi_attribute 24, 1
   7              		.eabi_attribute 25, 1
   8              		.eabi_attribute 26, 1
   9              		.eabi_attribute 30, 2
  10              		.eabi_attribute 34, 0
  11              		.eabi_attribute 18, 4
  12              		.file	"emb-stdio.c"
  13              		.global	__aeabi_uidiv
  14              		.global	__aeabi_uidivmod
  15              		.text
  16              		.align	2
  17              		.syntax unified
  18              		.arm
  19              		.fpu vfp
  20              		.type	number, %function
  21              	number:
  22              		@ args = 8, pretend = 0, frame = 88
  23              		@ frame_needed = 0, uses_anonymous_args = 0
  24 0000 F04F2DE9 		push	{r4, r5, r6, r7, r8, r9, r10, fp, lr}
  25 0004 5CD04DE2 		sub	sp, sp, #92
  26 0008 00A0A0E1 		mov	r10, r0
  27 000c 84009DE5 		ldr	r0, [sp, #132]
  28 0010 00308DE5 		str	r3, [sp]
  29 0014 100010E3 		tst	r0, #16
  30 0018 0030A011 		movne	r3, r0
  31 001c 0130C313 		bicne	r3, r3, #1
  32 0020 84308D15 		strne	r3, [sp, #132]
  33 0024 023042E2 		sub	r3, r2, #2
  34 0028 0E0053E3 		cmp	r3, #14
  35 002c 0150A0E1 		mov	r5, r1
  36 0030 0260A0E1 		mov	r6, r2
  37 0034 207000E2 		and	r7, r0, #32
  38 0038 9901008A 		bhi	.L56
  39 003c 84309DE5 		ldr	r3, [sp, #132]
  40 0040 010013E3 		tst	r3, #1
  41 0044 2030A003 		moveq	r3, #32
  42 0048 3030A013 		movne	r3, #48
  43 004c 04308DE5 		str	r3, [sp, #4]
  44 0050 84309DE5 		ldr	r3, [sp, #132]
  45 0054 023013E2 		ands	r3, r3, #2
  46 0058 0C00000A 		beq	.L59
  47 005c 000051E3 		cmp	r1, #0
  48 0060 880100BA 		blt	.L148
  49 0064 84309DE5 		ldr	r3, [sp, #132]
  50 0068 040013E3 		tst	r3, #4
  51 006c 7101001A 		bne	.L149
  52 0070 083013E2 		ands	r3, r3, #8
  53 0074 0500000A 		beq	.L59
  54 0078 00309DE5 		ldr	r3, [sp]
  55 007c 013043E2 		sub	r3, r3, #1
  56 0080 00308DE5 		str	r3, [sp]
  57 0084 2030A0E3 		mov	r3, #32
ARM GAS  C:\Users\ldebo\AppData\Local\Temp\ccISOhOE.s 			page 2


  58 0088 0C308DE5 		str	r3, [sp, #12]
  59 008c 000000EA 		b	.L5
  60              	.L59:
  61 0090 0C308DE5 		str	r3, [sp, #12]
  62              	.L5:
  63 0094 84309DE5 		ldr	r3, [sp, #132]
  64 0098 403013E2 		ands	r3, r3, #64
  65 009c 08308DE5 		str	r3, [sp, #8]
  66 00a0 0500000A 		beq	.L8
  67 00a4 100056E3 		cmp	r6, #16
  68 00a8 7001000A 		beq	.L150
  69 00ac 080056E3 		cmp	r6, #8
  70 00b0 00309D05 		ldreq	r3, [sp]
  71 00b4 01304302 		subeq	r3, r3, #1
  72 00b8 00308D05 		streq	r3, [sp]
  73              	.L8:
  74 00bc 000055E3 		cmp	r5, #0
  75 00c0 4301001A 		bne	.L10
  76              	.L155:
  77 00c4 0130A0E3 		mov	r3, #1
  78 00c8 3020A0E3 		mov	r2, #48
  79 00cc 0340A0E1 		mov	r4, r3
  80 00d0 1420CDE5 		strb	r2, [sp, #20]
  81              	.L11:
  82 00d4 80209DE5 		ldr	r2, [sp, #128]
  83 00d8 84109DE5 		ldr	r1, [sp, #132]
  84 00dc 020053E1 		cmp	r3, r2
  85 00e0 0320A0A1 		movge	r2, r3
  86 00e4 110011E3 		tst	r1, #17
  87 00e8 00109DE5 		ldr	r1, [sp]
  88 00ec 029041E0 		sub	r9, r1, r2
  89 00f0 4600001A 		bne	.L13
  90 00f4 01E049E2 		sub	lr, r9, #1
  91 00f8 000059E3 		cmp	r9, #0
  92 00fc 0E00A0E1 		mov	r0, lr
  93 0100 710100DA 		ble	.L61
  94 0104 00106AE2 		rsb	r1, r10, #0
  95 0108 031001E2 		and	r1, r1, #3
  96 010c 090051E1 		cmp	r1, r9
  97 0110 0910A021 		movcs	r1, r9
  98 0114 060059E3 		cmp	r9, #6
  99 0118 0910A0D1 		movle	r1, r9
 100 011c 4B0100CA 		bgt	.L151
 101              	.L14:
 102 0120 20C0A0E3 		mov	ip, #32
 103 0124 010051E3 		cmp	r1, #1
 104 0128 00C0CAE5 		strb	ip, [r10]
 105 012c 01808AE2 		add	r8, r10, #1
 106 0130 020049E2 		sub	r0, r9, #2
 107 0134 1500000A 		beq	.L16
 108 0138 020051E3 		cmp	r1, #2
 109 013c 01C0CAE5 		strb	ip, [r10, #1]
 110 0140 02808AE2 		add	r8, r10, #2
 111 0144 030049E2 		sub	r0, r9, #3
 112 0148 1000000A 		beq	.L16
 113 014c 030051E3 		cmp	r1, #3
 114 0150 02C0CAE5 		strb	ip, [r10, #2]
ARM GAS  C:\Users\ldebo\AppData\Local\Temp\ccISOhOE.s 			page 3


 115 0154 03808AE2 		add	r8, r10, #3
 116 0158 040049E2 		sub	r0, r9, #4
 117 015c 0B00000A 		beq	.L16
 118 0160 040051E3 		cmp	r1, #4
 119 0164 03C0CAE5 		strb	ip, [r10, #3]
 120 0168 04808AE2 		add	r8, r10, #4
 121 016c 050049E2 		sub	r0, r9, #5
 122 0170 0600000A 		beq	.L16
 123 0174 060051E3 		cmp	r1, #6
 124 0178 05808AE2 		add	r8, r10, #5
 125 017c 060049E2 		sub	r0, r9, #6
 126 0180 04C0CAE5 		strb	ip, [r10, #4]
 127 0184 05C0CA05 		strbeq	ip, [r10, #5]
 128 0188 06808A02 		addeq	r8, r10, #6
 129 018c 07004902 		subeq	r0, r9, #7
 130              	.L16:
 131 0190 010059E1 		cmp	r9, r1
 132 0194 1B00000A 		beq	.L17
 133              	.L15:
 134 0198 01C049E0 		sub	ip, r9, r1
 135 019c 00C08DE5 		str	ip, [sp]
 136 01a0 04C04CE2 		sub	ip, ip, #4
 137 01a4 01E04EE0 		sub	lr, lr, r1
 138 01a8 2CC1A0E1 		lsr	ip, ip, #2
 139 01ac 01C08CE2 		add	ip, ip, #1
 140 01b0 02005EE3 		cmp	lr, #2
 141 01b4 0C51A0E1 		lsl	r5, ip, #2
 142 01b8 0B00009A 		bls	.L18
 143 01bc 00E0A0E3 		mov	lr, #0
 144 01c0 14B59FE5 		ldr	fp, .L156
 145 01c4 01108AE0 		add	r1, r10, r1
 146              	.L19:
 147 01c8 01E08EE2 		add	lr, lr, #1
 148 01cc 0E005CE1 		cmp	ip, lr
 149 01d0 04B081E4 		str	fp, [r1], #4
 150 01d4 FBFFFF8A 		bhi	.L19
 151 01d8 00109DE5 		ldr	r1, [sp]
 152 01dc 058088E0 		add	r8, r8, r5
 153 01e0 050051E1 		cmp	r1, r5
 154 01e4 050040E0 		sub	r0, r0, r5
 155 01e8 0600000A 		beq	.L17
 156              	.L18:
 157 01ec 2010A0E3 		mov	r1, #32
 158 01f0 000050E3 		cmp	r0, #0
 159 01f4 0010C8E5 		strb	r1, [r8]
 160 01f8 020000DA 		ble	.L17
 161 01fc 010050E3 		cmp	r0, #1
 162 0200 0110C8E5 		strb	r1, [r8, #1]
 163 0204 0210C8C5 		strbgt	r1, [r8, #2]
 164              	.L17:
 165 0208 09A08AE0 		add	r10, r10, r9
 166 020c 0090E0E3 		mvn	r9, #0
 167              	.L13:
 168 0210 0C109DE5 		ldr	r1, [sp, #12]
 169 0214 000051E3 		cmp	r1, #0
 170 0218 0010CA15 		strbne	r1, [r10]
 171 021c 08109DE5 		ldr	r1, [sp, #8]
ARM GAS  C:\Users\ldebo\AppData\Local\Temp\ccISOhOE.s 			page 4


 172 0220 01A08A12 		addne	r10, r10, #1
 173 0224 000051E3 		cmp	r1, #0
 174 0228 0600000A 		beq	.L24
 175 022c 080056E3 		cmp	r6, #8
 176 0230 3010A003 		moveq	r1, #48
 177 0234 0010CA05 		strbeq	r1, [r10]
 178 0238 01A08A02 		addeq	r10, r10, #1
 179 023c 0100000A 		beq	.L24
 180 0240 100056E3 		cmp	r6, #16
 181 0244 1901000A 		beq	.L152
 182              	.L24:
 183 0248 84109DE5 		ldr	r1, [sp, #132]
 184 024c 100011E3 		tst	r1, #16
 185 0250 4900001A 		bne	.L26
 186 0254 01E049E2 		sub	lr, r9, #1
 187 0258 000059E3 		cmp	r9, #0
 188 025c 0E00A0E1 		mov	r0, lr
 189 0260 1B0100DA 		ble	.L64
 190 0264 00106AE2 		rsb	r1, r10, #0
 191 0268 031001E2 		and	r1, r1, #3
 192 026c 090051E1 		cmp	r1, r9
 193 0270 0910A021 		movcs	r1, r9
 194 0274 060059E3 		cmp	r9, #6
 195 0278 0910A0D1 		movle	r1, r9
 196 027c F70000CA 		bgt	.L153
 197              	.L27:
 198 0280 04509DE5 		ldr	r5, [sp, #4]
 199 0284 010051E3 		cmp	r1, #1
 200 0288 0050CAE5 		strb	r5, [r10]
 201 028c 01C08AE2 		add	ip, r10, #1
 202 0290 020049E2 		sub	r0, r9, #2
 203 0294 1600000A 		beq	.L29
 204 0298 020051E3 		cmp	r1, #2
 205 029c 0150CAE5 		strb	r5, [r10, #1]
 206 02a0 02C08AE2 		add	ip, r10, #2
 207 02a4 030049E2 		sub	r0, r9, #3
 208 02a8 1100000A 		beq	.L29
 209 02ac 030051E3 		cmp	r1, #3
 210 02b0 0250CAE5 		strb	r5, [r10, #2]
 211 02b4 03C08AE2 		add	ip, r10, #3
 212 02b8 040049E2 		sub	r0, r9, #4
 213 02bc 0C00000A 		beq	.L29
 214 02c0 040051E3 		cmp	r1, #4
 215 02c4 0350CAE5 		strb	r5, [r10, #3]
 216 02c8 04C08AE2 		add	ip, r10, #4
 217 02cc 050049E2 		sub	r0, r9, #5
 218 02d0 0700000A 		beq	.L29
 219 02d4 060051E3 		cmp	r1, #6
 220 02d8 060049E2 		sub	r0, r9, #6
 221 02dc 0500A001 		moveq	r0, r5
 222 02e0 05C08AE2 		add	ip, r10, #5
 223 02e4 0500CA05 		strbeq	r0, [r10, #5]
 224 02e8 0450CAE5 		strb	r5, [r10, #4]
 225 02ec 06C08A02 		addeq	ip, r10, #6
 226 02f0 07004902 		subeq	r0, r9, #7
 227              	.L29:
 228 02f4 010059E1 		cmp	r9, r1
ARM GAS  C:\Users\ldebo\AppData\Local\Temp\ccISOhOE.s 			page 5


 229 02f8 1D00000A 		beq	.L30
 230              	.L28:
 231 02fc 01B049E0 		sub	fp, r9, r1
 232 0300 04504BE2 		sub	r5, fp, #4
 233 0304 01604EE0 		sub	r6, lr, r1
 234 0308 25E1A0E1 		lsr	lr, r5, #2
 235 030c 01E08EE2 		add	lr, lr, #1
 236 0310 020056E3 		cmp	r6, #2
 237 0314 0E81A0E1 		lsl	r8, lr, #2
 238 0318 0D00009A 		bls	.L31
 239 031c 0050A0E3 		mov	r5, #0
 240 0320 0470DDE5 		ldrb	r7, [sp, #4]	@ zero_extendqisi2
 241 0324 01108AE0 		add	r1, r10, r1
 242 0328 076487E1 		orr	r6, r7, r7, lsl #8
 243 032c 076886E1 		orr	r6, r6, r7, lsl #16
 244 0330 076C86E1 		orr	r6, r6, r7, lsl #24
 245              	.L32:
 246 0334 015085E2 		add	r5, r5, #1
 247 0338 05005EE1 		cmp	lr, r5
 248 033c 046081E4 		str	r6, [r1], #4
 249 0340 FBFFFF8A 		bhi	.L32
 250 0344 08005BE1 		cmp	fp, r8
 251 0348 08C08CE0 		add	ip, ip, r8
 252 034c 080040E0 		sub	r0, r0, r8
 253 0350 0700000A 		beq	.L30
 254              	.L31:
 255 0354 04109DE5 		ldr	r1, [sp, #4]
 256 0358 000050E3 		cmp	r0, #0
 257 035c 0010CCE5 		strb	r1, [ip]
 258 0360 030000DA 		ble	.L30
 259 0364 010050E3 		cmp	r0, #1
 260 0368 0110CCE5 		strb	r1, [ip, #1]
 261 036c 0410DDC5 		ldrbgt	r1, [sp, #4]	@ zero_extendqisi2
 262 0370 0210CCC5 		strbgt	r1, [ip, #2]
 263              	.L30:
 264 0374 09A08AE0 		add	r10, r10, r9
 265 0378 0090E0E3 		mvn	r9, #0
 266              	.L26:
 267 037c 020053E1 		cmp	r3, r2
 268 0380 01C042E2 		sub	ip, r2, #1
 269 0384 430000AA 		bge	.L36
 270 0388 00106AE2 		rsb	r1, r10, #0
 271 038c 031001E2 		and	r1, r1, #3
 272 0390 03E042E0 		sub	lr, r2, r3
 273 0394 0E0051E1 		cmp	r1, lr
 274 0398 0E10A021 		movcs	r1, lr
 275 039c 06005EE3 		cmp	lr, #6
 276 03a0 0E10A091 		movls	r1, lr
 277 03a4 000051E3 		cmp	r1, #0
 278 03a8 A000000A 		beq	.L67
 279 03ac 3000A0E3 		mov	r0, #48
 280 03b0 010051E3 		cmp	r1, #1
 281 03b4 0000CAE5 		strb	r0, [r10]
 282 03b8 01508AE2 		add	r5, r10, #1
 283 03bc 02C042E2 		sub	ip, r2, #2
 284 03c0 1500000A 		beq	.L39
 285 03c4 020051E3 		cmp	r1, #2
ARM GAS  C:\Users\ldebo\AppData\Local\Temp\ccISOhOE.s 			page 6


 286 03c8 0100CAE5 		strb	r0, [r10, #1]
 287 03cc 02508AE2 		add	r5, r10, #2
 288 03d0 03C042E2 		sub	ip, r2, #3
 289 03d4 1000000A 		beq	.L39
 290 03d8 030051E3 		cmp	r1, #3
 291 03dc 0200CAE5 		strb	r0, [r10, #2]
 292 03e0 03508AE2 		add	r5, r10, #3
 293 03e4 04C042E2 		sub	ip, r2, #4
 294 03e8 0B00000A 		beq	.L39
 295 03ec 040051E3 		cmp	r1, #4
 296 03f0 0300CAE5 		strb	r0, [r10, #3]
 297 03f4 04508AE2 		add	r5, r10, #4
 298 03f8 05C042E2 		sub	ip, r2, #5
 299 03fc 0600000A 		beq	.L39
 300 0400 060051E3 		cmp	r1, #6
 301 0404 05508AE2 		add	r5, r10, #5
 302 0408 06C042E2 		sub	ip, r2, #6
 303 040c 0400CAE5 		strb	r0, [r10, #4]
 304 0410 0500CA05 		strbeq	r0, [r10, #5]
 305 0414 07C04202 		subeq	ip, r2, #7
 306 0418 06508A02 		addeq	r5, r10, #6
 307              	.L39:
 308 041c 01005EE1 		cmp	lr, r1
 309 0420 1B00000A 		beq	.L40
 310              	.L38:
 311 0424 01604EE0 		sub	r6, lr, r1
 312 0428 040046E2 		sub	r0, r6, #4
 313 042c 01204EE2 		sub	r2, lr, #1
 314 0430 2001A0E1 		lsr	r0, r0, #2
 315 0434 012042E0 		sub	r2, r2, r1
 316 0438 010080E2 		add	r0, r0, #1
 317 043c 020052E3 		cmp	r2, #2
 318 0440 0071A0E1 		lsl	r7, r0, #2
 319 0444 0A00009A 		bls	.L41
 320 0448 0020A0E3 		mov	r2, #0
 321 044c 8C829FE5 		ldr	r8, .L156+4
 322 0450 01108AE0 		add	r1, r10, r1
 323              	.L42:
 324 0454 012082E2 		add	r2, r2, #1
 325 0458 020050E1 		cmp	r0, r2
 326 045c 048081E4 		str	r8, [r1], #4
 327 0460 FBFFFF8A 		bhi	.L42
 328 0464 070056E1 		cmp	r6, r7
 329 0468 075085E0 		add	r5, r5, r7
 330 046c 07C04CE0 		sub	ip, ip, r7
 331 0470 0700000A 		beq	.L40
 332              	.L41:
 333 0474 3010A0E3 		mov	r1, #48
 334 0478 0C0053E1 		cmp	r3, ip
 335 047c 01204CE2 		sub	r2, ip, #1
 336 0480 0010C5E5 		strb	r1, [r5]
 337 0484 020000AA 		bge	.L40
 338 0488 020053E1 		cmp	r3, r2
 339 048c 0110C5E5 		strb	r1, [r5, #1]
 340 0490 0210C5B5 		strblt	r1, [r5, #2]
 341              	.L40:
 342 0494 0EA08AE0 		add	r10, r10, lr
ARM GAS  C:\Users\ldebo\AppData\Local\Temp\ccISOhOE.s 			page 7


 343              	.L36:
 344 0498 14C08DE2 		add	ip, sp, #20
 345 049c 04308CE0 		add	r3, ip, r4
 346 04a0 01204AE2 		sub	r2, r10, #1
 347              	.L46:
 348 04a4 011073E5 		ldrb	r1, [r3, #-1]!	@ zero_extendqisi2
 349 04a8 0C0043E0 		sub	r0, r3, ip
 350 04ac 000050E3 		cmp	r0, #0
 351 04b0 0110E2E5 		strb	r1, [r2, #1]!
 352 04b4 FAFFFFCA 		bgt	.L46
 353 04b8 01E049E2 		sub	lr, r9, #1
 354 04bc 000059E3 		cmp	r9, #0
 355 04c0 04008AE0 		add	r0, r10, r4
 356 04c4 0EC0A0E1 		mov	ip, lr
 357 04c8 3F0000DA 		ble	.L1
 358 04cc 003060E2 		rsb	r3, r0, #0
 359 04d0 033003E2 		and	r3, r3, #3
 360 04d4 090053E1 		cmp	r3, r9
 361 04d8 0930A021 		movcs	r3, r9
 362 04dc 060059E3 		cmp	r9, #6
 363 04e0 0930A0D1 		movle	r3, r9
 364 04e4 4D0000CA 		bgt	.L154
 365              	.L47:
 366 04e8 2020A0E3 		mov	r2, #32
 367 04ec 010053E3 		cmp	r3, #1
 368 04f0 0020C0E5 		strb	r2, [r0]
 369 04f4 011080E2 		add	r1, r0, #1
 370 04f8 02C049E2 		sub	ip, r9, #2
 371 04fc 1500000A 		beq	.L49
 372 0500 020053E3 		cmp	r3, #2
 373 0504 0120C0E5 		strb	r2, [r0, #1]
 374 0508 021080E2 		add	r1, r0, #2
 375 050c 03C049E2 		sub	ip, r9, #3
 376 0510 1000000A 		beq	.L49
 377 0514 030053E3 		cmp	r3, #3
 378 0518 0220C0E5 		strb	r2, [r0, #2]
 379 051c 031080E2 		add	r1, r0, #3
 380 0520 04C049E2 		sub	ip, r9, #4
 381 0524 0B00000A 		beq	.L49
 382 0528 040053E3 		cmp	r3, #4
 383 052c 0320C0E5 		strb	r2, [r0, #3]
 384 0530 041080E2 		add	r1, r0, #4
 385 0534 05C049E2 		sub	ip, r9, #5
 386 0538 0600000A 		beq	.L49
 387 053c 060053E3 		cmp	r3, #6
 388 0540 051080E2 		add	r1, r0, #5
 389 0544 06C049E2 		sub	ip, r9, #6
 390 0548 0420C0E5 		strb	r2, [r0, #4]
 391 054c 0520C005 		strbeq	r2, [r0, #5]
 392 0550 06108002 		addeq	r1, r0, #6
 393 0554 07C04902 		subeq	ip, r9, #7
 394              	.L49:
 395 0558 030059E1 		cmp	r9, r3
 396 055c 1900000A 		beq	.L50
 397              	.L48:
 398 0560 035049E0 		sub	r5, r9, r3
 399 0564 042045E2 		sub	r2, r5, #4
ARM GAS  C:\Users\ldebo\AppData\Local\Temp\ccISOhOE.s 			page 8


 400 0568 03E04EE0 		sub	lr, lr, r3
 401 056c 2221A0E1 		lsr	r2, r2, #2
 402 0570 012082E2 		add	r2, r2, #1
 403 0574 02005EE3 		cmp	lr, #2
 404 0578 0241A0E1 		lsl	r4, r2, #2
 405 057c 0A00009A 		bls	.L51
 406 0580 00E0A0E3 		mov	lr, #0
 407 0584 50619FE5 		ldr	r6, .L156
 408 0588 033080E0 		add	r3, r0, r3
 409              	.L52:
 410 058c 01E08EE2 		add	lr, lr, #1
 411 0590 0E0052E1 		cmp	r2, lr
 412 0594 046083E4 		str	r6, [r3], #4
 413 0598 FBFFFF8A 		bhi	.L52
 414 059c 050054E1 		cmp	r4, r5
 415 05a0 041081E0 		add	r1, r1, r4
 416 05a4 04C04CE0 		sub	ip, ip, r4
 417 05a8 0600000A 		beq	.L50
 418              	.L51:
 419 05ac 2030A0E3 		mov	r3, #32
 420 05b0 00005CE3 		cmp	ip, #0
 421 05b4 0030C1E5 		strb	r3, [r1]
 422 05b8 020000DA 		ble	.L50
 423 05bc 01005CE3 		cmp	ip, #1
 424 05c0 0130C1E5 		strb	r3, [r1, #1]
 425 05c4 0230C1C5 		strbgt	r3, [r1, #2]
 426              	.L50:
 427 05c8 090080E0 		add	r0, r0, r9
 428              	.L1:
 429 05cc 5CD08DE2 		add	sp, sp, #92
 430              		@ sp needed
 431 05d0 F08FBDE8 		pop	{r4, r5, r6, r7, r8, r9, r10, fp, pc}
 432              	.L10:
 433 05d4 0040A0E3 		mov	r4, #0
 434 05d8 04819FE5 		ldr	r8, .L156+8
 435 05dc 13908DE2 		add	r9, sp, #19
 436              	.L12:
 437 05e0 0500A0E1 		mov	r0, r5
 438 05e4 0610A0E1 		mov	r1, r6
 439 05e8 FEFFFFEB 		bl	__aeabi_uidiv
 440 05ec 05B0A0E1 		mov	fp, r5
 441 05f0 0610A0E1 		mov	r1, r6
 442 05f4 0050A0E1 		mov	r5, r0
 443 05f8 0B00A0E1 		mov	r0, fp
 444 05fc FEFFFFEB 		bl	__aeabi_uidivmod
 445 0600 0130D8E7 		ldrb	r3, [r8, r1]	@ zero_extendqisi2
 446 0604 014084E2 		add	r4, r4, #1
 447 0608 033087E1 		orr	r3, r7, r3
 448 060c 000055E3 		cmp	r5, #0
 449 0610 0130E9E5 		strb	r3, [r9, #1]!
 450 0614 0430A0E1 		mov	r3, r4
 451 0618 F0FFFF1A 		bne	.L12
 452 061c ACFEFFEA 		b	.L11
 453              	.L154:
 454 0620 000053E3 		cmp	r3, #0
 455 0624 0010A001 		moveq	r1, r0
 456 0628 CCFFFF0A 		beq	.L48
ARM GAS  C:\Users\ldebo\AppData\Local\Temp\ccISOhOE.s 			page 9


 457 062c ADFFFFEA 		b	.L47
 458              	.L67:
 459 0630 0A50A0E1 		mov	r5, r10
 460 0634 7AFFFFEA 		b	.L38
 461              	.L149:
 462 0638 00309DE5 		ldr	r3, [sp]
 463 063c 013043E2 		sub	r3, r3, #1
 464 0640 00308DE5 		str	r3, [sp]
 465 0644 2B30A0E3 		mov	r3, #43
 466 0648 0C308DE5 		str	r3, [sp, #12]
 467 064c 90FEFFEA 		b	.L5
 468              	.L151:
 469 0650 000051E3 		cmp	r1, #0
 470 0654 0A80A001 		moveq	r8, r10
 471 0658 CEFEFF0A 		beq	.L15
 472 065c AFFEFFEA 		b	.L14
 473              	.L153:
 474 0660 000051E3 		cmp	r1, #0
 475 0664 0AC0A001 		moveq	ip, r10
 476 0668 23FFFF0A 		beq	.L28
 477 066c 03FFFFEA 		b	.L27
 478              	.L150:
 479 0670 00309DE5 		ldr	r3, [sp]
 480 0674 000055E3 		cmp	r5, #0
 481 0678 023043E2 		sub	r3, r3, #2
 482 067c 00308DE5 		str	r3, [sp]
 483 0680 D3FFFF1A 		bne	.L10
 484 0684 8EFEFFEA 		b	.L155
 485              	.L148:
 486 0688 00309DE5 		ldr	r3, [sp]
 487 068c 005061E2 		rsb	r5, r1, #0
 488 0690 013043E2 		sub	r3, r3, #1
 489 0694 00308DE5 		str	r3, [sp]
 490 0698 2D30A0E3 		mov	r3, #45
 491 069c 0C308DE5 		str	r3, [sp, #12]
 492 06a0 7BFEFFEA 		b	.L5
 493              	.L56:
 494 06a4 0000A0E3 		mov	r0, #0
 495 06a8 5CD08DE2 		add	sp, sp, #92
 496              		@ sp needed
 497 06ac F08FBDE8 		pop	{r4, r5, r6, r7, r8, r9, r10, fp, pc}
 498              	.L152:
 499 06b0 0A10A0E1 		mov	r1, r10
 500 06b4 3000A0E3 		mov	r0, #48
 501 06b8 587087E3 		orr	r7, r7, #88
 502 06bc 0200C1E4 		strb	r0, [r1], #2
 503 06c0 0170CAE5 		strb	r7, [r10, #1]
 504 06c4 01A0A0E1 		mov	r10, r1
 505 06c8 DEFEFFEA 		b	.L24
 506              	.L61:
 507 06cc 0E90A0E1 		mov	r9, lr
 508 06d0 CEFEFFEA 		b	.L13
 509              	.L64:
 510 06d4 0E90A0E1 		mov	r9, lr
 511 06d8 27FFFFEA 		b	.L26
 512              	.L157:
 513              		.align	2
ARM GAS  C:\Users\ldebo\AppData\Local\Temp\ccISOhOE.s 			page 10


 514              	.L156:
 515 06dc 20202020 		.word	538976288
 516 06e0 30303030 		.word	808464432
 517 06e4 00000000 		.word	.LANCHOR0
 518              		.size	number, .-number
 519              		.align	2
 520              		.weak	strnlen
 521              		.syntax unified
 522              		.arm
 523              		.fpu vfp
 524              		.type	strnlen, %function
 525              	strnlen:
 526              		@ args = 0, pretend = 0, frame = 0
 527              		@ frame_needed = 0, uses_anonymous_args = 0
 528              		@ link register save eliminated.
 529 06e8 000051E3 		cmp	r1, #0
 530 06ec 0B00000A 		beq	.L161
 531 06f0 0030D0E5 		ldrb	r3, [r0]	@ zero_extendqisi2
 532 06f4 000053E3 		cmp	r3, #0
 533 06f8 0A00000A 		beq	.L162
 534 06fc 0030A0E1 		mov	r3, r0
 535 0700 0000A0E3 		mov	r0, #0
 536              	.L160:
 537 0704 010080E2 		add	r0, r0, #1
 538 0708 000051E1 		cmp	r1, r0
 539 070c 1EFF2F01 		bxeq	lr
 540 0710 0120F3E5 		ldrb	r2, [r3, #1]!	@ zero_extendqisi2
 541 0714 000052E3 		cmp	r2, #0
 542 0718 F9FFFF1A 		bne	.L160
 543 071c 1EFF2FE1 		bx	lr
 544              	.L161:
 545 0720 0100A0E1 		mov	r0, r1
 546 0724 1EFF2FE1 		bx	lr
 547              	.L162:
 548 0728 0300A0E1 		mov	r0, r3
 549 072c 1EFF2FE1 		bx	lr
 550              		.size	strnlen, .-strnlen
 551              		.align	2
 552              		.global	emb_vsprintf
 553              		.syntax unified
 554              		.arm
 555              		.fpu vfp
 556              		.type	emb_vsprintf, %function
 557              	emb_vsprintf:
 558              		@ args = 0, pretend = 0, frame = 8
 559              		@ frame_needed = 0, uses_anonymous_args = 0
 560 0730 F04F2DE9 		push	{r4, r5, r6, r7, r8, r9, r10, fp, lr}
 561 0734 0030D1E5 		ldrb	r3, [r1]	@ zero_extendqisi2
 562 0738 14D04DE2 		sub	sp, sp, #20
 563 073c 000053E3 		cmp	r3, #0
 564 0740 0050A0E1 		mov	r5, r0
 565 0744 F002000A 		beq	.L262
 566 0748 0180A0E1 		mov	r8, r1
 567 074c 0260A0E1 		mov	r6, r2
 568 0750 00B0A0E1 		mov	fp, r0
 569 0754 0070E0E3 		mvn	r7, #0
 570 0758 F4AB9FE5 		ldr	r10, .L375
ARM GAS  C:\Users\ldebo\AppData\Local\Temp\ccISOhOE.s 			page 11


 571 075c 050000EA 		b	.L255
 572              	.L368:
 573 0760 0030C5E5 		strb	r3, [r5]
 574 0764 0130D8E5 		ldrb	r3, [r8, #1]	@ zero_extendqisi2
 575 0768 015085E2 		add	r5, r5, #1
 576              	.L169:
 577 076c 000053E3 		cmp	r3, #0
 578 0770 018088E2 		add	r8, r8, #1
 579 0774 0D01000A 		beq	.L249
 580              	.L255:
 581 0778 250053E3 		cmp	r3, #37
 582 077c 0090A003 		moveq	r9, #0
 583 0780 F6FFFF1A 		bne	.L368
 584              	.L168:
 585 0784 0120D8E5 		ldrb	r2, [r8, #1]	@ zero_extendqisi2
 586 0788 014088E2 		add	r4, r8, #1
 587 078c 203042E2 		sub	r3, r2, #32
 588 0790 100053E3 		cmp	r3, #16
 589 0794 03F19F97 		ldrls	pc, [pc, r3, asl #2]
 590 0798 1B0000EA 		b	.L170
 591              	.L172:
 592 079c 04080000 		.word	.L171
 593 07a0 0C080000 		.word	.L170
 594 07a4 0C080000 		.word	.L170
 595 07a8 FC070000 		.word	.L173
 596 07ac 0C080000 		.word	.L170
 597 07b0 0C080000 		.word	.L170
 598 07b4 0C080000 		.word	.L170
 599 07b8 0C080000 		.word	.L170
 600 07bc 0C080000 		.word	.L170
 601 07c0 0C080000 		.word	.L170
 602 07c4 0C080000 		.word	.L170
 603 07c8 F4070000 		.word	.L174
 604 07cc 0C080000 		.word	.L170
 605 07d0 EC070000 		.word	.L175
 606 07d4 0C080000 		.word	.L170
 607 07d8 0C080000 		.word	.L170
 608 07dc E0070000 		.word	.L176
 609              	.L176:
 610 07e0 019089E3 		orr	r9, r9, #1
 611              	.L177:
 612 07e4 0480A0E1 		mov	r8, r4
 613 07e8 E5FFFFEA 		b	.L168
 614              	.L175:
 615 07ec 109089E3 		orr	r9, r9, #16
 616 07f0 FBFFFFEA 		b	.L177
 617              	.L174:
 618 07f4 049089E3 		orr	r9, r9, #4
 619 07f8 F9FFFFEA 		b	.L177
 620              	.L173:
 621 07fc 409089E3 		orr	r9, r9, #64
 622 0800 F7FFFFEA 		b	.L177
 623              	.L171:
 624 0804 089089E3 		orr	r9, r9, #8
 625 0808 F5FFFFEA 		b	.L177
 626              	.L170:
 627 080c 303042E2 		sub	r3, r2, #48
ARM GAS  C:\Users\ldebo\AppData\Local\Temp\ccISOhOE.s 			page 12


 628 0810 090053E3 		cmp	r3, #9
 629 0814 6600008A 		bhi	.L369
 630 0818 0030A0E3 		mov	r3, #0
 631              	.L257:
 632 081c 033183E0 		add	r3, r3, r3, lsl #2
 633 0820 833082E0 		add	r3, r2, r3, lsl #1
 634 0824 0120F4E5 		ldrb	r2, [r4, #1]!	@ zero_extendqisi2
 635 0828 303043E2 		sub	r3, r3, #48
 636 082c 301042E2 		sub	r1, r2, #48
 637 0830 090051E3 		cmp	r1, #9
 638 0834 F8FFFF9A 		bls	.L257
 639              	.L181:
 640 0838 2E0052E3 		cmp	r2, #46
 641 083c 07C0A011 		movne	ip, r7
 642 0840 6800000A 		beq	.L370
 643              	.L182:
 644 0844 DF1002E2 		and	r1, r2, #223
 645 0848 680052E3 		cmp	r2, #104
 646 084c 4C005113 		cmpne	r1, #76
 647 0850 7400000A 		beq	.L371
 648 0854 252042E2 		sub	r2, r2, #37
 649 0858 530052E3 		cmp	r2, #83
 650 085c 02F19F97 		ldrls	pc, [pc, r2, asl #2]
 651 0860 CC0000EA 		b	.L186
 652              	.L261:
 653 0864 BC110000 		.word	.L187
 654 0868 980B0000 		.word	.L186
 655 086c 980B0000 		.word	.L186
 656 0870 980B0000 		.word	.L186
 657 0874 980B0000 		.word	.L186
 658 0878 980B0000 		.word	.L186
 659 087c 980B0000 		.word	.L186
 660 0880 980B0000 		.word	.L186
 661 0884 980B0000 		.word	.L186
 662 0888 980B0000 		.word	.L186
 663 088c 980B0000 		.word	.L186
 664 0890 980B0000 		.word	.L186
 665 0894 980B0000 		.word	.L186
 666 0898 980B0000 		.word	.L186
 667 089c 980B0000 		.word	.L186
 668 08a0 980B0000 		.word	.L186
 669 08a4 980B0000 		.word	.L186
 670 08a8 980B0000 		.word	.L186
 671 08ac 980B0000 		.word	.L186
 672 08b0 980B0000 		.word	.L186
 673 08b4 980B0000 		.word	.L186
 674 08b8 980B0000 		.word	.L186
 675 08bc 980B0000 		.word	.L186
 676 08c0 980B0000 		.word	.L186
 677 08c4 980B0000 		.word	.L186
 678 08c8 980B0000 		.word	.L186
 679 08cc 980B0000 		.word	.L186
 680 08d0 980B0000 		.word	.L186
 681 08d4 980B0000 		.word	.L186
 682 08d8 980B0000 		.word	.L186
 683 08dc 980B0000 		.word	.L186
 684 08e0 980B0000 		.word	.L186
ARM GAS  C:\Users\ldebo\AppData\Local\Temp\ccISOhOE.s 			page 13


 685 08e4 980B0000 		.word	.L186
 686 08e8 980B0000 		.word	.L186
 687 08ec 980B0000 		.word	.L186
 688 08f0 980B0000 		.word	.L186
 689 08f4 980B0000 		.word	.L186
 690 08f8 980B0000 		.word	.L186
 691 08fc 980B0000 		.word	.L186
 692 0900 980B0000 		.word	.L186
 693 0904 980B0000 		.word	.L186
 694 0908 980B0000 		.word	.L186
 695 090c 980B0000 		.word	.L186
 696 0910 980B0000 		.word	.L186
 697 0914 980B0000 		.word	.L186
 698 0918 980B0000 		.word	.L186
 699 091c 980B0000 		.word	.L186
 700 0920 980B0000 		.word	.L186
 701 0924 980B0000 		.word	.L186
 702 0928 980B0000 		.word	.L186
 703 092c 980B0000 		.word	.L186
 704 0930 3C120000 		.word	.L279
 705 0934 980B0000 		.word	.L186
 706 0938 980B0000 		.word	.L186
 707 093c 980B0000 		.word	.L186
 708 0940 980B0000 		.word	.L186
 709 0944 980B0000 		.word	.L186
 710 0948 980B0000 		.word	.L186
 711 094c 980B0000 		.word	.L186
 712 0950 980B0000 		.word	.L186
 713 0954 980B0000 		.word	.L186
 714 0958 980B0000 		.word	.L186
 715 095c 440F0000 		.word	.L190
 716 0960 00120000 		.word	.L280
 717 0964 980B0000 		.word	.L186
 718 0968 980B0000 		.word	.L186
 719 096c 980B0000 		.word	.L186
 720 0970 980B0000 		.word	.L186
 721 0974 00120000 		.word	.L280
 722 0978 980B0000 		.word	.L186
 723 097c 980B0000 		.word	.L186
 724 0980 980B0000 		.word	.L186
 725 0984 980B0000 		.word	.L186
 726 0988 68120000 		.word	.L247
 727 098c D4110000 		.word	.L281
 728 0990 080F0000 		.word	.L194
 729 0994 980B0000 		.word	.L186
 730 0998 980B0000 		.word	.L186
 731 099c DC0B0000 		.word	.L195
 732 09a0 980B0000 		.word	.L186
 733 09a4 4C120000 		.word	.L282
 734 09a8 980B0000 		.word	.L186
 735 09ac 980B0000 		.word	.L186
 736 09b0 58120000 		.word	.L283
 737              	.L369:
 738 09b4 2A0052E3 		cmp	r2, #42
 739 09b8 0030E013 		mvnne	r3, #0
 740 09bc 9DFFFF1A 		bne	.L181
 741 09c0 003096E5 		ldr	r3, [r6]
ARM GAS  C:\Users\ldebo\AppData\Local\Temp\ccISOhOE.s 			page 14


 742 09c4 0220D8E5 		ldrb	r2, [r8, #2]	@ zero_extendqisi2
 743 09c8 000053E3 		cmp	r3, #0
 744 09cc 003063B2 		rsblt	r3, r3, #0
 745 09d0 109089B3 		orrlt	r9, r9, #16
 746 09d4 2E0052E3 		cmp	r2, #46
 747 09d8 046086E2 		add	r6, r6, #4
 748 09dc 024088E2 		add	r4, r8, #2
 749 09e0 07C0A011 		movne	ip, r7
 750 09e4 96FFFF1A 		bne	.L182
 751              	.L370:
 752 09e8 0120D4E5 		ldrb	r2, [r4, #1]	@ zero_extendqisi2
 753 09ec 011084E2 		add	r1, r4, #1
 754 09f0 300042E2 		sub	r0, r2, #48
 755 09f4 090050E3 		cmp	r0, #9
 756 09f8 7100008A 		bhi	.L372
 757 09fc 00C0A0E3 		mov	ip, #0
 758              	.L259:
 759 0a00 0CC18CE0 		add	ip, ip, ip, lsl #2
 760 0a04 8CC082E0 		add	ip, r2, ip, lsl #1
 761 0a08 0120D1E5 		ldrb	r2, [r1, #1]	@ zero_extendqisi2
 762 0a0c 014081E2 		add	r4, r1, #1
 763 0a10 301042E2 		sub	r1, r2, #48
 764 0a14 090051E3 		cmp	r1, #9
 765 0a18 30C04CE2 		sub	ip, ip, #48
 766 0a1c 0410A0E1 		mov	r1, r4
 767 0a20 F6FFFF9A 		bls	.L259
 768 0a24 86FFFFEA 		b	.L182
 769              	.L371:
 770 0a28 0110D4E5 		ldrb	r1, [r4, #1]	@ zero_extendqisi2
 771 0a2c 0200A0E1 		mov	r0, r2
 772 0a30 251041E2 		sub	r1, r1, #37
 773 0a34 018084E2 		add	r8, r4, #1
 774 0a38 530051E3 		cmp	r1, #83
 775 0a3c 01F19F97 		ldrls	pc, [pc, r1, asl #2]
 776 0a40 530000EA 		b	.L264
 777              	.L188:
 778 0a44 B8110000 		.word	.L265
 779 0a48 940B0000 		.word	.L264
 780 0a4c 940B0000 		.word	.L264
 781 0a50 940B0000 		.word	.L264
 782 0a54 940B0000 		.word	.L264
 783 0a58 940B0000 		.word	.L264
 784 0a5c 940B0000 		.word	.L264
 785 0a60 940B0000 		.word	.L264
 786 0a64 940B0000 		.word	.L264
 787 0a68 940B0000 		.word	.L264
 788 0a6c 940B0000 		.word	.L264
 789 0a70 940B0000 		.word	.L264
 790 0a74 940B0000 		.word	.L264
 791 0a78 940B0000 		.word	.L264
 792 0a7c 940B0000 		.word	.L264
 793 0a80 940B0000 		.word	.L264
 794 0a84 940B0000 		.word	.L264
 795 0a88 940B0000 		.word	.L264
 796 0a8c 940B0000 		.word	.L264
 797 0a90 940B0000 		.word	.L264
 798 0a94 940B0000 		.word	.L264
ARM GAS  C:\Users\ldebo\AppData\Local\Temp\ccISOhOE.s 			page 15


 799 0a98 940B0000 		.word	.L264
 800 0a9c 940B0000 		.word	.L264
 801 0aa0 940B0000 		.word	.L264
 802 0aa4 940B0000 		.word	.L264
 803 0aa8 940B0000 		.word	.L264
 804 0aac 940B0000 		.word	.L264
 805 0ab0 940B0000 		.word	.L264
 806 0ab4 940B0000 		.word	.L264
 807 0ab8 940B0000 		.word	.L264
 808 0abc 940B0000 		.word	.L264
 809 0ac0 940B0000 		.word	.L264
 810 0ac4 940B0000 		.word	.L264
 811 0ac8 940B0000 		.word	.L264
 812 0acc 940B0000 		.word	.L264
 813 0ad0 940B0000 		.word	.L264
 814 0ad4 940B0000 		.word	.L264
 815 0ad8 940B0000 		.word	.L264
 816 0adc 940B0000 		.word	.L264
 817 0ae0 940B0000 		.word	.L264
 818 0ae4 940B0000 		.word	.L264
 819 0ae8 940B0000 		.word	.L264
 820 0aec 940B0000 		.word	.L264
 821 0af0 940B0000 		.word	.L264
 822 0af4 940B0000 		.word	.L264
 823 0af8 940B0000 		.word	.L264
 824 0afc 940B0000 		.word	.L264
 825 0b00 940B0000 		.word	.L264
 826 0b04 940B0000 		.word	.L264
 827 0b08 940B0000 		.word	.L264
 828 0b0c 940B0000 		.word	.L264
 829 0b10 8C120000 		.word	.L266
 830 0b14 940B0000 		.word	.L264
 831 0b18 940B0000 		.word	.L264
 832 0b1c 940B0000 		.word	.L264
 833 0b20 940B0000 		.word	.L264
 834 0b24 940B0000 		.word	.L264
 835 0b28 940B0000 		.word	.L264
 836 0b2c 940B0000 		.word	.L264
 837 0b30 940B0000 		.word	.L264
 838 0b34 940B0000 		.word	.L264
 839 0b38 940B0000 		.word	.L264
 840 0b3c 400F0000 		.word	.L267
 841 0b40 94120000 		.word	.L268
 842 0b44 940B0000 		.word	.L264
 843 0b48 940B0000 		.word	.L264
 844 0b4c 940B0000 		.word	.L264
 845 0b50 940B0000 		.word	.L264
 846 0b54 94120000 		.word	.L268
 847 0b58 940B0000 		.word	.L264
 848 0b5c 940B0000 		.word	.L264
 849 0b60 940B0000 		.word	.L264
 850 0b64 940B0000 		.word	.L264
 851 0b68 AC120000 		.word	.L192
 852 0b6c 9C120000 		.word	.L269
 853 0b70 040F0000 		.word	.L270
 854 0b74 940B0000 		.word	.L264
 855 0b78 940B0000 		.word	.L264
ARM GAS  C:\Users\ldebo\AppData\Local\Temp\ccISOhOE.s 			page 16


 856 0b7c D80B0000 		.word	.L271
 857 0b80 940B0000 		.word	.L264
 858 0b84 A4120000 		.word	.L196
 859 0b88 940B0000 		.word	.L264
 860 0b8c 940B0000 		.word	.L264
 861 0b90 84120000 		.word	.L272
 862              	.L264:
 863 0b94 0840A0E1 		mov	r4, r8
 864              	.L186:
 865 0b98 2530A0E3 		mov	r3, #37
 866 0b9c 0030C5E5 		strb	r3, [r5]
 867 0ba0 0030D4E5 		ldrb	r3, [r4]	@ zero_extendqisi2
 868 0ba4 000053E3 		cmp	r3, #0
 869 0ba8 C701001A 		bne	.L373
 870 0bac 015085E2 		add	r5, r5, #1
 871              	.L249:
 872 0bb0 0B0045E0 		sub	r0, r5, fp
 873              	.L166:
 874 0bb4 0030A0E3 		mov	r3, #0
 875 0bb8 0030C5E5 		strb	r3, [r5]
 876 0bbc 14D08DE2 		add	sp, sp, #20
 877              		@ sp needed
 878 0bc0 F08FBDE8 		pop	{r4, r5, r6, r7, r8, r9, r10, fp, pc}
 879              	.L372:
 880 0bc4 2A0052E3 		cmp	r2, #42
 881 0bc8 C901000A 		beq	.L258
 882 0bcc 0140A0E1 		mov	r4, r1
 883 0bd0 00C0A0E3 		mov	ip, #0
 884 0bd4 1AFFFFEA 		b	.L182
 885              	.L271:
 886 0bd8 0840A0E1 		mov	r4, r8
 887              	.L195:
 888 0bdc 008096E5 		ldr	r8, [r6]
 889 0be0 0C10A0E1 		mov	r1, ip
 890 0be4 0800A0E1 		mov	r0, r8
 891 0be8 08308DE5 		str	r3, [sp, #8]
 892 0bec FEFFFFEB 		bl	strnlen
 893 0bf0 043086E2 		add	r3, r6, #4
 894 0bf4 100019E3 		tst	r9, #16
 895 0bf8 0C308DE5 		str	r3, [sp, #12]
 896 0bfc 08309DE5 		ldr	r3, [sp, #8]
 897 0c00 4800001A 		bne	.L218
 898 0c04 000053E1 		cmp	r3, r0
 899 0c08 011043E2 		sub	r1, r3, #1
 900 0c0c CC0100DA 		ble	.L275
 901 0c10 002065E2 		rsb	r2, r5, #0
 902 0c14 032002E2 		and	r2, r2, #3
 903 0c18 00C043E0 		sub	ip, r3, r0
 904 0c1c 0C0052E1 		cmp	r2, ip
 905 0c20 0C20A021 		movcs	r2, ip
 906 0c24 06005CE3 		cmp	ip, #6
 907 0c28 0C20A091 		movls	r2, ip
 908 0c2c 000052E3 		cmp	r2, #0
 909 0c30 BE01000A 		beq	.L276
 910 0c34 2060A0E3 		mov	r6, #32
 911 0c38 010052E3 		cmp	r2, #1
 912 0c3c 0060C5E5 		strb	r6, [r5]
ARM GAS  C:\Users\ldebo\AppData\Local\Temp\ccISOhOE.s 			page 17


 913 0c40 01E085E2 		add	lr, r5, #1
 914 0c44 021043E2 		sub	r1, r3, #2
 915 0c48 1500000A 		beq	.L221
 916 0c4c 020052E3 		cmp	r2, #2
 917 0c50 0160C5E5 		strb	r6, [r5, #1]
 918 0c54 02E085E2 		add	lr, r5, #2
 919 0c58 031043E2 		sub	r1, r3, #3
 920 0c5c 1000000A 		beq	.L221
 921 0c60 030052E3 		cmp	r2, #3
 922 0c64 0260C5E5 		strb	r6, [r5, #2]
 923 0c68 03E085E2 		add	lr, r5, #3
 924 0c6c 041043E2 		sub	r1, r3, #4
 925 0c70 0B00000A 		beq	.L221
 926 0c74 040052E3 		cmp	r2, #4
 927 0c78 0360C5E5 		strb	r6, [r5, #3]
 928 0c7c 04E085E2 		add	lr, r5, #4
 929 0c80 051043E2 		sub	r1, r3, #5
 930 0c84 0600000A 		beq	.L221
 931 0c88 060052E3 		cmp	r2, #6
 932 0c8c 05E085E2 		add	lr, r5, #5
 933 0c90 061043E2 		sub	r1, r3, #6
 934 0c94 0460C5E5 		strb	r6, [r5, #4]
 935 0c98 0560C505 		strbeq	r6, [r5, #5]
 936 0c9c 07104302 		subeq	r1, r3, #7
 937 0ca0 06E08502 		addeq	lr, r5, #6
 938              	.L221:
 939 0ca4 02005CE1 		cmp	ip, r2
 940 0ca8 1C00000A 		beq	.L222
 941              	.L220:
 942 0cac 02304CE0 		sub	r3, ip, r2
 943 0cb0 08308DE5 		str	r3, [sp, #8]
 944 0cb4 01604CE2 		sub	r6, ip, #1
 945 0cb8 043043E2 		sub	r3, r3, #4
 946 0cbc 2331A0E1 		lsr	r3, r3, #2
 947 0cc0 026046E0 		sub	r6, r6, r2
 948 0cc4 013083E2 		add	r3, r3, #1
 949 0cc8 020056E3 		cmp	r6, #2
 950 0ccc 0391A0E1 		lsl	r9, r3, #2
 951 0cd0 0A00009A 		bls	.L223
 952 0cd4 0060A0E3 		mov	r6, #0
 953 0cd8 022085E0 		add	r2, r5, r2
 954              	.L224:
 955 0cdc 016086E2 		add	r6, r6, #1
 956 0ce0 030056E1 		cmp	r6, r3
 957 0ce4 04A082E4 		str	r10, [r2], #4
 958 0ce8 FBFFFF3A 		bcc	.L224
 959 0cec 08309DE5 		ldr	r3, [sp, #8]
 960 0cf0 09E08EE0 		add	lr, lr, r9
 961 0cf4 090053E1 		cmp	r3, r9
 962 0cf8 091041E0 		sub	r1, r1, r9
 963 0cfc 0700000A 		beq	.L222
 964              	.L223:
 965 0d00 2030A0E3 		mov	r3, #32
 966 0d04 010050E1 		cmp	r0, r1
 967 0d08 0030CEE5 		strb	r3, [lr]
 968 0d0c 011041E2 		sub	r1, r1, #1
 969 0d10 020000AA 		bge	.L222
ARM GAS  C:\Users\ldebo\AppData\Local\Temp\ccISOhOE.s 			page 18


 970 0d14 010050E1 		cmp	r0, r1
 971 0d18 0130CEE5 		strb	r3, [lr, #1]
 972 0d1c 0230CEB5 		strblt	r3, [lr, #2]
 973              	.L222:
 974 0d20 0C5085E0 		add	r5, r5, ip
 975 0d24 013040E2 		sub	r3, r0, #1
 976              	.L218:
 977 0d28 000050E3 		cmp	r0, #0
 978 0d2c 2A0000DA 		ble	.L228
 979 0d30 042085E2 		add	r2, r5, #4
 980 0d34 041088E2 		add	r1, r8, #4
 981 0d38 010055E1 		cmp	r5, r1
 982 0d3c 02005831 		cmpcc	r8, r2
 983 0d40 0120A023 		movcs	r2, #1
 984 0d44 0020A033 		movcc	r2, #0
 985 0d48 051088E1 		orr	r1, r8, r5
 986 0d4c 090050E3 		cmp	r0, #9
 987 0d50 0020A093 		movls	r2, #0
 988 0d54 01200282 		andhi	r2, r2, #1
 989 0d58 030011E3 		tst	r1, #3
 990 0d5c 0020A013 		movne	r2, #0
 991 0d60 01200202 		andeq	r2, r2, #1
 992 0d64 000052E3 		cmp	r2, #0
 993 0d68 6901000A 		beq	.L229
 994 0d6c 0560A0E1 		mov	r6, r5
 995 0d70 00C0A0E3 		mov	ip, #0
 996 0d74 042040E2 		sub	r2, r0, #4
 997 0d78 2221A0E1 		lsr	r2, r2, #2
 998 0d7c 012082E2 		add	r2, r2, #1
 999 0d80 0211A0E1 		lsl	r1, r2, #2
 1000 0d84 04E048E2 		sub	lr, r8, #4
 1001              	.L230:
 1002 0d88 01C08CE2 		add	ip, ip, #1
 1003 0d8c 0490BEE5 		ldr	r9, [lr, #4]!
 1004 0d90 0C0052E1 		cmp	r2, ip
 1005 0d94 049086E4 		str	r9, [r6], #4
 1006 0d98 FAFFFF8A 		bhi	.L230
 1007 0d9c 010050E1 		cmp	r0, r1
 1008 0da0 01C085E0 		add	ip, r5, r1
 1009 0da4 01E088E0 		add	lr, r8, r1
 1010 0da8 0A00000A 		beq	.L235
 1011 0dac 0261D8E7 		ldrb	r6, [r8, r2, lsl #2]	@ zero_extendqisi2
 1012 0db0 018081E2 		add	r8, r1, #1
 1013 0db4 080050E1 		cmp	r0, r8
 1014 0db8 0261C5E7 		strb	r6, [r5, r2, lsl #2]
 1015 0dbc 050000DA 		ble	.L235
 1016 0dc0 021081E2 		add	r1, r1, #2
 1017 0dc4 0120DEE5 		ldrb	r2, [lr, #1]	@ zero_extendqisi2
 1018 0dc8 010050E1 		cmp	r0, r1
 1019 0dcc 0120CCE5 		strb	r2, [ip, #1]
 1020 0dd0 0220DEC5 		ldrbgt	r2, [lr, #2]	@ zero_extendqisi2
 1021 0dd4 0220CCC5 		strbgt	r2, [ip, #2]
 1022              	.L235:
 1023 0dd8 005085E0 		add	r5, r5, r0
 1024              	.L228:
 1025 0ddc 000053E1 		cmp	r3, r0
 1026 0de0 011043E2 		sub	r1, r3, #1
ARM GAS  C:\Users\ldebo\AppData\Local\Temp\ccISOhOE.s 			page 19


 1027 0de4 420000DA 		ble	.L360
 1028 0de8 002065E2 		rsb	r2, r5, #0
 1029 0dec 032002E2 		and	r2, r2, #3
 1030 0df0 00C043E0 		sub	ip, r3, r0
 1031 0df4 0C0052E1 		cmp	r2, ip
 1032 0df8 0C20A021 		movcs	r2, ip
 1033 0dfc 06005CE3 		cmp	ip, #6
 1034 0e00 0C20A091 		movls	r2, ip
 1035 0e04 000052E3 		cmp	r2, #0
 1036 0e08 3401000A 		beq	.L277
 1037 0e0c 2060A0E3 		mov	r6, #32
 1038 0e10 010052E3 		cmp	r2, #1
 1039 0e14 0060C5E5 		strb	r6, [r5]
 1040 0e18 01E085E2 		add	lr, r5, #1
 1041 0e1c 021043E2 		sub	r1, r3, #2
 1042 0e20 1500000A 		beq	.L239
 1043 0e24 020052E3 		cmp	r2, #2
 1044 0e28 0160C5E5 		strb	r6, [r5, #1]
 1045 0e2c 02E085E2 		add	lr, r5, #2
 1046 0e30 031043E2 		sub	r1, r3, #3
 1047 0e34 1000000A 		beq	.L239
 1048 0e38 030052E3 		cmp	r2, #3
 1049 0e3c 0260C5E5 		strb	r6, [r5, #2]
 1050 0e40 03E085E2 		add	lr, r5, #3
 1051 0e44 041043E2 		sub	r1, r3, #4
 1052 0e48 0B00000A 		beq	.L239
 1053 0e4c 040052E3 		cmp	r2, #4
 1054 0e50 0360C5E5 		strb	r6, [r5, #3]
 1055 0e54 04E085E2 		add	lr, r5, #4
 1056 0e58 051043E2 		sub	r1, r3, #5
 1057 0e5c 0600000A 		beq	.L239
 1058 0e60 060052E3 		cmp	r2, #6
 1059 0e64 05E085E2 		add	lr, r5, #5
 1060 0e68 061043E2 		sub	r1, r3, #6
 1061 0e6c 0460C5E5 		strb	r6, [r5, #4]
 1062 0e70 0560C505 		strbeq	r6, [r5, #5]
 1063 0e74 07104302 		subeq	r1, r3, #7
 1064 0e78 06E08502 		addeq	lr, r5, #6
 1065              	.L239:
 1066 0e7c 02005CE1 		cmp	ip, r2
 1067 0e80 1A00000A 		beq	.L240
 1068              	.L238:
 1069 0e84 02904CE0 		sub	r9, ip, r2
 1070 0e88 043049E2 		sub	r3, r9, #4
 1071 0e8c 01604CE2 		sub	r6, ip, #1
 1072 0e90 2331A0E1 		lsr	r3, r3, #2
 1073 0e94 026046E0 		sub	r6, r6, r2
 1074 0e98 013083E2 		add	r3, r3, #1
 1075 0e9c 020056E3 		cmp	r6, #2
 1076 0ea0 0381A0E1 		lsl	r8, r3, #2
 1077 0ea4 0900009A 		bls	.L241
 1078 0ea8 0060A0E3 		mov	r6, #0
 1079 0eac 022085E0 		add	r2, r5, r2
 1080              	.L242:
 1081 0eb0 016086E2 		add	r6, r6, #1
 1082 0eb4 060053E1 		cmp	r3, r6
 1083 0eb8 04A082E4 		str	r10, [r2], #4
ARM GAS  C:\Users\ldebo\AppData\Local\Temp\ccISOhOE.s 			page 20


 1084 0ebc FBFFFF8A 		bhi	.L242
 1085 0ec0 080059E1 		cmp	r9, r8
 1086 0ec4 08E08EE0 		add	lr, lr, r8
 1087 0ec8 081041E0 		sub	r1, r1, r8
 1088 0ecc 0700000A 		beq	.L240
 1089              	.L241:
 1090 0ed0 2030A0E3 		mov	r3, #32
 1091 0ed4 010050E1 		cmp	r0, r1
 1092 0ed8 0030CEE5 		strb	r3, [lr]
 1093 0edc 011041E2 		sub	r1, r1, #1
 1094 0ee0 020000AA 		bge	.L240
 1095 0ee4 010050E1 		cmp	r0, r1
 1096 0ee8 0130CEE5 		strb	r3, [lr, #1]
 1097 0eec 0230CEB5 		strblt	r3, [lr, #2]
 1098              	.L240:
 1099 0ef0 0C5085E0 		add	r5, r5, ip
 1100              	.L360:
 1101 0ef4 0C609DE5 		ldr	r6, [sp, #12]
 1102 0ef8 0130D4E5 		ldrb	r3, [r4, #1]	@ zero_extendqisi2
 1103 0efc 0480A0E1 		mov	r8, r4
 1104 0f00 19FEFFEA 		b	.L169
 1105              	.L270:
 1106 0f04 0840A0E1 		mov	r4, r8
 1107              	.L194:
 1108 0f08 010073E3 		cmn	r3, #1
 1109 0f0c 01908903 		orreq	r9, r9, #1
 1110 0f10 001096E5 		ldr	r1, [r6]
 1111 0f14 0830A003 		moveq	r3, #8
 1112 0f18 0500A0E1 		mov	r0, r5
 1113 0f1c 04908DE5 		str	r9, [sp, #4]
 1114 0f20 00C08DE5 		str	ip, [sp]
 1115 0f24 1020A0E3 		mov	r2, #16
 1116 0f28 046086E2 		add	r6, r6, #4
 1117 0f2c 33FCFFEB 		bl	number
 1118              	.L359:
 1119 0f30 0050A0E1 		mov	r5, r0
 1120 0f34 0130D4E5 		ldrb	r3, [r4, #1]	@ zero_extendqisi2
 1121 0f38 0480A0E1 		mov	r8, r4
 1122 0f3c 0AFEFFEA 		b	.L169
 1123              	.L267:
 1124 0f40 0840A0E1 		mov	r4, r8
 1125              	.L190:
 1126 0f44 100019E3 		tst	r9, #16
 1127 0f48 4B00001A 		bne	.L198
 1128 0f4c 011043E2 		sub	r1, r3, #1
 1129 0f50 000051E3 		cmp	r1, #0
 1130 0f54 FC0000DA 		ble	.L273
 1131 0f58 002065E2 		rsb	r2, r5, #0
 1132 0f5c 032002E2 		and	r2, r2, #3
 1133 0f60 010052E1 		cmp	r2, r1
 1134 0f64 0120A021 		movcs	r2, r1
 1135 0f68 060051E3 		cmp	r1, #6
 1136 0f6c 0120A091 		movls	r2, r1
 1137 0f70 000052E3 		cmp	r2, #0
 1138 0f74 0180A0E1 		mov	r8, r1
 1139 0f78 EE00000A 		beq	.L274
 1140 0f7c 20C0A0E3 		mov	ip, #32
ARM GAS  C:\Users\ldebo\AppData\Local\Temp\ccISOhOE.s 			page 21


 1141 0f80 029043E2 		sub	r9, r3, #2
 1142 0f84 010052E3 		cmp	r2, #1
 1143 0f88 00C0C5E5 		strb	ip, [r5]
 1144 0f8c 0910A0E1 		mov	r1, r9
 1145 0f90 010085E2 		add	r0, r5, #1
 1146 0f94 1500000A 		beq	.L201
 1147 0f98 020052E3 		cmp	r2, #2
 1148 0f9c 01C0C5E5 		strb	ip, [r5, #1]
 1149 0fa0 020085E2 		add	r0, r5, #2
 1150 0fa4 031043E2 		sub	r1, r3, #3
 1151 0fa8 1000000A 		beq	.L201
 1152 0fac 030052E3 		cmp	r2, #3
 1153 0fb0 02C0C5E5 		strb	ip, [r5, #2]
 1154 0fb4 030085E2 		add	r0, r5, #3
 1155 0fb8 041043E2 		sub	r1, r3, #4
 1156 0fbc 0B00000A 		beq	.L201
 1157 0fc0 040052E3 		cmp	r2, #4
 1158 0fc4 03C0C5E5 		strb	ip, [r5, #3]
 1159 0fc8 040085E2 		add	r0, r5, #4
 1160 0fcc 051043E2 		sub	r1, r3, #5
 1161 0fd0 0600000A 		beq	.L201
 1162 0fd4 060052E3 		cmp	r2, #6
 1163 0fd8 050085E2 		add	r0, r5, #5
 1164 0fdc 061043E2 		sub	r1, r3, #6
 1165 0fe0 04C0C5E5 		strb	ip, [r5, #4]
 1166 0fe4 05C0C505 		strbeq	ip, [r5, #5]
 1167 0fe8 06008502 		addeq	r0, r5, #6
 1168 0fec 07104302 		subeq	r1, r3, #7
 1169              	.L201:
 1170 0ff0 080052E1 		cmp	r2, r8
 1171 0ff4 1D00000A 		beq	.L202
 1172              	.L200:
 1173 0ff8 02C048E0 		sub	ip, r8, r2
 1174 0ffc 0CC08DE5 		str	ip, [sp, #12]
 1175 1000 04C04CE2 		sub	ip, ip, #4
 1176 1004 2CC1A0E1 		lsr	ip, ip, #2
 1177 1008 02E049E0 		sub	lr, r9, r2
 1178 100c 01C08CE2 		add	ip, ip, #1
 1179 1010 02005EE3 		cmp	lr, #2
 1180 1014 0CE1A0E1 		lsl	lr, ip, #2
 1181 1018 08E08DE5 		str	lr, [sp, #8]
 1182 101c 0B00009A 		bls	.L203
 1183 1020 00E0A0E3 		mov	lr, #0
 1184 1024 022085E0 		add	r2, r5, r2
 1185              	.L204:
 1186 1028 01E08EE2 		add	lr, lr, #1
 1187 102c 0E005CE1 		cmp	ip, lr
 1188 1030 04A082E4 		str	r10, [r2], #4
 1189 1034 FBFFFF8A 		bhi	.L204
 1190 1038 08209DE5 		ldr	r2, [sp, #8]
 1191 103c 0CC09DE5 		ldr	ip, [sp, #12]
 1192 1040 020080E0 		add	r0, r0, r2
 1193 1044 0C0052E1 		cmp	r2, ip
 1194 1048 021041E0 		sub	r1, r1, r2
 1195 104c 0700000A 		beq	.L202
 1196              	.L203:
 1197 1050 2020A0E3 		mov	r2, #32
ARM GAS  C:\Users\ldebo\AppData\Local\Temp\ccISOhOE.s 			page 22


 1198 1054 01C041E2 		sub	ip, r1, #1
 1199 1058 00005CE3 		cmp	ip, #0
 1200 105c 0020C0E5 		strb	r2, [r0]
 1201 1060 020000DA 		ble	.L202
 1202 1064 020051E3 		cmp	r1, #2
 1203 1068 0120C0E5 		strb	r2, [r0, #1]
 1204 106c 0220C015 		strbne	r2, [r0, #2]
 1205              	.L202:
 1206 1070 023063E2 		rsb	r3, r3, #2
 1207 1074 033089E0 		add	r3, r9, r3
 1208 1078 085085E0 		add	r5, r5, r8
 1209              	.L198:
 1210 107c 002096E5 		ldr	r2, [r6]
 1211 1080 011043E2 		sub	r1, r3, #1
 1212 1084 000051E3 		cmp	r1, #0
 1213 1088 0020C5E5 		strb	r2, [r5]
 1214 108c 046086E2 		add	r6, r6, #4
 1215 1090 010085E2 		add	r0, r5, #1
 1216 1094 A5FFFFDA 		ble	.L359
 1217 1098 002060E2 		rsb	r2, r0, #0
 1218 109c 032002E2 		and	r2, r2, #3
 1219 10a0 010052E1 		cmp	r2, r1
 1220 10a4 0120A021 		movcs	r2, r1
 1221 10a8 060051E3 		cmp	r1, #6
 1222 10ac 0120A091 		movls	r2, r1
 1223 10b0 000052E3 		cmp	r2, #0
 1224 10b4 01E0A0E1 		mov	lr, r1
 1225 10b8 02904302 		subeq	r9, r3, #2
 1226 10bc 1E00000A 		beq	.L210
 1227 10c0 20C0A0E3 		mov	ip, #32
 1228 10c4 029043E2 		sub	r9, r3, #2
 1229 10c8 010052E3 		cmp	r2, #1
 1230 10cc 01C0C5E5 		strb	ip, [r5, #1]
 1231 10d0 0910A0E1 		mov	r1, r9
 1232 10d4 020085E2 		add	r0, r5, #2
 1233 10d8 1500000A 		beq	.L211
 1234 10dc 020052E3 		cmp	r2, #2
 1235 10e0 02C0C5E5 		strb	ip, [r5, #2]
 1236 10e4 030085E2 		add	r0, r5, #3
 1237 10e8 031043E2 		sub	r1, r3, #3
 1238 10ec 1000000A 		beq	.L211
 1239 10f0 030052E3 		cmp	r2, #3
 1240 10f4 03C0C5E5 		strb	ip, [r5, #3]
 1241 10f8 040085E2 		add	r0, r5, #4
 1242 10fc 041043E2 		sub	r1, r3, #4
 1243 1100 0B00000A 		beq	.L211
 1244 1104 040052E3 		cmp	r2, #4
 1245 1108 04C0C5E5 		strb	ip, [r5, #4]
 1246 110c 050085E2 		add	r0, r5, #5
 1247 1110 051043E2 		sub	r1, r3, #5
 1248 1114 0600000A 		beq	.L211
 1249 1118 060052E3 		cmp	r2, #6
 1250 111c 060085E2 		add	r0, r5, #6
 1251 1120 061043E2 		sub	r1, r3, #6
 1252 1124 05C0C5E5 		strb	ip, [r5, #5]
 1253 1128 06C0C505 		strbeq	ip, [r5, #6]
 1254 112c 07008502 		addeq	r0, r5, #7
ARM GAS  C:\Users\ldebo\AppData\Local\Temp\ccISOhOE.s 			page 23


 1255 1130 07104302 		subeq	r1, r3, #7
 1256              	.L211:
 1257 1134 0E0052E1 		cmp	r2, lr
 1258 1138 1A00000A 		beq	.L212
 1259              	.L210:
 1260 113c 02E04EE0 		sub	lr, lr, r2
 1261 1140 04C04EE2 		sub	ip, lr, #4
 1262 1144 028049E0 		sub	r8, r9, r2
 1263 1148 2CC1A0E1 		lsr	ip, ip, #2
 1264 114c 01C08CE2 		add	ip, ip, #1
 1265 1150 020058E3 		cmp	r8, #2
 1266 1154 0C91A0E1 		lsl	r9, ip, #2
 1267 1158 0A00009A 		bls	.L213
 1268 115c 0080A0E3 		mov	r8, #0
 1269 1160 012082E2 		add	r2, r2, #1
 1270 1164 022085E0 		add	r2, r5, r2
 1271              	.L214:
 1272 1168 018088E2 		add	r8, r8, #1
 1273 116c 08005CE1 		cmp	ip, r8
 1274 1170 04A082E4 		str	r10, [r2], #4
 1275 1174 FBFFFF8A 		bhi	.L214
 1276 1178 0E0059E1 		cmp	r9, lr
 1277 117c 090080E0 		add	r0, r0, r9
 1278 1180 091041E0 		sub	r1, r1, r9
 1279 1184 0700000A 		beq	.L212
 1280              	.L213:
 1281 1188 2020A0E3 		mov	r2, #32
 1282 118c 01C041E2 		sub	ip, r1, #1
 1283 1190 00005CE3 		cmp	ip, #0
 1284 1194 0020C0E5 		strb	r2, [r0]
 1285 1198 020000DA 		ble	.L212
 1286 119c 020051E3 		cmp	r1, #2
 1287 11a0 0120C0E5 		strb	r2, [r0, #1]
 1288 11a4 0220C015 		strbne	r2, [r0, #2]
 1289              	.L212:
 1290 11a8 035085E0 		add	r5, r5, r3
 1291 11ac 0480A0E1 		mov	r8, r4
 1292 11b0 0130D4E5 		ldrb	r3, [r4, #1]	@ zero_extendqisi2
 1293 11b4 6CFDFFEA 		b	.L169
 1294              	.L265:
 1295 11b8 0840A0E1 		mov	r4, r8
 1296              	.L187:
 1297 11bc 2530A0E3 		mov	r3, #37
 1298 11c0 0030C5E5 		strb	r3, [r5]
 1299 11c4 0130D4E5 		ldrb	r3, [r4, #1]	@ zero_extendqisi2
 1300 11c8 015085E2 		add	r5, r5, #1
 1301 11cc 0480A0E1 		mov	r8, r4
 1302 11d0 65FDFFEA 		b	.L169
 1303              	.L281:
 1304 11d4 0480A0E1 		mov	r8, r4
 1305 11d8 0820A0E3 		mov	r2, #8
 1306              	.L252:
 1307 11dc 001096E5 		ldr	r1, [r6]
 1308 11e0 046086E2 		add	r6, r6, #4
 1309              	.L251:
 1310 11e4 0500A0E1 		mov	r0, r5
 1311 11e8 04908DE5 		str	r9, [sp, #4]
ARM GAS  C:\Users\ldebo\AppData\Local\Temp\ccISOhOE.s 			page 24


 1312 11ec 00C08DE5 		str	ip, [sp]
 1313 11f0 82FBFFEB 		bl	number
 1314 11f4 0130D8E5 		ldrb	r3, [r8, #1]	@ zero_extendqisi2
 1315 11f8 0050A0E1 		mov	r5, r0
 1316 11fc 5AFDFFEA 		b	.L169
 1317              	.L280:
 1318 1200 0700A0E1 		mov	r0, r7
 1319              	.L191:
 1320 1204 0480A0E1 		mov	r8, r4
 1321 1208 0A20A0E3 		mov	r2, #10
 1322 120c 029089E3 		orr	r9, r9, #2
 1323              	.L193:
 1324 1210 6C0050E3 		cmp	r0, #108
 1325 1214 3300000A 		beq	.L374
 1326 1218 680050E3 		cmp	r0, #104
 1327 121c EEFFFF1A 		bne	.L252
 1328 1220 001096E5 		ldr	r1, [r6]
 1329 1224 020019E3 		tst	r9, #2
 1330 1228 040086E2 		add	r0, r6, #4
 1331 122c 7110FF06 		uxtheq	r1, r1
 1332 1230 7110BF16 		sxthne	r1, r1
 1333 1234 0060A0E1 		mov	r6, r0
 1334 1238 E9FFFFEA 		b	.L251
 1335              	.L279:
 1336 123c 0700A0E1 		mov	r0, r7
 1337              	.L358:
 1338 1240 0480A0E1 		mov	r8, r4
 1339 1244 1020A0E3 		mov	r2, #16
 1340 1248 F0FFFFEA 		b	.L193
 1341              	.L282:
 1342 124c 0480A0E1 		mov	r8, r4
 1343 1250 0A20A0E3 		mov	r2, #10
 1344 1254 E0FFFFEA 		b	.L252
 1345              	.L283:
 1346 1258 0700A0E1 		mov	r0, r7
 1347              	.L197:
 1348 125c 209089E3 		orr	r9, r9, #32
 1349 1260 F6FFFFEA 		b	.L358
 1350              	.L278:
 1351 1264 0840A0E1 		mov	r4, r8
 1352              	.L247:
 1353 1268 003096E5 		ldr	r3, [r6]
 1354 126c 0B2045E0 		sub	r2, r5, fp
 1355 1270 002083E5 		str	r2, [r3]
 1356 1274 046086E2 		add	r6, r6, #4
 1357 1278 0130D4E5 		ldrb	r3, [r4, #1]	@ zero_extendqisi2
 1358 127c 0480A0E1 		mov	r8, r4
 1359 1280 39FDFFEA 		b	.L169
 1360              	.L272:
 1361 1284 0840A0E1 		mov	r4, r8
 1362 1288 F3FFFFEA 		b	.L197
 1363              	.L266:
 1364 128c 0840A0E1 		mov	r4, r8
 1365 1290 EAFFFFEA 		b	.L358
 1366              	.L268:
 1367 1294 0840A0E1 		mov	r4, r8
 1368 1298 D9FFFFEA 		b	.L191
ARM GAS  C:\Users\ldebo\AppData\Local\Temp\ccISOhOE.s 			page 25


 1369              	.L269:
 1370 129c 0820A0E3 		mov	r2, #8
 1371 12a0 DAFFFFEA 		b	.L193
 1372              	.L196:
 1373 12a4 0A20A0E3 		mov	r2, #10
 1374 12a8 D8FFFFEA 		b	.L193
 1375              	.L192:
 1376 12ac 6C0052E3 		cmp	r2, #108
 1377 12b0 EBFFFF1A 		bne	.L278
 1378 12b4 003096E5 		ldr	r3, [r6]
 1379 12b8 0B2045E0 		sub	r2, r5, fp
 1380 12bc 002083E5 		str	r2, [r3]
 1381 12c0 046086E2 		add	r6, r6, #4
 1382 12c4 0230D4E5 		ldrb	r3, [r4, #2]	@ zero_extendqisi2
 1383 12c8 27FDFFEA 		b	.L169
 1384              	.L373:
 1385 12cc 0130C5E5 		strb	r3, [r5, #1]
 1386 12d0 0130D4E5 		ldrb	r3, [r4, #1]	@ zero_extendqisi2
 1387 12d4 025085E2 		add	r5, r5, #2
 1388 12d8 0480A0E1 		mov	r8, r4
 1389 12dc 22FDFFEA 		b	.L169
 1390              	.L277:
 1391 12e0 05E0A0E1 		mov	lr, r5
 1392 12e4 E6FEFFEA 		b	.L238
 1393              	.L374:
 1394 12e8 001096E5 		ldr	r1, [r6]
 1395 12ec 046086E2 		add	r6, r6, #4
 1396 12f0 BBFFFFEA 		b	.L251
 1397              	.L258:
 1398 12f4 00C096E5 		ldr	ip, [r6]
 1399 12f8 0220D4E5 		ldrb	r2, [r4, #2]	@ zero_extendqisi2
 1400 12fc CCCFCCE1 		bic	ip, ip, ip, asr #31
 1401 1300 046086E2 		add	r6, r6, #4
 1402 1304 024084E2 		add	r4, r4, #2
 1403 1308 4DFDFFEA 		b	.L182
 1404              	.L262:
 1405 130c 0300A0E1 		mov	r0, r3
 1406 1310 27FEFFEA 		b	.L166
 1407              	.L229:
 1408 1314 012045E2 		sub	r2, r5, #1
 1409 1318 00C088E0 		add	ip, r8, r0
 1410              	.L234:
 1411 131c 0110D8E4 		ldrb	r1, [r8], #1	@ zero_extendqisi2
 1412 1320 0C0058E1 		cmp	r8, ip
 1413 1324 0110E2E5 		strb	r1, [r2, #1]!
 1414 1328 FBFFFF1A 		bne	.L234
 1415 132c A9FEFFEA 		b	.L235
 1416              	.L276:
 1417 1330 05E0A0E1 		mov	lr, r5
 1418 1334 5CFEFFEA 		b	.L220
 1419              	.L274:
 1420 1338 0500A0E1 		mov	r0, r5
 1421 133c 029043E2 		sub	r9, r3, #2
 1422 1340 2CFFFFEA 		b	.L200
 1423              	.L275:
 1424 1344 0130A0E1 		mov	r3, r1
 1425 1348 76FEFFEA 		b	.L218
ARM GAS  C:\Users\ldebo\AppData\Local\Temp\ccISOhOE.s 			page 26


 1426              	.L273:
 1427 134c 0130A0E1 		mov	r3, r1
 1428 1350 49FFFFEA 		b	.L198
 1429              	.L376:
 1430              		.align	2
 1431              	.L375:
 1432 1354 20202020 		.word	538976288
 1433              		.size	emb_vsprintf, .-emb_vsprintf
 1434              		.align	2
 1435              		.global	vsscanf
 1436              		.syntax unified
 1437              		.arm
 1438              		.fpu vfp
 1439              		.type	vsscanf, %function
 1440              	vsscanf:
 1441              		@ args = 0, pretend = 0, frame = 1320
 1442              		@ frame_needed = 0, uses_anonymous_args = 0
 1443 1358 000050E3 		cmp	r0, #0
 1444 135c 00005113 		cmpne	r1, #0
 1445 1360 0130A003 		moveq	r3, #1
 1446 1364 0030A013 		movne	r3, #0
 1447 1368 F04F2DE9 		push	{r4, r5, r6, r7, r8, r9, r10, fp, lr}
 1448 136c 52DE4DE2 		sub	sp, sp, #1312
 1449 1370 0CD04DE2 		sub	sp, sp, #12
 1450 1374 14308DE5 		str	r3, [sp, #20]
 1451 1378 0030A003 		moveq	r3, #0
 1452 137c 00308D05 		streq	r3, [sp]
 1453 1380 2100000A 		beq	.L377
 1454 1384 04208DE5 		str	r2, [sp, #4]
 1455 1388 24208DE2 		add	r2, sp, #36
 1456 138c 08208DE5 		str	r2, [sp, #8]
 1457 1390 0A20A0E3 		mov	r2, #10
 1458 1394 0140A0E1 		mov	r4, r1
 1459 1398 0050A0E1 		mov	r5, r0
 1460 139c 18308DE5 		str	r3, [sp, #24]
 1461 13a0 1C308DE5 		str	r3, [sp, #28]
 1462 13a4 10308DE5 		str	r3, [sp, #16]
 1463 13a8 0C208DE5 		str	r2, [sp, #12]
 1464 13ac 00308DE5 		str	r3, [sp]
 1465              	.L379:
 1466 13b0 0030D5E5 		ldrb	r3, [r5]	@ zero_extendqisi2
 1467 13b4 000053E3 		cmp	r3, #0
 1468 13b8 1300000A 		beq	.L377
 1469              	.L550:
 1470 13bc 0030D4E5 		ldrb	r3, [r4]	@ zero_extendqisi2
 1471 13c0 000053E3 		cmp	r3, #0
 1472 13c4 1000000A 		beq	.L377
 1473              	.L380:
 1474 13c8 FEFFFFEB 		bl	__locale_ctype_ptr
 1475 13cc 0470A0E1 		mov	r7, r4
 1476 13d0 0120D4E4 		ldrb	r2, [r4], #1	@ zero_extendqisi2
 1477 13d4 020080E0 		add	r0, r0, r2
 1478 13d8 0160D0E5 		ldrb	r6, [r0, #1]	@ zero_extendqisi2
 1479 13dc 086016E2 		ands	r6, r6, #8
 1480 13e0 F8FFFF1A 		bne	.L380
 1481 13e4 250052E3 		cmp	r2, #37
 1482 13e8 0B00000A 		beq	.L549
ARM GAS  C:\Users\ldebo\AppData\Local\Temp\ccISOhOE.s 			page 27


 1483 13ec 0030D5E5 		ldrb	r3, [r5]	@ zero_extendqisi2
 1484 13f0 020053E1 		cmp	r3, r2
 1485 13f4 0400001A 		bne	.L377
 1486 13f8 015085E2 		add	r5, r5, #1
 1487 13fc 0030D5E5 		ldrb	r3, [r5]	@ zero_extendqisi2
 1488 1400 014087E2 		add	r4, r7, #1
 1489 1404 000053E3 		cmp	r3, #0
 1490 1408 EBFFFF1A 		bne	.L550
 1491              	.L377:
 1492 140c 00009DE5 		ldr	r0, [sp]
 1493 1410 52DE8DE2 		add	sp, sp, #1312
 1494 1414 0CD08DE2 		add	sp, sp, #12
 1495              		@ sp needed
 1496 1418 F08FBDE8 		pop	{r4, r5, r6, r7, r8, r9, r10, fp, pc}
 1497              	.L549:
 1498 141c 0130D7E5 		ldrb	r3, [r7, #1]	@ zero_extendqisi2
 1499 1420 0490A0E1 		mov	r9, r4
 1500 1424 2A0053E3 		cmp	r3, #42
 1501 1428 0130A003 		moveq	r3, #1
 1502 142c 10308D05 		streq	r3, [sp, #16]
 1503 1430 03508500 		addeq	r5, r5, r3
 1504 1434 FEFFFFEB 		bl	__locale_ctype_ptr
 1505 1438 0180D7E5 		ldrb	r8, [r7, #1]	@ zero_extendqisi2
 1506 143c 080080E0 		add	r0, r0, r8
 1507 1440 0130D0E5 		ldrb	r3, [r0, #1]	@ zero_extendqisi2
 1508 1444 040013E3 		tst	r3, #4
 1509 1448 0480A011 		movne	r8, r4
 1510 144c 1100001A 		bne	.L384
 1511 1450 FB3008E2 		and	r3, r8, #251
 1512 1454 680053E3 		cmp	r3, #104
 1513 1458 017CA0E3 		mov	r7, #256
 1514 145c 2800000A 		beq	.L385
 1515              	.L551:
 1516 1460 740058E3 		cmp	r8, #116
 1517 1464 4C005813 		cmpne	r8, #76
 1518 1468 0130A003 		moveq	r3, #1
 1519 146c 0030A013 		movne	r3, #0
 1520 1470 EF2008E2 		and	r2, r8, #239
 1521 1474 6A0052E3 		cmp	r2, #106
 1522 1478 01308303 		orreq	r3, r3, #1
 1523 147c 000053E3 		cmp	r3, #0
 1524 1480 01A0D915 		ldrbne	r10, [r9, #1]	@ zero_extendqisi2
 1525 1484 2400001A 		bne	.L387
 1526 1488 08A0A0E1 		mov	r10, r8
 1527 148c 0680A0E1 		mov	r8, r6
 1528 1490 220000EA 		b	.L386
 1529              	.L482:
 1530 1494 0280A0E1 		mov	r8, r2
 1531              	.L384:
 1532 1498 FEFFFFEB 		bl	__locale_ctype_ptr
 1533 149c 0030D8E5 		ldrb	r3, [r8]	@ zero_extendqisi2
 1534 14a0 012088E2 		add	r2, r8, #1
 1535 14a4 030080E0 		add	r0, r0, r3
 1536 14a8 0130D0E5 		ldrb	r3, [r0, #1]	@ zero_extendqisi2
 1537 14ac 043013E2 		ands	r3, r3, #4
 1538 14b0 F7FFFF1A 		bne	.L482
 1539 14b4 0370A0E1 		mov	r7, r3
ARM GAS  C:\Users\ldebo\AppData\Local\Temp\ccISOhOE.s 			page 28


 1540 14b8 049048E0 		sub	r9, r8, r4
 1541 14bc 0920A0E1 		mov	r2, r9
 1542 14c0 0410A0E1 		mov	r1, r4
 1543 14c4 28008DE2 		add	r0, sp, #40
 1544 14c8 FEFFFFEB 		bl	strncpy
 1545 14cc 523E8DE2 		add	r3, sp, #1312
 1546 14d0 083083E2 		add	r3, r3, #8
 1547 14d4 099083E0 		add	r9, r3, r9
 1548 14d8 0400A0E1 		mov	r0, r4
 1549 14dc 0A20A0E3 		mov	r2, #10
 1550 14e0 08109DE5 		ldr	r1, [sp, #8]
 1551 14e4 007549E5 		strb	r7, [r9, #-1280]
 1552 14e8 FEFFFFEB 		bl	strtol
 1553 14ec 0890A0E1 		mov	r9, r8
 1554 14f0 0080D8E5 		ldrb	r8, [r8]	@ zero_extendqisi2
 1555 14f4 0070A0E1 		mov	r7, r0
 1556 14f8 FB3008E2 		and	r3, r8, #251
 1557 14fc 680053E3 		cmp	r3, #104
 1558 1500 D6FFFF1A 		bne	.L551
 1559              	.L385:
 1560 1504 01A0D9E5 		ldrb	r10, [r9, #1]	@ zero_extendqisi2
 1561 1508 08005AE1 		cmp	r10, r8
 1562 150c 0130A003 		moveq	r3, #1
 1563 1510 02A0D905 		ldrbeq	r10, [r9, #2]	@ zero_extendqisi2
 1564 1514 18308D05 		streq	r3, [sp, #24]
 1565 1518 03908900 		addeq	r9, r9, r3
 1566              	.L387:
 1567 151c 019089E2 		add	r9, r9, #1
 1568              	.L386:
 1569 1520 014089E2 		add	r4, r9, #1
 1570 1524 78005AE3 		cmp	r10, #120
 1571 1528 0AF19F97 		ldrls	pc, [pc, r10, asl #2]
 1572 152c 4C0200EA 		b	.L484
 1573              	.L389:
 1574 1530 0C140000 		.word	.L377
 1575 1534 641E0000 		.word	.L484
 1576 1538 641E0000 		.word	.L484
 1577 153c 641E0000 		.word	.L484
 1578 1540 641E0000 		.word	.L484
 1579 1544 641E0000 		.word	.L484
 1580 1548 641E0000 		.word	.L484
 1581 154c 641E0000 		.word	.L484
 1582 1550 641E0000 		.word	.L484
 1583 1554 641E0000 		.word	.L484
 1584 1558 641E0000 		.word	.L484
 1585 155c 641E0000 		.word	.L484
 1586 1560 641E0000 		.word	.L484
 1587 1564 641E0000 		.word	.L484
 1588 1568 641E0000 		.word	.L484
 1589 156c 641E0000 		.word	.L484
 1590 1570 641E0000 		.word	.L484
 1591 1574 641E0000 		.word	.L484
 1592 1578 641E0000 		.word	.L484
 1593 157c 641E0000 		.word	.L484
 1594 1580 641E0000 		.word	.L484
 1595 1584 641E0000 		.word	.L484
 1596 1588 641E0000 		.word	.L484
ARM GAS  C:\Users\ldebo\AppData\Local\Temp\ccISOhOE.s 			page 29


 1597 158c 641E0000 		.word	.L484
 1598 1590 641E0000 		.word	.L484
 1599 1594 641E0000 		.word	.L484
 1600 1598 641E0000 		.word	.L484
 1601 159c 641E0000 		.word	.L484
 1602 15a0 641E0000 		.word	.L484
 1603 15a4 641E0000 		.word	.L484
 1604 15a8 641E0000 		.word	.L484
 1605 15ac 641E0000 		.word	.L484
 1606 15b0 641E0000 		.word	.L484
 1607 15b4 641E0000 		.word	.L484
 1608 15b8 641E0000 		.word	.L484
 1609 15bc 641E0000 		.word	.L484
 1610 15c0 641E0000 		.word	.L484
 1611 15c4 641E0000 		.word	.L484
 1612 15c8 641E0000 		.word	.L484
 1613 15cc 641E0000 		.word	.L484
 1614 15d0 641E0000 		.word	.L484
 1615 15d4 641E0000 		.word	.L484
 1616 15d8 641E0000 		.word	.L484
 1617 15dc 641E0000 		.word	.L484
 1618 15e0 641E0000 		.word	.L484
 1619 15e4 641E0000 		.word	.L484
 1620 15e8 641E0000 		.word	.L484
 1621 15ec 641E0000 		.word	.L484
 1622 15f0 641E0000 		.word	.L484
 1623 15f4 641E0000 		.word	.L484
 1624 15f8 641E0000 		.word	.L484
 1625 15fc 641E0000 		.word	.L484
 1626 1600 641E0000 		.word	.L484
 1627 1604 641E0000 		.word	.L484
 1628 1608 641E0000 		.word	.L484
 1629 160c 641E0000 		.word	.L484
 1630 1610 641E0000 		.word	.L484
 1631 1614 641E0000 		.word	.L484
 1632 1618 641E0000 		.word	.L484
 1633 161c 641E0000 		.word	.L484
 1634 1620 641E0000 		.word	.L484
 1635 1624 641E0000 		.word	.L484
 1636 1628 641E0000 		.word	.L484
 1637 162c 641E0000 		.word	.L484
 1638 1630 641E0000 		.word	.L484
 1639 1634 B8180000 		.word	.L398
 1640 1638 641E0000 		.word	.L484
 1641 163c 641E0000 		.word	.L484
 1642 1640 641E0000 		.word	.L484
 1643 1644 B8180000 		.word	.L398
 1644 1648 B8180000 		.word	.L398
 1645 164c B8180000 		.word	.L398
 1646 1650 641E0000 		.word	.L484
 1647 1654 641E0000 		.word	.L484
 1648 1658 641E0000 		.word	.L484
 1649 165c 641E0000 		.word	.L484
 1650 1660 641E0000 		.word	.L484
 1651 1664 641E0000 		.word	.L484
 1652 1668 641E0000 		.word	.L484
 1653 166c 641E0000 		.word	.L484
ARM GAS  C:\Users\ldebo\AppData\Local\Temp\ccISOhOE.s 			page 30


 1654 1670 641E0000 		.word	.L484
 1655 1674 641E0000 		.word	.L484
 1656 1678 641E0000 		.word	.L484
 1657 167c 641E0000 		.word	.L484
 1658 1680 641E0000 		.word	.L484
 1659 1684 641E0000 		.word	.L484
 1660 1688 641E0000 		.word	.L484
 1661 168c 641E0000 		.word	.L484
 1662 1690 54180000 		.word	.L397
 1663 1694 641E0000 		.word	.L484
 1664 1698 641E0000 		.word	.L484
 1665 169c A8190000 		.word	.L392
 1666 16a0 641E0000 		.word	.L484
 1667 16a4 641E0000 		.word	.L484
 1668 16a8 641E0000 		.word	.L484
 1669 16ac 641E0000 		.word	.L484
 1670 16b0 641E0000 		.word	.L484
 1671 16b4 B8180000 		.word	.L398
 1672 16b8 641E0000 		.word	.L484
 1673 16bc FC180000 		.word	.L396
 1674 16c0 14170000 		.word	.L395
 1675 16c4 B8180000 		.word	.L398
 1676 16c8 B8180000 		.word	.L398
 1677 16cc B8180000 		.word	.L398
 1678 16d0 641E0000 		.word	.L484
 1679 16d4 14170000 		.word	.L395
 1680 16d8 641E0000 		.word	.L484
 1681 16dc 641E0000 		.word	.L484
 1682 16e0 641E0000 		.word	.L484
 1683 16e4 641E0000 		.word	.L484
 1684 16e8 641E0000 		.word	.L484
 1685 16ec 54180000 		.word	.L397
 1686 16f0 54180000 		.word	.L397
 1687 16f4 641E0000 		.word	.L484
 1688 16f8 641E0000 		.word	.L484
 1689 16fc FC180000 		.word	.L396
 1690 1700 641E0000 		.word	.L484
 1691 1704 54180000 		.word	.L397
 1692 1708 641E0000 		.word	.L484
 1693 170c 641E0000 		.word	.L484
 1694 1710 54180000 		.word	.L397
 1695              	.L395:
 1696 1714 FEFFFFEB 		bl	__locale_ctype_ptr
 1697 1718 0560A0E1 		mov	r6, r5
 1698 171c 0130D5E4 		ldrb	r3, [r5], #1	@ zero_extendqisi2
 1699 1720 2B2043E2 		sub	r2, r3, #43
 1700 1724 FD2002E2 		and	r2, r2, #253
 1701 1728 000053E3 		cmp	r3, #0
 1702 172c 00005213 		cmpne	r2, #0
 1703 1730 0120A013 		movne	r2, #1
 1704 1734 0020A003 		moveq	r2, #0
 1705 1738 030080E0 		add	r0, r0, r3
 1706 173c 0110D0E5 		ldrb	r1, [r0, #1]	@ zero_extendqisi2
 1707 1740 041021E2 		eor	r1, r1, #4
 1708 1744 212112E0 		ands	r2, r2, r1, lsr #2
 1709 1748 F1FFFF1A 		bne	.L395
 1710              	.L400:
ARM GAS  C:\Users\ldebo\AppData\Local\Temp\ccISOhOE.s 			page 31


 1711 174c 000053E3 		cmp	r3, #0
 1712 1750 2DFFFF0A 		beq	.L377
 1713 1754 0120D6E5 		ldrb	r2, [r6, #1]	@ zero_extendqisi2
 1714 1758 015086E2 		add	r5, r6, #1
 1715 175c 000052E3 		cmp	r2, #0
 1716 1760 29FFFF0A 		beq	.L377
 1717              	.L402:
 1718 1764 41204AE2 		sub	r2, r10, #65
 1719 1768 370052E3 		cmp	r2, #55
 1720 176c 02F19F97 		ldrls	pc, [pc, r2, asl #2]
 1721 1770 780000EA 		b	.L403
 1722              	.L405:
 1723 1774 F0190000 		.word	.L404
 1724 1778 58190000 		.word	.L403
 1725 177c 58190000 		.word	.L403
 1726 1780 58190000 		.word	.L403
 1727 1784 F0190000 		.word	.L404
 1728 1788 F0190000 		.word	.L404
 1729 178c F0190000 		.word	.L404
 1730 1790 58190000 		.word	.L403
 1731 1794 58190000 		.word	.L403
 1732 1798 58190000 		.word	.L403
 1733 179c 58190000 		.word	.L403
 1734 17a0 58190000 		.word	.L403
 1735 17a4 58190000 		.word	.L403
 1736 17a8 58190000 		.word	.L403
 1737 17ac 58190000 		.word	.L403
 1738 17b0 58190000 		.word	.L403
 1739 17b4 58190000 		.word	.L403
 1740 17b8 58190000 		.word	.L403
 1741 17bc 58190000 		.word	.L403
 1742 17c0 58190000 		.word	.L403
 1743 17c4 58190000 		.word	.L403
 1744 17c8 58190000 		.word	.L403
 1745 17cc 58190000 		.word	.L403
 1746 17d0 1C190000 		.word	.L406
 1747 17d4 58190000 		.word	.L403
 1748 17d8 58190000 		.word	.L403
 1749 17dc C8190000 		.word	.L407
 1750 17e0 58190000 		.word	.L403
 1751 17e4 58190000 		.word	.L403
 1752 17e8 58190000 		.word	.L403
 1753 17ec 58190000 		.word	.L403
 1754 17f0 58190000 		.word	.L403
 1755 17f4 F0190000 		.word	.L404
 1756 17f8 58190000 		.word	.L403
 1757 17fc 58190000 		.word	.L403
 1758 1800 741A0000 		.word	.L408
 1759 1804 F0190000 		.word	.L404
 1760 1808 F0190000 		.word	.L404
 1761 180c F0190000 		.word	.L404
 1762 1810 58190000 		.word	.L403
 1763 1814 A01B0000 		.word	.L409
 1764 1818 58190000 		.word	.L403
 1765 181c 58190000 		.word	.L403
 1766 1820 58190000 		.word	.L403
 1767 1824 58190000 		.word	.L403
ARM GAS  C:\Users\ldebo\AppData\Local\Temp\ccISOhOE.s 			page 32


 1768 1828 58190000 		.word	.L403
 1769 182c D01B0000 		.word	.L410
 1770 1830 A01B0000 		.word	.L409
 1771 1834 58190000 		.word	.L403
 1772 1838 58190000 		.word	.L403
 1773 183c FC1B0000 		.word	.L411
 1774 1840 58190000 		.word	.L403
 1775 1844 741A0000 		.word	.L408
 1776 1848 58190000 		.word	.L403
 1777 184c 58190000 		.word	.L403
 1778 1850 1C190000 		.word	.L406
 1779              	.L397:
 1780 1854 FEFFFFEB 		bl	__locale_ctype_ptr
 1781 1858 0560A0E1 		mov	r6, r5
 1782 185c 0120D5E4 		ldrb	r2, [r5], #1	@ zero_extendqisi2
 1783 1860 020080E0 		add	r0, r0, r2
 1784 1864 0130D0E5 		ldrb	r3, [r0, #1]	@ zero_extendqisi2
 1785 1868 2331A0E1 		lsr	r3, r3, #2
 1786 186c 013023E2 		eor	r3, r3, #1
 1787 1870 000052E3 		cmp	r2, #0
 1788 1874 0030A003 		moveq	r3, #0
 1789 1878 01300312 		andne	r3, r3, #1
 1790 187c 000053E3 		cmp	r3, #0
 1791 1880 F3FFFF1A 		bne	.L397
 1792              	.L388:
 1793 1884 5B005AE3 		cmp	r10, #91
 1794 1888 0030D615 		ldrbne	r3, [r6]	@ zero_extendqisi2
 1795 188c AEFFFF1A 		bne	.L400
 1796              	.L558:
 1797 1890 0650A0E1 		mov	r5, r6
 1798 1894 0460A0E1 		mov	r6, r4
 1799 1898 0130D9E5 		ldrb	r3, [r9, #1]	@ zero_extendqisi2
 1800              	.L399:
 1801 189c 000053E3 		cmp	r3, #0
 1802 18a0 D9FEFF0A 		beq	.L377
 1803 18a4 0120D6E5 		ldrb	r2, [r6, #1]	@ zero_extendqisi2
 1804 18a8 014086E2 		add	r4, r6, #1
 1805 18ac 000052E3 		cmp	r2, #0
 1806 18b0 ABFFFF1A 		bne	.L402
 1807 18b4 D4FEFFEA 		b	.L377
 1808              	.L398:
 1809 18b8 FEFFFFEB 		bl	__locale_ctype_ptr
 1810 18bc 0560A0E1 		mov	r6, r5
 1811 18c0 0130D5E4 		ldrb	r3, [r5], #1	@ zero_extendqisi2
 1812 18c4 2B0053E3 		cmp	r3, #43
 1813 18c8 00005313 		cmpne	r3, #0
 1814 18cc 0120A013 		movne	r2, #1
 1815 18d0 0020A003 		moveq	r2, #0
 1816 18d4 2D1043E2 		sub	r1, r3, #45
 1817 18d8 010051E3 		cmp	r1, #1
 1818 18dc 0020A093 		movls	r2, #0
 1819 18e0 01200282 		andhi	r2, r2, #1
 1820 18e4 030080E0 		add	r0, r0, r3
 1821 18e8 0130D0E5 		ldrb	r3, [r0, #1]	@ zero_extendqisi2
 1822 18ec 043023E2 		eor	r3, r3, #4
 1823 18f0 233112E0 		ands	r3, r2, r3, lsr #2
 1824 18f4 EFFFFF1A 		bne	.L398
ARM GAS  C:\Users\ldebo\AppData\Local\Temp\ccISOhOE.s 			page 33


 1825 18f8 E1FFFFEA 		b	.L388
 1826              	.L396:
 1827 18fc FEFFFFEB 		bl	__locale_ctype_ptr
 1828 1900 0560A0E1 		mov	r6, r5
 1829 1904 0130D5E4 		ldrb	r3, [r5], #1	@ zero_extendqisi2
 1830 1908 030080E0 		add	r0, r0, r3
 1831 190c 0120D0E5 		ldrb	r2, [r0, #1]	@ zero_extendqisi2
 1832 1910 080012E3 		tst	r2, #8
 1833 1914 F8FFFF1A 		bne	.L396
 1834 1918 8BFFFFEA 		b	.L400
 1835              	.L406:
 1836 191c 0590A0E1 		mov	r9, r5
 1837              	.L414:
 1838 1920 FEFFFFEB 		bl	__locale_ctype_ptr
 1839 1924 0030D9E5 		ldrb	r3, [r9]	@ zero_extendqisi2
 1840 1928 0950A0E1 		mov	r5, r9
 1841 192c 030080E0 		add	r0, r0, r3
 1842 1930 0120D0E5 		ldrb	r2, [r0, #1]	@ zero_extendqisi2
 1843 1934 2030C3E3 		bic	r3, r3, #32
 1844 1938 040012E3 		tst	r2, #4
 1845 193c 019089E2 		add	r9, r9, #1
 1846 1940 413043E2 		sub	r3, r3, #65
 1847 1944 F5FFFF1A 		bne	.L414
 1848 1948 050053E3 		cmp	r3, #5
 1849 194c F3FFFF9A 		bls	.L414
 1850 1950 1030A0E3 		mov	r3, #16
 1851 1954 0C308DE5 		str	r3, [sp, #12]
 1852              	.L403:
 1853 1958 63005AE3 		cmp	r10, #99
 1854 195c 3C01001A 		bne	.L552
 1855              	.L436:
 1856 1960 10309DE5 		ldr	r3, [sp, #16]
 1857 1964 000053E3 		cmp	r3, #0
 1858 1968 D000001A 		bne	.L456
 1859 196c 000058E3 		cmp	r8, #0
 1860 1970 9701000A 		beq	.L471
 1861 1974 6C0058E3 		cmp	r8, #108
 1862 1978 CC00001A 		bne	.L456
 1863 197c 0610A0E1 		mov	r1, r6
 1864 1980 0120A0E3 		mov	r2, #1
 1865 1984 4A0F8DE2 		add	r0, sp, #296
 1866 1988 FEFFFFEB 		bl	mbstowcs
 1867 198c 04109DE5 		ldr	r1, [sp, #4]
 1868 1990 28219DE5 		ldr	r2, [sp, #296]
 1869 1994 003091E5 		ldr	r3, [r1]
 1870 1998 041081E2 		add	r1, r1, #4
 1871 199c 04108DE5 		str	r1, [sp, #4]
 1872 19a0 002083E5 		str	r2, [r3]
 1873 19a4 C10000EA 		b	.L456
 1874              	.L392:
 1875 19a8 0130D9E5 		ldrb	r3, [r9, #1]	@ zero_extendqisi2
 1876 19ac 5E0053E3 		cmp	r3, #94
 1877 19b0 0460A011 		movne	r6, r4
 1878 19b4 0120A003 		moveq	r2, #1
 1879 19b8 02608902 		addeq	r6, r9, #2
 1880 19bc 0230D905 		ldrbeq	r3, [r9, #2]	@ zero_extendqisi2
 1881 19c0 1C208D05 		streq	r2, [sp, #28]
ARM GAS  C:\Users\ldebo\AppData\Local\Temp\ccISOhOE.s 			page 34


 1882 19c4 B4FFFFEA 		b	.L399
 1883              	.L407:
 1884 19c8 0030D4E5 		ldrb	r3, [r4]	@ zero_extendqisi2
 1885 19cc 5D0053E3 		cmp	r3, #93
 1886 19d0 00005313 		cmpne	r3, #0
 1887 19d4 0300000A 		beq	.L437
 1888              	.L418:
 1889 19d8 0130F4E5 		ldrb	r3, [r4, #1]!	@ zero_extendqisi2
 1890 19dc 5D0053E3 		cmp	r3, #93
 1891 19e0 00005313 		cmpne	r3, #0
 1892 19e4 FBFFFF1A 		bne	.L418
 1893              	.L437:
 1894 19e8 069044E0 		sub	r9, r4, r6
 1895 19ec 2A0000EA 		b	.L438
 1896              	.L404:
 1897 19f0 2EB043E2 		sub	fp, r3, #46
 1898 19f4 1BBF6FE1 		clz	fp, fp
 1899 19f8 14909DE5 		ldr	r9, [sp, #20]
 1900 19fc ABB2A0E1 		lsr	fp, fp, #5
 1901 1a00 000000EA 		b	.L435
 1902              	.L553:
 1903 1a04 015085E2 		add	r5, r5, #1
 1904              	.L435:
 1905 1a08 00005BE3 		cmp	fp, #0
 1906 1a0c 0300001A 		bne	.L432
 1907 1a10 0030D5E5 		ldrb	r3, [r5]	@ zero_extendqisi2
 1908 1a14 2E0053E3 		cmp	r3, #46
 1909 1a18 01B0A003 		moveq	fp, #1
 1910 1a1c 0B508500 		addeq	r5, r5, fp
 1911              	.L432:
 1912 1a20 000059E3 		cmp	r9, #0
 1913 1a24 0900001A 		bne	.L433
 1914 1a28 0030D5E5 		ldrb	r3, [r5]	@ zero_extendqisi2
 1915 1a2c DF3003E2 		and	r3, r3, #223
 1916 1a30 450053E3 		cmp	r3, #69
 1917 1a34 0500001A 		bne	.L433
 1918 1a38 0130D5E5 		ldrb	r3, [r5, #1]	@ zero_extendqisi2
 1919 1a3c 2D0053E3 		cmp	r3, #45
 1920 1a40 0190A013 		movne	r9, #1
 1921 1a44 0190A003 		moveq	r9, #1
 1922 1a48 01508512 		addne	r5, r5, #1
 1923 1a4c 02508502 		addeq	r5, r5, #2
 1924              	.L433:
 1925 1a50 FEFFFFEB 		bl	__locale_ctype_ptr
 1926 1a54 0030D5E5 		ldrb	r3, [r5]	@ zero_extendqisi2
 1927 1a58 030080E0 		add	r0, r0, r3
 1928 1a5c 0130D0E5 		ldrb	r3, [r0, #1]	@ zero_extendqisi2
 1929 1a60 040013E3 		tst	r3, #4
 1930 1a64 E6FFFF1A 		bne	.L553
 1931 1a68 63005AE3 		cmp	r10, #99
 1932 1a6c BBFFFF0A 		beq	.L436
 1933 1a70 F70000EA 		b	.L552
 1934              	.L408:
 1935 1a74 0590A0E1 		mov	r9, r5
 1936              	.L412:
 1937 1a78 FEFFFFEB 		bl	__locale_ctype_ptr
 1938 1a7c 0030D9E5 		ldrb	r3, [r9]	@ zero_extendqisi2
ARM GAS  C:\Users\ldebo\AppData\Local\Temp\ccISOhOE.s 			page 35


 1939 1a80 0950A0E1 		mov	r5, r9
 1940 1a84 030080E0 		add	r0, r0, r3
 1941 1a88 0130D0E5 		ldrb	r3, [r0, #1]	@ zero_extendqisi2
 1942 1a8c 019089E2 		add	r9, r9, #1
 1943 1a90 040013E3 		tst	r3, #4
 1944 1a94 F7FFFF1A 		bne	.L412
 1945              	.L479:
 1946 1a98 069045E0 		sub	r9, r5, r6
 1947              	.L438:
 1948 1a9c 0920A0E1 		mov	r2, r9
 1949 1aa0 0610A0E1 		mov	r1, r6
 1950 1aa4 28008DE2 		add	r0, sp, #40
 1951 1aa8 FEFFFFEB 		bl	strncpy
 1952 1aac 0020A0E3 		mov	r2, #0
 1953 1ab0 523E8DE2 		add	r3, sp, #1312
 1954 1ab4 083083E2 		add	r3, r3, #8
 1955 1ab8 099083E0 		add	r9, r3, r9
 1956 1abc 45304AE2 		sub	r3, r10, #69
 1957 1ac0 002549E5 		strb	r2, [r9, #-1280]
 1958 1ac4 330053E3 		cmp	r3, #51
 1959 1ac8 03F19F97 		ldrls	pc, [pc, r3, asl #2]
 1960 1acc CB0000EA 		b	.L439
 1961              	.L441:
 1962 1ad0 0C1E0000 		.word	.L440
 1963 1ad4 0C1E0000 		.word	.L440
 1964 1ad8 0C1E0000 		.word	.L440
 1965 1adc 001E0000 		.word	.L439
 1966 1ae0 001E0000 		.word	.L439
 1967 1ae4 001E0000 		.word	.L439
 1968 1ae8 001E0000 		.word	.L439
 1969 1aec 001E0000 		.word	.L439
 1970 1af0 001E0000 		.word	.L439
 1971 1af4 001E0000 		.word	.L439
 1972 1af8 001E0000 		.word	.L439
 1973 1afc 001E0000 		.word	.L439
 1974 1b00 001E0000 		.word	.L439
 1975 1b04 001E0000 		.word	.L439
 1976 1b08 001E0000 		.word	.L439
 1977 1b0c 001E0000 		.word	.L439
 1978 1b10 001E0000 		.word	.L439
 1979 1b14 001E0000 		.word	.L439
 1980 1b18 001E0000 		.word	.L439
 1981 1b1c A01D0000 		.word	.L442
 1982 1b20 001E0000 		.word	.L439
 1983 1b24 001E0000 		.word	.L439
 1984 1b28 241D0000 		.word	.L443
 1985 1b2c 001E0000 		.word	.L439
 1986 1b30 001E0000 		.word	.L439
 1987 1b34 001E0000 		.word	.L439
 1988 1b38 001E0000 		.word	.L439
 1989 1b3c 001E0000 		.word	.L439
 1990 1b40 001E0000 		.word	.L439
 1991 1b44 001E0000 		.word	.L439
 1992 1b48 60190000 		.word	.L436
 1993 1b4c C01C0000 		.word	.L444
 1994 1b50 0C1E0000 		.word	.L440
 1995 1b54 0C1E0000 		.word	.L440
ARM GAS  C:\Users\ldebo\AppData\Local\Temp\ccISOhOE.s 			page 36


 1996 1b58 0C1E0000 		.word	.L440
 1997 1b5c 001E0000 		.word	.L439
 1998 1b60 C01C0000 		.word	.L444
 1999 1b64 001E0000 		.word	.L439
 2000 1b68 001E0000 		.word	.L439
 2001 1b6c 001E0000 		.word	.L439
 2002 1b70 001E0000 		.word	.L439
 2003 1b74 001E0000 		.word	.L439
 2004 1b78 A01D0000 		.word	.L442
 2005 1b7c 941C0000 		.word	.L445
 2006 1b80 001E0000 		.word	.L439
 2007 1b84 001E0000 		.word	.L439
 2008 1b88 441C0000 		.word	.L446
 2009 1b8c 001E0000 		.word	.L439
 2010 1b90 A01D0000 		.word	.L442
 2011 1b94 001E0000 		.word	.L439
 2012 1b98 001E0000 		.word	.L439
 2013 1b9c A01D0000 		.word	.L442
 2014              	.L409:
 2015 1ba0 300053E3 		cmp	r3, #48
 2016 1ba4 0590A011 		movne	r9, r5
 2017 1ba8 BC00000A 		beq	.L554
 2018              	.L424:
 2019 1bac FEFFFFEB 		bl	__locale_ctype_ptr
 2020 1bb0 0030D9E5 		ldrb	r3, [r9]	@ zero_extendqisi2
 2021 1bb4 0950A0E1 		mov	r5, r9
 2022 1bb8 030080E0 		add	r0, r0, r3
 2023 1bbc 0130D0E5 		ldrb	r3, [r0, #1]	@ zero_extendqisi2
 2024 1bc0 019089E2 		add	r9, r9, #1
 2025 1bc4 040013E3 		tst	r3, #4
 2026 1bc8 F7FFFF1A 		bne	.L424
 2027 1bcc B1FFFFEA 		b	.L479
 2028              	.L410:
 2029 1bd0 0030D5E5 		ldrb	r3, [r5]	@ zero_extendqisi2
 2030 1bd4 303043E2 		sub	r3, r3, #48
 2031 1bd8 070053E3 		cmp	r3, #7
 2032 1bdc 0300008A 		bhi	.L487
 2033              	.L421:
 2034 1be0 0130F5E5 		ldrb	r3, [r5, #1]!	@ zero_extendqisi2
 2035 1be4 303043E2 		sub	r3, r3, #48
 2036 1be8 070053E3 		cmp	r3, #7
 2037 1bec FBFFFF9A 		bls	.L421
 2038              	.L487:
 2039 1bf0 0830A0E3 		mov	r3, #8
 2040 1bf4 0C308DE5 		str	r3, [sp, #12]
 2041 1bf8 A6FFFFEA 		b	.L479
 2042              	.L411:
 2043 1bfc 0590A0E1 		mov	r9, r5
 2044 1c00 020000EA 		b	.L413
 2045              	.L555:
 2046 1c04 000057E3 		cmp	r7, #0
 2047 1c08 A2FFFF0A 		beq	.L479
 2048 1c0c 017047E2 		sub	r7, r7, #1
 2049              	.L413:
 2050 1c10 FEFFFFEB 		bl	__locale_ctype_ptr
 2051 1c14 0950A0E1 		mov	r5, r9
 2052 1c18 0120D9E4 		ldrb	r2, [r9], #1	@ zero_extendqisi2
ARM GAS  C:\Users\ldebo\AppData\Local\Temp\ccISOhOE.s 			page 37


 2053 1c1c 020080E0 		add	r0, r0, r2
 2054 1c20 0130D0E5 		ldrb	r3, [r0, #1]	@ zero_extendqisi2
 2055 1c24 A331A0E1 		lsr	r3, r3, #3
 2056 1c28 013023E2 		eor	r3, r3, #1
 2057 1c2c 000052E3 		cmp	r2, #0
 2058 1c30 0030A003 		moveq	r3, #0
 2059 1c34 01300312 		andne	r3, r3, #1
 2060 1c38 000053E3 		cmp	r3, #0
 2061 1c3c F0FFFF1A 		bne	.L555
 2062 1c40 94FFFFEA 		b	.L479
 2063              	.L446:
 2064 1c44 10309DE5 		ldr	r3, [sp, #16]
 2065 1c48 000053E3 		cmp	r3, #0
 2066 1c4c 1700001A 		bne	.L456
 2067 1c50 000058E3 		cmp	r8, #0
 2068 1c54 E500000A 		beq	.L469
 2069 1c58 6C0058E3 		cmp	r8, #108
 2070 1c5c 1300001A 		bne	.L456
 2071 1c60 28008DE2 		add	r0, sp, #40
 2072 1c64 FEFFFFEB 		bl	strlen
 2073 1c68 28108DE2 		add	r1, sp, #40
 2074 1c6c 012080E2 		add	r2, r0, #1
 2075 1c70 4A0F8DE2 		add	r0, sp, #296
 2076 1c74 FEFFFFEB 		bl	mbstowcs
 2077 1c78 04209DE5 		ldr	r2, [sp, #4]
 2078 1c7c 4A1F8DE2 		add	r1, sp, #296
 2079 1c80 043082E2 		add	r3, r2, #4
 2080 1c84 000092E5 		ldr	r0, [r2]
 2081 1c88 04308DE5 		str	r3, [sp, #4]
 2082 1c8c FEFFFFEB 		bl	wcscpy
 2083 1c90 060000EA 		b	.L456
 2084              	.L445:
 2085 1c94 1020A0E3 		mov	r2, #16
 2086 1c98 08109DE5 		ldr	r1, [sp, #8]
 2087 1c9c 28008DE2 		add	r0, sp, #40
 2088 1ca0 FEFFFFEB 		bl	strtol
 2089 1ca4 10309DE5 		ldr	r3, [sp, #16]
 2090 1ca8 000053E3 		cmp	r3, #0
 2091 1cac 7500000A 		beq	.L542
 2092              	.L456:
 2093 1cb0 00309DE5 		ldr	r3, [sp]
 2094 1cb4 013083E2 		add	r3, r3, #1
 2095 1cb8 00308DE5 		str	r3, [sp]
 2096 1cbc BBFDFFEA 		b	.L379
 2097              	.L444:
 2098 1cc0 10309DE5 		ldr	r3, [sp, #16]
 2099 1cc4 000053E3 		cmp	r3, #0
 2100 1cc8 F8FFFF1A 		bne	.L456
 2101 1ccc 6A0058E3 		cmp	r8, #106
 2102 1cd0 E400000A 		beq	.L457
 2103 1cd4 8600009A 		bls	.L556
 2104 1cd8 740058E3 		cmp	r8, #116
 2105 1cdc 6500000A 		beq	.L461
 2106 1ce0 7A0058E3 		cmp	r8, #122
 2107 1ce4 6300000A 		beq	.L461
 2108 1ce8 6C0058E3 		cmp	r8, #108
 2109 1cec EFFFFF1A 		bne	.L456
ARM GAS  C:\Users\ldebo\AppData\Local\Temp\ccISOhOE.s 			page 38


 2110 1cf0 18309DE5 		ldr	r3, [sp, #24]
 2111 1cf4 0C209DE5 		ldr	r2, [sp, #12]
 2112 1cf8 000053E3 		cmp	r3, #0
 2113 1cfc 08109DE5 		ldr	r1, [sp, #8]
 2114 1d00 28008DE2 		add	r0, sp, #40
 2115 1d04 5E00000A 		beq	.L544
 2116 1d08 FEFFFFEB 		bl	strtoll
 2117              	.L543:
 2118 1d0c 04209DE5 		ldr	r2, [sp, #4]
 2119 1d10 003092E5 		ldr	r3, [r2]
 2120 1d14 042082E2 		add	r2, r2, #4
 2121 1d18 04208DE5 		str	r2, [sp, #4]
 2122 1d1c F000C3E1 		strd	r0, [r3]
 2123 1d20 E2FFFFEA 		b	.L456
 2124              	.L443:
 2125 1d24 1C309DE5 		ldr	r3, [sp, #28]
 2126 1d28 0560A0E1 		mov	r6, r5
 2127 1d2c 000053E3 		cmp	r3, #0
 2128 1d30 0100001A 		bne	.L475
 2129 1d34 0D0000EA 		b	.L474
 2130              	.L476:
 2131 1d38 017047E2 		sub	r7, r7, #1
 2132              	.L475:
 2133 1d3c 0010D6E5 		ldrb	r1, [r6]	@ zero_extendqisi2
 2134 1d40 28008DE2 		add	r0, sp, #40
 2135 1d44 FEFFFFEB 		bl	strchr
 2136 1d48 003097E2 		adds	r3, r7, #0
 2137 1d4c 0130A013 		movne	r3, #1
 2138 1d50 000050E3 		cmp	r0, #0
 2139 1d54 0030A013 		movne	r3, #0
 2140 1d58 000053E3 		cmp	r3, #0
 2141 1d5c 0650A0E1 		mov	r5, r6
 2142 1d60 016086E2 		add	r6, r6, #1
 2143 1d64 F3FFFF1A 		bne	.L476
 2144 1d68 90FDFFEA 		b	.L379
 2145              	.L478:
 2146 1d6c 017047E2 		sub	r7, r7, #1
 2147              	.L474:
 2148 1d70 0010D6E5 		ldrb	r1, [r6]	@ zero_extendqisi2
 2149 1d74 28008DE2 		add	r0, sp, #40
 2150 1d78 FEFFFFEB 		bl	strchr
 2151 1d7c 000050E3 		cmp	r0, #0
 2152 1d80 00005713 		cmpne	r7, #0
 2153 1d84 0650A0E1 		mov	r5, r6
 2154 1d88 0100A013 		movne	r0, #1
 2155 1d8c 0000A003 		moveq	r0, #0
 2156 1d90 016086E2 		add	r6, r6, #1
 2157 1d94 F4FFFF1A 		bne	.L478
 2158 1d98 1C008DE5 		str	r0, [sp, #28]
 2159 1d9c 83FDFFEA 		b	.L379
 2160              	.L442:
 2161 1da0 10309DE5 		ldr	r3, [sp, #16]
 2162 1da4 000053E3 		cmp	r3, #0
 2163 1da8 1400001A 		bne	.L439
 2164 1dac 6A0058E3 		cmp	r8, #106
 2165 1db0 B200000A 		beq	.L447
 2166 1db4 5F00009A 		bls	.L557
ARM GAS  C:\Users\ldebo\AppData\Local\Temp\ccISOhOE.s 			page 39


 2167 1db8 740058E3 		cmp	r8, #116
 2168 1dbc 7A00000A 		beq	.L451
 2169 1dc0 7A0058E3 		cmp	r8, #122
 2170 1dc4 7800000A 		beq	.L451
 2171 1dc8 6C0058E3 		cmp	r8, #108
 2172 1dcc 0B00001A 		bne	.L439
 2173 1dd0 18309DE5 		ldr	r3, [sp, #24]
 2174 1dd4 0C209DE5 		ldr	r2, [sp, #12]
 2175 1dd8 000053E3 		cmp	r3, #0
 2176 1ddc 08109DE5 		ldr	r1, [sp, #8]
 2177 1de0 28008DE2 		add	r0, sp, #40
 2178 1de4 7300000A 		beq	.L540
 2179 1de8 FEFFFFEB 		bl	strtoull
 2180 1dec 04209DE5 		ldr	r2, [sp, #4]
 2181 1df0 003092E5 		ldr	r3, [r2]
 2182 1df4 042082E2 		add	r2, r2, #4
 2183 1df8 F000C3E1 		strd	r0, [r3]
 2184 1dfc 04208DE5 		str	r2, [sp, #4]
 2185              	.L439:
 2186 1e00 5B005AE3 		cmp	r10, #91
 2187 1e04 A9FFFF1A 		bne	.L456
 2188 1e08 68FDFFEA 		b	.L379
 2189              	.L440:
 2190 1e0c 10309DE5 		ldr	r3, [sp, #16]
 2191 1e10 000053E3 		cmp	r3, #0
 2192 1e14 F9FFFF1A 		bne	.L439
 2193 1e18 4C0058E3 		cmp	r8, #76
 2194 1e1c 8300000A 		beq	.L466
 2195 1e20 6C0058E3 		cmp	r8, #108
 2196 1e24 7800000A 		beq	.L467
 2197 1e28 000058E3 		cmp	r8, #0
 2198 1e2c F3FFFF1A 		bne	.L439
 2199 1e30 08109DE5 		ldr	r1, [sp, #8]
 2200 1e34 28008DE2 		add	r0, sp, #40
 2201 1e38 FEFFFFEB 		bl	strtof
 2202 1e3c 04209DE5 		ldr	r2, [sp, #4]
 2203 1e40 003092E5 		ldr	r3, [r2]
 2204 1e44 042082E2 		add	r2, r2, #4
 2205 1e48 04208DE5 		str	r2, [sp, #4]
 2206 1e4c 000A83ED 		vstr.32	s0, [r3]
 2207 1e50 EAFFFFEA 		b	.L439
 2208              	.L552:
 2209 1e54 5B005AE3 		cmp	r10, #91
 2210 1e58 0EFFFF1A 		bne	.L479
 2211 1e5c 069044E0 		sub	r9, r4, r6
 2212 1e60 0DFFFFEA 		b	.L438
 2213              	.L484:
 2214 1e64 0560A0E1 		mov	r6, r5
 2215 1e68 5B005AE3 		cmp	r10, #91
 2216 1e6c 0030D615 		ldrbne	r3, [r6]	@ zero_extendqisi2
 2217 1e70 35FEFF1A 		bne	.L400
 2218 1e74 85FEFFEA 		b	.L558
 2219              	.L461:
 2220 1e78 0C209DE5 		ldr	r2, [sp, #12]
 2221 1e7c 08109DE5 		ldr	r1, [sp, #8]
 2222 1e80 28008DE2 		add	r0, sp, #40
 2223              	.L544:
ARM GAS  C:\Users\ldebo\AppData\Local\Temp\ccISOhOE.s 			page 40


 2224 1e84 FEFFFFEB 		bl	strtol
 2225              	.L542:
 2226 1e88 04209DE5 		ldr	r2, [sp, #4]
 2227 1e8c 003092E5 		ldr	r3, [r2]
 2228 1e90 042082E2 		add	r2, r2, #4
 2229 1e94 04208DE5 		str	r2, [sp, #4]
 2230 1e98 000083E5 		str	r0, [r3]
 2231 1e9c 83FFFFEA 		b	.L456
 2232              	.L554:
 2233 1ea0 0030D5E5 		ldrb	r3, [r5]	@ zero_extendqisi2
 2234 1ea4 620053E3 		cmp	r3, #98
 2235 1ea8 3300000A 		beq	.L426
 2236 1eac 780053E3 		cmp	r3, #120
 2237 1eb0 6200001A 		bne	.L535
 2238 1eb4 019085E2 		add	r9, r5, #1
 2239              	.L428:
 2240 1eb8 FEFFFFEB 		bl	__locale_ctype_ptr
 2241 1ebc 0030D9E5 		ldrb	r3, [r9]	@ zero_extendqisi2
 2242 1ec0 0950A0E1 		mov	r5, r9
 2243 1ec4 030080E0 		add	r0, r0, r3
 2244 1ec8 0120D0E5 		ldrb	r2, [r0, #1]	@ zero_extendqisi2
 2245 1ecc 2030C3E3 		bic	r3, r3, #32
 2246 1ed0 040012E3 		tst	r2, #4
 2247 1ed4 019089E2 		add	r9, r9, #1
 2248 1ed8 413043E2 		sub	r3, r3, #65
 2249 1edc F5FFFF1A 		bne	.L428
 2250 1ee0 050053E3 		cmp	r3, #5
 2251 1ee4 F3FFFF9A 		bls	.L428
 2252 1ee8 1030A0E3 		mov	r3, #16
 2253 1eec 0C308DE5 		str	r3, [sp, #12]
 2254 1ef0 E8FEFFEA 		b	.L479
 2255              	.L556:
 2256 1ef4 000058E3 		cmp	r8, #0
 2257 1ef8 DEFFFF0A 		beq	.L461
 2258 1efc 680058E3 		cmp	r8, #104
 2259 1f00 6AFFFF1A 		bne	.L456
 2260 1f04 18309DE5 		ldr	r3, [sp, #24]
 2261 1f08 0C209DE5 		ldr	r2, [sp, #12]
 2262 1f0c 000053E3 		cmp	r3, #0
 2263 1f10 08109DE5 		ldr	r1, [sp, #8]
 2264 1f14 28008DE2 		add	r0, sp, #40
 2265 1f18 6400000A 		beq	.L464
 2266 1f1c FEFFFFEB 		bl	strtol
 2267 1f20 04209DE5 		ldr	r2, [sp, #4]
 2268 1f24 003092E5 		ldr	r3, [r2]
 2269 1f28 042082E2 		add	r2, r2, #4
 2270 1f2c 04208DE5 		str	r2, [sp, #4]
 2271 1f30 0000C3E5 		strb	r0, [r3]
 2272 1f34 5DFFFFEA 		b	.L456
 2273              	.L557:
 2274 1f38 000058E3 		cmp	r8, #0
 2275 1f3c 1A00000A 		beq	.L451
 2276 1f40 680058E3 		cmp	r8, #104
 2277 1f44 ADFFFF1A 		bne	.L439
 2278 1f48 18309DE5 		ldr	r3, [sp, #24]
 2279 1f4c 0C209DE5 		ldr	r2, [sp, #12]
 2280 1f50 000053E3 		cmp	r3, #0
ARM GAS  C:\Users\ldebo\AppData\Local\Temp\ccISOhOE.s 			page 41


 2281 1f54 08109DE5 		ldr	r1, [sp, #8]
 2282 1f58 28008DE2 		add	r0, sp, #40
 2283 1f5c 5A00000A 		beq	.L454
 2284 1f60 FEFFFFEB 		bl	strtoul
 2285 1f64 04209DE5 		ldr	r2, [sp, #4]
 2286 1f68 003092E5 		ldr	r3, [r2]
 2287 1f6c 042082E2 		add	r2, r2, #4
 2288 1f70 04208DE5 		str	r2, [sp, #4]
 2289 1f74 0000C3E5 		strb	r0, [r3]
 2290 1f78 A0FFFFEA 		b	.L439
 2291              	.L426:
 2292 1f7c 0130D5E5 		ldrb	r3, [r5, #1]	@ zero_extendqisi2
 2293 1f80 015085E2 		add	r5, r5, #1
 2294 1f84 303043E2 		sub	r3, r3, #48
 2295 1f88 010053E3 		cmp	r3, #1
 2296 1f8c 0300008A 		bhi	.L486
 2297              	.L430:
 2298 1f90 0130F5E5 		ldrb	r3, [r5, #1]!	@ zero_extendqisi2
 2299 1f94 303043E2 		sub	r3, r3, #48
 2300 1f98 010053E3 		cmp	r3, #1
 2301 1f9c FBFFFF9A 		bls	.L430
 2302              	.L486:
 2303 1fa0 0230A0E3 		mov	r3, #2
 2304 1fa4 0C308DE5 		str	r3, [sp, #12]
 2305 1fa8 BAFEFFEA 		b	.L479
 2306              	.L451:
 2307 1fac 0C209DE5 		ldr	r2, [sp, #12]
 2308 1fb0 08109DE5 		ldr	r1, [sp, #8]
 2309 1fb4 28008DE2 		add	r0, sp, #40
 2310              	.L540:
 2311 1fb8 FEFFFFEB 		bl	strtoul
 2312 1fbc 04209DE5 		ldr	r2, [sp, #4]
 2313 1fc0 003092E5 		ldr	r3, [r2]
 2314 1fc4 042082E2 		add	r2, r2, #4
 2315 1fc8 04208DE5 		str	r2, [sp, #4]
 2316 1fcc 000083E5 		str	r0, [r3]
 2317 1fd0 8AFFFFEA 		b	.L439
 2318              	.L471:
 2319 1fd4 04109DE5 		ldr	r1, [sp, #4]
 2320 1fd8 0020D6E5 		ldrb	r2, [r6]	@ zero_extendqisi2
 2321 1fdc 003091E5 		ldr	r3, [r1]
 2322 1fe0 041081E2 		add	r1, r1, #4
 2323 1fe4 04108DE5 		str	r1, [sp, #4]
 2324 1fe8 0020C3E5 		strb	r2, [r3]
 2325 1fec 2FFFFFEA 		b	.L456
 2326              	.L469:
 2327 1ff0 04209DE5 		ldr	r2, [sp, #4]
 2328 1ff4 28108DE2 		add	r1, sp, #40
 2329 1ff8 043082E2 		add	r3, r2, #4
 2330 1ffc 000092E5 		ldr	r0, [r2]
 2331 2000 04308DE5 		str	r3, [sp, #4]
 2332 2004 FEFFFFEB 		bl	strcpy
 2333 2008 28FFFFEA 		b	.L456
 2334              	.L467:
 2335 200c 08109DE5 		ldr	r1, [sp, #8]
 2336 2010 28008DE2 		add	r0, sp, #40
 2337 2014 FEFFFFEB 		bl	strtod
ARM GAS  C:\Users\ldebo\AppData\Local\Temp\ccISOhOE.s 			page 42


 2338              	.L541:
 2339 2018 04209DE5 		ldr	r2, [sp, #4]
 2340 201c 003092E5 		ldr	r3, [r2]
 2341 2020 042082E2 		add	r2, r2, #4
 2342 2024 04208DE5 		str	r2, [sp, #4]
 2343 2028 000B83ED 		vstr.64	d0, [r3]
 2344 202c 73FFFFEA 		b	.L439
 2345              	.L466:
 2346 2030 08109DE5 		ldr	r1, [sp, #8]
 2347 2034 28008DE2 		add	r0, sp, #40
 2348 2038 FEFFFFEB 		bl	strtold
 2349 203c F5FFFFEA 		b	.L541
 2350              	.L535:
 2351 2040 0130D5E5 		ldrb	r3, [r5, #1]	@ zero_extendqisi2
 2352 2044 015085E2 		add	r5, r5, #1
 2353 2048 303043E2 		sub	r3, r3, #48
 2354 204c 070053E3 		cmp	r3, #7
 2355 2050 E6FEFF8A 		bhi	.L487
 2356              	.L431:
 2357 2054 0130F5E5 		ldrb	r3, [r5, #1]!	@ zero_extendqisi2
 2358 2058 303043E2 		sub	r3, r3, #48
 2359 205c 070053E3 		cmp	r3, #7
 2360 2060 FBFFFF9A 		bls	.L431
 2361 2064 E1FEFFEA 		b	.L487
 2362              	.L457:
 2363 2068 08109DE5 		ldr	r1, [sp, #8]
 2364 206c 0C209DE5 		ldr	r2, [sp, #12]
 2365 2070 28008DE2 		add	r0, sp, #40
 2366 2074 FEFFFFEB 		bl	strtol
 2367 2078 C01FA0E1 		asr	r1, r0, #31
 2368 207c 22FFFFEA 		b	.L543
 2369              	.L447:
 2370 2080 0C209DE5 		ldr	r2, [sp, #12]
 2371 2084 08109DE5 		ldr	r1, [sp, #8]
 2372 2088 28008DE2 		add	r0, sp, #40
 2373 208c FEFFFFEB 		bl	strtoul
 2374 2090 04209DE5 		ldr	r2, [sp, #4]
 2375 2094 003092E5 		ldr	r3, [r2]
 2376 2098 042082E2 		add	r2, r2, #4
 2377 209c 04208DE5 		str	r2, [sp, #4]
 2378 20a0 10209DE5 		ldr	r2, [sp, #16]
 2379 20a4 000083E5 		str	r0, [r3]
 2380 20a8 042083E5 		str	r2, [r3, #4]
 2381 20ac 53FFFFEA 		b	.L439
 2382              	.L464:
 2383 20b0 FEFFFFEB 		bl	strtol
 2384 20b4 04209DE5 		ldr	r2, [sp, #4]
 2385 20b8 003092E5 		ldr	r3, [r2]
 2386 20bc 042082E2 		add	r2, r2, #4
 2387 20c0 04208DE5 		str	r2, [sp, #4]
 2388 20c4 B000C3E1 		strh	r0, [r3]	@ movhi
 2389 20c8 F8FEFFEA 		b	.L456
 2390              	.L454:
 2391 20cc FEFFFFEB 		bl	strtoul
 2392 20d0 04209DE5 		ldr	r2, [sp, #4]
 2393 20d4 003092E5 		ldr	r3, [r2]
 2394 20d8 042082E2 		add	r2, r2, #4
ARM GAS  C:\Users\ldebo\AppData\Local\Temp\ccISOhOE.s 			page 43


 2395 20dc 04208DE5 		str	r2, [sp, #4]
 2396 20e0 B000C3E1 		strh	r0, [r3]	@ movhi
 2397 20e4 45FFFFEA 		b	.L439
 2398              		.size	vsscanf, .-vsscanf
 2399              		.align	2
 2400              		.global	sscanf
 2401              		.syntax unified
 2402              		.arm
 2403              		.fpu vfp
 2404              		.type	sscanf, %function
 2405              	sscanf:
 2406              		@ args = 4, pretend = 12, frame = 8
 2407              		@ frame_needed = 0, uses_anonymous_args = 1
 2408 20e8 0E002DE9 		push	{r1, r2, r3}
 2409 20ec 04E02DE5 		str	lr, [sp, #-4]!
 2410 20f0 003050E2 		subs	r3, r0, #0
 2411 20f4 08D04DE2 		sub	sp, sp, #8
 2412 20f8 0300A001 		moveq	r0, r3
 2413 20fc 0400000A 		beq	.L559
 2414 2100 10308DE2 		add	r3, sp, #16
 2415 2104 0320A0E1 		mov	r2, r3
 2416 2108 0C109DE5 		ldr	r1, [sp, #12]
 2417 210c 04308DE5 		str	r3, [sp, #4]
 2418 2110 FEFFFFEB 		bl	vsscanf
 2419              	.L559:
 2420 2114 08D08DE2 		add	sp, sp, #8
 2421              		@ sp needed
 2422 2118 04E09DE4 		ldr	lr, [sp], #4
 2423 211c 0CD08DE2 		add	sp, sp, #12
 2424 2120 1EFF2FE1 		bx	lr
 2425              		.size	sscanf, .-sscanf
 2426              		.align	2
 2427              		.global	emb_sprintf
 2428              		.syntax unified
 2429              		.arm
 2430              		.fpu vfp
 2431              		.type	emb_sprintf, %function
 2432              	emb_sprintf:
 2433              		@ args = 4, pretend = 12, frame = 8
 2434              		@ frame_needed = 0, uses_anonymous_args = 1
 2435 2124 0E002DE9 		push	{r1, r2, r3}
 2436 2128 04E02DE5 		str	lr, [sp, #-4]!
 2437 212c 08D04DE2 		sub	sp, sp, #8
 2438 2130 10308DE2 		add	r3, sp, #16
 2439 2134 0320A0E1 		mov	r2, r3
 2440 2138 0C109DE5 		ldr	r1, [sp, #12]
 2441 213c 04308DE5 		str	r3, [sp, #4]
 2442 2140 FEFFFFEB 		bl	emb_vsprintf
 2443 2144 08D08DE2 		add	sp, sp, #8
 2444              		@ sp needed
 2445 2148 04E09DE4 		ldr	lr, [sp], #4
 2446 214c 0CD08DE2 		add	sp, sp, #12
 2447 2150 1EFF2FE1 		bx	lr
 2448              		.size	emb_sprintf, .-emb_sprintf
 2449              		.align	2
 2450              		.global	printf
 2451              		.syntax unified
ARM GAS  C:\Users\ldebo\AppData\Local\Temp\ccISOhOE.s 			page 44


 2452              		.arm
 2453              		.fpu vfp
 2454              		.type	printf, %function
 2455              	printf:
 2456              		@ args = 4, pretend = 16, frame = 520
 2457              		@ frame_needed = 0, uses_anonymous_args = 1
 2458 2154 0F002DE9 		push	{r0, r1, r2, r3}
 2459 2158 70402DE9 		push	{r4, r5, r6, lr}
 2460 215c 82DF4DE2 		sub	sp, sp, #520
 2461 2160 873F8DE2 		add	r3, sp, #540
 2462 2164 0320A0E1 		mov	r2, r3
 2463 2168 08008DE2 		add	r0, sp, #8
 2464 216c 18129DE5 		ldr	r1, [sp, #536]
 2465 2170 04308DE5 		str	r3, [sp, #4]
 2466 2174 FEFFFFEB 		bl	emb_vsprintf
 2467 2178 006050E2 		subs	r6, r0, #0
 2468 217c 070000DA 		ble	.L565
 2469 2180 08308DE2 		add	r3, sp, #8
 2470 2184 015046E2 		sub	r5, r6, #1
 2471 2188 055083E0 		add	r5, r3, r5
 2472 218c 014043E2 		sub	r4, r3, #1
 2473              	.L567:
 2474 2190 0100F4E5 		ldrb	r0, [r4, #1]!	@ zero_extendqisi2
 2475 2194 FEFFFFEB 		bl	Embedded_Console_WriteChar
 2476 2198 050054E1 		cmp	r4, r5
 2477 219c FBFFFF1A 		bne	.L567
 2478              	.L565:
 2479 21a0 0600A0E1 		mov	r0, r6
 2480 21a4 82DF8DE2 		add	sp, sp, #520
 2481              		@ sp needed
 2482 21a8 7040BDE8 		pop	{r4, r5, r6, lr}
 2483 21ac 10D08DE2 		add	sp, sp, #16
 2484 21b0 1EFF2FE1 		bx	lr
 2485              		.size	printf, .-printf
 2486              		.comm	__errno,4,4
 2487              		.section	.rodata
 2488              		.align	2
 2489              		.set	.LANCHOR0,. + 0
 2490              		.type	digits.6535, %object
 2491              		.size	digits.6535, 16
 2492              	digits.6535:
 2493 0000 30313233 		.ascii	"0123456789ABCDEF"
 2493      34353637 
 2493      38394142 
 2493      43444546 
 2494              		.ident	"GCC: (GNU Tools for ARM Embedded Processors 6-2017-q2-update) 6.3.1 20170620 (release) [AR
ARM GAS  C:\Users\ldebo\AppData\Local\Temp\ccISOhOE.s 			page 45


DEFINED SYMBOLS
                            *ABS*:00000000 emb-stdio.c
C:\Users\ldebo\AppData\Local\Temp\ccISOhOE.s:16     .text:00000000 $a
C:\Users\ldebo\AppData\Local\Temp\ccISOhOE.s:21     .text:00000000 number
C:\Users\ldebo\AppData\Local\Temp\ccISOhOE.s:515    .text:000006dc $d
C:\Users\ldebo\AppData\Local\Temp\ccISOhOE.s:519    .text:000006e8 $a
C:\Users\ldebo\AppData\Local\Temp\ccISOhOE.s:525    .text:000006e8 strnlen
C:\Users\ldebo\AppData\Local\Temp\ccISOhOE.s:557    .text:00000730 emb_vsprintf
C:\Users\ldebo\AppData\Local\Temp\ccISOhOE.s:592    .text:0000079c $d
C:\Users\ldebo\AppData\Local\Temp\ccISOhOE.s:610    .text:000007e0 $a
C:\Users\ldebo\AppData\Local\Temp\ccISOhOE.s:653    .text:00000864 $d
C:\Users\ldebo\AppData\Local\Temp\ccISOhOE.s:738    .text:000009b4 $a
C:\Users\ldebo\AppData\Local\Temp\ccISOhOE.s:778    .text:00000a44 $d
C:\Users\ldebo\AppData\Local\Temp\ccISOhOE.s:863    .text:00000b94 $a
C:\Users\ldebo\AppData\Local\Temp\ccISOhOE.s:1432   .text:00001354 $d
C:\Users\ldebo\AppData\Local\Temp\ccISOhOE.s:1434   .text:00001358 $a
C:\Users\ldebo\AppData\Local\Temp\ccISOhOE.s:1440   .text:00001358 vsscanf
C:\Users\ldebo\AppData\Local\Temp\ccISOhOE.s:1574   .text:00001530 $d
C:\Users\ldebo\AppData\Local\Temp\ccISOhOE.s:1696   .text:00001714 $a
C:\Users\ldebo\AppData\Local\Temp\ccISOhOE.s:1723   .text:00001774 $d
C:\Users\ldebo\AppData\Local\Temp\ccISOhOE.s:1780   .text:00001854 $a
C:\Users\ldebo\AppData\Local\Temp\ccISOhOE.s:1962   .text:00001ad0 $d
C:\Users\ldebo\AppData\Local\Temp\ccISOhOE.s:2015   .text:00001ba0 $a
C:\Users\ldebo\AppData\Local\Temp\ccISOhOE.s:2405   .text:000020e8 sscanf
C:\Users\ldebo\AppData\Local\Temp\ccISOhOE.s:2432   .text:00002124 emb_sprintf
C:\Users\ldebo\AppData\Local\Temp\ccISOhOE.s:2455   .text:00002154 printf
                            *COM*:00000004 __errno
C:\Users\ldebo\AppData\Local\Temp\ccISOhOE.s:2488   .rodata:00000000 $d
C:\Users\ldebo\AppData\Local\Temp\ccISOhOE.s:2492   .rodata:00000000 digits.6535

UNDEFINED SYMBOLS
__aeabi_uidiv
__aeabi_uidivmod
__locale_ctype_ptr
strncpy
strtol
mbstowcs
strlen
wcscpy
strtoll
strchr
strtoull
strtof
strtoul
strcpy
strtod
strtold
Embedded_Console_WriteChar
ARM GAS  C:\Users\ldebo\AppData\Local\Temp\ccISOhOE.s 			page 1


   1              		.arch armv6zk
   2              		.eabi_attribute 28, 1
   3              		.eabi_attribute 20, 1
   4              		.eabi_attribute 21, 1
   5              		.eabi_attribute 23, 3
   6              		.eabi_attribute 24, 1
   7              		.eabi_attribute 25, 1
   8              		.eabi_attribute 26, 1
   9              		.eabi_attribute 30, 2
  10              		.eabi_attribute 34, 0
  11              		.eabi_attribute 18, 4
  12              		.file	"rpi-USB.c"
  13              		.text
  14              		.align	2
  15              		.syntax unified
  16              		.arm
  17              		.fpu vfp
  18              		.type	UsbGetDescription.part.2, %function
  19              	UsbGetDescription.part.2:
  20              		@ args = 0, pretend = 0, frame = 0
  21              		@ frame_needed = 0, uses_anonymous_args = 0
  22              		@ link register save eliminated.
  23 0000 1530D0E5 		ldrb	r3, [r0, #21]	@ zero_extendqisi2
  24 0004 0A0053E3 		cmp	r3, #10
  25 0008 5600000A 		beq	.L3
  26 000c 0B00009A 		bls	.L36
  27 0010 100053E3 		cmp	r3, #16
  28 0014 2900000A 		beq	.L14
  29 0018 1F00008A 		bhi	.L15
  30 001c 0D0053E3 		cmp	r3, #13
  31 0020 2C00000A 		beq	.L16
  32 0024 3B00009A 		bls	.L37
  33 0028 0E0053E3 		cmp	r3, #14
  34 002c 3F00000A 		beq	.L19
  35 0030 0F0053E3 		cmp	r3, #15
  36 0034 2F00001A 		bne	.L2
  37 0038 60019FE5 		ldr	r0, .L41
  38 003c 1EFF2FE1 		bx	lr
  39              	.L36:
  40 0040 050053E3 		cmp	r3, #5
  41 0044 4500000A 		beq	.L5
  42 0048 2400009A 		bls	.L38
  43 004c 070053E3 		cmp	r3, #7
  44 0050 1E00000A 		beq	.L10
  45 0054 4700003A 		bcc	.L11
  46 0058 080053E3 		cmp	r3, #8
  47 005c 4300000A 		beq	.L12
  48 0060 090053E3 		cmp	r3, #9
  49 0064 2300001A 		bne	.L2
  50 0068 F60F80E2 		add	r0, r0, #984
  51 006c B230D0E1 		ldrh	r3, [r0, #2]
  52 0070 210E53E3 		cmp	r3, #528
  53 0074 4300000A 		beq	.L30
  54 0078 020C53E3 		cmp	r3, #512
  55 007c 4300000A 		beq	.L31
  56 0080 110E53E3 		cmp	r3, #272
  57 0084 4300000A 		beq	.L32
ARM GAS  C:\Users\ldebo\AppData\Local\Temp\ccISOhOE.s 			page 2


  58 0088 14019FE5 		ldr	r0, .L41+4
  59 008c 010C53E3 		cmp	r3, #256
  60 0090 102080E2 		add	r2, r0, #16
  61 0094 0200A011 		movne	r0, r2
  62 0098 1EFF2FE1 		bx	lr
  63              	.L15:
  64 009c E00053E3 		cmp	r3, #224
  65 00a0 0800000A 		beq	.L21
  66 00a4 1700009A 		bls	.L39
  67 00a8 EF0053E3 		cmp	r3, #239
  68 00ac 1D00000A 		beq	.L24
  69 00b0 FF0053E3 		cmp	r3, #255
  70 00b4 0F00001A 		bne	.L2
  71 00b8 E8009FE5 		ldr	r0, .L41+8
  72 00bc 1EFF2FE1 		bx	lr
  73              	.L14:
  74 00c0 E4009FE5 		ldr	r0, .L41+12
  75 00c4 1EFF2FE1 		bx	lr
  76              	.L21:
  77 00c8 E0009FE5 		ldr	r0, .L41+16
  78 00cc 1EFF2FE1 		bx	lr
  79              	.L10:
  80 00d0 DC009FE5 		ldr	r0, .L41+20
  81 00d4 1EFF2FE1 		bx	lr
  82              	.L16:
  83 00d8 D8009FE5 		ldr	r0, .L41+24
  84 00dc 1EFF2FE1 		bx	lr
  85              	.L38:
  86 00e0 020053E3 		cmp	r3, #2
  87 00e4 1B00000A 		beq	.L7
  88 00e8 030053E3 		cmp	r3, #3
  89 00ec 1100000A 		beq	.L8
  90 00f0 010053E3 		cmp	r3, #1
  91 00f4 0100000A 		beq	.L40
  92              	.L2:
  93 00f8 BC009FE5 		ldr	r0, .L41+28
  94 00fc 1EFF2FE1 		bx	lr
  95              	.L40:
  96 0100 B8009FE5 		ldr	r0, .L41+32
  97 0104 1EFF2FE1 		bx	lr
  98              	.L39:
  99 0108 DC0053E3 		cmp	r3, #220
 100 010c F9FFFF1A 		bne	.L2
 101 0110 AC009FE5 		ldr	r0, .L41+36
 102 0114 1EFF2FE1 		bx	lr
 103              	.L37:
 104 0118 0B0053E3 		cmp	r3, #11
 105 011c F5FFFF1A 		bne	.L2
 106 0120 A0009FE5 		ldr	r0, .L41+40
 107 0124 1EFF2FE1 		bx	lr
 108              	.L24:
 109 0128 9C009FE5 		ldr	r0, .L41+44
 110 012c 1EFF2FE1 		bx	lr
 111              	.L19:
 112 0130 98009FE5 		ldr	r0, .L41+48
 113 0134 1EFF2FE1 		bx	lr
 114              	.L8:
ARM GAS  C:\Users\ldebo\AppData\Local\Temp\ccISOhOE.s 			page 3


 115 0138 1730D0E5 		ldrb	r3, [r0, #23]	@ zero_extendqisi2
 116 013c 010053E3 		cmp	r3, #1
 117 0140 0E00000A 		beq	.L29
 118 0144 88009FE5 		ldr	r0, .L41+52
 119 0148 020053E3 		cmp	r3, #2
 120 014c 0C2080E2 		add	r2, r0, #12
 121 0150 0200A011 		movne	r0, r2
 122 0154 1EFF2FE1 		bx	lr
 123              	.L7:
 124 0158 78009FE5 		ldr	r0, .L41+56
 125 015c 1EFF2FE1 		bx	lr
 126              	.L5:
 127 0160 74009FE5 		ldr	r0, .L41+60
 128 0164 1EFF2FE1 		bx	lr
 129              	.L3:
 130 0168 70009FE5 		ldr	r0, .L41+64
 131 016c 1EFF2FE1 		bx	lr
 132              	.L12:
 133 0170 6C009FE5 		ldr	r0, .L41+68
 134 0174 1EFF2FE1 		bx	lr
 135              	.L11:
 136 0178 68009FE5 		ldr	r0, .L41+72
 137 017c 1EFF2FE1 		bx	lr
 138              	.L29:
 139 0180 64009FE5 		ldr	r0, .L41+76
 140 0184 1EFF2FE1 		bx	lr
 141              	.L30:
 142 0188 60009FE5 		ldr	r0, .L41+80
 143 018c 1EFF2FE1 		bx	lr
 144              	.L31:
 145 0190 5C009FE5 		ldr	r0, .L41+84
 146 0194 1EFF2FE1 		bx	lr
 147              	.L32:
 148 0198 58009FE5 		ldr	r0, .L41+88
 149 019c 1EFF2FE1 		bx	lr
 150              	.L42:
 151              		.align	2
 152              	.L41:
 153 01a0 48010000 		.word	.LANCHOR0+328
 154 01a4 D4000000 		.word	.LANCHOR0+212
 155 01a8 C0010000 		.word	.LANCHOR0+448
 156 01ac 60010000 		.word	.LANCHOR0+352
 157 01b0 88010000 		.word	.LANCHOR0+392
 158 01b4 78000000 		.word	.LANCHOR0+120
 159 01b8 18010000 		.word	.LANCHOR0+280
 160 01bc D4010000 		.word	.LANCHOR0+468
 161 01c0 00000000 		.word	.LANCHOR0
 162 01c4 70010000 		.word	.LANCHOR0+368
 163 01c8 08010000 		.word	.LANCHOR0+264
 164 01cc A4010000 		.word	.LANCHOR0+420
 165 01d0 34010000 		.word	.LANCHOR0+308
 166 01d4 34000000 		.word	.LANCHOR0+52
 167 01d8 14000000 		.word	.LANCHOR0+20
 168 01dc 4C000000 		.word	.LANCHOR0+76
 169 01e0 F0000000 		.word	.LANCHOR0+240
 170 01e4 88000000 		.word	.LANCHOR0+136
 171 01e8 64000000 		.word	.LANCHOR0+100
ARM GAS  C:\Users\ldebo\AppData\Local\Temp\ccISOhOE.s 			page 4


 172 01ec 24000000 		.word	.LANCHOR0+36
 173 01f0 A4000000 		.word	.LANCHOR0+164
 174 01f4 B4000000 		.word	.LANCHOR0+180
 175 01f8 C4000000 		.word	.LANCHOR0+196
 176              		.size	UsbGetDescription.part.2, .-UsbGetDescription.part.2
 177              		.align	2
 178              		.global	HcdProcessRootHubMessage
 179              		.syntax unified
 180              		.arm
 181              		.fpu vfp
 182              		.type	HcdProcessRootHubMessage, %function
 183              	HcdProcessRootHubMessage:
 184              		@ args = 0, pretend = 0, frame = 16
 185              		@ frame_needed = 0, uses_anonymous_args = 0
 186 01fc F0412DE9 		push	{r4, r5, r6, r7, r8, lr}
 187 0200 01C0D2E5 		ldrb	ip, [r2, #1]	@ zero_extendqisi2
 188 0204 10D04DE2 		sub	sp, sp, #16
 189 0208 09005CE3 		cmp	ip, #9
 190 020c 0CF19F97 		ldrls	pc, [pc, ip, asl #2]
 191 0210 E60000EA 		b	.L107
 192              	.L46:
 193 0214 90030000 		.word	.L45
 194 0218 34040000 		.word	.L47
 195 021c B0050000 		.word	.L107
 196 0220 D4040000 		.word	.L48
 197 0224 B0050000 		.word	.L107
 198 0228 74050000 		.word	.L49
 199 022c 88050000 		.word	.L50
 200 0230 B0050000 		.word	.L107
 201 0234 BC020000 		.word	.L51
 202 0238 A0020000 		.word	.L125
 203              	.L72:
 204 023c 0410D2E5 		ldrb	r1, [r2, #4]	@ zero_extendqisi2
 205 0240 0500D2E5 		ldrb	r0, [r2, #5]	@ zero_extendqisi2
 206 0244 001481E1 		orr	r1, r1, r0, lsl #8
 207 0248 010051E3 		cmp	r1, #1
 208 024c D700001A 		bne	.L107
 209 0250 0220D2E5 		ldrb	r2, [r2, #2]	@ zero_extendqisi2
 210 0254 040052E3 		cmp	r2, #4
 211 0258 9A01000A 		beq	.L74
 212 025c 080052E3 		cmp	r2, #8
 213 0260 0E00001A 		bne	.L125
 214 0264 70279FE5 		ldr	r2, .L130
 215 0268 002092E5 		ldr	r2, [r2]
 216 026c 000052E3 		cmp	r2, #0
 217 0270 0300000A 		beq	.L76
 218 0274 64079FE5 		ldr	r0, .L130+4
 219 0278 04308DE5 		str	r3, [sp, #4]
 220 027c 32FF2FE1 		blx	r2
 221 0280 04309DE5 		ldr	r3, [sp, #4]
 222              	.L76:
 223 0284 58279FE5 		ldr	r2, .L130+8
 224 0288 001092E5 		ldr	r1, [r2]
 225 028c 261781E2 		add	r1, r1, #9961472
 226 0290 402491E5 		ldr	r2, [r1, #1088]
 227 0294 2E20C2E3 		bic	r2, r2, #46
 228 0298 012A82E3 		orr	r2, r2, #4096
ARM GAS  C:\Users\ldebo\AppData\Local\Temp\ccISOhOE.s 			page 5


 229 029c 402481E5 		str	r2, [r1, #1088]
 230              	.L125:
 231 02a0 00E0A0E3 		mov	lr, #0
 232              	.L52:
 233 02a4 0010A0E3 		mov	r1, #0
 234              	.L94:
 235 02a8 0E00A0E1 		mov	r0, lr
 236 02ac 000053E3 		cmp	r3, #0
 237 02b0 00108315 		strne	r1, [r3]
 238 02b4 10D08DE2 		add	sp, sp, #16
 239              		@ sp needed
 240 02b8 F081BDE8 		pop	{r4, r5, r6, r7, r8, pc}
 241              	.L51:
 242 02bc 01C0A0E3 		mov	ip, #1
 243 02c0 00E0A0E3 		mov	lr, #0
 244 02c4 0C20A0E1 		mov	r2, ip
 245 02c8 0CC0CDE5 		strb	ip, [sp, #12]
 246              	.L58:
 247 02cc 010052E1 		cmp	r2, r1
 248 02d0 0210A031 		movcc	r1, r2
 249 02d4 00005EE3 		cmp	lr, #0
 250 02d8 0C209D15 		ldrne	r2, [sp, #12]
 251 02dc 00E0A013 		movne	lr, #0
 252 02e0 0C208D02 		addeq	r2, sp, #12
 253 02e4 000051E3 		cmp	r1, #0
 254 02e8 EEFFFF0A 		beq	.L94
 255 02ec 04C080E2 		add	ip, r0, #4
 256 02f0 044082E2 		add	r4, r2, #4
 257 02f4 040050E1 		cmp	r0, r4
 258 02f8 0C005231 		cmpcc	r2, ip
 259 02fc 01C0A023 		movcs	ip, #1
 260 0300 00C0A033 		movcc	ip, #0
 261 0304 024080E1 		orr	r4, r0, r2
 262 0308 090051E3 		cmp	r1, #9
 263 030c 00C0A093 		movls	ip, #0
 264 0310 01C00C82 		andhi	ip, ip, #1
 265 0314 030014E3 		tst	r4, #3
 266 0318 00C0A013 		movne	ip, #0
 267 031c 01C00C02 		andeq	ip, ip, #1
 268 0320 00005CE3 		cmp	ip, #0
 269 0324 A300000A 		beq	.L89
 270 0328 0070A0E1 		mov	r7, r0
 271 032c 0050A0E3 		mov	r5, #0
 272 0330 04C041E2 		sub	ip, r1, #4
 273 0334 2CC1A0E1 		lsr	ip, ip, #2
 274 0338 01C08CE2 		add	ip, ip, #1
 275 033c 0C41A0E1 		lsl	r4, ip, #2
 276 0340 046042E2 		sub	r6, r2, #4
 277              	.L90:
 278 0344 015085E2 		add	r5, r5, #1
 279 0348 0480B6E5 		ldr	r8, [r6, #4]!
 280 034c 05005CE1 		cmp	ip, r5
 281 0350 048087E4 		str	r8, [r7], #4
 282 0354 FAFFFF8A 		bhi	.L90
 283 0358 040051E1 		cmp	r1, r4
 284 035c D1FFFF0A 		beq	.L94
 285 0360 0C61D2E7 		ldrb	r6, [r2, ip, lsl #2]	@ zero_extendqisi2
ARM GAS  C:\Users\ldebo\AppData\Local\Temp\ccISOhOE.s 			page 6


 286 0364 015084E2 		add	r5, r4, #1
 287 0368 010055E1 		cmp	r5, r1
 288 036c 0C61C0E7 		strb	r6, [r0, ip, lsl #2]
 289 0370 CCFFFF2A 		bcs	.L94
 290 0374 024084E2 		add	r4, r4, #2
 291 0378 05C0D2E7 		ldrb	ip, [r2, r5]	@ zero_extendqisi2
 292 037c 040051E1 		cmp	r1, r4
 293 0380 05C0C0E7 		strb	ip, [r0, r5]
 294 0384 0420D287 		ldrbhi	r2, [r2, r4]	@ zero_extendqisi2
 295 0388 0420C087 		strbhi	r2, [r0, r4]
 296 038c C5FFFFEA 		b	.L94
 297              	.L45:
 298 0390 00C0D2E5 		ldrb	ip, [r2]	@ zero_extendqisi2
 299 0394 80C04CE2 		sub	ip, ip, #128
 300 0398 23005CE3 		cmp	ip, #35
 301 039c 0CF19F97 		ldrls	pc, [pc, ip, asl #2]
 302 03a0 820000EA 		b	.L107
 303              	.L54:
 304 03a4 40070000 		.word	.L53
 305 03a8 60060000 		.word	.L55
 306 03ac 60060000 		.word	.L55
 307 03b0 B0050000 		.word	.L107
 308 03b4 B0050000 		.word	.L107
 309 03b8 B0050000 		.word	.L107
 310 03bc B0050000 		.word	.L107
 311 03c0 B0050000 		.word	.L107
 312 03c4 B0050000 		.word	.L107
 313 03c8 B0050000 		.word	.L107
 314 03cc B0050000 		.word	.L107
 315 03d0 B0050000 		.word	.L107
 316 03d4 B0050000 		.word	.L107
 317 03d8 B0050000 		.word	.L107
 318 03dc B0050000 		.word	.L107
 319 03e0 B0050000 		.word	.L107
 320 03e4 B0050000 		.word	.L107
 321 03e8 B0050000 		.word	.L107
 322 03ec B0050000 		.word	.L107
 323 03f0 B0050000 		.word	.L107
 324 03f4 B0050000 		.word	.L107
 325 03f8 B0050000 		.word	.L107
 326 03fc B0050000 		.word	.L107
 327 0400 B0050000 		.word	.L107
 328 0404 B0050000 		.word	.L107
 329 0408 B0050000 		.word	.L107
 330 040c B0050000 		.word	.L107
 331 0410 B0050000 		.word	.L107
 332 0414 B0050000 		.word	.L107
 333 0418 B0050000 		.word	.L107
 334 041c B0050000 		.word	.L107
 335 0420 B0050000 		.word	.L107
 336 0424 48060000 		.word	.L56
 337 0428 B0050000 		.word	.L107
 338 042c B0050000 		.word	.L107
 339 0430 70060000 		.word	.L57
 340              	.L47:
 341 0434 0010D2E5 		ldrb	r1, [r2]	@ zero_extendqisi2
 342 0438 011041E2 		sub	r1, r1, #1
ARM GAS  C:\Users\ldebo\AppData\Local\Temp\ccISOhOE.s 			page 7


 343 043c 220051E3 		cmp	r1, #34
 344 0440 01F19F97 		ldrls	pc, [pc, r1, asl #2]
 345 0444 590000EA 		b	.L107
 346              	.L61:
 347 0448 A0020000 		.word	.L125
 348 044c A0020000 		.word	.L125
 349 0450 B0050000 		.word	.L107
 350 0454 B0050000 		.word	.L107
 351 0458 B0050000 		.word	.L107
 352 045c B0050000 		.word	.L107
 353 0460 B0050000 		.word	.L107
 354 0464 B0050000 		.word	.L107
 355 0468 B0050000 		.word	.L107
 356 046c B0050000 		.word	.L107
 357 0470 B0050000 		.word	.L107
 358 0474 B0050000 		.word	.L107
 359 0478 B0050000 		.word	.L107
 360 047c B0050000 		.word	.L107
 361 0480 B0050000 		.word	.L107
 362 0484 B0050000 		.word	.L107
 363 0488 B0050000 		.word	.L107
 364 048c B0050000 		.word	.L107
 365 0490 B0050000 		.word	.L107
 366 0494 B0050000 		.word	.L107
 367 0498 B0050000 		.word	.L107
 368 049c B0050000 		.word	.L107
 369 04a0 B0050000 		.word	.L107
 370 04a4 B0050000 		.word	.L107
 371 04a8 B0050000 		.word	.L107
 372 04ac B0050000 		.word	.L107
 373 04b0 B0050000 		.word	.L107
 374 04b4 B0050000 		.word	.L107
 375 04b8 B0050000 		.word	.L107
 376 04bc B0050000 		.word	.L107
 377 04c0 B0050000 		.word	.L107
 378 04c4 A0020000 		.word	.L125
 379 04c8 B0050000 		.word	.L107
 380 04cc B0050000 		.word	.L107
 381 04d0 D4050000 		.word	.L62
 382              	.L48:
 383 04d4 0010D2E5 		ldrb	r1, [r2]	@ zero_extendqisi2
 384 04d8 011041E2 		sub	r1, r1, #1
 385 04dc 220051E3 		cmp	r1, #34
 386 04e0 01F19F97 		ldrls	pc, [pc, r1, asl #2]
 387 04e4 310000EA 		b	.L107
 388              	.L71:
 389 04e8 A0020000 		.word	.L125
 390 04ec A0020000 		.word	.L125
 391 04f0 B0050000 		.word	.L107
 392 04f4 B0050000 		.word	.L107
 393 04f8 B0050000 		.word	.L107
 394 04fc B0050000 		.word	.L107
 395 0500 B0050000 		.word	.L107
 396 0504 B0050000 		.word	.L107
 397 0508 B0050000 		.word	.L107
 398 050c B0050000 		.word	.L107
 399 0510 B0050000 		.word	.L107
ARM GAS  C:\Users\ldebo\AppData\Local\Temp\ccISOhOE.s 			page 8


 400 0514 B0050000 		.word	.L107
 401 0518 B0050000 		.word	.L107
 402 051c B0050000 		.word	.L107
 403 0520 B0050000 		.word	.L107
 404 0524 B0050000 		.word	.L107
 405 0528 B0050000 		.word	.L107
 406 052c B0050000 		.word	.L107
 407 0530 B0050000 		.word	.L107
 408 0534 B0050000 		.word	.L107
 409 0538 B0050000 		.word	.L107
 410 053c B0050000 		.word	.L107
 411 0540 B0050000 		.word	.L107
 412 0544 B0050000 		.word	.L107
 413 0548 B0050000 		.word	.L107
 414 054c B0050000 		.word	.L107
 415 0550 B0050000 		.word	.L107
 416 0554 B0050000 		.word	.L107
 417 0558 B0050000 		.word	.L107
 418 055c B0050000 		.word	.L107
 419 0560 B0050000 		.word	.L107
 420 0564 A0020000 		.word	.L125
 421 0568 B0050000 		.word	.L107
 422 056c B0050000 		.word	.L107
 423 0570 3C020000 		.word	.L72
 424              	.L49:
 425 0574 0210D2E5 		ldrb	r1, [r2, #2]	@ zero_extendqisi2
 426 0578 5C249FE5 		ldr	r2, .L130
 427 057c 00E0A0E3 		mov	lr, #0
 428 0580 0810C2E5 		strb	r1, [r2, #8]
 429 0584 46FFFFEA 		b	.L52
 430              	.L50:
 431 0588 00C0D2E5 		ldrb	ip, [r2]	@ zero_extendqisi2
 432 058c 80005CE3 		cmp	ip, #128
 433 0590 BE00000A 		beq	.L77
 434 0594 A0005CE3 		cmp	ip, #160
 435 0598 0400001A 		bne	.L107
 436 059c 44249FE5 		ldr	r2, .L130+12
 437 05a0 01E0A0E3 		mov	lr, #1
 438 05a4 0C208DE5 		str	r2, [sp, #12]
 439 05a8 0920A0E3 		mov	r2, #9
 440 05ac 46FFFFEA 		b	.L58
 441              	.L107:
 442 05b0 01E0E0E3 		mvn	lr, #1
 443 05b4 3AFFFFEA 		b	.L52
 444              	.L89:
 445 05b8 01C040E2 		sub	ip, r0, #1
 446 05bc 014082E0 		add	r4, r2, r1
 447              	.L95:
 448 05c0 0100D2E4 		ldrb	r0, [r2], #1	@ zero_extendqisi2
 449 05c4 040052E1 		cmp	r2, r4
 450 05c8 0100ECE5 		strb	r0, [ip, #1]!
 451 05cc FBFFFF1A 		bne	.L95
 452 05d0 34FFFFEA 		b	.L94
 453              	.L62:
 454 05d4 0410D2E5 		ldrb	r1, [r2, #4]	@ zero_extendqisi2
 455 05d8 0500D2E5 		ldrb	r0, [r2, #5]	@ zero_extendqisi2
 456 05dc 001481E1 		orr	r1, r1, r0, lsl #8
ARM GAS  C:\Users\ldebo\AppData\Local\Temp\ccISOhOE.s 			page 9


 457 05e0 010051E3 		cmp	r1, #1
 458 05e4 F1FFFF1A 		bne	.L107
 459 05e8 0220D2E5 		ldrb	r2, [r2, #2]	@ zero_extendqisi2
 460 05ec 012042E2 		sub	r2, r2, #1
 461 05f0 120052E3 		cmp	r2, #18
 462 05f4 02F19F97 		ldrls	pc, [pc, r2, asl #2]
 463 05f8 28FFFFEA 		b	.L125
 464              	.L64:
 465 05fc 6C080000 		.word	.L63
 466 0600 04080000 		.word	.L65
 467 0604 A0020000 		.word	.L125
 468 0608 A0020000 		.word	.L125
 469 060c A0020000 		.word	.L125
 470 0610 A0020000 		.word	.L125
 471 0614 A0020000 		.word	.L125
 472 0618 C0070000 		.word	.L66
 473 061c A0020000 		.word	.L125
 474 0620 A0020000 		.word	.L125
 475 0624 A0020000 		.word	.L125
 476 0628 A0020000 		.word	.L125
 477 062c A0020000 		.word	.L125
 478 0630 A0020000 		.word	.L125
 479 0634 A0020000 		.word	.L125
 480 0638 9C070000 		.word	.L67
 481 063c 78070000 		.word	.L68
 482 0640 A0020000 		.word	.L125
 483 0644 54070000 		.word	.L69
 484              	.L56:
 485 0648 0120A0E3 		mov	r2, #1
 486 064c 00E0A0E3 		mov	lr, #0
 487 0650 0CE08DE5 		str	lr, [sp, #12]
 488 0654 0C20CDE5 		strb	r2, [sp, #12]
 489 0658 0420A0E3 		mov	r2, #4
 490 065c 1AFFFFEA 		b	.L58
 491              	.L55:
 492 0660 00E0A0E3 		mov	lr, #0
 493 0664 0220A0E3 		mov	r2, #2
 494 0668 BCE0CDE1 		strh	lr, [sp, #12]	@ movhi
 495 066c 16FFFFEA 		b	.L58
 496              	.L57:
 497 0670 04C0D2E5 		ldrb	ip, [r2, #4]	@ zero_extendqisi2
 498 0674 0520D2E5 		ldrb	r2, [r2, #5]	@ zero_extendqisi2
 499 0678 02248CE1 		orr	r2, ip, r2, lsl #8
 500 067c 010052E3 		cmp	r2, #1
 501 0680 CAFFFF1A 		bne	.L107
 502 0684 00C0A0E3 		mov	ip, #0
 503 0688 54239FE5 		ldr	r2, .L130+8
 504 068c 0CC08DE5 		str	ip, [sp, #12]
 505 0690 002092E5 		ldr	r2, [r2]
 506 0694 262782E2 		add	r2, r2, #9961472
 507 0698 402492E5 		ldr	r2, [r2, #1088]
 508 069c A2C0A0E1 		lsr	ip, r2, #1
 509 06a0 01E002E2 		and	lr, r2, #1
 510 06a4 02C00CE2 		and	ip, ip, #2
 511 06a8 A242A0E1 		lsr	r4, r2, #5
 512 06ac 0EC08CE1 		orr	ip, ip, lr
 513 06b0 044004E2 		and	r4, r4, #4
ARM GAS  C:\Users\ldebo\AppData\Local\Temp\ccISOhOE.s 			page 10


 514 06b4 A2E0A0E1 		lsr	lr, r2, #1
 515 06b8 0C4084E1 		orr	r4, r4, ip
 516 06bc 08E00EE2 		and	lr, lr, #8
 517 06c0 22C2A0E1 		lsr	ip, r2, #4
 518 06c4 04E08EE1 		orr	lr, lr, r4
 519 06c8 10C00CE2 		and	ip, ip, #16
 520 06cc 2256A0E1 		lsr	r5, r2, #12
 521 06d0 2248A0E1 		lsr	r4, r2, #16
 522 06d4 0EC08CE1 		orr	ip, ip, lr
 523 06d8 064014E2 		ands	r4, r4, #6
 524 06dc 01E005E2 		and	lr, r5, #1
 525 06e0 0CC0CDE5 		strb	ip, [sp, #12]
 526 06e4 0DE0CDE5 		strb	lr, [sp, #13]
 527 06e8 9D00001A 		bne	.L59
 528 06ec 7EC0EFE6 		uxtb	ip, lr
 529 06f0 04C08CE3 		orr	ip, ip, #4
 530 06f4 0DC0CDE5 		strb	ip, [sp, #13]
 531              	.L60:
 532 06f8 1E5A12E2 		ands	r5, r2, #122880
 533 06fc 0850A013 		movne	r5, #8
 534 0700 0EC0DDE5 		ldrb	ip, [sp, #14]	@ zero_extendqisi2
 535 0704 024FA0E1 		lsl	r4, r2, #30
 536 0708 0DE0DDE5 		ldrb	lr, [sp, #13]	@ zero_extendqisi2
 537 070c 01C0CCE3 		bic	ip, ip, #1
 538 0710 A4CF8CE1 		orr	ip, ip, r4, lsr #31
 539 0714 2241A0E1 		lsr	r4, r2, #2
 540 0718 084004E2 		and	r4, r4, #8
 541 071c E5200CE2 		and	r2, ip, #229
 542 0720 08C0CEE3 		bic	ip, lr, #8
 543 0724 042082E1 		orr	r2, r2, r4
 544 0728 0CC085E1 		orr	ip, r5, ip
 545 072c 0E20CDE5 		strb	r2, [sp, #14]
 546 0730 0DC0CDE5 		strb	ip, [sp, #13]
 547 0734 00E0A0E3 		mov	lr, #0
 548 0738 0420A0E3 		mov	r2, #4
 549 073c E2FEFFEA 		b	.L58
 550              	.L53:
 551 0740 0120A0E3 		mov	r2, #1
 552 0744 00E0A0E3 		mov	lr, #0
 553 0748 BC20CDE1 		strh	r2, [sp, #12]	@ movhi
 554 074c 0220A0E3 		mov	r2, #2
 555 0750 DDFEFFEA 		b	.L58
 556              	.L69:
 557 0754 88229FE5 		ldr	r2, .L130+8
 558 0758 00E0A0E3 		mov	lr, #0
 559 075c 001092E5 		ldr	r1, [r2]
 560 0760 261781E2 		add	r1, r1, #9961472
 561 0764 402491E5 		ldr	r2, [r1, #1088]
 562 0768 2E20C2E3 		bic	r2, r2, #46
 563 076c 202082E3 		orr	r2, r2, #32
 564 0770 402481E5 		str	r2, [r1, #1088]
 565 0774 CAFEFFEA 		b	.L52
 566              	.L68:
 567 0778 64229FE5 		ldr	r2, .L130+8
 568 077c 00E0A0E3 		mov	lr, #0
 569 0780 001092E5 		ldr	r1, [r2]
 570 0784 261781E2 		add	r1, r1, #9961472
ARM GAS  C:\Users\ldebo\AppData\Local\Temp\ccISOhOE.s 			page 11


 571 0788 402491E5 		ldr	r2, [r1, #1088]
 572 078c 2E20C2E3 		bic	r2, r2, #46
 573 0790 082082E3 		orr	r2, r2, #8
 574 0794 402481E5 		str	r2, [r1, #1088]
 575 0798 C1FEFFEA 		b	.L52
 576              	.L67:
 577 079c 40229FE5 		ldr	r2, .L130+8
 578 07a0 00E0A0E3 		mov	lr, #0
 579 07a4 001092E5 		ldr	r1, [r2]
 580 07a8 261781E2 		add	r1, r1, #9961472
 581 07ac 402491E5 		ldr	r2, [r1, #1088]
 582 07b0 2E20C2E3 		bic	r2, r2, #46
 583 07b4 022082E3 		orr	r2, r2, #2
 584 07b8 402481E5 		str	r2, [r1, #1088]
 585 07bc B8FEFFEA 		b	.L52
 586              	.L66:
 587 07c0 14229FE5 		ldr	r2, .L130
 588 07c4 002092E5 		ldr	r2, [r2]
 589 07c8 000052E3 		cmp	r2, #0
 590 07cc 0300000A 		beq	.L70
 591 07d0 14029FE5 		ldr	r0, .L130+16
 592 07d4 04308DE5 		str	r3, [sp, #4]
 593 07d8 32FF2FE1 		blx	r2
 594 07dc 04309DE5 		ldr	r3, [sp, #4]
 595              	.L70:
 596 07e0 FC219FE5 		ldr	r2, .L130+8
 597 07e4 00E0A0E3 		mov	lr, #0
 598 07e8 001092E5 		ldr	r1, [r2]
 599 07ec 261781E2 		add	r1, r1, #9961472
 600 07f0 402491E5 		ldr	r2, [r1, #1088]
 601 07f4 2E20C2E3 		bic	r2, r2, #46
 602 07f8 012AC2E3 		bic	r2, r2, #4096
 603 07fc 402481E5 		str	r2, [r1, #1088]
 604 0800 A7FEFFEA 		b	.L52
 605              	.L65:
 606 0804 0050A0E3 		mov	r5, #0
 607 0808 D4419FE5 		ldr	r4, .L130+8
 608 080c DC019FE5 		ldr	r0, .L130+20
 609 0810 002094E5 		ldr	r2, [r4]
 610 0814 0010A0E3 		mov	r1, #0
 611 0818 262782E2 		add	r2, r2, #9961472
 612 081c 005E82E5 		str	r5, [r2, #3584]
 613 0820 04308DE5 		str	r3, [sp, #4]
 614 0824 FEFFFFEB 		bl	timer_wait
 615 0828 00C094E5 		ldr	ip, [r4]
 616 082c 0010A0E3 		mov	r1, #0
 617 0830 26C78CE2 		add	ip, ip, #9961472
 618 0834 40249CE5 		ldr	r2, [ip, #1088]
 619 0838 B4019FE5 		ldr	r0, .L130+24
 620 083c 2E20C2E3 		bic	r2, r2, #46
 621 0840 402082E3 		orr	r2, r2, #64
 622 0844 40248CE5 		str	r2, [ip, #1088]
 623 0848 FEFFFFEB 		bl	timer_wait
 624 084c 001094E5 		ldr	r1, [r4]
 625 0850 05E0A0E1 		mov	lr, r5
 626 0854 261781E2 		add	r1, r1, #9961472
 627 0858 402491E5 		ldr	r2, [r1, #1088]
ARM GAS  C:\Users\ldebo\AppData\Local\Temp\ccISOhOE.s 			page 12


 628 085c 04309DE5 		ldr	r3, [sp, #4]
 629 0860 EE20C2E3 		bic	r2, r2, #238
 630 0864 402481E5 		str	r2, [r1, #1088]
 631 0868 8DFEFFEA 		b	.L52
 632              	.L63:
 633 086c 70219FE5 		ldr	r2, .L130+8
 634 0870 00E0A0E3 		mov	lr, #0
 635 0874 001092E5 		ldr	r1, [r2]
 636 0878 261781E2 		add	r1, r1, #9961472
 637 087c 402491E5 		ldr	r2, [r1, #1088]
 638 0880 2E20C2E3 		bic	r2, r2, #46
 639 0884 042082E3 		orr	r2, r2, #4
 640 0888 402481E5 		str	r2, [r1, #1088]
 641 088c 84FEFFEA 		b	.L52
 642              	.L77:
 643 0890 02C0D2E5 		ldrb	ip, [r2, #2]	@ zero_extendqisi2
 644 0894 0320D2E5 		ldrb	r2, [r2, #3]	@ zero_extendqisi2
 645 0898 02248CE1 		orr	r2, ip, r2, lsl #8
 646 089c 22E4A0E1 		lsr	lr, r2, #8
 647 08a0 02005EE3 		cmp	lr, #2
 648 08a4 3E00000A 		beq	.L79
 649 08a8 03005EE3 		cmp	lr, #3
 650 08ac 3100000A 		beq	.L80
 651 08b0 01005EE3 		cmp	lr, #1
 652 08b4 3DFFFF1A 		bne	.L107
 653 08b8 38219FE5 		ldr	r2, .L130+28
 654 08bc 0C208DE5 		str	r2, [sp, #12]
 655 08c0 1220A0E3 		mov	r2, #18
 656 08c4 80FEFFEA 		b	.L58
 657              	.L74:
 658 08c8 14419FE5 		ldr	r4, .L130+8
 659 08cc 28019FE5 		ldr	r0, .L130+32
 660 08d0 002094E5 		ldr	r2, [r4]
 661 08d4 0010A0E3 		mov	r1, #0
 662 08d8 262782E2 		add	r2, r2, #9961472
 663 08dc 00CE92E5 		ldr	ip, [r2, #3584]
 664 08e0 04308DE5 		str	r3, [sp, #4]
 665 08e4 21C0CCE3 		bic	ip, ip, #33
 666 08e8 00CE82E5 		str	ip, [r2, #3584]
 667 08ec FEFFFFEB 		bl	timer_wait
 668 08f0 00C0A0E3 		mov	ip, #0
 669 08f4 002094E5 		ldr	r2, [r4]
 670 08f8 00019FE5 		ldr	r0, .L130+36
 671 08fc 262782E2 		add	r2, r2, #9961472
 672 0900 00CE82E5 		str	ip, [r2, #3584]
 673 0904 00C094E5 		ldr	ip, [r4]
 674 0908 0010A0E3 		mov	r1, #0
 675 090c 26C78CE2 		add	ip, ip, #9961472
 676 0910 40249CE5 		ldr	r2, [ip, #1088]
 677 0914 AE20C2E3 		bic	r2, r2, #174
 678 0918 112C82E3 		orr	r2, r2, #4352
 679 091c 40248CE5 		str	r2, [ip, #1088]
 680 0920 FEFFFFEB 		bl	timer_wait
 681 0924 001094E5 		ldr	r1, [r4]
 682 0928 AC009FE5 		ldr	r0, .L130
 683 092c 261781E2 		add	r1, r1, #9961472
 684 0930 402491E5 		ldr	r2, [r1, #1088]
ARM GAS  C:\Users\ldebo\AppData\Local\Temp\ccISOhOE.s 			page 13


 685 0934 044090E5 		ldr	r4, [r0, #4]
 686 0938 2E20C2E3 		bic	r2, r2, #46
 687 093c 012CC2E3 		bic	r2, r2, #256
 688 0940 000054E3 		cmp	r4, #0
 689 0944 402481E5 		str	r2, [r1, #1088]
 690 0948 04309DE5 		ldr	r3, [sp, #4]
 691 094c 53FEFF0A 		beq	.L125
 692 0950 0810D0E5 		ldrb	r1, [r0, #8]	@ zero_extendqisi2
 693 0954 A8009FE5 		ldr	r0, .L130+40
 694 0958 34FF2FE1 		blx	r4
 695 095c 04309DE5 		ldr	r3, [sp, #4]
 696 0960 4EFEFFEA 		b	.L125
 697              	.L59:
 698 0964 040054E3 		cmp	r4, #4
 699 0968 0DC0DD05 		ldrbeq	ip, [sp, #13]	@ zero_extendqisi2
 700 096c 02C08C03 		orreq	ip, ip, #2
 701 0970 0DC0CD05 		strbeq	ip, [sp, #13]
 702 0974 5FFFFFEA 		b	.L60
 703              	.L80:
 704 0978 72E0EFE6 		uxtb	lr, r2
 705 097c 01005EE3 		cmp	lr, #1
 706 0980 1100000A 		beq	.L82
 707 0984 0B00003A 		bcc	.L83
 708 0988 02005EE3 		cmp	lr, #2
 709 098c 43FEFF1A 		bne	.L125
 710 0990 70209FE5 		ldr	r2, .L130+44
 711 0994 01E0A0E3 		mov	lr, #1
 712 0998 0C208DE5 		str	r2, [sp, #12]
 713 099c 2820A0E3 		mov	r2, #40
 714 09a0 49FEFFEA 		b	.L58
 715              	.L79:
 716 09a4 60209FE5 		ldr	r2, .L130+48
 717 09a8 01E0A0E3 		mov	lr, #1
 718 09ac 0C208DE5 		str	r2, [sp, #12]
 719 09b0 1920A0E3 		mov	r2, #25
 720 09b4 44FEFFEA 		b	.L58
 721              	.L83:
 722 09b8 50209FE5 		ldr	r2, .L130+52
 723 09bc 01E0A0E3 		mov	lr, #1
 724 09c0 0C208DE5 		str	r2, [sp, #12]
 725 09c4 0420A0E3 		mov	r2, #4
 726 09c8 3FFEFFEA 		b	.L58
 727              	.L82:
 728 09cc 40209FE5 		ldr	r2, .L130+56
 729 09d0 0C208DE5 		str	r2, [sp, #12]
 730 09d4 2A20A0E3 		mov	r2, #42
 731 09d8 3BFEFFEA 		b	.L58
 732              	.L131:
 733              		.align	2
 734              	.L130:
 735 09dc 00000000 		.word	.LANCHOR1
 736 09e0 40000000 		.word	.LC28
 737 09e4 00000000 		.word	RPi_IO_Base_Addr
 738 09e8 50020000 		.word	.LANCHOR0+592
 739 09ec 00000000 		.word	.LC26
 740 09f0 88130000 		.word	5000
 741 09f4 A0860100 		.word	100000
ARM GAS  C:\Users\ldebo\AppData\Local\Temp\ccISOhOE.s 			page 14


 742 09f8 E4010000 		.word	.LANCHOR0+484
 743 09fc 10270000 		.word	10000
 744 0a00 60EA0000 		.word	60000
 745 0a04 1C000000 		.word	.LC27
 746 0a08 28020000 		.word	.LANCHOR0+552
 747 0a0c 00000000 		.word	.LANCHOR2
 748 0a10 F8010000 		.word	.LANCHOR0+504
 749 0a14 FC010000 		.word	.LANCHOR0+508
 750              		.size	HcdProcessRootHubMessage, .-HcdProcessRootHubMessage
 751              		.align	2
 752              		.global	PowerOnUsb
 753              		.syntax unified
 754              		.arm
 755              		.fpu vfp
 756              		.type	PowerOnUsb, %function
 757              	PowerOnUsb:
 758              		@ args = 0, pretend = 0, frame = 0
 759              		@ frame_needed = 0, uses_anonymous_args = 0
 760 0a18 0830A0E3 		mov	r3, #8
 761 0a1c 0110A0E3 		mov	r1, #1
 762 0a20 0320A0E3 		mov	r2, #3
 763 0a24 04E02DE5 		str	lr, [sp, #-4]!
 764 0a28 14D04DE2 		sub	sp, sp, #20
 765 0a2c 08108DE5 		str	r1, [sp, #8]
 766 0a30 04208DE5 		str	r2, [sp, #4]
 767 0a34 00308DE5 		str	r3, [sp]
 768 0a38 1C209FE5 		ldr	r2, .L136
 769 0a3c 0510A0E3 		mov	r1, #5
 770 0a40 0000A0E3 		mov	r0, #0
 771 0a44 FEFFFFEB 		bl	mailbox_tag_message
 772 0a48 000050E3 		cmp	r0, #0
 773 0a4c 0300E003 		mvneq	r0, #3
 774 0a50 0000A013 		movne	r0, #0
 775 0a54 14D08DE2 		add	sp, sp, #20
 776              		@ sp needed
 777 0a58 04F09DE4 		ldr	pc, [sp], #4
 778              	.L137:
 779              		.align	2
 780              	.L136:
 781 0a5c 01800200 		.word	163841
 782              		.size	PowerOnUsb, .-PowerOnUsb
 783              		.align	2
 784              		.global	PowerOffUsb
 785              		.syntax unified
 786              		.arm
 787              		.fpu vfp
 788              		.type	PowerOffUsb, %function
 789              	PowerOffUsb:
 790              		@ args = 0, pretend = 0, frame = 0
 791              		@ frame_needed = 0, uses_anonymous_args = 0
 792 0a60 0830A0E3 		mov	r3, #8
 793 0a64 0000A0E3 		mov	r0, #0
 794 0a68 0320A0E3 		mov	r2, #3
 795 0a6c 04E02DE5 		str	lr, [sp, #-4]!
 796 0a70 14D04DE2 		sub	sp, sp, #20
 797 0a74 04208DE5 		str	r2, [sp, #4]
 798 0a78 08008DE5 		str	r0, [sp, #8]
ARM GAS  C:\Users\ldebo\AppData\Local\Temp\ccISOhOE.s 			page 15


 799 0a7c 00308DE5 		str	r3, [sp]
 800 0a80 18209FE5 		ldr	r2, .L142
 801 0a84 0510A0E3 		mov	r1, #5
 802 0a88 FEFFFFEB 		bl	mailbox_tag_message
 803 0a8c 000050E3 		cmp	r0, #0
 804 0a90 0300E003 		mvneq	r0, #3
 805 0a94 0000A013 		movne	r0, #0
 806 0a98 14D08DE2 		add	sp, sp, #20
 807              		@ sp needed
 808 0a9c 04F09DE4 		ldr	pc, [sp], #4
 809              	.L143:
 810              		.align	2
 811              	.L142:
 812 0aa0 01800200 		.word	163841
 813              		.size	PowerOffUsb, .-PowerOffUsb
 814              		.align	2
 815              		.global	HCDReset
 816              		.syntax unified
 817              		.arm
 818              		.fpu vfp
 819              		.type	HCDReset, %function
 820              	HCDReset:
 821              		@ args = 0, pretend = 0, frame = 0
 822              		@ frame_needed = 0, uses_anonymous_args = 0
 823 0aa4 F0412DE9 		push	{r4, r5, r6, r7, r8, lr}
 824 0aa8 FEFFFFEB 		bl	timer_getTickCount
 825 0aac C0409FE5 		ldr	r4, .L157
 826 0ab0 0060A0E1 		mov	r6, r0
 827 0ab4 0170A0E1 		mov	r7, r1
 828 0ab8 0050A0E3 		mov	r5, #0
 829 0abc B4809FE5 		ldr	r8, .L157+4
 830 0ac0 050000EA 		b	.L147
 831              	.L145:
 832 0ac4 003098E5 		ldr	r3, [r8]
 833 0ac8 263783E2 		add	r3, r3, #9961472
 834 0acc 102093E5 		ldr	r2, [r3, #16]
 835 0ad0 103083E2 		add	r3, r3, #16
 836 0ad4 000052E3 		cmp	r2, #0
 837 0ad8 0A0000BA 		blt	.L154
 838              	.L147:
 839 0adc FEFFFFEB 		bl	timer_getTickCount
 840 0ae0 0020A0E1 		mov	r2, r0
 841 0ae4 0130A0E1 		mov	r3, r1
 842 0ae8 0600A0E1 		mov	r0, r6
 843 0aec 0710A0E1 		mov	r1, r7
 844 0af0 FEFFFFEB 		bl	tick_difference
 845 0af4 050051E1 		cmp	r1, r5
 846 0af8 04005001 		cmpeq	r0, r4
 847 0afc F0FFFF9A 		bls	.L145
 848              	.L148:
 849 0b00 0700E0E3 		mvn	r0, #7
 850 0b04 F081BDE8 		pop	{r4, r5, r6, r7, r8, pc}
 851              	.L154:
 852 0b08 002093E5 		ldr	r2, [r3]
 853 0b0c 60409FE5 		ldr	r4, .L157
 854 0b10 012082E3 		orr	r2, r2, #1
 855 0b14 002083E5 		str	r2, [r3]
ARM GAS  C:\Users\ldebo\AppData\Local\Temp\ccISOhOE.s 			page 16


 856 0b18 FEFFFFEB 		bl	timer_getTickCount
 857 0b1c 0050A0E3 		mov	r5, #0
 858 0b20 0060A0E1 		mov	r6, r0
 859 0b24 0170A0E1 		mov	r7, r1
 860 0b28 050000EA 		b	.L149
 861              	.L156:
 862 0b2c 003098E5 		ldr	r3, [r8]
 863 0b30 263783E2 		add	r3, r3, #9961472
 864 0b34 103093E5 		ldr	r3, [r3, #16]
 865 0b38 063103E2 		and	r3, r3, #-2147483647
 866 0b3c 020153E3 		cmp	r3, #-2147483648
 867 0b40 0900000A 		beq	.L155
 868              	.L149:
 869 0b44 FEFFFFEB 		bl	timer_getTickCount
 870 0b48 0020A0E1 		mov	r2, r0
 871 0b4c 0130A0E1 		mov	r3, r1
 872 0b50 0600A0E1 		mov	r0, r6
 873 0b54 0710A0E1 		mov	r1, r7
 874 0b58 FEFFFFEB 		bl	tick_difference
 875 0b5c 050051E1 		cmp	r1, r5
 876 0b60 04005001 		cmpeq	r0, r4
 877 0b64 F0FFFF9A 		bls	.L156
 878 0b68 E4FFFFEA 		b	.L148
 879              	.L155:
 880 0b6c 0000A0E3 		mov	r0, #0
 881 0b70 F081BDE8 		pop	{r4, r5, r6, r7, r8, pc}
 882              	.L158:
 883              		.align	2
 884              	.L157:
 885 0b74 A0860100 		.word	100000
 886 0b78 00000000 		.word	RPi_IO_Base_Addr
 887              		.size	HCDReset, .-HCDReset
 888              		.align	2
 889              		.global	HCDTransmitFifoFlush
 890              		.syntax unified
 891              		.arm
 892              		.fpu vfp
 893              		.type	HCDTransmitFifoFlush, %function
 894              	HCDTransmitFifoFlush:
 895              		@ args = 0, pretend = 0, frame = 0
 896              		@ frame_needed = 0, uses_anonymous_args = 0
 897 0b7c F0412DE9 		push	{r4, r5, r6, r7, r8, lr}
 898 0b80 84809FE5 		ldr	r8, .L168
 899 0b84 1F0000E2 		and	r0, r0, #31
 900 0b88 003098E5 		ldr	r3, [r8]
 901 0b8c 7C609FE5 		ldr	r6, .L168+4
 902 0b90 263783E2 		add	r3, r3, #9961472
 903 0b94 102093E5 		ldr	r2, [r3, #16]
 904 0b98 0070A0E3 		mov	r7, #0
 905 0b9c 1F2DC2E3 		bic	r2, r2, #1984
 906 0ba0 002382E1 		orr	r2, r2, r0, lsl #6
 907 0ba4 102083E5 		str	r2, [r3, #16]
 908 0ba8 102093E5 		ldr	r2, [r3, #16]
 909 0bac 202082E3 		orr	r2, r2, #32
 910 0bb0 102083E5 		str	r2, [r3, #16]
 911 0bb4 FEFFFFEB 		bl	timer_getTickCount
 912 0bb8 0040A0E1 		mov	r4, r0
ARM GAS  C:\Users\ldebo\AppData\Local\Temp\ccISOhOE.s 			page 17


 913 0bbc 0150A0E1 		mov	r5, r1
 914 0bc0 040000EA 		b	.L161
 915              	.L167:
 916 0bc4 003098E5 		ldr	r3, [r8]
 917 0bc8 263783E2 		add	r3, r3, #9961472
 918 0bcc 103093E5 		ldr	r3, [r3, #16]
 919 0bd0 200013E3 		tst	r3, #32
 920 0bd4 0A00000A 		beq	.L166
 921              	.L161:
 922 0bd8 FEFFFFEB 		bl	timer_getTickCount
 923 0bdc 0020A0E1 		mov	r2, r0
 924 0be0 0130A0E1 		mov	r3, r1
 925 0be4 0400A0E1 		mov	r0, r4
 926 0be8 0510A0E1 		mov	r1, r5
 927 0bec FEFFFFEB 		bl	tick_difference
 928 0bf0 070051E1 		cmp	r1, r7
 929 0bf4 06005001 		cmpeq	r0, r6
 930 0bf8 F1FFFF9A 		bls	.L167
 931 0bfc 0700E0E3 		mvn	r0, #7
 932 0c00 F081BDE8 		pop	{r4, r5, r6, r7, r8, pc}
 933              	.L166:
 934 0c04 0000A0E3 		mov	r0, #0
 935 0c08 F081BDE8 		pop	{r4, r5, r6, r7, r8, pc}
 936              	.L169:
 937              		.align	2
 938              	.L168:
 939 0c0c 00000000 		.word	RPi_IO_Base_Addr
 940 0c10 A0860100 		.word	100000
 941              		.size	HCDTransmitFifoFlush, .-HCDTransmitFifoFlush
 942              		.align	2
 943              		.global	HCDReceiveFifoFlush
 944              		.syntax unified
 945              		.arm
 946              		.fpu vfp
 947              		.type	HCDReceiveFifoFlush, %function
 948              	HCDReceiveFifoFlush:
 949              		@ args = 0, pretend = 0, frame = 0
 950              		@ frame_needed = 0, uses_anonymous_args = 0
 951 0c14 F0412DE9 		push	{r4, r5, r6, r7, r8, lr}
 952 0c18 70809FE5 		ldr	r8, .L179
 953 0c1c 70609FE5 		ldr	r6, .L179+4
 954 0c20 003098E5 		ldr	r3, [r8]
 955 0c24 0070A0E3 		mov	r7, #0
 956 0c28 263783E2 		add	r3, r3, #9961472
 957 0c2c 102093E5 		ldr	r2, [r3, #16]
 958 0c30 102082E3 		orr	r2, r2, #16
 959 0c34 102083E5 		str	r2, [r3, #16]
 960 0c38 FEFFFFEB 		bl	timer_getTickCount
 961 0c3c 0040A0E1 		mov	r4, r0
 962 0c40 0150A0E1 		mov	r5, r1
 963 0c44 040000EA 		b	.L172
 964              	.L178:
 965 0c48 003098E5 		ldr	r3, [r8]
 966 0c4c 263783E2 		add	r3, r3, #9961472
 967 0c50 103093E5 		ldr	r3, [r3, #16]
 968 0c54 100013E3 		tst	r3, #16
 969 0c58 0A00000A 		beq	.L177
ARM GAS  C:\Users\ldebo\AppData\Local\Temp\ccISOhOE.s 			page 18


 970              	.L172:
 971 0c5c FEFFFFEB 		bl	timer_getTickCount
 972 0c60 0020A0E1 		mov	r2, r0
 973 0c64 0130A0E1 		mov	r3, r1
 974 0c68 0400A0E1 		mov	r0, r4
 975 0c6c 0510A0E1 		mov	r1, r5
 976 0c70 FEFFFFEB 		bl	tick_difference
 977 0c74 070051E1 		cmp	r1, r7
 978 0c78 06005001 		cmpeq	r0, r6
 979 0c7c F1FFFF9A 		bls	.L178
 980 0c80 0700E0E3 		mvn	r0, #7
 981 0c84 F081BDE8 		pop	{r4, r5, r6, r7, r8, pc}
 982              	.L177:
 983 0c88 0000A0E3 		mov	r0, #0
 984 0c8c F081BDE8 		pop	{r4, r5, r6, r7, r8, pc}
 985              	.L180:
 986              		.align	2
 987              	.L179:
 988 0c90 00000000 		.word	RPi_IO_Base_Addr
 989 0c94 A0860100 		.word	100000
 990              		.size	HCDReceiveFifoFlush, .-HCDReceiveFifoFlush
 991              		.align	2
 992              		.global	HCDStart
 993              		.syntax unified
 994              		.arm
 995              		.fpu vfp
 996              		.type	HCDStart, %function
 997              	HCDStart:
 998              		@ args = 0, pretend = 0, frame = 0
 999              		@ frame_needed = 0, uses_anonymous_args = 0
 1000 0c98 F84F2DE9 		push	{r3, r4, r5, r6, r7, r8, r9, r10, fp, lr}
 1001 0c9c D8469FE5 		ldr	r4, .L298
 1002 0ca0 D8569FE5 		ldr	r5, .L298+4
 1003 0ca4 003094E5 		ldr	r3, [r4]
 1004 0ca8 042095E5 		ldr	r2, [r5, #4]
 1005 0cac 263783E2 		add	r3, r3, #9961472
 1006 0cb0 0C6093E5 		ldr	r6, [r3, #12]
 1007 0cb4 000052E3 		cmp	r2, #0
 1008 0cb8 0566C6E3 		bic	r6, r6, #5242880
 1009 0cbc 0C6083E5 		str	r6, [r3, #12]
 1010 0cc0 0100000A 		beq	.L182
 1011 0cc4 B8069FE5 		ldr	r0, .L298+8
 1012 0cc8 32FF2FE1 		blx	r2
 1013              	.L182:
 1014 0ccc FEFFFFEB 		bl	HCDReset
 1015 0cd0 00A050E2 		subs	r10, r0, #0
 1016 0cd4 0600000A 		beq	.L183
 1017 0cd8 003095E5 		ldr	r3, [r5]
 1018 0cdc 000053E3 		cmp	r3, #0
 1019 0ce0 0100000A 		beq	.L226
 1020 0ce4 9C069FE5 		ldr	r0, .L298+12
 1021 0ce8 33FF2FE1 		blx	r3
 1022              	.L226:
 1023 0cec 0A00A0E1 		mov	r0, r10
 1024 0cf0 F88FBDE8 		pop	{r3, r4, r5, r6, r7, r8, r9, r10, fp, pc}
 1025              	.L183:
 1026 0cf4 0930D5E5 		ldrb	r3, [r5, #9]	@ zero_extendqisi2
ARM GAS  C:\Users\ldebo\AppData\Local\Temp\ccISOhOE.s 			page 19


 1027 0cf8 000053E3 		cmp	r3, #0
 1028 0cfc 9300000A 		beq	.L290
 1029              	.L185:
 1030 0d00 003094E5 		ldr	r3, [r4]
 1031 0d04 263783E2 		add	r3, r3, #9961472
 1032 0d08 0C6093E5 		ldr	r6, [r3, #12]
 1033 0d0c 4820D3E5 		ldrb	r2, [r3, #72]	@ zero_extendqisi2
 1034 0d10 441083E2 		add	r1, r3, #68
 1035 0d14 2223A0E1 		lsr	r2, r2, #6
 1036 0d18 020052E3 		cmp	r2, #2
 1037 0d1c 0C3083E2 		add	r3, r3, #12
 1038 0d20 DD00000A 		beq	.L291
 1039              	.L188:
 1040 0d24 042095E5 		ldr	r2, [r5, #4]
 1041 0d28 000052E3 		cmp	r2, #0
 1042 0d2c 0210A001 		moveq	r1, r2
 1043 0d30 0600000A 		beq	.L189
 1044 0d34 50069FE5 		ldr	r0, .L298+16
 1045 0d38 32FF2FE1 		blx	r2
 1046 0d3c 0010A0E3 		mov	r1, #0
 1047 0d40 003094E5 		ldr	r3, [r4]
 1048 0d44 042095E5 		ldr	r2, [r5, #4]
 1049 0d48 263783E2 		add	r3, r3, #9961472
 1050 0d4c 0C3083E2 		add	r3, r3, #12
 1051              	.L189:
 1052 0d50 0268C6E3 		bic	r6, r6, #131072
 1053 0d54 816886E1 		orr	r6, r6, r1, lsl #17
 1054 0d58 0267C6E3 		bic	r6, r6, #524288
 1055 0d5c 816986E1 		orr	r6, r6, r1, lsl #19
 1056 0d60 006083E5 		str	r6, [r3]
 1057 0d64 001094E5 		ldr	r1, [r4]
 1058 0d68 261781E2 		add	r1, r1, #9961472
 1059 0d6c 083091E5 		ldr	r3, [r1, #8]
 1060 0d70 203083E3 		orr	r3, r3, #32
 1061 0d74 0235C3E3 		bic	r3, r3, #8388608
 1062 0d78 083081E5 		str	r3, [r1, #8]
 1063 0d7c 003094E5 		ldr	r3, [r4]
 1064 0d80 263783E2 		add	r3, r3, #9961472
 1065 0d84 0C6093E5 		ldr	r6, [r3, #12]
 1066 0d88 4810D3E5 		ldrb	r1, [r3, #72]	@ zero_extendqisi2
 1067 0d8c 26E4A0E1 		lsr	lr, r6, #8
 1068 0d90 071001E2 		and	r1, r1, #7
 1069 0d94 A604A0E1 		lsr	r0, r6, #9
 1070 0d98 070051E3 		cmp	r1, #7
 1071 0d9c 01E00EE2 		and	lr, lr, #1
 1072 0da0 010000E2 		and	r0, r0, #1
 1073 0da4 0CC083E2 		add	ip, r3, #12
 1074 0da8 8900001A 		bne	.L292
 1075              	.L190:
 1076 0dac 016CC6E3 		bic	r6, r6, #256
 1077 0db0 0E6486E1 		orr	r6, r6, lr, lsl #8
 1078 0db4 026CC6E3 		bic	r6, r6, #512
 1079 0db8 806486E1 		orr	r6, r6, r0, lsl #9
 1080 0dbc 000052E3 		cmp	r2, #0
 1081 0dc0 00608CE5 		str	r6, [ip]
 1082 0dc4 3C01000A 		beq	.L194
 1083 0dc8 C0059FE5 		ldr	r0, .L298+20
ARM GAS  C:\Users\ldebo\AppData\Local\Temp\ccISOhOE.s 			page 20


 1084 0dcc 32FF2FE1 		blx	r2
 1085 0dd0 043095E5 		ldr	r3, [r5, #4]
 1086 0dd4 000053E3 		cmp	r3, #0
 1087 0dd8 3701000A 		beq	.L194
 1088 0ddc B0059FE5 		ldr	r0, .L298+24
 1089 0de0 33FF2FE1 		blx	r3
 1090 0de4 041095E5 		ldr	r1, [r5, #4]
 1091              	.L216:
 1092 0de8 0020A0E3 		mov	r2, #0
 1093 0dec 003094E5 		ldr	r3, [r4]
 1094 0df0 263783E2 		add	r3, r3, #9961472
 1095 0df4 002E83E5 		str	r2, [r3, #3584]
 1096 0df8 003094E5 		ldr	r3, [r4]
 1097 0dfc 263783E2 		add	r3, r3, #9961472
 1098 0e00 4820D3E5 		ldrb	r2, [r3, #72]	@ zero_extendqisi2
 1099 0e04 2223A0E1 		lsr	r2, r2, #6
 1100 0e08 020052E3 		cmp	r2, #2
 1101 0e0c 1801000A 		beq	.L293
 1102              	.L195:
 1103 0e10 000051E3 		cmp	r1, #0
 1104 0e14 0400000A 		beq	.L198
 1105 0e18 78059FE5 		ldr	r0, .L298+28
 1106 0e1c 31FF2FE1 		blx	r1
 1107 0e20 003094E5 		ldr	r3, [r4]
 1108 0e24 041095E5 		ldr	r1, [r5, #4]
 1109 0e28 263783E2 		add	r3, r3, #9961472
 1110              	.L198:
 1111 0e2c 002493E5 		ldr	r2, [r3, #1024]
 1112 0e30 0320C2E3 		bic	r2, r2, #3
 1113 0e34 002483E5 		str	r2, [r3, #1024]
 1114              	.L197:
 1115 0e38 052AA0E3 		mov	r2, #20480
 1116 0e3c 003094E5 		ldr	r3, [r4]
 1117 0e40 54C59FE5 		ldr	ip, .L298+32
 1118 0e44 263783E2 		add	r3, r3, #9961472
 1119 0e48 000493E5 		ldr	r0, [r3, #1024]
 1120 0e4c 000051E3 		cmp	r1, #0
 1121 0e50 040080E3 		orr	r0, r0, #4
 1122 0e54 000483E5 		str	r0, [r3, #1024]
 1123 0e58 242083E5 		str	r2, [r3, #36]
 1124 0e5c 003094E5 		ldr	r3, [r4]
 1125 0e60 263783E2 		add	r3, r3, #9961472
 1126 0e64 280093E5 		ldr	r0, [r3, #40]
 1127 0e68 0C0000E0 		and	r0, r0, ip
 1128 0e6c 050280E3 		orr	r0, r0, #1342177280
 1129 0e70 280083E5 		str	r0, [r3, #40]
 1130 0e74 282093E5 		ldr	r2, [r3, #40]
 1131 0e78 AF2CC2E3 		bic	r2, r2, #44800
 1132 0e7c FF20C2E3 		bic	r2, r2, #255
 1133 0e80 052A82E3 		orr	r2, r2, #20480
 1134 0e84 282083E5 		str	r2, [r3, #40]
 1135 0e88 002193E5 		ldr	r2, [r3, #256]
 1136 0e8c 0C2002E0 		and	r2, r2, ip
 1137 0e90 052282E3 		orr	r2, r2, #1342177280
 1138 0e94 002183E5 		str	r2, [r3, #256]
 1139 0e98 002193E5 		ldr	r2, [r3, #256]
 1140 0e9c 5F2CC2E3 		bic	r2, r2, #24320
ARM GAS  C:\Users\ldebo\AppData\Local\Temp\ccISOhOE.s 			page 21


 1141 0ea0 FF20C2E3 		bic	r2, r2, #255
 1142 0ea4 0A2A82E3 		orr	r2, r2, #40960
 1143 0ea8 002183E5 		str	r2, [r3, #256]
 1144 0eac 0300000A 		beq	.L199
 1145 0eb0 E8049FE5 		ldr	r0, .L298+36
 1146 0eb4 31FF2FE1 		blx	r1
 1147 0eb8 003094E5 		ldr	r3, [r4]
 1148 0ebc 263783E2 		add	r3, r3, #9961472
 1149              	.L199:
 1150 0ec0 002093E5 		ldr	r2, [r3]
 1151 0ec4 D8849FE5 		ldr	r8, .L298+40
 1152 0ec8 012B82E3 		orr	r2, r2, #1024
 1153 0ecc 002083E5 		str	r2, [r3]
 1154 0ed0 003094E5 		ldr	r3, [r4]
 1155 0ed4 0090A0E3 		mov	r9, #0
 1156 0ed8 263783E2 		add	r3, r3, #9961472
 1157 0edc 102093E5 		ldr	r2, [r3, #16]
 1158 0ee0 0F2DC2E3 		bic	r2, r2, #960
 1159 0ee4 012B82E3 		orr	r2, r2, #1024
 1160 0ee8 102083E5 		str	r2, [r3, #16]
 1161 0eec 102093E5 		ldr	r2, [r3, #16]
 1162 0ef0 202082E3 		orr	r2, r2, #32
 1163 0ef4 102083E5 		str	r2, [r3, #16]
 1164 0ef8 FEFFFFEB 		bl	timer_getTickCount
 1165 0efc 0060A0E1 		mov	r6, r0
 1166 0f00 0170A0E1 		mov	r7, r1
 1167 0f04 050000EA 		b	.L201
 1168              	.L200:
 1169 0f08 003094E5 		ldr	r3, [r4]
 1170 0f0c 263783E2 		add	r3, r3, #9961472
 1171 0f10 102093E5 		ldr	r2, [r3, #16]
 1172 0f14 103083E2 		add	r3, r3, #16
 1173 0f18 200012E3 		tst	r2, #32
 1174 0f1c 4600000A 		beq	.L294
 1175              	.L201:
 1176 0f20 FEFFFFEB 		bl	timer_getTickCount
 1177 0f24 0020A0E1 		mov	r2, r0
 1178 0f28 0130A0E1 		mov	r3, r1
 1179 0f2c 0600A0E1 		mov	r0, r6
 1180 0f30 0710A0E1 		mov	r1, r7
 1181 0f34 FEFFFFEB 		bl	tick_difference
 1182 0f38 090051E1 		cmp	r1, r9
 1183 0f3c 08005001 		cmpeq	r0, r8
 1184 0f40 F0FFFF9A 		bls	.L200
 1185              	.L203:
 1186 0f44 07A0E0E3 		mvn	r10, #7
 1187 0f48 0A00A0E1 		mov	r0, r10
 1188 0f4c F88FBDE8 		pop	{r3, r4, r5, r6, r7, r8, r9, r10, fp, pc}
 1189              	.L290:
 1190 0f50 043095E5 		ldr	r3, [r5, #4]
 1191 0f54 000053E3 		cmp	r3, #0
 1192 0f58 3000000A 		beq	.L186
 1193 0f5c 44049FE5 		ldr	r0, .L298+44
 1194 0f60 33FF2FE1 		blx	r3
 1195 0f64 0100A0E3 		mov	r0, #1
 1196 0f68 002094E5 		ldr	r2, [r4]
 1197 0f6c 041095E5 		ldr	r1, [r5, #4]
ARM GAS  C:\Users\ldebo\AppData\Local\Temp\ccISOhOE.s 			page 22


 1198 0f70 262782E2 		add	r2, r2, #9961472
 1199 0f74 000051E3 		cmp	r1, #0
 1200 0f78 0C3082E2 		add	r3, r2, #12
 1201 0f7c 0C6092E5 		ldr	r6, [r2, #12]
 1202 0f80 0900C5E5 		strb	r0, [r5, #9]
 1203 0f84 0400000A 		beq	.L187
 1204 0f88 1C049FE5 		ldr	r0, .L298+48
 1205 0f8c 31FF2FE1 		blx	r1
 1206 0f90 003094E5 		ldr	r3, [r4]
 1207 0f94 263783E2 		add	r3, r3, #9961472
 1208 0f98 0C3083E2 		add	r3, r3, #12
 1209              	.L187:
 1210 0f9c 0860C6E3 		bic	r6, r6, #8
 1211 0fa0 106086E3 		orr	r6, r6, #16
 1212 0fa4 006083E5 		str	r6, [r3]
 1213 0fa8 FEFFFFEB 		bl	HCDReset
 1214 0fac 003050E2 		subs	r3, r0, #0
 1215 0fb0 52FFFF0A 		beq	.L185
 1216 0fb4 002095E5 		ldr	r2, [r5]
 1217 0fb8 000052E3 		cmp	r2, #0
 1218 0fbc 03A0A001 		moveq	r10, r3
 1219 0fc0 49FFFF0A 		beq	.L226
 1220 0fc4 BC039FE5 		ldr	r0, .L298+12
 1221 0fc8 03A0A0E1 		mov	r10, r3
 1222 0fcc 32FF2FE1 		blx	r2
 1223 0fd0 45FFFFEA 		b	.L226
 1224              	.L292:
 1225 0fd4 0170A0E3 		mov	r7, #1
 1226 0fd8 1791A0E1 		lsl	r9, r7, r1
 1227 0fdc 548019E2 		ands	r8, r9, #84
 1228 0fe0 3D00001A 		bne	.L191
 1229 0fe4 2A0019E3 		tst	r9, #42
 1230 0fe8 C200001A 		bne	.L192
 1231 0fec 000051E3 		cmp	r1, #0
 1232 0ff0 6DFFFF1A 		bne	.L190
 1233 0ff4 000052E3 		cmp	r2, #0
 1234 0ff8 DD00000A 		beq	.L221
 1235 0ffc AC039FE5 		ldr	r0, .L298+52
 1236 1000 32FF2FE1 		blx	r2
 1237 1004 00C094E5 		ldr	ip, [r4]
 1238 1008 0700A0E1 		mov	r0, r7
 1239 100c 26C78CE2 		add	ip, ip, #9961472
 1240 1010 07E0A0E1 		mov	lr, r7
 1241 1014 0CC08CE2 		add	ip, ip, #12
 1242 1018 042095E5 		ldr	r2, [r5, #4]
 1243 101c 62FFFFEA 		b	.L190
 1244              	.L186:
 1245 1020 0130A0E3 		mov	r3, #1
 1246 1024 002094E5 		ldr	r2, [r4]
 1247 1028 0930C5E5 		strb	r3, [r5, #9]
 1248 102c 262782E2 		add	r2, r2, #9961472
 1249 1030 0C3082E2 		add	r3, r2, #12
 1250 1034 0C6092E5 		ldr	r6, [r2, #12]
 1251 1038 D7FFFFEA 		b	.L187
 1252              	.L294:
 1253 103c 002093E5 		ldr	r2, [r3]
 1254 1040 5C839FE5 		ldr	r8, .L298+40
ARM GAS  C:\Users\ldebo\AppData\Local\Temp\ccISOhOE.s 			page 23


 1255 1044 102082E3 		orr	r2, r2, #16
 1256 1048 002083E5 		str	r2, [r3]
 1257 104c FEFFFFEB 		bl	timer_getTickCount
 1258 1050 0090A0E3 		mov	r9, #0
 1259 1054 0060A0E1 		mov	r6, r0
 1260 1058 0170A0E1 		mov	r7, r1
 1261 105c 040000EA 		b	.L204
 1262              	.L296:
 1263 1060 003094E5 		ldr	r3, [r4]
 1264 1064 263783E2 		add	r3, r3, #9961472
 1265 1068 102093E5 		ldr	r2, [r3, #16]
 1266 106c 100012E3 		tst	r2, #16
 1267 1070 2400000A 		beq	.L295
 1268              	.L204:
 1269 1074 FEFFFFEB 		bl	timer_getTickCount
 1270 1078 0020A0E1 		mov	r2, r0
 1271 107c 0130A0E1 		mov	r3, r1
 1272 1080 0600A0E1 		mov	r0, r6
 1273 1084 0710A0E1 		mov	r1, r7
 1274 1088 FEFFFFEB 		bl	tick_difference
 1275 108c 090051E1 		cmp	r1, r9
 1276 1090 08005001 		cmpeq	r0, r8
 1277 1094 F1FFFF9A 		bls	.L296
 1278 1098 A9FFFFEA 		b	.L203
 1279              	.L291:
 1280 109c 0510D1E5 		ldrb	r1, [r1, #5]	@ zero_extendqisi2
 1281 10a0 037001E2 		and	r7, r1, #3
 1282 10a4 010057E3 		cmp	r7, #1
 1283 10a8 1DFFFF1A 		bne	.L188
 1284 10ac 042095E5 		ldr	r2, [r5, #4]
 1285 10b0 000052E3 		cmp	r2, #0
 1286 10b4 0710A001 		moveq	r1, r7
 1287 10b8 24FFFF0A 		beq	.L189
 1288 10bc F0029FE5 		ldr	r0, .L298+56
 1289 10c0 32FF2FE1 		blx	r2
 1290 10c4 003094E5 		ldr	r3, [r4]
 1291 10c8 0710A0E1 		mov	r1, r7
 1292 10cc 263783E2 		add	r3, r3, #9961472
 1293 10d0 0C3083E2 		add	r3, r3, #12
 1294 10d4 042095E5 		ldr	r2, [r5, #4]
 1295 10d8 1CFFFFEA 		b	.L189
 1296              	.L191:
 1297 10dc 000052E3 		cmp	r2, #0
 1298 10e0 9B00000A 		beq	.L223
 1299 10e4 CC029FE5 		ldr	r0, .L298+60
 1300 10e8 32FF2FE1 		blx	r2
 1301 10ec 0000A0E3 		mov	r0, #0
 1302 10f0 00C094E5 		ldr	ip, [r4]
 1303 10f4 00E0A0E1 		mov	lr, r0
 1304 10f8 26C78CE2 		add	ip, ip, #9961472
 1305 10fc 042095E5 		ldr	r2, [r5, #4]
 1306 1100 0CC08CE2 		add	ip, ip, #12
 1307 1104 28FFFFEA 		b	.L190
 1308              	.L295:
 1309 1108 001493E5 		ldr	r1, [r3, #1024]
 1310 110c A11BA0E1 		lsr	r1, r1, #23
 1311 1110 011011E2 		ands	r1, r1, #1
ARM GAS  C:\Users\ldebo\AppData\Local\Temp\ccISOhOE.s 			page 24


 1312 1114 3800001A 		bne	.L207
 1313 1118 44C083E2 		add	ip, r3, #68
 1314 111c 04209CE5 		ldr	r2, [ip, #4]
 1315 1120 0F0912E3 		tst	r2, #245760
 1316 1124 0B00000A 		beq	.L215
 1317 1128 050C83E2 		add	r0, r3, #1280
 1318              	.L206:
 1319 112c 002090E5 		ldr	r2, [r0]
 1320 1130 011081E2 		add	r1, r1, #1
 1321 1134 022982E3 		orr	r2, r2, #32768
 1322 1138 012182E3 		orr	r2, r2, #1073741824
 1323 113c 0221C2E3 		bic	r2, r2, #-2147483648
 1324 1140 202080E4 		str	r2, [r0], #32
 1325 1144 04209CE5 		ldr	r2, [ip, #4]
 1326 1148 2227A0E1 		lsr	r2, r2, #14
 1327 114c 0F2002E2 		and	r2, r2, #15
 1328 1150 010052E1 		cmp	r2, r1
 1329 1154 F4FFFFCA 		bgt	.L206
 1330              	.L215:
 1331 1158 04209CE5 		ldr	r2, [ip, #4]
 1332 115c 0F0912E3 		tst	r2, #245760
 1333 1160 2500000A 		beq	.L207
 1334 1164 0090A0E3 		mov	r9, #0
 1335 1168 4CB29FE5 		ldr	fp, .L298+64
 1336              	.L210:
 1337 116c 053C83E2 		add	r3, r3, #1280
 1338 1170 892293E7 		ldr	r2, [r3, r9, lsl #5]
 1339 1174 8982A0E1 		lsl	r8, r9, #5
 1340 1178 022982E3 		orr	r2, r2, #32768
 1341 117c 032182E3 		orr	r2, r2, #-1073741824
 1342 1180 892283E7 		str	r2, [r3, r9, lsl #5]
 1343 1184 FEFFFFEB 		bl	timer_getTickCount
 1344 1188 0060A0E1 		mov	r6, r0
 1345 118c 0170A0E1 		mov	r7, r1
 1346              	.L209:
 1347 1190 FEFFFFEB 		bl	timer_getTickCount
 1348 1194 0020A0E1 		mov	r2, r0
 1349 1198 0130A0E1 		mov	r3, r1
 1350 119c 0600A0E1 		mov	r0, r6
 1351 11a0 0710A0E1 		mov	r1, r7
 1352 11a4 FEFFFFEB 		bl	tick_difference
 1353 11a8 000051E3 		cmp	r1, #0
 1354 11ac 01065003 		cmpeq	r0, #1048576
 1355 11b0 0500009A 		bls	.L208
 1356 11b4 003095E5 		ldr	r3, [r5]
 1357 11b8 000053E3 		cmp	r3, #0
 1358 11bc 0200000A 		beq	.L208
 1359 11c0 0910A0E1 		mov	r1, r9
 1360 11c4 0B00A0E1 		mov	r0, fp
 1361 11c8 33FF2FE1 		blx	r3
 1362              	.L208:
 1363 11cc 003094E5 		ldr	r3, [r4]
 1364 11d0 263783E2 		add	r3, r3, #9961472
 1365 11d4 052C83E2 		add	r2, r3, #1280
 1366 11d8 082092E7 		ldr	r2, [r2, r8]
 1367 11dc 000052E3 		cmp	r2, #0
 1368 11e0 EAFFFFBA 		blt	.L209
ARM GAS  C:\Users\ldebo\AppData\Local\Temp\ccISOhOE.s 			page 25


 1369 11e4 482093E5 		ldr	r2, [r3, #72]
 1370 11e8 019089E2 		add	r9, r9, #1
 1371 11ec 2227A0E1 		lsr	r2, r2, #14
 1372 11f0 0F2002E2 		and	r2, r2, #15
 1373 11f4 090052E1 		cmp	r2, r9
 1374 11f8 DBFFFFCA 		bgt	.L210
 1375              	.L207:
 1376 11fc 406493E5 		ldr	r6, [r3, #1088]
 1377 1200 042095E5 		ldr	r2, [r5, #4]
 1378 1204 010A16E3 		tst	r6, #4096
 1379 1208 113D83E2 		add	r3, r3, #1088
 1380 120c 4400000A 		beq	.L297
 1381              	.L212:
 1382 1210 000052E3 		cmp	r2, #0
 1383 1214 0100000A 		beq	.L214
 1384 1218 A0019FE5 		ldr	r0, .L298+68
 1385 121c 32FF2FE1 		blx	r2
 1386              	.L214:
 1387 1220 003094E5 		ldr	r3, [r4]
 1388 1224 98019FE5 		ldr	r0, .L298+72
 1389 1228 263783E2 		add	r3, r3, #9961472
 1390 122c 406493E5 		ldr	r6, [r3, #1088]
 1391 1230 0010A0E3 		mov	r1, #0
 1392 1234 2E60C6E3 		bic	r6, r6, #46
 1393 1238 016C86E3 		orr	r6, r6, #256
 1394 123c 406483E5 		str	r6, [r3, #1088]
 1395 1240 FEFFFFEB 		bl	timer_wait
 1396 1244 003094E5 		ldr	r3, [r4]
 1397 1248 042095E5 		ldr	r2, [r5, #4]
 1398 124c 263783E2 		add	r3, r3, #9961472
 1399 1250 406493E5 		ldr	r6, [r3, #1088]
 1400 1254 000052E3 		cmp	r2, #0
 1401 1258 2E60C6E3 		bic	r6, r6, #46
 1402 125c 016CC6E3 		bic	r6, r6, #256
 1403 1260 406483E5 		str	r6, [r3, #1088]
 1404 1264 A0FEFF0A 		beq	.L226
 1405 1268 58019FE5 		ldr	r0, .L298+76
 1406 126c 32FF2FE1 		blx	r2
 1407 1270 9DFEFFEA 		b	.L226
 1408              	.L293:
 1409 1274 4920D3E5 		ldrb	r2, [r3, #73]	@ zero_extendqisi2
 1410 1278 032002E2 		and	r2, r2, #3
 1411 127c 010052E3 		cmp	r2, #1
 1412 1280 E2FEFF1A 		bne	.L195
 1413              	.L217:
 1414 1284 020816E3 		tst	r6, #131072
 1415 1288 E0FEFF0A 		beq	.L195
 1416 128c 000051E3 		cmp	r1, #0
 1417 1290 0400000A 		beq	.L196
 1418 1294 30019FE5 		ldr	r0, .L298+80
 1419 1298 31FF2FE1 		blx	r1
 1420 129c 003094E5 		ldr	r3, [r4]
 1421 12a0 041095E5 		ldr	r1, [r5, #4]
 1422 12a4 263783E2 		add	r3, r3, #9961472
 1423              	.L196:
 1424 12a8 002493E5 		ldr	r2, [r3, #1024]
 1425 12ac 0220C2E3 		bic	r2, r2, #2
ARM GAS  C:\Users\ldebo\AppData\Local\Temp\ccISOhOE.s 			page 26


 1426 12b0 012082E3 		orr	r2, r2, #1
 1427 12b4 002483E5 		str	r2, [r3, #1024]
 1428 12b8 DEFEFFEA 		b	.L197
 1429              	.L194:
 1430 12bc 0010A0E3 		mov	r1, #0
 1431 12c0 003094E5 		ldr	r3, [r4]
 1432 12c4 263783E2 		add	r3, r3, #9961472
 1433 12c8 001E83E5 		str	r1, [r3, #3584]
 1434 12cc 003094E5 		ldr	r3, [r4]
 1435 12d0 263783E2 		add	r3, r3, #9961472
 1436 12d4 4820D3E5 		ldrb	r2, [r3, #72]	@ zero_extendqisi2
 1437 12d8 2223A0E1 		lsr	r2, r2, #6
 1438 12dc 020052E3 		cmp	r2, #2
 1439 12e0 D1FEFF1A 		bne	.L198
 1440 12e4 4920D3E5 		ldrb	r2, [r3, #73]	@ zero_extendqisi2
 1441 12e8 032002E2 		and	r2, r2, #3
 1442 12ec 010052E3 		cmp	r2, #1
 1443 12f0 CDFEFF1A 		bne	.L198
 1444 12f4 E2FFFFEA 		b	.L217
 1445              	.L192:
 1446 12f8 000052E3 		cmp	r2, #0
 1447 12fc 1500000A 		beq	.L193
 1448 1300 C8009FE5 		ldr	r0, .L298+84
 1449 1304 32FF2FE1 		blx	r2
 1450 1308 00C094E5 		ldr	ip, [r4]
 1451 130c 0800A0E1 		mov	r0, r8
 1452 1310 26C78CE2 		add	ip, ip, #9961472
 1453 1314 07E0A0E1 		mov	lr, r7
 1454 1318 0CC08CE2 		add	ip, ip, #12
 1455 131c 042095E5 		ldr	r2, [r5, #4]
 1456 1320 A1FEFFEA 		b	.L190
 1457              	.L297:
 1458 1324 000052E3 		cmp	r2, #0
 1459 1328 0500000A 		beq	.L213
 1460 132c A0009FE5 		ldr	r0, .L298+88
 1461 1330 32FF2FE1 		blx	r2
 1462 1334 003094E5 		ldr	r3, [r4]
 1463 1338 042095E5 		ldr	r2, [r5, #4]
 1464 133c 263783E2 		add	r3, r3, #9961472
 1465 1340 113D83E2 		add	r3, r3, #1088
 1466              	.L213:
 1467 1344 2E60C6E3 		bic	r6, r6, #46
 1468 1348 016A86E3 		orr	r6, r6, #4096
 1469 134c 006083E5 		str	r6, [r3]
 1470 1350 AEFFFFEA 		b	.L212
 1471              	.L223:
 1472 1354 0270A0E1 		mov	r7, r2
 1473              	.L193:
 1474 1358 016CC6E3 		bic	r6, r6, #256
 1475 135c 076486E1 		orr	r6, r6, r7, lsl #8
 1476 1360 026CC6E3 		bic	r6, r6, #512
 1477 1364 826486E1 		orr	r6, r6, r2, lsl #9
 1478 1368 0C6083E5 		str	r6, [r3, #12]
 1479 136c 0010A0E3 		mov	r1, #0
 1480 1370 9CFEFFEA 		b	.L216
 1481              	.L221:
 1482 1374 0720A0E1 		mov	r2, r7
ARM GAS  C:\Users\ldebo\AppData\Local\Temp\ccISOhOE.s 			page 27


 1483 1378 F6FFFFEA 		b	.L193
 1484              	.L299:
 1485              		.align	2
 1486              	.L298:
 1487 137c 00000000 		.word	RPi_IO_Base_Addr
 1488 1380 00000000 		.word	.LANCHOR1
 1489 1384 58000000 		.word	.LC29
 1490 1388 6C000000 		.word	.LC30
 1491 138c 04010000 		.word	.LC34
 1492 1390 A0010000 		.word	.LC38
 1493 1394 B4010000 		.word	.LC39
 1494 1398 E8010000 		.word	.LC41
 1495 139c FFFF0050 		.word	1342242815
 1496 13a0 04020000 		.word	.LC42
 1497 13a4 A0860100 		.word	100000
 1498 13a8 A0000000 		.word	.LC31
 1499 13ac C4000000 		.word	.LC32
 1500 13b0 30010000 		.word	.LC35
 1501 13b4 DC000000 		.word	.LC33
 1502 13b8 7C010000 		.word	.LC37
 1503 13bc 1C020000 		.word	.LC43
 1504 13c0 70020000 		.word	.LC45
 1505 13c4 60EA0000 		.word	60000
 1506 13c8 98020000 		.word	.LC46
 1507 13cc CC010000 		.word	.LC40
 1508 13d0 58010000 		.word	.LC36
 1509 13d4 48020000 		.word	.LC44
 1510              		.size	HCDStart, .-HCDStart
 1511              		.align	2
 1512              		.global	HCDCheckErrorAndAction
 1513              		.syntax unified
 1514              		.arm
 1515              		.fpu vfp
 1516              		.type	HCDCheckErrorAndAction, %function
 1517              	HCDCheckErrorAndAction:
 1518              		@ args = 0, pretend = 0, frame = 0
 1519              		@ frame_needed = 0, uses_anonymous_args = 0
 1520              		@ link register save eliminated.
 1521 13d8 0330D2E5 		ldrb	r3, [r2, #3]	@ zero_extendqisi2
 1522 13dc 70C0EFE6 		uxtb	ip, r0
 1523 13e0 CF3003E2 		and	r3, r3, #207
 1524 13e4 04001CE3 		tst	ip, #4
 1525 13e8 0330C2E5 		strb	r3, [r2, #3]
 1526 13ec 3C00001A 		bne	.L321
 1527 13f0 010B10E3 		tst	r0, #1024
 1528 13f4 3500001A 		bne	.L308
 1529 13f8 20001CE3 		tst	ip, #32
 1530 13fc 1100001A 		bne	.L322
 1531 1400 000051E3 		cmp	r1, #0
 1532 1404 1700000A 		beq	.L307
 1533 1408 0030D2E5 		ldrb	r3, [r2]	@ zero_extendqisi2
 1534 140c 013083E2 		add	r3, r3, #1
 1535 1410 7330EFE6 		uxtb	r3, r3
 1536 1414 050053E3 		cmp	r3, #5
 1537 1418 0030C2E5 		strb	r3, [r2]
 1538 141c 2B00000A 		beq	.L308
 1539 1420 0330D2E5 		ldrb	r3, [r2, #3]	@ zero_extendqisi2
ARM GAS  C:\Users\ldebo\AppData\Local\Temp\ccISOhOE.s 			page 28


 1540 1424 7000FFE6 		uxth	r0, r0
 1541 1428 103083E3 		orr	r3, r3, #16
 1542 142c C20F10E3 		tst	r0, #776
 1543 1430 0330C2E5 		strb	r3, [r2, #3]
 1544 1434 1700001A 		bne	.L310
 1545              	.L323:
 1546 1438 50001CE3 		tst	ip, #80
 1547 143c 2100000A 		beq	.L313
 1548              	.L312:
 1549 1440 0900E0E3 		mvn	r0, #9
 1550 1444 1EFF2FE1 		bx	lr
 1551              	.L322:
 1552 1448 0000A0E3 		mov	r0, #0
 1553 144c 0330D2E5 		ldrb	r3, [r2, #3]	@ zero_extendqisi2
 1554 1450 01001CE3 		tst	ip, #1
 1555 1454 80308313 		orrne	r3, r3, #128
 1556 1458 10308303 		orreq	r3, r3, #16
 1557 145c 0330C2E5 		strb	r3, [r2, #3]
 1558 1460 0200C2E5 		strb	r0, [r2, #2]
 1559 1464 1EFF2FE1 		bx	lr
 1560              	.L307:
 1561 1468 0130D2E5 		ldrb	r3, [r2, #1]	@ zero_extendqisi2
 1562 146c 013083E2 		add	r3, r3, #1
 1563 1470 7330EFE6 		uxtb	r3, r3
 1564 1474 030053E3 		cmp	r3, #3
 1565 1478 0130C2E5 		strb	r3, [r2, #1]
 1566 147c 1300000A 		beq	.L308
 1567 1480 0330D2E5 		ldrb	r3, [r2, #3]	@ zero_extendqisi2
 1568 1484 7000FFE6 		uxth	r0, r0
 1569 1488 203083E3 		orr	r3, r3, #32
 1570 148c C20F10E3 		tst	r0, #776
 1571 1490 0330C2E5 		strb	r3, [r2, #3]
 1572 1494 E7FFFF0A 		beq	.L323
 1573              	.L310:
 1574 1498 0230D2E5 		ldrb	r3, [r2, #2]	@ zero_extendqisi2
 1575 149c 013083E2 		add	r3, r3, #1
 1576 14a0 7330EFE6 		uxtb	r3, r3
 1577 14a4 030053E3 		cmp	r3, #3
 1578 14a8 0230C2E5 		strb	r3, [r2, #2]
 1579 14ac 1300000A 		beq	.L324
 1580 14b0 08001CE3 		tst	ip, #8
 1581 14b4 0F00001A 		bne	.L314
 1582 14b8 0E0D10E3 		tst	r0, #896
 1583 14bc DFFFFF1A 		bne	.L312
 1584 14c0 0000E0E3 		mvn	r0, #0
 1585 14c4 1EFF2FE1 		bx	lr
 1586              	.L313:
 1587 14c8 0700E0E3 		mvn	r0, #7
 1588 14cc 1EFF2FE1 		bx	lr
 1589              	.L308:
 1590 14d0 0330D2E5 		ldrb	r3, [r2, #3]	@ zero_extendqisi2
 1591 14d4 0900E0E3 		mvn	r0, #9
 1592 14d8 403083E3 		orr	r3, r3, #64
 1593 14dc 0330C2E5 		strb	r3, [r2, #3]
 1594 14e0 1EFF2FE1 		bx	lr
 1595              	.L321:
 1596 14e4 7330EFE6 		uxtb	r3, r3
ARM GAS  C:\Users\ldebo\AppData\Local\Temp\ccISOhOE.s 			page 29


 1597 14e8 403083E3 		orr	r3, r3, #64
 1598 14ec 0300E0E3 		mvn	r0, #3
 1599 14f0 0330C2E5 		strb	r3, [r2, #3]
 1600 14f4 1EFF2FE1 		bx	lr
 1601              	.L314:
 1602 14f8 0F00E0E3 		mvn	r0, #15
 1603 14fc 1EFF2FE1 		bx	lr
 1604              	.L324:
 1605 1500 0330D2E5 		ldrb	r3, [r2, #3]	@ zero_extendqisi2
 1606 1504 0900E0E3 		mvn	r0, #9
 1607 1508 CF3003E2 		and	r3, r3, #207
 1608 150c 403083E3 		orr	r3, r3, #64
 1609 1510 0330C2E5 		strb	r3, [r2, #3]
 1610 1514 1EFF2FE1 		bx	lr
 1611              		.size	HCDCheckErrorAndAction, .-HCDCheckErrorAndAction
 1612              		.align	2
 1613              		.global	HCDWaitOnTransmissionResult
 1614              		.syntax unified
 1615              		.arm
 1616              		.fpu vfp
 1617              		.type	HCDWaitOnTransmissionResult, %function
 1618              	HCDWaitOnTransmissionResult:
 1619              		@ args = 0, pretend = 0, frame = 8
 1620              		@ frame_needed = 0, uses_anonymous_args = 0
 1621 1518 F04F2DE9 		push	{r4, r5, r6, r7, r8, r9, r10, fp, lr}
 1622 151c 0CD04DE2 		sub	sp, sp, #12
 1623 1520 01B0A0E1 		mov	fp, r1
 1624 1524 04208DE5 		str	r2, [sp, #4]
 1625 1528 0060A0E1 		mov	r6, r0
 1626 152c FEFFFFEB 		bl	timer_getTickCount
 1627 1530 0070A0E3 		mov	r7, #0
 1628 1534 0080A0E1 		mov	r8, r0
 1629 1538 0190A0E1 		mov	r9, r1
 1630 153c 20A0A0E3 		mov	r10, #32
 1631 1540 84509FE5 		ldr	r5, .L335
 1632 1544 060000EA 		b	.L328
 1633              	.L326:
 1634 1548 003095E5 		ldr	r3, [r5]
 1635 154c 263783E2 		add	r3, r3, #9961472
 1636 1550 053C83E2 		add	r3, r3, #1280
 1637 1554 9A3B23E0 		mla	r3, r10, fp, r3
 1638 1558 084093E5 		ldr	r4, [r3, #8]
 1639 155c 020014E3 		tst	r4, #2
 1640 1560 1200001A 		bne	.L334
 1641              	.L328:
 1642 1564 6400A0E3 		mov	r0, #100
 1643 1568 0010A0E3 		mov	r1, #0
 1644 156c FEFFFFEB 		bl	timer_wait
 1645 1570 FEFFFFEB 		bl	timer_getTickCount
 1646 1574 0020A0E1 		mov	r2, r0
 1647 1578 0130A0E1 		mov	r3, r1
 1648 157c 0800A0E1 		mov	r0, r8
 1649 1580 0910A0E1 		mov	r1, r9
 1650 1584 FEFFFFEB 		bl	tick_difference
 1651 1588 070051E1 		cmp	r1, r7
 1652 158c 06005001 		cmpeq	r0, r6
 1653 1590 ECFFFF9A 		bls	.L326
ARM GAS  C:\Users\ldebo\AppData\Local\Temp\ccISOhOE.s 			page 30


 1654 1594 04309DE5 		ldr	r3, [sp, #4]
 1655 1598 000053E3 		cmp	r3, #0
 1656 159c 0700E003 		mvneq	r0, #7
 1657 15a0 0700E013 		mvnne	r0, #7
 1658 15a4 00408315 		strne	r4, [r3]
 1659              	.L327:
 1660 15a8 0CD08DE2 		add	sp, sp, #12
 1661              		@ sp needed
 1662 15ac F08FBDE8 		pop	{r4, r5, r6, r7, r8, r9, r10, fp, pc}
 1663              	.L334:
 1664 15b0 04309DE5 		ldr	r3, [sp, #4]
 1665 15b4 000053E3 		cmp	r3, #0
 1666 15b8 0000A013 		movne	r0, #0
 1667 15bc 0300A001 		moveq	r0, r3
 1668 15c0 00408315 		strne	r4, [r3]
 1669 15c4 0CD08DE2 		add	sp, sp, #12
 1670              		@ sp needed
 1671 15c8 F08FBDE8 		pop	{r4, r5, r6, r7, r8, r9, r10, fp, pc}
 1672              	.L336:
 1673              		.align	2
 1674              	.L335:
 1675 15cc 00000000 		.word	RPi_IO_Base_Addr
 1676              		.size	HCDWaitOnTransmissionResult, .-HCDWaitOnTransmissionResult
 1677              		.global	__aeabi_uidiv
 1678              		.align	2
 1679              		.global	HCDChannelTransfer
 1680              		.syntax unified
 1681              		.arm
 1682              		.fpu vfp
 1683              		.type	HCDChannelTransfer, %function
 1684              	HCDChannelTransfer:
 1685              		@ args = 4, pretend = 0, frame = 40
 1686              		@ frame_needed = 0, uses_anonymous_args = 0
 1687 15d0 F04F2DE9 		push	{r4, r5, r6, r7, r8, r9, r10, fp, lr}
 1688 15d4 0050A0E3 		mov	r5, #0
 1689 15d8 34D04DE2 		sub	sp, sp, #52
 1690 15dc 20108DE5 		str	r1, [sp, #32]
 1691 15e0 7110EFE6 		uxtb	r1, r1
 1692 15e4 2C508DE5 		str	r5, [sp, #44]
 1693 15e8 0150A0E1 		mov	r5, r1
 1694 15ec 24459FE5 		ldr	r4, .L398
 1695 15f0 24008DE5 		str	r0, [sp, #36]
 1696 15f4 007094E5 		ldr	r7, [r4]
 1697 15f8 5860DDE5 		ldrb	r6, [sp, #88]	@ zero_extendqisi2
 1698 15fc 26C787E2 		add	ip, r7, #9961472
 1699 1600 48E09CE5 		ldr	lr, [ip, #72]
 1700 1604 14108DE5 		str	r1, [sp, #20]
 1701 1608 2E17A0E1 		lsr	r1, lr, #14
 1702 160c 0F1001E2 		and	r1, r1, #15
 1703 1610 010055E1 		cmp	r5, r1
 1704 1614 18208DE5 		str	r2, [sp, #24]
 1705 1618 10308DE5 		str	r3, [sp, #16]
 1706 161c 0B0000DA 		ble	.L338
 1707 1620 F4349FE5 		ldr	r3, .L398+4
 1708 1624 003093E5 		ldr	r3, [r3]
 1709 1628 000053E3 		cmp	r3, #0
 1710 162c 0160E003 		mvneq	r6, #1
ARM GAS  C:\Users\ldebo\AppData\Local\Temp\ccISOhOE.s 			page 31


 1711 1630 0300000A 		beq	.L369
 1712 1634 0510A0E1 		mov	r1, r5
 1713 1638 E0049FE5 		ldr	r0, .L398+8
 1714 163c 33FF2FE1 		blx	r3
 1715 1640 0160E0E3 		mvn	r6, #1
 1716              	.L369:
 1717 1644 0600A0E1 		mov	r0, r6
 1718 1648 34D08DE2 		add	sp, sp, #52
 1719              		@ sp needed
 1720 164c F08FBDE8 		pop	{r4, r5, r6, r7, r8, r9, r10, fp, pc}
 1721              	.L338:
 1722 1650 2420DDE5 		ldrb	r2, [sp, #36]	@ zero_extendqisi2
 1723 1654 2018A0E1 		lsr	r1, r0, #16
 1724 1658 033012E2 		ands	r3, r2, #3
 1725 165c 71B0EFE6 		uxtb	fp, r1
 1726 1660 208CA0E1 		lsr	r8, r0, #24
 1727 1664 3D00001A 		bne	.L391
 1728 1668 0830A0E3 		mov	r3, #8
 1729 166c 0350A0E1 		mov	r5, r3
 1730 1670 03A0A0E1 		mov	r10, r3
 1731              	.L340:
 1732 1674 0C9002E2 		and	r9, r2, #12
 1733 1678 08E049E2 		sub	lr, r9, #8
 1734 167c 1EEF6FE1 		clz	lr, lr
 1735 1680 2100DDE5 		ldrb	r0, [sp, #33]	@ zero_extendqisi2
 1736 1684 2222A0E1 		lsr	r2, r2, #4
 1737 1688 8016A0E1 		lsl	r1, r0, #13
 1738 168c 021901E2 		and	r1, r1, #32768
 1739 1690 822585E1 		orr	r2, r5, r2, lsl #11
 1740 1694 AEE2A0E1 		lsr	lr, lr, #5
 1741 1698 012082E1 		orr	r2, r2, r1
 1742 169c 8E2882E1 		orr	r2, r2, lr, lsl #17
 1743 16a0 00E0E0E3 		mvn	lr, #0
 1744 16a4 031000E2 		and	r1, r0, #3
 1745 16a8 0327C2E3 		bic	r2, r2, #786432
 1746 16ac 012982E1 		orr	r2, r2, r1, lsl #18
 1747 16b0 2500DDE5 		ldrb	r0, [sp, #37]	@ zero_extendqisi2
 1748 16b4 F411DDE1 		ldrsh	r1, [sp, #20]
 1749 16b8 05CC8CE2 		add	ip, ip, #1280
 1750 16bc 7F0000E2 		and	r0, r0, #127
 1751 16c0 7F25C2E3 		bic	r2, r2, #532676608
 1752 16c4 8152A0E1 		lsl	r5, r1, #5
 1753 16c8 002B82E1 		orr	r2, r2, r0, lsl #22
 1754 16cc 05008CE0 		add	r0, ip, r5
 1755 16d0 08E080E5 		str	lr, [r0, #8]
 1756 16d4 00E0A0E3 		mov	lr, #0
 1757 16d8 000059E3 		cmp	r9, #0
 1758 16dc 0CE080E5 		str	lr, [r0, #12]
 1759 16e0 08008DE5 		str	r0, [sp, #8]
 1760 16e4 81228CE7 		str	r2, [ip, r1, lsl #5]
 1761 16e8 2600000A 		beq	.L341
 1762 16ec 28249FE5 		ldr	r2, .L398+4
 1763 16f0 042092E5 		ldr	r2, [r2, #4]
 1764 16f4 0E0052E1 		cmp	r2, lr
 1765 16f8 02C0A0E1 		mov	ip, r2
 1766 16fc 0400000A 		beq	.L342
 1767 1700 0820A0E1 		mov	r2, r8
ARM GAS  C:\Users\ldebo\AppData\Local\Temp\ccISOhOE.s 			page 32


 1768 1704 0B10A0E1 		mov	r1, fp
 1769 1708 14049FE5 		ldr	r0, .L398+12
 1770 170c 3CFF2FE1 		blx	ip
 1771 1710 007094E5 		ldr	r7, [r4]
 1772              	.L342:
 1773 1714 7F200BE2 		and	r2, fp, #127
 1774 1718 7F3008E2 		and	r3, r8, #127
 1775 171c 261785E2 		add	r1, r5, #9961472
 1776 1720 823383E1 		orr	r3, r3, r2, lsl #7
 1777 1724 052C81E2 		add	r2, r1, #1280
 1778 1728 10109DE5 		ldr	r1, [sp, #16]
 1779 172c 1C208DE5 		str	r2, [sp, #28]
 1780 1730 023183E3 		orr	r3, r3, #-2147483648
 1781 1734 072082E0 		add	r2, r2, r7
 1782 1738 FF84C1E3 		bic	r8, r1, #-16777216
 1783 173c 080059E3 		cmp	r9, #8
 1784 1740 08208DE5 		str	r2, [sp, #8]
 1785 1744 043082E5 		str	r3, [r2, #4]
 1786 1748 3E87C8E3 		bic	r8, r8, #16252928
 1787 174c 1400001A 		bne	.L343
 1788 1750 D0039FE5 		ldr	r0, .L398+16
 1789 1754 073081E2 		add	r3, r1, #7
 1790 1758 A30100E0 		and	r0, r0, r3, lsr #3
 1791 175c 170000EA 		b	.L344
 1792              	.L391:
 1793 1760 010053E3 		cmp	r3, #1
 1794 1764 E700000A 		beq	.L366
 1795 1768 020053E3 		cmp	r3, #2
 1796 176c 2030A003 		moveq	r3, #32
 1797 1770 0350A001 		moveq	r5, r3
 1798 1774 03A0A001 		moveq	r10, r3
 1799 1778 4030A013 		movne	r3, #64
 1800 177c 0350A011 		movne	r5, r3
 1801 1780 03A0A011 		movne	r10, r3
 1802 1784 BAFFFFEA 		b	.L340
 1803              	.L341:
 1804 1788 10309DE5 		ldr	r3, [sp, #16]
 1805 178c 049080E5 		str	r9, [r0, #4]
 1806 1790 FF84C3E3 		bic	r8, r3, #-16777216
 1807 1794 263785E2 		add	r3, r5, #9961472
 1808 1798 053C83E2 		add	r3, r3, #1280
 1809 179c 3E87C8E3 		bic	r8, r8, #16252928
 1810 17a0 1C308DE5 		str	r3, [sp, #28]
 1811              	.L343:
 1812 17a4 10309DE5 		ldr	r3, [sp, #16]
 1813 17a8 0A10A0E1 		mov	r1, r10
 1814 17ac 010043E2 		sub	r0, r3, #1
 1815 17b0 0A0080E0 		add	r0, r0, r10
 1816 17b4 FEFFFFEB 		bl	__aeabi_uidiv
 1817 17b8 000BA0E1 		lsl	r0, r0, #22
 1818 17bc 200BA0E1 		lsr	r0, r0, #22
 1819              	.L344:
 1820 17c0 000050E3 		cmp	r0, #0
 1821 17c4 803988E1 		orr	r3, r8, r0, lsl #19
 1822 17c8 0100A003 		moveq	r0, #1
 1823 17cc 0020A0E3 		mov	r2, #0
 1824 17d0 00B0A0E3 		mov	fp, #0
ARM GAS  C:\Users\ldebo\AppData\Local\Temp\ccISOhOE.s 			page 33


 1825 17d4 7F35C3E3 		bic	r3, r3, #532676608
 1826 17d8 18109DE5 		ldr	r1, [sp, #24]
 1827 17dc 0E37C3E3 		bic	r3, r3, #3670016
 1828 17e0 803983E1 		orr	r3, r3, r0, lsl #19
 1829 17e4 0C108DE5 		str	r1, [sp, #12]
 1830 17e8 0632C3E3 		bic	r3, r3, #1610612736
 1831 17ec 036006E2 		and	r6, r6, #3
 1832 17f0 08109DE5 		ldr	r1, [sp, #8]
 1833 17f4 863E83E1 		orr	r3, r3, r6, lsl #29
 1834 17f8 2CA39FE5 		ldr	r10, .L398+20
 1835 17fc 103081E5 		str	r3, [r1, #16]
 1836 1800 2D20CDE5 		strb	r2, [sp, #45]
 1837              	.L346:
 1838 1804 0020E0E3 		mvn	r2, #0
 1839 1808 0030A0E3 		mov	r3, #0
 1840 180c 1C109DE5 		ldr	r1, [sp, #28]
 1841 1810 076081E0 		add	r6, r1, r7
 1842 1814 082086E5 		str	r2, [r6, #8]
 1843 1818 0C3086E5 		str	r3, [r6, #12]
 1844 181c 047096E5 		ldr	r7, [r6, #4]
 1845 1820 0C109DE5 		ldr	r1, [sp, #12]
 1846 1824 0178C7E3 		bic	r7, r7, #65536
 1847 1828 030011E3 		tst	r1, #3
 1848 182c 047086E5 		str	r7, [r6, #4]
 1849 1830 0900000A 		beq	.L347
 1850 1834 E0329FE5 		ldr	r3, .L398+4
 1851 1838 003093E5 		ldr	r3, [r3]
 1852 183c 000053E3 		cmp	r3, #0
 1853 1840 0500000A 		beq	.L347
 1854 1844 E4029FE5 		ldr	r0, .L398+24
 1855 1848 33FF2FE1 		blx	r3
 1856 184c 006094E5 		ldr	r6, [r4]
 1857 1850 266786E2 		add	r6, r6, #9961472
 1858 1854 056C86E2 		add	r6, r6, #1280
 1859 1858 056086E0 		add	r6, r6, r5
 1860              	.L347:
 1861 185c 0C009DE5 		ldr	r0, [sp, #12]
 1862 1860 FEFFFFEB 		bl	ARMaddrToGPUaddr
 1863 1864 003094E5 		ldr	r3, [r4]
 1864 1868 140086E5 		str	r0, [r6, #20]
 1865 186c 263783E2 		add	r3, r3, #9961472
 1866 1870 052C83E2 		add	r2, r3, #1280
 1867 1874 053092E7 		ldr	r3, [r2, r5]
 1868 1878 6480A0E3 		mov	r8, #100
 1869 187c 0236C3E3 		bic	r3, r3, #2097152
 1870 1880 013683E3 		orr	r3, r3, #1048576
 1871 1884 0131C3E3 		bic	r3, r3, #1073741824
 1872 1888 023183E3 		orr	r3, r3, #-2147483648
 1873 188c 053082E7 		str	r3, [r2, r5]
 1874 1890 FEFFFFEB 		bl	timer_getTickCount
 1875 1894 0090A0E3 		mov	r9, #0
 1876 1898 0060A0E1 		mov	r6, r0
 1877 189c 0170A0E1 		mov	r7, r1
 1878 18a0 060000EA 		b	.L349
 1879              	.L393:
 1880 18a4 002094E5 		ldr	r2, [r4]
 1881 18a8 262782E2 		add	r2, r2, #9961472
ARM GAS  C:\Users\ldebo\AppData\Local\Temp\ccISOhOE.s 			page 34


 1882 18ac 052C82E2 		add	r2, r2, #1280
 1883 18b0 052082E0 		add	r2, r2, r5
 1884 18b4 083092E5 		ldr	r3, [r2, #8]
 1885 18b8 020013E3 		tst	r3, #2
 1886 18bc 1800001A 		bne	.L392
 1887              	.L349:
 1888 18c0 0800A0E1 		mov	r0, r8
 1889 18c4 0910A0E1 		mov	r1, r9
 1890 18c8 FEFFFFEB 		bl	timer_wait
 1891 18cc FEFFFFEB 		bl	timer_getTickCount
 1892 18d0 0020A0E1 		mov	r2, r0
 1893 18d4 0130A0E1 		mov	r3, r1
 1894 18d8 0600A0E1 		mov	r0, r6
 1895 18dc 0710A0E1 		mov	r1, r7
 1896 18e0 FEFFFFEB 		bl	tick_difference
 1897 18e4 0B0051E1 		cmp	r1, fp
 1898 18e8 0A005001 		cmpeq	r0, r10
 1899 18ec ECFFFF9A 		bls	.L393
 1900 18f0 24329FE5 		ldr	r3, .L398+4
 1901 18f4 003093E5 		ldr	r3, [r3]
 1902 18f8 000053E3 		cmp	r3, #0
 1903 18fc 0400000A 		beq	.L363
 1904 1900 14109DE5 		ldr	r1, [sp, #20]
 1905 1904 28029FE5 		ldr	r0, .L398+28
 1906 1908 33FF2FE1 		blx	r3
 1907 190c 0760E0E3 		mvn	r6, #7
 1908 1910 4BFFFFEA 		b	.L369
 1909              	.L363:
 1910 1914 0760E0E3 		mvn	r6, #7
 1911 1918 0600A0E1 		mov	r0, r6
 1912 191c 34D08DE2 		add	sp, sp, #52
 1913              		@ sp needed
 1914 1920 F08FBDE8 		pop	{r4, r5, r6, r7, r8, r9, r10, fp, pc}
 1915              	.L392:
 1916 1924 047092E5 		ldr	r7, [r2, #4]
 1917 1928 0300A0E1 		mov	r0, r3
 1918 192c A71FA0E1 		lsr	r1, r7, #31
 1919 1930 2C208DE2 		add	r2, sp, #44
 1920 1934 08308DE5 		str	r3, [sp, #8]
 1921 1938 FEFFFFEB 		bl	HCDCheckErrorAndAction
 1922 193c 006050E2 		subs	r6, r0, #0
 1923 1940 08309DE5 		ldr	r3, [sp, #8]
 1924 1944 0A00000A 		beq	.L351
 1925 1948 CC219FE5 		ldr	r2, .L398+4
 1926 194c 008092E5 		ldr	r8, [r2]
 1927 1950 000058E3 		cmp	r8, #0
 1928 1954 0600000A 		beq	.L351
 1929 1958 0010A0E3 		mov	r1, #0
 1930 195c 2C209DE5 		ldr	r2, [sp, #44]
 1931 1960 04108DE5 		str	r1, [sp, #4]
 1932 1964 00708DE5 		str	r7, [sp]
 1933 1968 0610A0E1 		mov	r1, r6
 1934 196c C4019FE5 		ldr	r0, .L398+32
 1935 1970 38FF2FE1 		blx	r8
 1936              	.L351:
 1937 1974 2F30DDE5 		ldrb	r3, [sp, #47]	@ zero_extendqisi2
 1938 1978 402013E2 		ands	r2, r3, #64
ARM GAS  C:\Users\ldebo\AppData\Local\Temp\ccISOhOE.s 			page 35


 1939 197c 30FFFF1A 		bne	.L369
 1940 1980 100013E3 		tst	r3, #16
 1941 1984 2C20CDE5 		strb	r2, [sp, #44]
 1942 1988 08208DE5 		str	r2, [sp, #8]
 1943 198c 6480A0E3 		mov	r8, #100
 1944 1990 0090A0E3 		mov	r9, #0
 1945 1994 3D00000A 		beq	.L394
 1946              	.L358:
 1947 1998 0010E0E3 		mvn	r1, #0
 1948 199c 003094E5 		ldr	r3, [r4]
 1949 19a0 263783E2 		add	r3, r3, #9961472
 1950 19a4 053C83E2 		add	r3, r3, #1280
 1951 19a8 052083E0 		add	r2, r3, r5
 1952 19ac 081082E5 		str	r1, [r2, #8]
 1953 19b0 08109DE5 		ldr	r1, [sp, #8]
 1954 19b4 0C1082E5 		str	r1, [r2, #12]
 1955 19b8 041092E5 		ldr	r1, [r2, #4]
 1956 19bc 011881E3 		orr	r1, r1, #65536
 1957 19c0 041082E5 		str	r1, [r2, #4]
 1958 19c4 052093E7 		ldr	r2, [r3, r5]
 1959 19c8 0121C2E3 		bic	r2, r2, #1073741824
 1960 19cc 022182E3 		orr	r2, r2, #-2147483648
 1961 19d0 052083E7 		str	r2, [r3, r5]
 1962 19d4 FEFFFFEB 		bl	timer_getTickCount
 1963 19d8 0060A0E1 		mov	r6, r0
 1964 19dc 0170A0E1 		mov	r7, r1
 1965 19e0 060000EA 		b	.L354
 1966              	.L396:
 1967 19e4 003094E5 		ldr	r3, [r4]
 1968 19e8 263783E2 		add	r3, r3, #9961472
 1969 19ec 053C83E2 		add	r3, r3, #1280
 1970 19f0 053083E0 		add	r3, r3, r5
 1971 19f4 080093E5 		ldr	r0, [r3, #8]
 1972 19f8 020010E3 		tst	r0, #2
 1973 19fc 1400001A 		bne	.L395
 1974              	.L354:
 1975 1a00 0800A0E1 		mov	r0, r8
 1976 1a04 0910A0E1 		mov	r1, r9
 1977 1a08 FEFFFFEB 		bl	timer_wait
 1978 1a0c FEFFFFEB 		bl	timer_getTickCount
 1979 1a10 0020A0E1 		mov	r2, r0
 1980 1a14 0130A0E1 		mov	r3, r1
 1981 1a18 0600A0E1 		mov	r0, r6
 1982 1a1c 0710A0E1 		mov	r1, r7
 1983 1a20 FEFFFFEB 		bl	tick_difference
 1984 1a24 0B0051E1 		cmp	r1, fp
 1985 1a28 0A005001 		cmpeq	r0, r10
 1986 1a2c ECFFFF9A 		bls	.L396
 1987 1a30 E4309FE5 		ldr	r3, .L398+4
 1988 1a34 003093E5 		ldr	r3, [r3]
 1989 1a38 000053E3 		cmp	r3, #0
 1990 1a3c B4FFFF0A 		beq	.L363
 1991 1a40 14109DE5 		ldr	r1, [sp, #20]
 1992 1a44 F0009FE5 		ldr	r0, .L398+36
 1993 1a48 33FF2FE1 		blx	r3
 1994 1a4c 0760E0E3 		mvn	r6, #7
 1995 1a50 FBFEFFEA 		b	.L369
ARM GAS  C:\Users\ldebo\AppData\Local\Temp\ccISOhOE.s 			page 36


 1996              	.L395:
 1997 1a54 041093E5 		ldr	r1, [r3, #4]
 1998 1a58 2C208DE2 		add	r2, sp, #44
 1999 1a5c A11FA0E1 		lsr	r1, r1, #31
 2000 1a60 FEFFFFEB 		bl	HCDCheckErrorAndAction
 2001 1a64 2F30DDE5 		ldrb	r3, [sp, #47]	@ zero_extendqisi2
 2002 1a68 400013E3 		tst	r3, #64
 2003 1a6c 1300001A 		bne	.L397
 2004 1a70 080013E3 		tst	r3, #8
 2005 1a74 C4009F15 		ldrne	r0, .L398+40
 2006 1a78 C4009F05 		ldreq	r0, .L398+44
 2007 1a7c 0010A0E3 		mov	r1, #0
 2008 1a80 FEFFFFEB 		bl	timer_wait
 2009 1a84 2F30DDE5 		ldrb	r3, [sp, #47]	@ zero_extendqisi2
 2010 1a88 100013E3 		tst	r3, #16
 2011 1a8c C1FFFF1A 		bne	.L358
 2012              	.L394:
 2013 1a90 800013E3 		tst	r3, #128
 2014 1a94 007094E5 		ldr	r7, [r4]
 2015 1a98 0A00001A 		bne	.L359
 2016 1a9c 263787E2 		add	r3, r7, #9961472
 2017 1aa0 053C83E2 		add	r3, r3, #1280
 2018 1aa4 053083E0 		add	r3, r3, r5
 2019 1aa8 78209FE5 		ldr	r2, .L398+16
 2020 1aac 103093E5 		ldr	r3, [r3, #16]
 2021 1ab0 A33912E0 		ands	r3, r2, r3, lsr #19
 2022 1ab4 52FFFF1A 		bne	.L346
 2023              	.L388:
 2024 1ab8 0360A0E1 		mov	r6, r3
 2025 1abc E0FEFFEA 		b	.L369
 2026              	.L397:
 2027 1ac0 0060A0E1 		mov	r6, r0
 2028 1ac4 DEFEFFEA 		b	.L369
 2029              	.L359:
 2030 1ac8 261787E2 		add	r1, r7, #9961472
 2031 1acc 051C81E2 		add	r1, r1, #1280
 2032 1ad0 051081E0 		add	r1, r1, r5
 2033 1ad4 102091E5 		ldr	r2, [r1, #16]
 2034 1ad8 48309FE5 		ldr	r3, .L398+16
 2035 1adc 101091E5 		ldr	r1, [r1, #16]
 2036 1ae0 FF24C2E3 		bic	r2, r2, #-16777216
 2037 1ae4 A13913E0 		ands	r3, r3, r1, lsr #19
 2038 1ae8 10109DE5 		ldr	r1, [sp, #16]
 2039 1aec 3E27C2E3 		bic	r2, r2, #16252928
 2040 1af0 022041E0 		sub	r2, r1, r2
 2041 1af4 EFFFFF0A 		beq	.L388
 2042 1af8 18309DE5 		ldr	r3, [sp, #24]
 2043 1afc 023083E0 		add	r3, r3, r2
 2044 1b00 0C308DE5 		str	r3, [sp, #12]
 2045 1b04 3EFFFFEA 		b	.L346
 2046              	.L366:
 2047 1b08 1030A0E3 		mov	r3, #16
 2048 1b0c 0350A0E1 		mov	r5, r3
 2049 1b10 03A0A0E1 		mov	r10, r3
 2050 1b14 D6FEFFEA 		b	.L340
 2051              	.L399:
 2052              		.align	2
ARM GAS  C:\Users\ldebo\AppData\Local\Temp\ccISOhOE.s 			page 37


 2053              	.L398:
 2054 1b18 00000000 		.word	RPi_IO_Base_Addr
 2055 1b1c 00000000 		.word	.LANCHOR1
 2056 1b20 B4020000 		.word	.LC47
 2057 1b24 E4020000 		.word	.LC48
 2058 1b28 FF030000 		.word	1023
 2059 1b2c 88130000 		.word	5000
 2060 1b30 2C030000 		.word	.LC49
 2061 1b34 78030000 		.word	.LC50
 2062 1b38 A4030000 		.word	.LC51
 2063 1b3c F0030000 		.word	.LC52
 2064 1b40 10270000 		.word	10000
 2065 1b44 C4090000 		.word	2500
 2066              		.size	HCDChannelTransfer, .-HCDChannelTransfer
 2067              		.align	2
 2068              		.syntax unified
 2069              		.arm
 2070              		.fpu vfp
 2071              		.type	HCDSubmitControlMessage.constprop.6, %function
 2072              	HCDSubmitControlMessage.constprop.6:
 2073              		@ args = 0, pretend = 0, frame = 1040
 2074              		@ frame_needed = 0, uses_anonymous_args = 0
 2075 1b48 F0402DE9 		push	{r4, r5, r6, r7, lr}
 2076 1b4c 60619FE5 		ldr	r6, .L419
 2077 1b50 2044A0E1 		lsr	r4, r0, #8
 2078 1b54 0830D6E5 		ldrb	r3, [r6, #8]	@ zero_extendqisi2
 2079 1b58 42DE4DE2 		sub	sp, sp, #1056
 2080 1b5c 7440EFE6 		uxtb	r4, r4
 2081 1b60 0CD04DE2 		sub	sp, sp, #12
 2082 1b64 040053E1 		cmp	r3, r4
 2083 1b68 1C008DE5 		str	r0, [sp, #28]
 2084 1b6c 18108DE5 		str	r1, [sp, #24]
 2085 1b70 3600000A 		beq	.L418
 2086 1b74 03C0A0E3 		mov	ip, #3
 2087 1b78 2134A0E1 		lsr	r3, r1, #8
 2088 1b7c F83003E2 		and	r3, r3, #248
 2089 1b80 24108DE5 		str	r1, [sp, #36]
 2090 1b84 2530CDE5 		strb	r3, [sp, #37]
 2091 1b88 24109DE5 		ldr	r1, [sp, #36]
 2092 1b8c 00C08DE5 		str	ip, [sp]
 2093 1b90 0830A0E3 		mov	r3, #8
 2094 1b94 0270A0E1 		mov	r7, r2
 2095 1b98 FEFFFFEB 		bl	HCDChannelTransfer
 2096 1b9c 005050E2 		subs	r5, r0, #0
 2097 1ba0 1700000A 		beq	.L403
 2098 1ba4 006096E5 		ldr	r6, [r6]
 2099 1ba8 000056E3 		cmp	r6, #0
 2100 1bac 0F00000A 		beq	.L417
 2101 1bb0 1C10DDE5 		ldrb	r1, [sp, #28]	@ zero_extendqisi2
 2102 1bb4 0030D7E5 		ldrb	r3, [r7]	@ zero_extendqisi2
 2103 1bb8 0120D7E5 		ldrb	r2, [r7, #1]	@ zero_extendqisi2
 2104 1bbc 21C1A0E1 		lsr	ip, r1, #2
 2105 1bc0 1F70DDE5 		ldrb	r7, [sp, #31]	@ zero_extendqisi2
 2106 1bc4 1EE0DDE5 		ldrb	lr, [sp, #30]	@ zero_extendqisi2
 2107 1bc8 030001E2 		and	r0, r1, #3
 2108 1bcc 03C00CE2 		and	ip, ip, #3
 2109 1bd0 04008DE5 		str	r0, [sp, #4]
ARM GAS  C:\Users\ldebo\AppData\Local\Temp\ccISOhOE.s 			page 38


 2110 1bd4 10508DE5 		str	r5, [sp, #16]
 2111 1bd8 0410A0E1 		mov	r1, r4
 2112 1bdc 00C08DE5 		str	ip, [sp]
 2113 1be0 0C708DE5 		str	r7, [sp, #12]
 2114 1be4 08E08DE5 		str	lr, [sp, #8]
 2115 1be8 C8009FE5 		ldr	r0, .L419+4
 2116 1bec 36FF2FE1 		blx	r6
 2117              	.L417:
 2118 1bf0 0050A0E3 		mov	r5, #0
 2119              	.L402:
 2120 1bf4 0500A0E1 		mov	r0, r5
 2121 1bf8 42DE8DE2 		add	sp, sp, #1056
 2122 1bfc 0CD08DE2 		add	sp, sp, #12
 2123              		@ sp needed
 2124 1c00 F080BDE8 		pop	{r4, r5, r6, r7, pc}
 2125              	.L403:
 2126 1c04 0220A0E3 		mov	r2, #2
 2127 1c08 2530DDE5 		ldrb	r3, [sp, #37]	@ zero_extendqisi2
 2128 1c0c 00208DE5 		str	r2, [sp]
 2129 1c10 043083E3 		orr	r3, r3, #4
 2130 1c14 2530CDE5 		strb	r3, [sp, #37]
 2131 1c18 24109DE5 		ldr	r1, [sp, #36]
 2132 1c1c 0530A0E1 		mov	r3, r5
 2133 1c20 28208DE2 		add	r2, sp, #40
 2134 1c24 1C009DE5 		ldr	r0, [sp, #28]
 2135 1c28 FEFFFFEB 		bl	HCDChannelTransfer
 2136 1c2c 000050E3 		cmp	r0, #0
 2137 1c30 0F00000A 		beq	.L405
 2138 1c34 003096E5 		ldr	r3, [r6]
 2139 1c38 000053E3 		cmp	r3, #0
 2140 1c3c EBFFFF0A 		beq	.L417
 2141 1c40 0410A0E1 		mov	r1, r4
 2142 1c44 70009FE5 		ldr	r0, .L419+8
 2143 1c48 33FF2FE1 		blx	r3
 2144 1c4c E8FFFFEA 		b	.L402
 2145              	.L418:
 2146 1c50 0030A0E3 		mov	r3, #0
 2147 1c54 0310A0E1 		mov	r1, r3
 2148 1c58 0300A0E1 		mov	r0, r3
 2149 1c5c FEFFFFEB 		bl	HcdProcessRootHubMessage
 2150 1c60 0050A0E1 		mov	r5, r0
 2151 1c64 0500A0E1 		mov	r0, r5
 2152 1c68 42DE8DE2 		add	sp, sp, #1056
 2153 1c6c 0CD08DE2 		add	sp, sp, #12
 2154              		@ sp needed
 2155 1c70 F080BDE8 		pop	{r4, r5, r6, r7, pc}
 2156              	.L405:
 2157 1c74 44309FE5 		ldr	r3, .L419+12
 2158 1c78 44209FE5 		ldr	r2, .L419+16
 2159 1c7c 003093E5 		ldr	r3, [r3]
 2160 1c80 263783E2 		add	r3, r3, #9961472
 2161 1c84 101593E5 		ldr	r1, [r3, #1296]
 2162 1c88 053C83E2 		add	r3, r3, #1280
 2163 1c8c 020011E1 		tst	r1, r2
 2164 1c90 D6FFFF0A 		beq	.L417
 2165 1c94 044096E5 		ldr	r4, [r6, #4]
 2166 1c98 000054E3 		cmp	r4, #0
ARM GAS  C:\Users\ldebo\AppData\Local\Temp\ccISOhOE.s 			page 39


 2167 1c9c D3FFFF0A 		beq	.L417
 2168 1ca0 101093E5 		ldr	r1, [r3, #16]
 2169 1ca4 1C009FE5 		ldr	r0, .L419+20
 2170 1ca8 021001E0 		and	r1, r1, r2
 2171 1cac 34FF2FE1 		blx	r4
 2172 1cb0 CFFFFFEA 		b	.L402
 2173              	.L420:
 2174              		.align	2
 2175              	.L419:
 2176 1cb4 00000000 		.word	.LANCHOR1
 2177 1cb8 2C040000 		.word	.LC53
 2178 1cbc A0040000 		.word	.LC54
 2179 1cc0 00000000 		.word	RPi_IO_Base_Addr
 2180 1cc4 FFFF0700 		.word	524287
 2181 1cc8 D0040000 		.word	.LC55
 2182              		.size	HCDSubmitControlMessage.constprop.6, .-HCDSubmitControlMessage.constprop.6
 2183              		.align	2
 2184              		.global	HCDSubmitControlMessage
 2185              		.syntax unified
 2186              		.arm
 2187              		.fpu vfp
 2188              		.type	HCDSubmitControlMessage, %function
 2189              	HCDSubmitControlMessage:
 2190              		@ args = 12, pretend = 0, frame = 1040
 2191              		@ frame_needed = 0, uses_anonymous_args = 0
 2192 1ccc F0472DE9 		push	{r4, r5, r6, r7, r8, r9, r10, lr}
 2193 1cd0 90949FE5 		ldr	r9, .L487
 2194 1cd4 2054A0E1 		lsr	r5, r0, #8
 2195 1cd8 08C0D9E5 		ldrb	ip, [r9, #8]	@ zero_extendqisi2
 2196 1cdc 42DE4DE2 		sub	sp, sp, #1056
 2197 1ce0 7550EFE6 		uxtb	r5, r5
 2198 1ce4 08D04DE2 		sub	sp, sp, #8
 2199 1ce8 05005CE1 		cmp	ip, r5
 2200 1cec 1C008DE5 		str	r0, [sp, #28]
 2201 1cf0 18108DE5 		str	r1, [sp, #24]
 2202 1cf4 0240A0E1 		mov	r4, r2
 2203 1cf8 03A0A0E1 		mov	r10, r3
 2204 1cfc 6F00000A 		beq	.L484
 2205 1d00 0320A0E3 		mov	r2, #3
 2206 1d04 2134A0E1 		lsr	r3, r1, #8
 2207 1d08 F83003E2 		and	r3, r3, #248
 2208 1d0c 24108DE5 		str	r1, [sp, #36]
 2209 1d10 2530CDE5 		strb	r3, [sp, #37]
 2210 1d14 00208DE5 		str	r2, [sp]
 2211 1d18 24109DE5 		ldr	r1, [sp, #36]
 2212 1d1c 0830A0E3 		mov	r3, #8
 2213 1d20 48249DE5 		ldr	r2, [sp, #1096]
 2214 1d24 1960DDE5 		ldrb	r6, [sp, #25]	@ zero_extendqisi2
 2215 1d28 FEFFFFEB 		bl	HCDChannelTransfer
 2216 1d2c 2661A0E1 		lsr	r6, r6, #2
 2217 1d30 008050E2 		subs	r8, r0, #0
 2218 1d34 016006E2 		and	r6, r6, #1
 2219 1d38 1900000A 		beq	.L424
 2220 1d3c 004099E5 		ldr	r4, [r9]
 2221 1d40 000054E3 		cmp	r4, #0
 2222 1d44 1100000A 		beq	.L480
 2223 1d48 1C10DDE5 		ldrb	r1, [sp, #28]	@ zero_extendqisi2
ARM GAS  C:\Users\ldebo\AppData\Local\Temp\ccISOhOE.s 			page 40


 2224 1d4c 48349DE5 		ldr	r3, [sp, #1096]
 2225 1d50 21C1A0E1 		lsr	ip, r1, #2
 2226 1d54 48249DE5 		ldr	r2, [sp, #1096]
 2227 1d58 1F60DDE5 		ldrb	r6, [sp, #31]	@ zero_extendqisi2
 2228 1d5c 1EE0DDE5 		ldrb	lr, [sp, #30]	@ zero_extendqisi2
 2229 1d60 030001E2 		and	r0, r1, #3
 2230 1d64 03C00CE2 		and	ip, ip, #3
 2231 1d68 0030D3E5 		ldrb	r3, [r3]	@ zero_extendqisi2
 2232 1d6c 0120D2E5 		ldrb	r2, [r2, #1]	@ zero_extendqisi2
 2233 1d70 0510A0E1 		mov	r1, r5
 2234 1d74 04008DE5 		str	r0, [sp, #4]
 2235 1d78 10808DE5 		str	r8, [sp, #16]
 2236 1d7c 00C08DE5 		str	ip, [sp]
 2237 1d80 0C608DE5 		str	r6, [sp, #12]
 2238 1d84 08E08DE5 		str	lr, [sp, #8]
 2239 1d88 DC039FE5 		ldr	r0, .L487+4
 2240 1d8c 34FF2FE1 		blx	r4
 2241              	.L480:
 2242 1d90 0080A0E3 		mov	r8, #0
 2243              	.L475:
 2244 1d94 0800A0E1 		mov	r0, r8
 2245 1d98 42DE8DE2 		add	sp, sp, #1056
 2246 1d9c 08D08DE2 		add	sp, sp, #8
 2247              		@ sp needed
 2248 1da0 F087BDE8 		pop	{r4, r5, r6, r7, r8, r9, r10, pc}
 2249              	.L424:
 2250 1da4 000054E3 		cmp	r4, #0
 2251 1da8 C300000A 		beq	.L485
 2252 1dac 1930DDE5 		ldrb	r3, [sp, #25]	@ zero_extendqisi2
 2253 1db0 040013E3 		tst	r3, #4
 2254 1db4 4B00000A 		beq	.L486
 2255 1db8 0220A0E3 		mov	r2, #2
 2256 1dbc 2530DDE5 		ldrb	r3, [sp, #37]	@ zero_extendqisi2
 2257 1dc0 28708DE2 		add	r7, sp, #40
 2258 1dc4 0430C3E3 		bic	r3, r3, #4
 2259 1dc8 166283E1 		orr	r6, r3, r6, lsl r2
 2260 1dcc 2560CDE5 		strb	r6, [sp, #37]
 2261 1dd0 00208DE5 		str	r2, [sp]
 2262 1dd4 24109DE5 		ldr	r1, [sp, #36]
 2263 1dd8 0720A0E1 		mov	r2, r7
 2264 1ddc 0A30A0E1 		mov	r3, r10
 2265 1de0 1C009DE5 		ldr	r0, [sp, #28]
 2266 1de4 FEFFFFEB 		bl	HCDChannelTransfer
 2267 1de8 000050E3 		cmp	r0, #0
 2268 1dec 9000001A 		bne	.L449
 2269 1df0 78339FE5 		ldr	r3, .L487+8
 2270 1df4 003093E5 		ldr	r3, [r3]
 2271 1df8 263783E2 		add	r3, r3, #9961472
 2272 1dfc 106593E5 		ldr	r6, [r3, #1296]
 2273 1e00 053C83E2 		add	r3, r3, #1280
 2274 1e04 FF64C6E3 		bic	r6, r6, #-16777216
 2275 1e08 3E67C6E3 		bic	r6, r6, #16252928
 2276 1e0c 06605AE0 		subs	r6, r10, r6
 2277 1e10 AA00000A 		beq	.L438
 2278 1e14 030014E3 		tst	r4, #3
 2279 1e18 0130A003 		moveq	r3, #1
 2280 1e1c 0030A013 		movne	r3, #0
ARM GAS  C:\Users\ldebo\AppData\Local\Temp\ccISOhOE.s 			page 41


 2281 1e20 080056E3 		cmp	r6, #8
 2282 1e24 0030A093 		movls	r3, #0
 2283 1e28 01300382 		andhi	r3, r3, #1
 2284 1e2c 000053E3 		cmp	r3, #0
 2285 1e30 B200000A 		beq	.L439
 2286 1e34 0420A0E1 		mov	r2, r4
 2287 1e38 0830A0E1 		mov	r3, r8
 2288 1e3c 040046E2 		sub	r0, r6, #4
 2289 1e40 2001A0E1 		lsr	r0, r0, #2
 2290 1e44 010080E2 		add	r0, r0, #1
 2291 1e48 00C1A0E1 		lsl	ip, r0, #2
 2292              	.L440:
 2293 1e4c 031197E7 		ldr	r1, [r7, r3, lsl #2]
 2294 1e50 013083E2 		add	r3, r3, #1
 2295 1e54 030050E1 		cmp	r0, r3
 2296 1e58 041082E4 		str	r1, [r2], #4
 2297 1e5c FAFFFF8A 		bhi	.L440
 2298 1e60 0C0056E1 		cmp	r6, ip
 2299 1e64 9600000A 		beq	.L427
 2300 1e68 423E8DE2 		add	r3, sp, #1056
 2301 1e6c 083083E2 		add	r3, r3, #8
 2302 1e70 0C3083E0 		add	r3, r3, ip
 2303 1e74 003453E5 		ldrb	r3, [r3, #-1024]	@ zero_extendqisi2
 2304 1e78 01208CE2 		add	r2, ip, #1
 2305 1e7c 060052E1 		cmp	r2, r6
 2306 1e80 0031C4E7 		strb	r3, [r4, r0, lsl #2]
 2307 1e84 8E00002A 		bcs	.L427
 2308 1e88 423E8DE2 		add	r3, sp, #1056
 2309 1e8c 083083E2 		add	r3, r3, #8
 2310 1e90 021083E0 		add	r1, r3, r2
 2311 1e94 001451E5 		ldrb	r1, [r1, #-1024]	@ zero_extendqisi2
 2312 1e98 02308CE2 		add	r3, ip, #2
 2313 1e9c 030056E1 		cmp	r6, r3
 2314 1ea0 0210C4E7 		strb	r1, [r4, r2]
 2315 1ea4 8600009A 		bls	.L427
 2316 1ea8 422E8DE2 		add	r2, sp, #1056
 2317 1eac 082082E2 		add	r2, r2, #8
 2318 1eb0 032082E0 		add	r2, r2, r3
 2319 1eb4 002452E5 		ldrb	r2, [r2, #-1024]	@ zero_extendqisi2
 2320 1eb8 0320C4E7 		strb	r2, [r4, r3]
 2321 1ebc 800000EA 		b	.L427
 2322              	.L484:
 2323 1ec0 0310A0E1 		mov	r1, r3
 2324 1ec4 0200A0E1 		mov	r0, r2
 2325 1ec8 50349DE5 		ldr	r3, [sp, #1104]
 2326 1ecc 48249DE5 		ldr	r2, [sp, #1096]
 2327 1ed0 FEFFFFEB 		bl	HcdProcessRootHubMessage
 2328 1ed4 0080A0E1 		mov	r8, r0
 2329 1ed8 0800A0E1 		mov	r0, r8
 2330 1edc 42DE8DE2 		add	sp, sp, #1056
 2331 1ee0 08D08DE2 		add	sp, sp, #8
 2332              		@ sp needed
 2333 1ee4 F087BDE8 		pop	{r4, r5, r6, r7, r8, r9, r10, pc}
 2334              	.L486:
 2335 1ee8 00005AE3 		cmp	r10, #0
 2336 1eec 8C00000A 		beq	.L429
 2337 1ef0 030014E3 		tst	r4, #3
ARM GAS  C:\Users\ldebo\AppData\Local\Temp\ccISOhOE.s 			page 42


 2338 1ef4 0130A003 		moveq	r3, #1
 2339 1ef8 0030A013 		movne	r3, #0
 2340 1efc 08005AE3 		cmp	r10, #8
 2341 1f00 0030A093 		movls	r3, #0
 2342 1f04 01300382 		andhi	r3, r3, #1
 2343 1f08 000053E3 		cmp	r3, #0
 2344 1f0c 7100000A 		beq	.L430
 2345 1f10 0830A0E1 		mov	r3, r8
 2346 1f14 04004AE2 		sub	r0, r10, #4
 2347 1f18 2001A0E1 		lsr	r0, r0, #2
 2348 1f1c 010080E2 		add	r0, r0, #1
 2349 1f20 00C1A0E1 		lsl	ip, r0, #2
 2350 1f24 042044E2 		sub	r2, r4, #4
 2351 1f28 28708DE2 		add	r7, sp, #40
 2352              	.L431:
 2353 1f2c 0410B2E5 		ldr	r1, [r2, #4]!
 2354 1f30 031187E7 		str	r1, [r7, r3, lsl #2]
 2355 1f34 013083E2 		add	r3, r3, #1
 2356 1f38 030050E1 		cmp	r0, r3
 2357 1f3c FAFFFF8A 		bhi	.L431
 2358 1f40 0C005AE1 		cmp	r10, ip
 2359 1f44 1400000A 		beq	.L436
 2360 1f48 421E8DE2 		add	r1, sp, #1056
 2361 1f4c 0031D4E7 		ldrb	r3, [r4, r0, lsl #2]	@ zero_extendqisi2
 2362 1f50 01208CE2 		add	r2, ip, #1
 2363 1f54 081081E2 		add	r1, r1, #8
 2364 1f58 0C1081E0 		add	r1, r1, ip
 2365 1f5c 02005AE1 		cmp	r10, r2
 2366 1f60 003441E5 		strb	r3, [r1, #-1024]
 2367 1f64 0C00009A 		bls	.L436
 2368 1f68 420E8DE2 		add	r0, sp, #1056
 2369 1f6c 0210D4E7 		ldrb	r1, [r4, r2]	@ zero_extendqisi2
 2370 1f70 02308CE2 		add	r3, ip, #2
 2371 1f74 080080E2 		add	r0, r0, #8
 2372 1f78 022080E0 		add	r2, r0, r2
 2373 1f7c 03005AE1 		cmp	r10, r3
 2374 1f80 001442E5 		strb	r1, [r2, #-1024]
 2375 1f84 0400009A 		bls	.L436
 2376 1f88 421E8DE2 		add	r1, sp, #1056
 2377 1f8c 0320D4E7 		ldrb	r2, [r4, r3]	@ zero_extendqisi2
 2378 1f90 081081E2 		add	r1, r1, #8
 2379 1f94 033081E0 		add	r3, r1, r3
 2380 1f98 002443E5 		strb	r2, [r3, #-1024]
 2381              	.L436:
 2382 1f9c 0220A0E3 		mov	r2, #2
 2383 1fa0 2530DDE5 		ldrb	r3, [sp, #37]	@ zero_extendqisi2
 2384 1fa4 00208DE5 		str	r2, [sp]
 2385 1fa8 0430C3E3 		bic	r3, r3, #4
 2386 1fac 166283E1 		orr	r6, r3, r6, lsl r2
 2387 1fb0 2560CDE5 		strb	r6, [sp, #37]
 2388 1fb4 24109DE5 		ldr	r1, [sp, #36]
 2389 1fb8 0A30A0E1 		mov	r3, r10
 2390 1fbc 0720A0E1 		mov	r2, r7
 2391 1fc0 1C009DE5 		ldr	r0, [sp, #28]
 2392 1fc4 FEFFFFEB 		bl	HCDChannelTransfer
 2393 1fc8 000050E3 		cmp	r0, #0
 2394 1fcc 1800001A 		bne	.L449
ARM GAS  C:\Users\ldebo\AppData\Local\Temp\ccISOhOE.s 			page 43


 2395              	.L451:
 2396 1fd0 0A60A0E1 		mov	r6, r10
 2397 1fd4 1930DDE5 		ldrb	r3, [sp, #25]	@ zero_extendqisi2
 2398 1fd8 2331A0E1 		lsr	r3, r3, #2
 2399 1fdc 013023E2 		eor	r3, r3, #1
 2400 1fe0 011003E2 		and	r1, r3, #1
 2401              	.L446:
 2402 1fe4 0200A0E3 		mov	r0, #2
 2403 1fe8 2530DDE5 		ldrb	r3, [sp, #37]	@ zero_extendqisi2
 2404 1fec 00008DE5 		str	r0, [sp]
 2405 1ff0 0430C3E3 		bic	r3, r3, #4
 2406 1ff4 113083E1 		orr	r3, r3, r1, lsl r0
 2407 1ff8 2530CDE5 		strb	r3, [sp, #37]
 2408 1ffc 0720A0E1 		mov	r2, r7
 2409 2000 24109DE5 		ldr	r1, [sp, #36]
 2410 2004 0030A0E3 		mov	r3, #0
 2411 2008 1C009DE5 		ldr	r0, [sp, #28]
 2412 200c FEFFFFEB 		bl	HCDChannelTransfer
 2413 2010 004050E2 		subs	r4, r0, #0
 2414 2014 1000000A 		beq	.L447
 2415 2018 003099E5 		ldr	r3, [r9]
 2416 201c 000053E3 		cmp	r3, #0
 2417 2020 5AFFFF0A 		beq	.L480
 2418 2024 0510A0E1 		mov	r1, r5
 2419 2028 44019FE5 		ldr	r0, .L487+12
 2420 202c 33FF2FE1 		blx	r3
 2421 2030 57FFFFEA 		b	.L475
 2422              	.L449:
 2423 2034 003099E5 		ldr	r3, [r9]
 2424 2038 000053E3 		cmp	r3, #0
 2425 203c 53FFFF0A 		beq	.L480
 2426 2040 0510A0E1 		mov	r1, r5
 2427 2044 2C019FE5 		ldr	r0, .L487+16
 2428 2048 33FF2FE1 		blx	r3
 2429 204c 0800A0E1 		mov	r0, r8
 2430 2050 42DE8DE2 		add	sp, sp, #1056
 2431 2054 08D08DE2 		add	sp, sp, #8
 2432              		@ sp needed
 2433 2058 F087BDE8 		pop	{r4, r5, r6, r7, r8, r9, r10, pc}
 2434              	.L447:
 2435 205c 0C319FE5 		ldr	r3, .L487+8
 2436 2060 14219FE5 		ldr	r2, .L487+20
 2437 2064 003093E5 		ldr	r3, [r3]
 2438 2068 263783E2 		add	r3, r3, #9961472
 2439 206c 101593E5 		ldr	r1, [r3, #1296]
 2440 2070 053C83E2 		add	r3, r3, #1280
 2441 2074 020011E1 		tst	r1, r2
 2442 2078 0600000A 		beq	.L448
 2443 207c 045099E5 		ldr	r5, [r9, #4]
 2444 2080 000055E3 		cmp	r5, #0
 2445 2084 0300000A 		beq	.L448
 2446 2088 101093E5 		ldr	r1, [r3, #16]
 2447 208c EC009FE5 		ldr	r0, .L487+24
 2448 2090 021001E0 		and	r1, r1, r2
 2449 2094 35FF2FE1 		blx	r5
 2450              	.L448:
 2451 2098 50349DE5 		ldr	r3, [sp, #1104]
ARM GAS  C:\Users\ldebo\AppData\Local\Temp\ccISOhOE.s 			page 44


 2452 209c 000053E3 		cmp	r3, #0
 2453 20a0 3AFFFF0A 		beq	.L480
 2454 20a4 0480A0E1 		mov	r8, r4
 2455 20a8 0800A0E1 		mov	r0, r8
 2456 20ac 006083E5 		str	r6, [r3]
 2457 20b0 42DE8DE2 		add	sp, sp, #1056
 2458 20b4 08D08DE2 		add	sp, sp, #8
 2459              		@ sp needed
 2460 20b8 F087BDE8 		pop	{r4, r5, r6, r7, r8, r9, r10, pc}
 2461              	.L485:
 2462 20bc 28708DE2 		add	r7, sp, #40
 2463              	.L438:
 2464 20c0 0060A0E3 		mov	r6, #0
 2465              	.L427:
 2466 20c4 00005AE3 		cmp	r10, #0
 2467 20c8 0110A003 		moveq	r1, #1
 2468 20cc C4FFFF0A 		beq	.L446
 2469 20d0 06A0A0E1 		mov	r10, r6
 2470 20d4 BDFFFFEA 		b	.L451
 2471              	.L430:
 2472 20d8 28708DE2 		add	r7, sp, #40
 2473 20dc 01004AE2 		sub	r0, r10, #1
 2474 20e0 012047E2 		sub	r2, r7, #1
 2475 20e4 000084E0 		add	r0, r4, r0
 2476 20e8 013044E2 		sub	r3, r4, #1
 2477              	.L435:
 2478 20ec 0110F3E5 		ldrb	r1, [r3, #1]!	@ zero_extendqisi2
 2479 20f0 000053E1 		cmp	r3, r0
 2480 20f4 0110E2E5 		strb	r1, [r2, #1]!
 2481 20f8 FBFFFF1A 		bne	.L435
 2482 20fc A6FFFFEA 		b	.L436
 2483              	.L439:
 2484 2100 010046E2 		sub	r0, r6, #1
 2485 2104 013044E2 		sub	r3, r4, #1
 2486 2108 000087E0 		add	r0, r7, r0
 2487 210c 012047E2 		sub	r2, r7, #1
 2488              	.L444:
 2489 2110 0110F2E5 		ldrb	r1, [r2, #1]!	@ zero_extendqisi2
 2490 2114 000052E1 		cmp	r2, r0
 2491 2118 0110E3E5 		strb	r1, [r3, #1]!
 2492 211c FBFFFF1A 		bne	.L444
 2493 2120 E7FFFFEA 		b	.L427
 2494              	.L429:
 2495 2124 0220A0E3 		mov	r2, #2
 2496 2128 2530DDE5 		ldrb	r3, [sp, #37]	@ zero_extendqisi2
 2497 212c 28708DE2 		add	r7, sp, #40
 2498 2130 0430C3E3 		bic	r3, r3, #4
 2499 2134 166283E1 		orr	r6, r3, r6, lsl r2
 2500 2138 2560CDE5 		strb	r6, [sp, #37]
 2501 213c 00208DE5 		str	r2, [sp]
 2502 2140 24109DE5 		ldr	r1, [sp, #36]
 2503 2144 0720A0E1 		mov	r2, r7
 2504 2148 0830A0E1 		mov	r3, r8
 2505 214c 1C009DE5 		ldr	r0, [sp, #28]
 2506 2150 FEFFFFEB 		bl	HCDChannelTransfer
 2507 2154 000050E3 		cmp	r0, #0
 2508 2158 B5FFFF1A 		bne	.L449
ARM GAS  C:\Users\ldebo\AppData\Local\Temp\ccISOhOE.s 			page 45


 2509 215c 0860A0E1 		mov	r6, r8
 2510 2160 0110A0E3 		mov	r1, #1
 2511 2164 9EFFFFEA 		b	.L446
 2512              	.L488:
 2513              		.align	2
 2514              	.L487:
 2515 2168 00000000 		.word	.LANCHOR1
 2516 216c 2C040000 		.word	.LC53
 2517 2170 00000000 		.word	RPi_IO_Base_Addr
 2518 2174 A0040000 		.word	.LC54
 2519 2178 FC040000 		.word	.LC56
 2520 217c FFFF0700 		.word	524287
 2521 2180 D0040000 		.word	.LC55
 2522              		.size	HCDSubmitControlMessage, .-HCDSubmitControlMessage
 2523              		.align	2
 2524              		.global	HCDSetAddress
 2525              		.syntax unified
 2526              		.arm
 2527              		.fpu vfp
 2528              		.type	HCDSetAddress, %function
 2529              	HCDSetAddress:
 2530              		@ args = 0, pretend = 0, frame = 24
 2531              		@ frame_needed = 0, uses_anonymous_args = 0
 2532 2184 04E02DE5 		str	lr, [sp, #-4]!
 2533 2188 003051E2 		subs	r3, r1, #0
 2534 218c 1CD04DE2 		sub	sp, sp, #28
 2535 2190 04008DE5 		str	r0, [sp, #4]
 2536 2194 0A00000A 		beq	.L491
 2537 2198 00C0A0E3 		mov	ip, #0
 2538 219c 05E0A0E3 		mov	lr, #5
 2539 21a0 0C10A0E1 		mov	r1, ip
 2540 21a4 10208DE2 		add	r2, sp, #16
 2541 21a8 10C08DE5 		str	ip, [sp, #16]
 2542 21ac 14C08DE5 		str	ip, [sp, #20]
 2543 21b0 B231CDE1 		strh	r3, [sp, #18]	@ movhi
 2544 21b4 11E0CDE5 		strb	lr, [sp, #17]
 2545 21b8 62FEFFEB 		bl	HCDSubmitControlMessage.constprop.6
 2546              	.L490:
 2547 21bc 1CD08DE2 		add	sp, sp, #28
 2548              		@ sp needed
 2549 21c0 04F09DE4 		ldr	pc, [sp], #4
 2550              	.L491:
 2551 21c4 0100E0E3 		mvn	r0, #1
 2552 21c8 FBFFFFEA 		b	.L490
 2553              		.size	HCDSetAddress, .-HCDSetAddress
 2554              		.align	2
 2555              		.global	HCDSetConfiguration
 2556              		.syntax unified
 2557              		.arm
 2558              		.fpu vfp
 2559              		.type	HCDSetConfiguration, %function
 2560              	HCDSetConfiguration:
 2561              		@ args = 0, pretend = 0, frame = 24
 2562              		@ frame_needed = 0, uses_anonymous_args = 0
 2563 21cc 0030A0E3 		mov	r3, #0
 2564 21d0 09C0A0E3 		mov	ip, #9
 2565 21d4 10402DE9 		push	{r4, lr}
ARM GAS  C:\Users\ldebo\AppData\Local\Temp\ccISOhOE.s 			page 46


 2566 21d8 18D04DE2 		sub	sp, sp, #24
 2567 21dc 10308DE5 		str	r3, [sp, #16]
 2568 21e0 10208DE2 		add	r2, sp, #16
 2569 21e4 B211CDE1 		strh	r1, [sp, #18]	@ movhi
 2570 21e8 0310A0E1 		mov	r1, r3
 2571 21ec 04008DE5 		str	r0, [sp, #4]
 2572 21f0 14308DE5 		str	r3, [sp, #20]
 2573 21f4 11C0CDE5 		strb	ip, [sp, #17]
 2574 21f8 52FEFFEB 		bl	HCDSubmitControlMessage.constprop.6
 2575 21fc 004050E2 		subs	r4, r0, #0
 2576 2200 0700000A 		beq	.L494
 2577 2204 24309FE5 		ldr	r3, .L502
 2578 2208 003093E5 		ldr	r3, [r3]
 2579 220c 000053E3 		cmp	r3, #0
 2580 2210 0300000A 		beq	.L494
 2581 2214 0420A0E1 		mov	r2, r4
 2582 2218 0510DDE5 		ldrb	r1, [sp, #5]	@ zero_extendqisi2
 2583 221c 10009FE5 		ldr	r0, .L502+4
 2584 2220 33FF2FE1 		blx	r3
 2585              	.L494:
 2586 2224 0400A0E1 		mov	r0, r4
 2587 2228 18D08DE2 		add	sp, sp, #24
 2588              		@ sp needed
 2589 222c 1080BDE8 		pop	{r4, pc}
 2590              	.L503:
 2591              		.align	2
 2592              	.L502:
 2593 2230 00000000 		.word	.LANCHOR1
 2594 2234 28050000 		.word	.LC57
 2595              		.size	HCDSetConfiguration, .-HCDSetConfiguration
 2596              		.align	2
 2597              		.global	HCDReadHubPortStatus
 2598              		.syntax unified
 2599              		.arm
 2600              		.fpu vfp
 2601              		.type	HCDReadHubPortStatus, %function
 2602              	HCDReadHubPortStatus:
 2603              		@ args = 0, pretend = 0, frame = 32
 2604              		@ frame_needed = 0, uses_anonymous_args = 0
 2605 2238 0030A0E3 		mov	r3, #0
 2606 223c F0402DE9 		push	{r4, r5, r6, r7, lr}
 2607 2240 006052E2 		subs	r6, r2, #0
 2608 2244 34D04DE2 		sub	sp, sp, #52
 2609 2248 14008DE5 		str	r0, [sp, #20]
 2610 224c 1C308DE5 		str	r3, [sp, #28]
 2611 2250 3F00000A 		beq	.L509
 2612 2254 0140A0E1 		mov	r4, r1
 2613 2258 0410A0E3 		mov	r1, #4
 2614 225c 0A20A0E3 		mov	r2, #10
 2615 2260 20C4A0E1 		lsr	ip, r0, #8
 2616 2264 030054E1 		cmp	r4, r3
 2617 2268 7C70EFE6 		uxtb	r7, ip
 2618 226c 01C0A0E1 		mov	ip, r1
 2619 2270 A3E0A013 		movne	lr, #163
 2620 2274 A0E0A003 		moveq	lr, #160
 2621 2278 04208DE5 		str	r2, [sp, #4]
 2622 227c 28208DE2 		add	r2, sp, #40
ARM GAS  C:\Users\ldebo\AppData\Local\Temp\ccISOhOE.s 			page 47


 2623 2280 24308DE5 		str	r3, [sp, #36]
 2624 2284 00208DE5 		str	r2, [sp]
 2625 2288 2510CDE5 		strb	r1, [sp, #37]
 2626 228c 1C208DE2 		add	r2, sp, #28
 2627 2290 28308DE5 		str	r3, [sp, #40]
 2628 2294 08208DE5 		str	r2, [sp, #8]
 2629 2298 24109DE5 		ldr	r1, [sp, #36]
 2630 229c 0C30A0E1 		mov	r3, ip
 2631 22a0 20208DE2 		add	r2, sp, #32
 2632 22a4 BC42CDE1 		strh	r4, [sp, #44]	@ movhi
 2633 22a8 BEC2CDE1 		strh	ip, [sp, #46]	@ movhi
 2634 22ac 28E0CDE5 		strb	lr, [sp, #40]
 2635 22b0 FEFFFFEB 		bl	HCDSubmitControlMessage
 2636 22b4 005050E2 		subs	r5, r0, #0
 2637 22b8 1000000A 		beq	.L507
 2638 22bc 98309FE5 		ldr	r3, .L516
 2639 22c0 006093E5 		ldr	r6, [r3]
 2640 22c4 000056E3 		cmp	r6, #0
 2641 22c8 0900000A 		beq	.L505
 2642 22cc 1430DDE5 		ldrb	r3, [sp, #20]	@ zero_extendqisi2
 2643 22d0 0420A0E1 		mov	r2, r4
 2644 22d4 2301A0E1 		lsr	r0, r3, #2
 2645 22d8 030000E2 		and	r0, r0, #3
 2646 22dc 033003E2 		and	r3, r3, #3
 2647 22e0 09008DE8 		stm	sp, {r0, r3}
 2648 22e4 0710A0E1 		mov	r1, r7
 2649 22e8 0530A0E1 		mov	r3, r5
 2650 22ec 6C009FE5 		ldr	r0, .L516+4
 2651 22f0 36FF2FE1 		blx	r6
 2652              	.L505:
 2653 22f4 0500A0E1 		mov	r0, r5
 2654 22f8 34D08DE2 		add	sp, sp, #52
 2655              		@ sp needed
 2656 22fc F080BDE8 		pop	{r4, r5, r6, r7, pc}
 2657              	.L507:
 2658 2300 1C309DE5 		ldr	r3, [sp, #28]
 2659 2304 030053E3 		cmp	r3, #3
 2660 2308 0C00008A 		bhi	.L508
 2661 230c 48309FE5 		ldr	r3, .L516
 2662 2310 003093E5 		ldr	r3, [r3]
 2663 2314 000053E3 		cmp	r3, #0
 2664 2318 0350E003 		mvneq	r5, #3
 2665 231c F4FFFF0A 		beq	.L505
 2666 2320 0350E0E3 		mvn	r5, #3
 2667 2324 0420A0E1 		mov	r2, r4
 2668 2328 0710A0E1 		mov	r1, r7
 2669 232c 30009FE5 		ldr	r0, .L516+8
 2670 2330 33FF2FE1 		blx	r3
 2671 2334 0500A0E1 		mov	r0, r5
 2672 2338 34D08DE2 		add	sp, sp, #52
 2673              		@ sp needed
 2674 233c F080BDE8 		pop	{r4, r5, r6, r7, pc}
 2675              	.L508:
 2676 2340 0500A0E1 		mov	r0, r5
 2677 2344 20309DE5 		ldr	r3, [sp, #32]
 2678 2348 003086E5 		str	r3, [r6]
 2679 234c 34D08DE2 		add	sp, sp, #52
ARM GAS  C:\Users\ldebo\AppData\Local\Temp\ccISOhOE.s 			page 48


 2680              		@ sp needed
 2681 2350 F080BDE8 		pop	{r4, r5, r6, r7, pc}
 2682              	.L509:
 2683 2354 0150E0E3 		mvn	r5, #1
 2684 2358 E5FFFFEA 		b	.L505
 2685              	.L517:
 2686              		.align	2
 2687              	.L516:
 2688 235c 00000000 		.word	.LANCHOR1
 2689 2360 68050000 		.word	.LC58
 2690 2364 D0050000 		.word	.LC59
 2691              		.size	HCDReadHubPortStatus, .-HCDReadHubPortStatus
 2692              		.align	2
 2693              		.global	HCDChangeHubPortFeature
 2694              		.syntax unified
 2695              		.arm
 2696              		.fpu vfp
 2697              		.type	HCDChangeHubPortFeature, %function
 2698              	HCDChangeHubPortFeature:
 2699              		@ args = 0, pretend = 0, frame = 24
 2700              		@ frame_needed = 0, uses_anonymous_args = 0
 2701 2368 00C0A0E3 		mov	ip, #0
 2702 236c 0C0052E1 		cmp	r2, ip
 2703 2370 F0412DE9 		push	{r4, r5, r6, r7, r8, lr}
 2704 2374 2360A013 		movne	r6, #35
 2705 2378 2060A003 		moveq	r6, #32
 2706 237c 0C0053E1 		cmp	r3, ip
 2707 2380 03E0A013 		movne	lr, #3
 2708 2384 01E0A003 		moveq	lr, #1
 2709 2388 0240A0E1 		mov	r4, r2
 2710 238c 20D04DE2 		sub	sp, sp, #32
 2711 2390 BA11CDE1 		strh	r1, [sp, #26]	@ movhi
 2712 2394 0150A0E1 		mov	r5, r1
 2713 2398 18208DE2 		add	r2, sp, #24
 2714 239c 0C10A0E1 		mov	r1, ip
 2715 23a0 1CC08DE5 		str	ip, [sp, #28]
 2716 23a4 1860CDE5 		strb	r6, [sp, #24]
 2717 23a8 0C008DE5 		str	r0, [sp, #12]
 2718 23ac BC41CDE1 		strh	r4, [sp, #28]	@ movhi
 2719 23b0 19E0CDE5 		strb	lr, [sp, #25]
 2720 23b4 0380A0E1 		mov	r8, r3
 2721 23b8 E2FDFFEB 		bl	HCDSubmitControlMessage.constprop.6
 2722 23bc 006050E2 		subs	r6, r0, #0
 2723 23c0 0900000A 		beq	.L521
 2724 23c4 2C309FE5 		ldr	r3, .L531
 2725 23c8 007093E5 		ldr	r7, [r3]
 2726 23cc 000057E3 		cmp	r7, #0
 2727 23d0 0500000A 		beq	.L521
 2728 23d4 0D10DDE5 		ldrb	r1, [sp, #13]	@ zero_extendqisi2
 2729 23d8 00808DE5 		str	r8, [sp]
 2730 23dc 0530A0E1 		mov	r3, r5
 2731 23e0 0420A0E1 		mov	r2, r4
 2732 23e4 10009FE5 		ldr	r0, .L531+4
 2733 23e8 37FF2FE1 		blx	r7
 2734              	.L521:
 2735 23ec 0600A0E1 		mov	r0, r6
 2736 23f0 20D08DE2 		add	sp, sp, #32
ARM GAS  C:\Users\ldebo\AppData\Local\Temp\ccISOhOE.s 			page 49


 2737              		@ sp needed
 2738 23f4 F081BDE8 		pop	{r4, r5, r6, r7, r8, pc}
 2739              	.L532:
 2740              		.align	2
 2741              	.L531:
 2742 23f8 00000000 		.word	.LANCHOR1
 2743 23fc 04060000 		.word	.LC60
 2744              		.size	HCDChangeHubPortFeature, .-HCDChangeHubPortFeature
 2745              		.align	2
 2746              		.global	HCDInitialise
 2747              		.syntax unified
 2748              		.arm
 2749              		.fpu vfp
 2750              		.type	HCDInitialise, %function
 2751              	HCDInitialise:
 2752              		@ args = 0, pretend = 0, frame = 0
 2753              		@ frame_needed = 0, uses_anonymous_args = 0
 2754 2400 70402DE9 		push	{r4, r5, r6, lr}
 2755 2404 C0419FE5 		ldr	r4, .L559
 2756 2408 C0C19FE5 		ldr	ip, .L559+4
 2757 240c 003094E5 		ldr	r3, [r4]
 2758 2410 10D04DE2 		sub	sp, sp, #16
 2759 2414 263783E2 		add	r3, r3, #9961472
 2760 2418 401093E5 		ldr	r1, [r3, #64]
 2761 241c 3C0093E5 		ldr	r0, [r3, #60]
 2762 2420 FF2EC1E3 		bic	r2, r1, #4080
 2763 2424 0F20C2E3 		bic	r2, r2, #15
 2764 2428 0C0052E1 		cmp	r2, ip
 2765 242c 1600000A 		beq	.L534
 2766 2430 9C319FE5 		ldr	r3, .L559+8
 2767 2434 004093E5 		ldr	r4, [r3]
 2768 2438 000054E3 		cmp	r4, #0
 2769 243c 3600000A 		beq	.L556
 2770 2440 21E2A0E1 		lsr	lr, r1, #4
 2771 2444 21C4A0E1 		lsr	ip, r1, #8
 2772 2448 2006A0E1 		lsr	r0, r0, #12
 2773 244c 0FE00EE2 		and	lr, lr, #15
 2774 2450 0FC00CE2 		and	ip, ip, #15
 2775 2454 2136A0E1 		lsr	r3, r1, #12
 2776 2458 2128A0E1 		lsr	r2, r1, #16
 2777 245c 0F5001E2 		and	r5, r1, #15
 2778 2460 0C008DE5 		str	r0, [sp, #12]
 2779 2464 00508DE8 		stm	sp, {ip, lr}
 2780 2468 0F3003E2 		and	r3, r3, #15
 2781 246c 7220EFE6 		uxtb	r2, r2
 2782 2470 08508DE5 		str	r5, [sp, #8]
 2783 2474 211CA0E1 		lsr	r1, r1, #24
 2784 2478 58019FE5 		ldr	r0, .L559+12
 2785 247c 34FF2FE1 		blx	r4
 2786 2480 0400E0E3 		mvn	r0, #4
 2787              	.L553:
 2788 2484 10D08DE2 		add	sp, sp, #16
 2789              		@ sp needed
 2790 2488 7080BDE8 		pop	{r4, r5, r6, pc}
 2791              	.L534:
 2792 248c 40519FE5 		ldr	r5, .L559+8
 2793 2490 006095E5 		ldr	r6, [r5]
ARM GAS  C:\Users\ldebo\AppData\Local\Temp\ccISOhOE.s 			page 50


 2794 2494 000056E3 		cmp	r6, #0
 2795 2498 2200001A 		bne	.L558
 2796 249c 4820D3E5 		ldrb	r2, [r3, #72]	@ zero_extendqisi2
 2797 24a0 A221A0E1 		lsr	r2, r2, #3
 2798 24a4 032002E2 		and	r2, r2, #3
 2799 24a8 020052E3 		cmp	r2, #2
 2800 24ac 1A00001A 		bne	.L556
 2801 24b0 4820D3E5 		ldrb	r2, [r3, #72]	@ zero_extendqisi2
 2802 24b4 2223B0E1 		lsrs	r2, r2, #6
 2803 24b8 1700000A 		beq	.L556
 2804              	.L540:
 2805 24bc 0060A0E3 		mov	r6, #0
 2806 24c0 0810A0E3 		mov	r1, #8
 2807 24c4 01E0A0E3 		mov	lr, #1
 2808 24c8 03C0A0E3 		mov	ip, #3
 2809 24cc 082093E5 		ldr	r2, [r3, #8]
 2810 24d0 0600A0E1 		mov	r0, r6
 2811 24d4 0120C2E3 		bic	r2, r2, #1
 2812 24d8 082083E5 		str	r2, [r3, #8]
 2813 24dc 003094E5 		ldr	r3, [r4]
 2814 24e0 F4209FE5 		ldr	r2, .L559+16
 2815 24e4 263783E2 		add	r3, r3, #9961472
 2816 24e8 186083E5 		str	r6, [r3, #24]
 2817 24ec 0130A0E1 		mov	r3, r1
 2818 24f0 02508DE8 		stm	sp, {r1, ip, lr}
 2819 24f4 0510A0E3 		mov	r1, #5
 2820 24f8 FEFFFFEB 		bl	mailbox_tag_message
 2821 24fc 060050E1 		cmp	r0, r6
 2822 2500 0600A011 		movne	r0, r6
 2823 2504 DEFFFF1A 		bne	.L553
 2824 2508 003095E5 		ldr	r3, [r5]
 2825 250c 000053E3 		cmp	r3, #0
 2826 2510 0100000A 		beq	.L556
 2827 2514 C4009FE5 		ldr	r0, .L559+20
 2828 2518 33FF2FE1 		blx	r3
 2829              	.L556:
 2830 251c 0400E0E3 		mvn	r0, #4
 2831 2520 10D08DE2 		add	sp, sp, #16
 2832              		@ sp needed
 2833 2524 7080BDE8 		pop	{r4, r5, r6, pc}
 2834              	.L558:
 2835 2528 2122A0E1 		lsr	r2, r1, #4
 2836 252c 2134A0E1 		lsr	r3, r1, #8
 2837 2530 2006A0E1 		lsr	r0, r0, #12
 2838 2534 0F2002E2 		and	r2, r2, #15
 2839 2538 0F3003E2 		and	r3, r3, #15
 2840 253c 0F1001E2 		and	r1, r1, #15
 2841 2540 0C008DE5 		str	r0, [sp, #12]
 2842 2544 04208DE5 		str	r2, [sp, #4]
 2843 2548 00308DE5 		str	r3, [sp]
 2844 254c 08108DE5 		str	r1, [sp, #8]
 2845 2550 0230A0E3 		mov	r3, #2
 2846 2554 4F10A0E3 		mov	r1, #79
 2847 2558 5420A0E3 		mov	r2, #84
 2848 255c 80009FE5 		ldr	r0, .L559+24
 2849 2560 36FF2FE1 		blx	r6
 2850 2564 003094E5 		ldr	r3, [r4]
ARM GAS  C:\Users\ldebo\AppData\Local\Temp\ccISOhOE.s 			page 51


 2851 2568 263783E2 		add	r3, r3, #9961472
 2852 256c 441083E2 		add	r1, r3, #68
 2853 2570 0420D1E5 		ldrb	r2, [r1, #4]	@ zero_extendqisi2
 2854 2574 A221A0E1 		lsr	r2, r2, #3
 2855 2578 032002E2 		and	r2, r2, #3
 2856 257c 020052E3 		cmp	r2, #2
 2857 2580 0700000A 		beq	.L538
 2858 2584 003095E5 		ldr	r3, [r5]
 2859 2588 000053E3 		cmp	r3, #0
 2860 258c E2FFFF0A 		beq	.L556
 2861 2590 50009FE5 		ldr	r0, .L559+28
 2862 2594 33FF2FE1 		blx	r3
 2863 2598 0400E0E3 		mvn	r0, #4
 2864 259c 10D08DE2 		add	sp, sp, #16
 2865              		@ sp needed
 2866 25a0 7080BDE8 		pop	{r4, r5, r6, pc}
 2867              	.L538:
 2868 25a4 0420D1E5 		ldrb	r2, [r1, #4]	@ zero_extendqisi2
 2869 25a8 2223B0E1 		lsrs	r2, r2, #6
 2870 25ac C2FFFF1A 		bne	.L540
 2871 25b0 003095E5 		ldr	r3, [r5]
 2872 25b4 000053E3 		cmp	r3, #0
 2873 25b8 D7FFFF0A 		beq	.L556
 2874 25bc 28009FE5 		ldr	r0, .L559+32
 2875 25c0 33FF2FE1 		blx	r3
 2876 25c4 0400E0E3 		mvn	r0, #4
 2877 25c8 ADFFFFEA 		b	.L553
 2878              	.L560:
 2879              		.align	2
 2880              	.L559:
 2881 25cc 00000000 		.word	RPi_IO_Base_Addr
 2882 25d0 0020544F 		.word	1330913280
 2883 25d4 00000000 		.word	.LANCHOR1
 2884 25d8 54060000 		.word	.LC61
 2885 25dc 01800200 		.word	163841
 2886 25e0 3C070000 		.word	.LC65
 2887 25e4 B0060000 		.word	.LC62
 2888 25e8 DC060000 		.word	.LC63
 2889 25ec 14070000 		.word	.LC64
 2890              		.size	HCDInitialise, .-HCDInitialise
 2891              		.align	2
 2892              		.global	AddHidPayload
 2893              		.syntax unified
 2894              		.arm
 2895              		.fpu vfp
 2896              		.type	AddHidPayload, %function
 2897              	AddHidPayload:
 2898              		@ args = 0, pretend = 0, frame = 0
 2899              		@ frame_needed = 0, uses_anonymous_args = 0
 2900 25f0 000050E3 		cmp	r0, #0
 2901 25f4 4400000A 		beq	.L565
 2902 25f8 EA23D0E5 		ldrb	r2, [r0, #1002]	@ zero_extendqisi2
 2903 25fc 010052E3 		cmp	r2, #1
 2904 2600 4100001A 		bne	.L565
 2905 2604 70319FE5 		ldr	r3, .L585
 2906 2608 3410D3E5 		ldrb	r1, [r3, #52]	@ zero_extendqisi2
 2907 260c 000051E3 		cmp	r1, #0
ARM GAS  C:\Users\ldebo\AppData\Local\Temp\ccISOhOE.s 			page 52


 2908 2610 4100000A 		beq	.L566
 2909 2614 6010D3E5 		ldrb	r1, [r3, #96]	@ zero_extendqisi2
 2910 2618 000051E3 		cmp	r1, #0
 2911 261c 2D00000A 		beq	.L563
 2912 2620 8C20D3E5 		ldrb	r2, [r3, #140]	@ zero_extendqisi2
 2913 2624 000052E3 		cmp	r2, #0
 2914 2628 3D00000A 		beq	.L568
 2915 262c B820D3E5 		ldrb	r2, [r3, #184]	@ zero_extendqisi2
 2916 2630 000052E3 		cmp	r2, #0
 2917 2634 3C00000A 		beq	.L569
 2918 2638 E420D3E5 		ldrb	r2, [r3, #228]	@ zero_extendqisi2
 2919 263c 000052E3 		cmp	r2, #0
 2920 2640 3B00000A 		beq	.L570
 2921 2644 1021D3E5 		ldrb	r2, [r3, #272]	@ zero_extendqisi2
 2922 2648 000052E3 		cmp	r2, #0
 2923 264c 3A00000A 		beq	.L571
 2924 2650 3C21D3E5 		ldrb	r2, [r3, #316]	@ zero_extendqisi2
 2925 2654 000052E3 		cmp	r2, #0
 2926 2658 3900000A 		beq	.L572
 2927 265c 6821D3E5 		ldrb	r2, [r3, #360]	@ zero_extendqisi2
 2928 2660 000052E3 		cmp	r2, #0
 2929 2664 3800000A 		beq	.L573
 2930 2668 9421D3E5 		ldrb	r2, [r3, #404]	@ zero_extendqisi2
 2931 266c 000052E3 		cmp	r2, #0
 2932 2670 3700000A 		beq	.L574
 2933 2674 C021D3E5 		ldrb	r2, [r3, #448]	@ zero_extendqisi2
 2934 2678 000052E3 		cmp	r2, #0
 2935 267c 3600000A 		beq	.L575
 2936 2680 EC21D3E5 		ldrb	r2, [r3, #492]	@ zero_extendqisi2
 2937 2684 000052E3 		cmp	r2, #0
 2938 2688 3500000A 		beq	.L576
 2939 268c 1822D3E5 		ldrb	r2, [r3, #536]	@ zero_extendqisi2
 2940 2690 000052E3 		cmp	r2, #0
 2941 2694 3400000A 		beq	.L577
 2942 2698 4422D3E5 		ldrb	r2, [r3, #580]	@ zero_extendqisi2
 2943 269c 000052E3 		cmp	r2, #0
 2944 26a0 1B00000A 		beq	.L578
 2945 26a4 7022D3E5 		ldrb	r2, [r3, #624]	@ zero_extendqisi2
 2946 26a8 000052E3 		cmp	r2, #0
 2947 26ac 3000000A 		beq	.L579
 2948 26b0 9C22D3E5 		ldrb	r2, [r3, #668]	@ zero_extendqisi2
 2949 26b4 000052E3 		cmp	r2, #0
 2950 26b8 0500000A 		beq	.L580
 2951 26bc C822D3E5 		ldrb	r2, [r3, #712]	@ zero_extendqisi2
 2952 26c0 000052E3 		cmp	r2, #0
 2953 26c4 0F20A003 		moveq	r2, #15
 2954 26c8 0200000A 		beq	.L563
 2955 26cc 0600E0E3 		mvn	r0, #6
 2956 26d0 1EFF2FE1 		bx	lr
 2957              	.L580:
 2958 26d4 0E20A0E3 		mov	r2, #14
 2959              	.L563:
 2960 26d8 2C10A0E3 		mov	r1, #44
 2961 26dc 04E02DE5 		str	lr, [sp, #-4]!
 2962 26e0 03C0A0E3 		mov	ip, #3
 2963 26e4 04E0A0E3 		mov	lr, #4
 2964 26e8 910202E0 		mul	r2, r1, r2
ARM GAS  C:\Users\ldebo\AppData\Local\Temp\ccISOhOE.s 			page 53


 2965 26ec 8C109FE5 		ldr	r1, .L585+4
 2966 26f0 023083E0 		add	r3, r3, r2
 2967 26f4 022081E0 		add	r2, r1, r2
 2968 26f8 EC2380E5 		str	r2, [r0, #1004]
 2969 26fc EAC3C0E5 		strb	ip, [r0, #1002]
 2970 2700 34E0C3E5 		strb	lr, [r3, #52]
 2971 2704 0000A0E3 		mov	r0, #0
 2972 2708 04F09DE4 		ldr	pc, [sp], #4
 2973              	.L565:
 2974 270c 0100E0E3 		mvn	r0, #1
 2975 2710 1EFF2FE1 		bx	lr
 2976              	.L578:
 2977 2714 0C20A0E3 		mov	r2, #12
 2978 2718 EEFFFFEA 		b	.L563
 2979              	.L566:
 2980 271c 0120A0E1 		mov	r2, r1
 2981 2720 ECFFFFEA 		b	.L563
 2982              	.L568:
 2983 2724 0220A0E3 		mov	r2, #2
 2984 2728 EAFFFFEA 		b	.L563
 2985              	.L569:
 2986 272c 0320A0E3 		mov	r2, #3
 2987 2730 E8FFFFEA 		b	.L563
 2988              	.L570:
 2989 2734 0420A0E3 		mov	r2, #4
 2990 2738 E6FFFFEA 		b	.L563
 2991              	.L571:
 2992 273c 0520A0E3 		mov	r2, #5
 2993 2740 E4FFFFEA 		b	.L563
 2994              	.L572:
 2995 2744 0620A0E3 		mov	r2, #6
 2996 2748 E2FFFFEA 		b	.L563
 2997              	.L573:
 2998 274c 0720A0E3 		mov	r2, #7
 2999 2750 E0FFFFEA 		b	.L563
 3000              	.L574:
 3001 2754 0820A0E3 		mov	r2, #8
 3002 2758 DEFFFFEA 		b	.L563
 3003              	.L575:
 3004 275c 0920A0E3 		mov	r2, #9
 3005 2760 DCFFFFEA 		b	.L563
 3006              	.L576:
 3007 2764 0A20A0E3 		mov	r2, #10
 3008 2768 DAFFFFEA 		b	.L563
 3009              	.L577:
 3010 276c 0B20A0E3 		mov	r2, #11
 3011 2770 D8FFFFEA 		b	.L563
 3012              	.L579:
 3013 2774 0D20A0E3 		mov	r2, #13
 3014 2778 D6FFFFEA 		b	.L563
 3015              	.L586:
 3016              		.align	2
 3017              	.L585:
 3018 277c 00000000 		.word	.LANCHOR1
 3019 2780 0C000000 		.word	.LANCHOR1+12
 3020              		.size	AddHidPayload, .-AddHidPayload
 3021              		.align	2
ARM GAS  C:\Users\ldebo\AppData\Local\Temp\ccISOhOE.s 			page 54


 3022              		.global	RemoveHidPayload
 3023              		.syntax unified
 3024              		.arm
 3025              		.fpu vfp
 3026              		.type	RemoveHidPayload, %function
 3027              	RemoveHidPayload:
 3028              		@ args = 0, pretend = 0, frame = 0
 3029              		@ frame_needed = 0, uses_anonymous_args = 0
 3030 2784 10402DE9 		push	{r4, lr}
 3031 2788 004050E2 		subs	r4, r0, #0
 3032 278c 1080BD08 		popeq	{r4, pc}
 3033 2790 EA23D4E5 		ldrb	r2, [r4, #1002]	@ zero_extendqisi2
 3034 2794 030052E3 		cmp	r2, #3
 3035 2798 1080BD18 		popne	{r4, pc}
 3036 279c EC0394E5 		ldr	r0, [r4, #1004]
 3037 27a0 000050E3 		cmp	r0, #0
 3038 27a4 1080BD08 		popeq	{r4, pc}
 3039 27a8 2C20A0E3 		mov	r2, #44
 3040 27ac 0010A0E3 		mov	r1, #0
 3041 27b0 FEFFFFEB 		bl	memset
 3042 27b4 0020A0E3 		mov	r2, #0
 3043 27b8 0130A0E3 		mov	r3, #1
 3044 27bc EC2384E5 		str	r2, [r4, #1004]
 3045 27c0 EA33C4E5 		strb	r3, [r4, #1002]
 3046 27c4 1080BDE8 		pop	{r4, pc}
 3047              		.size	RemoveHidPayload, .-RemoveHidPayload
 3048              		.align	2
 3049              		.global	AddHubPayload
 3050              		.syntax unified
 3051              		.arm
 3052              		.fpu vfp
 3053              		.type	AddHubPayload, %function
 3054              	AddHubPayload:
 3055              		@ args = 0, pretend = 0, frame = 0
 3056              		@ frame_needed = 0, uses_anonymous_args = 0
 3057 27c8 000050E3 		cmp	r0, #0
 3058 27cc 4400000A 		beq	.L600
 3059 27d0 EA23D0E5 		ldrb	r2, [r0, #1002]	@ zero_extendqisi2
 3060 27d4 010052E3 		cmp	r2, #1
 3061 27d8 4100001A 		bne	.L600
 3062 27dc 70319FE5 		ldr	r3, .L620
 3063 27e0 CC1293E5 		ldr	r1, [r3, #716]
 3064 27e4 000051E3 		cmp	r1, #0
 3065 27e8 4100000A 		beq	.L601
 3066 27ec 041393E5 		ldr	r1, [r3, #772]
 3067 27f0 000051E3 		cmp	r1, #0
 3068 27f4 2D00000A 		beq	.L598
 3069 27f8 3C2393E5 		ldr	r2, [r3, #828]
 3070 27fc 000052E3 		cmp	r2, #0
 3071 2800 3D00000A 		beq	.L603
 3072 2804 742393E5 		ldr	r2, [r3, #884]
 3073 2808 000052E3 		cmp	r2, #0
 3074 280c 3C00000A 		beq	.L604
 3075 2810 AC2393E5 		ldr	r2, [r3, #940]
 3076 2814 000052E3 		cmp	r2, #0
 3077 2818 3B00000A 		beq	.L605
 3078 281c E42393E5 		ldr	r2, [r3, #996]
ARM GAS  C:\Users\ldebo\AppData\Local\Temp\ccISOhOE.s 			page 55


 3079 2820 000052E3 		cmp	r2, #0
 3080 2824 3A00000A 		beq	.L606
 3081 2828 1C2493E5 		ldr	r2, [r3, #1052]
 3082 282c 000052E3 		cmp	r2, #0
 3083 2830 3900000A 		beq	.L607
 3084 2834 542493E5 		ldr	r2, [r3, #1108]
 3085 2838 000052E3 		cmp	r2, #0
 3086 283c 3800000A 		beq	.L608
 3087 2840 8C2493E5 		ldr	r2, [r3, #1164]
 3088 2844 000052E3 		cmp	r2, #0
 3089 2848 3700000A 		beq	.L609
 3090 284c C42493E5 		ldr	r2, [r3, #1220]
 3091 2850 000052E3 		cmp	r2, #0
 3092 2854 3600000A 		beq	.L610
 3093 2858 FC2493E5 		ldr	r2, [r3, #1276]
 3094 285c 000052E3 		cmp	r2, #0
 3095 2860 3500000A 		beq	.L611
 3096 2864 342593E5 		ldr	r2, [r3, #1332]
 3097 2868 000052E3 		cmp	r2, #0
 3098 286c 3400000A 		beq	.L612
 3099 2870 6C2593E5 		ldr	r2, [r3, #1388]
 3100 2874 000052E3 		cmp	r2, #0
 3101 2878 1B00000A 		beq	.L613
 3102 287c A42593E5 		ldr	r2, [r3, #1444]
 3103 2880 000052E3 		cmp	r2, #0
 3104 2884 3000000A 		beq	.L614
 3105 2888 DC2593E5 		ldr	r2, [r3, #1500]
 3106 288c 000052E3 		cmp	r2, #0
 3107 2890 0500000A 		beq	.L615
 3108 2894 142693E5 		ldr	r2, [r3, #1556]
 3109 2898 000052E3 		cmp	r2, #0
 3110 289c 0F20A003 		moveq	r2, #15
 3111 28a0 0200000A 		beq	.L598
 3112 28a4 0600E0E3 		mvn	r0, #6
 3113 28a8 1EFF2FE1 		bx	lr
 3114              	.L615:
 3115 28ac 0E20A0E3 		mov	r2, #14
 3116              	.L598:
 3117 28b0 04E02DE5 		str	lr, [sp, #-4]!
 3118 28b4 02C0A0E3 		mov	ip, #2
 3119 28b8 0AE0A0E3 		mov	lr, #10
 3120 28bc 94109FE5 		ldr	r1, .L620+4
 3121 28c0 822162E0 		rsb	r2, r2, r2, lsl #3
 3122 28c4 8221A0E1 		lsl	r2, r2, #3
 3123 28c8 023083E0 		add	r3, r3, r2
 3124 28cc 022081E0 		add	r2, r1, r2
 3125 28d0 EC2380E5 		str	r2, [r0, #1004]
 3126 28d4 EAC3C0E5 		strb	ip, [r0, #1002]
 3127 28d8 CCE283E5 		str	lr, [r3, #716]
 3128 28dc 0000A0E3 		mov	r0, #0
 3129 28e0 04F09DE4 		ldr	pc, [sp], #4
 3130              	.L600:
 3131 28e4 0100E0E3 		mvn	r0, #1
 3132 28e8 1EFF2FE1 		bx	lr
 3133              	.L613:
 3134 28ec 0C20A0E3 		mov	r2, #12
 3135 28f0 EEFFFFEA 		b	.L598
ARM GAS  C:\Users\ldebo\AppData\Local\Temp\ccISOhOE.s 			page 56


 3136              	.L601:
 3137 28f4 0120A0E1 		mov	r2, r1
 3138 28f8 ECFFFFEA 		b	.L598
 3139              	.L603:
 3140 28fc 0220A0E3 		mov	r2, #2
 3141 2900 EAFFFFEA 		b	.L598
 3142              	.L604:
 3143 2904 0320A0E3 		mov	r2, #3
 3144 2908 E8FFFFEA 		b	.L598
 3145              	.L605:
 3146 290c 0420A0E3 		mov	r2, #4
 3147 2910 E6FFFFEA 		b	.L598
 3148              	.L606:
 3149 2914 0520A0E3 		mov	r2, #5
 3150 2918 E4FFFFEA 		b	.L598
 3151              	.L607:
 3152 291c 0620A0E3 		mov	r2, #6
 3153 2920 E2FFFFEA 		b	.L598
 3154              	.L608:
 3155 2924 0720A0E3 		mov	r2, #7
 3156 2928 E0FFFFEA 		b	.L598
 3157              	.L609:
 3158 292c 0820A0E3 		mov	r2, #8
 3159 2930 DEFFFFEA 		b	.L598
 3160              	.L610:
 3161 2934 0920A0E3 		mov	r2, #9
 3162 2938 DCFFFFEA 		b	.L598
 3163              	.L611:
 3164 293c 0A20A0E3 		mov	r2, #10
 3165 2940 DAFFFFEA 		b	.L598
 3166              	.L612:
 3167 2944 0B20A0E3 		mov	r2, #11
 3168 2948 D8FFFFEA 		b	.L598
 3169              	.L614:
 3170 294c 0D20A0E3 		mov	r2, #13
 3171 2950 D6FFFFEA 		b	.L598
 3172              	.L621:
 3173              		.align	2
 3174              	.L620:
 3175 2954 00000000 		.word	.LANCHOR1
 3176 2958 CC020000 		.word	.LANCHOR1+716
 3177              		.size	AddHubPayload, .-AddHubPayload
 3178              		.align	2
 3179              		.global	UsbAllocateDevice
 3180              		.syntax unified
 3181              		.arm
 3182              		.fpu vfp
 3183              		.type	UsbAllocateDevice, %function
 3184              	UsbAllocateDevice:
 3185              		@ args = 0, pretend = 0, frame = 0
 3186              		@ frame_needed = 0, uses_anonymous_args = 0
 3187 295c 000050E3 		cmp	r0, #0
 3188 2960 1F00000A 		beq	.L626
 3189 2964 80C09FE5 		ldr	ip, .L633
 3190 2968 0030A0E3 		mov	r3, #0
 3191 296c 0C208CE2 		add	r2, ip, #12
 3192 2970 020000EA 		b	.L625
ARM GAS  C:\Users\ldebo\AppData\Local\Temp\ccISOhOE.s 			page 57


 3193              	.L624:
 3194 2974 013083E2 		add	r3, r3, #1
 3195 2978 200053E3 		cmp	r3, #32
 3196 297c 1600000A 		beq	.L632
 3197              	.L625:
 3198 2980 EA13D2E5 		ldrb	r1, [r2, #1002]	@ zero_extendqisi2
 3199 2984 3F2E82E2 		add	r2, r2, #1008
 3200 2988 000051E3 		cmp	r1, #0
 3201 298c F8FFFF1A 		bne	.L624
 3202 2990 30402DE9 		push	{r4, r5, lr}
 3203 2994 0140A0E3 		mov	r4, #1
 3204 2998 0050E0E3 		mvn	r5, #0
 3205 299c 03E363E0 		rsb	lr, r3, r3, lsl #6
 3206 29a0 48209FE5 		ldr	r2, .L633+4
 3207 29a4 0EE2A0E1 		lsl	lr, lr, #4
 3208 29a8 0CC08CE2 		add	ip, ip, #12
 3209 29ac 0E2082E0 		add	r2, r2, lr
 3210 29b0 0EC08CE0 		add	ip, ip, lr
 3211 29b4 043083E0 		add	r3, r3, r4
 3212 29b8 00C080E5 		str	ip, [r0]
 3213 29bc 0100A0E1 		mov	r0, r1
 3214 29c0 5136C2E5 		strb	r3, [r2, #1617]
 3215 29c4 5616C2E5 		strb	r1, [r2, #1622]
 3216 29c8 4D16C2E5 		strb	r1, [r2, #1613]
 3217 29cc 381A82E5 		str	r1, [r2, #2616]
 3218 29d0 4C56C2E5 		strb	r5, [r2, #1612]
 3219 29d4 364AC2E5 		strb	r4, [r2, #2614]
 3220 29d8 3080BDE8 		pop	{r4, r5, pc}
 3221              	.L632:
 3222 29dc 0600E0E3 		mvn	r0, #6
 3223 29e0 1EFF2FE1 		bx	lr
 3224              	.L626:
 3225 29e4 0100E0E3 		mvn	r0, #1
 3226 29e8 1EFF2FE1 		bx	lr
 3227              	.L634:
 3228              		.align	2
 3229              	.L633:
 3230 29ec 40060000 		.word	.LANCHOR1+1600
 3231 29f0 00000000 		.word	.LANCHOR1
 3232              		.size	UsbAllocateDevice, .-UsbAllocateDevice
 3233              		.align	2
 3234              		.global	UsbDeallocateDevice
 3235              		.syntax unified
 3236              		.arm
 3237              		.fpu vfp
 3238              		.type	UsbDeallocateDevice, %function
 3239              	UsbDeallocateDevice:
 3240              		@ args = 0, pretend = 0, frame = 0
 3241              		@ frame_needed = 0, uses_anonymous_args = 0
 3242 29f4 0530D0E5 		ldrb	r3, [r0, #5]	@ zero_extendqisi2
 3243 29f8 70402DE9 		push	{r4, r5, r6, lr}
 3244 29fc 013043E2 		sub	r3, r3, #1
 3245 2a00 7320EFE6 		uxtb	r2, r3
 3246 2a04 1F0052E3 		cmp	r2, #31
 3247 2a08 0050A0E1 		mov	r5, r0
 3248 2a0c 0500008A 		bhi	.L637
 3249 2a10 3C219FE5 		ldr	r2, .L669
ARM GAS  C:\Users\ldebo\AppData\Local\Temp\ccISOhOE.s 			page 58


 3250 2a14 033363E0 		rsb	r3, r3, r3, lsl #6
 3251 2a18 033282E0 		add	r3, r2, r3, lsl #4
 3252 2a1c 362AD3E5 		ldrb	r2, [r3, #2614]	@ zero_extendqisi2
 3253 2a20 020052E3 		cmp	r2, #2
 3254 2a24 1B00000A 		beq	.L667
 3255              	.L637:
 3256 2a28 0030D5E5 		ldrb	r3, [r5]	@ zero_extendqisi2
 3257 2a2c 1F0053E3 		cmp	r3, #31
 3258 2a30 0600008A 		bhi	.L645
 3259 2a34 18219FE5 		ldr	r2, .L669
 3260 2a38 013043E2 		sub	r3, r3, #1
 3261 2a3c 033363E0 		rsb	r3, r3, r3, lsl #6
 3262 2a40 033282E0 		add	r3, r2, r3, lsl #4
 3263 2a44 362AD3E5 		ldrb	r2, [r3, #2614]	@ zero_extendqisi2
 3264 2a48 020052E3 		cmp	r2, #2
 3265 2a4c 0400000A 		beq	.L668
 3266              	.L645:
 3267 2a50 0500A0E1 		mov	r0, r5
 3268 2a54 7040BDE8 		pop	{r4, r5, r6, lr}
 3269 2a58 3F2EA0E3 		mov	r2, #1008
 3270 2a5c 0010A0E3 		mov	r1, #0
 3271 2a60 FEFFFFEA 		b	memset
 3272              	.L668:
 3273 2a64 383A93E5 		ldr	r3, [r3, #2616]
 3274 2a68 000053E3 		cmp	r3, #0
 3275 2a6c F7FFFF0A 		beq	.L645
 3276 2a70 0120D5E5 		ldrb	r2, [r5, #1]	@ zero_extendqisi2
 3277 2a74 001093E5 		ldr	r1, [r3]
 3278 2a78 010052E1 		cmp	r2, r1
 3279 2a7c F3FFFF2A 		bcs	.L645
 3280 2a80 023183E0 		add	r3, r3, r2, lsl #2
 3281 2a84 042093E5 		ldr	r2, [r3, #4]
 3282 2a88 020055E1 		cmp	r5, r2
 3283 2a8c 0020A003 		moveq	r2, #0
 3284 2a90 04208305 		streq	r2, [r3, #4]
 3285 2a94 EDFFFFEA 		b	.L645
 3286              	.L667:
 3287 2a98 383A93E5 		ldr	r3, [r3, #2616]
 3288 2a9c 000053E3 		cmp	r3, #0
 3289 2aa0 E0FFFF0A 		beq	.L637
 3290 2aa4 EC3390E5 		ldr	r3, [r0, #1004]
 3291 2aa8 002093E5 		ldr	r2, [r3]
 3292 2aac 000052E3 		cmp	r2, #0
 3293 2ab0 2300000A 		beq	.L639
 3294 2ab4 0040A0E3 		mov	r4, #0
 3295              	.L641:
 3296 2ab8 041183E0 		add	r1, r3, r4, lsl #2
 3297 2abc 040091E5 		ldr	r0, [r1, #4]
 3298 2ac0 014084E2 		add	r4, r4, #1
 3299 2ac4 000050E3 		cmp	r0, #0
 3300 2ac8 0200000A 		beq	.L640
 3301 2acc FEFFFFEB 		bl	UsbDeallocateDevice
 3302 2ad0 EC3395E5 		ldr	r3, [r5, #1004]
 3303 2ad4 002093E5 		ldr	r2, [r3]
 3304              	.L640:
 3305 2ad8 020054E1 		cmp	r4, r2
 3306 2adc F5FFFF3A 		bcc	.L641
ARM GAS  C:\Users\ldebo\AppData\Local\Temp\ccISOhOE.s 			page 59


 3307 2ae0 EA13D5E5 		ldrb	r1, [r5, #1002]	@ zero_extendqisi2
 3308 2ae4 020051E3 		cmp	r1, #2
 3309 2ae8 CEFFFF1A 		bne	.L637
 3310 2aec 000052E3 		cmp	r2, #0
 3311 2af0 0A00000A 		beq	.L642
 3312 2af4 0040A0E3 		mov	r4, #0
 3313              	.L644:
 3314 2af8 041183E0 		add	r1, r3, r4, lsl #2
 3315 2afc 040091E5 		ldr	r0, [r1, #4]
 3316 2b00 014084E2 		add	r4, r4, #1
 3317 2b04 000050E3 		cmp	r0, #0
 3318 2b08 0200000A 		beq	.L643
 3319 2b0c FEFFFFEB 		bl	UsbDeallocateDevice
 3320 2b10 EC3395E5 		ldr	r3, [r5, #1004]
 3321 2b14 002093E5 		ldr	r2, [r3]
 3322              	.L643:
 3323 2b18 020054E1 		cmp	r4, r2
 3324 2b1c F5FFFF3A 		bcc	.L644
 3325              	.L642:
 3326 2b20 0300A0E1 		mov	r0, r3
 3327 2b24 3820A0E3 		mov	r2, #56
 3328 2b28 0010A0E3 		mov	r1, #0
 3329 2b2c FEFFFFEB 		bl	memset
 3330 2b30 0020A0E3 		mov	r2, #0
 3331 2b34 0130A0E3 		mov	r3, #1
 3332 2b38 EC2385E5 		str	r2, [r5, #1004]
 3333 2b3c EA33C5E5 		strb	r3, [r5, #1002]
 3334 2b40 B8FFFFEA 		b	.L637
 3335              	.L639:
 3336 2b44 EA23D0E5 		ldrb	r2, [r0, #1002]	@ zero_extendqisi2
 3337 2b48 020052E3 		cmp	r2, #2
 3338 2b4c B5FFFF1A 		bne	.L637
 3339 2b50 F2FFFFEA 		b	.L642
 3340              	.L670:
 3341              		.align	2
 3342              	.L669:
 3343 2b54 00000000 		.word	.LANCHOR1
 3344              		.size	UsbDeallocateDevice, .-UsbDeallocateDevice
 3345              		.align	2
 3346              		.global	RemoveHubPayload
 3347              		.syntax unified
 3348              		.arm
 3349              		.fpu vfp
 3350              		.type	RemoveHubPayload, %function
 3351              	RemoveHubPayload:
 3352              		@ args = 0, pretend = 0, frame = 0
 3353              		@ frame_needed = 0, uses_anonymous_args = 0
 3354 2b58 F84F2DE9 		push	{r3, r4, r5, r6, r7, r8, r9, r10, fp, lr}
 3355 2b5c 006050E2 		subs	r6, r0, #0
 3356 2b60 F88FBD08 		popeq	{r3, r4, r5, r6, r7, r8, r9, r10, fp, pc}
 3357 2b64 EA33D6E5 		ldrb	r3, [r6, #1002]	@ zero_extendqisi2
 3358 2b68 020053E3 		cmp	r3, #2
 3359 2b6c F88FBD18 		popne	{r3, r4, r5, r6, r7, r8, r9, r10, fp, pc}
 3360 2b70 EC0396E5 		ldr	r0, [r6, #1004]
 3361 2b74 000050E3 		cmp	r0, #0
 3362 2b78 F88FBD08 		popeq	{r3, r4, r5, r6, r7, r8, r9, r10, fp, pc}
 3363 2b7c 002090E5 		ldr	r2, [r0]
ARM GAS  C:\Users\ldebo\AppData\Local\Temp\ccISOhOE.s 			page 60


 3364 2b80 000052E3 		cmp	r2, #0
 3365 2b84 3100000A 		beq	.L673
 3366 2b88 0050A0E3 		mov	r5, #0
 3367 2b8c 3F9EA0E3 		mov	r9, #1008
 3368 2b90 0570A0E1 		mov	r7, r5
 3369 2b94 38B0A0E3 		mov	fp, #56
 3370 2b98 88819FE5 		ldr	r8, .L721
 3371 2b9c 080000EA 		b	.L685
 3372              	.L684:
 3373 2ba0 0920A0E1 		mov	r2, r9
 3374 2ba4 0A00A0E1 		mov	r0, r10
 3375 2ba8 0710A0E1 		mov	r1, r7
 3376 2bac FEFFFFEB 		bl	memset
 3377 2bb0 EC0396E5 		ldr	r0, [r6, #1004]
 3378 2bb4 002090E5 		ldr	r2, [r0]
 3379              	.L674:
 3380 2bb8 015085E2 		add	r5, r5, #1
 3381 2bbc 020055E1 		cmp	r5, r2
 3382 2bc0 2200002A 		bcs	.L673
 3383              	.L685:
 3384 2bc4 053180E0 		add	r3, r0, r5, lsl #2
 3385 2bc8 04A093E5 		ldr	r10, [r3, #4]
 3386 2bcc 00005AE3 		cmp	r10, #0
 3387 2bd0 F8FFFF0A 		beq	.L674
 3388 2bd4 0520DAE5 		ldrb	r2, [r10, #5]	@ zero_extendqisi2
 3389 2bd8 012042E2 		sub	r2, r2, #1
 3390 2bdc 7210EFE6 		uxtb	r1, r2
 3391 2be0 1F0051E3 		cmp	r1, #31
 3392 2be4 0400008A 		bhi	.L676
 3393 2be8 022362E0 		rsb	r2, r2, r2, lsl #6
 3394 2bec 022288E0 		add	r2, r8, r2, lsl #4
 3395 2bf0 361AD2E5 		ldrb	r1, [r2, #2614]	@ zero_extendqisi2
 3396 2bf4 020051E3 		cmp	r1, #2
 3397 2bf8 1C00000A 		beq	.L720
 3398              	.L676:
 3399 2bfc 0020DAE5 		ldrb	r2, [r10]	@ zero_extendqisi2
 3400 2c00 1F0052E3 		cmp	r2, #31
 3401 2c04 E5FFFF8A 		bhi	.L684
 3402 2c08 012042E2 		sub	r2, r2, #1
 3403 2c0c 022362E0 		rsb	r2, r2, r2, lsl #6
 3404 2c10 022288E0 		add	r2, r8, r2, lsl #4
 3405 2c14 361AD2E5 		ldrb	r1, [r2, #2614]	@ zero_extendqisi2
 3406 2c18 020051E3 		cmp	r1, #2
 3407 2c1c DFFFFF1A 		bne	.L684
 3408 2c20 382A92E5 		ldr	r2, [r2, #2616]
 3409 2c24 000052E3 		cmp	r2, #0
 3410 2c28 DCFFFF0A 		beq	.L684
 3411 2c2c 0110DAE5 		ldrb	r1, [r10, #1]	@ zero_extendqisi2
 3412 2c30 000092E5 		ldr	r0, [r2]
 3413 2c34 000051E1 		cmp	r1, r0
 3414 2c38 D8FFFF2A 		bcs	.L684
 3415 2c3c 012182E0 		add	r2, r2, r1, lsl #2
 3416 2c40 041092E5 		ldr	r1, [r2, #4]
 3417 2c44 01005AE1 		cmp	r10, r1
 3418 2c48 04708205 		streq	r7, [r2, #4]
 3419 2c4c D3FFFFEA 		b	.L684
 3420              	.L673:
ARM GAS  C:\Users\ldebo\AppData\Local\Temp\ccISOhOE.s 			page 61


 3421 2c50 3820A0E3 		mov	r2, #56
 3422 2c54 0010A0E3 		mov	r1, #0
 3423 2c58 FEFFFFEB 		bl	memset
 3424 2c5c 0020A0E3 		mov	r2, #0
 3425 2c60 0130A0E3 		mov	r3, #1
 3426 2c64 EC2386E5 		str	r2, [r6, #1004]
 3427 2c68 EA33C6E5 		strb	r3, [r6, #1002]
 3428 2c6c F88FBDE8 		pop	{r3, r4, r5, r6, r7, r8, r9, r10, fp, pc}
 3429              	.L720:
 3430 2c70 382A92E5 		ldr	r2, [r2, #2616]
 3431 2c74 000052E3 		cmp	r2, #0
 3432 2c78 DFFFFF0A 		beq	.L676
 3433 2c7c EC239AE5 		ldr	r2, [r10, #1004]
 3434 2c80 001092E5 		ldr	r1, [r2]
 3435 2c84 000051E3 		cmp	r1, #0
 3436 2c88 2200000A 		beq	.L678
 3437 2c8c 0040A0E3 		mov	r4, #0
 3438              	.L680:
 3439 2c90 040182E0 		add	r0, r2, r4, lsl #2
 3440 2c94 040090E5 		ldr	r0, [r0, #4]
 3441 2c98 014084E2 		add	r4, r4, #1
 3442 2c9c 000050E3 		cmp	r0, #0
 3443 2ca0 0200000A 		beq	.L679
 3444 2ca4 FEFFFFEB 		bl	UsbDeallocateDevice
 3445 2ca8 EC239AE5 		ldr	r2, [r10, #1004]
 3446 2cac 001092E5 		ldr	r1, [r2]
 3447              	.L679:
 3448 2cb0 010054E1 		cmp	r4, r1
 3449 2cb4 F5FFFF3A 		bcc	.L680
 3450 2cb8 EA03DAE5 		ldrb	r0, [r10, #1002]	@ zero_extendqisi2
 3451 2cbc 020050E3 		cmp	r0, #2
 3452 2cc0 CDFFFF1A 		bne	.L676
 3453 2cc4 000051E3 		cmp	r1, #0
 3454 2cc8 0A00000A 		beq	.L681
 3455 2ccc 0040A0E3 		mov	r4, #0
 3456              	.L683:
 3457 2cd0 040182E0 		add	r0, r2, r4, lsl #2
 3458 2cd4 040090E5 		ldr	r0, [r0, #4]
 3459 2cd8 014084E2 		add	r4, r4, #1
 3460 2cdc 000050E3 		cmp	r0, #0
 3461 2ce0 0200000A 		beq	.L682
 3462 2ce4 FEFFFFEB 		bl	UsbDeallocateDevice
 3463 2ce8 EC239AE5 		ldr	r2, [r10, #1004]
 3464 2cec 001092E5 		ldr	r1, [r2]
 3465              	.L682:
 3466 2cf0 010054E1 		cmp	r4, r1
 3467 2cf4 F5FFFF3A 		bcc	.L683
 3468              	.L681:
 3469 2cf8 0200A0E1 		mov	r0, r2
 3470 2cfc 0710A0E1 		mov	r1, r7
 3471 2d00 0B20A0E1 		mov	r2, fp
 3472 2d04 FEFFFFEB 		bl	memset
 3473 2d08 0130A0E3 		mov	r3, #1
 3474 2d0c EC738AE5 		str	r7, [r10, #1004]
 3475 2d10 EA33CAE5 		strb	r3, [r10, #1002]
 3476 2d14 B8FFFFEA 		b	.L676
 3477              	.L678:
ARM GAS  C:\Users\ldebo\AppData\Local\Temp\ccISOhOE.s 			page 62


 3478 2d18 EA13DAE5 		ldrb	r1, [r10, #1002]	@ zero_extendqisi2
 3479 2d1c 020051E3 		cmp	r1, #2
 3480 2d20 B5FFFF1A 		bne	.L676
 3481 2d24 F3FFFFEA 		b	.L681
 3482              	.L722:
 3483              		.align	2
 3484              	.L721:
 3485 2d28 00000000 		.word	.LANCHOR1
 3486              		.size	RemoveHubPayload, .-RemoveHubPayload
 3487              		.align	2
 3488              		.global	HubPortReset
 3489              		.syntax unified
 3490              		.arm
 3491              		.fpu vfp
 3492              		.type	HubPortReset, %function
 3493              	HubPortReset:
 3494              		@ args = 0, pretend = 0, frame = 80
 3495              		@ frame_needed = 0, uses_anonymous_args = 0
 3496 2d2c F04F2DE9 		push	{r4, r5, r6, r7, r8, r9, r10, fp, lr}
 3497 2d30 0540D0E5 		ldrb	r4, [r0, #5]	@ zero_extendqisi2
 3498 2d34 64D04DE2 		sub	sp, sp, #100
 3499 2d38 013044E2 		sub	r3, r4, #1
 3500 2d3c 7320EFE6 		uxtb	r2, r3
 3501 2d40 1F0052E3 		cmp	r2, #31
 3502 2d44 0500008A 		bhi	.L772
 3503 2d48 24679FE5 		ldr	r6, .L880
 3504 2d4c 033363E0 		rsb	r3, r3, r3, lsl #6
 3505 2d50 033286E0 		add	r3, r6, r3, lsl #4
 3506 2d54 362AD3E5 		ldrb	r2, [r3, #2614]	@ zero_extendqisi2
 3507 2d58 020052E3 		cmp	r2, #2
 3508 2d5c 0300000A 		beq	.L873
 3509              	.L772:
 3510 2d60 03B0E0E3 		mvn	fp, #3
 3511              	.L813:
 3512 2d64 0B00A0E1 		mov	r0, fp
 3513 2d68 64D08DE2 		add	sp, sp, #100
 3514              		@ sp needed
 3515 2d6c F08FBDE8 		pop	{r4, r5, r6, r7, r8, r9, r10, fp, pc}
 3516              	.L873:
 3517 2d70 383A93E5 		ldr	r3, [r3, #2616]
 3518 2d74 000053E3 		cmp	r3, #0
 3519 2d78 F8FFFF0A 		beq	.L772
 3520 2d7c 043096E5 		ldr	r3, [r6, #4]
 3521 2d80 0150A0E1 		mov	r5, r1
 3522 2d84 000053E3 		cmp	r3, #0
 3523 2d88 0070A0E1 		mov	r7, r0
 3524 2d8c 0400000A 		beq	.L764
 3525 2d90 0410A0E1 		mov	r1, r4
 3526 2d94 0520A0E1 		mov	r2, r5
 3527 2d98 D8069FE5 		ldr	r0, .L880+4
 3528 2d9c 33FF2FE1 		blx	r3
 3529 2da0 0540D7E5 		ldrb	r4, [r7, #5]	@ zero_extendqisi2
 3530              	.L764:
 3531 2da4 013085E2 		add	r3, r5, #1
 3532 2da8 28308DE5 		str	r3, [sp, #40]
 3533 2dac 7330EFE6 		uxtb	r3, r3
 3534 2db0 000053E3 		cmp	r3, #0
ARM GAS  C:\Users\ldebo\AppData\Local\Temp\ccISOhOE.s 			page 63


 3535 2db4 2320A013 		movne	r2, #35
 3536 2db8 2020A003 		moveq	r2, #32
 3537 2dbc 24208DE5 		str	r2, [sp, #36]
 3538 2dc0 A320A013 		movne	r2, #163
 3539 2dc4 A020A003 		moveq	r2, #160
 3540 2dc8 2C208DE5 		str	r2, [sp, #44]
 3541 2dcc 0320A0E3 		mov	r2, #3
 3542 2dd0 1C308DE5 		str	r3, [sp, #28]
 3543 2dd4 7330FFE6 		uxth	r3, r3
 3544 2dd8 20208DE5 		str	r2, [sp, #32]
 3545 2ddc 14308DE5 		str	r3, [sp, #20]
 3546              	.L751:
 3547 2de0 0030A0E3 		mov	r3, #0
 3548 2de4 03C0A0E3 		mov	ip, #3
 3549 2de8 04A0A0E3 		mov	r10, #4
 3550 2dec 042097E5 		ldr	r2, [r7, #4]
 3551 2df0 2410DDE5 		ldrb	r1, [sp, #36]	@ zero_extendqisi2
 3552 2df4 30208DE5 		str	r2, [sp, #48]
 3553 2df8 4C308DE5 		str	r3, [sp, #76]
 3554 2dfc 4810CDE5 		strb	r1, [sp, #72]
 3555 2e00 3140CDE5 		strb	r4, [sp, #49]
 3556 2e04 0310A0E1 		mov	r1, r3
 3557 2e08 B431DDE1 		ldrh	r3, [sp, #20]
 3558 2e0c 30009DE5 		ldr	r0, [sp, #48]
 3559 2e10 48208DE2 		add	r2, sp, #72
 3560 2e14 BC34CDE1 		strh	r3, [sp, #76]	@ movhi
 3561 2e18 49C0CDE5 		strb	ip, [sp, #73]
 3562 2e1c BAA4CDE1 		strh	r10, [sp, #74]	@ movhi
 3563 2e20 48FBFFEB 		bl	HCDSubmitControlMessage.constprop.6
 3564 2e24 00B050E2 		subs	fp, r0, #0
 3565 2e28 1100000A 		beq	.L728
 3566 2e2c 005096E5 		ldr	r5, [r6]
 3567 2e30 000055E3 		cmp	r5, #0
 3568 2e34 CAFFFF0A 		beq	.L813
 3569 2e38 0100A0E3 		mov	r0, #1
 3570 2e3c 0A30A0E1 		mov	r3, r10
 3571 2e40 00008DE5 		str	r0, [sp]
 3572 2e44 1C209DE5 		ldr	r2, [sp, #28]
 3573 2e48 0410A0E1 		mov	r1, r4
 3574 2e4c 28069FE5 		ldr	r0, .L880+8
 3575 2e50 35FF2FE1 		blx	r5
 3576 2e54 003096E5 		ldr	r3, [r6]
 3577 2e58 000053E3 		cmp	r3, #0
 3578 2e5c C0FFFF0A 		beq	.L813
 3579 2e60 28209DE5 		ldr	r2, [sp, #40]
 3580 2e64 0510D7E5 		ldrb	r1, [r7, #5]	@ zero_extendqisi2
 3581 2e68 10069FE5 		ldr	r0, .L880+12
 3582 2e6c 33FF2FE1 		blx	r3
 3583 2e70 BBFFFFEA 		b	.L813
 3584              	.L728:
 3585 2e74 0B80A0E1 		mov	r8, fp
 3586 2e78 0B40A0E1 		mov	r4, fp
 3587 2e7c 2CB09DE5 		ldr	fp, [sp, #44]
 3588 2e80 18A08DE5 		str	r10, [sp, #24]
 3589 2e84 50908DE2 		add	r9, sp, #80
 3590              	.L740:
 3591 2e88 F4059FE5 		ldr	r0, .L880+16
ARM GAS  C:\Users\ldebo\AppData\Local\Temp\ccISOhOE.s 			page 64


 3592 2e8c 0010A0E3 		mov	r1, #0
 3593 2e90 FEFFFFEB 		bl	timer_wait
 3594 2e94 2434A0E1 		lsr	r3, r4, #8
 3595 2e98 7330EFE6 		uxtb	r3, r3
 3596 2e9c 043083E3 		orr	r3, r3, #4
 3597 2ea0 3C408DE5 		str	r4, [sp, #60]
 3598 2ea4 3D30CDE5 		strb	r3, [sp, #61]
 3599 2ea8 44308DE2 		add	r3, sp, #68
 3600 2eac 042097E5 		ldr	r2, [r7, #4]
 3601 2eb0 0450D7E5 		ldrb	r5, [r7, #4]	@ zero_extendqisi2
 3602 2eb4 05A0D7E5 		ldrb	r10, [r7, #5]	@ zero_extendqisi2
 3603 2eb8 08308DE5 		str	r3, [sp, #8]
 3604 2ebc 0A30A0E3 		mov	r3, #10
 3605 2ec0 B4E1DDE1 		ldrh	lr, [sp, #20]
 3606 2ec4 38208DE5 		str	r2, [sp, #56]
 3607 2ec8 25C1A0E1 		lsr	ip, r5, #2
 3608 2ecc 39A0CDE5 		strb	r10, [sp, #57]
 3609 2ed0 B4E5CDE1 		strh	lr, [sp, #84]	@ movhi
 3610 2ed4 B8E1DDE1 		ldrh	lr, [sp, #24]
 3611 2ed8 04308DE5 		str	r3, [sp, #4]
 3612 2edc 00908DE5 		str	r9, [sp]
 3613 2ee0 03C00CE2 		and	ip, ip, #3
 3614 2ee4 004089E5 		str	r4, [r9]
 3615 2ee8 3C109DE5 		ldr	r1, [sp, #60]
 3616 2eec 38009DE5 		ldr	r0, [sp, #56]
 3617 2ef0 0430A0E3 		mov	r3, #4
 3618 2ef4 58208DE2 		add	r2, sp, #88
 3619 2ef8 44408DE5 		str	r4, [sp, #68]
 3620 2efc 50B0CDE5 		strb	fp, [sp, #80]
 3621 2f00 B6E5CDE1 		strh	lr, [sp, #86]	@ movhi
 3622 2f04 10C08DE5 		str	ip, [sp, #16]
 3623 2f08 FEFFFFEB 		bl	HCDSubmitControlMessage
 3624 2f0c 000050E3 		cmp	r0, #0
 3625 2f10 035005E2 		and	r5, r5, #3
 3626 2f14 2500000A 		beq	.L729
 3627 2f18 004096E5 		ldr	r4, [r6]
 3628 2f1c 00B0A0E1 		mov	fp, r0
 3629 2f20 000054E3 		cmp	r4, #0
 3630 2f24 8EFFFF0A 		beq	.L813
 3631 2f28 10C09DE5 		ldr	ip, [sp, #16]
 3632 2f2c 0030A0E1 		mov	r3, r0
 3633 2f30 04508DE5 		str	r5, [sp, #4]
 3634 2f34 00C08DE5 		str	ip, [sp]
 3635 2f38 1C209DE5 		ldr	r2, [sp, #28]
 3636 2f3c 0A10A0E1 		mov	r1, r10
 3637 2f40 40059FE5 		ldr	r0, .L880+20
 3638 2f44 34FF2FE1 		blx	r4
 3639 2f48 004096E5 		ldr	r4, [r6]
 3640              	.L731:
 3641 2f4c 000054E3 		cmp	r4, #0
 3642 2f50 83FFFF0A 		beq	.L813
 3643 2f54 0A30D7E5 		ldrb	r3, [r7, #10]	@ zero_extendqisi2
 3644 2f58 000053E3 		cmp	r3, #0
 3645 2f5c C900000A 		beq	.L773
 3646 2f60 010053E3 		cmp	r3, #1
 3647 2f64 0001000A 		beq	.L774
 3648 2f68 1C259FE5 		ldr	r2, .L880+24
ARM GAS  C:\Users\ldebo\AppData\Local\Temp\ccISOhOE.s 			page 65


 3649 2f6c 020057E1 		cmp	r7, r2
 3650 2f70 2301000A 		beq	.L775
 3651 2f74 DC23D7E5 		ldrb	r2, [r7, #988]	@ zero_extendqisi2
 3652 2f78 090052E3 		cmp	r2, #9
 3653 2f7c FC00000A 		beq	.L736
 3654 2f80 FF0052E3 		cmp	r2, #255
 3655 2f84 D500000A 		beq	.L737
 3656 2f88 000052E3 		cmp	r2, #0
 3657 2f8c FC149F15 		ldrne	r1, .L880+28
 3658 2f90 BD00001A 		bne	.L735
 3659 2f94 040053E3 		cmp	r3, #4
 3660 2f98 F4149F15 		ldrne	r1, .L880+32
 3661 2f9c BA00001A 		bne	.L735
 3662              	.L768:
 3663 2fa0 0700A0E1 		mov	r0, r7
 3664 2fa4 15F4FFEB 		bl	UsbGetDescription.part.2
 3665 2fa8 0010A0E1 		mov	r1, r0
 3666 2fac B60000EA 		b	.L735
 3667              	.L729:
 3668 2fb0 44309DE5 		ldr	r3, [sp, #68]
 3669 2fb4 018088E2 		add	r8, r8, #1
 3670 2fb8 030053E3 		cmp	r3, #3
 3671 2fbc 0900008A 		bhi	.L732
 3672 2fc0 003096E5 		ldr	r3, [r6]
 3673 2fc4 000053E3 		cmp	r3, #0
 3674 2fc8 64FFFF0A 		beq	.L772
 3675 2fcc 1C209DE5 		ldr	r2, [sp, #28]
 3676 2fd0 0A10A0E1 		mov	r1, r10
 3677 2fd4 BC049FE5 		ldr	r0, .L880+36
 3678 2fd8 33FF2FE1 		blx	r3
 3679 2fdc 03B0E0E3 		mvn	fp, #3
 3680 2fe0 004096E5 		ldr	r4, [r6]
 3681 2fe4 D8FFFFEA 		b	.L731
 3682              	.L732:
 3683 2fe8 58509DE5 		ldr	r5, [sp, #88]
 3684 2fec 010615E3 		tst	r5, #1048576
 3685 2ff0 2200001A 		bne	.L861
 3686 2ff4 020015E3 		tst	r5, #2
 3687 2ff8 2000001A 		bne	.L861
 3688 2ffc 0A0058E3 		cmp	r8, #10
 3689 3000 A0FFFF1A 		bne	.L740
 3690              	.L743:
 3691 3004 20309DE5 		ldr	r3, [sp, #32]
 3692 3008 013053E2 		subs	r3, r3, #1
 3693 300c 20308DE5 		str	r3, [sp, #32]
 3694 3010 0540D715 		ldrbne	r4, [r7, #5]	@ zero_extendqisi2
 3695 3014 71FFFF1A 		bne	.L751
 3696              	.L874:
 3697 3018 004096E5 		ldr	r4, [r6]
 3698 301c 000054E3 		cmp	r4, #0
 3699 3020 4EFFFF0A 		beq	.L772
 3700 3024 0A30D7E5 		ldrb	r3, [r7, #10]	@ zero_extendqisi2
 3701 3028 000053E3 		cmp	r3, #0
 3702 302c 8D00000A 		beq	.L793
 3703 3030 010053E3 		cmp	r3, #1
 3704 3034 BD00000A 		beq	.L794
 3705 3038 4C249FE5 		ldr	r2, .L880+24
ARM GAS  C:\Users\ldebo\AppData\Local\Temp\ccISOhOE.s 			page 66


 3706 303c 020057E1 		cmp	r7, r2
 3707 3040 ED00000A 		beq	.L795
 3708 3044 DC23D7E5 		ldrb	r2, [r7, #988]	@ zero_extendqisi2
 3709 3048 090052E3 		cmp	r2, #9
 3710 304c B900000A 		beq	.L753
 3711 3050 FF0052E3 		cmp	r2, #255
 3712 3054 9900000A 		beq	.L754
 3713 3058 000052E3 		cmp	r2, #0
 3714 305c 2C149F15 		ldrne	r1, .L880+28
 3715 3060 8100001A 		bne	.L752
 3716 3064 040053E3 		cmp	r3, #4
 3717 3068 24149F15 		ldrne	r1, .L880+32
 3718 306c 7E00001A 		bne	.L752
 3719              	.L770:
 3720 3070 0700A0E1 		mov	r0, r7
 3721 3074 E1F3FFEB 		bl	UsbGetDescription.part.2
 3722 3078 0010A0E1 		mov	r1, r0
 3723 307c 7A0000EA 		b	.L752
 3724              	.L861:
 3725 3080 0A0058E3 		cmp	r8, #10
 3726 3084 00B0A0E1 		mov	fp, r0
 3727 3088 DDFFFF0A 		beq	.L743
 3728 308c 048096E5 		ldr	r8, [r6, #4]
 3729 3090 000058E3 		cmp	r8, #0
 3730 3094 2548A001 		lsreq	r4, r5, #16
 3731 3098 1500000A 		beq	.L744
 3732 309c 0A30D7E5 		ldrb	r3, [r7, #10]	@ zero_extendqisi2
 3733 30a0 000053E3 		cmp	r3, #0
 3734 30a4 4F00000A 		beq	.L783
 3735 30a8 010053E3 		cmp	r3, #1
 3736 30ac 4F00000A 		beq	.L784
 3737 30b0 D4239FE5 		ldr	r2, .L880+24
 3738 30b4 020057E1 		cmp	r7, r2
 3739 30b8 9A00000A 		beq	.L785
 3740 30bc DC23D7E5 		ldrb	r2, [r7, #988]	@ zero_extendqisi2
 3741 30c0 090052E3 		cmp	r2, #9
 3742 30c4 5600000A 		beq	.L746
 3743 30c8 FF0052E3 		cmp	r2, #255
 3744 30cc 4900000A 		beq	.L747
 3745 30d0 000052E3 		cmp	r2, #0
 3746 30d4 B4139F15 		ldrne	r1, .L880+28
 3747 30d8 5E00000A 		beq	.L875
 3748              	.L745:
 3749 30dc 2548A0E1 		lsr	r4, r5, #16
 3750 30e0 00408DE5 		str	r4, [sp]
 3751 30e4 7530FFE6 		uxth	r3, r5
 3752 30e8 28209DE5 		ldr	r2, [sp, #40]
 3753 30ec A8039FE5 		ldr	r0, .L880+40
 3754 30f0 38FF2FE1 		blx	r8
 3755              	.L744:
 3756 30f4 014014E2 		ands	r4, r4, #1
 3757 30f8 18FFFF1A 		bne	.L772
 3758 30fc 010015E3 		tst	r5, #1
 3759 3100 16FFFF0A 		beq	.L772
 3760 3104 020015E3 		tst	r5, #2
 3761 3108 BDFFFF0A 		beq	.L743
 3762 310c 0130A0E3 		mov	r3, #1
ARM GAS  C:\Users\ldebo\AppData\Local\Temp\ccISOhOE.s 			page 67


 3763 3110 1450A0E3 		mov	r5, #20
 3764 3114 2410DDE5 		ldrb	r1, [sp, #36]	@ zero_extendqisi2
 3765 3118 042097E5 		ldr	r2, [r7, #4]
 3766 311c 0580D7E5 		ldrb	r8, [r7, #5]	@ zero_extendqisi2
 3767 3120 5810CDE5 		strb	r1, [sp, #88]
 3768 3124 B411DDE1 		ldrh	r1, [sp, #20]
 3769 3128 40208DE5 		str	r2, [sp, #64]
 3770 312c 4180CDE5 		strb	r8, [sp, #65]
 3771 3130 5C408DE5 		str	r4, [sp, #92]
 3772 3134 58208DE2 		add	r2, sp, #88
 3773 3138 BC15CDE1 		strh	r1, [sp, #92]	@ movhi
 3774 313c 40009DE5 		ldr	r0, [sp, #64]
 3775 3140 0410A0E1 		mov	r1, r4
 3776 3144 44408DE5 		str	r4, [sp, #68]
 3777 3148 5930CDE5 		strb	r3, [sp, #89]
 3778 314c BA55CDE1 		strh	r5, [sp, #90]	@ movhi
 3779 3150 7CFAFFEB 		bl	HCDSubmitControlMessage.constprop.6
 3780 3154 000050E3 		cmp	r0, #0
 3781 3158 01FFFF0A 		beq	.L813
 3782 315c 009096E5 		ldr	r9, [r6]
 3783 3160 000059E3 		cmp	r9, #0
 3784 3164 FEFEFF0A 		beq	.L813
 3785 3168 00408DE5 		str	r4, [sp]
 3786 316c 0530A0E1 		mov	r3, r5
 3787 3170 1C209DE5 		ldr	r2, [sp, #28]
 3788 3174 0810A0E1 		mov	r1, r8
 3789 3178 FC029FE5 		ldr	r0, .L880+8
 3790 317c 39FF2FE1 		blx	r9
 3791 3180 004096E5 		ldr	r4, [r6]
 3792 3184 000054E3 		cmp	r4, #0
 3793 3188 F5FEFF0A 		beq	.L813
 3794 318c 0A30D7E5 		ldrb	r3, [r7, #10]	@ zero_extendqisi2
 3795 3190 000053E3 		cmp	r3, #0
 3796 3194 4200000A 		beq	.L803
 3797 3198 010053E3 		cmp	r3, #1
 3798 319c 8100000A 		beq	.L804
 3799 31a0 E4229FE5 		ldr	r2, .L880+24
 3800 31a4 020057E1 		cmp	r7, r2
 3801 31a8 9700000A 		beq	.L805
 3802 31ac DC23D7E5 		ldrb	r2, [r7, #988]	@ zero_extendqisi2
 3803 31b0 090052E3 		cmp	r2, #9
 3804 31b4 8100000A 		beq	.L759
 3805 31b8 FF0052E3 		cmp	r2, #255
 3806 31bc 4F00000A 		beq	.L760
 3807 31c0 000052E3 		cmp	r2, #0
 3808 31c4 C4129F15 		ldrne	r1, .L880+28
 3809 31c8 3600001A 		bne	.L758
 3810 31cc 040053E3 		cmp	r3, #4
 3811 31d0 BC129F15 		ldrne	r1, .L880+32
 3812 31d4 3300001A 		bne	.L758
 3813              	.L771:
 3814 31d8 0700A0E1 		mov	r0, r7
 3815 31dc 87F3FFEB 		bl	UsbGetDescription.part.2
 3816 31e0 0010A0E1 		mov	r1, r0
 3817 31e4 2F0000EA 		b	.L758
 3818              	.L783:
 3819 31e8 B0129FE5 		ldr	r1, .L880+44
ARM GAS  C:\Users\ldebo\AppData\Local\Temp\ccISOhOE.s 			page 68


 3820 31ec BAFFFFEA 		b	.L745
 3821              	.L784:
 3822 31f0 AC129FE5 		ldr	r1, .L880+48
 3823 31f4 B8FFFFEA 		b	.L745
 3824              	.L747:
 3825 31f8 A8229FE5 		ldr	r2, .L880+52
 3826 31fc E01397E5 		ldr	r1, [r7, #992]
 3827 3200 020051E1 		cmp	r1, r2
 3828 3204 6B00000A 		beq	.L876
 3829 3208 040053E3 		cmp	r3, #4
 3830 320c 98129F15 		ldrne	r1, .L880+56
 3831 3210 B1FFFF1A 		bne	.L745
 3832              	.L769:
 3833 3214 0700A0E1 		mov	r0, r7
 3834 3218 78F3FFEB 		bl	UsbGetDescription.part.2
 3835 321c 0010A0E1 		mov	r1, r0
 3836 3220 ADFFFFEA 		b	.L745
 3837              	.L746:
 3838 3224 F63F87E2 		add	r3, r7, #984
 3839 3228 B230D3E1 		ldrh	r3, [r3, #2]
 3840 322c 210E53E3 		cmp	r3, #528
 3841 3230 5E00000A 		beq	.L787
 3842 3234 020C53E3 		cmp	r3, #512
 3843 3238 6D00000A 		beq	.L788
 3844 323c 110E53E3 		cmp	r3, #272
 3845 3240 3600000A 		beq	.L789
 3846 3244 64129FE5 		ldr	r1, .L880+60
 3847 3248 010C53E3 		cmp	r3, #256
 3848 324c 102041E2 		sub	r2, r1, #16
 3849 3250 0210A001 		moveq	r1, r2
 3850 3254 A0FFFFEA 		b	.L745
 3851              	.L875:
 3852 3258 040053E3 		cmp	r3, #4
 3853 325c 30129F15 		ldrne	r1, .L880+32
 3854 3260 9DFFFF1A 		bne	.L745
 3855 3264 EAFFFFEA 		b	.L769
 3856              	.L793:
 3857 3268 30129FE5 		ldr	r1, .L880+44
 3858              	.L752:
 3859 326c 03B0E0E3 		mvn	fp, #3
 3860 3270 28209DE5 		ldr	r2, [sp, #40]
 3861 3274 38029FE5 		ldr	r0, .L880+64
 3862 3278 34FF2FE1 		blx	r4
 3863 327c 0B00A0E1 		mov	r0, fp
 3864 3280 64D08DE2 		add	sp, sp, #100
 3865              		@ sp needed
 3866 3284 F08FBDE8 		pop	{r4, r5, r6, r7, r8, r9, r10, fp, pc}
 3867              	.L773:
 3868 3288 10129FE5 		ldr	r1, .L880+44
 3869              	.L735:
 3870 328c 28209DE5 		ldr	r2, [sp, #40]
 3871 3290 20029FE5 		ldr	r0, .L880+68
 3872 3294 34FF2FE1 		blx	r4
 3873 3298 0B00A0E1 		mov	r0, fp
 3874 329c 64D08DE2 		add	sp, sp, #100
 3875              		@ sp needed
 3876 32a0 F08FBDE8 		pop	{r4, r5, r6, r7, r8, r9, r10, fp, pc}
ARM GAS  C:\Users\ldebo\AppData\Local\Temp\ccISOhOE.s 			page 69


 3877              	.L803:
 3878 32a4 F4119FE5 		ldr	r1, .L880+44
 3879              	.L758:
 3880 32a8 28209DE5 		ldr	r2, [sp, #40]
 3881 32ac 08029FE5 		ldr	r0, .L880+72
 3882 32b0 34FF2FE1 		blx	r4
 3883 32b4 0B00A0E1 		mov	r0, fp
 3884 32b8 64D08DE2 		add	sp, sp, #100
 3885              		@ sp needed
 3886 32bc F08FBDE8 		pop	{r4, r5, r6, r7, r8, r9, r10, fp, pc}
 3887              	.L754:
 3888 32c0 E0219FE5 		ldr	r2, .L880+52
 3889 32c4 E01397E5 		ldr	r1, [r7, #992]
 3890 32c8 020051E1 		cmp	r1, r2
 3891 32cc 5000000A 		beq	.L877
 3892 32d0 040053E3 		cmp	r3, #4
 3893 32d4 D0119F15 		ldrne	r1, .L880+56
 3894 32d8 64FFFF0A 		beq	.L770
 3895 32dc E2FFFFEA 		b	.L752
 3896              	.L737:
 3897 32e0 C0219FE5 		ldr	r2, .L880+52
 3898 32e4 E01397E5 		ldr	r1, [r7, #992]
 3899 32e8 020051E1 		cmp	r1, r2
 3900 32ec 5000000A 		beq	.L878
 3901 32f0 040053E3 		cmp	r3, #4
 3902 32f4 B0119F15 		ldrne	r1, .L880+56
 3903 32f8 28FFFF0A 		beq	.L768
 3904 32fc E2FFFFEA 		b	.L735
 3905              	.L760:
 3906 3300 A0219FE5 		ldr	r2, .L880+52
 3907 3304 E01397E5 		ldr	r1, [r7, #992]
 3908 3308 020051E1 		cmp	r1, r2
 3909 330c 4C00000A 		beq	.L879
 3910 3310 040053E3 		cmp	r3, #4
 3911 3314 90119F15 		ldrne	r1, .L880+56
 3912 3318 AEFFFF0A 		beq	.L771
 3913 331c E1FFFFEA 		b	.L758
 3914              	.L789:
 3915 3320 98119FE5 		ldr	r1, .L880+76
 3916 3324 6CFFFFEA 		b	.L745
 3917              	.L785:
 3918 3328 94119FE5 		ldr	r1, .L880+80
 3919 332c 6AFFFFEA 		b	.L745
 3920              	.L794:
 3921 3330 6C119FE5 		ldr	r1, .L880+48
 3922 3334 CCFFFFEA 		b	.L752
 3923              	.L753:
 3924 3338 F63F87E2 		add	r3, r7, #984
 3925 333c B230D3E1 		ldrh	r3, [r3, #2]
 3926 3340 210E53E3 		cmp	r3, #528
 3927 3344 3400000A 		beq	.L797
 3928 3348 020C53E3 		cmp	r3, #512
 3929 334c 3600000A 		beq	.L798
 3930 3350 110E53E3 		cmp	r3, #272
 3931 3354 3200000A 		beq	.L799
 3932 3358 50119FE5 		ldr	r1, .L880+60
 3933 335c 010C53E3 		cmp	r3, #256
ARM GAS  C:\Users\ldebo\AppData\Local\Temp\ccISOhOE.s 			page 70


 3934 3360 102041E2 		sub	r2, r1, #16
 3935 3364 0210A001 		moveq	r1, r2
 3936 3368 BFFFFFEA 		b	.L752
 3937              	.L774:
 3938 336c 30119FE5 		ldr	r1, .L880+48
 3939 3370 C5FFFFEA 		b	.L735
 3940              	.L736:
 3941 3374 F63F87E2 		add	r3, r7, #984
 3942 3378 B230D3E1 		ldrh	r3, [r3, #2]
 3943 337c 210E53E3 		cmp	r3, #528
 3944 3380 3300000A 		beq	.L777
 3945 3384 020C53E3 		cmp	r3, #512
 3946 3388 2F00000A 		beq	.L778
 3947 338c 110E53E3 		cmp	r3, #272
 3948 3390 3100000A 		beq	.L779
 3949 3394 14119FE5 		ldr	r1, .L880+60
 3950 3398 010C53E3 		cmp	r3, #256
 3951 339c 102041E2 		sub	r2, r1, #16
 3952 33a0 0210A001 		moveq	r1, r2
 3953 33a4 B8FFFFEA 		b	.L735
 3954              	.L804:
 3955 33a8 F4109FE5 		ldr	r1, .L880+48
 3956 33ac BDFFFFEA 		b	.L758
 3957              	.L787:
 3958 33b0 10119FE5 		ldr	r1, .L880+84
 3959 33b4 48FFFFEA 		b	.L745
 3960              	.L876:
 3961 33b8 0C119FE5 		ldr	r1, .L880+88
 3962 33bc 46FFFFEA 		b	.L745
 3963              	.L759:
 3964 33c0 F63F87E2 		add	r3, r7, #984
 3965 33c4 B230D3E1 		ldrh	r3, [r3, #2]
 3966 33c8 210E53E3 		cmp	r3, #528
 3967 33cc 1A00000A 		beq	.L807
 3968 33d0 020C53E3 		cmp	r3, #512
 3969 33d4 2400000A 		beq	.L808
 3970 33d8 110E53E3 		cmp	r3, #272
 3971 33dc 2000000A 		beq	.L809
 3972 33e0 C8109FE5 		ldr	r1, .L880+60
 3973 33e4 010C53E3 		cmp	r3, #256
 3974 33e8 102041E2 		sub	r2, r1, #16
 3975 33ec 0210A001 		moveq	r1, r2
 3976 33f0 ACFFFFEA 		b	.L758
 3977              	.L788:
 3978 33f4 D4109FE5 		ldr	r1, .L880+92
 3979 33f8 37FFFFEA 		b	.L745
 3980              	.L795:
 3981 33fc C0109FE5 		ldr	r1, .L880+80
 3982 3400 99FFFFEA 		b	.L752
 3983              	.L775:
 3984 3404 B8109FE5 		ldr	r1, .L880+80
 3985 3408 9FFFFFEA 		b	.L735
 3986              	.L805:
 3987 340c B0109FE5 		ldr	r1, .L880+80
 3988 3410 A4FFFFEA 		b	.L758
 3989              	.L877:
 3990 3414 B0109FE5 		ldr	r1, .L880+88
ARM GAS  C:\Users\ldebo\AppData\Local\Temp\ccISOhOE.s 			page 71


 3991 3418 93FFFFEA 		b	.L752
 3992              	.L797:
 3993 341c A4109FE5 		ldr	r1, .L880+84
 3994 3420 91FFFFEA 		b	.L752
 3995              	.L799:
 3996 3424 94109FE5 		ldr	r1, .L880+76
 3997 3428 8FFFFFEA 		b	.L752
 3998              	.L798:
 3999 342c 9C109FE5 		ldr	r1, .L880+92
 4000 3430 8DFFFFEA 		b	.L752
 4001              	.L878:
 4002 3434 90109FE5 		ldr	r1, .L880+88
 4003 3438 93FFFFEA 		b	.L735
 4004              	.L807:
 4005 343c 84109FE5 		ldr	r1, .L880+84
 4006 3440 98FFFFEA 		b	.L758
 4007              	.L879:
 4008 3444 80109FE5 		ldr	r1, .L880+88
 4009 3448 96FFFFEA 		b	.L758
 4010              	.L778:
 4011 344c 7C109FE5 		ldr	r1, .L880+92
 4012 3450 8DFFFFEA 		b	.L735
 4013              	.L777:
 4014 3454 6C109FE5 		ldr	r1, .L880+84
 4015 3458 8BFFFFEA 		b	.L735
 4016              	.L779:
 4017 345c 5C109FE5 		ldr	r1, .L880+76
 4018 3460 89FFFFEA 		b	.L735
 4019              	.L809:
 4020 3464 54109FE5 		ldr	r1, .L880+76
 4021 3468 8EFFFFEA 		b	.L758
 4022              	.L808:
 4023 346c 5C109FE5 		ldr	r1, .L880+92
 4024 3470 8CFFFFEA 		b	.L758
 4025              	.L881:
 4026              		.align	2
 4027              	.L880:
 4028 3474 00000000 		.word	.LANCHOR1
 4029 3478 6C070000 		.word	.LC71
 4030 347c 04060000 		.word	.LC60
 4031 3480 90070000 		.word	.LC72
 4032 3484 204E0000 		.word	20000
 4033 3488 68050000 		.word	.LC58
 4034 348c 4C060000 		.word	.LANCHOR1+1612
 4035 3490 D4010000 		.word	.LANCHOR0+468
 4036 3494 B0020000 		.word	.LANCHOR0+688
 4037 3498 D0050000 		.word	.LC59
 4038 349c EC070000 		.word	.LC74
 4039 34a0 5C020000 		.word	.LANCHOR0+604
 4040 34a4 74020000 		.word	.LANCHOR0+628
 4041 34a8 240400EC 		.word	-335543260
 4042 34ac C0010000 		.word	.LANCHOR0+448
 4043 34b0 E4000000 		.word	.LANCHOR0+228
 4044 34b4 0C080000 		.word	.LC75
 4045 34b8 B8070000 		.word	.LC73
 4046 34bc 54080000 		.word	.LC76
 4047 34c0 C4000000 		.word	.LANCHOR0+196
ARM GAS  C:\Users\ldebo\AppData\Local\Temp\ccISOhOE.s 			page 72


 4048 34c4 90020000 		.word	.LANCHOR0+656
 4049 34c8 A4000000 		.word	.LANCHOR0+164
 4050 34cc A0020000 		.word	.LANCHOR0+672
 4051 34d0 B4000000 		.word	.LANCHOR0+180
 4052              		.size	HubPortReset, .-HubPortReset
 4053              		.align	2
 4054              		.global	EnumerateHID
 4055              		.syntax unified
 4056              		.arm
 4057              		.fpu vfp
 4058              		.type	EnumerateHID, %function
 4059              	EnumerateHID:
 4060              		@ args = 0, pretend = 0, frame = 2088
 4061              		@ frame_needed = 0, uses_anonymous_args = 0
 4062 34d4 F04F2DE9 		push	{r4, r5, r6, r7, r8, r9, r10, fp, lr}
 4063 34d8 8ADE4DE2 		sub	sp, sp, #2208
 4064 34dc EC3391E5 		ldr	r3, [r1, #1004]
 4065 34e0 04D04DE2 		sub	sp, sp, #4
 4066 34e4 84008DE5 		str	r0, [sp, #132]
 4067 34e8 2820D3E5 		ldrb	r2, [r3, #40]	@ zero_extendqisi2
 4068 34ec 000052E3 		cmp	r2, #0
 4069 34f0 0701000A 		beq	.L922
 4070 34f4 8520DDE5 		ldrb	r2, [sp, #133]	@ zero_extendqisi2
 4071 34f8 24649FE5 		ldr	r6, .L928
 4072 34fc 012042E2 		sub	r2, r2, #1
 4073 3500 01A0A0E1 		mov	r10, r1
 4074 3504 021362E0 		rsb	r1, r2, r2, lsl #6
 4075 3508 0112A0E1 		lsl	r1, r1, #4
 4076 350c 7220EFE6 		uxtb	r2, r2
 4077 3510 650E86E2 		add	r0, r6, #1616
 4078 3514 019086E0 		add	r9, r6, r1
 4079 3518 7C208DE5 		str	r2, [sp, #124]
 4080 351c 002081E0 		add	r2, r1, r0
 4081 3520 0040A0E3 		mov	r4, #0
 4082 3524 80208DE5 		str	r2, [sp, #128]
 4083 3528 A37E89E2 		add	r7, r9, #2608
 4084 352c 160000EA 		b	.L896
 4085              	.L888:
 4086 3530 005096E5 		ldr	r5, [r6]
 4087 3534 000055E3 		cmp	r5, #0
 4088 3538 0E00000A 		beq	.L895
 4089 353c 00008DE5 		str	r0, [sp]
 4090 3540 0830A0E1 		mov	r3, r8
 4091 3544 0020A0E3 		mov	r2, #0
 4092 3548 2210A0E3 		mov	r1, #34
 4093 354c D4039FE5 		ldr	r0, .L928+4
 4094 3550 35FF2FE1 		blx	r5
 4095 3554 005096E5 		ldr	r5, [r6]
 4096 3558 000055E3 		cmp	r5, #0
 4097 355c 0500000A 		beq	.L895
 4098 3560 083097E5 		ldr	r3, [r7, #8]
 4099 3564 5126D9E5 		ldrb	r2, [r9, #1617]	@ zero_extendqisi2
 4100 3568 043083E0 		add	r3, r3, r4
 4101 356c 2410D3E5 		ldrb	r1, [r3, #36]	@ zero_extendqisi2
 4102 3570 B4039FE5 		ldr	r0, .L928+8
 4103 3574 35FF2FE1 		blx	r5
 4104              	.L895:
ARM GAS  C:\Users\ldebo\AppData\Local\Temp\ccISOhOE.s 			page 73


 4105 3578 EC339AE5 		ldr	r3, [r10, #1004]
 4106 357c 014084E2 		add	r4, r4, #1
 4107 3580 2820D3E5 		ldrb	r2, [r3, #40]	@ zero_extendqisi2
 4108 3584 040052E1 		cmp	r2, r4
 4109 3588 E10000DA 		ble	.L922
 4110              	.L896:
 4111 358c 8451A0E1 		lsl	r5, r4, #3
 4112 3590 040085E0 		add	r0, r5, r4
 4113 3594 000083E0 		add	r0, r3, r0
 4114 3598 0320D0E5 		ldrb	r2, [r0, #3]	@ zero_extendqisi2
 4115 359c 008096E5 		ldr	r8, [r6]
 4116 35a0 8A20CDE5 		strb	r2, [sp, #138]
 4117 35a4 0220D0E5 		ldrb	r2, [r0, #2]	@ zero_extendqisi2
 4118 35a8 000058E3 		cmp	r8, #0
 4119 35ac 8B20CDE5 		strb	r2, [sp, #139]
 4120 35b0 1000000A 		beq	.L884
 4121 35b4 043083E0 		add	r3, r3, r4
 4122 35b8 2410D3E5 		ldrb	r1, [r3, #36]	@ zero_extendqisi2
 4123 35bc 0420D0E5 		ldrb	r2, [r0, #4]	@ zero_extendqisi2
 4124 35c0 811181E0 		add	r1, r1, r1, lsl #3
 4125 35c4 01108AE0 		add	r1, r10, r1
 4126 35c8 12C0D1E5 		ldrb	ip, [r1, #18]	@ zero_extendqisi2
 4127 35cc 0530D0E5 		ldrb	r3, [r0, #5]	@ zero_extendqisi2
 4128 35d0 08C08DE5 		str	ip, [sp, #8]
 4129 35d4 17C0D1E5 		ldrb	ip, [r1, #23]	@ zero_extendqisi2
 4130 35d8 8A10DDE5 		ldrb	r1, [sp, #138]	@ zero_extendqisi2
 4131 35dc 04C08DE5 		str	ip, [sp, #4]
 4132 35e0 06C0D0E5 		ldrb	ip, [r0, #6]	@ zero_extendqisi2
 4133 35e4 8B00DDE5 		ldrb	r0, [sp, #139]	@ zero_extendqisi2
 4134 35e8 00C08DE5 		str	ip, [sp]
 4135 35ec 011480E1 		orr	r1, r0, r1, lsl #8
 4136 35f0 38039FE5 		ldr	r0, .L928+12
 4137 35f4 38FF2FE1 		blx	r8
 4138              	.L884:
 4139 35f8 7C309DE5 		ldr	r3, [sp, #124]
 4140 35fc 7410EFE6 		uxtb	r1, r4
 4141 3600 1F0053E3 		cmp	r3, #31
 4142 3604 DBFFFF8A 		bhi	.L895
 4143 3608 0630D7E5 		ldrb	r3, [r7, #6]	@ zero_extendqisi2
 4144 360c 030053E3 		cmp	r3, #3
 4145 3610 D8FFFF1A 		bne	.L895
 4146 3614 082097E5 		ldr	r2, [r7, #8]
 4147 3618 000052E3 		cmp	r2, #0
 4148 361c D5FFFF0A 		beq	.L895
 4149 3620 2830D2E5 		ldrb	r3, [r2, #40]	@ zero_extendqisi2
 4150 3624 010053E1 		cmp	r3, r1
 4151 3628 D2FFFF3A 		bcc	.L895
 4152 362c 045085E0 		add	r5, r5, r4
 4153 3630 051082E0 		add	r1, r2, r5
 4154 3634 08B0D1E5 		ldrb	fp, [r1, #8]	@ zero_extendqisi2
 4155 3638 0750D1E5 		ldrb	r5, [r1, #7]	@ zero_extendqisi2
 4156 363c 0080A0E3 		mov	r8, #0
 4157 3640 0B5485E1 		orr	r5, r5, fp, lsl #8
 4158 3644 50B699E5 		ldr	fp, [r9, #1616]
 4159 3648 0A30A0E3 		mov	r3, #10
 4160 364c 8CB08DE5 		str	fp, [sp, #140]
 4161 3650 04B0A0E3 		mov	fp, #4
ARM GAS  C:\Users\ldebo\AppData\Local\Temp\ccISOhOE.s 			page 74


 4162 3654 220CA0E3 		mov	r0, #8704
 4163 3658 7EE0E0E3 		mvn	lr, #126
 4164 365c 06C0A0E3 		mov	ip, #6
 4165 3660 94808DE5 		str	r8, [sp, #148]
 4166 3664 80809DE5 		ldr	r8, [sp, #128]
 4167 3668 042082E0 		add	r2, r2, r4
 4168 366c 0180D8E5 		ldrb	r8, [r8, #1]	@ zero_extendqisi2
 4169 3670 2410D2E5 		ldrb	r1, [r2, #36]	@ zero_extendqisi2
 4170 3674 98208DE2 		add	r2, sp, #152
 4171 3678 0C008DE8 		stm	sp, {r2, r3}
 4172 367c 95B0CDE5 		strb	fp, [sp, #149]
 4173 3680 8D80CDE5 		strb	r8, [sp, #141]
 4174 3684 90308DE2 		add	r3, sp, #144
 4175 3688 08308DE5 		str	r3, [sp, #8]
 4176 368c BC19CDE1 		strh	r1, [sp, #156]	@ movhi
 4177 3690 0530A0E1 		mov	r3, r5
 4178 3694 BA09CDE1 		strh	r0, [sp, #154]	@ movhi
 4179 3698 94109DE5 		ldr	r1, [sp, #148]
 4180 369c 8C009DE5 		ldr	r0, [sp, #140]
 4181 36a0 4A2E8DE2 		add	r2, sp, #1184
 4182 36a4 BE59CDE1 		strh	r5, [sp, #158]	@ movhi
 4183 36a8 98E0CDE5 		strb	lr, [sp, #152]
 4184 36ac 99C0CDE5 		strb	ip, [sp, #153]
 4185 36b0 FEFFFFEB 		bl	HCDSubmitControlMessage
 4186 36b4 90309DE5 		ldr	r3, [sp, #144]
 4187 36b8 030055E1 		cmp	r5, r3
 4188 36bc 0900E013 		mvnne	r0, #9
 4189 36c0 9AFFFF1A 		bne	.L888
 4190 36c4 000050E3 		cmp	r0, #0
 4191 36c8 98FFFF1A 		bne	.L888
 4192 36cc 010B55E3 		cmp	r5, #1024
 4193 36d0 015BA023 		movcs	r5, #1024
 4194 36d4 000055E3 		cmp	r5, #0
 4195 36d8 2100000A 		beq	.L899
 4196 36dc 042045E2 		sub	r2, r5, #4
 4197 36e0 013045E2 		sub	r3, r5, #1
 4198 36e4 2221A0E1 		lsr	r2, r2, #2
 4199 36e8 012082E2 		add	r2, r2, #1
 4200 36ec 020053E3 		cmp	r3, #2
 4201 36f0 0231A0E1 		lsl	r3, r2, #2
 4202 36f4 0900009A 		bls	.L890
 4203              	.L891:
 4204 36f8 4A1E8DE2 		add	r1, sp, #1184
 4205 36fc 001191E7 		ldr	r1, [r1, r0, lsl #2]
 4206 3700 A0C08DE2 		add	ip, sp, #160
 4207 3704 00118CE7 		str	r1, [ip, r0, lsl #2]
 4208 3708 010080E2 		add	r0, r0, #1
 4209 370c 000052E1 		cmp	r2, r0
 4210 3710 F8FFFF8A 		bhi	.L891
 4211 3714 050053E1 		cmp	r3, r5
 4212 3718 0300A0E1 		mov	r0, r3
 4213 371c 1000000A 		beq	.L899
 4214              	.L890:
 4215 3720 8A3E8DE2 		add	r3, sp, #2208
 4216 3724 002083E0 		add	r2, r3, r0
 4217 3728 001452E5 		ldrb	r1, [r2, #-1024]	@ zero_extendqisi2
 4218 372c 013080E2 		add	r3, r0, #1
ARM GAS  C:\Users\ldebo\AppData\Local\Temp\ccISOhOE.s 			page 75


 4219 3730 050053E1 		cmp	r3, r5
 4220 3734 001842E5 		strb	r1, [r2, #-2048]
 4221 3738 090000AA 		bge	.L899
 4222 373c 8A2E8DE2 		add	r2, sp, #2208
 4223 3740 033082E0 		add	r3, r2, r3
 4224 3744 020080E2 		add	r0, r0, #2
 4225 3748 002453E5 		ldrb	r2, [r3, #-1024]	@ zero_extendqisi2
 4226 374c 000055E1 		cmp	r5, r0
 4227 3750 002843E5 		strb	r2, [r3, #-2048]
 4228 3754 8A3E8DC2 		addgt	r3, sp, #2208
 4229 3758 000083C0 		addgt	r0, r3, r0
 4230 375c 003450C5 		ldrbgt	r3, [r0, #-1024]	@ zero_extendqisi2
 4231 3760 003840C5 		strbgt	r3, [r0, #-2048]
 4232              	.L899:
 4233 3764 045096E5 		ldr	r5, [r6, #4]
 4234 3768 000055E3 		cmp	r5, #0
 4235 376c 81FFFF0A 		beq	.L895
 4236 3770 A500DDE5 		ldrb	r0, [sp, #165]	@ zero_extendqisi2
 4237 3774 A4C0DDE5 		ldrb	ip, [sp, #164]	@ zero_extendqisi2
 4238 3778 08008DE5 		str	r0, [sp, #8]
 4239 377c A300DDE5 		ldrb	r0, [sp, #163]	@ zero_extendqisi2
 4240 3780 A230DDE5 		ldrb	r3, [sp, #162]	@ zero_extendqisi2
 4241 3784 01108DE8 		stm	sp, {r0, ip}
 4242 3788 A120DDE5 		ldrb	r2, [sp, #161]	@ zero_extendqisi2
 4243 378c A010DDE5 		ldrb	r1, [sp, #160]	@ zero_extendqisi2
 4244 3790 9C019FE5 		ldr	r0, .L928+16
 4245 3794 35FF2FE1 		blx	r5
 4246 3798 045096E5 		ldr	r5, [r6, #4]
 4247 379c 000055E3 		cmp	r5, #0
 4248 37a0 74FFFF0A 		beq	.L895
 4249 37a4 C5C0DDE5 		ldrb	ip, [sp, #197]	@ zero_extendqisi2
 4250 37a8 C410DDE5 		ldrb	r1, [sp, #196]	@ zero_extendqisi2
 4251 37ac C320DDE5 		ldrb	r2, [sp, #195]	@ zero_extendqisi2
 4252 37b0 C230DDE5 		ldrb	r3, [sp, #194]	@ zero_extendqisi2
 4253 37b4 C100DDE5 		ldrb	r0, [sp, #193]	@ zero_extendqisi2
 4254 37b8 70C08DE5 		str	ip, [sp, #112]
 4255 37bc 6C108DE5 		str	r1, [sp, #108]
 4256 37c0 C0C0DDE5 		ldrb	ip, [sp, #192]	@ zero_extendqisi2
 4257 37c4 BF10DDE5 		ldrb	r1, [sp, #191]	@ zero_extendqisi2
 4258 37c8 68208DE5 		str	r2, [sp, #104]
 4259 37cc 64308DE5 		str	r3, [sp, #100]
 4260 37d0 BE20DDE5 		ldrb	r2, [sp, #190]	@ zero_extendqisi2
 4261 37d4 BD30DDE5 		ldrb	r3, [sp, #189]	@ zero_extendqisi2
 4262 37d8 60008DE5 		str	r0, [sp, #96]
 4263 37dc BC00DDE5 		ldrb	r0, [sp, #188]	@ zero_extendqisi2
 4264 37e0 5CC08DE5 		str	ip, [sp, #92]
 4265 37e4 58108DE5 		str	r1, [sp, #88]
 4266 37e8 BBC0DDE5 		ldrb	ip, [sp, #187]	@ zero_extendqisi2
 4267 37ec BA10DDE5 		ldrb	r1, [sp, #186]	@ zero_extendqisi2
 4268 37f0 54208DE5 		str	r2, [sp, #84]
 4269 37f4 50308DE5 		str	r3, [sp, #80]
 4270 37f8 B920DDE5 		ldrb	r2, [sp, #185]	@ zero_extendqisi2
 4271 37fc B830DDE5 		ldrb	r3, [sp, #184]	@ zero_extendqisi2
 4272 3800 4C008DE5 		str	r0, [sp, #76]
 4273 3804 B700DDE5 		ldrb	r0, [sp, #183]	@ zero_extendqisi2
 4274 3808 48C08DE5 		str	ip, [sp, #72]
 4275 380c 44108DE5 		str	r1, [sp, #68]
ARM GAS  C:\Users\ldebo\AppData\Local\Temp\ccISOhOE.s 			page 76


 4276 3810 40208DE5 		str	r2, [sp, #64]
 4277 3814 3C308DE5 		str	r3, [sp, #60]
 4278 3818 A720DDE5 		ldrb	r2, [sp, #167]	@ zero_extendqisi2
 4279 381c A830DDE5 		ldrb	r3, [sp, #168]	@ zero_extendqisi2
 4280 3820 A610DDE5 		ldrb	r1, [sp, #166]	@ zero_extendqisi2
 4281 3824 38008DE5 		str	r0, [sp, #56]
 4282 3828 B6C0DDE5 		ldrb	ip, [sp, #182]	@ zero_extendqisi2
 4283 382c B500DDE5 		ldrb	r0, [sp, #181]	@ zero_extendqisi2
 4284 3830 34C08DE5 		str	ip, [sp, #52]
 4285 3834 30008DE5 		str	r0, [sp, #48]
 4286 3838 B4C0DDE5 		ldrb	ip, [sp, #180]	@ zero_extendqisi2
 4287 383c B300DDE5 		ldrb	r0, [sp, #179]	@ zero_extendqisi2
 4288 3840 2CC08DE5 		str	ip, [sp, #44]
 4289 3844 28008DE5 		str	r0, [sp, #40]
 4290 3848 B2C0DDE5 		ldrb	ip, [sp, #178]	@ zero_extendqisi2
 4291 384c B100DDE5 		ldrb	r0, [sp, #177]	@ zero_extendqisi2
 4292 3850 24C08DE5 		str	ip, [sp, #36]
 4293 3854 20008DE5 		str	r0, [sp, #32]
 4294 3858 B0C0DDE5 		ldrb	ip, [sp, #176]	@ zero_extendqisi2
 4295 385c AF00DDE5 		ldrb	r0, [sp, #175]	@ zero_extendqisi2
 4296 3860 1CC08DE5 		str	ip, [sp, #28]
 4297 3864 18008DE5 		str	r0, [sp, #24]
 4298 3868 AEC0DDE5 		ldrb	ip, [sp, #174]	@ zero_extendqisi2
 4299 386c AD00DDE5 		ldrb	r0, [sp, #173]	@ zero_extendqisi2
 4300 3870 14C08DE5 		str	ip, [sp, #20]
 4301 3874 10008DE5 		str	r0, [sp, #16]
 4302 3878 ACC0DDE5 		ldrb	ip, [sp, #172]	@ zero_extendqisi2
 4303 387c AB00DDE5 		ldrb	r0, [sp, #171]	@ zero_extendqisi2
 4304 3880 0CC08DE5 		str	ip, [sp, #12]
 4305 3884 08008DE5 		str	r0, [sp, #8]
 4306 3888 AAC0DDE5 		ldrb	ip, [sp, #170]	@ zero_extendqisi2
 4307 388c A900DDE5 		ldrb	r0, [sp, #169]	@ zero_extendqisi2
 4308 3890 01108DE8 		stm	sp, {r0, ip}
 4309 3894 9C009FE5 		ldr	r0, .L928+20
 4310 3898 35FF2FE1 		blx	r5
 4311 389c 045096E5 		ldr	r5, [r6, #4]
 4312 38a0 000055E3 		cmp	r5, #0
 4313 38a4 33FFFF0A 		beq	.L895
 4314 38a8 D300DDE5 		ldrb	r0, [sp, #211]	@ zero_extendqisi2
 4315 38ac D2C0DDE5 		ldrb	ip, [sp, #210]	@ zero_extendqisi2
 4316 38b0 28008DE5 		str	r0, [sp, #40]
 4317 38b4 D100DDE5 		ldrb	r0, [sp, #209]	@ zero_extendqisi2
 4318 38b8 24C08DE5 		str	ip, [sp, #36]
 4319 38bc 20008DE5 		str	r0, [sp, #32]
 4320 38c0 D0C0DDE5 		ldrb	ip, [sp, #208]	@ zero_extendqisi2
 4321 38c4 CF00DDE5 		ldrb	r0, [sp, #207]	@ zero_extendqisi2
 4322 38c8 1CC08DE5 		str	ip, [sp, #28]
 4323 38cc 18008DE5 		str	r0, [sp, #24]
 4324 38d0 CEC0DDE5 		ldrb	ip, [sp, #206]	@ zero_extendqisi2
 4325 38d4 CD00DDE5 		ldrb	r0, [sp, #205]	@ zero_extendqisi2
 4326 38d8 14C08DE5 		str	ip, [sp, #20]
 4327 38dc 10008DE5 		str	r0, [sp, #16]
 4328 38e0 CCC0DDE5 		ldrb	ip, [sp, #204]	@ zero_extendqisi2
 4329 38e4 CB00DDE5 		ldrb	r0, [sp, #203]	@ zero_extendqisi2
 4330 38e8 0CC08DE5 		str	ip, [sp, #12]
 4331 38ec 08008DE5 		str	r0, [sp, #8]
 4332 38f0 CAC0DDE5 		ldrb	ip, [sp, #202]	@ zero_extendqisi2
ARM GAS  C:\Users\ldebo\AppData\Local\Temp\ccISOhOE.s 			page 77


 4333 38f4 C900DDE5 		ldrb	r0, [sp, #201]	@ zero_extendqisi2
 4334 38f8 C830DDE5 		ldrb	r3, [sp, #200]	@ zero_extendqisi2
 4335 38fc 01108DE8 		stm	sp, {r0, ip}
 4336 3900 C720DDE5 		ldrb	r2, [sp, #199]	@ zero_extendqisi2
 4337 3904 C610DDE5 		ldrb	r1, [sp, #198]	@ zero_extendqisi2
 4338 3908 2C009FE5 		ldr	r0, .L928+24
 4339 390c 35FF2FE1 		blx	r5
 4340 3910 18FFFFEA 		b	.L895
 4341              	.L922:
 4342 3914 0000A0E3 		mov	r0, #0
 4343 3918 8ADE8DE2 		add	sp, sp, #2208
 4344 391c 04D08DE2 		add	sp, sp, #4
 4345              		@ sp needed
 4346 3920 F08FBDE8 		pop	{r4, r5, r6, r7, r8, r9, r10, fp, pc}
 4347              	.L929:
 4348              		.align	2
 4349              	.L928:
 4350 3924 00000000 		.word	.LANCHOR1
 4351 3928 E4080000 		.word	.LC78
 4352 392c 28090000 		.word	.LC79
 4353 3930 80080000 		.word	.LC77
 4354 3934 60090000 		.word	.LC80
 4355 3938 B0090000 		.word	.LC81
 4356 393c 580A0000 		.word	.LC82
 4357              		.size	EnumerateHID, .-EnumerateHID
 4358              		.align	2
 4359              		.global	HCDGetDescriptor
 4360              		.syntax unified
 4361              		.arm
 4362              		.fpu vfp
 4363              		.type	HCDGetDescriptor, %function
 4364              	HCDGetDescriptor:
 4365              		@ args = 20, pretend = 0, frame = 40
 4366              		@ frame_needed = 0, uses_anonymous_args = 0
 4367 3940 00C0A0E3 		mov	ip, #0
 4368 3944 F04F2DE9 		push	{r4, r5, r6, r7, r8, r9, r10, fp, lr}
 4369 3948 3CD04DE2 		sub	sp, sp, #60
 4370 394c 70E0DDE5 		ldrb	lr, [sp, #112]	@ zero_extendqisi2
 4371 3950 2064A0E1 		lsr	r6, r0, #8
 4372 3954 0C005EE1 		cmp	lr, ip
 4373 3958 14008DE5 		str	r0, [sp, #20]
 4374 395c 0170A0E1 		mov	r7, r1
 4375 3960 0280A0E1 		mov	r8, r2
 4376 3964 03B0A0E1 		mov	fp, r3
 4377 3968 B8C1CDE1 		strh	ip, [sp, #24]	@ movhi
 4378 396c 7660EFE6 		uxtb	r6, r6
 4379 3970 64409DE5 		ldr	r4, [sp, #100]
 4380 3974 6890DDE5 		ldrb	r9, [sp, #104]	@ zero_extendqisi2
 4381 3978 2200000A 		beq	.L931
 4382 397c 0430A0E3 		mov	r3, #4
 4383 3980 0220A0E3 		mov	r2, #2
 4384 3984 0A50A0E3 		mov	r5, #10
 4385 3988 06E0A0E3 		mov	lr, #6
 4386 398c 20C08DE5 		str	ip, [sp, #32]
 4387 3990 2130CDE5 		strb	r3, [sp, #33]
 4388 3994 28308DE2 		add	r3, sp, #40
 4389 3998 28008DE8 		stm	sp, {r3, r5}
ARM GAS  C:\Users\ldebo\AppData\Local\Temp\ccISOhOE.s 			page 78


 4390 399c BE22CDE1 		strh	r2, [sp, #46]	@ movhi
 4391 39a0 0230A0E1 		mov	r3, r2
 4392 39a4 08C08DE5 		str	ip, [sp, #8]
 4393 39a8 20109DE5 		ldr	r1, [sp, #32]
 4394 39ac 07A488E1 		orr	r10, r8, r7, lsl #8
 4395 39b0 18208DE2 		add	r2, sp, #24
 4396 39b4 2890CDE5 		strb	r9, [sp, #40]
 4397 39b8 BCB2CDE1 		strh	fp, [sp, #44]	@ movhi
 4398 39bc 29E0CDE5 		strb	lr, [sp, #41]
 4399 39c0 BAA2CDE1 		strh	r10, [sp, #42]	@ movhi
 4400 39c4 FEFFFFEB 		bl	HCDSubmitControlMessage
 4401 39c8 005050E2 		subs	r5, r0, #0
 4402 39cc 3A00000A 		beq	.L954
 4403              	.L932:
 4404 39d0 10319FE5 		ldr	r3, .L956
 4405 39d4 004093E5 		ldr	r4, [r3]
 4406 39d8 000054E3 		cmp	r4, #0
 4407 39dc 3300000A 		beq	.L941
 4408 39e0 04508DE5 		str	r5, [sp, #4]
 4409 39e4 00608DE5 		str	r6, [sp]
 4410 39e8 0930A0E1 		mov	r3, r9
 4411 39ec 0820A0E1 		mov	r2, r8
 4412 39f0 0710A0E1 		mov	r1, r7
 4413 39f4 F0009FE5 		ldr	r0, .L956+4
 4414 39f8 34FF2FE1 		blx	r4
 4415 39fc 0500A0E1 		mov	r0, r5
 4416 3a00 3CD08DE2 		add	sp, sp, #60
 4417              		@ sp needed
 4418 3a04 F08FBDE8 		pop	{r4, r5, r6, r7, r8, r9, r10, fp, pc}
 4419              	.L931:
 4420 3a08 01A482E1 		orr	r10, r2, r1, lsl #8
 4421              	.L938:
 4422 3a0c 0A30A0E3 		mov	r3, #10
 4423 3a10 0010A0E3 		mov	r1, #0
 4424 3a14 0420A0E3 		mov	r2, #4
 4425 3a18 06C0A0E3 		mov	ip, #6
 4426 3a1c 04308DE5 		str	r3, [sp, #4]
 4427 3a20 1C308DE2 		add	r3, sp, #28
 4428 3a24 24108DE5 		str	r1, [sp, #36]
 4429 3a28 08308DE5 		str	r3, [sp, #8]
 4430 3a2c 2520CDE5 		strb	r2, [sp, #37]
 4431 3a30 30308DE2 		add	r3, sp, #48
 4432 3a34 00308DE5 		str	r3, [sp]
 4433 3a38 24109DE5 		ldr	r1, [sp, #36]
 4434 3a3c 0430A0E1 		mov	r3, r4
 4435 3a40 60209DE5 		ldr	r2, [sp, #96]
 4436 3a44 14009DE5 		ldr	r0, [sp, #20]
 4437 3a48 3090CDE5 		strb	r9, [sp, #48]
 4438 3a4c B2A3CDE1 		strh	r10, [sp, #50]	@ movhi
 4439 3a50 B4B3CDE1 		strh	fp, [sp, #52]	@ movhi
 4440 3a54 B643CDE1 		strh	r4, [sp, #54]	@ movhi
 4441 3a58 31C0CDE5 		strb	ip, [sp, #49]
 4442 3a5c FEFFFFEB 		bl	HCDSubmitControlMessage
 4443 3a60 1C309DE5 		ldr	r3, [sp, #28]
 4444 3a64 0050A0E1 		mov	r5, r0
 4445 3a68 030054E1 		cmp	r4, r3
 4446 3a6c 0950E013 		mvnne	r5, #9
ARM GAS  C:\Users\ldebo\AppData\Local\Temp\ccISOhOE.s 			page 79


 4447 3a70 1900000A 		beq	.L955
 4448              	.L935:
 4449 3a74 6C309FE5 		ldr	r3, .L956
 4450 3a78 004093E5 		ldr	r4, [r3]
 4451 3a7c 000054E3 		cmp	r4, #0
 4452 3a80 0500000A 		beq	.L936
 4453 3a84 00508DE5 		str	r5, [sp]
 4454 3a88 0630A0E1 		mov	r3, r6
 4455 3a8c 0820A0E1 		mov	r2, r8
 4456 3a90 0710A0E1 		mov	r1, r7
 4457 3a94 54009FE5 		ldr	r0, .L956+8
 4458 3a98 34FF2FE1 		blx	r4
 4459              	.L936:
 4460 3a9c 6C309DE5 		ldr	r3, [sp, #108]
 4461 3aa0 000053E3 		cmp	r3, #0
 4462 3aa4 0320A011 		movne	r2, r3
 4463 3aa8 1C309D15 		ldrne	r3, [sp, #28]
 4464 3aac 00308215 		strne	r3, [r2]
 4465              	.L941:
 4466 3ab0 0500A0E1 		mov	r0, r5
 4467 3ab4 3CD08DE2 		add	sp, sp, #60
 4468              		@ sp needed
 4469 3ab8 F08FBDE8 		pop	{r4, r5, r6, r7, r8, r9, r10, fp, pc}
 4470              	.L954:
 4471 3abc 1930DDE5 		ldrb	r3, [sp, #25]	@ zero_extendqisi2
 4472 3ac0 070053E1 		cmp	r3, r7
 4473 3ac4 0050E013 		mvnne	r5, #0
 4474 3ac8 C0FFFF1A 		bne	.L932
 4475 3acc 1830DDE5 		ldrb	r3, [sp, #24]	@ zero_extendqisi2
 4476 3ad0 030054E1 		cmp	r4, r3
 4477 3ad4 0340A021 		movcs	r4, r3
 4478 3ad8 CBFFFFEA 		b	.L938
 4479              	.L955:
 4480 3adc 000055E3 		cmp	r5, #0
 4481 3ae0 EDFFFF0A 		beq	.L936
 4482 3ae4 E2FFFFEA 		b	.L935
 4483              	.L957:
 4484              		.align	2
 4485              	.L956:
 4486 3ae8 00000000 		.word	.LANCHOR1
 4487 3aec A80A0000 		.word	.LC83
 4488 3af0 E4080000 		.word	.LC78
 4489              		.size	HCDGetDescriptor, .-HCDGetDescriptor
 4490              		.align	2
 4491              		.global	HCDReadStringDescriptor
 4492              		.syntax unified
 4493              		.arm
 4494              		.fpu vfp
 4495              		.type	HCDReadStringDescriptor, %function
 4496              	HCDReadStringDescriptor:
 4497              		@ args = 0, pretend = 0, frame = 1288
 4498              		@ frame_needed = 0, uses_anonymous_args = 0
 4499 3af4 00C0A0E3 		mov	ip, #0
 4500 3af8 0C0051E1 		cmp	r1, ip
 4501 3afc 0C005211 		cmpne	r2, ip
 4502 3b00 F04F2DE9 		push	{r4, r5, r6, r7, r8, r9, r10, fp, lr}
 4503 3b04 52DE4DE2 		sub	sp, sp, #1312
ARM GAS  C:\Users\ldebo\AppData\Local\Temp\ccISOhOE.s 			page 80


 4504 3b08 04D04DE2 		sub	sp, sp, #4
 4505 3b0c 0160A003 		moveq	r6, #1
 4506 3b10 0060A013 		movne	r6, #0
 4507 3b14 2C008DE5 		str	r0, [sp, #44]
 4508 3b18 38C08DE5 		str	ip, [sp, #56]
 4509 3b1c AA00000A 		beq	.L1063
 4510 3b20 28308DE5 		str	r3, [sp, #40]
 4511 3b24 0430A0E3 		mov	r3, #4
 4512 3b28 02A0A0E3 		mov	r10, #2
 4513 3b2c 20108DE5 		str	r1, [sp, #32]
 4514 3b30 24208DE5 		str	r2, [sp, #36]
 4515 3b34 7FC0E0E3 		mvn	ip, #127
 4516 3b38 0610A0E3 		mov	r1, #6
 4517 3b3c 032CA0E3 		mov	r2, #768
 4518 3b40 90769FE5 		ldr	r7, .L1077
 4519 3b44 40608DE5 		str	r6, [sp, #64]
 4520 3b48 7080EFE6 		uxtb	r8, r0
 4521 3b4c 2054A0E1 		lsr	r5, r0, #8
 4522 3b50 08B0D7E5 		ldrb	fp, [r7, #8]	@ zero_extendqisi2
 4523 3b54 4130CDE5 		strb	r3, [sp, #65]
 4524 3b58 38EAA0E1 		lsr	lr, r8, r10
 4525 3b5c 7550EFE6 		uxtb	r5, r5
 4526 3b60 40309DE5 		ldr	r3, [sp, #64]
 4527 3b64 2098A0E1 		lsr	r9, r0, #16
 4528 3b68 03E00EE2 		and	lr, lr, #3
 4529 3b6c 05005BE1 		cmp	fp, r5
 4530 3b70 4C308DE5 		str	r3, [sp, #76]
 4531 3b74 3C008DE5 		str	r0, [sp, #60]
 4532 3b78 48008DE5 		str	r0, [sp, #72]
 4533 3b7c 1CE08DE5 		str	lr, [sp, #28]
 4534 3b80 038008E2 		and	r8, r8, #3
 4535 3b84 7990EFE6 		uxtb	r9, r9
 4536 3b88 204CA0E1 		lsr	r4, r0, #24
 4537 3b8c 50C0CDE5 		strb	ip, [sp, #80]
 4538 3b90 5110CDE5 		strb	r1, [sp, #81]
 4539 3b94 B225CDE1 		strh	r2, [sp, #82]	@ movhi
 4540 3b98 B465CDE1 		strh	r6, [sp, #84]	@ movhi
 4541 3b9c B6A5CDE1 		strh	r10, [sp, #86]	@ movhi
 4542 3ba0 B463CDE1 		strh	r6, [sp, #52]	@ movhi
 4543 3ba4 C500000A 		beq	.L1069
 4544 3ba8 03C0A0E3 		mov	ip, #3
 4545 3bac 2324A0E1 		lsr	r2, r3, #8
 4546 3bb0 FB2002E2 		and	r2, r2, #251
 4547 3bb4 60308DE5 		str	r3, [sp, #96]
 4548 3bb8 6120CDE5 		strb	r2, [sp, #97]
 4549 3bbc 60109DE5 		ldr	r1, [sp, #96]
 4550 3bc0 50208DE2 		add	r2, sp, #80
 4551 3bc4 00C08DE5 		str	ip, [sp]
 4552 3bc8 0830A0E3 		mov	r3, #8
 4553 3bcc FEFFFFEB 		bl	HCDChannelTransfer
 4554 3bd0 000050E3 		cmp	r0, #0
 4555 3bd4 2A00000A 		beq	.L963
 4556 3bd8 00A097E5 		ldr	r10, [r7]
 4557 3bdc 00005AE3 		cmp	r10, #0
 4558 3be0 0900000A 		beq	.L979
 4559 3be4 1C109DE5 		ldr	r1, [sp, #28]
 4560 3be8 10008DE5 		str	r0, [sp, #16]
ARM GAS  C:\Users\ldebo\AppData\Local\Temp\ccISOhOE.s 			page 81


 4561 3bec 00108DE5 		str	r1, [sp]
 4562 3bf0 5030DDE5 		ldrb	r3, [sp, #80]	@ zero_extendqisi2
 4563 3bf4 5120DDE5 		ldrb	r2, [sp, #81]	@ zero_extendqisi2
 4564 3bf8 0C408DE5 		str	r4, [sp, #12]
 4565 3bfc 00038DE9 		stmib	sp, {r8, r9}
 4566 3c00 0510A0E1 		mov	r1, r5
 4567 3c04 D0059FE5 		ldr	r0, .L1077+4
 4568 3c08 3AFF2FE1 		blx	r10
 4569              	.L979:
 4570 3c0c 004097E5 		ldr	r4, [r7]
 4571 3c10 000054E3 		cmp	r4, #0
 4572 3c14 0700000A 		beq	.L980
 4573 3c18 0030E0E3 		mvn	r3, #0
 4574 3c1c 00508DE5 		str	r5, [sp]
 4575 3c20 04308DE5 		str	r3, [sp, #4]
 4576 3c24 0020A0E3 		mov	r2, #0
 4577 3c28 8030A0E3 		mov	r3, #128
 4578 3c2c 0310A0E3 		mov	r1, #3
 4579 3c30 A8059FE5 		ldr	r0, .L1077+8
 4580 3c34 34FF2FE1 		blx	r4
 4581              	.L980:
 4582 3c38 38309DE5 		ldr	r3, [sp, #56]
 4583              	.L1005:
 4584 3c3c 010053E3 		cmp	r3, #1
 4585 3c40 60408D82 		addhi	r4, sp, #96
 4586 3c44 0801009A 		bls	.L1070
 4587              	.L1007:
 4588 3c48 B020D4E1 		ldrh	r2, [r4]
 4589 3c4c 2214A0E1 		lsr	r1, r2, #8
 4590 3c50 030051E3 		cmp	r1, #3
 4591 3c54 A600000A 		beq	.L985
 4592              	.L1074:
 4593 3c58 003097E5 		ldr	r3, [r7]
 4594 3c5c 000053E3 		cmp	r3, #0
 4595 3c60 5900000A 		beq	.L1063
 4596 3c64 0510A0E1 		mov	r1, r5
 4597 3c68 74059FE5 		ldr	r0, .L1077+12
 4598 3c6c 33FF2FE1 		blx	r3
 4599 3c70 0180E0E3 		mvn	r8, #1
 4600              	.L1052:
 4601 3c74 0800A0E1 		mov	r0, r8
 4602 3c78 52DE8DE2 		add	sp, sp, #1312
 4603 3c7c 04D08DE2 		add	sp, sp, #4
 4604              		@ sp needed
 4605 3c80 F08FBDE8 		pop	{r4, r5, r6, r7, r8, r9, r10, fp, pc}
 4606              	.L963:
 4607 3c84 4D30DDE5 		ldrb	r3, [sp, #77]	@ zero_extendqisi2
 4608 3c88 128E8DE2 		add	r8, sp, #288
 4609 3c8c 040013E3 		tst	r3, #4
 4610 3c90 6130DDE5 		ldrb	r3, [sp, #97]	@ zero_extendqisi2
 4611 3c94 00A08DE5 		str	r10, [sp]
 4612 3c98 043083E3 		orr	r3, r3, #4
 4613 3c9c 6130CDE5 		strb	r3, [sp, #97]
 4614 3ca0 60109DE5 		ldr	r1, [sp, #96]
 4615 3ca4 0A30A0E1 		mov	r3, r10
 4616 3ca8 0820A0E1 		mov	r2, r8
 4617 3cac 48009DE5 		ldr	r0, [sp, #72]
ARM GAS  C:\Users\ldebo\AppData\Local\Temp\ccISOhOE.s 			page 82


 4618 3cb0 4A00001A 		bne	.L965
 4619 3cb4 2061CDE5 		strb	r6, [sp, #288]
 4620 3cb8 2161CDE5 		strb	r6, [sp, #289]
 4621 3cbc FEFFFFEB 		bl	HCDChannelTransfer
 4622 3cc0 000050E3 		cmp	r0, #0
 4623 3cc4 7500001A 		bne	.L966
 4624              	.L970:
 4625 3cc8 4DC0DDE5 		ldrb	ip, [sp, #77]	@ zero_extendqisi2
 4626 3ccc 0200A0E3 		mov	r0, #2
 4627 3cd0 04C08CE3 		orr	ip, ip, #4
 4628 3cd4 0C30E0E1 		mvn	r3, ip
 4629 3cd8 6120DDE5 		ldrb	r2, [sp, #97]	@ zero_extendqisi2
 4630 3cdc 043003E2 		and	r3, r3, #4
 4631 3ce0 0420C2E3 		bic	r2, r2, #4
 4632 3ce4 023083E1 		orr	r3, r3, r2
 4633 3ce8 6130CDE5 		strb	r3, [sp, #97]
 4634 3cec 00008DE5 		str	r0, [sp]
 4635 3cf0 60109DE5 		ldr	r1, [sp, #96]
 4636 3cf4 0030A0E3 		mov	r3, #0
 4637 3cf8 0820A0E1 		mov	r2, r8
 4638 3cfc 48009DE5 		ldr	r0, [sp, #72]
 4639 3d00 4DC0CDE5 		strb	ip, [sp, #77]
 4640 3d04 FEFFFFEB 		bl	HCDChannelTransfer
 4641 3d08 000050E3 		cmp	r0, #0
 4642 3d0c DE00000A 		beq	.L1071
 4643 3d10 003097E5 		ldr	r3, [r7]
 4644 3d14 000053E3 		cmp	r3, #0
 4645 3d18 EA00000A 		beq	.L1062
 4646 3d1c 0510A0E1 		mov	r1, r5
 4647 3d20 C0049FE5 		ldr	r0, .L1077+16
 4648 3d24 33FF2FE1 		blx	r3
 4649 3d28 3530DDE5 		ldrb	r3, [sp, #53]	@ zero_extendqisi2
 4650              	.L969:
 4651 3d2c 030053E3 		cmp	r3, #3
 4652 3d30 B5FFFF1A 		bne	.L979
 4653              	.L962:
 4654 3d34 3490DDE5 		ldrb	r9, [sp, #52]	@ zero_extendqisi2
 4655 3d38 010059E3 		cmp	r9, #1
 4656 3d3c 7910FF96 		uxthls	r1, r9
 4657 3d40 0210A083 		movhi	r1, #2
 4658 3d44 0190A081 		movhi	r9, r1
 4659              	.L1004:
 4660 3d48 0020A0E3 		mov	r2, #0
 4661 3d4c 0430A0E3 		mov	r3, #4
 4662 3d50 030CA0E3 		mov	r0, #768
 4663 3d54 0AA0A0E3 		mov	r10, #10
 4664 3d58 7FE0E0E3 		mvn	lr, #127
 4665 3d5c 06C0A0E3 		mov	ip, #6
 4666 3d60 60408DE2 		add	r4, sp, #96
 4667 3d64 44208DE5 		str	r2, [sp, #68]
 4668 3d68 3D50CDE5 		strb	r5, [sp, #61]
 4669 3d6c 4530CDE5 		strb	r3, [sp, #69]
 4670 3d70 083044E2 		sub	r3, r4, #8
 4671 3d74 08048DE8 		stm	sp, {r3, r10}
 4672 3d78 08808DE5 		str	r8, [sp, #8]
 4673 3d7c 0930A0E1 		mov	r3, r9
 4674 3d80 B42044E1 		strh	r2, [r4, #-4]	@ movhi
ARM GAS  C:\Users\ldebo\AppData\Local\Temp\ccISOhOE.s 			page 83


 4675 3d84 B21044E1 		strh	r1, [r4, #-2]	@ movhi
 4676 3d88 B60044E1 		strh	r0, [r4, #-6]	@ movhi
 4677 3d8c 44109DE5 		ldr	r1, [sp, #68]
 4678 3d90 0420A0E1 		mov	r2, r4
 4679 3d94 3C009DE5 		ldr	r0, [sp, #60]
 4680 3d98 58E0CDE5 		strb	lr, [sp, #88]
 4681 3d9c 59C0CDE5 		strb	ip, [sp, #89]
 4682 3da0 FEFFFFEB 		bl	HCDSubmitControlMessage
 4683 3da4 20319DE5 		ldr	r3, [sp, #288]
 4684 3da8 030059E1 		cmp	r9, r3
 4685 3dac 0900E013 		mvnne	r0, #9
 4686 3db0 4800000A 		beq	.L1072
 4687              	.L981:
 4688 3db4 008097E5 		ldr	r8, [r7]
 4689 3db8 000058E3 		cmp	r8, #0
 4690 3dbc FC00001A 		bne	.L1073
 4691 3dc0 010053E3 		cmp	r3, #1
 4692 3dc4 38308DE5 		str	r3, [sp, #56]
 4693 3dc8 9EFFFF8A 		bhi	.L1007
 4694              	.L1063:
 4695 3dcc 0180E0E3 		mvn	r8, #1
 4696 3dd0 0800A0E1 		mov	r0, r8
 4697 3dd4 52DE8DE2 		add	sp, sp, #1312
 4698 3dd8 04D08DE2 		add	sp, sp, #4
 4699              		@ sp needed
 4700 3ddc F08FBDE8 		pop	{r4, r5, r6, r7, r8, r9, r10, fp, pc}
 4701              	.L965:
 4702 3de0 FEFFFFEB 		bl	HCDChannelTransfer
 4703 3de4 000050E3 		cmp	r0, #0
 4704 3de8 2C00001A 		bne	.L966
 4705 3dec F8339FE5 		ldr	r3, .L1077+20
 4706 3df0 003093E5 		ldr	r3, [r3]
 4707 3df4 263783E2 		add	r3, r3, #9961472
 4708 3df8 053C83E2 		add	r3, r3, #1280
 4709 3dfc 103093E5 		ldr	r3, [r3, #16]
 4710 3e00 FF34C3E3 		bic	r3, r3, #-16777216
 4711 3e04 3E37C3E3 		bic	r3, r3, #16252928
 4712 3e08 021073E2 		rsbs	r1, r3, #2
 4713 3e0c ADFFFF0A 		beq	.L970
 4714 3e10 0120E0E3 		mvn	r2, #1
 4715 3e14 032042E0 		sub	r2, r2, r3
 4716 3e18 2221A0E1 		lsr	r2, r2, #2
 4717 3e1c 013063E2 		rsb	r3, r3, #1
 4718 3e20 012082E2 		add	r2, r2, #1
 4719 3e24 020053E3 		cmp	r3, #2
 4720 3e28 0231A0E1 		lsl	r3, r2, #2
 4721 3e2c B900009A 		bls	.L971
 4722 3e30 0600A0E1 		mov	r0, r6
 4723              	.L972:
 4724 3e34 00C198E7 		ldr	ip, [r8, r0, lsl #2]
 4725 3e38 34E08DE2 		add	lr, sp, #52
 4726 3e3c 00C18EE7 		str	ip, [lr, r0, lsl #2]
 4727 3e40 010080E2 		add	r0, r0, #1
 4728 3e44 020050E1 		cmp	r0, r2
 4729 3e48 F9FFFF3A 		bcc	.L972
 4730 3e4c 030051E1 		cmp	r1, r3
 4731 3e50 9CFFFF0A 		beq	.L970
ARM GAS  C:\Users\ldebo\AppData\Local\Temp\ccISOhOE.s 			page 84


 4732 3e54 522E8DE2 		add	r2, sp, #1312
 4733 3e58 032082E0 		add	r2, r2, r3
 4734 3e5c 000452E5 		ldrb	r0, [r2, #-1024]	@ zero_extendqisi2
 4735 3e60 013083E2 		add	r3, r3, #1
 4736 3e64 EC0442E5 		strb	r0, [r2, #-1260]
 4737 3e68 0320A0E1 		mov	r2, r3
 4738              	.L1010:
 4739 3e6c 520E8DE2 		add	r0, sp, #1312
 4740 3e70 030080E0 		add	r0, r0, r3
 4741 3e74 000450E5 		ldrb	r0, [r0, #-1024]	@ zero_extendqisi2
 4742 3e78 013083E2 		add	r3, r3, #1
 4743 3e7c 52CE8DE2 		add	ip, sp, #1312
 4744 3e80 02208CE0 		add	r2, ip, r2
 4745 3e84 030051E1 		cmp	r1, r3
 4746 3e88 EC0442E5 		strb	r0, [r2, #-1260]
 4747 3e8c 522E8D82 		addhi	r2, sp, #1312
 4748 3e90 03308280 		addhi	r3, r2, r3
 4749 3e94 00245385 		ldrbhi	r2, [r3, #-1024]	@ zero_extendqisi2
 4750 3e98 EC244385 		strbhi	r2, [r3, #-1260]
 4751 3e9c 89FFFFEA 		b	.L970
 4752              	.L966:
 4753 3ea0 003097E5 		ldr	r3, [r7]
 4754 3ea4 000053E3 		cmp	r3, #0
 4755 3ea8 57FFFF0A 		beq	.L979
 4756 3eac 0510A0E1 		mov	r1, r5
 4757 3eb0 38039FE5 		ldr	r0, .L1077+24
 4758 3eb4 33FF2FE1 		blx	r3
 4759 3eb8 3530DDE5 		ldrb	r3, [sp, #53]	@ zero_extendqisi2
 4760 3ebc 9AFFFFEA 		b	.L969
 4761              	.L1069:
 4762 3ec0 0420A0E3 		mov	r2, #4
 4763 3ec4 0330A0E3 		mov	r3, #3
 4764 3ec8 3420CDE5 		strb	r2, [sp, #52]
 4765 3ecc 3530CDE5 		strb	r3, [sp, #53]
 4766 3ed0 128E8DE2 		add	r8, sp, #288
 4767 3ed4 96FFFFEA 		b	.L962
 4768              	.L1072:
 4769 3ed8 000050E3 		cmp	r0, #0
 4770 3edc 38908D05 		streq	r9, [sp, #56]
 4771 3ee0 B3FFFF1A 		bne	.L981
 4772 3ee4 B020D4E1 		ldrh	r2, [r4]
 4773 3ee8 2214A0E1 		lsr	r1, r2, #8
 4774 3eec 030051E3 		cmp	r1, #3
 4775 3ef0 58FFFF1A 		bne	.L1074
 4776              	.L985:
 4777 3ef4 0030A0E3 		mov	r3, #0
 4778 3ef8 01E0A0E3 		mov	lr, #1
 4779 3efc 80C0A0E3 		mov	ip, #128
 4780 3f00 2D50CDE5 		strb	r5, [sp, #45]
 4781 3f04 7220EFE6 		uxtb	r2, r2
 4782 3f08 38808DE2 		add	r8, sp, #56
 4783 3f0c 04208DE5 		str	r2, [sp, #4]
 4784 3f10 00408DE5 		str	r4, [sp]
 4785 3f14 0320A0E1 		mov	r2, r3
 4786 3f18 2C009DE5 		ldr	r0, [sp, #44]
 4787 3f1c 10E08DE5 		str	lr, [sp, #16]
 4788 3f20 08C08DE5 		str	ip, [sp, #8]
ARM GAS  C:\Users\ldebo\AppData\Local\Temp\ccISOhOE.s 			page 85


 4789 3f24 0C808DE5 		str	r8, [sp, #12]
 4790 3f28 FEFFFFEB 		bl	HCDGetDescriptor
 4791 3f2c 000050E3 		cmp	r0, #0
 4792 3f30 B030D4E1 		ldrh	r3, [r4]
 4793 3f34 0300000A 		beq	.L987
 4794 3f38 38209DE5 		ldr	r2, [sp, #56]
 4795 3f3c 7310EFE6 		uxtb	r1, r3
 4796 3f40 020051E1 		cmp	r1, r2
 4797 3f44 6B00008A 		bhi	.L1075
 4798              	.L987:
 4799 3f48 C330A0E1 		asr	r3, r3, #1
 4800 3f4c 7F0003E2 		and	r0, r3, #127
 4801 3f50 010050E3 		cmp	r0, #1
 4802 3f54 910000DA 		ble	.L988
 4803 3f58 B230D4E1 		ldrh	r3, [r4, #2]
 4804 3f5c 90C29FE5 		ldr	ip, .L1077+28
 4805 3f60 0C0053E1 		cmp	r3, ip
 4806 3f64 0120A013 		movne	r2, #1
 4807 3f68 02108412 		addne	r1, r4, #2
 4808 3f6c 0300001A 		bne	.L991
 4809 3f70 0D0000EA 		b	.L989
 4810              	.L992:
 4811 3f74 B230F1E1 		ldrh	r3, [r1, #2]!
 4812 3f78 0C0053E1 		cmp	r3, ip
 4813 3f7c 0A00000A 		beq	.L989
 4814              	.L991:
 4815 3f80 012082E2 		add	r2, r2, #1
 4816 3f84 020050E1 		cmp	r0, r2
 4817 3f88 F9FFFF1A 		bne	.L992
 4818              	.L993:
 4819 3f8c 003097E5 		ldr	r3, [r7]
 4820 3f90 000053E3 		cmp	r3, #0
 4821 3f94 0200000A 		beq	.L994
 4822 3f98 0510A0E1 		mov	r1, r5
 4823 3f9c 54029FE5 		ldr	r0, .L1077+32
 4824 3fa0 33FF2FE1 		blx	r3
 4825              	.L994:
 4826 3fa4 0160A0E3 		mov	r6, #1
 4827 3fa8 B230D4E1 		ldrh	r3, [r4, #2]
 4828              	.L989:
 4829 3fac 0100A0E3 		mov	r0, #1
 4830 3fb0 8010A0E3 		mov	r1, #128
 4831 3fb4 0220A0E3 		mov	r2, #2
 4832 3fb8 34C08DE2 		add	ip, sp, #52
 4833 3fbc 10008DE5 		str	r0, [sp, #16]
 4834 3fc0 08108DE5 		str	r1, [sp, #8]
 4835 3fc4 04208DE5 		str	r2, [sp, #4]
 4836 3fc8 00C08DE5 		str	ip, [sp]
 4837 3fcc 0C808DE5 		str	r8, [sp, #12]
 4838 3fd0 20209DE5 		ldr	r2, [sp, #32]
 4839 3fd4 0310A0E3 		mov	r1, #3
 4840 3fd8 2C009DE5 		ldr	r0, [sp, #44]
 4841 3fdc FEFFFFEB 		bl	HCDGetDescriptor
 4842 3fe0 000050E3 		cmp	r0, #0
 4843 3fe4 3900001A 		bne	.L995
 4844 3fe8 38309DE5 		ldr	r3, [sp, #56]
 4845 3fec 020053E3 		cmp	r3, #2
ARM GAS  C:\Users\ldebo\AppData\Local\Temp\ccISOhOE.s 			page 86


 4846 3ff0 3600001A 		bne	.L995
 4847 3ff4 0100A0E3 		mov	r0, #1
 4848 3ff8 8010A0E3 		mov	r1, #128
 4849 3ffc 000056E3 		cmp	r6, #0
 4850 4000 3420DDE5 		ldrb	r2, [sp, #52]	@ zero_extendqisi2
 4851 4004 B230D411 		ldrhne	r3, [r4, #2]
 4852 4008 124E8DE2 		add	r4, sp, #288
 4853 400c E0319F05 		ldreq	r3, .L1077+28
 4854 4010 0C808DE5 		str	r8, [sp, #12]
 4855 4014 10008DE5 		str	r0, [sp, #16]
 4856 4018 08108DE5 		str	r1, [sp, #8]
 4857 401c 04208DE5 		str	r2, [sp, #4]
 4858 4020 00408DE5 		str	r4, [sp]
 4859 4024 20209DE5 		ldr	r2, [sp, #32]
 4860 4028 0310A0E3 		mov	r1, #3
 4861 402c 2C009DE5 		ldr	r0, [sp, #44]
 4862 4030 FEFFFFEB 		bl	HCDGetDescriptor
 4863 4034 008050E2 		subs	r8, r0, #0
 4864 4038 0300001A 		bne	.L998
 4865 403c 3430DDE5 		ldrb	r3, [sp, #52]	@ zero_extendqisi2
 4866 4040 38209DE5 		ldr	r2, [sp, #56]
 4867 4044 020053E1 		cmp	r3, r2
 4868 4048 3900000A 		beq	.L999
 4869              	.L998:
 4870 404c 003097E5 		ldr	r3, [r7]
 4871 4050 000053E3 		cmp	r3, #0
 4872 4054 5CFFFF0A 		beq	.L1063
 4873 4058 0520A0E1 		mov	r2, r5
 4874 405c 20109DE5 		ldr	r1, [sp, #32]
 4875 4060 94019FE5 		ldr	r0, .L1077+36
 4876 4064 33FF2FE1 		blx	r3
 4877 4068 57FFFFEA 		b	.L1063
 4878              	.L1070:
 4879 406c 003097E5 		ldr	r3, [r7]
 4880 4070 000053E3 		cmp	r3, #0
 4881 4074 54FFFF0A 		beq	.L1063
 4882 4078 0510A0E1 		mov	r1, r5
 4883 407c 7C019FE5 		ldr	r0, .L1077+40
 4884 4080 33FF2FE1 		blx	r3
 4885 4084 0180E0E3 		mvn	r8, #1
 4886 4088 F9FEFFEA 		b	.L1052
 4887              	.L1071:
 4888 408c 58319FE5 		ldr	r3, .L1077+20
 4889 4090 6C219FE5 		ldr	r2, .L1077+44
 4890 4094 003093E5 		ldr	r3, [r3]
 4891 4098 263783E2 		add	r3, r3, #9961472
 4892 409c 101593E5 		ldr	r1, [r3, #1296]
 4893 40a0 053C83E2 		add	r3, r3, #1280
 4894 40a4 020011E1 		tst	r1, r2
 4895 40a8 0600000A 		beq	.L1062
 4896 40ac 044097E5 		ldr	r4, [r7, #4]
 4897 40b0 000054E3 		cmp	r4, #0
 4898 40b4 0300000A 		beq	.L1062
 4899 40b8 101093E5 		ldr	r1, [r3, #16]
 4900 40bc 44019FE5 		ldr	r0, .L1077+48
 4901 40c0 021001E0 		and	r1, r1, r2
 4902 40c4 34FF2FE1 		blx	r4
ARM GAS  C:\Users\ldebo\AppData\Local\Temp\ccISOhOE.s 			page 87


 4903              	.L1062:
 4904 40c8 3530DDE5 		ldrb	r3, [sp, #53]	@ zero_extendqisi2
 4905 40cc 16FFFFEA 		b	.L969
 4906              	.L995:
 4907 40d0 003097E5 		ldr	r3, [r7]
 4908 40d4 000053E3 		cmp	r3, #0
 4909 40d8 0380E003 		mvneq	r8, #3
 4910 40dc E4FEFF0A 		beq	.L1052
 4911 40e0 0520A0E1 		mov	r2, r5
 4912 40e4 20109DE5 		ldr	r1, [sp, #32]
 4913 40e8 1C019FE5 		ldr	r0, .L1077+52
 4914 40ec 33FF2FE1 		blx	r3
 4915 40f0 0380E0E3 		mvn	r8, #3
 4916 40f4 DEFEFFEA 		b	.L1052
 4917              	.L1075:
 4918 40f8 003097E5 		ldr	r3, [r7]
 4919 40fc 000053E3 		cmp	r3, #0
 4920 4100 31FFFF0A 		beq	.L1063
 4921 4104 0510A0E1 		mov	r1, r5
 4922 4108 00019FE5 		ldr	r0, .L1077+56
 4923 410c 33FF2FE1 		blx	r3
 4924 4110 0180E0E3 		mvn	r8, #1
 4925 4114 D6FEFFEA 		b	.L1052
 4926              	.L971:
 4927 4118 2031DDE5 		ldrb	r3, [sp, #288]	@ zero_extendqisi2
 4928 411c 010051E3 		cmp	r1, #1
 4929 4120 3430CDE5 		strb	r3, [sp, #52]
 4930 4124 E7FEFF9A 		bls	.L970
 4931 4128 0130A0E3 		mov	r3, #1
 4932 412c 0320A0E1 		mov	r2, r3
 4933 4130 4DFFFFEA 		b	.L1010
 4934              	.L999:
 4935 4134 000056E3 		cmp	r6, #0
 4936 4138 1B00001A 		bne	.L1016
 4937 413c 023043E2 		sub	r3, r3, #2
 4938 4140 010053E3 		cmp	r3, #1
 4939 4144 180000DA 		ble	.L1016
 4940 4148 28309DE5 		ldr	r3, [sp, #40]
 4941 414c 0850A0E1 		mov	r5, r8
 4942 4150 017053E2 		subs	r7, r3, #1
 4943 4154 0D00000A 		beq	.L1000
 4944 4158 24309DE5 		ldr	r3, [sp, #36]
 4945 415c 024084E2 		add	r4, r4, #2
 4946 4160 016043E2 		sub	r6, r3, #1
 4947 4164 010000EA 		b	.L1002
 4948              	.L1076:
 4949 4168 070055E1 		cmp	r5, r7
 4950 416c 0700000A 		beq	.L1000
 4951              	.L1002:
 4952 4170 B200D4E0 		ldrh	r0, [r4], #2
 4953 4174 FEFFFFEB 		bl	wctob
 4954 4178 3430DDE5 		ldrb	r3, [sp, #52]	@ zero_extendqisi2
 4955 417c 015085E2 		add	r5, r5, #1
 4956 4180 023043E2 		sub	r3, r3, #2
 4957 4184 C30055E1 		cmp	r5, r3, asr #1
 4958 4188 0100E6E5 		strb	r0, [r6, #1]!
 4959 418c F5FFFFBA 		blt	.L1076
ARM GAS  C:\Users\ldebo\AppData\Local\Temp\ccISOhOE.s 			page 88


 4960              	.L1000:
 4961 4190 0030A0E3 		mov	r3, #0
 4962 4194 24209DE5 		ldr	r2, [sp, #36]
 4963 4198 0530C2E7 		strb	r3, [r2, r5]
 4964 419c B4FEFFEA 		b	.L1052
 4965              	.L988:
 4966 41a0 4C309F15 		ldrne	r3, .L1077+28
 4967 41a4 80FFFF1A 		bne	.L989
 4968 41a8 77FFFFEA 		b	.L993
 4969              	.L1016:
 4970 41ac 0850A0E1 		mov	r5, r8
 4971 41b0 F6FFFFEA 		b	.L1000
 4972              	.L1073:
 4973 41b4 00008DE5 		str	r0, [sp]
 4974 41b8 0530A0E1 		mov	r3, r5
 4975 41bc 0020A0E3 		mov	r2, #0
 4976 41c0 0310A0E3 		mov	r1, #3
 4977 41c4 48009FE5 		ldr	r0, .L1077+60
 4978 41c8 38FF2FE1 		blx	r8
 4979 41cc 20319DE5 		ldr	r3, [sp, #288]
 4980 41d0 38308DE5 		str	r3, [sp, #56]
 4981 41d4 98FEFFEA 		b	.L1005
 4982              	.L1078:
 4983              		.align	2
 4984              	.L1077:
 4985 41d8 00000000 		.word	.LANCHOR1
 4986 41dc 2C040000 		.word	.LC53
 4987 41e0 A80A0000 		.word	.LC83
 4988 41e4 2C0B0000 		.word	.LC85
 4989 41e8 A0040000 		.word	.LC54
 4990 41ec 00000000 		.word	RPi_IO_Base_Addr
 4991 41f0 FC040000 		.word	.LC56
 4992 41f4 09040000 		.word	1033
 4993 41f8 AC0B0000 		.word	.LC87
 4994 41fc 240C0000 		.word	.LC89
 4995 4200 F40A0000 		.word	.LC84
 4996 4204 FFFF0700 		.word	524287
 4997 4208 D0040000 		.word	.LC55
 4998 420c E00B0000 		.word	.LC88
 4999 4210 680B0000 		.word	.LC86
 5000 4214 E4080000 		.word	.LC78
 5001              		.size	HCDReadStringDescriptor, .-HCDReadStringDescriptor
 5002              		.align	2
 5003              		.global	IsHub
 5004              		.syntax unified
 5005              		.arm
 5006              		.fpu vfp
 5007              		.type	IsHub, %function
 5008              	IsHub:
 5009              		@ args = 0, pretend = 0, frame = 0
 5010              		@ frame_needed = 0, uses_anonymous_args = 0
 5011              		@ link register save eliminated.
 5012 4218 010040E2 		sub	r0, r0, #1
 5013 421c 7030EFE6 		uxtb	r3, r0
 5014 4220 1F0053E3 		cmp	r3, #31
 5015 4224 0500008A 		bhi	.L1082
 5016 4228 28309FE5 		ldr	r3, .L1084
ARM GAS  C:\Users\ldebo\AppData\Local\Temp\ccISOhOE.s 			page 89


 5017 422c 000360E0 		rsb	r0, r0, r0, lsl #6
 5018 4230 000283E0 		add	r0, r3, r0, lsl #4
 5019 4234 363AD0E5 		ldrb	r3, [r0, #2614]	@ zero_extendqisi2
 5020 4238 020053E3 		cmp	r3, #2
 5021 423c 0100000A 		beq	.L1083
 5022              	.L1082:
 5023 4240 0000A0E3 		mov	r0, #0
 5024 4244 1EFF2FE1 		bx	lr
 5025              	.L1083:
 5026 4248 380A90E5 		ldr	r0, [r0, #2616]
 5027 424c 000090E2 		adds	r0, r0, #0
 5028 4250 0100A013 		movne	r0, #1
 5029 4254 1EFF2FE1 		bx	lr
 5030              	.L1085:
 5031              		.align	2
 5032              	.L1084:
 5033 4258 00000000 		.word	.LANCHOR1
 5034              		.size	IsHub, .-IsHub
 5035              		.align	2
 5036              		.global	IsHid
 5037              		.syntax unified
 5038              		.arm
 5039              		.fpu vfp
 5040              		.type	IsHid, %function
 5041              	IsHid:
 5042              		@ args = 0, pretend = 0, frame = 0
 5043              		@ frame_needed = 0, uses_anonymous_args = 0
 5044              		@ link register save eliminated.
 5045 425c 010040E2 		sub	r0, r0, #1
 5046 4260 7030EFE6 		uxtb	r3, r0
 5047 4264 1F0053E3 		cmp	r3, #31
 5048 4268 0500008A 		bhi	.L1089
 5049 426c 28309FE5 		ldr	r3, .L1091
 5050 4270 000360E0 		rsb	r0, r0, r0, lsl #6
 5051 4274 000283E0 		add	r0, r3, r0, lsl #4
 5052 4278 363AD0E5 		ldrb	r3, [r0, #2614]	@ zero_extendqisi2
 5053 427c 030053E3 		cmp	r3, #3
 5054 4280 0100000A 		beq	.L1090
 5055              	.L1089:
 5056 4284 0000A0E3 		mov	r0, #0
 5057 4288 1EFF2FE1 		bx	lr
 5058              	.L1090:
 5059 428c 380A90E5 		ldr	r0, [r0, #2616]
 5060 4290 000090E2 		adds	r0, r0, #0
 5061 4294 0100A013 		movne	r0, #1
 5062 4298 1EFF2FE1 		bx	lr
 5063              	.L1092:
 5064              		.align	2
 5065              	.L1091:
 5066 429c 00000000 		.word	.LANCHOR1
 5067              		.size	IsHid, .-IsHid
 5068              		.align	2
 5069              		.global	IsMassStorage
 5070              		.syntax unified
 5071              		.arm
 5072              		.fpu vfp
 5073              		.type	IsMassStorage, %function
ARM GAS  C:\Users\ldebo\AppData\Local\Temp\ccISOhOE.s 			page 90


 5074              	IsMassStorage:
 5075              		@ args = 0, pretend = 0, frame = 0
 5076              		@ frame_needed = 0, uses_anonymous_args = 0
 5077              		@ link register save eliminated.
 5078 42a0 010040E2 		sub	r0, r0, #1
 5079 42a4 7030EFE6 		uxtb	r3, r0
 5080 42a8 1F0053E3 		cmp	r3, #31
 5081 42ac 0500008A 		bhi	.L1096
 5082 42b0 28309FE5 		ldr	r3, .L1098
 5083 42b4 000360E0 		rsb	r0, r0, r0, lsl #6
 5084 42b8 000283E0 		add	r0, r3, r0, lsl #4
 5085 42bc 363AD0E5 		ldrb	r3, [r0, #2614]	@ zero_extendqisi2
 5086 42c0 040053E3 		cmp	r3, #4
 5087 42c4 0100000A 		beq	.L1097
 5088              	.L1096:
 5089 42c8 0000A0E3 		mov	r0, #0
 5090 42cc 1EFF2FE1 		bx	lr
 5091              	.L1097:
 5092 42d0 380A90E5 		ldr	r0, [r0, #2616]
 5093 42d4 000090E2 		adds	r0, r0, #0
 5094 42d8 0100A013 		movne	r0, #1
 5095 42dc 1EFF2FE1 		bx	lr
 5096              	.L1099:
 5097              		.align	2
 5098              	.L1098:
 5099 42e0 00000000 		.word	.LANCHOR1
 5100              		.size	IsMassStorage, .-IsMassStorage
 5101              		.align	2
 5102              		.global	IsMouse
 5103              		.syntax unified
 5104              		.arm
 5105              		.fpu vfp
 5106              		.type	IsMouse, %function
 5107              	IsMouse:
 5108              		@ args = 0, pretend = 0, frame = 0
 5109              		@ frame_needed = 0, uses_anonymous_args = 0
 5110              		@ link register save eliminated.
 5111 42e4 010040E2 		sub	r0, r0, #1
 5112 42e8 7030EFE6 		uxtb	r3, r0
 5113 42ec 1F0053E3 		cmp	r3, #31
 5114 42f0 0500008A 		bhi	.L1103
 5115 42f4 38309FE5 		ldr	r3, .L1106
 5116 42f8 000360E0 		rsb	r0, r0, r0, lsl #6
 5117 42fc 000283E0 		add	r0, r3, r0, lsl #4
 5118 4300 363AD0E5 		ldrb	r3, [r0, #2614]	@ zero_extendqisi2
 5119 4304 030053E3 		cmp	r3, #3
 5120 4308 0100000A 		beq	.L1105
 5121              	.L1103:
 5122 430c 0000A0E3 		mov	r0, #0
 5123 4310 1EFF2FE1 		bx	lr
 5124              	.L1105:
 5125 4314 383A90E5 		ldr	r3, [r0, #2616]
 5126 4318 000053E3 		cmp	r3, #0
 5127 431c FAFFFF0A 		beq	.L1103
 5128 4320 6306D0E5 		ldrb	r0, [r0, #1635]	@ zero_extendqisi2
 5129 4324 020040E2 		sub	r0, r0, #2
 5130 4328 100F6FE1 		clz	r0, r0
ARM GAS  C:\Users\ldebo\AppData\Local\Temp\ccISOhOE.s 			page 91


 5131 432c A002A0E1 		lsr	r0, r0, #5
 5132 4330 1EFF2FE1 		bx	lr
 5133              	.L1107:
 5134              		.align	2
 5135              	.L1106:
 5136 4334 00000000 		.word	.LANCHOR1
 5137              		.size	IsMouse, .-IsMouse
 5138              		.align	2
 5139              		.global	IsKeyboard
 5140              		.syntax unified
 5141              		.arm
 5142              		.fpu vfp
 5143              		.type	IsKeyboard, %function
 5144              	IsKeyboard:
 5145              		@ args = 0, pretend = 0, frame = 0
 5146              		@ frame_needed = 0, uses_anonymous_args = 0
 5147              		@ link register save eliminated.
 5148 4338 010040E2 		sub	r0, r0, #1
 5149 433c 7030EFE6 		uxtb	r3, r0
 5150 4340 1F0053E3 		cmp	r3, #31
 5151 4344 0500008A 		bhi	.L1111
 5152 4348 38309FE5 		ldr	r3, .L1114
 5153 434c 000360E0 		rsb	r0, r0, r0, lsl #6
 5154 4350 000283E0 		add	r0, r3, r0, lsl #4
 5155 4354 363AD0E5 		ldrb	r3, [r0, #2614]	@ zero_extendqisi2
 5156 4358 030053E3 		cmp	r3, #3
 5157 435c 0100000A 		beq	.L1113
 5158              	.L1111:
 5159 4360 0000A0E3 		mov	r0, #0
 5160 4364 1EFF2FE1 		bx	lr
 5161              	.L1113:
 5162 4368 383A90E5 		ldr	r3, [r0, #2616]
 5163 436c 000053E3 		cmp	r3, #0
 5164 4370 FAFFFF0A 		beq	.L1111
 5165 4374 6306D0E5 		ldrb	r0, [r0, #1635]	@ zero_extendqisi2
 5166 4378 010040E2 		sub	r0, r0, #1
 5167 437c 100F6FE1 		clz	r0, r0
 5168 4380 A002A0E1 		lsr	r0, r0, #5
 5169 4384 1EFF2FE1 		bx	lr
 5170              	.L1115:
 5171              		.align	2
 5172              	.L1114:
 5173 4388 00000000 		.word	.LANCHOR1
 5174              		.size	IsKeyboard, .-IsKeyboard
 5175              		.align	2
 5176              		.global	UsbGetRootHub
 5177              		.syntax unified
 5178              		.arm
 5179              		.fpu vfp
 5180              		.type	UsbGetRootHub, %function
 5181              	UsbGetRootHub:
 5182              		@ args = 0, pretend = 0, frame = 0
 5183              		@ frame_needed = 0, uses_anonymous_args = 0
 5184              		@ link register save eliminated.
 5185 438c 10209FE5 		ldr	r2, .L1119
 5186 4390 10309FE5 		ldr	r3, .L1119+4
 5187 4394 360AD2E5 		ldrb	r0, [r2, #2614]	@ zero_extendqisi2
ARM GAS  C:\Users\ldebo\AppData\Local\Temp\ccISOhOE.s 			page 92


 5188 4398 000050E3 		cmp	r0, #0
 5189 439c 0300A011 		movne	r0, r3
 5190 43a0 1EFF2FE1 		bx	lr
 5191              	.L1120:
 5192              		.align	2
 5193              	.L1119:
 5194 43a4 00000000 		.word	.LANCHOR1
 5195 43a8 4C060000 		.word	.LANCHOR1+1612
 5196              		.size	UsbGetRootHub, .-UsbGetRootHub
 5197              		.align	2
 5198              		.global	UsbDeviceAtAddress
 5199              		.syntax unified
 5200              		.arm
 5201              		.fpu vfp
 5202              		.type	UsbDeviceAtAddress, %function
 5203              	UsbDeviceAtAddress:
 5204              		@ args = 0, pretend = 0, frame = 0
 5205              		@ frame_needed = 0, uses_anonymous_args = 0
 5206              		@ link register save eliminated.
 5207 43ac 000050E3 		cmp	r0, #0
 5208 43b0 1EFF2F01 		bxeq	lr
 5209 43b4 010040E2 		sub	r0, r0, #1
 5210 43b8 000360E0 		rsb	r0, r0, r0, lsl #6
 5211 43bc 1C309FE5 		ldr	r3, .L1125
 5212 43c0 0002A0E1 		lsl	r0, r0, #4
 5213 43c4 003083E0 		add	r3, r3, r0
 5214 43c8 363AD3E5 		ldrb	r3, [r3, #2614]	@ zero_extendqisi2
 5215 43cc 000053E3 		cmp	r3, #0
 5216 43d0 0C309F15 		ldrne	r3, .L1125+4
 5217 43d4 00008310 		addne	r0, r3, r0
 5218 43d8 0300A001 		moveq	r0, r3
 5219 43dc 1EFF2FE1 		bx	lr
 5220              	.L1126:
 5221              		.align	2
 5222              	.L1125:
 5223 43e0 00000000 		.word	.LANCHOR1
 5224 43e4 4C060000 		.word	.LANCHOR1+1612
 5225              		.size	UsbDeviceAtAddress, .-UsbDeviceAtAddress
 5226              		.align	2
 5227              		.global	UsbGetDescription
 5228              		.syntax unified
 5229              		.arm
 5230              		.fpu vfp
 5231              		.type	UsbGetDescription, %function
 5232              	UsbGetDescription:
 5233              		@ args = 0, pretend = 0, frame = 0
 5234              		@ frame_needed = 0, uses_anonymous_args = 0
 5235              		@ link register save eliminated.
 5236 43e8 0A30D0E5 		ldrb	r3, [r0, #10]	@ zero_extendqisi2
 5237 43ec 000053E3 		cmp	r3, #0
 5238 43f0 0D00000A 		beq	.L1134
 5239 43f4 010053E3 		cmp	r3, #1
 5240 43f8 0D00000A 		beq	.L1135
 5241 43fc C8209FE5 		ldr	r2, .L1154
 5242 4400 020050E1 		cmp	r0, r2
 5243 4404 2400000A 		beq	.L1136
 5244 4408 DC23D0E5 		ldrb	r2, [r0, #988]	@ zero_extendqisi2
ARM GAS  C:\Users\ldebo\AppData\Local\Temp\ccISOhOE.s 			page 93


 5245 440c 090052E3 		cmp	r2, #9
 5246 4410 1400000A 		beq	.L1129
 5247 4414 FF0052E3 		cmp	r2, #255
 5248 4418 0B00000A 		beq	.L1130
 5249 441c 000052E3 		cmp	r2, #0
 5250 4420 0500000A 		beq	.L1151
 5251 4424 A4009FE5 		ldr	r0, .L1154+4
 5252 4428 1EFF2FE1 		bx	lr
 5253              	.L1134:
 5254 442c A0009FE5 		ldr	r0, .L1154+8
 5255 4430 1EFF2FE1 		bx	lr
 5256              	.L1135:
 5257 4434 9C009FE5 		ldr	r0, .L1154+12
 5258 4438 1EFF2FE1 		bx	lr
 5259              	.L1151:
 5260 443c 040053E3 		cmp	r3, #4
 5261 4440 0700000A 		beq	.L1133
 5262 4444 90009FE5 		ldr	r0, .L1154+16
 5263 4448 1EFF2FE1 		bx	lr
 5264              	.L1130:
 5265 444c 8C209FE5 		ldr	r2, .L1154+20
 5266 4450 E01390E5 		ldr	r1, [r0, #992]
 5267 4454 020051E1 		cmp	r1, r2
 5268 4458 1300000A 		beq	.L1152
 5269 445c 040053E3 		cmp	r3, #4
 5270 4460 0F00001A 		bne	.L1153
 5271              	.L1133:
 5272 4464 E5EEFFEA 		b	UsbGetDescription.part.2
 5273              	.L1129:
 5274 4468 F60F80E2 		add	r0, r0, #984
 5275 446c B230D0E1 		ldrh	r3, [r0, #2]
 5276 4470 210E53E3 		cmp	r3, #528
 5277 4474 0E00000A 		beq	.L1138
 5278 4478 020C53E3 		cmp	r3, #512
 5279 447c 0E00000A 		beq	.L1139
 5280 4480 110E53E3 		cmp	r3, #272
 5281 4484 0E00000A 		beq	.L1140
 5282 4488 54009FE5 		ldr	r0, .L1154+24
 5283 448c 010C53E3 		cmp	r3, #256
 5284 4490 102080E2 		add	r2, r0, #16
 5285 4494 0200A011 		movne	r0, r2
 5286 4498 1EFF2FE1 		bx	lr
 5287              	.L1136:
 5288 449c 44009FE5 		ldr	r0, .L1154+28
 5289 44a0 1EFF2FE1 		bx	lr
 5290              	.L1153:
 5291 44a4 40009FE5 		ldr	r0, .L1154+32
 5292 44a8 1EFF2FE1 		bx	lr
 5293              	.L1152:
 5294 44ac 3C009FE5 		ldr	r0, .L1154+36
 5295 44b0 1EFF2FE1 		bx	lr
 5296              	.L1138:
 5297 44b4 38009FE5 		ldr	r0, .L1154+40
 5298 44b8 1EFF2FE1 		bx	lr
 5299              	.L1139:
 5300 44bc 34009FE5 		ldr	r0, .L1154+44
 5301 44c0 1EFF2FE1 		bx	lr
ARM GAS  C:\Users\ldebo\AppData\Local\Temp\ccISOhOE.s 			page 94


 5302              	.L1140:
 5303 44c4 30009FE5 		ldr	r0, .L1154+48
 5304 44c8 1EFF2FE1 		bx	lr
 5305              	.L1155:
 5306              		.align	2
 5307              	.L1154:
 5308 44cc 4C060000 		.word	.LANCHOR1+1612
 5309 44d0 D4010000 		.word	.LANCHOR0+468
 5310 44d4 5C020000 		.word	.LANCHOR0+604
 5311 44d8 74020000 		.word	.LANCHOR0+628
 5312 44dc B0020000 		.word	.LANCHOR0+688
 5313 44e0 240400EC 		.word	-335543260
 5314 44e4 D4000000 		.word	.LANCHOR0+212
 5315 44e8 90020000 		.word	.LANCHOR0+656
 5316 44ec C0010000 		.word	.LANCHOR0+448
 5317 44f0 A0020000 		.word	.LANCHOR0+672
 5318 44f4 A4000000 		.word	.LANCHOR0+164
 5319 44f8 B4000000 		.word	.LANCHOR0+180
 5320 44fc C4000000 		.word	.LANCHOR0+196
 5321              		.size	UsbGetDescription, .-UsbGetDescription
 5322              		.align	2
 5323              		.global	EnumerateDevice
 5324              		.syntax unified
 5325              		.arm
 5326              		.fpu vfp
 5327              		.type	EnumerateDevice, %function
 5328              	EnumerateDevice:
 5329              		@ args = 0, pretend = 0, frame = 1384
 5330              		@ frame_needed = 0, uses_anonymous_args = 0
 5331 4500 F04F2DE9 		push	{r4, r5, r6, r7, r8, r9, r10, fp, lr}
 5332 4504 00B0A0E1 		mov	fp, r0
 5333 4508 0040A0E3 		mov	r4, #0
 5334 450c 0400A0E3 		mov	r0, #4
 5335 4510 018CA0E3 		mov	r8, #256
 5336 4514 0860A0E3 		mov	r6, #8
 5337 4518 7FE0E0E3 		mvn	lr, #127
 5338 451c 06C0A0E3 		mov	ip, #6
 5339 4520 0430DBE5 		ldrb	r3, [fp, #4]	@ zero_extendqisi2
 5340 4524 16DD4DE2 		sub	sp, sp, #1408
 5341 4528 0330C3E3 		bic	r3, r3, #3
 5342 452c 0430CBE5 		strb	r3, [fp, #4]
 5343 4530 A4AC9FE5 		ldr	r10, .L1365
 5344 4534 7370EFE6 		uxtb	r7, r3
 5345 4538 0530DBE5 		ldrb	r3, [fp, #5]	@ zero_extendqisi2
 5346 453c 04D04DE2 		sub	sp, sp, #4
 5347 4540 2C408DE5 		str	r4, [sp, #44]
 5348 4544 1C308DE5 		str	r3, [sp, #28]
 5349 4548 0540CBE5 		strb	r4, [fp, #5]
 5350 454c 0830DAE5 		ldrb	r3, [r10, #8]	@ zero_extendqisi2
 5351 4550 2D00CDE5 		strb	r0, [sp, #45]
 5352 4554 70508DE2 		add	r5, sp, #112
 5353 4558 04909BE5 		ldr	r9, [fp, #4]
 5354 455c 2C009DE5 		ldr	r0, [sp, #44]
 5355 4560 040053E1 		cmp	r3, r4
 5356 4564 044005E4 		str	r4, [r5], #-4
 5357 4568 48308DE2 		add	r3, sp, #72
 5358 456c 38908DE5 		str	r9, [sp, #56]
ARM GAS  C:\Users\ldebo\AppData\Local\Temp\ccISOhOE.s 			page 95


 5359 4570 B280C3E1 		strh	r8, [r3, #2]	@ movhi
 5360 4574 20108DE5 		str	r1, [sp, #32]
 5361 4578 24208DE5 		str	r2, [sp, #36]
 5362 457c 6C408DE5 		str	r4, [sp, #108]
 5363 4580 3C008DE5 		str	r0, [sp, #60]
 5364 4584 084085E5 		str	r4, [r5, #8]
 5365 4588 0C4085E5 		str	r4, [r5, #12]
 5366 458c B041C5E1 		strh	r4, [r5, #16]	@ movhi
 5367 4590 B440C3E1 		strh	r4, [r3, #4]	@ movhi
 5368 4594 B660C3E1 		strh	r6, [r3, #6]	@ movhi
 5369 4598 0680DBE5 		ldrb	r8, [fp, #6]	@ zero_extendqisi2
 5370 459c 0790DBE5 		ldrb	r9, [fp, #7]	@ zero_extendqisi2
 5371 45a0 48E0CDE5 		strb	lr, [sp, #72]
 5372 45a4 49C0CDE5 		strb	ip, [sp, #73]
 5373 45a8 9800000A 		beq	.L1353
 5374 45ac 03C0A0E3 		mov	ip, #3
 5375 45b0 2024A0E1 		lsr	r2, r0, #8
 5376 45b4 FB2002E2 		and	r2, r2, #251
 5377 45b8 80008DE5 		str	r0, [sp, #128]
 5378 45bc 3940CDE5 		strb	r4, [sp, #57]
 5379 45c0 8120CDE5 		strb	r2, [sp, #129]
 5380 45c4 3A80CDE5 		strb	r8, [sp, #58]
 5381 45c8 3B90CDE5 		strb	r9, [sp, #59]
 5382 45cc 0320A0E1 		mov	r2, r3
 5383 45d0 80109DE5 		ldr	r1, [sp, #128]
 5384 45d4 38009DE5 		ldr	r0, [sp, #56]
 5385 45d8 00C08DE5 		str	ip, [sp]
 5386 45dc 0630A0E1 		mov	r3, r6
 5387 45e0 FEFFFFEB 		bl	HCDChannelTransfer
 5388 45e4 000050E3 		cmp	r0, #0
 5389 45e8 1B00000A 		beq	.L1159
 5390 45ec 00509AE5 		ldr	r5, [r10]
 5391 45f0 000055E3 		cmp	r5, #0
 5392 45f4 5F00000A 		beq	.L1344
 5393 45f8 2771A0E1 		lsr	r7, r7, #2
 5394 45fc 037007E2 		and	r7, r7, #3
 5395 4600 10008DE5 		str	r0, [sp, #16]
 5396 4604 4830DDE5 		ldrb	r3, [sp, #72]	@ zero_extendqisi2
 5397 4608 4920DDE5 		ldrb	r2, [sp, #73]	@ zero_extendqisi2
 5398 460c 10038DE9 		stmib	sp, {r4, r8, r9}
 5399 4610 00708DE5 		str	r7, [sp]
 5400 4614 0410A0E1 		mov	r1, r4
 5401 4618 C00B9FE5 		ldr	r0, .L1365+4
 5402 461c 35FF2FE1 		blx	r5
 5403 4620 28609DE5 		ldr	r6, [sp, #40]
 5404              	.L1161:
 5405 4624 080056E3 		cmp	r6, #8
 5406 4628 7E00000A 		beq	.L1158
 5407 462c 00309AE5 		ldr	r3, [r10]
 5408 4630 000053E3 		cmp	r3, #0
 5409 4634 0300000A 		beq	.L1346
 5410 4638 1C109DE5 		ldr	r1, [sp, #28]
 5411 463c 0020A0E3 		mov	r2, #0
 5412 4640 9C0B9FE5 		ldr	r0, .L1365+8
 5413 4644 33FF2FE1 		blx	r3
 5414              	.L1346:
 5415 4648 0040A0E3 		mov	r4, #0
ARM GAS  C:\Users\ldebo\AppData\Local\Temp\ccISOhOE.s 			page 96


 5416              	.L1266:
 5417 464c 0400A0E1 		mov	r0, r4
 5418 4650 16DD8DE2 		add	sp, sp, #1408
 5419 4654 04D08DE2 		add	sp, sp, #4
 5420              		@ sp needed
 5421 4658 F08FBDE8 		pop	{r4, r5, r6, r7, r8, r9, r10, fp, pc}
 5422              	.L1159:
 5423 465c 3D30DDE5 		ldrb	r3, [sp, #61]	@ zero_extendqisi2
 5424 4660 0220A0E3 		mov	r2, #2
 5425 4664 040013E3 		tst	r3, #4
 5426 4668 8130DDE5 		ldrb	r3, [sp, #129]	@ zero_extendqisi2
 5427 466c 4300001A 		bne	.L1162
 5428 4670 6C009DE5 		ldr	r0, [sp, #108]
 5429 4674 043083E3 		orr	r3, r3, #4
 5430 4678 8130CDE5 		strb	r3, [sp, #129]
 5431 467c 70C09DE5 		ldr	ip, [sp, #112]
 5432 4680 064D8DE2 		add	r4, sp, #384
 5433 4684 00208DE5 		str	r2, [sp]
 5434 4688 80018DE5 		str	r0, [sp, #384]
 5435 468c 80109DE5 		ldr	r1, [sp, #128]
 5436 4690 0420A0E1 		mov	r2, r4
 5437 4694 0630A0E1 		mov	r3, r6
 5438 4698 38009DE5 		ldr	r0, [sp, #56]
 5439 469c 84C18DE5 		str	ip, [sp, #388]
 5440 46a0 FEFFFFEB 		bl	HCDChannelTransfer
 5441 46a4 000050E3 		cmp	r0, #0
 5442 46a8 1A00000A 		beq	.L1163
 5443              	.L1227:
 5444 46ac 00309AE5 		ldr	r3, [r10]
 5445 46b0 000053E3 		cmp	r3, #0
 5446 46b4 2F00000A 		beq	.L1344
 5447 46b8 0010A0E3 		mov	r1, #0
 5448 46bc 240B9FE5 		ldr	r0, .L1365+12
 5449 46c0 33FF2FE1 		blx	r3
 5450 46c4 28609DE5 		ldr	r6, [sp, #40]
 5451 46c8 D5FFFFEA 		b	.L1161
 5452              	.L1233:
 5453 46cc 0030A0E1 		mov	r3, r0
 5454              	.L1165:
 5455 46d0 162D8DE2 		add	r2, sp, #1408
 5456 46d4 002082E0 		add	r2, r2, r0
 5457 46d8 001452E5 		ldrb	r1, [r2, #-1024]	@ zero_extendqisi2
 5458 46dc 16CD8DE2 		add	ip, sp, #1408
 5459 46e0 012080E2 		add	r2, r0, #1
 5460 46e4 03308CE0 		add	r3, ip, r3
 5461 46e8 020056E1 		cmp	r6, r2
 5462 46ec 141543E5 		strb	r1, [r3, #-1300]
 5463 46f0 0800009A 		bls	.L1163
 5464 46f4 02308CE0 		add	r3, ip, r2
 5465 46f8 020080E2 		add	r0, r0, #2
 5466 46fc 002453E5 		ldrb	r2, [r3, #-1024]	@ zero_extendqisi2
 5467 4700 000056E1 		cmp	r6, r0
 5468 4704 142543E5 		strb	r2, [r3, #-1300]
 5469 4708 163D8D82 		addhi	r3, sp, #1408
 5470 470c 00008380 		addhi	r0, r3, r0
 5471 4710 00345085 		ldrbhi	r3, [r0, #-1024]	@ zero_extendqisi2
 5472 4714 14354085 		strbhi	r3, [r0, #-1300]
ARM GAS  C:\Users\ldebo\AppData\Local\Temp\ccISOhOE.s 			page 97


 5473              	.L1163:
 5474 4718 3DC0DDE5 		ldrb	ip, [sp, #61]	@ zero_extendqisi2
 5475 471c 0200A0E3 		mov	r0, #2
 5476 4720 04C08CE3 		orr	ip, ip, #4
 5477 4724 0C30E0E1 		mvn	r3, ip
 5478 4728 8120DDE5 		ldrb	r2, [sp, #129]	@ zero_extendqisi2
 5479 472c 043003E2 		and	r3, r3, #4
 5480 4730 0420C2E3 		bic	r2, r2, #4
 5481 4734 023083E1 		orr	r3, r3, r2
 5482 4738 8130CDE5 		strb	r3, [sp, #129]
 5483 473c 00008DE5 		str	r0, [sp]
 5484 4740 0420A0E1 		mov	r2, r4
 5485 4744 80109DE5 		ldr	r1, [sp, #128]
 5486 4748 0030A0E3 		mov	r3, #0
 5487 474c 38009DE5 		ldr	r0, [sp, #56]
 5488 4750 3DC0CDE5 		strb	ip, [sp, #61]
 5489 4754 FEFFFFEB 		bl	HCDChannelTransfer
 5490 4758 000050E3 		cmp	r0, #0
 5491 475c 5D00000A 		beq	.L1170
 5492 4760 00309AE5 		ldr	r3, [r10]
 5493 4764 000053E3 		cmp	r3, #0
 5494 4768 0200000A 		beq	.L1344
 5495 476c 0010A0E3 		mov	r1, #0
 5496 4770 740A9FE5 		ldr	r0, .L1365+16
 5497 4774 33FF2FE1 		blx	r3
 5498              	.L1344:
 5499 4778 28609DE5 		ldr	r6, [sp, #40]
 5500 477c A8FFFFEA 		b	.L1161
 5501              	.L1162:
 5502 4780 043083E3 		orr	r3, r3, #4
 5503 4784 8130CDE5 		strb	r3, [sp, #129]
 5504 4788 064D8DE2 		add	r4, sp, #384
 5505 478c 00208DE5 		str	r2, [sp]
 5506 4790 0630A0E1 		mov	r3, r6
 5507 4794 80109DE5 		ldr	r1, [sp, #128]
 5508 4798 0420A0E1 		mov	r2, r4
 5509 479c 38009DE5 		ldr	r0, [sp, #56]
 5510 47a0 FEFFFFEB 		bl	HCDChannelTransfer
 5511 47a4 000050E3 		cmp	r0, #0
 5512 47a8 BFFFFF1A 		bne	.L1227
 5513 47ac 3C3A9FE5 		ldr	r3, .L1365+20
 5514 47b0 003093E5 		ldr	r3, [r3]
 5515 47b4 263783E2 		add	r3, r3, #9961472
 5516 47b8 053C83E2 		add	r3, r3, #1280
 5517 47bc 103093E5 		ldr	r3, [r3, #16]
 5518 47c0 FF34C3E3 		bic	r3, r3, #-16777216
 5519 47c4 3E37C3E3 		bic	r3, r3, #16252928
 5520 47c8 086073E2 		rsbs	r6, r3, #8
 5521 47cc D1FFFF0A 		beq	.L1163
 5522 47d0 042063E2 		rsb	r2, r3, #4
 5523 47d4 2221A0E1 		lsr	r2, r2, #2
 5524 47d8 073063E2 		rsb	r3, r3, #7
 5525 47dc 012082E2 		add	r2, r2, #1
 5526 47e0 020053E3 		cmp	r3, #2
 5527 47e4 0231A0E1 		lsl	r3, r2, #2
 5528 47e8 B7FFFF9A 		bls	.L1233
 5529              	.L1166:
ARM GAS  C:\Users\ldebo\AppData\Local\Temp\ccISOhOE.s 			page 98


 5530 47ec 001194E7 		ldr	r1, [r4, r0, lsl #2]
 5531 47f0 001185E7 		str	r1, [r5, r0, lsl #2]
 5532 47f4 010080E2 		add	r0, r0, #1
 5533 47f8 020050E1 		cmp	r0, r2
 5534 47fc FAFFFF3A 		bcc	.L1166
 5535 4800 030056E1 		cmp	r6, r3
 5536 4804 0300A0E1 		mov	r0, r3
 5537 4808 B0FFFF1A 		bne	.L1165
 5538 480c C1FFFFEA 		b	.L1163
 5539              	.L1353:
 5540 4810 DC399FE5 		ldr	r3, .L1365+24
 5541 4814 28608DE5 		str	r6, [sp, #40]
 5542 4818 E42193E5 		ldr	r2, [r3, #484]
 5543 481c E83193E5 		ldr	r3, [r3, #488]
 5544 4820 6C208DE5 		str	r2, [sp, #108]
 5545 4824 70308DE5 		str	r3, [sp, #112]
 5546              	.L1158:
 5547 4828 7330DDE5 		ldrb	r3, [sp, #115]	@ zero_extendqisi2
 5548 482c 080053E3 		cmp	r3, #8
 5549 4830 0030A093 		movls	r3, #0
 5550 4834 3800008A 		bhi	.L1354
 5551              	.L1175:
 5552 4838 0210A0E3 		mov	r1, #2
 5553 483c 0420DBE5 		ldrb	r2, [fp, #4]	@ zero_extendqisi2
 5554 4840 20009DE5 		ldr	r0, [sp, #32]
 5555 4844 0320C2E3 		bic	r2, r2, #3
 5556 4848 023083E1 		orr	r3, r3, r2
 5557 484c 000050E3 		cmp	r0, #0
 5558 4850 0430CBE5 		strb	r3, [fp, #4]
 5559 4854 0A10CBE5 		strb	r1, [fp, #10]
 5560 4858 3600000A 		beq	.L1176
 5561 485c 24109DE5 		ldr	r1, [sp, #36]
 5562 4860 FEFFFFEB 		bl	HubPortReset
 5563 4864 004050E2 		subs	r4, r0, #0
 5564 4868 3200000A 		beq	.L1176
 5565 486c 00509AE5 		ldr	r5, [r10]
 5566 4870 000055E3 		cmp	r5, #0
 5567 4874 1100000A 		beq	.L1225
 5568 4878 0A30DBE5 		ldrb	r3, [fp, #10]	@ zero_extendqisi2
 5569 487c 000053E3 		cmp	r3, #0
 5570 4880 6800000A 		beq	.L1237
 5571 4884 010053E3 		cmp	r3, #1
 5572 4888 8400000A 		beq	.L1238
 5573 488c 64299FE5 		ldr	r2, .L1365+28
 5574 4890 02005BE1 		cmp	fp, r2
 5575 4894 A700000A 		beq	.L1239
 5576 4898 DC23DBE5 		ldrb	r2, [fp, #988]	@ zero_extendqisi2
 5577 489c 090052E3 		cmp	r2, #9
 5578 48a0 7100000A 		beq	.L1179
 5579 48a4 FF0052E3 		cmp	r2, #255
 5580 48a8 6700000A 		beq	.L1180
 5581 48ac 000052E3 		cmp	r2, #0
 5582 48b0 44199F15 		ldrne	r1, .L1365+32
 5583 48b4 5D00000A 		beq	.L1355
 5584              	.L1178:
 5585 48b8 40099FE5 		ldr	r0, .L1365+36
 5586 48bc 35FF2FE1 		blx	r5
ARM GAS  C:\Users\ldebo\AppData\Local\Temp\ccISOhOE.s 			page 99


 5587              	.L1225:
 5588 48c0 0400A0E1 		mov	r0, r4
 5589 48c4 1C30DDE5 		ldrb	r3, [sp, #28]	@ zero_extendqisi2
 5590 48c8 0530CBE5 		strb	r3, [fp, #5]
 5591 48cc 16DD8DE2 		add	sp, sp, #1408
 5592 48d0 04D08DE2 		add	sp, sp, #4
 5593              		@ sp needed
 5594 48d4 F08FBDE8 		pop	{r4, r5, r6, r7, r8, r9, r10, fp, pc}
 5595              	.L1170:
 5596 48d8 10399FE5 		ldr	r3, .L1365+20
 5597 48dc 20299FE5 		ldr	r2, .L1365+40
 5598 48e0 003093E5 		ldr	r3, [r3]
 5599 48e4 263783E2 		add	r3, r3, #9961472
 5600 48e8 101593E5 		ldr	r1, [r3, #1296]
 5601 48ec 053C83E2 		add	r3, r3, #1280
 5602 48f0 020011E1 		tst	r1, r2
 5603 48f4 0600000A 		beq	.L1172
 5604 48f8 04409AE5 		ldr	r4, [r10, #4]
 5605 48fc 000054E3 		cmp	r4, #0
 5606 4900 0300000A 		beq	.L1172
 5607 4904 101093E5 		ldr	r1, [r3, #16]
 5608 4908 F8089FE5 		ldr	r0, .L1365+44
 5609 490c 021001E0 		and	r1, r1, r2
 5610 4910 34FF2FE1 		blx	r4
 5611              	.L1172:
 5612 4914 28608DE5 		str	r6, [sp, #40]
 5613 4918 41FFFFEA 		b	.L1161
 5614              	.L1354:
 5615 491c 100053E3 		cmp	r3, #16
 5616 4920 0130A093 		movls	r3, #1
 5617 4924 C3FFFF9A 		bls	.L1175
 5618 4928 200053E3 		cmp	r3, #32
 5619 492c 0330A083 		movhi	r3, #3
 5620 4930 0230A093 		movls	r3, #2
 5621 4934 BFFFFFEA 		b	.L1175
 5622              	.L1176:
 5623 4938 1CC09DE5 		ldr	ip, [sp, #28]
 5624 493c 04009BE5 		ldr	r0, [fp, #4]
 5625 4940 00005CE3 		cmp	ip, #0
 5626 4944 40008DE5 		str	r0, [sp, #64]
 5627 4948 2E00000A 		beq	.L1247
 5628 494c 0010A0E3 		mov	r1, #0
 5629 4950 0530A0E3 		mov	r3, #5
 5630 4954 58208DE2 		add	r2, sp, #88
 5631 4958 58108DE5 		str	r1, [sp, #88]
 5632 495c 44108DE5 		str	r1, [sp, #68]
 5633 4960 5C108DE5 		str	r1, [sp, #92]
 5634 4964 BAC5CDE1 		strh	ip, [sp, #90]	@ movhi
 5635 4968 5930CDE5 		strb	r3, [sp, #89]
 5636 496c 75F4FFEB 		bl	HCDSubmitControlMessage.constprop.6
 5637 4970 004050E2 		subs	r4, r0, #0
 5638 4974 2400001A 		bne	.L1183
 5639 4978 1C30DDE5 		ldrb	r3, [sp, #28]	@ zero_extendqisi2
 5640 497c 88089FE5 		ldr	r0, .L1365+48
 5641 4980 0530CBE5 		strb	r3, [fp, #5]
 5642 4984 0010A0E3 		mov	r1, #0
 5643 4988 FEFFFFEB 		bl	timer_wait
ARM GAS  C:\Users\ldebo\AppData\Local\Temp\ccISOhOE.s 			page 100


 5644 498c 0330A0E3 		mov	r3, #3
 5645 4990 0110A0E3 		mov	r1, #1
 5646 4994 8000A0E3 		mov	r0, #128
 5647 4998 1220A0E3 		mov	r2, #18
 5648 499c 30508DE2 		add	r5, sp, #48
 5649 49a0 08C045E2 		sub	ip, r5, #8
 5650 49a4 0CC08DE5 		str	ip, [sp, #12]
 5651 49a8 0A30CBE5 		strb	r3, [fp, #10]
 5652 49ac F63F8BE2 		add	r3, fp, #984
 5653 49b0 04208DE5 		str	r2, [sp, #4]
 5654 49b4 00308DE5 		str	r3, [sp]
 5655 49b8 10108DE5 		str	r1, [sp, #16]
 5656 49bc 08008DE5 		str	r0, [sp, #8]
 5657 49c0 0430A0E1 		mov	r3, r4
 5658 49c4 0420A0E1 		mov	r2, r4
 5659 49c8 04009BE5 		ldr	r0, [fp, #4]
 5660 49cc FEFFFFEB 		bl	HCDGetDescriptor
 5661 49d0 000050E3 		cmp	r0, #0
 5662 49d4 0040A0E1 		mov	r4, r0
 5663 49d8 0200001A 		bne	.L1222
 5664 49dc 28309DE5 		ldr	r3, [sp, #40]
 5665 49e0 120053E3 		cmp	r3, #18
 5666 49e4 2F00000A 		beq	.L1185
 5667              	.L1222:
 5668 49e8 00309AE5 		ldr	r3, [r10]
 5669 49ec 000053E3 		cmp	r3, #0
 5670 49f0 15FFFF0A 		beq	.L1266
 5671 49f4 0020A0E1 		mov	r2, r0
 5672 49f8 0510DBE5 		ldrb	r1, [fp, #5]	@ zero_extendqisi2
 5673 49fc 0C089FE5 		ldr	r0, .L1365+52
 5674 4a00 33FF2FE1 		blx	r3
 5675 4a04 10FFFFEA 		b	.L1266
 5676              	.L1247:
 5677 4a08 0140E0E3 		mvn	r4, #1
 5678              	.L1183:
 5679 4a0c 00309AE5 		ldr	r3, [r10]
 5680 4a10 000053E3 		cmp	r3, #0
 5681 4a14 A9FFFF0A 		beq	.L1225
 5682 4a18 1C109DE5 		ldr	r1, [sp, #28]
 5683 4a1c F0079FE5 		ldr	r0, .L1365+56
 5684 4a20 33FF2FE1 		blx	r3
 5685 4a24 A5FFFFEA 		b	.L1225
 5686              	.L1237:
 5687 4a28 E8179FE5 		ldr	r1, .L1365+60
 5688 4a2c A1FFFFEA 		b	.L1178
 5689              	.L1355:
 5690 4a30 040053E3 		cmp	r3, #4
 5691 4a34 E0179F15 		ldrne	r1, .L1365+64
 5692 4a38 9EFFFF1A 		bne	.L1178
 5693              	.L1229:
 5694 4a3c 0B00A0E1 		mov	r0, fp
 5695 4a40 6EEDFFEB 		bl	UsbGetDescription.part.2
 5696 4a44 0010A0E1 		mov	r1, r0
 5697 4a48 9AFFFFEA 		b	.L1178
 5698              	.L1180:
 5699 4a4c CC279FE5 		ldr	r2, .L1365+68
 5700 4a50 E0139BE5 		ldr	r1, [fp, #992]
ARM GAS  C:\Users\ldebo\AppData\Local\Temp\ccISOhOE.s 			page 101


 5701 4a54 020051E1 		cmp	r1, r2
 5702 4a58 3400000A 		beq	.L1356
 5703 4a5c 040053E3 		cmp	r3, #4
 5704 4a60 BC179F15 		ldrne	r1, .L1365+72
 5705 4a64 F4FFFF0A 		beq	.L1229
 5706 4a68 92FFFFEA 		b	.L1178
 5707              	.L1179:
 5708 4a6c F63F8BE2 		add	r3, fp, #984
 5709 4a70 B230D3E1 		ldrh	r3, [r3, #2]
 5710 4a74 210E53E3 		cmp	r3, #528
 5711 4a78 3000000A 		beq	.L1241
 5712 4a7c 020C53E3 		cmp	r3, #512
 5713 4a80 3000000A 		beq	.L1242
 5714 4a84 110E53E3 		cmp	r3, #272
 5715 4a88 5800000A 		beq	.L1243
 5716 4a8c 94179FE5 		ldr	r1, .L1365+76
 5717 4a90 010C53E3 		cmp	r3, #256
 5718 4a94 102041E2 		sub	r2, r1, #16
 5719 4a98 0210A001 		moveq	r1, r2
 5720 4a9c 85FFFFEA 		b	.L1178
 5721              	.L1238:
 5722 4aa0 84179FE5 		ldr	r1, .L1365+80
 5723 4aa4 83FFFFEA 		b	.L1178
 5724              	.L1185:
 5725 4aa8 04309AE5 		ldr	r3, [r10, #4]
 5726 4aac 000053E3 		cmp	r3, #0
 5727 4ab0 0300000A 		beq	.L1186
 5728 4ab4 DC23DBE5 		ldrb	r2, [fp, #988]	@ zero_extendqisi2
 5729 4ab8 0510DBE5 		ldrb	r1, [fp, #5]	@ zero_extendqisi2
 5730 4abc 6C079FE5 		ldr	r0, .L1365+84
 5731 4ac0 33FF2FE1 		blx	r3
 5732              	.L1186:
 5733 4ac4 0100A0E3 		mov	r0, #1
 5734 4ac8 8010A0E3 		mov	r1, #128
 5735 4acc 0920A0E3 		mov	r2, #9
 5736 4ad0 0030A0E3 		mov	r3, #0
 5737 4ad4 60C08DE2 		add	ip, sp, #96
 5738 4ad8 08108DE5 		str	r1, [sp, #8]
 5739 4adc 04208DE5 		str	r2, [sp, #4]
 5740 4ae0 0C508DE5 		str	r5, [sp, #12]
 5741 4ae4 00C08DE5 		str	ip, [sp]
 5742 4ae8 10008DE5 		str	r0, [sp, #16]
 5743 4aec 0210A0E3 		mov	r1, #2
 5744 4af0 0320A0E1 		mov	r2, r3
 5745 4af4 04009BE5 		ldr	r0, [fp, #4]
 5746 4af8 FEFFFFEB 		bl	HCDGetDescriptor
 5747 4afc 001050E2 		subs	r1, r0, #0
 5748 4b00 0200001A 		bne	.L1187
 5749 4b04 30309DE5 		ldr	r3, [sp, #48]
 5750 4b08 090053E3 		cmp	r3, #9
 5751 4b0c 0F00000A 		beq	.L1188
 5752              	.L1187:
 5753 4b10 00309AE5 		ldr	r3, [r10]
 5754 4b14 000053E3 		cmp	r3, #0
 5755 4b18 0200000A 		beq	.L1347
 5756 4b1c 0520DBE5 		ldrb	r2, [fp, #5]	@ zero_extendqisi2
 5757 4b20 0C079FE5 		ldr	r0, .L1365+88
ARM GAS  C:\Users\ldebo\AppData\Local\Temp\ccISOhOE.s 			page 102


 5758 4b24 33FF2FE1 		blx	r3
 5759              	.L1347:
 5760 4b28 0340E0E3 		mvn	r4, #3
 5761 4b2c C6FEFFEA 		b	.L1266
 5762              	.L1356:
 5763 4b30 00179FE5 		ldr	r1, .L1365+92
 5764 4b34 5FFFFFEA 		b	.L1178
 5765              	.L1239:
 5766 4b38 FC169FE5 		ldr	r1, .L1365+96
 5767 4b3c 5DFFFFEA 		b	.L1178
 5768              	.L1241:
 5769 4b40 F8169FE5 		ldr	r1, .L1365+100
 5770 4b44 5BFFFFEA 		b	.L1178
 5771              	.L1242:
 5772 4b48 F4169FE5 		ldr	r1, .L1365+104
 5773 4b4c 59FFFFEA 		b	.L1178
 5774              	.L1188:
 5775 4b50 0AC0A0E3 		mov	ip, #10
 5776 4b54 0620A0E3 		mov	r2, #6
 5777 4b58 020CA0E3 		mov	r0, #512
 5778 4b5c 7FE0E0E3 		mvn	lr, #127
 5779 4b60 2134A0E1 		lsr	r3, r1, #8
 5780 4b64 7330EFE6 		uxtb	r3, r3
 5781 4b68 043083E3 		orr	r3, r3, #4
 5782 4b6c 34108DE5 		str	r1, [sp, #52]
 5783 4b70 3530CDE5 		strb	r3, [sp, #53]
 5784 4b74 50308DE2 		add	r3, sp, #80
 5785 4b78 08108DE8 		stm	sp, {r3, ip}
 5786 4b7c B2C6DDE1 		ldrh	ip, [sp, #98]
 5787 4b80 6630DDE5 		ldrb	r3, [sp, #102]	@ zero_extendqisi2
 5788 4b84 08508DE5 		str	r5, [sp, #8]
 5789 4b88 B415CDE1 		strh	r1, [sp, #84]	@ movhi
 5790 4b8c 0930CBE5 		strb	r3, [fp, #9]
 5791 4b90 5120CDE5 		strb	r2, [sp, #81]
 5792 4b94 B205CDE1 		strh	r0, [sp, #82]	@ movhi
 5793 4b98 34109DE5 		ldr	r1, [sp, #52]
 5794 4b9c 0C30A0E1 		mov	r3, ip
 5795 4ba0 062D8DE2 		add	r2, sp, #384
 5796 4ba4 04009BE5 		ldr	r0, [fp, #4]
 5797 4ba8 50E0CDE5 		strb	lr, [sp, #80]
 5798 4bac B6C5CDE1 		strh	ip, [sp, #86]	@ movhi
 5799 4bb0 6590DDE5 		ldrb	r9, [sp, #101]	@ zero_extendqisi2
 5800 4bb4 FEFFFFEB 		bl	HCDSubmitControlMessage
 5801 4bb8 004050E2 		subs	r4, r0, #0
 5802 4bbc 2F00001A 		bne	.L1190
 5803 4bc0 B206DDE1 		ldrh	r0, [sp, #98]
 5804 4bc4 30209DE5 		ldr	r2, [sp, #48]
 5805 4bc8 020050E1 		cmp	r0, r2
 5806 4bcc 0900000A 		beq	.L1357
 5807 4bd0 00509AE5 		ldr	r5, [r10]
 5808 4bd4 000055E3 		cmp	r5, #0
 5809 4bd8 D2FFFF0A 		beq	.L1347
 5810 4bdc 0430A0E1 		mov	r3, r4
 5811 4be0 0510DBE5 		ldrb	r1, [fp, #5]	@ zero_extendqisi2
 5812 4be4 5C069FE5 		ldr	r0, .L1365+108
 5813 4be8 35FF2FE1 		blx	r5
 5814 4bec CDFFFFEA 		b	.L1347
ARM GAS  C:\Users\ldebo\AppData\Local\Temp\ccISOhOE.s 			page 103


 5815              	.L1243:
 5816 4bf0 54169FE5 		ldr	r1, .L1365+112
 5817 4bf4 2FFFFFEA 		b	.L1178
 5818              	.L1357:
 5819 4bf8 010050E3 		cmp	r0, #1
 5820 4bfc 0450A0E1 		mov	r5, r4
 5821 4c00 1100000A 		beq	.L1192
 5822 4c04 0460A0E1 		mov	r6, r4
 5823 4c08 40769FE5 		ldr	r7, .L1365+116
 5824              	.L1205:
 5825 4c0c 011084E2 		add	r1, r4, #1
 5826 4c10 163D8DE2 		add	r3, sp, #1408
 5827 4c14 011083E0 		add	r1, r3, r1
 5828 4c18 002451E5 		ldrb	r2, [r1, #-1024]	@ zero_extendqisi2
 5829 4c1c 050052E3 		cmp	r2, #5
 5830 4c20 4900000A 		beq	.L1194
 5831 4c24 210052E3 		cmp	r2, #33
 5832 4c28 3A00000A 		beq	.L1195
 5833 4c2c 040052E3 		cmp	r2, #4
 5834 4c30 1B00000A 		beq	.L1196
 5835 4c34 043083E0 		add	r3, r3, r4
 5836 4c38 001453E5 		ldrb	r1, [r3, #-1024]	@ zero_extendqisi2
 5837              	.L1197:
 5838 4c3c 014084E0 		add	r4, r4, r1
 5839 4c40 013040E2 		sub	r3, r0, #1
 5840 4c44 040053E1 		cmp	r3, r4
 5841 4c48 EFFFFF8A 		bhi	.L1205
 5842              	.L1192:
 5843 4c4c 0910A0E1 		mov	r1, r9
 5844 4c50 04009BE5 		ldr	r0, [fp, #4]
 5845 4c54 FEFFFFEB 		bl	HCDSetConfiguration
 5846 4c58 004050E2 		subs	r4, r0, #0
 5847 4c5c B400000A 		beq	.L1206
 5848 4c60 00309AE5 		ldr	r3, [r10]
 5849 4c64 000053E3 		cmp	r3, #0
 5850 4c68 77FEFF0A 		beq	.L1266
 5851 4c6c 0520DBE5 		ldrb	r2, [fp, #5]	@ zero_extendqisi2
 5852 4c70 0910A0E1 		mov	r1, r9
 5853 4c74 D8059FE5 		ldr	r0, .L1365+120
 5854 4c78 33FF2FE1 		blx	r3
 5855 4c7c 72FEFFEA 		b	.L1266
 5856              	.L1190:
 5857 4c80 00509AE5 		ldr	r5, [r10]
 5858 4c84 000055E3 		cmp	r5, #0
 5859 4c88 6FFEFF0A 		beq	.L1266
 5860 4c8c 0510DBE5 		ldrb	r1, [fp, #5]	@ zero_extendqisi2
 5861 4c90 0430A0E1 		mov	r3, r4
 5862 4c94 30209DE5 		ldr	r2, [sp, #48]
 5863 4c98 A8059FE5 		ldr	r0, .L1365+108
 5864 4c9c 35FF2FE1 		blx	r5
 5865 4ca0 69FEFFEA 		b	.L1266
 5866              	.L1196:
 5867 4ca4 1030A0E3 		mov	r3, #16
 5868 4ca8 09E0A0E3 		mov	lr, #9
 5869 4cac 0C10DBE5 		ldrb	r1, [fp, #12]	@ zero_extendqisi2
 5870 4cb0 8E310EE1 		smlabb	lr, lr, r1, r3
 5871 4cb4 163D8DE2 		add	r3, sp, #1408
ARM GAS  C:\Users\ldebo\AppData\Local\Temp\ccISOhOE.s 			page 104


 5872 4cb8 043083E0 		add	r3, r3, r4
 5873 4cbc 001453E5 		ldrb	r1, [r3, #-1024]	@ zero_extendqisi2
 5874 4cc0 0EC08BE0 		add	ip, fp, lr
 5875 4cc4 0E10CBE7 		strb	r1, [fp, lr]
 5876 4cc8 FE6353E5 		ldrb	r6, [r3, #-1022]	@ zero_extendqisi2
 5877 4ccc FDE353E5 		ldrb	lr, [r3, #-1021]	@ zero_extendqisi2
 5878 4cd0 0120CCE5 		strb	r2, [ip, #1]
 5879 4cd4 0260CCE5 		strb	r6, [ip, #2]
 5880 4cd8 03E0CCE5 		strb	lr, [ip, #3]
 5881 4cdc F96353E5 		ldrb	r6, [r3, #-1017]	@ zero_extendqisi2
 5882 4ce0 FC8353E5 		ldrb	r8, [r3, #-1020]	@ zero_extendqisi2
 5883 4ce4 FB2353E5 		ldrb	r2, [r3, #-1019]	@ zero_extendqisi2
 5884 4ce8 FAE353E5 		ldrb	lr, [r3, #-1018]	@ zero_extendqisi2
 5885 4cec F83353E5 		ldrb	r3, [r3, #-1016]	@ zero_extendqisi2
 5886 4cf0 0760CCE5 		strb	r6, [ip, #7]
 5887 4cf4 0480CCE5 		strb	r8, [ip, #4]
 5888 4cf8 0520CCE5 		strb	r2, [ip, #5]
 5889 4cfc 06E0CCE5 		strb	lr, [ip, #6]
 5890 4d00 0830CCE5 		strb	r3, [ip, #8]
 5891 4d04 0C30DBE5 		ldrb	r3, [fp, #12]	@ zero_extendqisi2
 5892 4d08 0060A0E3 		mov	r6, #0
 5893 4d0c 013083E2 		add	r3, r3, #1
 5894 4d10 0C30CBE5 		strb	r3, [fp, #12]
 5895 4d14 C8FFFFEA 		b	.L1197
 5896              	.L1195:
 5897 4d18 000055E3 		cmp	r5, #0
 5898 4d1c 5700001A 		bne	.L1198
 5899 4d20 EA33DBE5 		ldrb	r3, [fp, #1002]	@ zero_extendqisi2
 5900 4d24 010053E3 		cmp	r3, #1
 5901 4d28 2100000A 		beq	.L1358
 5902 4d2c 0110E0E3 		mvn	r1, #1
 5903 4d30 0140A0E1 		mov	r4, r1
 5904              	.L1199:
 5905 4d34 00309AE5 		ldr	r3, [r10]
 5906 4d38 000053E3 		cmp	r3, #0
 5907 4d3c 42FEFF0A 		beq	.L1266
 5908 4d40 10059FE5 		ldr	r0, .L1365+124
 5909 4d44 33FF2FE1 		blx	r3
 5910 4d48 3FFEFFEA 		b	.L1266
 5911              	.L1194:
 5912 4d4c 0710A0E3 		mov	r1, #7
 5913 4d50 0C30DBE5 		ldrb	r3, [fp, #12]	@ zero_extendqisi2
 5914 4d54 013043E2 		sub	r3, r3, #1
 5915 4d58 833163E0 		rsb	r3, r3, r3, lsl #3
 5916 4d5c 0332A0E1 		lsl	r3, r3, #4
 5917 4d60 583083E2 		add	r3, r3, #88
 5918 4d64 813603E1 		smlabb	r3, r1, r6, r3
 5919 4d68 161D8DE2 		add	r1, sp, #1408
 5920 4d6c 04C081E0 		add	ip, r1, r4
 5921 4d70 FE835CE5 		ldrb	r8, [ip, #-1022]	@ zero_extendqisi2
 5922 4d74 00145CE5 		ldrb	r1, [ip, #-1024]	@ zero_extendqisi2
 5923 4d78 03E08BE0 		add	lr, fp, r3
 5924 4d7c 0310CBE7 		strb	r1, [fp, r3]
 5925 4d80 FD335CE5 		ldrb	r3, [ip, #-1021]	@ zero_extendqisi2
 5926 4d84 0120CEE5 		strb	r2, [lr, #1]
 5927 4d88 0280CEE5 		strb	r8, [lr, #2]
 5928 4d8c FC235CE5 		ldrb	r2, [ip, #-1020]	@ zero_extendqisi2
ARM GAS  C:\Users\ldebo\AppData\Local\Temp\ccISOhOE.s 			page 105


 5929 4d90 FB835CE5 		ldrb	r8, [ip, #-1019]	@ zero_extendqisi2
 5930 4d94 FAC35CE5 		ldrb	ip, [ip, #-1018]	@ zero_extendqisi2
 5931 4d98 016086E2 		add	r6, r6, #1
 5932 4d9c 7660EFE6 		uxtb	r6, r6
 5933 4da0 0330CEE5 		strb	r3, [lr, #3]
 5934 4da4 0420CEE5 		strb	r2, [lr, #4]
 5935 4da8 0580CEE5 		strb	r8, [lr, #5]
 5936 4dac 06C0CEE5 		strb	ip, [lr, #6]
 5937 4db0 A1FFFFEA 		b	.L1197
 5938              	.L1358:
 5939 4db4 3420DAE5 		ldrb	r2, [r10, #52]	@ zero_extendqisi2
 5940 4db8 000052E3 		cmp	r2, #0
 5941 4dbc BA00000A 		beq	.L1250
 5942 4dc0 6020DAE5 		ldrb	r2, [r10, #96]	@ zero_extendqisi2
 5943 4dc4 000052E3 		cmp	r2, #0
 5944 4dc8 B500000A 		beq	.L1251
 5945 4dcc 8C30DAE5 		ldrb	r3, [r10, #140]	@ zero_extendqisi2
 5946 4dd0 000053E3 		cmp	r3, #0
 5947 4dd4 AF00000A 		beq	.L1252
 5948 4dd8 B830DAE5 		ldrb	r3, [r10, #184]	@ zero_extendqisi2
 5949 4ddc 000053E3 		cmp	r3, #0
 5950 4de0 A900000A 		beq	.L1253
 5951 4de4 E430DAE5 		ldrb	r3, [r10, #228]	@ zero_extendqisi2
 5952 4de8 000053E3 		cmp	r3, #0
 5953 4dec A300000A 		beq	.L1254
 5954 4df0 1031DAE5 		ldrb	r3, [r10, #272]	@ zero_extendqisi2
 5955 4df4 000053E3 		cmp	r3, #0
 5956 4df8 9D00000A 		beq	.L1255
 5957 4dfc 3C31DAE5 		ldrb	r3, [r10, #316]	@ zero_extendqisi2
 5958 4e00 000053E3 		cmp	r3, #0
 5959 4e04 9700000A 		beq	.L1256
 5960 4e08 6831DAE5 		ldrb	r3, [r10, #360]	@ zero_extendqisi2
 5961 4e0c 000053E3 		cmp	r3, #0
 5962 4e10 9100000A 		beq	.L1257
 5963 4e14 9431DAE5 		ldrb	r3, [r10, #404]	@ zero_extendqisi2
 5964 4e18 000053E3 		cmp	r3, #0
 5965 4e1c 8B00000A 		beq	.L1258
 5966 4e20 C031DAE5 		ldrb	r3, [r10, #448]	@ zero_extendqisi2
 5967 4e24 000053E3 		cmp	r3, #0
 5968 4e28 8500000A 		beq	.L1259
 5969 4e2c EC31DAE5 		ldrb	r3, [r10, #492]	@ zero_extendqisi2
 5970 4e30 000053E3 		cmp	r3, #0
 5971 4e34 7F00000A 		beq	.L1260
 5972 4e38 1832DAE5 		ldrb	r3, [r10, #536]	@ zero_extendqisi2
 5973 4e3c 000053E3 		cmp	r3, #0
 5974 4e40 7900000A 		beq	.L1261
 5975 4e44 4432DAE5 		ldrb	r3, [r10, #580]	@ zero_extendqisi2
 5976 4e48 000053E3 		cmp	r3, #0
 5977 4e4c 9C00000A 		beq	.L1262
 5978 4e50 7032DAE5 		ldrb	r3, [r10, #624]	@ zero_extendqisi2
 5979 4e54 000053E3 		cmp	r3, #0
 5980 4e58 9600000A 		beq	.L1263
 5981 4e5c 9C32DAE5 		ldrb	r3, [r10, #668]	@ zero_extendqisi2
 5982 4e60 000053E3 		cmp	r3, #0
 5983 4e64 9900000A 		beq	.L1264
 5984 4e68 C832DAE5 		ldrb	r3, [r10, #712]	@ zero_extendqisi2
 5985 4e6c 000053E3 		cmp	r3, #0
ARM GAS  C:\Users\ldebo\AppData\Local\Temp\ccISOhOE.s 			page 106


 5986 4e70 6300000A 		beq	.L1359
 5987 4e74 0610E0E3 		mvn	r1, #6
 5988 4e78 0140A0E1 		mov	r4, r1
 5989 4e7c ACFFFFEA 		b	.L1199
 5990              	.L1198:
 5991 4e80 030055E3 		cmp	r5, #3
 5992 4e84 163D8D82 		addhi	r3, sp, #1408
 5993 4e88 04808380 		addhi	r8, r3, r4
 5994 4e8c 1D00008A 		bhi	.L1202
 5995 4e90 EC239BE5 		ldr	r2, [fp, #1004]
 5996              	.L1201:
 5997 4e94 163D8DE2 		add	r3, sp, #1408
 5998 4e98 048083E0 		add	r8, r3, r4
 5999 4e9c 000458E5 		ldrb	r0, [r8, #-1024]	@ zero_extendqisi2
 6000 4ea0 853185E0 		add	r3, r5, r5, lsl #3
 6001 4ea4 0300C2E7 		strb	r0, [r2, r3]
 6002 4ea8 001451E5 		ldrb	r1, [r1, #-1024]	@ zero_extendqisi2
 6003 4eac 033082E0 		add	r3, r2, r3
 6004 4eb0 0110C3E5 		strb	r1, [r3, #1]
 6005 4eb4 FE2358E5 		ldrb	r2, [r8, #-1022]	@ zero_extendqisi2
 6006 4eb8 011085E2 		add	r1, r5, #1
 6007 4ebc 0220C3E5 		strb	r2, [r3, #2]
 6008 4ec0 FD2358E5 		ldrb	r2, [r8, #-1021]	@ zero_extendqisi2
 6009 4ec4 0320C3E5 		strb	r2, [r3, #3]
 6010 4ec8 FC2358E5 		ldrb	r2, [r8, #-1020]	@ zero_extendqisi2
 6011 4ecc 0420C3E5 		strb	r2, [r3, #4]
 6012 4ed0 FB2358E5 		ldrb	r2, [r8, #-1019]	@ zero_extendqisi2
 6013 4ed4 0520C3E5 		strb	r2, [r3, #5]
 6014 4ed8 FA2358E5 		ldrb	r2, [r8, #-1018]	@ zero_extendqisi2
 6015 4edc 0620C3E5 		strb	r2, [r3, #6]
 6016 4ee0 F92358E5 		ldrb	r2, [r8, #-1017]	@ zero_extendqisi2
 6017 4ee4 0720C3E5 		strb	r2, [r3, #7]
 6018 4ee8 F82358E5 		ldrb	r2, [r8, #-1016]	@ zero_extendqisi2
 6019 4eec 0820C3E5 		strb	r2, [r3, #8]
 6020 4ef0 EC339BE5 		ldr	r3, [fp, #1004]
 6021 4ef4 0C20DBE5 		ldrb	r2, [fp, #12]	@ zero_extendqisi2
 6022 4ef8 053083E0 		add	r3, r3, r5
 6023 4efc 012042E2 		sub	r2, r2, #1
 6024 4f00 7150EFE6 		uxtb	r5, r1
 6025 4f04 2420C3E5 		strb	r2, [r3, #36]
 6026              	.L1202:
 6027 4f08 001458E5 		ldrb	r1, [r8, #-1024]	@ zero_extendqisi2
 6028 4f0c 090051E3 		cmp	r1, #9
 6029 4f10 0500000A 		beq	.L1345
 6030 4f14 00309AE5 		ldr	r3, [r10]
 6031 4f18 000053E3 		cmp	r3, #0
 6032 4f1c 0200000A 		beq	.L1345
 6033 4f20 34039FE5 		ldr	r0, .L1365+128
 6034 4f24 33FF2FE1 		blx	r3
 6035 4f28 001458E5 		ldrb	r1, [r8, #-1024]	@ zero_extendqisi2
 6036              	.L1345:
 6037 4f2c B206DDE1 		ldrh	r0, [sp, #98]
 6038 4f30 41FFFFEA 		b	.L1197
 6039              	.L1206:
 6040 4f34 0430A0E3 		mov	r3, #4
 6041 4f38 00409AE5 		ldr	r4, [r10]
 6042 4f3c 0890CBE5 		strb	r9, [fp, #8]
ARM GAS  C:\Users\ldebo\AppData\Local\Temp\ccISOhOE.s 			page 107


 6043 4f40 000054E3 		cmp	r4, #0
 6044 4f44 0A30CBE5 		strb	r3, [fp, #10]
 6045 4f48 0D00000A 		beq	.L1207
 6046 4f4c 0B00A0E1 		mov	r0, fp
 6047 4f50 FEFFFFEB 		bl	UsbGetDescription
 6048 4f54 0CC0DBE5 		ldrb	ip, [fp, #12]	@ zero_extendqisi2
 6049 4f58 E9E3DBE5 		ldrb	lr, [fp, #1001]	@ zero_extendqisi2
 6050 4f5c DC33DBE5 		ldrb	r3, [fp, #988]	@ zero_extendqisi2
 6051 4f60 0CC08DE5 		str	ip, [sp, #12]
 6052 4f64 DAC3DBE5 		ldrb	ip, [fp, #986]	@ zero_extendqisi2
 6053 4f68 08E08DE5 		str	lr, [sp, #8]
 6054 4f6c 0010A0E1 		mov	r1, r0
 6055 4f70 DB03DBE5 		ldrb	r0, [fp, #987]	@ zero_extendqisi2
 6056 4f74 1C209DE5 		ldr	r2, [sp, #28]
 6057 4f78 01108DE8 		stm	sp, {r0, ip}
 6058 4f7c DC029FE5 		ldr	r0, .L1365+132
 6059 4f80 34FF2FE1 		blx	r4
 6060              	.L1207:
 6061 4f84 E713DBE5 		ldrb	r1, [fp, #999]	@ zero_extendqisi2
 6062 4f88 000051E3 		cmp	r1, #0
 6063 4f8c 8500001A 		bne	.L1360
 6064              	.L1209:
 6065 4f90 E613DBE5 		ldrb	r1, [fp, #998]	@ zero_extendqisi2
 6066 4f94 000051E3 		cmp	r1, #0
 6067 4f98 7500001A 		bne	.L1361
 6068              	.L1212:
 6069 4f9c E813DBE5 		ldrb	r1, [fp, #1000]	@ zero_extendqisi2
 6070 4fa0 000051E3 		cmp	r1, #0
 6071 4fa4 6500001A 		bne	.L1362
 6072              	.L1215:
 6073 4fa8 0910DBE5 		ldrb	r1, [fp, #9]	@ zero_extendqisi2
 6074 4fac 000051E3 		cmp	r1, #0
 6075 4fb0 5500001A 		bne	.L1363
 6076              	.L1218:
 6077 4fb4 DC33DBE5 		ldrb	r3, [fp, #988]	@ zero_extendqisi2
 6078 4fb8 090053E3 		cmp	r3, #9
 6079 4fbc 4600000A 		beq	.L1364
 6080 4fc0 000055E3 		cmp	r5, #0
 6081 4fc4 9FFDFF0A 		beq	.L1346
 6082 4fc8 EC339BE5 		ldr	r3, [fp, #1004]
 6083 4fcc 0B10A0E1 		mov	r1, fp
 6084 4fd0 2850C3E5 		strb	r5, [r3, #40]
 6085 4fd4 04009BE5 		ldr	r0, [fp, #4]
 6086 4fd8 FEFFFFEB 		bl	EnumerateHID
 6087 4fdc 004050E2 		subs	r4, r0, #0
 6088 4fe0 98FDFF0A 		beq	.L1346
 6089 4fe4 00309AE5 		ldr	r3, [r10]
 6090 4fe8 000053E3 		cmp	r3, #0
 6091 4fec 96FDFF0A 		beq	.L1266
 6092 4ff0 0510DBE5 		ldrb	r1, [fp, #5]	@ zero_extendqisi2
 6093 4ff4 0420A0E1 		mov	r2, r4
 6094 4ff8 64029FE5 		ldr	r0, .L1365+136
 6095 4ffc 33FF2FE1 		blx	r3
 6096 5000 91FDFFEA 		b	.L1266
 6097              	.L1359:
 6098 5004 0F30A0E3 		mov	r3, #15
 6099 5008 58229FE5 		ldr	r2, .L1365+140
ARM GAS  C:\Users\ldebo\AppData\Local\Temp\ccISOhOE.s 			page 108


 6100              	.L1200:
 6101 500c 2CE0A0E3 		mov	lr, #44
 6102 5010 04C0A0E3 		mov	ip, #4
 6103 5014 0300A0E3 		mov	r0, #3
 6104 5018 9EA323E0 		mla	r3, lr, r3, r10
 6105 501c EC238BE5 		str	r2, [fp, #1004]
 6106 5020 34C0C3E5 		strb	ip, [r3, #52]
 6107 5024 EA03CBE5 		strb	r0, [fp, #1002]
 6108 5028 99FFFFEA 		b	.L1201
 6109              	.L1261:
 6110 502c 38229FE5 		ldr	r2, .L1365+144
 6111 5030 0B30A0E3 		mov	r3, #11
 6112 5034 F4FFFFEA 		b	.L1200
 6113              	.L1260:
 6114 5038 30229FE5 		ldr	r2, .L1365+148
 6115 503c 0A30A0E3 		mov	r3, #10
 6116 5040 F1FFFFEA 		b	.L1200
 6117              	.L1259:
 6118 5044 28229FE5 		ldr	r2, .L1365+152
 6119 5048 0930A0E3 		mov	r3, #9
 6120 504c EEFFFFEA 		b	.L1200
 6121              	.L1258:
 6122 5050 20229FE5 		ldr	r2, .L1365+156
 6123 5054 0830A0E3 		mov	r3, #8
 6124 5058 EBFFFFEA 		b	.L1200
 6125              	.L1257:
 6126 505c 18229FE5 		ldr	r2, .L1365+160
 6127 5060 0730A0E3 		mov	r3, #7
 6128 5064 E8FFFFEA 		b	.L1200
 6129              	.L1256:
 6130 5068 10229FE5 		ldr	r2, .L1365+164
 6131 506c 0630A0E3 		mov	r3, #6
 6132 5070 E5FFFFEA 		b	.L1200
 6133              	.L1255:
 6134 5074 08229FE5 		ldr	r2, .L1365+168
 6135 5078 0530A0E3 		mov	r3, #5
 6136 507c E2FFFFEA 		b	.L1200
 6137              	.L1254:
 6138 5080 00229FE5 		ldr	r2, .L1365+172
 6139 5084 0430A0E3 		mov	r3, #4
 6140 5088 DFFFFFEA 		b	.L1200
 6141              	.L1253:
 6142 508c F8219FE5 		ldr	r2, .L1365+176
 6143 5090 0330A0E3 		mov	r3, #3
 6144 5094 DCFFFFEA 		b	.L1200
 6145              	.L1252:
 6146 5098 F0219FE5 		ldr	r2, .L1365+180
 6147 509c 0230A0E3 		mov	r3, #2
 6148 50a0 D9FFFFEA 		b	.L1200
 6149              	.L1251:
 6150 50a4 E8219FE5 		ldr	r2, .L1365+184
 6151 50a8 D7FFFFEA 		b	.L1200
 6152              	.L1250:
 6153 50ac 0720A0E1 		mov	r2, r7
 6154 50b0 0530A0E1 		mov	r3, r5
 6155 50b4 D4FFFFEA 		b	.L1200
 6156              	.L1263:
ARM GAS  C:\Users\ldebo\AppData\Local\Temp\ccISOhOE.s 			page 109


 6157 50b8 D8219FE5 		ldr	r2, .L1365+188
 6158 50bc 0D30A0E3 		mov	r3, #13
 6159 50c0 D1FFFFEA 		b	.L1200
 6160              	.L1262:
 6161 50c4 D0219FE5 		ldr	r2, .L1365+192
 6162 50c8 0C30A0E3 		mov	r3, #12
 6163 50cc CEFFFFEA 		b	.L1200
 6164              	.L1264:
 6165 50d0 0E30A0E3 		mov	r3, #14
 6166 50d4 C4219FE5 		ldr	r2, .L1365+196
 6167 50d8 CBFFFFEA 		b	.L1200
 6168              	.L1364:
 6169 50dc 0B00A0E1 		mov	r0, fp
 6170 50e0 FEFFFFEB 		bl	EnumerateHub
 6171 50e4 004050E2 		subs	r4, r0, #0
 6172 50e8 56FDFF0A 		beq	.L1346
 6173 50ec 00309AE5 		ldr	r3, [r10]
 6174 50f0 000053E3 		cmp	r3, #0
 6175 50f4 54FDFF0A 		beq	.L1266
 6176 50f8 0510DBE5 		ldrb	r1, [fp, #5]	@ zero_extendqisi2
 6177 50fc 0420A0E1 		mov	r2, r4
 6178 5100 9C019FE5 		ldr	r0, .L1365+200
 6179 5104 33FF2FE1 		blx	r3
 6180 5108 4FFDFFEA 		b	.L1266
 6181              	.L1363:
 6182 510c 80208DE2 		add	r2, sp, #128
 6183 5110 013CA0E3 		mov	r3, #256
 6184 5114 04009BE5 		ldr	r0, [fp, #4]
 6185 5118 FEFFFFEB 		bl	HCDReadStringDescriptor
 6186 511c 000050E3 		cmp	r0, #0
 6187 5120 A3FFFF1A 		bne	.L1218
 6188 5124 00309AE5 		ldr	r3, [r10]
 6189 5128 000053E3 		cmp	r3, #0
 6190 512c A0FFFF0A 		beq	.L1218
 6191 5130 80108DE2 		add	r1, sp, #128
 6192 5134 6C019FE5 		ldr	r0, .L1365+204
 6193 5138 33FF2FE1 		blx	r3
 6194 513c 9CFFFFEA 		b	.L1218
 6195              	.L1362:
 6196 5140 80208DE2 		add	r2, sp, #128
 6197 5144 013CA0E3 		mov	r3, #256
 6198 5148 04009BE5 		ldr	r0, [fp, #4]
 6199 514c FEFFFFEB 		bl	HCDReadStringDescriptor
 6200 5150 000050E3 		cmp	r0, #0
 6201 5154 93FFFF1A 		bne	.L1215
 6202 5158 00309AE5 		ldr	r3, [r10]
 6203 515c 000053E3 		cmp	r3, #0
 6204 5160 90FFFF0A 		beq	.L1215
 6205 5164 80108DE2 		add	r1, sp, #128
 6206 5168 3C019FE5 		ldr	r0, .L1365+208
 6207 516c 33FF2FE1 		blx	r3
 6208 5170 8CFFFFEA 		b	.L1215
 6209              	.L1361:
 6210 5174 80208DE2 		add	r2, sp, #128
 6211 5178 013CA0E3 		mov	r3, #256
 6212 517c 04009BE5 		ldr	r0, [fp, #4]
 6213 5180 FEFFFFEB 		bl	HCDReadStringDescriptor
ARM GAS  C:\Users\ldebo\AppData\Local\Temp\ccISOhOE.s 			page 110


 6214 5184 000050E3 		cmp	r0, #0
 6215 5188 83FFFF1A 		bne	.L1212
 6216 518c 00309AE5 		ldr	r3, [r10]
 6217 5190 000053E3 		cmp	r3, #0
 6218 5194 80FFFF0A 		beq	.L1212
 6219 5198 80108DE2 		add	r1, sp, #128
 6220 519c 0C019FE5 		ldr	r0, .L1365+212
 6221 51a0 33FF2FE1 		blx	r3
 6222 51a4 7CFFFFEA 		b	.L1212
 6223              	.L1360:
 6224 51a8 80208DE2 		add	r2, sp, #128
 6225 51ac 013CA0E3 		mov	r3, #256
 6226 51b0 04009BE5 		ldr	r0, [fp, #4]
 6227 51b4 FEFFFFEB 		bl	HCDReadStringDescriptor
 6228 51b8 000050E3 		cmp	r0, #0
 6229 51bc 73FFFF1A 		bne	.L1209
 6230 51c0 00309AE5 		ldr	r3, [r10]
 6231 51c4 000053E3 		cmp	r3, #0
 6232 51c8 70FFFF0A 		beq	.L1209
 6233 51cc 80108DE2 		add	r1, sp, #128
 6234 51d0 DC009FE5 		ldr	r0, .L1365+216
 6235 51d4 33FF2FE1 		blx	r3
 6236 51d8 6CFFFFEA 		b	.L1209
 6237              	.L1366:
 6238              		.align	2
 6239              	.L1365:
 6240 51dc 00000000 		.word	.LANCHOR1
 6241 51e0 2C040000 		.word	.LC53
 6242 51e4 600C0000 		.word	.LC90
 6243 51e8 FC040000 		.word	.LC56
 6244 51ec A0040000 		.word	.LC54
 6245 51f0 00000000 		.word	RPi_IO_Base_Addr
 6246 51f4 00000000 		.word	.LANCHOR0
 6247 51f8 4C060000 		.word	.LANCHOR1+1612
 6248 51fc D4010000 		.word	.LANCHOR0+468
 6249 5200 980C0000 		.word	.LC91
 6250 5204 FFFF0700 		.word	524287
 6251 5208 D0040000 		.word	.LC55
 6252 520c 10270000 		.word	10000
 6253 5210 FC0C0000 		.word	.LC93
 6254 5214 CC0C0000 		.word	.LC92
 6255 5218 5C020000 		.word	.LANCHOR0+604
 6256 521c B0020000 		.word	.LANCHOR0+688
 6257 5220 240400EC 		.word	-335543260
 6258 5224 C0010000 		.word	.LANCHOR0+448
 6259 5228 E4000000 		.word	.LANCHOR0+228
 6260 522c 74020000 		.word	.LANCHOR0+628
 6261 5230 340D0000 		.word	.LC94
 6262 5234 4C0D0000 		.word	.LC95
 6263 5238 A0020000 		.word	.LANCHOR0+672
 6264 523c 90020000 		.word	.LANCHOR0+656
 6265 5240 A4000000 		.word	.LANCHOR0+164
 6266 5244 B4000000 		.word	.LANCHOR0+180
 6267 5248 400F0000 		.word	.LC106
 6268 524c C4000000 		.word	.LANCHOR0+196
 6269 5250 0C000000 		.word	.LANCHOR1+12
 6270 5254 D80D0000 		.word	.LC98
ARM GAS  C:\Users\ldebo\AppData\Local\Temp\ccISOhOE.s 			page 111


 6271 5258 900D0000 		.word	.LC96
 6272 525c C00D0000 		.word	.LC97
 6273 5260 100E0000 		.word	.LC99
 6274 5264 100F0000 		.word	.LC105
 6275 5268 A0020000 		.word	.LANCHOR1+672
 6276 526c F0010000 		.word	.LANCHOR1+496
 6277 5270 C4010000 		.word	.LANCHOR1+452
 6278 5274 98010000 		.word	.LANCHOR1+408
 6279 5278 6C010000 		.word	.LANCHOR1+364
 6280 527c 40010000 		.word	.LANCHOR1+320
 6281 5280 14010000 		.word	.LANCHOR1+276
 6282 5284 E8000000 		.word	.LANCHOR1+232
 6283 5288 BC000000 		.word	.LANCHOR1+188
 6284 528c 90000000 		.word	.LANCHOR1+144
 6285 5290 64000000 		.word	.LANCHOR1+100
 6286 5294 38000000 		.word	.LANCHOR1+56
 6287 5298 48020000 		.word	.LANCHOR1+584
 6288 529c 1C020000 		.word	.LANCHOR1+540
 6289 52a0 74020000 		.word	.LANCHOR1+628
 6290 52a4 E00E0000 		.word	.LC104
 6291 52a8 C40E0000 		.word	.LC103
 6292 52ac A80E0000 		.word	.LC102
 6293 52b0 8C0E0000 		.word	.LC101
 6294 52b4 700E0000 		.word	.LC100
 6295              		.size	EnumerateDevice, .-EnumerateDevice
 6296              		.align	2
 6297              		.global	HubPortConnectionChanged
 6298              		.syntax unified
 6299              		.arm
 6300              		.fpu vfp
 6301              		.type	HubPortConnectionChanged, %function
 6302              	HubPortConnectionChanged:
 6303              		@ args = 0, pretend = 0, frame = 80
 6304              		@ frame_needed = 0, uses_anonymous_args = 0
 6305 52b8 F04F2DE9 		push	{r4, r5, r6, r7, r8, r9, r10, fp, lr}
 6306 52bc 0580D0E5 		ldrb	r8, [r0, #5]	@ zero_extendqisi2
 6307 52c0 64D04DE2 		sub	sp, sp, #100
 6308 52c4 013048E2 		sub	r3, r8, #1
 6309 52c8 7320EFE6 		uxtb	r2, r3
 6310 52cc 1F0052E3 		cmp	r2, #31
 6311 52d0 0500008A 		bhi	.L1469
 6312 52d4 406F9FE5 		ldr	r6, .L1719
 6313 52d8 033363E0 		rsb	r3, r3, r3, lsl #6
 6314 52dc 033286E0 		add	r3, r6, r3, lsl #4
 6315 52e0 362AD3E5 		ldrb	r2, [r3, #2614]	@ zero_extendqisi2
 6316 52e4 020052E3 		cmp	r2, #2
 6317 52e8 0300000A 		beq	.L1694
 6318              	.L1469:
 6319 52ec 0370E0E3 		mvn	r7, #3
 6320              	.L1587:
 6321 52f0 0700A0E1 		mov	r0, r7
 6322 52f4 64D08DE2 		add	sp, sp, #100
 6323              		@ sp needed
 6324 52f8 F08FBDE8 		pop	{r4, r5, r6, r7, r8, r9, r10, fp, pc}
 6325              	.L1694:
 6326 52fc 383A93E5 		ldr	r3, [r3, #2616]
 6327 5300 000053E3 		cmp	r3, #0
ARM GAS  C:\Users\ldebo\AppData\Local\Temp\ccISOhOE.s 			page 112


 6328 5304 F8FFFF0A 		beq	.L1469
 6329 5308 0040A0E1 		mov	r4, r0
 6330 530c 01B081E2 		add	fp, r1, #1
 6331 5310 0430A0E3 		mov	r3, #4
 6332 5314 1C108DE5 		str	r1, [sp, #28]
 6333 5318 FF101BE2 		ands	r1, fp, #255
 6334 531c 0170A0E1 		mov	r7, r1
 6335 5320 0020A0E3 		mov	r2, #0
 6336 5324 18108DE5 		str	r1, [sp, #24]
 6337 5328 0A00A0E3 		mov	r0, #10
 6338 532c 041094E5 		ldr	r1, [r4, #4]
 6339 5330 03C0A0E1 		mov	ip, r3
 6340 5334 30108DE5 		str	r1, [sp, #48]
 6341 5338 7710FFE6 		uxth	r1, r7
 6342 533c A3E0A013 		movne	lr, #163
 6343 5340 A0E0A003 		moveq	lr, #160
 6344 5344 0170A0E1 		mov	r7, r1
 6345 5348 34208DE5 		str	r2, [sp, #52]
 6346 534c 50A08DE2 		add	r10, sp, #80
 6347 5350 3530CDE5 		strb	r3, [sp, #53]
 6348 5354 48308DE2 		add	r3, sp, #72
 6349 5358 0450D4E5 		ldrb	r5, [r4, #4]	@ zero_extendqisi2
 6350 535c 04008DE5 		str	r0, [sp, #4]
 6351 5360 00308DE5 		str	r3, [sp]
 6352 5364 08A08DE5 		str	r10, [sp, #8]
 6353 5368 3180CDE5 		strb	r8, [sp, #49]
 6354 536c 0C30A0E1 		mov	r3, ip
 6355 5370 BEC4CDE1 		strh	ip, [sp, #78]	@ movhi
 6356 5374 ECC394E5 		ldr	ip, [r4, #1004]
 6357 5378 48208DE5 		str	r2, [sp, #72]
 6358 537c 20108DE5 		str	r1, [sp, #32]
 6359 5380 50208DE5 		str	r2, [sp, #80]
 6360 5384 34109DE5 		ldr	r1, [sp, #52]
 6361 5388 30009DE5 		ldr	r0, [sp, #48]
 6362 538c 58208DE2 		add	r2, sp, #88
 6363 5390 BC74CDE1 		strh	r7, [sp, #76]	@ movhi
 6364 5394 48E0CDE5 		strb	lr, [sp, #72]
 6365 5398 14C08DE5 		str	ip, [sp, #20]
 6366 539c FEFFFFEB 		bl	HCDSubmitControlMessage
 6367 53a0 2591A0E1 		lsr	r9, r5, #2
 6368 53a4 007050E2 		subs	r7, r0, #0
 6369 53a8 039009E2 		and	r9, r9, #3
 6370 53ac 035005E2 		and	r5, r5, #3
 6371 53b0 2200000A 		beq	.L1370
 6372 53b4 00A096E5 		ldr	r10, [r6]
 6373 53b8 00005AE3 		cmp	r10, #0
 6374 53bc CBFFFF0A 		beq	.L1587
 6375 53c0 04508DE5 		str	r5, [sp, #4]
 6376 53c4 00908DE5 		str	r9, [sp]
 6377 53c8 18209DE5 		ldr	r2, [sp, #24]
 6378 53cc 0810A0E1 		mov	r1, r8
 6379 53d0 0730A0E1 		mov	r3, r7
 6380 53d4 440E9FE5 		ldr	r0, .L1719+4
 6381 53d8 3AFF2FE1 		blx	r10
 6382 53dc 005096E5 		ldr	r5, [r6]
 6383              	.L1372:
 6384 53e0 000055E3 		cmp	r5, #0
ARM GAS  C:\Users\ldebo\AppData\Local\Temp\ccISOhOE.s 			page 113


 6385 53e4 C1FFFF0A 		beq	.L1587
 6386 53e8 0A30D4E5 		ldrb	r3, [r4, #10]	@ zero_extendqisi2
 6387 53ec 000053E3 		cmp	r3, #0
 6388 53f0 7D01000A 		beq	.L1470
 6389 53f4 010053E3 		cmp	r3, #1
 6390 53f8 DE01000A 		beq	.L1471
 6391 53fc 202E9FE5 		ldr	r2, .L1719+8
 6392 5400 020054E1 		cmp	r4, r2
 6393 5404 4A02000A 		beq	.L1472
 6394 5408 DC23D4E5 		ldrb	r2, [r4, #988]	@ zero_extendqisi2
 6395 540c 090052E3 		cmp	r2, #9
 6396 5410 DC01000A 		beq	.L1377
 6397 5414 FF0052E3 		cmp	r2, #255
 6398 5418 E701000A 		beq	.L1378
 6399 541c 000052E3 		cmp	r2, #0
 6400 5420 001E9F15 		ldrne	r1, .L1719+12
 6401 5424 B201000A 		beq	.L1695
 6402              	.L1376:
 6403 5428 0B20A0E1 		mov	r2, fp
 6404 542c F80D9FE5 		ldr	r0, .L1719+16
 6405 5430 35FF2FE1 		blx	r5
 6406              	.L1705:
 6407 5434 0700A0E1 		mov	r0, r7
 6408 5438 64D08DE2 		add	sp, sp, #100
 6409              		@ sp needed
 6410 543c F08FBDE8 		pop	{r4, r5, r6, r7, r8, r9, r10, fp, pc}
 6411              	.L1370:
 6412 5440 50309DE5 		ldr	r3, [sp, #80]
 6413 5444 030053E3 		cmp	r3, #3
 6414 5448 0900008A 		bhi	.L1373
 6415 544c 003096E5 		ldr	r3, [r6]
 6416 5450 000053E3 		cmp	r3, #0
 6417 5454 A4FFFF0A 		beq	.L1469
 6418 5458 18209DE5 		ldr	r2, [sp, #24]
 6419 545c 0810A0E1 		mov	r1, r8
 6420 5460 C80D9FE5 		ldr	r0, .L1719+20
 6421 5464 33FF2FE1 		blx	r3
 6422 5468 0370E0E3 		mvn	r7, #3
 6423 546c 005096E5 		ldr	r5, [r6]
 6424 5470 DAFFFFEA 		b	.L1372
 6425              	.L1373:
 6426 5474 045096E5 		ldr	r5, [r6, #4]
 6427 5478 58309DE5 		ldr	r3, [sp, #88]
 6428 547c 000055E3 		cmp	r5, #0
 6429 5480 2C308DE5 		str	r3, [sp, #44]
 6430 5484 1500000A 		beq	.L1375
 6431 5488 0A30D4E5 		ldrb	r3, [r4, #10]	@ zero_extendqisi2
 6432 548c 000053E3 		cmp	r3, #0
 6433 5490 5301000A 		beq	.L1480
 6434 5494 010053E3 		cmp	r3, #1
 6435 5498 B801000A 		beq	.L1481
 6436 549c 802D9FE5 		ldr	r2, .L1719+8
 6437 54a0 020054E1 		cmp	r4, r2
 6438 54a4 2002000A 		beq	.L1482
 6439 54a8 DC23D4E5 		ldrb	r2, [r4, #988]	@ zero_extendqisi2
 6440 54ac 090052E3 		cmp	r2, #9
 6441 54b0 D101000A 		beq	.L1382
ARM GAS  C:\Users\ldebo\AppData\Local\Temp\ccISOhOE.s 			page 114


 6442 54b4 FF0052E3 		cmp	r2, #255
 6443 54b8 C701000A 		beq	.L1383
 6444 54bc 000052E3 		cmp	r2, #0
 6445 54c0 601D9F15 		ldrne	r1, .L1719+12
 6446 54c4 8301000A 		beq	.L1696
 6447              	.L1381:
 6448 54c8 BE22DDE1 		ldrh	r2, [sp, #46]
 6449 54cc BC32DDE1 		ldrh	r3, [sp, #44]
 6450 54d0 00208DE5 		str	r2, [sp]
 6451 54d4 580D9FE5 		ldr	r0, .L1719+24
 6452 54d8 0B20A0E1 		mov	r2, fp
 6453 54dc 35FF2FE1 		blx	r5
 6454              	.L1375:
 6455 54e0 0050A0E3 		mov	r5, #0
 6456 54e4 18309DE5 		ldr	r3, [sp, #24]
 6457 54e8 1090A0E3 		mov	r9, #16
 6458 54ec 050053E1 		cmp	r3, r5
 6459 54f0 2030A003 		moveq	r3, #32
 6460 54f4 2330A013 		movne	r3, #35
 6461 54f8 03C0A0E1 		mov	ip, r3
 6462 54fc 24308DE5 		str	r3, [sp, #36]
 6463 5500 0130A0E3 		mov	r3, #1
 6464 5504 042094E5 		ldr	r2, [r4, #4]
 6465 5508 0580D4E5 		ldrb	r8, [r4, #5]	@ zero_extendqisi2
 6466 550c 38208DE5 		str	r2, [sp, #56]
 6467 5510 B0E2DDE1 		ldrh	lr, [sp, #32]
 6468 5514 3980CDE5 		strb	r8, [sp, #57]
 6469 5518 38009DE5 		ldr	r0, [sp, #56]
 6470 551c 0A20A0E1 		mov	r2, r10
 6471 5520 0510A0E1 		mov	r1, r5
 6472 5524 04508AE5 		str	r5, [r10, #4]
 6473 5528 3C508DE5 		str	r5, [sp, #60]
 6474 552c B4E5CDE1 		strh	lr, [sp, #84]	@ movhi
 6475 5530 50C0CDE5 		strb	ip, [sp, #80]
 6476 5534 5130CDE5 		strb	r3, [sp, #81]
 6477 5538 B295CDE1 		strh	r9, [sp, #82]	@ movhi
 6478 553c 81F1FFEB 		bl	HCDSubmitControlMessage.constprop.6
 6479 5540 050050E1 		cmp	r0, r5
 6480 5544 2600000A 		beq	.L1388
 6481 5548 00A096E5 		ldr	r10, [r6]
 6482 554c 05005AE1 		cmp	r10, r5
 6483 5550 2300000A 		beq	.L1388
 6484 5554 00508DE5 		str	r5, [sp]
 6485 5558 0930A0E1 		mov	r3, r9
 6486 555c 0810A0E1 		mov	r1, r8
 6487 5560 18209DE5 		ldr	r2, [sp, #24]
 6488 5564 CC0C9FE5 		ldr	r0, .L1719+28
 6489 5568 3AFF2FE1 		blx	r10
 6490 556c 005096E5 		ldr	r5, [r6]
 6491 5570 000055E3 		cmp	r5, #0
 6492 5574 1A00000A 		beq	.L1388
 6493 5578 0A30D4E5 		ldrb	r3, [r4, #10]	@ zero_extendqisi2
 6494 557c 000053E3 		cmp	r3, #0
 6495 5580 1300000A 		beq	.L1491
 6496 5584 010053E3 		cmp	r3, #1
 6497 5588 D801000A 		beq	.L1492
 6498 558c 902C9FE5 		ldr	r2, .L1719+8
ARM GAS  C:\Users\ldebo\AppData\Local\Temp\ccISOhOE.s 			page 115


 6499 5590 020054E1 		cmp	r4, r2
 6500 5594 3502000A 		beq	.L1493
 6501 5598 DC23D4E5 		ldrb	r2, [r4, #988]	@ zero_extendqisi2
 6502 559c 090052E3 		cmp	r2, #9
 6503 55a0 D401000A 		beq	.L1391
 6504 55a4 FF0052E3 		cmp	r2, #255
 6505 55a8 6601000A 		beq	.L1392
 6506 55ac 000052E3 		cmp	r2, #0
 6507 55b0 701C9F15 		ldrne	r1, .L1719+12
 6508 55b4 0700001A 		bne	.L1390
 6509 55b8 040053E3 		cmp	r3, #4
 6510 55bc 781C9F15 		ldrne	r1, .L1719+32
 6511 55c0 0400001A 		bne	.L1390
 6512              	.L1458:
 6513 55c4 0400A0E1 		mov	r0, r4
 6514 55c8 8CEAFFEB 		bl	UsbGetDescription.part.2
 6515 55cc 0010A0E1 		mov	r1, r0
 6516 55d0 000000EA 		b	.L1390
 6517              	.L1491:
 6518 55d4 641C9FE5 		ldr	r1, .L1719+36
 6519              	.L1390:
 6520 55d8 0B20A0E1 		mov	r2, fp
 6521 55dc 600C9FE5 		ldr	r0, .L1719+40
 6522 55e0 35FF2FE1 		blx	r5
 6523              	.L1388:
 6524 55e4 2C30DDE5 		ldrb	r3, [sp, #44]	@ zero_extendqisi2
 6525 55e8 010013E3 		tst	r3, #1
 6526 55ec 5800001A 		bne	.L1395
 6527 55f0 020013E3 		tst	r3, #2
 6528 55f4 5600001A 		bne	.L1395
 6529 55f8 1C309DE5 		ldr	r3, [sp, #28]
 6530 55fc 0351A0E1 		lsl	r5, r3, #2
 6531 5600 14309DE5 		ldr	r3, [sp, #20]
 6532 5604 053083E0 		add	r3, r3, r5
 6533 5608 049093E5 		ldr	r9, [r3, #4]
 6534              	.L1396:
 6535 560c 008096E5 		ldr	r8, [r6]
 6536 5610 000058E3 		cmp	r8, #0
 6537 5614 2500000A 		beq	.L1399
 6538 5618 0A30D4E5 		ldrb	r3, [r4, #10]	@ zero_extendqisi2
 6539 561c 000053E3 		cmp	r3, #0
 6540 5620 F800000A 		beq	.L1501
 6541 5624 010053E3 		cmp	r3, #1
 6542 5628 8201000A 		beq	.L1502
 6543 562c F02B9FE5 		ldr	r2, .L1719+8
 6544 5630 020054E1 		cmp	r4, r2
 6545 5634 C001000A 		beq	.L1503
 6546 5638 DC23D4E5 		ldrb	r2, [r4, #988]	@ zero_extendqisi2
 6547 563c 090052E3 		cmp	r2, #9
 6548 5640 9B01000A 		beq	.L1401
 6549 5644 FF0052E3 		cmp	r2, #255
 6550 5648 8901000A 		beq	.L1402
 6551 564c 000052E3 		cmp	r2, #0
 6552 5650 D01B9F15 		ldrne	r1, .L1719+12
 6553 5654 3401000A 		beq	.L1697
 6554              	.L1400:
 6555 5658 0A30D9E5 		ldrb	r3, [r9, #10]	@ zero_extendqisi2
ARM GAS  C:\Users\ldebo\AppData\Local\Temp\ccISOhOE.s 			page 116


 6556 565c 000053E3 		cmp	r3, #0
 6557 5660 E600000A 		beq	.L1511
 6558 5664 010053E3 		cmp	r3, #1
 6559 5668 7001000A 		beq	.L1512
 6560 566c B02B9FE5 		ldr	r2, .L1719+8
 6561 5670 020059E1 		cmp	r9, r2
 6562 5674 B201000A 		beq	.L1513
 6563 5678 DC23D9E5 		ldrb	r2, [r9, #988]	@ zero_extendqisi2
 6564 567c 090052E3 		cmp	r2, #9
 6565 5680 6E01000A 		beq	.L1406
 6566 5684 FF0052E3 		cmp	r2, #255
 6567 5688 8101000A 		beq	.L1407
 6568 568c 000052E3 		cmp	r2, #0
 6569 5690 903B9F15 		ldrne	r3, .L1719+12
 6570 5694 1D01000A 		beq	.L1698
 6571              	.L1405:
 6572 5698 0B20A0E1 		mov	r2, fp
 6573 569c A40B9FE5 		ldr	r0, .L1719+44
 6574 56a0 38FF2FE1 		blx	r8
 6575 56a4 14309DE5 		ldr	r3, [sp, #20]
 6576 56a8 053083E0 		add	r3, r3, r5
 6577 56ac 049093E5 		ldr	r9, [r3, #4]
 6578              	.L1399:
 6579 56b0 0900A0E1 		mov	r0, r9
 6580 56b4 FEFFFFEB 		bl	UsbDeallocateDevice
 6581 56b8 0020A0E3 		mov	r2, #0
 6582 56bc 2C10DDE5 		ldrb	r1, [sp, #44]	@ zero_extendqisi2
 6583 56c0 14309DE5 		ldr	r3, [sp, #20]
 6584 56c4 010011E3 		tst	r1, #1
 6585 56c8 053083E0 		add	r3, r3, r5
 6586 56cc 042083E5 		str	r2, [r3, #4]
 6587 56d0 06FFFF0A 		beq	.L1587
 6588              	.L1410:
 6589 56d4 1C109DE5 		ldr	r1, [sp, #28]
 6590 56d8 0400A0E1 		mov	r0, r4
 6591 56dc FEFFFFEB 		bl	HubPortReset
 6592 56e0 003050E2 		subs	r3, r0, #0
 6593 56e4 2200000A 		beq	.L1699
 6594 56e8 005096E5 		ldr	r5, [r6]
 6595 56ec 000055E3 		cmp	r5, #0
 6596 56f0 0370A001 		moveq	r7, r3
 6597 56f4 FDFEFF0A 		beq	.L1587
 6598 56f8 0A20D4E5 		ldrb	r2, [r4, #10]	@ zero_extendqisi2
 6599 56fc 000052E3 		cmp	r2, #0
 6600 5700 1A01000A 		beq	.L1522
 6601 5704 010052E3 		cmp	r2, #1
 6602 5708 8F01000A 		beq	.L1523
 6603 570c 101B9FE5 		ldr	r1, .L1719+8
 6604 5710 010054E1 		cmp	r4, r1
 6605 5714 1301000A 		beq	.L1524
 6606 5718 DC13D4E5 		ldrb	r1, [r4, #988]	@ zero_extendqisi2
 6607 571c 090051E3 		cmp	r1, #9
 6608 5720 9801000A 		beq	.L1412
 6609 5724 FF0051E3 		cmp	r1, #255
 6610 5728 8901000A 		beq	.L1413
 6611 572c 000051E3 		cmp	r1, #0
 6612 5730 F01A9F15 		ldrne	r1, .L1719+12
ARM GAS  C:\Users\ldebo\AppData\Local\Temp\ccISOhOE.s 			page 117


 6613 5734 A001000A 		beq	.L1700
 6614              	.L1411:
 6615 5738 0370A0E1 		mov	r7, r3
 6616 573c 0B20A0E1 		mov	r2, fp
 6617 5740 040B9FE5 		ldr	r0, .L1719+48
 6618 5744 35FF2FE1 		blx	r5
 6619 5748 0700A0E1 		mov	r0, r7
 6620 574c 64D08DE2 		add	sp, sp, #100
 6621              		@ sp needed
 6622 5750 F08FBDE8 		pop	{r4, r5, r6, r7, r8, r9, r10, fp, pc}
 6623              	.L1395:
 6624 5754 1C309DE5 		ldr	r3, [sp, #28]
 6625 5758 0351A0E1 		lsl	r5, r3, #2
 6626 575c 14309DE5 		ldr	r3, [sp, #20]
 6627 5760 053083E0 		add	r3, r3, r5
 6628 5764 049093E5 		ldr	r9, [r3, #4]
 6629 5768 000059E3 		cmp	r9, #0
 6630 576c A6FFFF1A 		bne	.L1396
 6631 5770 D7FFFFEA 		b	.L1410
 6632              	.L1699:
 6633 5774 14209DE5 		ldr	r2, [sp, #20]
 6634 5778 0B2182E0 		add	r2, r2, fp, lsl #2
 6635 577c 000052E3 		cmp	r2, #0
 6636 5780 5801000A 		beq	.L1532
 6637 5784 C4AA9FE5 		ldr	r10, .L1719+52
 6638 5788 0C108AE2 		add	r1, r10, #12
 6639 578c 020000EA 		b	.L1420
 6640              	.L1417:
 6641 5790 013083E2 		add	r3, r3, #1
 6642 5794 200053E3 		cmp	r3, #32
 6643 5798 9C00000A 		beq	.L1701
 6644              	.L1420:
 6645 579c EA23D1E5 		ldrb	r2, [r1, #1002]	@ zero_extendqisi2
 6646 57a0 3F1E81E2 		add	r1, r1, #1008
 6647 57a4 000052E3 		cmp	r2, #0
 6648 57a8 F8FFFF1A 		bne	.L1417
 6649 57ac 01E0A0E3 		mov	lr, #1
 6650 57b0 0010E0E3 		mvn	r1, #0
 6651 57b4 14009DE5 		ldr	r0, [sp, #20]
 6652 57b8 03C363E0 		rsb	ip, r3, r3, lsl #6
 6653 57bc 0CC2A0E1 		lsl	ip, ip, #4
 6654 57c0 0C808AE2 		add	r8, r10, #12
 6655 57c4 059080E0 		add	r9, r0, r5
 6656 57c8 0E3083E0 		add	r3, r3, lr
 6657 57cc 0C0088E0 		add	r0, r8, ip
 6658 57d0 0CC086E0 		add	ip, r6, ip
 6659 57d4 040089E5 		str	r0, [r9, #4]
 6660 57d8 382A8CE5 		str	r2, [ip, #2616]
 6661 57dc 5136CCE5 		strb	r3, [ip, #1617]
 6662 57e0 040094E5 		ldr	r0, [r4, #4]
 6663 57e4 5626CCE5 		strb	r2, [ip, #1622]
 6664 57e8 4D26CCE5 		strb	r2, [ip, #1613]
 6665 57ec 4C16CCE5 		strb	r1, [ip, #1612]
 6666 57f0 2C208DE2 		add	r2, sp, #44
 6667 57f4 18109DE5 		ldr	r1, [sp, #24]
 6668 57f8 36EACCE5 		strb	lr, [ip, #2614]
 6669 57fc FEFFFFEB 		bl	HCDReadHubPortStatus
ARM GAS  C:\Users\ldebo\AppData\Local\Temp\ccISOhOE.s 			page 118


 6670 5800 005050E2 		subs	r5, r0, #0
 6671 5804 9900001A 		bne	.L1418
 6672 5808 045096E5 		ldr	r5, [r6, #4]
 6673 580c 000055E3 		cmp	r5, #0
 6674 5810 1600000A 		beq	.L1431
 6675 5814 0A30D4E5 		ldrb	r3, [r4, #10]	@ zero_extendqisi2
 6676 5818 000053E3 		cmp	r3, #0
 6677 581c A901000A 		beq	.L1554
 6678 5820 010053E3 		cmp	r3, #1
 6679 5824 D401000A 		beq	.L1555
 6680 5828 080054E1 		cmp	r4, r8
 6681 582c 5202000A 		beq	.L1556
 6682 5830 DC23D4E5 		ldrb	r2, [r4, #988]	@ zero_extendqisi2
 6683 5834 090052E3 		cmp	r2, #9
 6684 5838 D101000A 		beq	.L1433
 6685 583c FF0052E3 		cmp	r2, #255
 6686 5840 F401000A 		beq	.L1434
 6687 5844 000052E3 		cmp	r2, #0
 6688 5848 D8199F15 		ldrne	r1, .L1719+12
 6689 584c 0602000A 		beq	.L1702
 6690              	.L1432:
 6691 5850 BE02DDE1 		ldrh	r0, [sp, #46]
 6692 5854 BC32DDE1 		ldrh	r3, [sp, #44]
 6693 5858 0520D4E5 		ldrb	r2, [r4, #5]	@ zero_extendqisi2
 6694 585c 04008DE5 		str	r0, [sp, #4]
 6695 5860 00308DE5 		str	r3, [sp]
 6696 5864 E8099FE5 		ldr	r0, .L1719+56
 6697 5868 1C309DE5 		ldr	r3, [sp, #28]
 6698 586c 35FF2FE1 		blx	r5
 6699              	.L1431:
 6700 5870 2D30DDE5 		ldrb	r3, [sp, #45]	@ zero_extendqisi2
 6701 5874 040099E5 		ldr	r0, [r9, #4]
 6702 5878 040013E3 		tst	r3, #4
 6703 587c 5201000A 		beq	.L1437
 6704 5880 0430D0E5 		ldrb	r3, [r0, #4]	@ zero_extendqisi2
 6705 5884 0C30C3E3 		bic	r3, r3, #12
 6706 5888 0430C0E5 		strb	r3, [r0, #4]
 6707 588c 0530D4E5 		ldrb	r3, [r4, #5]	@ zero_extendqisi2
 6708              	.L1438:
 6709 5890 1C209DE5 		ldr	r2, [sp, #28]
 6710 5894 0030C0E5 		strb	r3, [r0]
 6711 5898 0120C0E5 		strb	r2, [r0, #1]
 6712 589c 0410A0E1 		mov	r1, r4
 6713 58a0 FEFFFFEB 		bl	EnumerateDevice
 6714 58a4 008050E2 		subs	r8, r0, #0
 6715 58a8 90FEFF0A 		beq	.L1587
 6716 58ac 005096E5 		ldr	r5, [r6]
 6717 58b0 000055E3 		cmp	r5, #0
 6718 58b4 1200000A 		beq	.L1441
 6719 58b8 0A30D4E5 		ldrb	r3, [r4, #10]	@ zero_extendqisi2
 6720 58bc 000053E3 		cmp	r3, #0
 6721 58c0 9701000A 		beq	.L1564
 6722 58c4 010053E3 		cmp	r3, #1
 6723 58c8 ED01000A 		beq	.L1565
 6724 58cc 0C208AE2 		add	r2, r10, #12
 6725 58d0 020054E1 		cmp	r4, r2
 6726 58d4 2C02000A 		beq	.L1566
ARM GAS  C:\Users\ldebo\AppData\Local\Temp\ccISOhOE.s 			page 119


 6727 58d8 DC23D4E5 		ldrb	r2, [r4, #988]	@ zero_extendqisi2
 6728 58dc 090052E3 		cmp	r2, #9
 6729 58e0 FA01000A 		beq	.L1443
 6730 58e4 FF0052E3 		cmp	r2, #255
 6731 58e8 EE01000A 		beq	.L1444
 6732 58ec 000052E3 		cmp	r2, #0
 6733 58f0 30199F15 		ldrne	r1, .L1719+12
 6734 58f4 E401000A 		beq	.L1703
 6735              	.L1442:
 6736 58f8 0B20A0E1 		mov	r2, fp
 6737 58fc 54099FE5 		ldr	r0, .L1719+60
 6738 5900 35FF2FE1 		blx	r5
 6739              	.L1441:
 6740 5904 0070A0E3 		mov	r7, #0
 6741 5908 0150A0E3 		mov	r5, #1
 6742 590c 040099E5 		ldr	r0, [r9, #4]
 6743 5910 FEFFFFEB 		bl	UsbDeallocateDevice
 6744 5914 042094E5 		ldr	r2, [r4, #4]
 6745 5918 0530D4E5 		ldrb	r3, [r4, #5]	@ zero_extendqisi2
 6746 591c 24C0DDE5 		ldrb	ip, [sp, #36]	@ zero_extendqisi2
 6747 5920 047089E5 		str	r7, [r9, #4]
 6748 5924 40208DE5 		str	r2, [sp, #64]
 6749 5928 58C0CDE5 		strb	ip, [sp, #88]
 6750 592c 4130CDE5 		strb	r3, [sp, #65]
 6751 5930 B0C2DDE1 		ldrh	ip, [sp, #32]
 6752 5934 58208DE2 		add	r2, sp, #88
 6753 5938 40009DE5 		ldr	r0, [sp, #64]
 6754 593c 0710A0E1 		mov	r1, r7
 6755 5940 5C708DE5 		str	r7, [sp, #92]
 6756 5944 14308DE5 		str	r3, [sp, #20]
 6757 5948 BCC5CDE1 		strh	ip, [sp, #92]	@ movhi
 6758 594c 5950CDE5 		strb	r5, [sp, #89]
 6759 5950 BA55CDE1 		strh	r5, [sp, #90]	@ movhi
 6760 5954 7BF0FFEB 		bl	HCDSubmitControlMessage.constprop.6
 6761 5958 070050E1 		cmp	r0, r7
 6762 595c 4D01000A 		beq	.L1576
 6763 5960 009096E5 		ldr	r9, [r6]
 6764 5964 070059E1 		cmp	r9, r7
 6765 5968 4A01000A 		beq	.L1576
 6766 596c 0530A0E1 		mov	r3, r5
 6767 5970 00708DE5 		str	r7, [sp]
 6768 5974 18209DE5 		ldr	r2, [sp, #24]
 6769 5978 14109DE5 		ldr	r1, [sp, #20]
 6770 597c B4089FE5 		ldr	r0, .L1719+28
 6771 5980 39FF2FE1 		blx	r9
 6772 5984 005096E5 		ldr	r5, [r6]
 6773 5988 070055E1 		cmp	r5, r7
 6774 598c 4101000A 		beq	.L1576
 6775 5990 0A30D4E5 		ldrb	r3, [r4, #10]	@ zero_extendqisi2
 6776 5994 070053E1 		cmp	r3, r7
 6777 5998 6B01000A 		beq	.L1577
 6778 599c 010053E3 		cmp	r3, #1
 6779 59a0 D701000A 		beq	.L1578
 6780 59a4 0CA08AE2 		add	r10, r10, #12
 6781 59a8 0A0054E1 		cmp	r4, r10
 6782 59ac 0402000A 		beq	.L1579
 6783 59b0 DC23D4E5 		ldrb	r2, [r4, #988]	@ zero_extendqisi2
ARM GAS  C:\Users\ldebo\AppData\Local\Temp\ccISOhOE.s 			page 120


 6784 59b4 090052E3 		cmp	r2, #9
 6785 59b8 E201000A 		beq	.L1448
 6786 59bc FF0052E3 		cmp	r2, #255
 6787 59c0 D801000A 		beq	.L1449
 6788 59c4 070052E1 		cmp	r2, r7
 6789 59c8 58189F15 		ldrne	r1, .L1719+12
 6790 59cc CE01000A 		beq	.L1704
 6791              	.L1447:
 6792 59d0 0B20A0E1 		mov	r2, fp
 6793 59d4 80089FE5 		ldr	r0, .L1719+64
 6794 59d8 0870A0E1 		mov	r7, r8
 6795 59dc 35FF2FE1 		blx	r5
 6796 59e0 42FEFFEA 		b	.L1587
 6797              	.L1480:
 6798 59e4 54189FE5 		ldr	r1, .L1719+36
 6799 59e8 B6FEFFEA 		b	.L1381
 6800              	.L1470:
 6801 59ec 4C189FE5 		ldr	r1, .L1719+36
 6802 59f0 0B20A0E1 		mov	r2, fp
 6803 59f4 30089FE5 		ldr	r0, .L1719+16
 6804 59f8 35FF2FE1 		blx	r5
 6805 59fc 8CFEFFEA 		b	.L1705
 6806              	.L1511:
 6807 5a00 38389FE5 		ldr	r3, .L1719+36
 6808 5a04 23FFFFEA 		b	.L1405
 6809              	.L1501:
 6810 5a08 30189FE5 		ldr	r1, .L1719+36
 6811 5a0c 11FFFFEA 		b	.L1400
 6812              	.L1701:
 6813 5a10 0670E0E3 		mvn	r7, #6
 6814              	.L1416:
 6815 5a14 005096E5 		ldr	r5, [r6]
 6816 5a18 000055E3 		cmp	r5, #0
 6817 5a1c 33FEFF0A 		beq	.L1587
 6818 5a20 0A30D4E5 		ldrb	r3, [r4, #10]	@ zero_extendqisi2
 6819 5a24 000053E3 		cmp	r3, #0
 6820 5a28 2800000A 		beq	.L1533
 6821 5a2c 010053E3 		cmp	r3, #1
 6822 5a30 F000000A 		beq	.L1534
 6823 5a34 E8279FE5 		ldr	r2, .L1719+8
 6824 5a38 020054E1 		cmp	r4, r2
 6825 5a3c 3A01000A 		beq	.L1535
 6826 5a40 DC23D4E5 		ldrb	r2, [r4, #988]	@ zero_extendqisi2
 6827 5a44 090052E3 		cmp	r2, #9
 6828 5a48 F700000A 		beq	.L1422
 6829 5a4c FF0052E3 		cmp	r2, #255
 6830 5a50 EA00000A 		beq	.L1423
 6831 5a54 000052E3 		cmp	r2, #0
 6832 5a58 C8179F15 		ldrne	r1, .L1719+12
 6833 5a5c FF00000A 		beq	.L1706
 6834              	.L1421:
 6835 5a60 0B20A0E1 		mov	r2, fp
 6836 5a64 F4079FE5 		ldr	r0, .L1719+68
 6837 5a68 35FF2FE1 		blx	r5
 6838 5a6c 1FFEFFEA 		b	.L1587
 6839              	.L1418:
 6840 5a70 006096E5 		ldr	r6, [r6]
ARM GAS  C:\Users\ldebo\AppData\Local\Temp\ccISOhOE.s 			page 121


 6841 5a74 000056E3 		cmp	r6, #0
 6842 5a78 0570A001 		moveq	r7, r5
 6843 5a7c 1BFEFF0A 		beq	.L1587
 6844 5a80 0A30D4E5 		ldrb	r3, [r4, #10]	@ zero_extendqisi2
 6845 5a84 000053E3 		cmp	r3, #0
 6846 5a88 0C01000A 		beq	.L1544
 6847 5a8c 010053E3 		cmp	r3, #1
 6848 5a90 3701000A 		beq	.L1545
 6849 5a94 080054E1 		cmp	r4, r8
 6850 5a98 B901000A 		beq	.L1546
 6851 5a9c DC23D4E5 		ldrb	r2, [r4, #988]	@ zero_extendqisi2
 6852 5aa0 090052E3 		cmp	r2, #9
 6853 5aa4 4E01000A 		beq	.L1427
 6854 5aa8 FF0052E3 		cmp	r2, #255
 6855 5aac 4101000A 		beq	.L1428
 6856 5ab0 000052E3 		cmp	r2, #0
 6857 5ab4 6C179F15 		ldrne	r1, .L1719+12
 6858 5ab8 6501000A 		beq	.L1707
 6859              	.L1426:
 6860 5abc 0B20A0E1 		mov	r2, fp
 6861 5ac0 9C079FE5 		ldr	r0, .L1719+72
 6862 5ac4 0570A0E1 		mov	r7, r5
 6863 5ac8 36FF2FE1 		blx	r6
 6864 5acc 07FEFFEA 		b	.L1587
 6865              	.L1533:
 6866 5ad0 68179FE5 		ldr	r1, .L1719+36
 6867 5ad4 E1FFFFEA 		b	.L1421
 6868              	.L1696:
 6869 5ad8 040053E3 		cmp	r3, #4
 6870 5adc 58179F15 		ldrne	r1, .L1719+32
 6871 5ae0 78FEFF1A 		bne	.L1381
 6872              	.L1457:
 6873 5ae4 0400A0E1 		mov	r0, r4
 6874 5ae8 44E9FFEB 		bl	UsbGetDescription.part.2
 6875 5aec 0010A0E1 		mov	r1, r0
 6876 5af0 74FEFFEA 		b	.L1381
 6877              	.L1695:
 6878 5af4 040053E3 		cmp	r3, #4
 6879 5af8 3C179F15 		ldrne	r1, .L1719+32
 6880 5afc 49FEFF1A 		bne	.L1376
 6881              	.L1456:
 6882 5b00 0400A0E1 		mov	r0, r4
 6883 5b04 3DE9FFEB 		bl	UsbGetDescription.part.2
 6884 5b08 0010A0E1 		mov	r1, r0
 6885 5b0c 45FEFFEA 		b	.L1376
 6886              	.L1698:
 6887 5b10 040053E3 		cmp	r3, #4
 6888 5b14 20379F15 		ldrne	r3, .L1719+32
 6889 5b18 DEFEFF1A 		bne	.L1405
 6890              	.L1460:
 6891 5b1c 0900A0E1 		mov	r0, r9
 6892 5b20 36E9FFEB 		bl	UsbGetDescription.part.2
 6893 5b24 0030A0E1 		mov	r3, r0
 6894 5b28 DAFEFFEA 		b	.L1405
 6895              	.L1697:
 6896 5b2c 040053E3 		cmp	r3, #4
 6897 5b30 04179F15 		ldrne	r1, .L1719+32
ARM GAS  C:\Users\ldebo\AppData\Local\Temp\ccISOhOE.s 			page 122


 6898 5b34 C7FEFF1A 		bne	.L1400
 6899              	.L1459:
 6900 5b38 0400A0E1 		mov	r0, r4
 6901 5b3c 2FE9FFEB 		bl	UsbGetDescription.part.2
 6902 5b40 0010A0E1 		mov	r1, r0
 6903 5b44 C3FEFFEA 		b	.L1400
 6904              	.L1392:
 6905 5b48 18279FE5 		ldr	r2, .L1719+76
 6906 5b4c E01394E5 		ldr	r1, [r4, #992]
 6907 5b50 020051E1 		cmp	r1, r2
 6908 5b54 F600000A 		beq	.L1708
 6909 5b58 040053E3 		cmp	r3, #4
 6910 5b5c 08179F15 		ldrne	r1, .L1719+80
 6911 5b60 97FEFF0A 		beq	.L1458
 6912 5b64 9BFEFFEA 		b	.L1390
 6913              	.L1524:
 6914 5b68 00179FE5 		ldr	r1, .L1719+84
 6915 5b6c F1FEFFEA 		b	.L1411
 6916              	.L1522:
 6917 5b70 C8169FE5 		ldr	r1, .L1719+36
 6918 5b74 EFFEFFEA 		b	.L1411
 6919              	.L1471:
 6920 5b78 F4169FE5 		ldr	r1, .L1719+88
 6921 5b7c 29FEFFEA 		b	.L1376
 6922              	.L1481:
 6923 5b80 EC169FE5 		ldr	r1, .L1719+88
 6924 5b84 4FFEFFEA 		b	.L1381
 6925              	.L1377:
 6926 5b88 F64F84E2 		add	r4, r4, #984
 6927 5b8c B230D4E1 		ldrh	r3, [r4, #2]
 6928 5b90 210E53E3 		cmp	r3, #528
 6929 5b94 B700000A 		beq	.L1474
 6930 5b98 020C53E3 		cmp	r3, #512
 6931 5b9c CB00000A 		beq	.L1475
 6932 5ba0 110E53E3 		cmp	r3, #272
 6933 5ba4 D800000A 		beq	.L1476
 6934 5ba8 C8169FE5 		ldr	r1, .L1719+92
 6935 5bac 010C53E3 		cmp	r3, #256
 6936 5bb0 102041E2 		sub	r2, r1, #16
 6937 5bb4 0210A001 		moveq	r1, r2
 6938 5bb8 1AFEFFEA 		b	.L1376
 6939              	.L1378:
 6940 5bbc A4269FE5 		ldr	r2, .L1719+76
 6941 5bc0 E01394E5 		ldr	r1, [r4, #992]
 6942 5bc4 020051E1 		cmp	r1, r2
 6943 5bc8 AC00000A 		beq	.L1709
 6944 5bcc 040053E3 		cmp	r3, #4
 6945 5bd0 94169F15 		ldrne	r1, .L1719+80
 6946 5bd4 C9FFFF0A 		beq	.L1456
 6947 5bd8 12FEFFEA 		b	.L1376
 6948              	.L1383:
 6949 5bdc 84269FE5 		ldr	r2, .L1719+76
 6950 5be0 E01394E5 		ldr	r1, [r4, #992]
 6951 5be4 020051E1 		cmp	r1, r2
 6952 5be8 A600000A 		beq	.L1710
 6953 5bec 040053E3 		cmp	r3, #4
 6954 5bf0 74169F15 		ldrne	r1, .L1719+80
ARM GAS  C:\Users\ldebo\AppData\Local\Temp\ccISOhOE.s 			page 123


 6955 5bf4 BAFFFF0A 		beq	.L1457
 6956 5bf8 32FEFFEA 		b	.L1381
 6957              	.L1382:
 6958 5bfc F63F84E2 		add	r3, r4, #984
 6959 5c00 B230D3E1 		ldrh	r3, [r3, #2]
 6960 5c04 210E53E3 		cmp	r3, #528
 6961 5c08 A000000A 		beq	.L1484
 6962 5c0c 020C53E3 		cmp	r3, #512
 6963 5c10 B500000A 		beq	.L1485
 6964 5c14 110E53E3 		cmp	r3, #272
 6965 5c18 B900000A 		beq	.L1486
 6966 5c1c 54169FE5 		ldr	r1, .L1719+92
 6967 5c20 010C53E3 		cmp	r3, #256
 6968 5c24 102041E2 		sub	r2, r1, #16
 6969 5c28 0210A001 		moveq	r1, r2
 6970 5c2c 25FEFFEA 		b	.L1381
 6971              	.L1512:
 6972 5c30 3C369FE5 		ldr	r3, .L1719+88
 6973 5c34 97FEFFEA 		b	.L1405
 6974              	.L1502:
 6975 5c38 34169FE5 		ldr	r1, .L1719+88
 6976 5c3c 85FEFFEA 		b	.L1400
 6977              	.L1406:
 6978 5c40 F69F89E2 		add	r9, r9, #984
 6979 5c44 B220D9E1 		ldrh	r2, [r9, #2]
 6980 5c48 210E52E3 		cmp	r2, #528
 6981 5c4c 9700000A 		beq	.L1515
 6982 5c50 020C52E3 		cmp	r2, #512
 6983 5c54 A600000A 		beq	.L1516
 6984 5c58 110E52E3 		cmp	r2, #272
 6985 5c5c AE00000A 		beq	.L1517
 6986 5c60 10369FE5 		ldr	r3, .L1719+92
 6987 5c64 010C52E3 		cmp	r2, #256
 6988 5c68 100043E2 		sub	r0, r3, #16
 6989 5c6c 0030A001 		moveq	r3, r0
 6990 5c70 88FEFFEA 		b	.L1405
 6991              	.L1402:
 6992 5c74 EC259FE5 		ldr	r2, .L1719+76
 6993 5c78 E01394E5 		ldr	r1, [r4, #992]
 6994 5c7c 020051E1 		cmp	r1, r2
 6995 5c80 8600000A 		beq	.L1711
 6996 5c84 040053E3 		cmp	r3, #4
 6997 5c88 DC159F15 		ldrne	r1, .L1719+80
 6998 5c8c A9FFFF0A 		beq	.L1459
 6999 5c90 70FEFFEA 		b	.L1400
 7000              	.L1407:
 7001 5c94 CC259FE5 		ldr	r2, .L1719+76
 7002 5c98 E00399E5 		ldr	r0, [r9, #992]
 7003 5c9c 020050E1 		cmp	r0, r2
 7004 5ca0 8400000A 		beq	.L1712
 7005 5ca4 040053E3 		cmp	r3, #4
 7006 5ca8 BC359F15 		ldrne	r3, .L1719+80
 7007 5cac 9AFFFF0A 		beq	.L1460
 7008 5cb0 78FEFFEA 		b	.L1405
 7009              	.L1401:
 7010 5cb4 F63F84E2 		add	r3, r4, #984
 7011 5cb8 B230D3E1 		ldrh	r3, [r3, #2]
ARM GAS  C:\Users\ldebo\AppData\Local\Temp\ccISOhOE.s 			page 124


 7012 5cbc 210E53E3 		cmp	r3, #528
 7013 5cc0 7800000A 		beq	.L1505
 7014 5cc4 020C53E3 		cmp	r3, #512
 7015 5cc8 8B00000A 		beq	.L1506
 7016 5ccc 110E53E3 		cmp	r3, #272
 7017 5cd0 8F00000A 		beq	.L1507
 7018 5cd4 9C159FE5 		ldr	r1, .L1719+92
 7019 5cd8 010C53E3 		cmp	r3, #256
 7020 5cdc 102041E2 		sub	r2, r1, #16
 7021 5ce0 0210A001 		moveq	r1, r2
 7022 5ce4 5BFEFFEA 		b	.L1400
 7023              	.L1532:
 7024 5ce8 0170E0E3 		mvn	r7, #1
 7025 5cec 48FFFFEA 		b	.L1416
 7026              	.L1492:
 7027 5cf0 7C159FE5 		ldr	r1, .L1719+88
 7028 5cf4 37FEFFEA 		b	.L1390
 7029              	.L1391:
 7030 5cf8 F63F84E2 		add	r3, r4, #984
 7031 5cfc B230D3E1 		ldrh	r3, [r3, #2]
 7032 5d00 210E53E3 		cmp	r3, #528
 7033 5d04 8C00000A 		beq	.L1495
 7034 5d08 020C53E3 		cmp	r3, #512
 7035 5d0c 8C00000A 		beq	.L1496
 7036 5d10 110E53E3 		cmp	r3, #272
 7037 5d14 8E00000A 		beq	.L1497
 7038 5d18 58159FE5 		ldr	r1, .L1719+92
 7039 5d1c 010C53E3 		cmp	r3, #256
 7040 5d20 102041E2 		sub	r2, r1, #16
 7041 5d24 0210A001 		moveq	r1, r2
 7042 5d28 2AFEFFEA 		b	.L1390
 7043              	.L1482:
 7044 5d2c 3C159FE5 		ldr	r1, .L1719+84
 7045 5d30 E4FDFFEA 		b	.L1381
 7046              	.L1472:
 7047 5d34 34159FE5 		ldr	r1, .L1719+84
 7048 5d38 BAFDFFEA 		b	.L1376
 7049              	.L1503:
 7050 5d3c 2C159FE5 		ldr	r1, .L1719+84
 7051 5d40 44FEFFEA 		b	.L1400
 7052              	.L1513:
 7053 5d44 24359FE5 		ldr	r3, .L1719+84
 7054 5d48 52FEFFEA 		b	.L1405
 7055              	.L1523:
 7056 5d4c 20159FE5 		ldr	r1, .L1719+88
 7057 5d50 78FEFFEA 		b	.L1411
 7058              	.L1413:
 7059 5d54 0C159FE5 		ldr	r1, .L1719+76
 7060 5d58 E00394E5 		ldr	r0, [r4, #992]
 7061 5d5c 010050E1 		cmp	r0, r1
 7062 5d60 7F00000A 		beq	.L1713
 7063 5d64 040052E3 		cmp	r2, #4
 7064 5d68 FC149F15 		ldrne	r1, .L1719+80
 7065 5d6c 71FEFF1A 		bne	.L1411
 7066              	.L1461:
 7067 5d70 0400A0E1 		mov	r0, r4
 7068 5d74 14308DE5 		str	r3, [sp, #20]
ARM GAS  C:\Users\ldebo\AppData\Local\Temp\ccISOhOE.s 			page 125


 7069 5d78 A0E8FFEB 		bl	UsbGetDescription.part.2
 7070 5d7c 14309DE5 		ldr	r3, [sp, #20]
 7071 5d80 0010A0E1 		mov	r1, r0
 7072 5d84 6BFEFFEA 		b	.L1411
 7073              	.L1412:
 7074 5d88 F64F84E2 		add	r4, r4, #984
 7075 5d8c B220D4E1 		ldrh	r2, [r4, #2]
 7076 5d90 210E52E3 		cmp	r2, #528
 7077 5d94 7000000A 		beq	.L1526
 7078 5d98 020C52E3 		cmp	r2, #512
 7079 5d9c 7200000A 		beq	.L1527
 7080 5da0 110E52E3 		cmp	r2, #272
 7081 5da4 A600000A 		beq	.L1528
 7082 5da8 C8149FE5 		ldr	r1, .L1719+92
 7083 5dac 010C52E3 		cmp	r2, #256
 7084 5db0 100041E2 		sub	r0, r1, #16
 7085 5db4 0010A001 		moveq	r1, r0
 7086 5db8 5EFEFFEA 		b	.L1411
 7087              	.L1700:
 7088 5dbc 040052E3 		cmp	r2, #4
 7089 5dc0 74149F15 		ldrne	r1, .L1719+32
 7090 5dc4 5BFEFF1A 		bne	.L1411
 7091 5dc8 E8FFFFEA 		b	.L1461
 7092              	.L1437:
 7093 5dcc 020013E3 		tst	r3, #2
 7094 5dd0 0430D0E5 		ldrb	r3, [r0, #4]	@ zero_extendqisi2
 7095 5dd4 3F00000A 		beq	.L1439
 7096 5dd8 0430C3E3 		bic	r3, r3, #4
 7097 5ddc 083083E3 		orr	r3, r3, #8
 7098 5de0 0430C0E5 		strb	r3, [r0, #4]
 7099 5de4 0530D4E5 		ldrb	r3, [r4, #5]	@ zero_extendqisi2
 7100 5de8 1C20DDE5 		ldrb	r2, [sp, #28]	@ zero_extendqisi2
 7101 5dec 0630C0E5 		strb	r3, [r0, #6]
 7102 5df0 0720C0E5 		strb	r2, [r0, #7]
 7103 5df4 A5FEFFEA 		b	.L1438
 7104              	.L1534:
 7105 5df8 74149FE5 		ldr	r1, .L1719+88
 7106 5dfc 17FFFFEA 		b	.L1421
 7107              	.L1423:
 7108 5e00 60249FE5 		ldr	r2, .L1719+76
 7109 5e04 E01394E5 		ldr	r1, [r4, #992]
 7110 5e08 020051E1 		cmp	r1, r2
 7111 5e0c 9400000A 		beq	.L1714
 7112 5e10 040053E3 		cmp	r3, #4
 7113 5e14 50149F15 		ldrne	r1, .L1719+80
 7114 5e18 10FFFF1A 		bne	.L1421
 7115              	.L1462:
 7116 5e1c 0400A0E1 		mov	r0, r4
 7117 5e20 76E8FFEB 		bl	UsbGetDescription.part.2
 7118 5e24 0010A0E1 		mov	r1, r0
 7119 5e28 0CFFFFEA 		b	.L1421
 7120              	.L1422:
 7121 5e2c F64F84E2 		add	r4, r4, #984
 7122 5e30 B230D4E1 		ldrh	r3, [r4, #2]
 7123 5e34 210E53E3 		cmp	r3, #528
 7124 5e38 8300000A 		beq	.L1537
 7125 5e3c 020C53E3 		cmp	r3, #512
ARM GAS  C:\Users\ldebo\AppData\Local\Temp\ccISOhOE.s 			page 126


 7126 5e40 8D00000A 		beq	.L1538
 7127 5e44 110E53E3 		cmp	r3, #272
 7128 5e48 9E00000A 		beq	.L1539
 7129 5e4c 24149FE5 		ldr	r1, .L1719+92
 7130 5e50 010C53E3 		cmp	r3, #256
 7131 5e54 102041E2 		sub	r2, r1, #16
 7132 5e58 0210A001 		moveq	r1, r2
 7133 5e5c FFFEFFEA 		b	.L1421
 7134              	.L1706:
 7135 5e60 040053E3 		cmp	r3, #4
 7136 5e64 D0139F15 		ldrne	r1, .L1719+32
 7137 5e68 FCFEFF1A 		bne	.L1421
 7138 5e6c EAFFFFEA 		b	.L1462
 7139              	.L1493:
 7140 5e70 F8139FE5 		ldr	r1, .L1719+84
 7141 5e74 D7FDFFEA 		b	.L1390
 7142              	.L1474:
 7143 5e78 FC139FE5 		ldr	r1, .L1719+96
 7144 5e7c 69FDFFEA 		b	.L1376
 7145              	.L1709:
 7146 5e80 F8139FE5 		ldr	r1, .L1719+100
 7147 5e84 67FDFFEA 		b	.L1376
 7148              	.L1710:
 7149 5e88 F0139FE5 		ldr	r1, .L1719+100
 7150 5e8c 8DFDFFEA 		b	.L1381
 7151              	.L1484:
 7152 5e90 E4139FE5 		ldr	r1, .L1719+96
 7153 5e94 8BFDFFEA 		b	.L1381
 7154              	.L1576:
 7155 5e98 0870A0E1 		mov	r7, r8
 7156 5e9c 13FDFFEA 		b	.L1587
 7157              	.L1711:
 7158 5ea0 D8139FE5 		ldr	r1, .L1719+100
 7159 5ea4 EBFDFFEA 		b	.L1400
 7160              	.L1505:
 7161 5ea8 CC139FE5 		ldr	r1, .L1719+96
 7162 5eac E9FDFFEA 		b	.L1400
 7163              	.L1515:
 7164 5eb0 C4339FE5 		ldr	r3, .L1719+96
 7165 5eb4 F7FDFFEA 		b	.L1405
 7166              	.L1712:
 7167 5eb8 C0339FE5 		ldr	r3, .L1719+100
 7168 5ebc F5FDFFEA 		b	.L1405
 7169              	.L1544:
 7170 5ec0 78139FE5 		ldr	r1, .L1719+36
 7171 5ec4 FCFEFFEA 		b	.L1426
 7172              	.L1554:
 7173 5ec8 70139FE5 		ldr	r1, .L1719+36
 7174 5ecc 5FFEFFEA 		b	.L1432
 7175              	.L1475:
 7176 5ed0 AC139FE5 		ldr	r1, .L1719+104
 7177 5ed4 53FDFFEA 		b	.L1376
 7178              	.L1439:
 7179 5ed8 0830C3E3 		bic	r3, r3, #8
 7180 5edc 043083E3 		orr	r3, r3, #4
 7181 5ee0 0430C0E5 		strb	r3, [r0, #4]
 7182 5ee4 0530D4E5 		ldrb	r3, [r4, #5]	@ zero_extendqisi2
ARM GAS  C:\Users\ldebo\AppData\Local\Temp\ccISOhOE.s 			page 127


 7183 5ee8 68FEFFEA 		b	.L1438
 7184              	.L1485:
 7185 5eec 90139FE5 		ldr	r1, .L1719+104
 7186 5ef0 74FDFFEA 		b	.L1381
 7187              	.L1516:
 7188 5ef4 88339FE5 		ldr	r3, .L1719+104
 7189 5ef8 E6FDFFEA 		b	.L1405
 7190              	.L1506:
 7191 5efc 80139FE5 		ldr	r1, .L1719+104
 7192 5f00 D4FDFFEA 		b	.L1400
 7193              	.L1486:
 7194 5f04 7C139FE5 		ldr	r1, .L1719+108
 7195 5f08 6EFDFFEA 		b	.L1381
 7196              	.L1476:
 7197 5f0c 74139FE5 		ldr	r1, .L1719+108
 7198 5f10 44FDFFEA 		b	.L1376
 7199              	.L1507:
 7200 5f14 6C139FE5 		ldr	r1, .L1719+108
 7201 5f18 CEFDFFEA 		b	.L1400
 7202              	.L1517:
 7203 5f1c 64339FE5 		ldr	r3, .L1719+108
 7204 5f20 DCFDFFEA 		b	.L1405
 7205              	.L1564:
 7206 5f24 14139FE5 		ldr	r1, .L1719+36
 7207 5f28 72FEFFEA 		b	.L1442
 7208              	.L1535:
 7209 5f2c 3C139FE5 		ldr	r1, .L1719+84
 7210 5f30 CAFEFFEA 		b	.L1421
 7211              	.L1708:
 7212 5f34 44139FE5 		ldr	r1, .L1719+100
 7213 5f38 A6FDFFEA 		b	.L1390
 7214              	.L1495:
 7215 5f3c 38139FE5 		ldr	r1, .L1719+96
 7216 5f40 A4FDFFEA 		b	.L1390
 7217              	.L1496:
 7218 5f44 38139FE5 		ldr	r1, .L1719+104
 7219 5f48 A2FDFFEA 		b	.L1390
 7220              	.L1577:
 7221 5f4c EC129FE5 		ldr	r1, .L1719+36
 7222 5f50 9EFEFFEA 		b	.L1447
 7223              	.L1497:
 7224 5f54 2C139FE5 		ldr	r1, .L1719+108
 7225 5f58 9EFDFFEA 		b	.L1390
 7226              	.L1526:
 7227 5f5c 18139FE5 		ldr	r1, .L1719+96
 7228 5f60 F4FDFFEA 		b	.L1411
 7229              	.L1713:
 7230 5f64 14139FE5 		ldr	r1, .L1719+100
 7231 5f68 F2FDFFEA 		b	.L1411
 7232              	.L1527:
 7233 5f6c 10139FE5 		ldr	r1, .L1719+104
 7234 5f70 F0FDFFEA 		b	.L1411
 7235              	.L1545:
 7236 5f74 F8129FE5 		ldr	r1, .L1719+88
 7237 5f78 CFFEFFEA 		b	.L1426
 7238              	.L1555:
 7239 5f7c F0129FE5 		ldr	r1, .L1719+88
ARM GAS  C:\Users\ldebo\AppData\Local\Temp\ccISOhOE.s 			page 128


 7240 5f80 32FEFFEA 		b	.L1432
 7241              	.L1433:
 7242 5f84 F63F84E2 		add	r3, r4, #984
 7243 5f88 B230D3E1 		ldrh	r3, [r3, #2]
 7244 5f8c 210E53E3 		cmp	r3, #528
 7245 5f90 8900000A 		beq	.L1558
 7246 5f94 020C53E3 		cmp	r3, #512
 7247 5f98 8500000A 		beq	.L1559
 7248 5f9c 110E53E3 		cmp	r3, #272
 7249 5fa0 8B00000A 		beq	.L1560
 7250 5fa4 CC129FE5 		ldr	r1, .L1719+92
 7251 5fa8 010C53E3 		cmp	r3, #256
 7252 5fac 102041E2 		sub	r2, r1, #16
 7253 5fb0 0210A001 		moveq	r1, r2
 7254 5fb4 25FEFFEA 		b	.L1432
 7255              	.L1428:
 7256 5fb8 A8229FE5 		ldr	r2, .L1719+76
 7257 5fbc E01394E5 		ldr	r1, [r4, #992]
 7258 5fc0 020051E1 		cmp	r1, r2
 7259 5fc4 7800000A 		beq	.L1715
 7260 5fc8 040053E3 		cmp	r3, #4
 7261 5fcc 98129F15 		ldrne	r1, .L1719+80
 7262 5fd0 B9FEFF1A 		bne	.L1426
 7263              	.L1463:
 7264 5fd4 0400A0E1 		mov	r0, r4
 7265 5fd8 08E8FFEB 		bl	UsbGetDescription.part.2
 7266 5fdc 0010A0E1 		mov	r1, r0
 7267 5fe0 B5FEFFEA 		b	.L1426
 7268              	.L1427:
 7269 5fe4 F64F84E2 		add	r4, r4, #984
 7270 5fe8 B230D4E1 		ldrh	r3, [r4, #2]
 7271 5fec 210E53E3 		cmp	r3, #528
 7272 5ff0 6B00000A 		beq	.L1548
 7273 5ff4 020C53E3 		cmp	r3, #512
 7274 5ff8 6700000A 		beq	.L1549
 7275 5ffc 110E53E3 		cmp	r3, #272
 7276 6000 7100000A 		beq	.L1550
 7277 6004 6C129FE5 		ldr	r1, .L1719+92
 7278 6008 010C53E3 		cmp	r3, #256
 7279 600c 102041E2 		sub	r2, r1, #16
 7280 6010 0210A001 		moveq	r1, r2
 7281 6014 A8FEFFEA 		b	.L1426
 7282              	.L1434:
 7283 6018 48229FE5 		ldr	r2, .L1719+76
 7284 601c E01394E5 		ldr	r1, [r4, #992]
 7285 6020 020051E1 		cmp	r1, r2
 7286 6024 5A00000A 		beq	.L1716
 7287 6028 040053E3 		cmp	r3, #4
 7288 602c 38129F15 		ldrne	r1, .L1719+80
 7289 6030 06FEFF1A 		bne	.L1432
 7290              	.L1464:
 7291 6034 0400A0E1 		mov	r0, r4
 7292 6038 F0E7FFEB 		bl	UsbGetDescription.part.2
 7293 603c 0010A0E1 		mov	r1, r0
 7294 6040 02FEFFEA 		b	.L1432
 7295              	.L1528:
 7296 6044 3C129FE5 		ldr	r1, .L1719+108
ARM GAS  C:\Users\ldebo\AppData\Local\Temp\ccISOhOE.s 			page 129


 7297 6048 BAFDFFEA 		b	.L1411
 7298              	.L1537:
 7299 604c 28129FE5 		ldr	r1, .L1719+96
 7300 6050 82FEFFEA 		b	.L1421
 7301              	.L1707:
 7302 6054 040053E3 		cmp	r3, #4
 7303 6058 DC119F15 		ldrne	r1, .L1719+32
 7304 605c 96FEFF1A 		bne	.L1426
 7305 6060 DBFFFFEA 		b	.L1463
 7306              	.L1714:
 7307 6064 14129FE5 		ldr	r1, .L1719+100
 7308 6068 7CFEFFEA 		b	.L1421
 7309              	.L1702:
 7310 606c 040053E3 		cmp	r3, #4
 7311 6070 C4119F15 		ldrne	r1, .L1719+32
 7312 6074 F5FDFF1A 		bne	.L1432
 7313 6078 EDFFFFEA 		b	.L1464
 7314              	.L1538:
 7315 607c 00129FE5 		ldr	r1, .L1719+104
 7316 6080 76FEFFEA 		b	.L1421
 7317              	.L1565:
 7318 6084 E8119FE5 		ldr	r1, .L1719+88
 7319 6088 1AFEFFEA 		b	.L1442
 7320              	.L1703:
 7321 608c 040053E3 		cmp	r3, #4
 7322 6090 A4119F15 		ldrne	r1, .L1719+32
 7323 6094 17FEFF1A 		bne	.L1442
 7324              	.L1465:
 7325 6098 0400A0E1 		mov	r0, r4
 7326 609c D7E7FFEB 		bl	UsbGetDescription.part.2
 7327 60a0 0010A0E1 		mov	r1, r0
 7328 60a4 13FEFFEA 		b	.L1442
 7329              	.L1444:
 7330 60a8 B8219FE5 		ldr	r2, .L1719+76
 7331 60ac E01394E5 		ldr	r1, [r4, #992]
 7332 60b0 020051E1 		cmp	r1, r2
 7333 60b4 5000000A 		beq	.L1717
 7334 60b8 040053E3 		cmp	r3, #4
 7335 60bc A8119F15 		ldrne	r1, .L1719+80
 7336 60c0 F4FFFF0A 		beq	.L1465
 7337 60c4 0BFEFFEA 		b	.L1442
 7338              	.L1539:
 7339 60c8 B8119FE5 		ldr	r1, .L1719+108
 7340 60cc 63FEFFEA 		b	.L1421
 7341              	.L1443:
 7342 60d0 F63F84E2 		add	r3, r4, #984
 7343 60d4 B230D3E1 		ldrh	r3, [r3, #2]
 7344 60d8 210E53E3 		cmp	r3, #528
 7345 60dc 4400000A 		beq	.L1568
 7346 60e0 020C53E3 		cmp	r3, #512
 7347 60e4 4000000A 		beq	.L1569
 7348 60e8 110E53E3 		cmp	r3, #272
 7349 60ec 3C00000A 		beq	.L1570
 7350 60f0 80119FE5 		ldr	r1, .L1719+92
 7351 60f4 010C53E3 		cmp	r3, #256
 7352 60f8 102041E2 		sub	r2, r1, #16
 7353 60fc 0210A001 		moveq	r1, r2
ARM GAS  C:\Users\ldebo\AppData\Local\Temp\ccISOhOE.s 			page 130


 7354 6100 FCFDFFEA 		b	.L1442
 7355              	.L1578:
 7356 6104 68119FE5 		ldr	r1, .L1719+88
 7357 6108 30FEFFEA 		b	.L1447
 7358              	.L1704:
 7359 610c 040053E3 		cmp	r3, #4
 7360 6110 24119F15 		ldrne	r1, .L1719+32
 7361 6114 2DFEFF1A 		bne	.L1447
 7362              	.L1466:
 7363 6118 0400A0E1 		mov	r0, r4
 7364 611c B7E7FFEB 		bl	UsbGetDescription.part.2
 7365 6120 0010A0E1 		mov	r1, r0
 7366 6124 29FEFFEA 		b	.L1447
 7367              	.L1449:
 7368 6128 38219FE5 		ldr	r2, .L1719+76
 7369 612c E01394E5 		ldr	r1, [r4, #992]
 7370 6130 020051E1 		cmp	r1, r2
 7371 6134 2800000A 		beq	.L1718
 7372 6138 040053E3 		cmp	r3, #4
 7373 613c 28119F15 		ldrne	r1, .L1719+80
 7374 6140 F4FFFF0A 		beq	.L1466
 7375 6144 21FEFFEA 		b	.L1447
 7376              	.L1448:
 7377 6148 F64F84E2 		add	r4, r4, #984
 7378 614c B230D4E1 		ldrh	r3, [r4, #2]
 7379 6150 210E53E3 		cmp	r3, #528
 7380 6154 2E00000A 		beq	.L1581
 7381 6158 020C53E3 		cmp	r3, #512
 7382 615c 2A00000A 		beq	.L1582
 7383 6160 110E53E3 		cmp	r3, #272
 7384 6164 2600000A 		beq	.L1583
 7385 6168 08119FE5 		ldr	r1, .L1719+92
 7386 616c 010C53E3 		cmp	r3, #256
 7387 6170 102041E2 		sub	r2, r1, #16
 7388 6174 0210A001 		moveq	r1, r2
 7389 6178 14FEFFEA 		b	.L1447
 7390              	.L1556:
 7391 617c EC109FE5 		ldr	r1, .L1719+84
 7392 6180 B2FDFFEA 		b	.L1432
 7393              	.L1546:
 7394 6184 E4109FE5 		ldr	r1, .L1719+84
 7395 6188 4BFEFFEA 		b	.L1426
 7396              	.L1566:
 7397 618c DC109FE5 		ldr	r1, .L1719+84
 7398 6190 D8FDFFEA 		b	.L1442
 7399              	.L1716:
 7400 6194 E4109FE5 		ldr	r1, .L1719+100
 7401 6198 ACFDFFEA 		b	.L1432
 7402              	.L1549:
 7403 619c E0109FE5 		ldr	r1, .L1719+104
 7404 61a0 45FEFFEA 		b	.L1426
 7405              	.L1548:
 7406 61a4 D0109FE5 		ldr	r1, .L1719+96
 7407 61a8 43FEFFEA 		b	.L1426
 7408              	.L1715:
 7409 61ac CC109FE5 		ldr	r1, .L1719+100
 7410 61b0 41FEFFEA 		b	.L1426
ARM GAS  C:\Users\ldebo\AppData\Local\Temp\ccISOhOE.s 			page 131


 7411              	.L1559:
 7412 61b4 C8109FE5 		ldr	r1, .L1719+104
 7413 61b8 A4FDFFEA 		b	.L1432
 7414              	.L1558:
 7415 61bc B8109FE5 		ldr	r1, .L1719+96
 7416 61c0 A2FDFFEA 		b	.L1432
 7417              	.L1579:
 7418 61c4 A4109FE5 		ldr	r1, .L1719+84
 7419 61c8 00FEFFEA 		b	.L1447
 7420              	.L1550:
 7421 61cc B4109FE5 		ldr	r1, .L1719+108
 7422 61d0 39FEFFEA 		b	.L1426
 7423              	.L1560:
 7424 61d4 AC109FE5 		ldr	r1, .L1719+108
 7425 61d8 9CFDFFEA 		b	.L1432
 7426              	.L1718:
 7427 61dc 9C109FE5 		ldr	r1, .L1719+100
 7428 61e0 FAFDFFEA 		b	.L1447
 7429              	.L1570:
 7430 61e4 9C109FE5 		ldr	r1, .L1719+108
 7431 61e8 C2FDFFEA 		b	.L1442
 7432              	.L1569:
 7433 61ec 90109FE5 		ldr	r1, .L1719+104
 7434 61f0 C0FDFFEA 		b	.L1442
 7435              	.L1568:
 7436 61f4 80109FE5 		ldr	r1, .L1719+96
 7437 61f8 BEFDFFEA 		b	.L1442
 7438              	.L1717:
 7439 61fc 7C109FE5 		ldr	r1, .L1719+100
 7440 6200 BCFDFFEA 		b	.L1442
 7441              	.L1583:
 7442 6204 7C109FE5 		ldr	r1, .L1719+108
 7443 6208 F0FDFFEA 		b	.L1447
 7444              	.L1582:
 7445 620c 70109FE5 		ldr	r1, .L1719+104
 7446 6210 EEFDFFEA 		b	.L1447
 7447              	.L1581:
 7448 6214 60109FE5 		ldr	r1, .L1719+96
 7449 6218 ECFDFFEA 		b	.L1447
 7450              	.L1720:
 7451              		.align	2
 7452              	.L1719:
 7453 621c 00000000 		.word	.LANCHOR1
 7454 6220 68050000 		.word	.LC58
 7455 6224 4C060000 		.word	.LANCHOR1+1612
 7456 6228 D4010000 		.word	.LANCHOR0+468
 7457 622c 980F0000 		.word	.LC107
 7458 6230 D0050000 		.word	.LC59
 7459 6234 EC070000 		.word	.LC74
 7460 6238 04060000 		.word	.LC60
 7461 623c B0020000 		.word	.LANCHOR0+688
 7462 6240 5C020000 		.word	.LANCHOR0+604
 7463 6244 CC0F0000 		.word	.LC108
 7464 6248 F80F0000 		.word	.LC109
 7465 624c 1C100000 		.word	.LC110
 7466 6250 40060000 		.word	.LANCHOR1+1600
 7467 6254 BC100000 		.word	.LC113
ARM GAS  C:\Users\ldebo\AppData\Local\Temp\ccISOhOE.s 			page 132


 7468 6258 EC100000 		.word	.LC114
 7469 625c 2C110000 		.word	.LC115
 7470 6260 4C100000 		.word	.LC111
 7471 6264 88100000 		.word	.LC112
 7472 6268 240400EC 		.word	-335543260
 7473 626c C0010000 		.word	.LANCHOR0+448
 7474 6270 90020000 		.word	.LANCHOR0+656
 7475 6274 74020000 		.word	.LANCHOR0+628
 7476 6278 E4000000 		.word	.LANCHOR0+228
 7477 627c A4000000 		.word	.LANCHOR0+164
 7478 6280 A0020000 		.word	.LANCHOR0+672
 7479 6284 B4000000 		.word	.LANCHOR0+180
 7480 6288 C4000000 		.word	.LANCHOR0+196
 7481              		.size	HubPortConnectionChanged, .-HubPortConnectionChanged
 7482              		.align	2
 7483              		.global	HubCheckConnection
 7484              		.syntax unified
 7485              		.arm
 7486              		.fpu vfp
 7487              		.type	HubCheckConnection, %function
 7488              	HubCheckConnection:
 7489              		@ args = 0, pretend = 0, frame = 96
 7490              		@ frame_needed = 0, uses_anonymous_args = 0
 7491 628c F04F2DE9 		push	{r4, r5, r6, r7, r8, r9, r10, fp, lr}
 7492 6290 0580D0E5 		ldrb	r8, [r0, #5]	@ zero_extendqisi2
 7493 6294 74D04DE2 		sub	sp, sp, #116
 7494 6298 013048E2 		sub	r3, r8, #1
 7495 629c 7320EFE6 		uxtb	r2, r3
 7496 62a0 1F0052E3 		cmp	r2, #31
 7497 62a4 0500008A 		bhi	.L1791
 7498 62a8 F0A99FE5 		ldr	r10, .L1972
 7499 62ac 033363E0 		rsb	r3, r3, r3, lsl #6
 7500 62b0 03328AE0 		add	r3, r10, r3, lsl #4
 7501 62b4 362AD3E5 		ldrb	r2, [r3, #2614]	@ zero_extendqisi2
 7502 62b8 020052E3 		cmp	r2, #2
 7503 62bc 0300000A 		beq	.L1956
 7504              	.L1791:
 7505 62c0 0370E0E3 		mvn	r7, #3
 7506              	.L1856:
 7507 62c4 0700A0E1 		mov	r0, r7
 7508 62c8 74D08DE2 		add	sp, sp, #116
 7509              		@ sp needed
 7510 62cc F08FBDE8 		pop	{r4, r5, r6, r7, r8, r9, r10, fp, pc}
 7511              	.L1956:
 7512 62d0 383A93E5 		ldr	r3, [r3, #2616]
 7513 62d4 000053E3 		cmp	r3, #0
 7514 62d8 F8FFFF0A 		beq	.L1791
 7515 62dc 013081E2 		add	r3, r1, #1
 7516 62e0 0040A0E1 		mov	r4, r0
 7517 62e4 0150A0E1 		mov	r5, r1
 7518 62e8 0310A0E1 		mov	r1, r3
 7519 62ec 14308DE5 		str	r3, [sp, #20]
 7520 62f0 0430A0E3 		mov	r3, #4
 7521 62f4 0020A0E3 		mov	r2, #0
 7522 62f8 FF9011E2 		ands	r9, r1, #255
 7523 62fc 0A00A0E3 		mov	r0, #10
 7524 6300 041094E5 		ldr	r1, [r4, #4]
ARM GAS  C:\Users\ldebo\AppData\Local\Temp\ccISOhOE.s 			page 133


 7525 6304 03C0A0E1 		mov	ip, r3
 7526 6308 20108DE5 		str	r1, [sp, #32]
 7527 630c 7910FFE6 		uxth	r1, r9
 7528 6310 A3E0A013 		movne	lr, #163
 7529 6314 A0E0A003 		moveq	lr, #160
 7530 6318 0170A0E1 		mov	r7, r1
 7531 631c 24208DE5 		str	r2, [sp, #36]
 7532 6320 2530CDE5 		strb	r3, [sp, #37]
 7533 6324 48308DE2 		add	r3, sp, #72
 7534 6328 0460D4E5 		ldrb	r6, [r4, #4]	@ zero_extendqisi2
 7535 632c 00308DE5 		str	r3, [sp]
 7536 6330 60308DE2 		add	r3, sp, #96
 7537 6334 04008DE5 		str	r0, [sp, #4]
 7538 6338 08308DE5 		str	r3, [sp, #8]
 7539 633c 2180CDE5 		strb	r8, [sp, #33]
 7540 6340 0C30A0E1 		mov	r3, ip
 7541 6344 BEC4CDE1 		strh	ip, [sp, #78]	@ movhi
 7542 6348 ECC394E5 		ldr	ip, [r4, #1004]
 7543 634c 48208DE5 		str	r2, [sp, #72]
 7544 6350 10108DE5 		str	r1, [sp, #16]
 7545 6354 60208DE5 		str	r2, [sp, #96]
 7546 6358 24109DE5 		ldr	r1, [sp, #36]
 7547 635c 20009DE5 		ldr	r0, [sp, #32]
 7548 6360 68208DE2 		add	r2, sp, #104
 7549 6364 BC74CDE1 		strh	r7, [sp, #76]	@ movhi
 7550 6368 48E0CDE5 		strb	lr, [sp, #72]
 7551 636c 18C08DE5 		str	ip, [sp, #24]
 7552 6370 FEFFFFEB 		bl	HCDSubmitControlMessage
 7553 6374 26B1A0E1 		lsr	fp, r6, #2
 7554 6378 007050E2 		subs	r7, r0, #0
 7555 637c 03B00BE2 		and	fp, fp, #3
 7556 6380 036006E2 		and	r6, r6, #3
 7557 6384 2400000A 		beq	.L1724
 7558 6388 00509AE5 		ldr	r5, [r10]
 7559 638c 000055E3 		cmp	r5, #0
 7560 6390 0600000A 		beq	.L1725
 7561 6394 04608DE5 		str	r6, [sp, #4]
 7562 6398 00B08DE5 		str	fp, [sp]
 7563 639c 0920A0E1 		mov	r2, r9
 7564 63a0 0810A0E1 		mov	r1, r8
 7565 63a4 0730A0E1 		mov	r3, r7
 7566 63a8 F4089FE5 		ldr	r0, .L1972+4
 7567 63ac 35FF2FE1 		blx	r5
 7568              	.L1725:
 7569 63b0 0B0077E3 		cmn	r7, #11
 7570 63b4 00509A15 		ldrne	r5, [r10]
 7571 63b8 C1FFFF0A 		beq	.L1856
 7572              	.L1789:
 7573 63bc 000055E3 		cmp	r5, #0
 7574 63c0 BFFFFF0A 		beq	.L1856
 7575 63c4 0A30D4E5 		ldrb	r3, [r4, #10]	@ zero_extendqisi2
 7576 63c8 000053E3 		cmp	r3, #0
 7577 63cc 3701000A 		beq	.L1792
 7578 63d0 010053E3 		cmp	r3, #1
 7579 63d4 4801000A 		beq	.L1793
 7580 63d8 C8289FE5 		ldr	r2, .L1972+8
 7581 63dc 020054E1 		cmp	r4, r2
ARM GAS  C:\Users\ldebo\AppData\Local\Temp\ccISOhOE.s 			page 134


 7582 63e0 5C01000A 		beq	.L1794
 7583 63e4 DC23D4E5 		ldrb	r2, [r4, #988]	@ zero_extendqisi2
 7584 63e8 090052E3 		cmp	r2, #9
 7585 63ec 4401000A 		beq	.L1731
 7586 63f0 FF0052E3 		cmp	r2, #255
 7587 63f4 4F01000A 		beq	.L1732
 7588 63f8 000052E3 		cmp	r2, #0
 7589 63fc A8189F15 		ldrne	r1, .L1972+12
 7590 6400 2C01000A 		beq	.L1957
 7591              	.L1730:
 7592 6404 14209DE5 		ldr	r2, [sp, #20]
 7593 6408 A0089FE5 		ldr	r0, .L1972+16
 7594 640c 35FF2FE1 		blx	r5
 7595 6410 0700A0E1 		mov	r0, r7
 7596 6414 74D08DE2 		add	sp, sp, #116
 7597              		@ sp needed
 7598 6418 F08FBDE8 		pop	{r4, r5, r6, r7, r8, r9, r10, fp, pc}
 7599              	.L1724:
 7600 641c 60309DE5 		ldr	r3, [sp, #96]
 7601 6420 030053E3 		cmp	r3, #3
 7602 6424 0900008A 		bhi	.L1726
 7603 6428 00509AE5 		ldr	r5, [r10]
 7604 642c 000055E3 		cmp	r5, #0
 7605 6430 0400000A 		beq	.L1727
 7606 6434 0920A0E1 		mov	r2, r9
 7607 6438 0810A0E1 		mov	r1, r8
 7608 643c 70089FE5 		ldr	r0, .L1972+20
 7609 6440 35FF2FE1 		blx	r5
 7610 6444 00509AE5 		ldr	r5, [r10]
 7611              	.L1727:
 7612 6448 0370E0E3 		mvn	r7, #3
 7613 644c DAFFFFEA 		b	.L1789
 7614              	.L1726:
 7615 6450 68809DE5 		ldr	r8, [sp, #104]
 7616 6454 2868A0E1 		lsr	r6, r8, #16
 7617 6458 7660EFE6 		uxtb	r6, r6
 7618 645c 010016E3 		tst	r6, #1
 7619 6460 0900000A 		beq	.L1729
 7620 6464 04309AE5 		ldr	r3, [r10, #4]
 7621 6468 000053E3 		cmp	r3, #0
 7622 646c 0300000A 		beq	.L1735
 7623 6470 0520A0E1 		mov	r2, r5
 7624 6474 0510D4E5 		ldrb	r1, [r4, #5]	@ zero_extendqisi2
 7625 6478 38089FE5 		ldr	r0, .L1972+24
 7626 647c 33FF2FE1 		blx	r3
 7627              	.L1735:
 7628 6480 0510A0E1 		mov	r1, r5
 7629 6484 0400A0E1 		mov	r0, r4
 7630 6488 FEFFFFEB 		bl	HubPortConnectionChanged
 7631              	.L1729:
 7632 648c 020016E3 		tst	r6, #2
 7633 6490 7880EF06 		uxtbeq	r8, r8
 7634 6494 3B00001A 		bne	.L1958
 7635              	.L1737:
 7636 6498 040018E3 		tst	r8, #4
 7637 649c CC00001A 		bne	.L1959
 7638              	.L1755:
ARM GAS  C:\Users\ldebo\AppData\Local\Temp\ccISOhOE.s 			page 135


 7639 64a0 080016E3 		tst	r6, #8
 7640 64a4 9300001A 		bne	.L1960
 7641              	.L1764:
 7642 64a8 100016E3 		tst	r6, #16
 7643 64ac 84FFFF0A 		beq	.L1856
 7644 64b0 0050A0E3 		mov	r5, #0
 7645 64b4 050059E1 		cmp	r9, r5
 7646 64b8 20C0A003 		moveq	ip, #32
 7647 64bc 23C0A013 		movne	ip, #35
 7648 64c0 0130A0E3 		mov	r3, #1
 7649 64c4 14B0A0E3 		mov	fp, #20
 7650 64c8 042094E5 		ldr	r2, [r4, #4]
 7651 64cc 0560D4E5 		ldrb	r6, [r4, #5]	@ zero_extendqisi2
 7652 64d0 B011DDE1 		ldrh	r1, [sp, #16]
 7653 64d4 40208DE5 		str	r2, [sp, #64]
 7654 64d8 4160CDE5 		strb	r6, [sp, #65]
 7655 64dc 6C508DE5 		str	r5, [sp, #108]
 7656 64e0 40009DE5 		ldr	r0, [sp, #64]
 7657 64e4 BC16CDE1 		strh	r1, [sp, #108]	@ movhi
 7658 64e8 68208DE2 		add	r2, sp, #104
 7659 64ec 0510A0E1 		mov	r1, r5
 7660 64f0 68C0CDE5 		strb	ip, [sp, #104]
 7661 64f4 6930CDE5 		strb	r3, [sp, #105]
 7662 64f8 BAB6CDE1 		strh	fp, [sp, #106]	@ movhi
 7663 64fc 91EDFFEB 		bl	HCDSubmitControlMessage.constprop.6
 7664 6500 050050E1 		cmp	r0, r5
 7665 6504 6EFFFF0A 		beq	.L1856
 7666 6508 00809AE5 		ldr	r8, [r10]
 7667 650c 050058E1 		cmp	r8, r5
 7668 6510 6BFFFF0A 		beq	.L1856
 7669 6514 00508DE5 		str	r5, [sp]
 7670 6518 0B30A0E1 		mov	r3, fp
 7671 651c 0920A0E1 		mov	r2, r9
 7672 6520 0610A0E1 		mov	r1, r6
 7673 6524 90079FE5 		ldr	r0, .L1972+28
 7674 6528 38FF2FE1 		blx	r8
 7675 652c 00509AE5 		ldr	r5, [r10]
 7676 6530 000055E3 		cmp	r5, #0
 7677 6534 62FFFF0A 		beq	.L1856
 7678 6538 0A30D4E5 		ldrb	r3, [r4, #10]	@ zero_extendqisi2
 7679 653c 000053E3 		cmp	r3, #0
 7680 6540 EB00000A 		beq	.L1846
 7681 6544 010053E3 		cmp	r3, #1
 7682 6548 E700000A 		beq	.L1847
 7683 654c 54279FE5 		ldr	r2, .L1972+8
 7684 6550 020054E1 		cmp	r4, r2
 7685 6554 7F01000A 		beq	.L1848
 7686 6558 DC23D4E5 		ldrb	r2, [r4, #988]	@ zero_extendqisi2
 7687 655c 090052E3 		cmp	r2, #9
 7688 6560 0D01000A 		beq	.L1776
 7689 6564 FF0052E3 		cmp	r2, #255
 7690 6568 0301000A 		beq	.L1777
 7691 656c 000052E3 		cmp	r2, #0
 7692 6570 34179F15 		ldrne	r1, .L1972+12
 7693 6574 F900000A 		beq	.L1961
 7694              	.L1775:
 7695 6578 14209DE5 		ldr	r2, [sp, #20]
ARM GAS  C:\Users\ldebo\AppData\Local\Temp\ccISOhOE.s 			page 136


 7696 657c 3C079FE5 		ldr	r0, .L1972+32
 7697 6580 35FF2FE1 		blx	r5
 7698 6584 4EFFFFEA 		b	.L1856
 7699              	.L1958:
 7700 6588 0030A0E3 		mov	r3, #0
 7701 658c 030059E1 		cmp	r9, r3
 7702 6590 54308DE5 		str	r3, [sp, #84]
 7703 6594 2C308DE5 		str	r3, [sp, #44]
 7704 6598 0310A0E1 		mov	r1, r3
 7705 659c 1C308DE5 		str	r3, [sp, #28]
 7706 65a0 B031DDE1 		ldrh	r3, [sp, #16]
 7707 65a4 20E0A003 		moveq	lr, #32
 7708 65a8 23E0A013 		movne	lr, #35
 7709 65ac 01C0A0E3 		mov	ip, #1
 7710 65b0 B435CDE1 		strh	r3, [sp, #84]	@ movhi
 7711 65b4 1130A0E3 		mov	r3, #17	@ movhi
 7712 65b8 042094E5 		ldr	r2, [r4, #4]
 7713 65bc 05B0D4E5 		ldrb	fp, [r4, #5]	@ zero_extendqisi2
 7714 65c0 28208DE5 		str	r2, [sp, #40]
 7715 65c4 29B0CDE5 		strb	fp, [sp, #41]
 7716 65c8 28009DE5 		ldr	r0, [sp, #40]
 7717 65cc 50208DE2 		add	r2, sp, #80
 7718 65d0 50E0CDE5 		strb	lr, [sp, #80]
 7719 65d4 51C0CDE5 		strb	ip, [sp, #81]
 7720 65d8 B235CDE1 		strh	r3, [sp, #82]	@ movhi
 7721 65dc 59EDFFEB 		bl	HCDSubmitControlMessage.constprop.6
 7722 65e0 000050E3 		cmp	r0, #0
 7723 65e4 1F00000A 		beq	.L1740
 7724 65e8 00309AE5 		ldr	r3, [r10]
 7725 65ec 00C053E2 		subs	ip, r3, #0
 7726 65f0 1C00000A 		beq	.L1740
 7727 65f4 1C309DE5 		ldr	r3, [sp, #28]
 7728 65f8 0B10A0E1 		mov	r1, fp
 7729 65fc 00308DE5 		str	r3, [sp]
 7730 6600 0920A0E1 		mov	r2, r9
 7731 6604 1130A0E3 		mov	r3, #17
 7732 6608 AC069FE5 		ldr	r0, .L1972+28
 7733 660c 3CFF2FE1 		blx	ip
 7734 6610 00B09AE5 		ldr	fp, [r10]
 7735 6614 00005BE3 		cmp	fp, #0
 7736 6618 1200000A 		beq	.L1740
 7737 661c 0A30D4E5 		ldrb	r3, [r4, #10]	@ zero_extendqisi2
 7738 6620 000053E3 		cmp	r3, #0
 7739 6624 AE00000A 		beq	.L1803
 7740 6628 010053E3 		cmp	r3, #1
 7741 662c EB00000A 		beq	.L1804
 7742 6630 70269FE5 		ldr	r2, .L1972+8
 7743 6634 020054E1 		cmp	r4, r2
 7744 6638 4C01000A 		beq	.L1805
 7745 663c DC23D4E5 		ldrb	r2, [r4, #988]	@ zero_extendqisi2
 7746 6640 090052E3 		cmp	r2, #9
 7747 6644 3401000A 		beq	.L1743
 7748 6648 FF0052E3 		cmp	r2, #255
 7749 664c 1501000A 		beq	.L1744
 7750 6650 000052E3 		cmp	r2, #0
 7751 6654 50169F15 		ldrne	r1, .L1972+12
 7752 6658 E800000A 		beq	.L1962
ARM GAS  C:\Users\ldebo\AppData\Local\Temp\ccISOhOE.s 			page 137


 7753              	.L1742:
 7754 665c 14209DE5 		ldr	r2, [sp, #20]
 7755 6660 5C069FE5 		ldr	r0, .L1972+36
 7756 6664 3BFF2FE1 		blx	fp
 7757              	.L1740:
 7758 6668 020018E3 		tst	r8, #2
 7759 666c 7880EFE6 		uxtb	r8, r8
 7760 6670 88FFFF1A 		bne	.L1737
 7761 6674 010018E3 		tst	r8, #1
 7762 6678 86FFFF0A 		beq	.L1737
 7763 667c 18309DE5 		ldr	r3, [sp, #24]
 7764 6680 053183E0 		add	r3, r3, r5, lsl #2
 7765 6684 043093E5 		ldr	r3, [r3, #4]
 7766 6688 000053E3 		cmp	r3, #0
 7767 668c 81FFFF0A 		beq	.L1737
 7768 6690 00B09AE5 		ldr	fp, [r10]
 7769 6694 00005BE3 		cmp	fp, #0
 7770 6698 1200000A 		beq	.L1748
 7771 669c 0A30D4E5 		ldrb	r3, [r4, #10]	@ zero_extendqisi2
 7772 66a0 000053E3 		cmp	r3, #0
 7773 66a4 C900000A 		beq	.L1813
 7774 66a8 010053E3 		cmp	r3, #1
 7775 66ac 2D01000A 		beq	.L1814
 7776 66b0 F0259FE5 		ldr	r2, .L1972+8
 7777 66b4 020054E1 		cmp	r4, r2
 7778 66b8 5601000A 		beq	.L1815
 7779 66bc DC23D4E5 		ldrb	r2, [r4, #988]	@ zero_extendqisi2
 7780 66c0 090052E3 		cmp	r2, #9
 7781 66c4 3E01000A 		beq	.L1750
 7782 66c8 FF0052E3 		cmp	r2, #255
 7783 66cc 3401000A 		beq	.L1751
 7784 66d0 000052E3 		cmp	r2, #0
 7785 66d4 D0159F15 		ldrne	r1, .L1972+12
 7786 66d8 2A01000A 		beq	.L1963
 7787              	.L1749:
 7788 66dc 14209DE5 		ldr	r2, [sp, #20]
 7789 66e0 E0059FE5 		ldr	r0, .L1972+40
 7790 66e4 3BFF2FE1 		blx	fp
 7791              	.L1748:
 7792 66e8 0510A0E1 		mov	r1, r5
 7793 66ec 0400A0E1 		mov	r0, r4
 7794 66f0 FEFFFFEB 		bl	HubPortConnectionChanged
 7795 66f4 67FFFFEA 		b	.L1737
 7796              	.L1960:
 7797 66f8 0050A0E3 		mov	r5, #0
 7798 66fc 050059E1 		cmp	r9, r5
 7799 6700 20E0A003 		moveq	lr, #32
 7800 6704 23E0A013 		movne	lr, #35
 7801 6708 01C0A0E3 		mov	ip, #1
 7802 670c 13B0A0E3 		mov	fp, #19
 7803 6710 042094E5 		ldr	r2, [r4, #4]
 7804 6714 0580D4E5 		ldrb	r8, [r4, #5]	@ zero_extendqisi2
 7805 6718 38208DE5 		str	r2, [sp, #56]
 7806 671c B031DDE1 		ldrh	r3, [sp, #16]
 7807 6720 3980CDE5 		strb	r8, [sp, #57]
 7808 6724 38009DE5 		ldr	r0, [sp, #56]
 7809 6728 60208DE2 		add	r2, sp, #96
ARM GAS  C:\Users\ldebo\AppData\Local\Temp\ccISOhOE.s 			page 138


 7810 672c 0510A0E1 		mov	r1, r5
 7811 6730 64508DE5 		str	r5, [sp, #100]
 7812 6734 60E0CDE5 		strb	lr, [sp, #96]
 7813 6738 B436CDE1 		strh	r3, [sp, #100]	@ movhi
 7814 673c 61C0CDE5 		strb	ip, [sp, #97]
 7815 6740 B2B6CDE1 		strh	fp, [sp, #98]	@ movhi
 7816 6744 FFECFFEB 		bl	HCDSubmitControlMessage.constprop.6
 7817 6748 050050E1 		cmp	r0, r5
 7818 674c 55FFFF0A 		beq	.L1764
 7819 6750 00309AE5 		ldr	r3, [r10]
 7820 6754 050053E1 		cmp	r3, r5
 7821 6758 03C0A0E1 		mov	ip, r3
 7822 675c 51FFFF0A 		beq	.L1764
 7823 6760 00508DE5 		str	r5, [sp]
 7824 6764 0B30A0E1 		mov	r3, fp
 7825 6768 0810A0E1 		mov	r1, r8
 7826 676c 0920A0E1 		mov	r2, r9
 7827 6770 44059FE5 		ldr	r0, .L1972+28
 7828 6774 3CFF2FE1 		blx	ip
 7829 6778 00509AE5 		ldr	r5, [r10]
 7830 677c 000055E3 		cmp	r5, #0
 7831 6780 48FFFF0A 		beq	.L1764
 7832 6784 0A30D4E5 		ldrb	r3, [r4, #10]	@ zero_extendqisi2
 7833 6788 000053E3 		cmp	r3, #0
 7834 678c 5200000A 		beq	.L1835
 7835 6790 010053E3 		cmp	r3, #1
 7836 6794 8F00000A 		beq	.L1836
 7837 6798 08259FE5 		ldr	r2, .L1972+8
 7838 679c 020054E1 		cmp	r4, r2
 7839 67a0 F600000A 		beq	.L1837
 7840 67a4 DC23D4E5 		ldrb	r2, [r4, #988]	@ zero_extendqisi2
 7841 67a8 090052E3 		cmp	r2, #9
 7842 67ac CD00000A 		beq	.L1768
 7843 67b0 FF0052E3 		cmp	r2, #255
 7844 67b4 C300000A 		beq	.L1769
 7845 67b8 000052E3 		cmp	r2, #0
 7846 67bc E8149F15 		ldrne	r1, .L1972+12
 7847 67c0 9500000A 		beq	.L1964
 7848              	.L1767:
 7849 67c4 14209DE5 		ldr	r2, [sp, #20]
 7850 67c8 FC049FE5 		ldr	r0, .L1972+44
 7851 67cc 35FF2FE1 		blx	r5
 7852 67d0 34FFFFEA 		b	.L1764
 7853              	.L1959:
 7854 67d4 0050A0E3 		mov	r5, #0
 7855 67d8 050059E1 		cmp	r9, r5
 7856 67dc 20E0A003 		moveq	lr, #32
 7857 67e0 23E0A013 		movne	lr, #35
 7858 67e4 01C0A0E3 		mov	ip, #1
 7859 67e8 02B0A0E3 		mov	fp, #2
 7860 67ec 042094E5 		ldr	r2, [r4, #4]
 7861 67f0 0580D4E5 		ldrb	r8, [r4, #5]	@ zero_extendqisi2
 7862 67f4 30208DE5 		str	r2, [sp, #48]
 7863 67f8 B031DDE1 		ldrh	r3, [sp, #16]
 7864 67fc 3180CDE5 		strb	r8, [sp, #49]
 7865 6800 30009DE5 		ldr	r0, [sp, #48]
 7866 6804 58208DE2 		add	r2, sp, #88
ARM GAS  C:\Users\ldebo\AppData\Local\Temp\ccISOhOE.s 			page 139


 7867 6808 0510A0E1 		mov	r1, r5
 7868 680c 5C508DE5 		str	r5, [sp, #92]
 7869 6810 58E0CDE5 		strb	lr, [sp, #88]
 7870 6814 BC35CDE1 		strh	r3, [sp, #92]	@ movhi
 7871 6818 59C0CDE5 		strb	ip, [sp, #89]
 7872 681c BAB5CDE1 		strh	fp, [sp, #90]	@ movhi
 7873 6820 C8ECFFEB 		bl	HCDSubmitControlMessage.constprop.6
 7874 6824 050050E1 		cmp	r0, r5
 7875 6828 1CFFFF0A 		beq	.L1755
 7876 682c 00309AE5 		ldr	r3, [r10]
 7877 6830 050053E1 		cmp	r3, r5
 7878 6834 03C0A0E1 		mov	ip, r3
 7879 6838 18FFFF0A 		beq	.L1755
 7880 683c 00508DE5 		str	r5, [sp]
 7881 6840 0B30A0E1 		mov	r3, fp
 7882 6844 0810A0E1 		mov	r1, r8
 7883 6848 0920A0E1 		mov	r2, r9
 7884 684c 68049FE5 		ldr	r0, .L1972+28
 7885 6850 3CFF2FE1 		blx	ip
 7886 6854 00509AE5 		ldr	r5, [r10]
 7887 6858 000055E3 		cmp	r5, #0
 7888 685c 0FFFFF0A 		beq	.L1755
 7889 6860 0A30D4E5 		ldrb	r3, [r4, #10]	@ zero_extendqisi2
 7890 6864 000053E3 		cmp	r3, #0
 7891 6868 1900000A 		beq	.L1824
 7892 686c 010053E3 		cmp	r3, #1
 7893 6870 5C00000A 		beq	.L1825
 7894 6874 2C249FE5 		ldr	r2, .L1972+8
 7895 6878 020054E1 		cmp	r4, r2
 7896 687c BD00000A 		beq	.L1826
 7897 6880 DC23D4E5 		ldrb	r2, [r4, #988]	@ zero_extendqisi2
 7898 6884 090052E3 		cmp	r2, #9
 7899 6888 7900000A 		beq	.L1759
 7900 688c FF0052E3 		cmp	r2, #255
 7901 6890 6F00000A 		beq	.L1760
 7902 6894 000052E3 		cmp	r2, #0
 7903 6898 0C149F15 		ldrne	r1, .L1972+12
 7904 689c 6500000A 		beq	.L1965
 7905              	.L1758:
 7906 68a0 14209DE5 		ldr	r2, [sp, #20]
 7907 68a4 24049FE5 		ldr	r0, .L1972+48
 7908 68a8 35FF2FE1 		blx	r5
 7909 68ac FBFEFFEA 		b	.L1755
 7910              	.L1792:
 7911 68b0 1C149FE5 		ldr	r1, .L1972+52
 7912 68b4 D2FEFFEA 		b	.L1730
 7913              	.L1957:
 7914 68b8 040053E3 		cmp	r3, #4
 7915 68bc 14149F15 		ldrne	r1, .L1972+56
 7916 68c0 CFFEFF1A 		bne	.L1730
 7917              	.L1783:
 7918 68c4 0400A0E1 		mov	r0, r4
 7919 68c8 CCE5FFEB 		bl	UsbGetDescription.part.2
 7920 68cc 0010A0E1 		mov	r1, r0
 7921 68d0 CBFEFFEA 		b	.L1730
 7922              	.L1824:
 7923 68d4 F8139FE5 		ldr	r1, .L1972+52
ARM GAS  C:\Users\ldebo\AppData\Local\Temp\ccISOhOE.s 			page 140


 7924 68d8 F0FFFFEA 		b	.L1758
 7925              	.L1835:
 7926 68dc F0139FE5 		ldr	r1, .L1972+52
 7927 68e0 B7FFFFEA 		b	.L1767
 7928              	.L1803:
 7929 68e4 E8139FE5 		ldr	r1, .L1972+52
 7930 68e8 5BFFFFEA 		b	.L1742
 7931              	.L1847:
 7932 68ec E8139FE5 		ldr	r1, .L1972+60
 7933 68f0 20FFFFEA 		b	.L1775
 7934              	.L1846:
 7935 68f4 D8139FE5 		ldr	r1, .L1972+52
 7936 68f8 1EFFFFEA 		b	.L1775
 7937              	.L1793:
 7938 68fc D8139FE5 		ldr	r1, .L1972+60
 7939 6900 BFFEFFEA 		b	.L1730
 7940              	.L1731:
 7941 6904 F64F84E2 		add	r4, r4, #984
 7942 6908 B230D4E1 		ldrh	r3, [r4, #2]
 7943 690c 210E53E3 		cmp	r3, #528
 7944 6910 3800000A 		beq	.L1796
 7945 6914 020C53E3 		cmp	r3, #512
 7946 6918 8C00000A 		beq	.L1797
 7947 691c 110E53E3 		cmp	r3, #272
 7948 6920 8E00000A 		beq	.L1798
 7949 6924 B4139FE5 		ldr	r1, .L1972+64
 7950 6928 010C53E3 		cmp	r3, #256
 7951 692c 102041E2 		sub	r2, r1, #16
 7952 6930 0210A001 		moveq	r1, r2
 7953 6934 B2FEFFEA 		b	.L1730
 7954              	.L1732:
 7955 6938 A4239FE5 		ldr	r2, .L1972+68
 7956 693c E01394E5 		ldr	r1, [r4, #992]
 7957 6940 020051E1 		cmp	r1, r2
 7958 6944 2900000A 		beq	.L1966
 7959 6948 040053E3 		cmp	r3, #4
 7960 694c 94139F15 		ldrne	r1, .L1972+72
 7961 6950 DBFFFF0A 		beq	.L1783
 7962 6954 AAFEFFEA 		b	.L1730
 7963              	.L1794:
 7964 6958 8C139FE5 		ldr	r1, .L1972+76
 7965 695c A8FEFFEA 		b	.L1730
 7966              	.L1961:
 7967 6960 040053E3 		cmp	r3, #4
 7968 6964 6C139F15 		ldrne	r1, .L1972+56
 7969 6968 02FFFF1A 		bne	.L1775
 7970              	.L1788:
 7971 696c 0400A0E1 		mov	r0, r4
 7972 6970 A2E5FFEB 		bl	UsbGetDescription.part.2
 7973 6974 0010A0E1 		mov	r1, r0
 7974 6978 FEFEFFEA 		b	.L1775
 7975              	.L1777:
 7976 697c 60239FE5 		ldr	r2, .L1972+68
 7977 6980 E01394E5 		ldr	r1, [r4, #992]
 7978 6984 020051E1 		cmp	r1, r2
 7979 6988 9C00000A 		beq	.L1967
 7980 698c 040053E3 		cmp	r3, #4
ARM GAS  C:\Users\ldebo\AppData\Local\Temp\ccISOhOE.s 			page 141


 7981 6990 50139F15 		ldrne	r1, .L1972+72
 7982 6994 F4FFFF0A 		beq	.L1788
 7983 6998 F6FEFFEA 		b	.L1775
 7984              	.L1776:
 7985 699c F64F84E2 		add	r4, r4, #984
 7986 69a0 B230D4E1 		ldrh	r3, [r4, #2]
 7987 69a4 210E53E3 		cmp	r3, #528
 7988 69a8 9200000A 		beq	.L1850
 7989 69ac 020C53E3 		cmp	r3, #512
 7990 69b0 9400000A 		beq	.L1851
 7991 69b4 110E53E3 		cmp	r3, #272
 7992 69b8 9400000A 		beq	.L1852
 7993 69bc 1C139FE5 		ldr	r1, .L1972+64
 7994 69c0 010C53E3 		cmp	r3, #256
 7995 69c4 102041E2 		sub	r2, r1, #16
 7996 69c8 0210A001 		moveq	r1, r2
 7997 69cc E9FEFFEA 		b	.L1775
 7998              	.L1813:
 7999 69d0 FC129FE5 		ldr	r1, .L1972+52
 8000 69d4 40FFFFEA 		b	.L1749
 8001              	.L1836:
 8002 69d8 FC129FE5 		ldr	r1, .L1972+60
 8003 69dc 78FFFFEA 		b	.L1767
 8004              	.L1804:
 8005 69e0 F4129FE5 		ldr	r1, .L1972+60
 8006 69e4 1CFFFFEA 		b	.L1742
 8007              	.L1825:
 8008 69e8 EC129FE5 		ldr	r1, .L1972+60
 8009 69ec ABFFFFEA 		b	.L1758
 8010              	.L1966:
 8011 69f0 F8129FE5 		ldr	r1, .L1972+80
 8012 69f4 82FEFFEA 		b	.L1730
 8013              	.L1796:
 8014 69f8 F4129FE5 		ldr	r1, .L1972+84
 8015 69fc 80FEFFEA 		b	.L1730
 8016              	.L1962:
 8017 6a00 040053E3 		cmp	r3, #4
 8018 6a04 CC129F15 		ldrne	r1, .L1972+56
 8019 6a08 13FFFF1A 		bne	.L1742
 8020              	.L1784:
 8021 6a0c 0400A0E1 		mov	r0, r4
 8022 6a10 7AE5FFEB 		bl	UsbGetDescription.part.2
 8023 6a14 0010A0E1 		mov	r1, r0
 8024 6a18 0FFFFFEA 		b	.L1742
 8025              	.L1964:
 8026 6a1c 040053E3 		cmp	r3, #4
 8027 6a20 B0129F15 		ldrne	r1, .L1972+56
 8028 6a24 66FFFF1A 		bne	.L1767
 8029              	.L1787:
 8030 6a28 0400A0E1 		mov	r0, r4
 8031 6a2c 73E5FFEB 		bl	UsbGetDescription.part.2
 8032 6a30 0010A0E1 		mov	r1, r0
 8033 6a34 62FFFFEA 		b	.L1767
 8034              	.L1965:
 8035 6a38 040053E3 		cmp	r3, #4
 8036 6a3c 94129F15 		ldrne	r1, .L1972+56
 8037 6a40 96FFFF1A 		bne	.L1758
ARM GAS  C:\Users\ldebo\AppData\Local\Temp\ccISOhOE.s 			page 142


 8038              	.L1786:
 8039 6a44 0400A0E1 		mov	r0, r4
 8040 6a48 6CE5FFEB 		bl	UsbGetDescription.part.2
 8041 6a4c 0010A0E1 		mov	r1, r0
 8042 6a50 92FFFFEA 		b	.L1758
 8043              	.L1760:
 8044 6a54 88229FE5 		ldr	r2, .L1972+68
 8045 6a58 E01394E5 		ldr	r1, [r4, #992]
 8046 6a5c 020051E1 		cmp	r1, r2
 8047 6a60 7000000A 		beq	.L1968
 8048 6a64 040053E3 		cmp	r3, #4
 8049 6a68 78129F15 		ldrne	r1, .L1972+72
 8050 6a6c F4FFFF0A 		beq	.L1786
 8051 6a70 8AFFFFEA 		b	.L1758
 8052              	.L1759:
 8053 6a74 F63F84E2 		add	r3, r4, #984
 8054 6a78 B230D3E1 		ldrh	r3, [r3, #2]
 8055 6a7c 210E53E3 		cmp	r3, #528
 8056 6a80 6E00000A 		beq	.L1828
 8057 6a84 020C53E3 		cmp	r3, #512
 8058 6a88 7000000A 		beq	.L1829
 8059 6a8c 110E53E3 		cmp	r3, #272
 8060 6a90 7600000A 		beq	.L1830
 8061 6a94 44129FE5 		ldr	r1, .L1972+64
 8062 6a98 010C53E3 		cmp	r3, #256
 8063 6a9c 102041E2 		sub	r2, r1, #16
 8064 6aa0 0210A001 		moveq	r1, r2
 8065 6aa4 7DFFFFEA 		b	.L1758
 8066              	.L1744:
 8067 6aa8 34229FE5 		ldr	r2, .L1972+68
 8068 6aac E01394E5 		ldr	r1, [r4, #992]
 8069 6ab0 020051E1 		cmp	r1, r2
 8070 6ab4 5D00000A 		beq	.L1969
 8071 6ab8 040053E3 		cmp	r3, #4
 8072 6abc 24129F15 		ldrne	r1, .L1972+72
 8073 6ac0 D1FFFF0A 		beq	.L1784
 8074 6ac4 E4FEFFEA 		b	.L1742
 8075              	.L1769:
 8076 6ac8 14229FE5 		ldr	r2, .L1972+68
 8077 6acc E01394E5 		ldr	r1, [r4, #992]
 8078 6ad0 020051E1 		cmp	r1, r2
 8079 6ad4 5700000A 		beq	.L1970
 8080 6ad8 040053E3 		cmp	r3, #4
 8081 6adc 04129F15 		ldrne	r1, .L1972+72
 8082 6ae0 D0FFFF0A 		beq	.L1787
 8083 6ae4 36FFFFEA 		b	.L1767
 8084              	.L1768:
 8085 6ae8 F63F84E2 		add	r3, r4, #984
 8086 6aec B230D3E1 		ldrh	r3, [r3, #2]
 8087 6af0 210E53E3 		cmp	r3, #528
 8088 6af4 5300000A 		beq	.L1839
 8089 6af8 020C53E3 		cmp	r3, #512
 8090 6afc 5500000A 		beq	.L1840
 8091 6b00 110E53E3 		cmp	r3, #272
 8092 6b04 5B00000A 		beq	.L1841
 8093 6b08 D0119FE5 		ldr	r1, .L1972+64
 8094 6b0c 010C53E3 		cmp	r3, #256
ARM GAS  C:\Users\ldebo\AppData\Local\Temp\ccISOhOE.s 			page 143


 8095 6b10 102041E2 		sub	r2, r1, #16
 8096 6b14 0210A001 		moveq	r1, r2
 8097 6b18 29FFFFEA 		b	.L1767
 8098              	.L1743:
 8099 6b1c F63F84E2 		add	r3, r4, #984
 8100 6b20 B230D3E1 		ldrh	r3, [r3, #2]
 8101 6b24 210E53E3 		cmp	r3, #528
 8102 6b28 3C00000A 		beq	.L1807
 8103 6b2c 020C53E3 		cmp	r3, #512
 8104 6b30 4A00000A 		beq	.L1808
 8105 6b34 110E53E3 		cmp	r3, #272
 8106 6b38 4A00000A 		beq	.L1809
 8107 6b3c 9C119FE5 		ldr	r1, .L1972+64
 8108 6b40 010C53E3 		cmp	r3, #256
 8109 6b44 102041E2 		sub	r2, r1, #16
 8110 6b48 0210A001 		moveq	r1, r2
 8111 6b4c C2FEFFEA 		b	.L1742
 8112              	.L1797:
 8113 6b50 A0119FE5 		ldr	r1, .L1972+88
 8114 6b54 2AFEFFEA 		b	.L1730
 8115              	.L1848:
 8116 6b58 8C119FE5 		ldr	r1, .L1972+76
 8117 6b5c 85FEFFEA 		b	.L1775
 8118              	.L1798:
 8119 6b60 94119FE5 		ldr	r1, .L1972+92
 8120 6b64 26FEFFEA 		b	.L1730
 8121              	.L1814:
 8122 6b68 6C119FE5 		ldr	r1, .L1972+60
 8123 6b6c DAFEFFEA 		b	.L1749
 8124              	.L1805:
 8125 6b70 74119FE5 		ldr	r1, .L1972+76
 8126 6b74 B8FEFFEA 		b	.L1742
 8127              	.L1826:
 8128 6b78 6C119FE5 		ldr	r1, .L1972+76
 8129 6b7c 47FFFFEA 		b	.L1758
 8130              	.L1837:
 8131 6b80 64119FE5 		ldr	r1, .L1972+76
 8132 6b84 0EFFFFEA 		b	.L1767
 8133              	.L1963:
 8134 6b88 040053E3 		cmp	r3, #4
 8135 6b8c 44119F15 		ldrne	r1, .L1972+56
 8136 6b90 D1FEFF1A 		bne	.L1749
 8137              	.L1785:
 8138 6b94 0400A0E1 		mov	r0, r4
 8139 6b98 18E5FFEB 		bl	UsbGetDescription.part.2
 8140 6b9c 0010A0E1 		mov	r1, r0
 8141 6ba0 CDFEFFEA 		b	.L1749
 8142              	.L1751:
 8143 6ba4 38219FE5 		ldr	r2, .L1972+68
 8144 6ba8 E01394E5 		ldr	r1, [r4, #992]
 8145 6bac 020051E1 		cmp	r1, r2
 8146 6bb0 3400000A 		beq	.L1971
 8147 6bb4 040053E3 		cmp	r3, #4
 8148 6bb8 28119F15 		ldrne	r1, .L1972+72
 8149 6bbc F4FFFF0A 		beq	.L1785
 8150 6bc0 C5FEFFEA 		b	.L1749
 8151              	.L1750:
ARM GAS  C:\Users\ldebo\AppData\Local\Temp\ccISOhOE.s 			page 144


 8152 6bc4 F63F84E2 		add	r3, r4, #984
 8153 6bc8 B230D3E1 		ldrh	r3, [r3, #2]
 8154 6bcc 210E53E3 		cmp	r3, #528
 8155 6bd0 2A00000A 		beq	.L1817
 8156 6bd4 020C53E3 		cmp	r3, #512
 8157 6bd8 2C00000A 		beq	.L1818
 8158 6bdc 110E53E3 		cmp	r3, #272
 8159 6be0 2C00000A 		beq	.L1819
 8160 6be4 F4109FE5 		ldr	r1, .L1972+64
 8161 6be8 010C53E3 		cmp	r3, #256
 8162 6bec 102041E2 		sub	r2, r1, #16
 8163 6bf0 0210A001 		moveq	r1, r2
 8164 6bf4 B8FEFFEA 		b	.L1749
 8165              	.L1850:
 8166 6bf8 F4109FE5 		ldr	r1, .L1972+84
 8167 6bfc 5DFEFFEA 		b	.L1775
 8168              	.L1967:
 8169 6c00 E8109FE5 		ldr	r1, .L1972+80
 8170 6c04 5BFEFFEA 		b	.L1775
 8171              	.L1851:
 8172 6c08 E8109FE5 		ldr	r1, .L1972+88
 8173 6c0c 59FEFFEA 		b	.L1775
 8174              	.L1852:
 8175 6c10 E4109FE5 		ldr	r1, .L1972+92
 8176 6c14 57FEFFEA 		b	.L1775
 8177              	.L1815:
 8178 6c18 CC109FE5 		ldr	r1, .L1972+76
 8179 6c1c AEFEFFEA 		b	.L1749
 8180              	.L1807:
 8181 6c20 CC109FE5 		ldr	r1, .L1972+84
 8182 6c24 8CFEFFEA 		b	.L1742
 8183              	.L1968:
 8184 6c28 C0109FE5 		ldr	r1, .L1972+80
 8185 6c2c 1BFFFFEA 		b	.L1758
 8186              	.L1969:
 8187 6c30 B8109FE5 		ldr	r1, .L1972+80
 8188 6c34 88FEFFEA 		b	.L1742
 8189              	.L1970:
 8190 6c38 B0109FE5 		ldr	r1, .L1972+80
 8191 6c3c E0FEFFEA 		b	.L1767
 8192              	.L1828:
 8193 6c40 AC109FE5 		ldr	r1, .L1972+84
 8194 6c44 15FFFFEA 		b	.L1758
 8195              	.L1839:
 8196 6c48 A4109FE5 		ldr	r1, .L1972+84
 8197 6c4c DCFEFFEA 		b	.L1767
 8198              	.L1829:
 8199 6c50 A0109FE5 		ldr	r1, .L1972+88
 8200 6c54 11FFFFEA 		b	.L1758
 8201              	.L1840:
 8202 6c58 98109FE5 		ldr	r1, .L1972+88
 8203 6c5c D8FEFFEA 		b	.L1767
 8204              	.L1808:
 8205 6c60 90109FE5 		ldr	r1, .L1972+88
 8206 6c64 7CFEFFEA 		b	.L1742
 8207              	.L1809:
 8208 6c68 8C109FE5 		ldr	r1, .L1972+92
ARM GAS  C:\Users\ldebo\AppData\Local\Temp\ccISOhOE.s 			page 145


 8209 6c6c 7AFEFFEA 		b	.L1742
 8210              	.L1830:
 8211 6c70 84109FE5 		ldr	r1, .L1972+92
 8212 6c74 09FFFFEA 		b	.L1758
 8213              	.L1841:
 8214 6c78 7C109FE5 		ldr	r1, .L1972+92
 8215 6c7c D0FEFFEA 		b	.L1767
 8216              	.L1817:
 8217 6c80 6C109FE5 		ldr	r1, .L1972+84
 8218 6c84 94FEFFEA 		b	.L1749
 8219              	.L1971:
 8220 6c88 60109FE5 		ldr	r1, .L1972+80
 8221 6c8c 92FEFFEA 		b	.L1749
 8222              	.L1818:
 8223 6c90 60109FE5 		ldr	r1, .L1972+88
 8224 6c94 90FEFFEA 		b	.L1749
 8225              	.L1819:
 8226 6c98 5C109FE5 		ldr	r1, .L1972+92
 8227 6c9c 8EFEFFEA 		b	.L1749
 8228              	.L1973:
 8229              		.align	2
 8230              	.L1972:
 8231 6ca0 00000000 		.word	.LANCHOR1
 8232 6ca4 68050000 		.word	.LC58
 8233 6ca8 4C060000 		.word	.LANCHOR1+1612
 8234 6cac D4010000 		.word	.LANCHOR0+468
 8235 6cb0 50110000 		.word	.LC116
 8236 6cb4 D0050000 		.word	.LC59
 8237 6cb8 88110000 		.word	.LC117
 8238 6cbc 04060000 		.word	.LC60
 8239 6cc0 A8120000 		.word	.LC122
 8240 6cc4 A8110000 		.word	.LC118
 8241 6cc8 D8110000 		.word	.LC119
 8242 6ccc 70120000 		.word	.LC121
 8243 6cd0 3C120000 		.word	.LC120
 8244 6cd4 5C020000 		.word	.LANCHOR0+604
 8245 6cd8 B0020000 		.word	.LANCHOR0+688
 8246 6cdc 74020000 		.word	.LANCHOR0+628
 8247 6ce0 E4000000 		.word	.LANCHOR0+228
 8248 6ce4 240400EC 		.word	-335543260
 8249 6ce8 C0010000 		.word	.LANCHOR0+448
 8250 6cec 90020000 		.word	.LANCHOR0+656
 8251 6cf0 A0020000 		.word	.LANCHOR0+672
 8252 6cf4 A4000000 		.word	.LANCHOR0+164
 8253 6cf8 B4000000 		.word	.LANCHOR0+180
 8254 6cfc C4000000 		.word	.LANCHOR0+196
 8255              		.size	HubCheckConnection, .-HubCheckConnection
 8256              		.align	2
 8257              		.global	EnumerateHub
 8258              		.syntax unified
 8259              		.arm
 8260              		.fpu vfp
 8261              		.type	EnumerateHub, %function
 8262              	EnumerateHub:
 8263              		@ args = 0, pretend = 0, frame = 64
 8264              		@ frame_needed = 0, uses_anonymous_args = 0
 8265 6d00 F04F2DE9 		push	{r4, r5, r6, r7, r8, r9, r10, fp, lr}
ARM GAS  C:\Users\ldebo\AppData\Local\Temp\ccISOhOE.s 			page 146


 8266 6d04 005050E2 		subs	r5, r0, #0
 8267 6d08 54D04DE2 		sub	sp, sp, #84
 8268 6d0c 0200000A 		beq	.L2009
 8269 6d10 EA33D5E5 		ldrb	r3, [r5, #1002]	@ zero_extendqisi2
 8270 6d14 010053E3 		cmp	r3, #1
 8271 6d18 0A00000A 		beq	.L2066
 8272              	.L2009:
 8273 6d1c 0110E0E3 		mvn	r1, #1
 8274 6d20 0160A0E1 		mov	r6, r1
 8275 6d24 7C459FE5 		ldr	r4, .L2070
 8276              	.L1975:
 8277 6d28 003094E5 		ldr	r3, [r4]
 8278 6d2c 000053E3 		cmp	r3, #0
 8279 6d30 0100000A 		beq	.L2032
 8280 6d34 70059FE5 		ldr	r0, .L2070+4
 8281 6d38 33FF2FE1 		blx	r3
 8282              	.L2032:
 8283 6d3c 0600A0E1 		mov	r0, r6
 8284 6d40 54D08DE2 		add	sp, sp, #84
 8285              		@ sp needed
 8286 6d44 F08FBDE8 		pop	{r4, r5, r6, r7, r8, r9, r10, fp, pc}
 8287              	.L2066:
 8288 6d48 58459FE5 		ldr	r4, .L2070
 8289 6d4c CC2294E5 		ldr	r2, [r4, #716]
 8290 6d50 000052E3 		cmp	r2, #0
 8291 6d54 3901000A 		beq	.L2010
 8292 6d58 042394E5 		ldr	r2, [r4, #772]
 8293 6d5c 000052E3 		cmp	r2, #0
 8294 6d60 3801000A 		beq	.L2011
 8295 6d64 3C3394E5 		ldr	r3, [r4, #828]
 8296 6d68 000053E3 		cmp	r3, #0
 8297 6d6c 3701000A 		beq	.L2012
 8298 6d70 743394E5 		ldr	r3, [r4, #884]
 8299 6d74 000053E3 		cmp	r3, #0
 8300 6d78 2E01000A 		beq	.L2013
 8301 6d7c AC3394E5 		ldr	r3, [r4, #940]
 8302 6d80 000053E3 		cmp	r3, #0
 8303 6d84 3501000A 		beq	.L2014
 8304 6d88 E43394E5 		ldr	r3, [r4, #996]
 8305 6d8c 000053E3 		cmp	r3, #0
 8306 6d90 3001000A 		beq	.L2015
 8307 6d94 1C3494E5 		ldr	r3, [r4, #1052]
 8308 6d98 000053E3 		cmp	r3, #0
 8309 6d9c 3101000A 		beq	.L2016
 8310 6da0 543494E5 		ldr	r3, [r4, #1108]
 8311 6da4 000053E3 		cmp	r3, #0
 8312 6da8 3001000A 		beq	.L2017
 8313 6dac 8C3494E5 		ldr	r3, [r4, #1164]
 8314 6db0 000053E3 		cmp	r3, #0
 8315 6db4 2F01000A 		beq	.L2018
 8316 6db8 C43494E5 		ldr	r3, [r4, #1220]
 8317 6dbc 000053E3 		cmp	r3, #0
 8318 6dc0 2E01000A 		beq	.L2019
 8319 6dc4 FC3494E5 		ldr	r3, [r4, #1276]
 8320 6dc8 000053E3 		cmp	r3, #0
 8321 6dcc 2F01000A 		beq	.L2020
 8322 6dd0 343594E5 		ldr	r3, [r4, #1332]
ARM GAS  C:\Users\ldebo\AppData\Local\Temp\ccISOhOE.s 			page 147


 8323 6dd4 000053E3 		cmp	r3, #0
 8324 6dd8 2A01000A 		beq	.L2021
 8325 6ddc 6C3594E5 		ldr	r3, [r4, #1388]
 8326 6de0 000053E3 		cmp	r3, #0
 8327 6de4 2D01000A 		beq	.L2022
 8328 6de8 A43594E5 		ldr	r3, [r4, #1444]
 8329 6dec 000053E3 		cmp	r3, #0
 8330 6df0 2801000A 		beq	.L2023
 8331 6df4 DC3594E5 		ldr	r3, [r4, #1500]
 8332 6df8 000053E3 		cmp	r3, #0
 8333 6dfc 0600000A 		beq	.L2024
 8334 6e00 143694E5 		ldr	r3, [r4, #1556]
 8335 6e04 000053E3 		cmp	r3, #0
 8336 6e08 0FB0A003 		moveq	fp, #15
 8337 6e0c 0300000A 		beq	.L1976
 8338 6e10 0610E0E3 		mvn	r1, #6
 8339 6e14 0160A0E1 		mov	r6, r1
 8340 6e18 C2FFFFEA 		b	.L1975
 8341              	.L2024:
 8342 6e1c 0EB0A0E3 		mov	fp, #14
 8343              	.L1976:
 8344 6e20 0020A0E3 		mov	r2, #0
 8345 6e24 0A00A0E3 		mov	r0, #10
 8346 6e28 0230A0E3 		mov	r3, #2
 8347 6e2c 04A0A0E3 		mov	r10, #4
 8348 6e30 06E0A0E3 		mov	lr, #6
 8349 6e34 29CCA0E3 		mov	ip, #10496
 8350 6e38 5F90E0E3 		mvn	r9, #95
 8351 6e3c 8B11A0E1 		lsl	r1, fp, #3
 8352 6e40 047095E5 		ldr	r7, [r5, #4]
 8353 6e44 0B6041E0 		sub	r6, r1, fp
 8354 6e48 60849FE5 		ldr	r8, .L2070+8
 8355 6e4c 8661A0E1 		lsl	r6, r6, #3
 8356 6e50 24708DE5 		str	r7, [sp, #36]
 8357 6e54 10108DE5 		str	r1, [sp, #16]
 8358 6e58 0570D5E5 		ldrb	r7, [r5, #5]	@ zero_extendqisi2
 8359 6e5c 061088E0 		add	r1, r8, r6
 8360 6e60 EC1385E5 		str	r1, [r5, #1004]
 8361 6e64 061084E0 		add	r1, r4, r6
 8362 6e68 28208DE5 		str	r2, [sp, #40]
 8363 6e6c EA33C5E5 		strb	r3, [r5, #1002]
 8364 6e70 2570CDE5 		strb	r7, [sp, #37]
 8365 6e74 04008DE5 		str	r0, [sp, #4]
 8366 6e78 29A0CDE5 		strb	r10, [sp, #41]
 8367 6e7c CC0281E5 		str	r0, [r1, #716]
 8368 6e80 D02281E5 		str	r2, [r1, #720]
 8369 6e84 D42281E5 		str	r2, [r1, #724]
 8370 6e88 D82281E5 		str	r2, [r1, #728]
 8371 6e8c DC2281E5 		str	r2, [r1, #732]
 8372 6e90 E02281E5 		str	r2, [r1, #736]
 8373 6e94 E42281E5 		str	r2, [r1, #740]
 8374 6e98 E82281E5 		str	r2, [r1, #744]
 8375 6e9c EC2281E5 		str	r2, [r1, #748]
 8376 6ea0 F02281E5 		str	r2, [r1, #752]
 8377 6ea4 F42281E5 		str	r2, [r1, #756]
 8378 6ea8 B423CDE1 		strh	r2, [sp, #52]	@ movhi
 8379 6eac BC23CDE1 		strh	r2, [sp, #60]	@ movhi
ARM GAS  C:\Users\ldebo\AppData\Local\Temp\ccISOhOE.s 			page 148


 8380 6eb0 08208DE5 		str	r2, [sp, #8]
 8381 6eb4 38208DE2 		add	r2, sp, #56
 8382 6eb8 00208DE5 		str	r2, [sp]
 8383 6ebc 28109DE5 		ldr	r1, [sp, #40]
 8384 6ec0 24009DE5 		ldr	r0, [sp, #36]
 8385 6ec4 34208DE2 		add	r2, sp, #52
 8386 6ec8 BE33CDE1 		strh	r3, [sp, #62]	@ movhi
 8387 6ecc 3890CDE5 		strb	r9, [sp, #56]
 8388 6ed0 39E0CDE5 		strb	lr, [sp, #57]
 8389 6ed4 BAC3CDE1 		strh	ip, [sp, #58]	@ movhi
 8390 6ed8 FEFFFFEB 		bl	HCDSubmitControlMessage
 8391 6edc 000050E3 		cmp	r0, #0
 8392 6ee0 0300001A 		bne	.L1978
 8393 6ee4 3530DDE5 		ldrb	r3, [sp, #53]	@ zero_extendqisi2
 8394 6ee8 290053E3 		cmp	r3, #41
 8395 6eec 0000E013 		mvnne	r0, #0
 8396 6ef0 1300000A 		beq	.L2067
 8397              	.L1978:
 8398 6ef4 006094E5 		ldr	r6, [r4]
 8399 6ef8 000056E3 		cmp	r6, #0
 8400 6efc 3C00000A 		beq	.L2063
 8401 6f00 04008DE5 		str	r0, [sp, #4]
 8402 6f04 00708DE5 		str	r7, [sp]
 8403 6f08 A030A0E3 		mov	r3, #160
 8404 6f0c 0020A0E3 		mov	r2, #0
 8405 6f10 2910A0E3 		mov	r1, #41
 8406 6f14 98039FE5 		ldr	r0, .L2070+12
 8407 6f18 36FF2FE1 		blx	r6
 8408 6f1c 006094E5 		ldr	r6, [r4]
 8409              	.L2005:
 8410 6f20 000056E3 		cmp	r6, #0
 8411 6f24 3200000A 		beq	.L2063
 8412 6f28 0510D5E5 		ldrb	r1, [r5, #5]	@ zero_extendqisi2
 8413 6f2c 84039FE5 		ldr	r0, .L2070+16
 8414 6f30 36FF2FE1 		blx	r6
 8415 6f34 0360E0E3 		mvn	r6, #3
 8416 6f38 0600A0E1 		mov	r0, r6
 8417 6f3c 54D08DE2 		add	sp, sp, #84
 8418              		@ sp needed
 8419 6f40 F08FBDE8 		pop	{r4, r5, r6, r7, r8, r9, r10, fp, pc}
 8420              	.L2067:
 8421 6f44 3490DDE5 		ldrb	r9, [sp, #52]	@ zero_extendqisi2
 8422 6f48 080059E3 		cmp	r9, #8
 8423 6f4c 7910FF96 		uxthls	r1, r9
 8424 6f50 0910A083 		movhi	r1, #9
 8425 6f54 0190A081 		movhi	r9, r1
 8426              	.L2004:
 8427 6f58 0030A0E3 		mov	r3, #0
 8428 6f5c 2C2086E2 		add	r2, r6, #44
 8429 6f60 0460A0E3 		mov	r6, #4
 8430 6f64 0600A0E3 		mov	r0, #6
 8431 6f68 0AA0A0E3 		mov	r10, #10
 8432 6f6c 5FE0E0E3 		mvn	lr, #95
 8433 6f70 29CCA0E3 		mov	ip, #10496
 8434 6f74 2C308DE5 		str	r3, [sp, #44]
 8435 6f78 022088E0 		add	r2, r8, r2
 8436 6f7c 2D60CDE5 		strb	r6, [sp, #45]
ARM GAS  C:\Users\ldebo\AppData\Local\Temp\ccISOhOE.s 			page 149


 8437 6f80 B434CDE1 		strh	r3, [sp, #68]	@ movhi
 8438 6f84 48808DE2 		add	r8, sp, #72
 8439 6f88 40308DE2 		add	r3, sp, #64
 8440 6f8c B614CDE1 		strh	r1, [sp, #70]	@ movhi
 8441 6f90 00308DE5 		str	r3, [sp]
 8442 6f94 4100CDE5 		strb	r0, [sp, #65]
 8443 6f98 0930A0E1 		mov	r3, r9
 8444 6f9c 04A08DE5 		str	r10, [sp, #4]
 8445 6fa0 08808DE5 		str	r8, [sp, #8]
 8446 6fa4 2C109DE5 		ldr	r1, [sp, #44]
 8447 6fa8 24009DE5 		ldr	r0, [sp, #36]
 8448 6fac 40E0CDE5 		strb	lr, [sp, #64]
 8449 6fb0 B2C4CDE1 		strh	ip, [sp, #66]	@ movhi
 8450 6fb4 FEFFFFEB 		bl	HCDSubmitControlMessage
 8451 6fb8 48309DE5 		ldr	r3, [sp, #72]
 8452 6fbc 030059E1 		cmp	r9, r3
 8453 6fc0 0900E013 		mvnne	r0, #9
 8454 6fc4 0E00000A 		beq	.L2068
 8455              	.L1982:
 8456 6fc8 006094E5 		ldr	r6, [r4]
 8457 6fcc 000056E3 		cmp	r6, #0
 8458 6fd0 0700000A 		beq	.L2063
 8459 6fd4 00008DE5 		str	r0, [sp]
 8460 6fd8 0730A0E1 		mov	r3, r7
 8461 6fdc 0020A0E3 		mov	r2, #0
 8462 6fe0 2910A0E3 		mov	r1, #41
 8463 6fe4 D0029FE5 		ldr	r0, .L2070+20
 8464 6fe8 36FF2FE1 		blx	r6
 8465              	.L1984:
 8466 6fec 006094E5 		ldr	r6, [r4]
 8467 6ff0 CAFFFFEA 		b	.L2005
 8468              	.L2063:
 8469 6ff4 0360E0E3 		mvn	r6, #3
 8470 6ff8 0600A0E1 		mov	r0, r6
 8471 6ffc 54D08DE2 		add	sp, sp, #84
 8472              		@ sp needed
 8473 7000 F08FBDE8 		pop	{r4, r5, r6, r7, r8, r9, r10, fp, pc}
 8474              	.L2068:
 8475 7004 000050E3 		cmp	r0, #0
 8476 7008 EEFFFF1A 		bne	.L1982
 8477 700c 090059E3 		cmp	r9, #9
 8478 7010 F5FFFF1A 		bne	.L1984
 8479 7014 043094E5 		ldr	r3, [r4, #4]
 8480 7018 000053E3 		cmp	r3, #0
 8481 701c 1400000A 		beq	.L1989
 8482 7020 10209DE5 		ldr	r2, [sp, #16]
 8483 7024 0510D5E5 		ldrb	r1, [r5, #5]	@ zero_extendqisi2
 8484 7028 0B6042E0 		sub	r6, r2, fp
 8485 702c 866184E0 		add	r6, r4, r6, lsl #3
 8486 7030 FA22D6E5 		ldrb	r2, [r6, #762]	@ zero_extendqisi2
 8487 7034 84029FE5 		ldr	r0, .L2070+24
 8488 7038 33FF2FE1 		blx	r3
 8489 703c 043094E5 		ldr	r3, [r4, #4]
 8490 7040 000053E3 		cmp	r3, #0
 8491 7044 0A00000A 		beq	.L1989
 8492 7048 FD12D6E5 		ldrb	r1, [r6, #765]	@ zero_extendqisi2
 8493 704c 70029FE5 		ldr	r0, .L2070+28
ARM GAS  C:\Users\ldebo\AppData\Local\Temp\ccISOhOE.s 			page 150


 8494 7050 8110A0E1 		lsl	r1, r1, #1
 8495 7054 33FF2FE1 		blx	r3
 8496 7058 043094E5 		ldr	r3, [r4, #4]
 8497 705c 000053E3 		cmp	r3, #0
 8498 7060 0300000A 		beq	.L1989
 8499 7064 FE12D6E5 		ldrb	r1, [r6, #766]	@ zero_extendqisi2
 8500 7068 58029FE5 		ldr	r0, .L2070+32
 8501 706c 8110A0E1 		lsl	r1, r1, #1
 8502 7070 33FF2FE1 		blx	r3
 8503              	.L1989:
 8504 7074 10309DE5 		ldr	r3, [sp, #16]
 8505 7078 0B3043E0 		sub	r3, r3, fp
 8506 707c 833184E0 		add	r3, r4, r3, lsl #3
 8507 7080 FA22D3E5 		ldrb	r2, [r3, #762]	@ zero_extendqisi2
 8508 7084 0A0052E3 		cmp	r2, #10
 8509 7088 CC228395 		strls	r2, [r3, #716]
 8510 708c 0600009A 		bls	.L1991
 8511 7090 003094E5 		ldr	r3, [r4]
 8512 7094 000053E3 		cmp	r3, #0
 8513 7098 0300000A 		beq	.L1991
 8514 709c 0A20A0E3 		mov	r2, #10
 8515 70a0 0510D5E5 		ldrb	r1, [r5, #5]	@ zero_extendqisi2
 8516 70a4 20029FE5 		ldr	r0, .L2070+36
 8517 70a8 33FF2FE1 		blx	r3
 8518              	.L1991:
 8519 70ac 20208DE2 		add	r2, sp, #32
 8520 70b0 0010A0E3 		mov	r1, #0
 8521 70b4 040095E5 		ldr	r0, [r5, #4]
 8522 70b8 FEFFFFEB 		bl	HCDReadHubPortStatus
 8523 70bc 006050E2 		subs	r6, r0, #0
 8524 70c0 5500001A 		bne	.L2069
 8525 70c4 043094E5 		ldr	r3, [r4, #4]
 8526 70c8 000053E3 		cmp	r3, #0
 8527 70cc 0100000A 		beq	.L1993
 8528 70d0 F8019FE5 		ldr	r0, .L2070+40
 8529 70d4 33FF2FE1 		blx	r3
 8530              	.L1993:
 8531 70d8 10309DE5 		ldr	r3, [sp, #16]
 8532 70dc 0B3043E0 		sub	r3, r3, fp
 8533 70e0 833184E0 		add	r3, r4, r3, lsl #3
 8534 70e4 CC2293E5 		ldr	r2, [r3, #716]
 8535 70e8 000052E3 		cmp	r2, #0
 8536 70ec 3600000A 		beq	.L2000
 8537 70f0 18B08DE5 		str	fp, [sp, #24]
 8538 70f4 0170A0E3 		mov	r7, #1
 8539 70f8 0090A0E3 		mov	r9, #0
 8540 70fc 1C608DE5 		str	r6, [sp, #28]
 8541 7100 03B0A0E1 		mov	fp, r3
 8542 7104 14408DE5 		str	r4, [sp, #20]
 8543 7108 000000EA 		b	.L1999
 8544              	.L2030:
 8545 710c 0270A0E1 		mov	r7, r2
 8546              	.L1999:
 8547 7110 FF6017E2 		ands	r6, r7, #255
 8548 7114 20C0A003 		moveq	ip, #32
 8549 7118 23C0A013 		movne	ip, #35
 8550 711c 0330A0E3 		mov	r3, #3
ARM GAS  C:\Users\ldebo\AppData\Local\Temp\ccISOhOE.s 			page 151


 8551 7120 08A0A0E3 		mov	r10, #8
 8552 7124 042095E5 		ldr	r2, [r5, #4]
 8553 7128 0540D5E5 		ldrb	r4, [r5, #5]	@ zero_extendqisi2
 8554 712c 30208DE5 		str	r2, [sp, #48]
 8555 7130 3140CDE5 		strb	r4, [sp, #49]
 8556 7134 30009DE5 		ldr	r0, [sp, #48]
 8557 7138 0820A0E1 		mov	r2, r8
 8558 713c 0910A0E1 		mov	r1, r9
 8559 7140 049088E5 		str	r9, [r8, #4]
 8560 7144 34908DE5 		str	r9, [sp, #52]
 8561 7148 4930CDE5 		strb	r3, [sp, #73]
 8562 714c BC64CDE1 		strh	r6, [sp, #76]	@ movhi
 8563 7150 48C0CDE5 		strb	ip, [sp, #72]
 8564 7154 BAA4CDE1 		strh	r10, [sp, #74]	@ movhi
 8565 7158 7AEAFFEB 		bl	HCDSubmitControlMessage.constprop.6
 8566 715c 000050E3 		cmp	r0, #0
 8567 7160 1200000A 		beq	.L1998
 8568 7164 14309DE5 		ldr	r3, [sp, #20]
 8569 7168 002093E5 		ldr	r2, [r3]
 8570 716c 00C052E2 		subs	ip, r2, #0
 8571 7170 0E00000A 		beq	.L1998
 8572 7174 0100A0E3 		mov	r0, #1
 8573 7178 0A30A0E1 		mov	r3, r10
 8574 717c 00008DE5 		str	r0, [sp]
 8575 7180 0620A0E1 		mov	r2, r6
 8576 7184 0410A0E1 		mov	r1, r4
 8577 7188 44019FE5 		ldr	r0, .L2070+44
 8578 718c 3CFF2FE1 		blx	ip
 8579 7190 14309DE5 		ldr	r3, [sp, #20]
 8580 7194 003093E5 		ldr	r3, [r3]
 8581 7198 000053E3 		cmp	r3, #0
 8582 719c 0300000A 		beq	.L1998
 8583 71a0 0720A0E1 		mov	r2, r7
 8584 71a4 0510D5E5 		ldrb	r1, [r5, #5]	@ zero_extendqisi2
 8585 71a8 28019FE5 		ldr	r0, .L2070+48
 8586 71ac 33FF2FE1 		blx	r3
 8587              	.L1998:
 8588 71b0 CC329BE5 		ldr	r3, [fp, #716]
 8589 71b4 012087E2 		add	r2, r7, #1
 8590 71b8 070053E1 		cmp	r3, r7
 8591 71bc D2FFFF8A 		bhi	.L2030
 8592 71c0 18B09DE5 		ldr	fp, [sp, #24]
 8593 71c4 1C609DE5 		ldr	r6, [sp, #28]
 8594 71c8 14409DE5 		ldr	r4, [sp, #20]
 8595              	.L2000:
 8596 71cc 7D0EA0E3 		mov	r0, #2000
 8597 71d0 10309DE5 		ldr	r3, [sp, #16]
 8598 71d4 0B3043E0 		sub	r3, r3, fp
 8599 71d8 834184E0 		add	r4, r4, r3, lsl #3
 8600 71dc FD32D4E5 		ldrb	r3, [r4, #765]	@ zero_extendqisi2
 8601 71e0 900300E0 		mul	r0, r0, r3
 8602 71e4 C01FA0E1 		asr	r1, r0, #31
 8603 71e8 FEFFFFEB 		bl	timer_wait
 8604 71ec CC3294E5 		ldr	r3, [r4, #716]
 8605 71f0 000053E3 		cmp	r3, #0
 8606 71f4 0070A013 		movne	r7, #0
 8607 71f8 CFFEFF0A 		beq	.L2032
ARM GAS  C:\Users\ldebo\AppData\Local\Temp\ccISOhOE.s 			page 152


 8608              	.L2001:
 8609 71fc 7710EFE6 		uxtb	r1, r7
 8610 7200 0500A0E1 		mov	r0, r5
 8611 7204 FEFFFFEB 		bl	HubCheckConnection
 8612 7208 CC3294E5 		ldr	r3, [r4, #716]
 8613 720c 017087E2 		add	r7, r7, #1
 8614 7210 070053E1 		cmp	r3, r7
 8615 7214 F8FFFF8A 		bhi	.L2001
 8616 7218 C7FEFFEA 		b	.L2032
 8617              	.L2069:
 8618 721c 003094E5 		ldr	r3, [r4]
 8619 7220 000053E3 		cmp	r3, #0
 8620 7224 C4FEFF0A 		beq	.L2032
 8621 7228 0510D5E5 		ldrb	r1, [r5, #5]	@ zero_extendqisi2
 8622 722c A8009FE5 		ldr	r0, .L2070+52
 8623 7230 33FF2FE1 		blx	r3
 8624 7234 C0FEFFEA 		b	.L2032
 8625              	.L2013:
 8626 7238 03B0A0E3 		mov	fp, #3
 8627 723c F7FEFFEA 		b	.L1976
 8628              	.L2010:
 8629 7240 02B0A0E1 		mov	fp, r2
 8630 7244 F5FEFFEA 		b	.L1976
 8631              	.L2011:
 8632 7248 03B0A0E1 		mov	fp, r3
 8633 724c F3FEFFEA 		b	.L1976
 8634              	.L2012:
 8635 7250 02B0A0E3 		mov	fp, #2
 8636 7254 F1FEFFEA 		b	.L1976
 8637              	.L2015:
 8638 7258 05B0A0E3 		mov	fp, #5
 8639 725c EFFEFFEA 		b	.L1976
 8640              	.L2014:
 8641 7260 04B0A0E3 		mov	fp, #4
 8642 7264 EDFEFFEA 		b	.L1976
 8643              	.L2016:
 8644 7268 06B0A0E3 		mov	fp, #6
 8645 726c EBFEFFEA 		b	.L1976
 8646              	.L2017:
 8647 7270 07B0A0E3 		mov	fp, #7
 8648 7274 E9FEFFEA 		b	.L1976
 8649              	.L2018:
 8650 7278 08B0A0E3 		mov	fp, #8
 8651 727c E7FEFFEA 		b	.L1976
 8652              	.L2019:
 8653 7280 09B0A0E3 		mov	fp, #9
 8654 7284 E5FEFFEA 		b	.L1976
 8655              	.L2021:
 8656 7288 0BB0A0E3 		mov	fp, #11
 8657 728c E3FEFFEA 		b	.L1976
 8658              	.L2020:
 8659 7290 0AB0A0E3 		mov	fp, #10
 8660 7294 E1FEFFEA 		b	.L1976
 8661              	.L2023:
 8662 7298 0DB0A0E3 		mov	fp, #13
 8663 729c DFFEFFEA 		b	.L1976
 8664              	.L2022:
ARM GAS  C:\Users\ldebo\AppData\Local\Temp\ccISOhOE.s 			page 153


 8665 72a0 0CB0A0E3 		mov	fp, #12
 8666 72a4 DDFEFFEA 		b	.L1976
 8667              	.L2071:
 8668              		.align	2
 8669              	.L2070:
 8670 72a8 00000000 		.word	.LANCHOR1
 8671 72ac D8120000 		.word	.LC123
 8672 72b0 CC020000 		.word	.LANCHOR1+716
 8673 72b4 A80A0000 		.word	.LC83
 8674 72b8 08130000 		.word	.LC124
 8675 72bc E4080000 		.word	.LC78
 8676 72c0 3C130000 		.word	.LC125
 8677 72c4 58130000 		.word	.LC126
 8678 72c8 78130000 		.word	.LC127
 8679 72cc 9C130000 		.word	.LC128
 8680 72d0 24140000 		.word	.LC130
 8681 72d4 04060000 		.word	.LC60
 8682 72d8 44140000 		.word	.LC131
 8683 72dc F8130000 		.word	.LC129
 8684              		.size	EnumerateHub, .-EnumerateHub
 8685              		.align	2
 8686              		.global	HubCheckForChange
 8687              		.syntax unified
 8688              		.arm
 8689              		.fpu vfp
 8690              		.type	HubCheckForChange, %function
 8691              	HubCheckForChange:
 8692              		@ args = 0, pretend = 0, frame = 136
 8693              		@ frame_needed = 0, uses_anonymous_args = 0
 8694 72e0 0530D0E5 		ldrb	r3, [r0, #5]	@ zero_extendqisi2
 8695 72e4 013043E2 		sub	r3, r3, #1
 8696 72e8 7320EFE6 		uxtb	r2, r3
 8697 72ec 1F0052E3 		cmp	r2, #31
 8698 72f0 1EFF2F81 		bxhi	lr
 8699 72f4 A02D9FE5 		ldr	r2, .L2402
 8700 72f8 033363E0 		rsb	r3, r3, r3, lsl #6
 8701 72fc 033282E0 		add	r3, r2, r3, lsl #4
 8702 7300 362AD3E5 		ldrb	r2, [r3, #2614]	@ zero_extendqisi2
 8703 7304 020052E3 		cmp	r2, #2
 8704 7308 1EFF2F11 		bxne	lr
 8705 730c 383A93E5 		ldr	r3, [r3, #2616]
 8706 7310 000053E3 		cmp	r3, #0
 8707 7314 1EFF2F01 		bxeq	lr
 8708 7318 EC3390E5 		ldr	r3, [r0, #1004]
 8709 731c 003093E5 		ldr	r3, [r3]
 8710 7320 000053E3 		cmp	r3, #0
 8711 7324 1EFF2F01 		bxeq	lr
 8712 7328 0030A0E3 		mov	r3, #0
 8713 732c F04F2DE9 		push	{r4, r5, r6, r7, r8, r9, r10, fp, lr}
 8714 7330 9CD04DE2 		sub	sp, sp, #156
 8715 7334 38308DE5 		str	r3, [sp, #56]
 8716 7338 5C3D9FE5 		ldr	r3, .L2402
 8717 733c 3C008DE5 		str	r0, [sp, #60]
 8718 7340 193D83E2 		add	r3, r3, #1600
 8719 7344 0C3083E2 		add	r3, r3, #12
 8720 7348 2C308DE5 		str	r3, [sp, #44]
 8721 734c 060000EA 		b	.L2152
ARM GAS  C:\Users\ldebo\AppData\Local\Temp\ccISOhOE.s 			page 154


 8722              	.L2379:
 8723 7350 EC3394E5 		ldr	r3, [r4, #1004]
 8724              	.L2076:
 8725 7354 38209DE5 		ldr	r2, [sp, #56]
 8726 7358 003093E5 		ldr	r3, [r3]
 8727 735c 012082E2 		add	r2, r2, #1
 8728 7360 020053E1 		cmp	r3, r2
 8729 7364 38208DE5 		str	r2, [sp, #56]
 8730 7368 9702009A 		bls	.L2378
 8731              	.L2152:
 8732 736c 3C409DE5 		ldr	r4, [sp, #60]
 8733 7370 3810DDE5 		ldrb	r1, [sp, #56]	@ zero_extendqisi2
 8734 7374 0400A0E1 		mov	r0, r4
 8735 7378 FEFFFFEB 		bl	HubCheckConnection
 8736 737c 000050E3 		cmp	r0, #0
 8737 7380 F2FFFF1A 		bne	.L2379
 8738 7384 3C309DE5 		ldr	r3, [sp, #60]
 8739 7388 38209DE5 		ldr	r2, [sp, #56]
 8740 738c EC3393E5 		ldr	r3, [r3, #1004]
 8741 7390 022183E0 		add	r2, r3, r2, lsl #2
 8742 7394 042092E5 		ldr	r2, [r2, #4]
 8743 7398 000052E3 		cmp	r2, #0
 8744 739c 30208DE5 		str	r2, [sp, #48]
 8745 73a0 EBFFFF0A 		beq	.L2076
 8746 73a4 0520D2E5 		ldrb	r2, [r2, #5]	@ zero_extendqisi2
 8747 73a8 012042E2 		sub	r2, r2, #1
 8748 73ac 7210EFE6 		uxtb	r1, r2
 8749 73b0 1F0051E3 		cmp	r1, #31
 8750 73b4 E6FFFF8A 		bhi	.L2076
 8751 73b8 DC1C9FE5 		ldr	r1, .L2402
 8752 73bc 022362E0 		rsb	r2, r2, r2, lsl #6
 8753 73c0 022281E0 		add	r2, r1, r2, lsl #4
 8754 73c4 361AD2E5 		ldrb	r1, [r2, #2614]	@ zero_extendqisi2
 8755 73c8 020051E3 		cmp	r1, #2
 8756 73cc E0FFFF1A 		bne	.L2076
 8757 73d0 382A92E5 		ldr	r2, [r2, #2616]
 8758 73d4 000052E3 		cmp	r2, #0
 8759 73d8 DDFFFF0A 		beq	.L2076
 8760 73dc 30209DE5 		ldr	r2, [sp, #48]
 8761 73e0 EC2392E5 		ldr	r2, [r2, #1004]
 8762 73e4 002092E5 		ldr	r2, [r2]
 8763 73e8 000052E3 		cmp	r2, #0
 8764 73ec D8FFFF0A 		beq	.L2076
 8765 73f0 28008DE5 		str	r0, [sp, #40]
 8766 73f4 060000EA 		b	.L2151
 8767              	.L2381:
 8768 73f8 EC3394E5 		ldr	r3, [r4, #1004]
 8769              	.L2078:
 8770 73fc 28209DE5 		ldr	r2, [sp, #40]
 8771 7400 003093E5 		ldr	r3, [r3]
 8772 7404 012082E2 		add	r2, r2, #1
 8773 7408 020053E1 		cmp	r3, r2
 8774 740c 28208DE5 		str	r2, [sp, #40]
 8775 7410 4C02009A 		bls	.L2380
 8776              	.L2151:
 8777 7414 30409DE5 		ldr	r4, [sp, #48]
 8778 7418 2810DDE5 		ldrb	r1, [sp, #40]	@ zero_extendqisi2
ARM GAS  C:\Users\ldebo\AppData\Local\Temp\ccISOhOE.s 			page 155


 8779 741c 0400A0E1 		mov	r0, r4
 8780 7420 FEFFFFEB 		bl	HubCheckConnection
 8781 7424 000050E3 		cmp	r0, #0
 8782 7428 F2FFFF1A 		bne	.L2381
 8783 742c 30309DE5 		ldr	r3, [sp, #48]
 8784 7430 28209DE5 		ldr	r2, [sp, #40]
 8785 7434 EC3393E5 		ldr	r3, [r3, #1004]
 8786 7438 022183E0 		add	r2, r3, r2, lsl #2
 8787 743c 042092E5 		ldr	r2, [r2, #4]
 8788 7440 000052E3 		cmp	r2, #0
 8789 7444 24208DE5 		str	r2, [sp, #36]
 8790 7448 EBFFFF0A 		beq	.L2078
 8791 744c 0520D2E5 		ldrb	r2, [r2, #5]	@ zero_extendqisi2
 8792 7450 012042E2 		sub	r2, r2, #1
 8793 7454 7210EFE6 		uxtb	r1, r2
 8794 7458 1F0051E3 		cmp	r1, #31
 8795 745c E6FFFF8A 		bhi	.L2078
 8796 7460 341C9FE5 		ldr	r1, .L2402
 8797 7464 022362E0 		rsb	r2, r2, r2, lsl #6
 8798 7468 022281E0 		add	r2, r1, r2, lsl #4
 8799 746c 361AD2E5 		ldrb	r1, [r2, #2614]	@ zero_extendqisi2
 8800 7470 020051E3 		cmp	r1, #2
 8801 7474 E0FFFF1A 		bne	.L2078
 8802 7478 382A92E5 		ldr	r2, [r2, #2616]
 8803 747c 000052E3 		cmp	r2, #0
 8804 7480 DDFFFF0A 		beq	.L2078
 8805 7484 24209DE5 		ldr	r2, [sp, #36]
 8806 7488 EC2392E5 		ldr	r2, [r2, #1004]
 8807 748c 002092E5 		ldr	r2, [r2]
 8808 7490 000052E3 		cmp	r2, #0
 8809 7494 D8FFFF0A 		beq	.L2078
 8810 7498 20008DE5 		str	r0, [sp, #32]
 8811 749c 060000EA 		b	.L2150
 8812              	.L2383:
 8813 74a0 EC3394E5 		ldr	r3, [r4, #1004]
 8814              	.L2080:
 8815 74a4 20209DE5 		ldr	r2, [sp, #32]
 8816 74a8 003093E5 		ldr	r3, [r3]
 8817 74ac 012082E2 		add	r2, r2, #1
 8818 74b0 020053E1 		cmp	r3, r2
 8819 74b4 20208DE5 		str	r2, [sp, #32]
 8820 74b8 1502009A 		bls	.L2382
 8821              	.L2150:
 8822 74bc 24409DE5 		ldr	r4, [sp, #36]
 8823 74c0 2010DDE5 		ldrb	r1, [sp, #32]	@ zero_extendqisi2
 8824 74c4 0400A0E1 		mov	r0, r4
 8825 74c8 FEFFFFEB 		bl	HubCheckConnection
 8826 74cc 000050E3 		cmp	r0, #0
 8827 74d0 F2FFFF1A 		bne	.L2383
 8828 74d4 24309DE5 		ldr	r3, [sp, #36]
 8829 74d8 20209DE5 		ldr	r2, [sp, #32]
 8830 74dc EC3393E5 		ldr	r3, [r3, #1004]
 8831 74e0 022183E0 		add	r2, r3, r2, lsl #2
 8832 74e4 042092E5 		ldr	r2, [r2, #4]
 8833 74e8 000052E3 		cmp	r2, #0
 8834 74ec 1C208DE5 		str	r2, [sp, #28]
 8835 74f0 EBFFFF0A 		beq	.L2080
ARM GAS  C:\Users\ldebo\AppData\Local\Temp\ccISOhOE.s 			page 156


 8836 74f4 0520D2E5 		ldrb	r2, [r2, #5]	@ zero_extendqisi2
 8837 74f8 012042E2 		sub	r2, r2, #1
 8838 74fc 7210EFE6 		uxtb	r1, r2
 8839 7500 1F0051E3 		cmp	r1, #31
 8840 7504 E6FFFF8A 		bhi	.L2080
 8841 7508 8C1B9FE5 		ldr	r1, .L2402
 8842 750c 022362E0 		rsb	r2, r2, r2, lsl #6
 8843 7510 022281E0 		add	r2, r1, r2, lsl #4
 8844 7514 361AD2E5 		ldrb	r1, [r2, #2614]	@ zero_extendqisi2
 8845 7518 020051E3 		cmp	r1, #2
 8846 751c E0FFFF1A 		bne	.L2080
 8847 7520 382A92E5 		ldr	r2, [r2, #2616]
 8848 7524 000052E3 		cmp	r2, #0
 8849 7528 DDFFFF0A 		beq	.L2080
 8850 752c 1C209DE5 		ldr	r2, [sp, #28]
 8851 7530 EC2392E5 		ldr	r2, [r2, #1004]
 8852 7534 002092E5 		ldr	r2, [r2]
 8853 7538 000052E3 		cmp	r2, #0
 8854 753c D8FFFF0A 		beq	.L2080
 8855 7540 10008DE5 		str	r0, [sp, #16]
 8856 7544 060000EA 		b	.L2149
 8857              	.L2385:
 8858 7548 EC2394E5 		ldr	r2, [r4, #1004]
 8859              	.L2082:
 8860 754c 003092E5 		ldr	r3, [r2]
 8861 7550 10209DE5 		ldr	r2, [sp, #16]
 8862 7554 012082E2 		add	r2, r2, #1
 8863 7558 020053E1 		cmp	r3, r2
 8864 755c 10208DE5 		str	r2, [sp, #16]
 8865 7560 C801009A 		bls	.L2384
 8866              	.L2149:
 8867 7564 1C409DE5 		ldr	r4, [sp, #28]
 8868 7568 1010DDE5 		ldrb	r1, [sp, #16]	@ zero_extendqisi2
 8869 756c 0400A0E1 		mov	r0, r4
 8870 7570 FEFFFFEB 		bl	HubCheckConnection
 8871 7574 000050E3 		cmp	r0, #0
 8872 7578 F2FFFF1A 		bne	.L2385
 8873 757c 1C309DE5 		ldr	r3, [sp, #28]
 8874 7580 EC2393E5 		ldr	r2, [r3, #1004]
 8875 7584 10309DE5 		ldr	r3, [sp, #16]
 8876 7588 033182E0 		add	r3, r2, r3, lsl #2
 8877 758c 04A093E5 		ldr	r10, [r3, #4]
 8878 7590 00005AE3 		cmp	r10, #0
 8879 7594 ECFFFF0A 		beq	.L2082
 8880 7598 0560DAE5 		ldrb	r6, [r10, #5]	@ zero_extendqisi2
 8881 759c 013046E2 		sub	r3, r6, #1
 8882 75a0 7310EFE6 		uxtb	r1, r3
 8883 75a4 1F0051E3 		cmp	r1, #31
 8884 75a8 E7FFFF8A 		bhi	.L2082
 8885 75ac E8CA9FE5 		ldr	ip, .L2402
 8886 75b0 031363E0 		rsb	r1, r3, r3, lsl #6
 8887 75b4 01128CE0 		add	r1, ip, r1, lsl #4
 8888 75b8 36CAD1E5 		ldrb	ip, [r1, #2614]	@ zero_extendqisi2
 8889 75bc 02005CE3 		cmp	ip, #2
 8890 75c0 E1FFFF1A 		bne	.L2082
 8891 75c4 381A91E5 		ldr	r1, [r1, #2616]
 8892 75c8 000051E3 		cmp	r1, #0
ARM GAS  C:\Users\ldebo\AppData\Local\Temp\ccISOhOE.s 			page 157


 8893 75cc DEFFFF0A 		beq	.L2082
 8894 75d0 EC839AE5 		ldr	r8, [r10, #1004]
 8895 75d4 001098E5 		ldr	r1, [r8]
 8896 75d8 000051E3 		cmp	r1, #0
 8897 75dc DAFFFF0A 		beq	.L2082
 8898 75e0 0120A0E3 		mov	r2, #1
 8899 75e4 00B0A0E1 		mov	fp, r0
 8900 75e8 0290A0E1 		mov	r9, r2
 8901 75ec 060000EA 		b	.L2148
 8902              	.L2146:
 8903 75f0 003098E5 		ldr	r3, [r8]
 8904 75f4 01B08BE2 		add	fp, fp, #1
 8905 75f8 0B0053E1 		cmp	r3, fp
 8906 75fc 019089E2 		add	r9, r9, #1
 8907 7600 9D01009A 		bls	.L2147
 8908 7604 0560DAE5 		ldrb	r6, [r10, #5]	@ zero_extendqisi2
 8909 7608 013046E2 		sub	r3, r6, #1
 8910              	.L2148:
 8911 760c 7320EFE6 		uxtb	r2, r3
 8912 7610 1F0052E3 		cmp	r2, #31
 8913 7614 7B20EFE6 		uxtb	r2, fp
 8914 7618 14208DE5 		str	r2, [sp, #20]
 8915 761c F3FFFF8A 		bhi	.L2146
 8916 7620 742A9FE5 		ldr	r2, .L2402
 8917 7624 033363E0 		rsb	r3, r3, r3, lsl #6
 8918 7628 033282E0 		add	r3, r2, r3, lsl #4
 8919 762c 362AD3E5 		ldrb	r2, [r3, #2614]	@ zero_extendqisi2
 8920 7630 020052E3 		cmp	r2, #2
 8921 7634 EDFFFF1A 		bne	.L2146
 8922 7638 383A93E5 		ldr	r3, [r3, #2616]
 8923 763c 000053E3 		cmp	r3, #0
 8924 7640 EAFFFF0A 		beq	.L2146
 8925 7644 0410A0E3 		mov	r1, #4
 8926 7648 FF5019E2 		ands	r5, r9, #255
 8927 764c 0030A0E3 		mov	r3, #0
 8928 7650 0AE0A0E3 		mov	lr, #10
 8929 7654 01C0A0E1 		mov	ip, r1
 8930 7658 A320A013 		movne	r2, #163
 8931 765c A020A003 		moveq	r2, #160
 8932 7660 04009AE5 		ldr	r0, [r10, #4]
 8933 7664 0440DAE5 		ldrb	r4, [r10, #4]	@ zero_extendqisi2
 8934 7668 4C308DE5 		str	r3, [sp, #76]
 8935 766c 40008DE5 		str	r0, [sp, #64]
 8936 7670 4D10CDE5 		strb	r1, [sp, #77]
 8937 7674 4160CDE5 		strb	r6, [sp, #65]
 8938 7678 70708DE2 		add	r7, sp, #112
 8939 767c 04E08DE5 		str	lr, [sp, #4]
 8940 7680 44E08DE2 		add	lr, sp, #68
 8941 7684 70308DE5 		str	r3, [sp, #112]
 8942 7688 00708DE5 		str	r7, [sp]
 8943 768c 08E08DE5 		str	lr, [sp, #8]
 8944 7690 2471A0E1 		lsr	r7, r4, #2
 8945 7694 75E0FFE6 		uxth	lr, r5
 8946 7698 44308DE5 		str	r3, [sp, #68]
 8947 769c 034004E2 		and	r4, r4, #3
 8948 76a0 7020CDE5 		strb	r2, [sp, #112]
 8949 76a4 4C109DE5 		ldr	r1, [sp, #76]
ARM GAS  C:\Users\ldebo\AppData\Local\Temp\ccISOhOE.s 			page 158


 8950 76a8 40009DE5 		ldr	r0, [sp, #64]
 8951 76ac 0C30A0E1 		mov	r3, ip
 8952 76b0 48208DE2 		add	r2, sp, #72
 8953 76b4 18408DE5 		str	r4, [sp, #24]
 8954 76b8 14E08DE5 		str	lr, [sp, #20]
 8955 76bc B4E7CDE1 		strh	lr, [sp, #116]	@ movhi
 8956 76c0 B6C7CDE1 		strh	ip, [sp, #118]	@ movhi
 8957 76c4 FEFFFFEB 		bl	HCDSubmitControlMessage
 8958 76c8 004050E2 		subs	r4, r0, #0
 8959 76cc 037007E2 		and	r7, r7, #3
 8960 76d0 2700000A 		beq	.L2087
 8961 76d4 C0399FE5 		ldr	r3, .L2402
 8962 76d8 008093E5 		ldr	r8, [r3]
 8963 76dc 000058E3 		cmp	r8, #0
 8964 76e0 0700000A 		beq	.L2088
 8965 76e4 18309DE5 		ldr	r3, [sp, #24]
 8966 76e8 00708DE5 		str	r7, [sp]
 8967 76ec 04308DE5 		str	r3, [sp, #4]
 8968 76f0 0520A0E1 		mov	r2, r5
 8969 76f4 0610A0E1 		mov	r1, r6
 8970 76f8 0430A0E1 		mov	r3, r4
 8971 76fc 9C099FE5 		ldr	r0, .L2402+4
 8972 7700 38FF2FE1 		blx	r8
 8973              	.L2088:
 8974 7704 0B0074E3 		cmn	r4, #11
 8975 7708 1700000A 		beq	.L2363
 8976 770c 88399FE5 		ldr	r3, .L2402
 8977 7710 004093E5 		ldr	r4, [r3]
 8978              	.L2091:
 8979 7714 000054E3 		cmp	r4, #0
 8980 7718 1300000A 		beq	.L2363
 8981 771c 0A30DAE5 		ldrb	r3, [r10, #10]	@ zero_extendqisi2
 8982 7720 000053E3 		cmp	r3, #0
 8983 7724 5201000A 		beq	.L2164
 8984 7728 010053E3 		cmp	r3, #1
 8985 772c 5A01000A 		beq	.L2165
 8986 7730 2C209DE5 		ldr	r2, [sp, #44]
 8987 7734 02005AE1 		cmp	r10, r2
 8988 7738 7E01000A 		beq	.L2166
 8989 773c DC23DAE5 		ldrb	r2, [r10, #988]	@ zero_extendqisi2
 8990 7740 090052E3 		cmp	r2, #9
 8991 7744 5601000A 		beq	.L2096
 8992 7748 FF0052E3 		cmp	r2, #255
 8993 774c 6501000A 		beq	.L2097
 8994 7750 000052E3 		cmp	r2, #0
 8995 7754 48199F15 		ldrne	r1, .L2402+8
 8996 7758 5E01000A 		beq	.L2386
 8997              	.L2095:
 8998 775c 7B30EFE6 		uxtb	r3, fp
 8999 7760 012083E2 		add	r2, r3, #1
 9000 7764 3C099FE5 		ldr	r0, .L2402+12
 9001 7768 34FF2FE1 		blx	r4
 9002              	.L2363:
 9003 776c EC839AE5 		ldr	r8, [r10, #1004]
 9004 7770 9EFFFFEA 		b	.L2146
 9005              	.L2087:
 9006 7774 44309DE5 		ldr	r3, [sp, #68]
ARM GAS  C:\Users\ldebo\AppData\Local\Temp\ccISOhOE.s 			page 159


 9007 7778 030053E3 		cmp	r3, #3
 9008 777c 0A00008A 		bhi	.L2089
 9009 7780 14399FE5 		ldr	r3, .L2402
 9010 7784 003093E5 		ldr	r3, [r3]
 9011 7788 000053E3 		cmp	r3, #0
 9012 778c F6FFFF0A 		beq	.L2363
 9013 7790 0520A0E1 		mov	r2, r5
 9014 7794 0610A0E1 		mov	r1, r6
 9015 7798 0C099FE5 		ldr	r0, .L2402+16
 9016 779c 33FF2FE1 		blx	r3
 9017 77a0 F4389FE5 		ldr	r3, .L2402
 9018 77a4 004093E5 		ldr	r4, [r3]
 9019 77a8 D9FFFFEA 		b	.L2091
 9020              	.L2089:
 9021 77ac 48409DE5 		ldr	r4, [sp, #72]
 9022 77b0 2438A0E1 		lsr	r3, r4, #16
 9023 77b4 7370EFE6 		uxtb	r7, r3
 9024 77b8 010017E3 		tst	r7, #1
 9025 77bc 0A00000A 		beq	.L2093
 9026 77c0 D4389FE5 		ldr	r3, .L2402
 9027 77c4 043093E5 		ldr	r3, [r3, #4]
 9028 77c8 000053E3 		cmp	r3, #0
 9029 77cc 0300000A 		beq	.L2101
 9030 77d0 7B20EFE6 		uxtb	r2, fp
 9031 77d4 0510DAE5 		ldrb	r1, [r10, #5]	@ zero_extendqisi2
 9032 77d8 D0089FE5 		ldr	r0, .L2402+20
 9033 77dc 33FF2FE1 		blx	r3
 9034              	.L2101:
 9035 77e0 7B10EFE6 		uxtb	r1, fp
 9036 77e4 0A00A0E1 		mov	r0, r10
 9037 77e8 FEFFFFEB 		bl	HubPortConnectionChanged
 9038              	.L2093:
 9039 77ec 020017E3 		tst	r7, #2
 9040 77f0 7440EF06 		uxtbeq	r4, r4
 9041 77f4 BC00001A 		bne	.L2387
 9042              	.L2103:
 9043 77f8 040014E3 		tst	r4, #4
 9044 77fc 7F00001A 		bne	.L2388
 9045              	.L2121:
 9046 7800 080017E3 		tst	r7, #8
 9047 7804 4200001A 		bne	.L2389
 9048              	.L2130:
 9049 7808 100017E3 		tst	r7, #16
 9050 780c 0600001A 		bne	.L2390
 9051              	.L2145:
 9052 7810 EC839AE5 		ldr	r8, [r10, #1004]
 9053 7814 0B3188E0 		add	r3, r8, fp, lsl #2
 9054 7818 040093E5 		ldr	r0, [r3, #4]
 9055 781c 000050E3 		cmp	r0, #0
 9056 7820 72FFFF0A 		beq	.L2146
 9057 7824 FEFFFFEB 		bl	HubCheckForChange
 9058 7828 CFFFFFEA 		b	.L2363
 9059              	.L2390:
 9060 782c 0040A0E3 		mov	r4, #0
 9061 7830 040055E1 		cmp	r5, r4
 9062 7834 20C0A003 		moveq	ip, #32
 9063 7838 23C0A013 		movne	ip, #35
ARM GAS  C:\Users\ldebo\AppData\Local\Temp\ccISOhOE.s 			page 160


 9064 783c 0130A0E3 		mov	r3, #1
 9065 7840 1470A0E3 		mov	r7, #20
 9066 7844 04209AE5 		ldr	r2, [r10, #4]
 9067 7848 0560DAE5 		ldrb	r6, [r10, #5]	@ zero_extendqisi2
 9068 784c B411DDE1 		ldrh	r1, [sp, #20]
 9069 7850 68208DE5 		str	r2, [sp, #104]
 9070 7854 6960CDE5 		strb	r6, [sp, #105]
 9071 7858 94408DE5 		str	r4, [sp, #148]
 9072 785c 68009DE5 		ldr	r0, [sp, #104]
 9073 7860 B419CDE1 		strh	r1, [sp, #148]	@ movhi
 9074 7864 90208DE2 		add	r2, sp, #144
 9075 7868 0410A0E1 		mov	r1, r4
 9076 786c 6C408DE5 		str	r4, [sp, #108]
 9077 7870 90C0CDE5 		strb	ip, [sp, #144]
 9078 7874 9130CDE5 		strb	r3, [sp, #145]
 9079 7878 B279CDE1 		strh	r7, [sp, #146]	@ movhi
 9080 787c B1E8FFEB 		bl	HCDSubmitControlMessage.constprop.6
 9081 7880 040050E1 		cmp	r0, r4
 9082 7884 E1FFFF0A 		beq	.L2145
 9083 7888 0C389FE5 		ldr	r3, .L2402
 9084 788c 008093E5 		ldr	r8, [r3]
 9085 7890 040058E1 		cmp	r8, r4
 9086 7894 DDFFFF0A 		beq	.L2145
 9087 7898 00408DE5 		str	r4, [sp]
 9088 789c 0730A0E1 		mov	r3, r7
 9089 78a0 0520A0E1 		mov	r2, r5
 9090 78a4 0610A0E1 		mov	r1, r6
 9091 78a8 04089FE5 		ldr	r0, .L2402+24
 9092 78ac 38FF2FE1 		blx	r8
 9093 78b0 E4379FE5 		ldr	r3, .L2402
 9094 78b4 004093E5 		ldr	r4, [r3]
 9095 78b8 000054E3 		cmp	r4, #0
 9096 78bc D3FFFF0A 		beq	.L2145
 9097 78c0 0A30DAE5 		ldrb	r3, [r10, #10]	@ zero_extendqisi2
 9098 78c4 000053E3 		cmp	r3, #0
 9099 78c8 F100000A 		beq	.L2218
 9100 78cc 010053E3 		cmp	r3, #1
 9101 78d0 1A01000A 		beq	.L2219
 9102 78d4 2C209DE5 		ldr	r2, [sp, #44]
 9103 78d8 02005AE1 		cmp	r10, r2
 9104 78dc 9C01000A 		beq	.L2220
 9105 78e0 DC23DAE5 		ldrb	r2, [r10, #988]	@ zero_extendqisi2
 9106 78e4 090052E3 		cmp	r2, #9
 9107 78e8 2801000A 		beq	.L2141
 9108 78ec FF0052E3 		cmp	r2, #255
 9109 78f0 1B01000A 		beq	.L2142
 9110 78f4 000052E3 		cmp	r2, #0
 9111 78f8 A4179F15 		ldrne	r1, .L2402+8
 9112 78fc 1401000A 		beq	.L2391
 9113              	.L2140:
 9114 7900 7B30EFE6 		uxtb	r3, fp
 9115 7904 012083E2 		add	r2, r3, #1
 9116 7908 A8079FE5 		ldr	r0, .L2402+28
 9117 790c 34FF2FE1 		blx	r4
 9118 7910 BEFFFFEA 		b	.L2145
 9119              	.L2389:
 9120 7914 0040A0E3 		mov	r4, #0
ARM GAS  C:\Users\ldebo\AppData\Local\Temp\ccISOhOE.s 			page 161


 9121 7918 040055E1 		cmp	r5, r4
 9122 791c 20C0A003 		moveq	ip, #32
 9123 7920 23C0A013 		movne	ip, #35
 9124 7924 0130A0E3 		mov	r3, #1
 9125 7928 1380A0E3 		mov	r8, #19
 9126 792c 04209AE5 		ldr	r2, [r10, #4]
 9127 7930 0560DAE5 		ldrb	r6, [r10, #5]	@ zero_extendqisi2
 9128 7934 60208DE5 		str	r2, [sp, #96]
 9129 7938 B4E1DDE1 		ldrh	lr, [sp, #20]
 9130 793c 6160CDE5 		strb	r6, [sp, #97]
 9131 7940 60009DE5 		ldr	r0, [sp, #96]
 9132 7944 88208DE2 		add	r2, sp, #136
 9133 7948 0410A0E1 		mov	r1, r4
 9134 794c 8C408DE5 		str	r4, [sp, #140]
 9135 7950 64408DE5 		str	r4, [sp, #100]
 9136 7954 BCE8CDE1 		strh	lr, [sp, #140]	@ movhi
 9137 7958 88C0CDE5 		strb	ip, [sp, #136]
 9138 795c 8930CDE5 		strb	r3, [sp, #137]
 9139 7960 BA88CDE1 		strh	r8, [sp, #138]	@ movhi
 9140 7964 77E8FFEB 		bl	HCDSubmitControlMessage.constprop.6
 9141 7968 040050E1 		cmp	r0, r4
 9142 796c A5FFFF0A 		beq	.L2130
 9143 7970 24379FE5 		ldr	r3, .L2402
 9144 7974 003093E5 		ldr	r3, [r3]
 9145 7978 040053E1 		cmp	r3, r4
 9146 797c 03C0A0E1 		mov	ip, r3
 9147 7980 A0FFFF0A 		beq	.L2130
 9148 7984 00408DE5 		str	r4, [sp]
 9149 7988 0830A0E1 		mov	r3, r8
 9150 798c 0610A0E1 		mov	r1, r6
 9151 7990 0520A0E1 		mov	r2, r5
 9152 7994 18079FE5 		ldr	r0, .L2402+24
 9153 7998 3CFF2FE1 		blx	ip
 9154 799c F8369FE5 		ldr	r3, .L2402
 9155 79a0 004093E5 		ldr	r4, [r3]
 9156 79a4 000054E3 		cmp	r4, #0
 9157 79a8 96FFFF0A 		beq	.L2130
 9158 79ac 0A30DAE5 		ldrb	r3, [r10, #10]	@ zero_extendqisi2
 9159 79b0 000053E3 		cmp	r3, #0
 9160 79b4 DD00000A 		beq	.L2207
 9161 79b8 010053E3 		cmp	r3, #1
 9162 79bc 0801000A 		beq	.L2208
 9163 79c0 2C209DE5 		ldr	r2, [sp, #44]
 9164 79c4 02005AE1 		cmp	r10, r2
 9165 79c8 6701000A 		beq	.L2209
 9166 79cc DC23DAE5 		ldrb	r2, [r10, #988]	@ zero_extendqisi2
 9167 79d0 090052E3 		cmp	r2, #9
 9168 79d4 3501000A 		beq	.L2134
 9169 79d8 FF0052E3 		cmp	r2, #255
 9170 79dc 4401000A 		beq	.L2135
 9171 79e0 000052E3 		cmp	r2, #0
 9172 79e4 B8169F15 		ldrne	r1, .L2402+8
 9173 79e8 2C01000A 		beq	.L2392
 9174              	.L2133:
 9175 79ec 7B30EFE6 		uxtb	r3, fp
 9176 79f0 012083E2 		add	r2, r3, #1
 9177 79f4 C0069FE5 		ldr	r0, .L2402+32
ARM GAS  C:\Users\ldebo\AppData\Local\Temp\ccISOhOE.s 			page 162


 9178 79f8 34FF2FE1 		blx	r4
 9179 79fc 81FFFFEA 		b	.L2130
 9180              	.L2388:
 9181 7a00 0040A0E3 		mov	r4, #0
 9182 7a04 040055E1 		cmp	r5, r4
 9183 7a08 20C0A003 		moveq	ip, #32
 9184 7a0c 23C0A013 		movne	ip, #35
 9185 7a10 0130A0E3 		mov	r3, #1
 9186 7a14 0280A0E3 		mov	r8, #2
 9187 7a18 04209AE5 		ldr	r2, [r10, #4]
 9188 7a1c 0560DAE5 		ldrb	r6, [r10, #5]	@ zero_extendqisi2
 9189 7a20 58208DE5 		str	r2, [sp, #88]
 9190 7a24 B4E1DDE1 		ldrh	lr, [sp, #20]
 9191 7a28 5960CDE5 		strb	r6, [sp, #89]
 9192 7a2c 58009DE5 		ldr	r0, [sp, #88]
 9193 7a30 80208DE2 		add	r2, sp, #128
 9194 7a34 0410A0E1 		mov	r1, r4
 9195 7a38 84408DE5 		str	r4, [sp, #132]
 9196 7a3c 5C408DE5 		str	r4, [sp, #92]
 9197 7a40 B4E8CDE1 		strh	lr, [sp, #132]	@ movhi
 9198 7a44 80C0CDE5 		strb	ip, [sp, #128]
 9199 7a48 8130CDE5 		strb	r3, [sp, #129]
 9200 7a4c B288CDE1 		strh	r8, [sp, #130]	@ movhi
 9201 7a50 3CE8FFEB 		bl	HCDSubmitControlMessage.constprop.6
 9202 7a54 040050E1 		cmp	r0, r4
 9203 7a58 68FFFF0A 		beq	.L2121
 9204 7a5c 38369FE5 		ldr	r3, .L2402
 9205 7a60 003093E5 		ldr	r3, [r3]
 9206 7a64 040053E1 		cmp	r3, r4
 9207 7a68 03C0A0E1 		mov	ip, r3
 9208 7a6c 63FFFF0A 		beq	.L2121
 9209 7a70 00408DE5 		str	r4, [sp]
 9210 7a74 0830A0E1 		mov	r3, r8
 9211 7a78 0610A0E1 		mov	r1, r6
 9212 7a7c 0520A0E1 		mov	r2, r5
 9213 7a80 2C069FE5 		ldr	r0, .L2402+24
 9214 7a84 3CFF2FE1 		blx	ip
 9215 7a88 0C369FE5 		ldr	r3, .L2402
 9216 7a8c 004093E5 		ldr	r4, [r3]
 9217 7a90 000054E3 		cmp	r4, #0
 9218 7a94 59FFFF0A 		beq	.L2121
 9219 7a98 0A30DAE5 		ldrb	r3, [r10, #10]	@ zero_extendqisi2
 9220 7a9c 000053E3 		cmp	r3, #0
 9221 7aa0 A000000A 		beq	.L2196
 9222 7aa4 010053E3 		cmp	r3, #1
 9223 7aa8 CB00000A 		beq	.L2197
 9224 7aac 2C209DE5 		ldr	r2, [sp, #44]
 9225 7ab0 02005AE1 		cmp	r10, r2
 9226 7ab4 2E01000A 		beq	.L2198
 9227 7ab8 DC23DAE5 		ldrb	r2, [r10, #988]	@ zero_extendqisi2
 9228 7abc 090052E3 		cmp	r2, #9
 9229 7ac0 CD00000A 		beq	.L2125
 9230 7ac4 FF0052E3 		cmp	r2, #255
 9231 7ac8 DC00000A 		beq	.L2126
 9232 7acc 000052E3 		cmp	r2, #0
 9233 7ad0 CC159F15 		ldrne	r1, .L2402+8
 9234 7ad4 D500000A 		beq	.L2393
ARM GAS  C:\Users\ldebo\AppData\Local\Temp\ccISOhOE.s 			page 163


 9235              	.L2124:
 9236 7ad8 7B30EFE6 		uxtb	r3, fp
 9237 7adc 012083E2 		add	r2, r3, #1
 9238 7ae0 D8059FE5 		ldr	r0, .L2402+36
 9239 7ae4 34FF2FE1 		blx	r4
 9240 7ae8 44FFFFEA 		b	.L2121
 9241              	.L2387:
 9242 7aec 0060A0E3 		mov	r6, #0
 9243 7af0 B4C1DDE1 		ldrh	ip, [sp, #20]
 9244 7af4 060055E1 		cmp	r5, r6
 9245 7af8 0510DAE5 		ldrb	r1, [r10, #5]	@ zero_extendqisi2
 9246 7afc 04209AE5 		ldr	r2, [r10, #4]
 9247 7b00 20E0A003 		moveq	lr, #32
 9248 7b04 23E0A013 		movne	lr, #35
 9249 7b08 1130A0E3 		mov	r3, #17
 9250 7b0c 7C608DE5 		str	r6, [sp, #124]
 9251 7b10 BCC7CDE1 		strh	ip, [sp, #124]	@ movhi
 9252 7b14 01C0A0E3 		mov	ip, #1
 9253 7b18 50208DE5 		str	r2, [sp, #80]
 9254 7b1c 5110CDE5 		strb	r1, [sp, #81]
 9255 7b20 18108DE5 		str	r1, [sp, #24]
 9256 7b24 50009DE5 		ldr	r0, [sp, #80]
 9257 7b28 78208DE2 		add	r2, sp, #120
 9258 7b2c 0610A0E1 		mov	r1, r6
 9259 7b30 54608DE5 		str	r6, [sp, #84]
 9260 7b34 78E0CDE5 		strb	lr, [sp, #120]
 9261 7b38 79C0CDE5 		strb	ip, [sp, #121]
 9262 7b3c BA37CDE1 		strh	r3, [sp, #122]	@ movhi
 9263 7b40 34308DE5 		str	r3, [sp, #52]
 9264 7b44 FFE7FFEB 		bl	HCDSubmitControlMessage.constprop.6
 9265 7b48 060050E1 		cmp	r0, r6
 9266 7b4c 2200000A 		beq	.L2106
 9267 7b50 44359FE5 		ldr	r3, .L2402
 9268 7b54 003093E5 		ldr	r3, [r3]
 9269 7b58 060053E1 		cmp	r3, r6
 9270 7b5c 03C0A0E1 		mov	ip, r3
 9271 7b60 1D00000A 		beq	.L2106
 9272 7b64 00608DE5 		str	r6, [sp]
 9273 7b68 34309DE5 		ldr	r3, [sp, #52]
 9274 7b6c 18109DE5 		ldr	r1, [sp, #24]
 9275 7b70 0520A0E1 		mov	r2, r5
 9276 7b74 38059FE5 		ldr	r0, .L2402+24
 9277 7b78 3CFF2FE1 		blx	ip
 9278 7b7c 18359FE5 		ldr	r3, .L2402
 9279 7b80 006093E5 		ldr	r6, [r3]
 9280 7b84 000056E3 		cmp	r6, #0
 9281 7b88 1300000A 		beq	.L2106
 9282 7b8c 0A30DAE5 		ldrb	r3, [r10, #10]	@ zero_extendqisi2
 9283 7b90 000053E3 		cmp	r3, #0
 9284 7b94 6100000A 		beq	.L2175
 9285 7b98 010053E3 		cmp	r3, #1
 9286 7b9c 8C00000A 		beq	.L2176
 9287 7ba0 2C209DE5 		ldr	r2, [sp, #44]
 9288 7ba4 02005AE1 		cmp	r10, r2
 9289 7ba8 F300000A 		beq	.L2177
 9290 7bac DC23DAE5 		ldrb	r2, [r10, #988]	@ zero_extendqisi2
 9291 7bb0 090052E3 		cmp	r2, #9
ARM GAS  C:\Users\ldebo\AppData\Local\Temp\ccISOhOE.s 			page 164


 9292 7bb4 AC00000A 		beq	.L2109
 9293 7bb8 FF0052E3 		cmp	r2, #255
 9294 7bbc D700000A 		beq	.L2110
 9295 7bc0 000052E3 		cmp	r2, #0
 9296 7bc4 D8149F15 		ldrne	r1, .L2402+8
 9297 7bc8 C500000A 		beq	.L2394
 9298              	.L2108:
 9299 7bcc 7B30EFE6 		uxtb	r3, fp
 9300 7bd0 012083E2 		add	r2, r3, #1
 9301 7bd4 E8049FE5 		ldr	r0, .L2402+40
 9302 7bd8 36FF2FE1 		blx	r6
 9303              	.L2106:
 9304 7bdc 020014E3 		tst	r4, #2
 9305 7be0 7440EFE6 		uxtb	r4, r4
 9306 7be4 03FFFF1A 		bne	.L2103
 9307 7be8 010014E3 		tst	r4, #1
 9308 7bec 01FFFF0A 		beq	.L2103
 9309 7bf0 7B30EFE6 		uxtb	r3, fp
 9310 7bf4 038188E0 		add	r8, r8, r3, lsl #2
 9311 7bf8 043098E5 		ldr	r3, [r8, #4]
 9312 7bfc 000053E3 		cmp	r3, #0
 9313 7c00 FCFEFF0A 		beq	.L2103
 9314 7c04 90349FE5 		ldr	r3, .L2402
 9315 7c08 006093E5 		ldr	r6, [r3]
 9316 7c0c 000056E3 		cmp	r6, #0
 9317 7c10 1300000A 		beq	.L2114
 9318 7c14 0A30DAE5 		ldrb	r3, [r10, #10]	@ zero_extendqisi2
 9319 7c18 000053E3 		cmp	r3, #0
 9320 7c1c 6800000A 		beq	.L2185
 9321 7c20 010053E3 		cmp	r3, #1
 9322 7c24 CE00000A 		beq	.L2186
 9323 7c28 2C209DE5 		ldr	r2, [sp, #44]
 9324 7c2c 02005AE1 		cmp	r10, r2
 9325 7c30 FD00000A 		beq	.L2187
 9326 7c34 DC23DAE5 		ldrb	r2, [r10, #988]	@ zero_extendqisi2
 9327 7c38 090052E3 		cmp	r2, #9
 9328 7c3c DF00000A 		beq	.L2116
 9329 7c40 FF0052E3 		cmp	r2, #255
 9330 7c44 D200000A 		beq	.L2117
 9331 7c48 000052E3 		cmp	r2, #0
 9332 7c4c 50149F15 		ldrne	r1, .L2402+8
 9333 7c50 CB00000A 		beq	.L2395
 9334              	.L2115:
 9335 7c54 7B30EFE6 		uxtb	r3, fp
 9336 7c58 012083E2 		add	r2, r3, #1
 9337 7c5c 64049FE5 		ldr	r0, .L2402+44
 9338 7c60 36FF2FE1 		blx	r6
 9339              	.L2114:
 9340 7c64 7B10EFE6 		uxtb	r1, fp
 9341 7c68 0A00A0E1 		mov	r0, r10
 9342 7c6c FEFFFFEB 		bl	HubPortConnectionChanged
 9343 7c70 E0FEFFEA 		b	.L2103
 9344              	.L2164:
 9345 7c74 50149FE5 		ldr	r1, .L2402+48
 9346 7c78 B7FEFFEA 		b	.L2095
 9347              	.L2147:
 9348 7c7c 1C309DE5 		ldr	r3, [sp, #28]
ARM GAS  C:\Users\ldebo\AppData\Local\Temp\ccISOhOE.s 			page 165


 9349 7c80 EC2393E5 		ldr	r2, [r3, #1004]
 9350 7c84 30FEFFEA 		b	.L2082
 9351              	.L2384:
 9352 7c88 24309DE5 		ldr	r3, [sp, #36]
 9353 7c8c EC3393E5 		ldr	r3, [r3, #1004]
 9354 7c90 03FEFFEA 		b	.L2080
 9355              	.L2218:
 9356 7c94 30149FE5 		ldr	r1, .L2402+48
 9357 7c98 18FFFFEA 		b	.L2140
 9358              	.L2165:
 9359 7c9c 2C149FE5 		ldr	r1, .L2402+52
 9360 7ca0 ADFEFFEA 		b	.L2095
 9361              	.L2096:
 9362 7ca4 F63F8AE2 		add	r3, r10, #984
 9363 7ca8 B230D3E1 		ldrh	r3, [r3, #2]
 9364 7cac 210E53E3 		cmp	r3, #528
 9365 7cb0 4F00000A 		beq	.L2168
 9366 7cb4 020C53E3 		cmp	r3, #512
 9367 7cb8 A300000A 		beq	.L2169
 9368 7cbc 110E53E3 		cmp	r3, #272
 9369 7cc0 A500000A 		beq	.L2170
 9370 7cc4 08149FE5 		ldr	r1, .L2402+56
 9371 7cc8 010C53E3 		cmp	r3, #256
 9372 7ccc 102041E2 		sub	r2, r1, #16
 9373 7cd0 0210A001 		moveq	r1, r2
 9374 7cd4 A0FEFFEA 		b	.L2095
 9375              	.L2386:
 9376 7cd8 040053E3 		cmp	r3, #4
 9377 7cdc F4139F15 		ldrne	r1, .L2402+60
 9378 7ce0 9DFEFF1A 		bne	.L2095
 9379 7ce4 060000EA 		b	.L2157
 9380              	.L2097:
 9381 7ce8 EC239FE5 		ldr	r2, .L2402+64
 9382 7cec E0139AE5 		ldr	r1, [r10, #992]
 9383 7cf0 020051E1 		cmp	r1, r2
 9384 7cf4 3C00000A 		beq	.L2396
 9385 7cf8 040053E3 		cmp	r3, #4
 9386 7cfc DC139F15 		ldrne	r1, .L2402+68
 9387 7d00 95FEFF1A 		bne	.L2095
 9388              	.L2157:
 9389 7d04 0A00A0E1 		mov	r0, r10
 9390 7d08 BCE0FFEB 		bl	UsbGetDescription.part.2
 9391 7d0c 0010A0E1 		mov	r1, r0
 9392 7d10 91FEFFEA 		b	.L2095
 9393              	.L2382:
 9394 7d14 30309DE5 		ldr	r3, [sp, #48]
 9395 7d18 EC3393E5 		ldr	r3, [r3, #1004]
 9396 7d1c B6FDFFEA 		b	.L2078
 9397              	.L2175:
 9398 7d20 A4139FE5 		ldr	r1, .L2402+48
 9399 7d24 A8FFFFEA 		b	.L2108
 9400              	.L2196:
 9401 7d28 9C139FE5 		ldr	r1, .L2402+48
 9402 7d2c 69FFFFEA 		b	.L2124
 9403              	.L2207:
 9404 7d30 94139FE5 		ldr	r1, .L2402+48
 9405 7d34 2CFFFFEA 		b	.L2133
ARM GAS  C:\Users\ldebo\AppData\Local\Temp\ccISOhOE.s 			page 166


 9406              	.L2166:
 9407 7d38 A4139FE5 		ldr	r1, .L2402+72
 9408 7d3c 86FEFFEA 		b	.L2095
 9409              	.L2219:
 9410 7d40 88139FE5 		ldr	r1, .L2402+52
 9411 7d44 EDFEFFEA 		b	.L2140
 9412              	.L2380:
 9413 7d48 3C309DE5 		ldr	r3, [sp, #60]
 9414 7d4c EC3393E5 		ldr	r3, [r3, #1004]
 9415 7d50 7FFDFFEA 		b	.L2076
 9416              	.L2391:
 9417 7d54 040053E3 		cmp	r3, #4
 9418 7d58 78139F15 		ldrne	r1, .L2402+60
 9419 7d5c E7FEFF1A 		bne	.L2140
 9420 7d60 060000EA 		b	.L2163
 9421              	.L2142:
 9422 7d64 70239FE5 		ldr	r2, .L2402+64
 9423 7d68 E0139AE5 		ldr	r1, [r10, #992]
 9424 7d6c 020051E1 		cmp	r1, r2
 9425 7d70 A100000A 		beq	.L2397
 9426 7d74 040053E3 		cmp	r3, #4
 9427 7d78 60139F15 		ldrne	r1, .L2402+68
 9428 7d7c DFFEFF1A 		bne	.L2140
 9429              	.L2163:
 9430 7d80 0A00A0E1 		mov	r0, r10
 9431 7d84 9DE0FFEB 		bl	UsbGetDescription.part.2
 9432 7d88 0010A0E1 		mov	r1, r0
 9433 7d8c DBFEFFEA 		b	.L2140
 9434              	.L2141:
 9435 7d90 F63F8AE2 		add	r3, r10, #984
 9436 7d94 B230D3E1 		ldrh	r3, [r3, #2]
 9437 7d98 210E53E3 		cmp	r3, #528
 9438 7d9c 9400000A 		beq	.L2222
 9439 7da0 020C53E3 		cmp	r3, #512
 9440 7da4 9600000A 		beq	.L2223
 9441 7da8 110E53E3 		cmp	r3, #272
 9442 7dac 9600000A 		beq	.L2224
 9443 7db0 1C139FE5 		ldr	r1, .L2402+56
 9444 7db4 010C53E3 		cmp	r3, #256
 9445 7db8 102041E2 		sub	r2, r1, #16
 9446 7dbc 0210A001 		moveq	r1, r2
 9447 7dc0 CEFEFFEA 		b	.L2140
 9448              	.L2185:
 9449 7dc4 00139FE5 		ldr	r1, .L2402+48
 9450 7dc8 A1FFFFEA 		b	.L2115
 9451              	.L2378:
 9452 7dcc 9CD08DE2 		add	sp, sp, #156
 9453              		@ sp needed
 9454 7dd0 F08FBDE8 		pop	{r4, r5, r6, r7, r8, r9, r10, fp, pc}
 9455              	.L2176:
 9456 7dd4 F4129FE5 		ldr	r1, .L2402+52
 9457 7dd8 7BFFFFEA 		b	.L2108
 9458              	.L2197:
 9459 7ddc EC129FE5 		ldr	r1, .L2402+52
 9460 7de0 3CFFFFEA 		b	.L2124
 9461              	.L2208:
 9462 7de4 E4129FE5 		ldr	r1, .L2402+52
ARM GAS  C:\Users\ldebo\AppData\Local\Temp\ccISOhOE.s 			page 167


 9463 7de8 FFFEFFEA 		b	.L2133
 9464              	.L2396:
 9465 7dec F4129FE5 		ldr	r1, .L2402+76
 9466 7df0 59FEFFEA 		b	.L2095
 9467              	.L2168:
 9468 7df4 F0129FE5 		ldr	r1, .L2402+80
 9469 7df8 57FEFFEA 		b	.L2095
 9470              	.L2125:
 9471 7dfc F63F8AE2 		add	r3, r10, #984
 9472 7e00 B230D3E1 		ldrh	r3, [r3, #2]
 9473 7e04 210E53E3 		cmp	r3, #528
 9474 7e08 8500000A 		beq	.L2200
 9475 7e0c 020C53E3 		cmp	r3, #512
 9476 7e10 9100000A 		beq	.L2201
 9477 7e14 110E53E3 		cmp	r3, #272
 9478 7e18 9300000A 		beq	.L2202
 9479 7e1c B0129FE5 		ldr	r1, .L2402+56
 9480 7e20 010C53E3 		cmp	r3, #256
 9481 7e24 102041E2 		sub	r2, r1, #16
 9482 7e28 0210A001 		moveq	r1, r2
 9483 7e2c 29FFFFEA 		b	.L2124
 9484              	.L2393:
 9485 7e30 040053E3 		cmp	r3, #4
 9486 7e34 9C129F15 		ldrne	r1, .L2402+60
 9487 7e38 26FFFF1A 		bne	.L2124
 9488 7e3c 060000EA 		b	.L2160
 9489              	.L2126:
 9490 7e40 94229FE5 		ldr	r2, .L2402+64
 9491 7e44 E0139AE5 		ldr	r1, [r10, #992]
 9492 7e48 020051E1 		cmp	r1, r2
 9493 7e4c 7800000A 		beq	.L2398
 9494 7e50 040053E3 		cmp	r3, #4
 9495 7e54 84129F15 		ldrne	r1, .L2402+68
 9496 7e58 1EFFFF1A 		bne	.L2124
 9497              	.L2160:
 9498 7e5c 0A00A0E1 		mov	r0, r10
 9499 7e60 66E0FFEB 		bl	UsbGetDescription.part.2
 9500 7e64 0010A0E1 		mov	r1, r0
 9501 7e68 1AFFFFEA 		b	.L2124
 9502              	.L2109:
 9503 7e6c F63F8AE2 		add	r3, r10, #984
 9504 7e70 B230D3E1 		ldrh	r3, [r3, #2]
 9505 7e74 210E53E3 		cmp	r3, #528
 9506 7e78 6F00000A 		beq	.L2179
 9507 7e7c 020C53E3 		cmp	r3, #512
 9508 7e80 7100000A 		beq	.L2180
 9509 7e84 110E53E3 		cmp	r3, #272
 9510 7e88 7500000A 		beq	.L2181
 9511 7e8c 40129FE5 		ldr	r1, .L2402+56
 9512 7e90 010C53E3 		cmp	r3, #256
 9513 7e94 102041E2 		sub	r2, r1, #16
 9514 7e98 0210A001 		moveq	r1, r2
 9515 7e9c 4AFFFFEA 		b	.L2108
 9516              	.L2392:
 9517 7ea0 040053E3 		cmp	r3, #4
 9518 7ea4 2C129F15 		ldrne	r1, .L2402+60
 9519 7ea8 CFFEFF1A 		bne	.L2133
ARM GAS  C:\Users\ldebo\AppData\Local\Temp\ccISOhOE.s 			page 168


 9520 7eac 170000EA 		b	.L2161
 9521              	.L2134:
 9522 7eb0 F63F8AE2 		add	r3, r10, #984
 9523 7eb4 B230D3E1 		ldrh	r3, [r3, #2]
 9524 7eb8 210E53E3 		cmp	r3, #528
 9525 7ebc 5600000A 		beq	.L2211
 9526 7ec0 020C53E3 		cmp	r3, #512
 9527 7ec4 6200000A 		beq	.L2212
 9528 7ec8 110E53E3 		cmp	r3, #272
 9529 7ecc 6800000A 		beq	.L2213
 9530 7ed0 FC119FE5 		ldr	r1, .L2402+56
 9531 7ed4 010C53E3 		cmp	r3, #256
 9532 7ed8 102041E2 		sub	r2, r1, #16
 9533 7edc 0210A001 		moveq	r1, r2
 9534 7ee0 C1FEFFEA 		b	.L2133
 9535              	.L2394:
 9536 7ee4 040053E3 		cmp	r3, #4
 9537 7ee8 E8119F15 		ldrne	r1, .L2402+60
 9538 7eec 36FFFF1A 		bne	.L2108
 9539 7ef0 110000EA 		b	.L2158
 9540              	.L2135:
 9541 7ef4 E0219FE5 		ldr	r2, .L2402+64
 9542 7ef8 E0139AE5 		ldr	r1, [r10, #992]
 9543 7efc 020051E1 		cmp	r1, r2
 9544 7f00 4300000A 		beq	.L2399
 9545 7f04 040053E3 		cmp	r3, #4
 9546 7f08 D0119F15 		ldrne	r1, .L2402+68
 9547 7f0c B6FEFF1A 		bne	.L2133
 9548              	.L2161:
 9549 7f10 0A00A0E1 		mov	r0, r10
 9550 7f14 39E0FFEB 		bl	UsbGetDescription.part.2
 9551 7f18 0010A0E1 		mov	r1, r0
 9552 7f1c B2FEFFEA 		b	.L2133
 9553              	.L2110:
 9554 7f20 B4219FE5 		ldr	r2, .L2402+64
 9555 7f24 E0139AE5 		ldr	r1, [r10, #992]
 9556 7f28 020051E1 		cmp	r1, r2
 9557 7f2c 4400000A 		beq	.L2400
 9558 7f30 040053E3 		cmp	r3, #4
 9559 7f34 A4119F15 		ldrne	r1, .L2402+68
 9560 7f38 23FFFF1A 		bne	.L2108
 9561              	.L2158:
 9562 7f3c 0A00A0E1 		mov	r0, r10
 9563 7f40 2EE0FFEB 		bl	UsbGetDescription.part.2
 9564 7f44 0010A0E1 		mov	r1, r0
 9565 7f48 1FFFFFEA 		b	.L2108
 9566              	.L2169:
 9567 7f4c 9C119FE5 		ldr	r1, .L2402+84
 9568 7f50 01FEFFEA 		b	.L2095
 9569              	.L2220:
 9570 7f54 88119FE5 		ldr	r1, .L2402+72
 9571 7f58 68FEFFEA 		b	.L2140
 9572              	.L2170:
 9573 7f5c 90119FE5 		ldr	r1, .L2402+88
 9574 7f60 FDFDFFEA 		b	.L2095
 9575              	.L2186:
 9576 7f64 64119FE5 		ldr	r1, .L2402+52
ARM GAS  C:\Users\ldebo\AppData\Local\Temp\ccISOhOE.s 			page 169


 9577 7f68 39FFFFEA 		b	.L2115
 9578              	.L2209:
 9579 7f6c 70119FE5 		ldr	r1, .L2402+72
 9580 7f70 9DFEFFEA 		b	.L2133
 9581              	.L2198:
 9582 7f74 68119FE5 		ldr	r1, .L2402+72
 9583 7f78 D6FEFFEA 		b	.L2124
 9584              	.L2177:
 9585 7f7c 60119FE5 		ldr	r1, .L2402+72
 9586 7f80 11FFFFEA 		b	.L2108
 9587              	.L2395:
 9588 7f84 040053E3 		cmp	r3, #4
 9589 7f88 48119F15 		ldrne	r1, .L2402+60
 9590 7f8c 30FFFF1A 		bne	.L2115
 9591 7f90 060000EA 		b	.L2159
 9592              	.L2117:
 9593 7f94 40219FE5 		ldr	r2, .L2402+64
 9594 7f98 E0139AE5 		ldr	r1, [r10, #992]
 9595 7f9c 020051E1 		cmp	r1, r2
 9596 7fa0 3500000A 		beq	.L2401
 9597 7fa4 040053E3 		cmp	r3, #4
 9598 7fa8 30119F15 		ldrne	r1, .L2402+68
 9599 7fac 28FFFF1A 		bne	.L2115
 9600              	.L2159:
 9601 7fb0 0A00A0E1 		mov	r0, r10
 9602 7fb4 11E0FFEB 		bl	UsbGetDescription.part.2
 9603 7fb8 0010A0E1 		mov	r1, r0
 9604 7fbc 24FFFFEA 		b	.L2115
 9605              	.L2116:
 9606 7fc0 F63F8AE2 		add	r3, r10, #984
 9607 7fc4 B230D3E1 		ldrh	r3, [r3, #2]
 9608 7fc8 210E53E3 		cmp	r3, #528
 9609 7fcc 2C00000A 		beq	.L2189
 9610 7fd0 020C53E3 		cmp	r3, #512
 9611 7fd4 2E00000A 		beq	.L2190
 9612 7fd8 110E53E3 		cmp	r3, #272
 9613 7fdc 2A00000A 		beq	.L2191
 9614 7fe0 EC109FE5 		ldr	r1, .L2402+56
 9615 7fe4 010C53E3 		cmp	r3, #256
 9616 7fe8 102041E2 		sub	r2, r1, #16
 9617 7fec 0210A001 		moveq	r1, r2
 9618 7ff0 17FFFFEA 		b	.L2115
 9619              	.L2222:
 9620 7ff4 F0109FE5 		ldr	r1, .L2402+80
 9621 7ff8 40FEFFEA 		b	.L2140
 9622              	.L2397:
 9623 7ffc E4109FE5 		ldr	r1, .L2402+76
 9624 8000 3EFEFFEA 		b	.L2140
 9625              	.L2223:
 9626 8004 E4109FE5 		ldr	r1, .L2402+84
 9627 8008 3CFEFFEA 		b	.L2140
 9628              	.L2224:
 9629 800c E0109FE5 		ldr	r1, .L2402+88
 9630 8010 3AFEFFEA 		b	.L2140
 9631              	.L2399:
 9632 8014 CC109FE5 		ldr	r1, .L2402+76
 9633 8018 73FEFFEA 		b	.L2133
ARM GAS  C:\Users\ldebo\AppData\Local\Temp\ccISOhOE.s 			page 170


 9634              	.L2211:
 9635 801c C8109FE5 		ldr	r1, .L2402+80
 9636 8020 71FEFFEA 		b	.L2133
 9637              	.L2200:
 9638 8024 C0109FE5 		ldr	r1, .L2402+80
 9639 8028 AAFEFFEA 		b	.L2124
 9640              	.L2187:
 9641 802c B0109FE5 		ldr	r1, .L2402+72
 9642 8030 07FFFFEA 		b	.L2115
 9643              	.L2398:
 9644 8034 AC109FE5 		ldr	r1, .L2402+76
 9645 8038 A6FEFFEA 		b	.L2124
 9646              	.L2179:
 9647 803c A8109FE5 		ldr	r1, .L2402+80
 9648 8040 E1FEFFEA 		b	.L2108
 9649              	.L2400:
 9650 8044 9C109FE5 		ldr	r1, .L2402+76
 9651 8048 DFFEFFEA 		b	.L2108
 9652              	.L2180:
 9653 804c 9C109FE5 		ldr	r1, .L2402+84
 9654 8050 DDFEFFEA 		b	.L2108
 9655              	.L2212:
 9656 8054 94109FE5 		ldr	r1, .L2402+84
 9657 8058 63FEFFEA 		b	.L2133
 9658              	.L2201:
 9659 805c 8C109FE5 		ldr	r1, .L2402+84
 9660 8060 9CFEFFEA 		b	.L2124
 9661              	.L2181:
 9662 8064 88109FE5 		ldr	r1, .L2402+88
 9663 8068 D7FEFFEA 		b	.L2108
 9664              	.L2202:
 9665 806c 80109FE5 		ldr	r1, .L2402+88
 9666 8070 98FEFFEA 		b	.L2124
 9667              	.L2213:
 9668 8074 78109FE5 		ldr	r1, .L2402+88
 9669 8078 5BFEFFEA 		b	.L2133
 9670              	.L2401:
 9671 807c 64109FE5 		ldr	r1, .L2402+76
 9672 8080 F3FEFFEA 		b	.L2115
 9673              	.L2189:
 9674 8084 60109FE5 		ldr	r1, .L2402+80
 9675 8088 F1FEFFEA 		b	.L2115
 9676              	.L2191:
 9677 808c 60109FE5 		ldr	r1, .L2402+88
 9678 8090 EFFEFFEA 		b	.L2115
 9679              	.L2190:
 9680 8094 54109FE5 		ldr	r1, .L2402+84
 9681 8098 EDFEFFEA 		b	.L2115
 9682              	.L2403:
 9683              		.align	2
 9684              	.L2402:
 9685 809c 00000000 		.word	.LANCHOR1
 9686 80a0 68050000 		.word	.LC58
 9687 80a4 D4010000 		.word	.LANCHOR0+468
 9688 80a8 50110000 		.word	.LC116
 9689 80ac D0050000 		.word	.LC59
 9690 80b0 88110000 		.word	.LC117
ARM GAS  C:\Users\ldebo\AppData\Local\Temp\ccISOhOE.s 			page 171


 9691 80b4 04060000 		.word	.LC60
 9692 80b8 A8120000 		.word	.LC122
 9693 80bc 70120000 		.word	.LC121
 9694 80c0 3C120000 		.word	.LC120
 9695 80c4 A8110000 		.word	.LC118
 9696 80c8 D8110000 		.word	.LC119
 9697 80cc 5C020000 		.word	.LANCHOR0+604
 9698 80d0 74020000 		.word	.LANCHOR0+628
 9699 80d4 E4000000 		.word	.LANCHOR0+228
 9700 80d8 B0020000 		.word	.LANCHOR0+688
 9701 80dc 240400EC 		.word	-335543260
 9702 80e0 C0010000 		.word	.LANCHOR0+448
 9703 80e4 90020000 		.word	.LANCHOR0+656
 9704 80e8 A0020000 		.word	.LANCHOR0+672
 9705 80ec A4000000 		.word	.LANCHOR0+164
 9706 80f0 B4000000 		.word	.LANCHOR0+180
 9707 80f4 C4000000 		.word	.LANCHOR0+196
 9708              		.size	HubCheckForChange, .-HubCheckForChange
 9709              		.align	2
 9710              		.global	UsbCheckForChange
 9711              		.syntax unified
 9712              		.arm
 9713              		.fpu vfp
 9714              		.type	UsbCheckForChange, %function
 9715              	UsbCheckForChange:
 9716              		@ args = 0, pretend = 0, frame = 104
 9717              		@ frame_needed = 0, uses_anonymous_args = 0
 9718 80f8 F04F2DE9 		push	{r4, r5, r6, r7, r8, r9, r10, fp, lr}
 9719 80fc 20B69FE5 		ldr	fp, .L2539
 9720 8100 7CD04DE2 		sub	sp, sp, #124
 9721 8104 363ADBE5 		ldrb	r3, [fp, #2614]	@ zero_extendqisi2
 9722 8108 000053E3 		cmp	r3, #0
 9723 810c 0100001A 		bne	.L2534
 9724              	.L2404:
 9725 8110 7CD08DE2 		add	sp, sp, #124
 9726              		@ sp needed
 9727 8114 F08FBDE8 		pop	{r4, r5, r6, r7, r8, r9, r10, fp, pc}
 9728              	.L2534:
 9729 8118 5166DBE5 		ldrb	r6, [fp, #1617]	@ zero_extendqisi2
 9730 811c 013046E2 		sub	r3, r6, #1
 9731 8120 7320EFE6 		uxtb	r2, r3
 9732 8124 1F0052E3 		cmp	r2, #31
 9733 8128 F8FFFF8A 		bhi	.L2404
 9734 812c 032363E0 		rsb	r2, r3, r3, lsl #6
 9735 8130 02228BE0 		add	r2, fp, r2, lsl #4
 9736 8134 361AD2E5 		ldrb	r1, [r2, #2614]	@ zero_extendqisi2
 9737 8138 020051E3 		cmp	r1, #2
 9738 813c F3FFFF1A 		bne	.L2404
 9739 8140 382A92E5 		ldr	r2, [r2, #2616]
 9740 8144 000052E3 		cmp	r2, #0
 9741 8148 F0FFFF0A 		beq	.L2404
 9742 814c 38AA9BE5 		ldr	r10, [fp, #2616]
 9743 8150 00209AE5 		ldr	r2, [r10]
 9744 8154 000052E3 		cmp	r2, #0
 9745 8158 ECFFFF0A 		beq	.L2404
 9746 815c 0120A0E3 		mov	r2, #1
 9747 8160 10208DE5 		str	r2, [sp, #16]
ARM GAS  C:\Users\ldebo\AppData\Local\Temp\ccISOhOE.s 			page 172


 9748 8164 192D8BE2 		add	r2, fp, #1600
 9749 8168 0C2082E2 		add	r2, r2, #12
 9750 816c 0080A0E3 		mov	r8, #0
 9751 8170 18208DE5 		str	r2, [sp, #24]
 9752 8174 090000EA 		b	.L2447
 9753              	.L2532:
 9754 8178 38AA9BE5 		ldr	r10, [fp, #2616]
 9755              	.L2446:
 9756 817c 00309AE5 		ldr	r3, [r10]
 9757 8180 018088E2 		add	r8, r8, #1
 9758 8184 080053E1 		cmp	r3, r8
 9759 8188 10309DE5 		ldr	r3, [sp, #16]
 9760 818c 013083E2 		add	r3, r3, #1
 9761 8190 10308DE5 		str	r3, [sp, #16]
 9762 8194 DDFFFF9A 		bls	.L2404
 9763 8198 5166DBE5 		ldrb	r6, [fp, #1617]	@ zero_extendqisi2
 9764 819c 013046E2 		sub	r3, r6, #1
 9765              	.L2447:
 9766 81a0 7320EFE6 		uxtb	r2, r3
 9767 81a4 1F0052E3 		cmp	r2, #31
 9768 81a8 7820EFE6 		uxtb	r2, r8
 9769 81ac 14208DE5 		str	r2, [sp, #20]
 9770 81b0 F0FFFF8A 		bhi	.L2532
 9771 81b4 033363E0 		rsb	r3, r3, r3, lsl #6
 9772 81b8 03328BE0 		add	r3, fp, r3, lsl #4
 9773 81bc 362AD3E5 		ldrb	r2, [r3, #2614]	@ zero_extendqisi2
 9774 81c0 020052E3 		cmp	r2, #2
 9775 81c4 EBFFFF1A 		bne	.L2532
 9776 81c8 383A93E5 		ldr	r3, [r3, #2616]
 9777 81cc 000053E3 		cmp	r3, #0
 9778 81d0 E8FFFF0A 		beq	.L2532
 9779 81d4 0410A0E3 		mov	r1, #4
 9780 81d8 10209DE5 		ldr	r2, [sp, #16]
 9781 81dc 0030A0E3 		mov	r3, #0
 9782 81e0 FF5012E2 		ands	r5, r2, #255
 9783 81e4 0AE0A0E3 		mov	lr, #10
 9784 81e8 01C0A0E1 		mov	ip, r1
 9785 81ec A320A013 		movne	r2, #163
 9786 81f0 A020A003 		moveq	r2, #160
 9787 81f4 50069BE5 		ldr	r0, [fp, #1616]
 9788 81f8 5046DBE5 		ldrb	r4, [fp, #1616]	@ zero_extendqisi2
 9789 81fc 2C308DE5 		str	r3, [sp, #44]
 9790 8200 20008DE5 		str	r0, [sp, #32]
 9791 8204 2D10CDE5 		strb	r1, [sp, #45]
 9792 8208 2160CDE5 		strb	r6, [sp, #33]
 9793 820c 50708DE2 		add	r7, sp, #80
 9794 8210 04E08DE5 		str	lr, [sp, #4]
 9795 8214 24E08DE2 		add	lr, sp, #36
 9796 8218 50308DE5 		str	r3, [sp, #80]
 9797 821c 00708DE5 		str	r7, [sp]
 9798 8220 08E08DE5 		str	lr, [sp, #8]
 9799 8224 24308DE5 		str	r3, [sp, #36]
 9800 8228 75E0FFE6 		uxth	lr, r5
 9801 822c 5020CDE5 		strb	r2, [sp, #80]
 9802 8230 2C109DE5 		ldr	r1, [sp, #44]
 9803 8234 20009DE5 		ldr	r0, [sp, #32]
 9804 8238 0C30A0E1 		mov	r3, ip
ARM GAS  C:\Users\ldebo\AppData\Local\Temp\ccISOhOE.s 			page 173


 9805 823c 28208DE2 		add	r2, sp, #40
 9806 8240 14E08DE5 		str	lr, [sp, #20]
 9807 8244 B4E5CDE1 		strh	lr, [sp, #84]	@ movhi
 9808 8248 B6C5CDE1 		strh	ip, [sp, #86]	@ movhi
 9809 824c FEFFFFEB 		bl	HCDSubmitControlMessage
 9810 8250 2471A0E1 		lsr	r7, r4, #2
 9811 8254 009050E2 		subs	r9, r0, #0
 9812 8258 037007E2 		and	r7, r7, #3
 9813 825c 034004E2 		and	r4, r4, #3
 9814 8260 1B00000A 		beq	.L2411
 9815 8264 00A09BE5 		ldr	r10, [fp]
 9816 8268 00005AE3 		cmp	r10, #0
 9817 826c 0600000A 		beq	.L2412
 9818 8270 04408DE5 		str	r4, [sp, #4]
 9819 8274 00708DE5 		str	r7, [sp]
 9820 8278 0520A0E1 		mov	r2, r5
 9821 827c 0610A0E1 		mov	r1, r6
 9822 8280 0930A0E1 		mov	r3, r9
 9823 8284 9C049FE5 		ldr	r0, .L2539+4
 9824 8288 3AFF2FE1 		blx	r10
 9825              	.L2412:
 9826 828c 0B0079E3 		cmn	r9, #11
 9827 8290 00309B15 		ldrne	r3, [fp]
 9828 8294 B7FFFF0A 		beq	.L2532
 9829              	.L2415:
 9830 8298 000053E3 		cmp	r3, #0
 9831 829c B5FFFF0A 		beq	.L2532
 9832 82a0 5616DBE5 		ldrb	r1, [fp, #1622]	@ zero_extendqisi2
 9833 82a4 000051E3 		cmp	r1, #0
 9834 82a8 1101000A 		beq	.L2453
 9835 82ac 78249FE5 		ldr	r2, .L2539+8
 9836 82b0 010051E3 		cmp	r1, #1
 9837 82b4 1C0042E2 		sub	r0, r2, #28
 9838 82b8 0020A001 		moveq	r2, r0
 9839 82bc 0210A0E1 		mov	r1, r2
 9840              	.L2419:
 9841 82c0 7820EFE6 		uxtb	r2, r8
 9842 82c4 012082E2 		add	r2, r2, #1
 9843 82c8 60049FE5 		ldr	r0, .L2539+12
 9844 82cc 33FF2FE1 		blx	r3
 9845 82d0 A8FFFFEA 		b	.L2532
 9846              	.L2411:
 9847 82d4 24309DE5 		ldr	r3, [sp, #36]
 9848 82d8 030053E3 		cmp	r3, #3
 9849 82dc 0800008A 		bhi	.L2413
 9850 82e0 00309BE5 		ldr	r3, [fp]
 9851 82e4 000053E3 		cmp	r3, #0
 9852 82e8 A2FFFF0A 		beq	.L2532
 9853 82ec 0520A0E1 		mov	r2, r5
 9854 82f0 0610A0E1 		mov	r1, r6
 9855 82f4 38049FE5 		ldr	r0, .L2539+16
 9856 82f8 33FF2FE1 		blx	r3
 9857 82fc 00309BE5 		ldr	r3, [fp]
 9858 8300 E4FFFFEA 		b	.L2415
 9859              	.L2413:
 9860 8304 28609DE5 		ldr	r6, [sp, #40]
 9861 8308 2648A0E1 		lsr	r4, r6, #16
ARM GAS  C:\Users\ldebo\AppData\Local\Temp\ccISOhOE.s 			page 174


 9862 830c 7440EFE6 		uxtb	r4, r4
 9863 8310 010014E3 		tst	r4, #1
 9864 8314 0900000A 		beq	.L2417
 9865 8318 04309BE5 		ldr	r3, [fp, #4]
 9866 831c 000053E3 		cmp	r3, #0
 9867 8320 0300000A 		beq	.L2421
 9868 8324 7820EFE6 		uxtb	r2, r8
 9869 8328 5116DBE5 		ldrb	r1, [fp, #1617]	@ zero_extendqisi2
 9870 832c 04049FE5 		ldr	r0, .L2539+20
 9871 8330 33FF2FE1 		blx	r3
 9872              	.L2421:
 9873 8334 7810EFE6 		uxtb	r1, r8
 9874 8338 18009DE5 		ldr	r0, [sp, #24]
 9875 833c FEFFFFEB 		bl	HubPortConnectionChanged
 9876              	.L2417:
 9877 8340 020014E3 		tst	r4, #2
 9878 8344 7660EF06 		uxtbeq	r6, r6
 9879 8348 6C00001A 		bne	.L2535
 9880              	.L2423:
 9881 834c 040016E3 		tst	r6, #4
 9882 8350 B700001A 		bne	.L2536
 9883              	.L2433:
 9884 8354 080014E3 		tst	r4, #8
 9885 8358 3800001A 		bne	.L2537
 9886              	.L2438:
 9887 835c 100014E3 		tst	r4, #16
 9888 8360 0600001A 		bne	.L2538
 9889              	.L2445:
 9890 8364 38AA9BE5 		ldr	r10, [fp, #2616]
 9891 8368 08318AE0 		add	r3, r10, r8, lsl #2
 9892 836c 040093E5 		ldr	r0, [r3, #4]
 9893 8370 000050E3 		cmp	r0, #0
 9894 8374 80FFFF0A 		beq	.L2446
 9895 8378 FEFFFFEB 		bl	HubCheckForChange
 9896 837c 7DFFFFEA 		b	.L2532
 9897              	.L2538:
 9898 8380 0040A0E3 		mov	r4, #0
 9899 8384 040055E1 		cmp	r5, r4
 9900 8388 20C0A003 		moveq	ip, #32
 9901 838c 23C0A013 		movne	ip, #35
 9902 8390 0130A0E3 		mov	r3, #1
 9903 8394 1470A0E3 		mov	r7, #20
 9904 8398 50269BE5 		ldr	r2, [fp, #1616]
 9905 839c 5166DBE5 		ldrb	r6, [fp, #1617]	@ zero_extendqisi2
 9906 83a0 B411DDE1 		ldrh	r1, [sp, #20]
 9907 83a4 48208DE5 		str	r2, [sp, #72]
 9908 83a8 4960CDE5 		strb	r6, [sp, #73]
 9909 83ac 74408DE5 		str	r4, [sp, #116]
 9910 83b0 48009DE5 		ldr	r0, [sp, #72]
 9911 83b4 B417CDE1 		strh	r1, [sp, #116]	@ movhi
 9912 83b8 70208DE2 		add	r2, sp, #112
 9913 83bc 0410A0E1 		mov	r1, r4
 9914 83c0 4C408DE5 		str	r4, [sp, #76]
 9915 83c4 70C0CDE5 		strb	ip, [sp, #112]
 9916 83c8 7130CDE5 		strb	r3, [sp, #113]
 9917 83cc B277CDE1 		strh	r7, [sp, #114]	@ movhi
 9918 83d0 DCE5FFEB 		bl	HCDSubmitControlMessage.constprop.6
ARM GAS  C:\Users\ldebo\AppData\Local\Temp\ccISOhOE.s 			page 175


 9919 83d4 040050E1 		cmp	r0, r4
 9920 83d8 E1FFFF0A 		beq	.L2445
 9921 83dc 00909BE5 		ldr	r9, [fp]
 9922 83e0 040059E1 		cmp	r9, r4
 9923 83e4 DEFFFF0A 		beq	.L2445
 9924 83e8 0730A0E1 		mov	r3, r7
 9925 83ec 00408DE5 		str	r4, [sp]
 9926 83f0 0520A0E1 		mov	r2, r5
 9927 83f4 0610A0E1 		mov	r1, r6
 9928 83f8 3C039FE5 		ldr	r0, .L2539+24
 9929 83fc 39FF2FE1 		blx	r9
 9930 8400 00309BE5 		ldr	r3, [fp]
 9931 8404 040053E1 		cmp	r3, r4
 9932 8408 D5FFFF0A 		beq	.L2445
 9933 840c 5616DBE5 		ldrb	r1, [fp, #1622]	@ zero_extendqisi2
 9934 8410 040051E1 		cmp	r1, r4
 9935 8414 B800000A 		beq	.L2467
 9936 8418 0C239FE5 		ldr	r2, .L2539+8
 9937 841c 010051E3 		cmp	r1, #1
 9938 8420 1C0042E2 		sub	r0, r2, #28
 9939 8424 0020A001 		moveq	r2, r0
 9940 8428 0210A0E1 		mov	r1, r2
 9941              	.L2444:
 9942 842c 7820EFE6 		uxtb	r2, r8
 9943 8430 012082E2 		add	r2, r2, #1
 9944 8434 04039FE5 		ldr	r0, .L2539+28
 9945 8438 33FF2FE1 		blx	r3
 9946 843c C8FFFFEA 		b	.L2445
 9947              	.L2537:
 9948 8440 0090A0E3 		mov	r9, #0
 9949 8444 090055E1 		cmp	r5, r9
 9950 8448 20C0A003 		moveq	ip, #32
 9951 844c 23C0A013 		movne	ip, #35
 9952 8450 0130A0E3 		mov	r3, #1
 9953 8454 13A0A0E3 		mov	r10, #19
 9954 8458 50269BE5 		ldr	r2, [fp, #1616]
 9955 845c 5166DBE5 		ldrb	r6, [fp, #1617]	@ zero_extendqisi2
 9956 8460 40208DE5 		str	r2, [sp, #64]
 9957 8464 B4E1DDE1 		ldrh	lr, [sp, #20]
 9958 8468 4160CDE5 		strb	r6, [sp, #65]
 9959 846c 40009DE5 		ldr	r0, [sp, #64]
 9960 8470 68208DE2 		add	r2, sp, #104
 9961 8474 0910A0E1 		mov	r1, r9
 9962 8478 6C908DE5 		str	r9, [sp, #108]
 9963 847c 44908DE5 		str	r9, [sp, #68]
 9964 8480 BCE6CDE1 		strh	lr, [sp, #108]	@ movhi
 9965 8484 68C0CDE5 		strb	ip, [sp, #104]
 9966 8488 6930CDE5 		strb	r3, [sp, #105]
 9967 848c BAA6CDE1 		strh	r10, [sp, #106]	@ movhi
 9968 8490 ACE5FFEB 		bl	HCDSubmitControlMessage.constprop.6
 9969 8494 090050E1 		cmp	r0, r9
 9970 8498 AFFFFF0A 		beq	.L2438
 9971 849c 00709BE5 		ldr	r7, [fp]
 9972 84a0 090057E1 		cmp	r7, r9
 9973 84a4 ACFFFF0A 		beq	.L2438
 9974 84a8 0A30A0E1 		mov	r3, r10
 9975 84ac 00908DE5 		str	r9, [sp]
ARM GAS  C:\Users\ldebo\AppData\Local\Temp\ccISOhOE.s 			page 176


 9976 84b0 0610A0E1 		mov	r1, r6
 9977 84b4 0520A0E1 		mov	r2, r5
 9978 84b8 7C029FE5 		ldr	r0, .L2539+24
 9979 84bc 37FF2FE1 		blx	r7
 9980 84c0 00309BE5 		ldr	r3, [fp]
 9981 84c4 090053E1 		cmp	r3, r9
 9982 84c8 A3FFFF0A 		beq	.L2438
 9983 84cc 5616DBE5 		ldrb	r1, [fp, #1622]	@ zero_extendqisi2
 9984 84d0 090051E1 		cmp	r1, r9
 9985 84d4 8C00000A 		beq	.L2464
 9986 84d8 4C229FE5 		ldr	r2, .L2539+8
 9987 84dc 010051E3 		cmp	r1, #1
 9988 84e0 1C0042E2 		sub	r0, r2, #28
 9989 84e4 0020A001 		moveq	r2, r0
 9990 84e8 0210A0E1 		mov	r1, r2
 9991              	.L2441:
 9992 84ec 7820EFE6 		uxtb	r2, r8
 9993 84f0 012082E2 		add	r2, r2, #1
 9994 84f4 48029FE5 		ldr	r0, .L2539+32
 9995 84f8 33FF2FE1 		blx	r3
 9996 84fc 96FFFFEA 		b	.L2438
 9997              	.L2535:
 9998 8500 0030A0E3 		mov	r3, #0
 9999 8504 030055E1 		cmp	r5, r3
 10000 8508 20E0A003 		moveq	lr, #32
 10001 850c 23E0A013 		movne	lr, #35
 10002 8510 01C0A0E3 		mov	ip, #1
 10003 8514 1190A0E3 		mov	r9, #17
 10004 8518 50269BE5 		ldr	r2, [fp, #1616]
 10005 851c 5176DBE5 		ldrb	r7, [fp, #1617]	@ zero_extendqisi2
 10006 8520 30208DE5 		str	r2, [sp, #48]
 10007 8524 5C308DE5 		str	r3, [sp, #92]
 10008 8528 3170CDE5 		strb	r7, [sp, #49]
 10009 852c 34308DE5 		str	r3, [sp, #52]
 10010 8530 0310A0E1 		mov	r1, r3
 10011 8534 1C308DE5 		str	r3, [sp, #28]
 10012 8538 B431DDE1 		ldrh	r3, [sp, #20]
 10013 853c 30009DE5 		ldr	r0, [sp, #48]
 10014 8540 58208DE2 		add	r2, sp, #88
 10015 8544 BC35CDE1 		strh	r3, [sp, #92]	@ movhi
 10016 8548 58E0CDE5 		strb	lr, [sp, #88]
 10017 854c 59C0CDE5 		strb	ip, [sp, #89]
 10018 8550 BA95CDE1 		strh	r9, [sp, #90]	@ movhi
 10019 8554 7BE5FFEB 		bl	HCDSubmitControlMessage.constprop.6
 10020 8558 000050E3 		cmp	r0, #0
 10021 855c 1800000A 		beq	.L2426
 10022 8560 00309BE5 		ldr	r3, [fp]
 10023 8564 00C053E2 		subs	ip, r3, #0
 10024 8568 1500000A 		beq	.L2426
 10025 856c 1C309DE5 		ldr	r3, [sp, #28]
 10026 8570 0710A0E1 		mov	r1, r7
 10027 8574 00308DE5 		str	r3, [sp]
 10028 8578 0520A0E1 		mov	r2, r5
 10029 857c 0930A0E1 		mov	r3, r9
 10030 8580 B4019FE5 		ldr	r0, .L2539+24
 10031 8584 3CFF2FE1 		blx	ip
 10032 8588 00309BE5 		ldr	r3, [fp]
ARM GAS  C:\Users\ldebo\AppData\Local\Temp\ccISOhOE.s 			page 177


 10033 858c 000053E3 		cmp	r3, #0
 10034 8590 0B00000A 		beq	.L2426
 10035 8594 5616DBE5 		ldrb	r1, [fp, #1622]	@ zero_extendqisi2
 10036 8598 000051E3 		cmp	r1, #0
 10037 859c 5800000A 		beq	.L2456
 10038 85a0 84219FE5 		ldr	r2, .L2539+8
 10039 85a4 010051E3 		cmp	r1, #1
 10040 85a8 1C0042E2 		sub	r0, r2, #28
 10041 85ac 0020A001 		moveq	r2, r0
 10042 85b0 0210A0E1 		mov	r1, r2
 10043              	.L2428:
 10044 85b4 7820EFE6 		uxtb	r2, r8
 10045 85b8 012082E2 		add	r2, r2, #1
 10046 85bc 84019FE5 		ldr	r0, .L2539+36
 10047 85c0 33FF2FE1 		blx	r3
 10048              	.L2426:
 10049 85c4 020016E3 		tst	r6, #2
 10050 85c8 7660EFE6 		uxtb	r6, r6
 10051 85cc 5EFFFF1A 		bne	.L2423
 10052 85d0 010016E3 		tst	r6, #1
 10053 85d4 5CFFFF0A 		beq	.L2423
 10054 85d8 7830EFE6 		uxtb	r3, r8
 10055 85dc 03A18AE0 		add	r10, r10, r3, lsl #2
 10056 85e0 04309AE5 		ldr	r3, [r10, #4]
 10057 85e4 000053E3 		cmp	r3, #0
 10058 85e8 57FFFF0A 		beq	.L2423
 10059 85ec 00309BE5 		ldr	r3, [fp]
 10060 85f0 000053E3 		cmp	r3, #0
 10061 85f4 0A00000A 		beq	.L2430
 10062 85f8 5626DBE5 		ldrb	r2, [fp, #1622]	@ zero_extendqisi2
 10063 85fc 000052E3 		cmp	r2, #0
 10064 8600 4500000A 		beq	.L2458
 10065 8604 20119FE5 		ldr	r1, .L2539+8
 10066 8608 010052E3 		cmp	r2, #1
 10067 860c 1C0041E2 		sub	r0, r1, #28
 10068 8610 0010A001 		moveq	r1, r0
 10069              	.L2431:
 10070 8614 7820EFE6 		uxtb	r2, r8
 10071 8618 012082E2 		add	r2, r2, #1
 10072 861c 28019FE5 		ldr	r0, .L2539+40
 10073 8620 33FF2FE1 		blx	r3
 10074              	.L2430:
 10075 8624 7810EFE6 		uxtb	r1, r8
 10076 8628 18009DE5 		ldr	r0, [sp, #24]
 10077 862c FEFFFFEB 		bl	HubPortConnectionChanged
 10078 8630 45FFFFEA 		b	.L2423
 10079              	.L2536:
 10080 8634 0090A0E3 		mov	r9, #0
 10081 8638 090055E1 		cmp	r5, r9
 10082 863c 20C0A003 		moveq	ip, #32
 10083 8640 23C0A013 		movne	ip, #35
 10084 8644 0130A0E3 		mov	r3, #1
 10085 8648 02A0A0E3 		mov	r10, #2
 10086 864c 50269BE5 		ldr	r2, [fp, #1616]
 10087 8650 5166DBE5 		ldrb	r6, [fp, #1617]	@ zero_extendqisi2
 10088 8654 38208DE5 		str	r2, [sp, #56]
 10089 8658 B4E1DDE1 		ldrh	lr, [sp, #20]
ARM GAS  C:\Users\ldebo\AppData\Local\Temp\ccISOhOE.s 			page 178


 10090 865c 3960CDE5 		strb	r6, [sp, #57]
 10091 8660 38009DE5 		ldr	r0, [sp, #56]
 10092 8664 60208DE2 		add	r2, sp, #96
 10093 8668 0910A0E1 		mov	r1, r9
 10094 866c 64908DE5 		str	r9, [sp, #100]
 10095 8670 3C908DE5 		str	r9, [sp, #60]
 10096 8674 B4E6CDE1 		strh	lr, [sp, #100]	@ movhi
 10097 8678 60C0CDE5 		strb	ip, [sp, #96]
 10098 867c 6130CDE5 		strb	r3, [sp, #97]
 10099 8680 B2A6CDE1 		strh	r10, [sp, #98]	@ movhi
 10100 8684 2FE5FFEB 		bl	HCDSubmitControlMessage.constprop.6
 10101 8688 090050E1 		cmp	r0, r9
 10102 868c 30FFFF0A 		beq	.L2433
 10103 8690 00709BE5 		ldr	r7, [fp]
 10104 8694 090057E1 		cmp	r7, r9
 10105 8698 2DFFFF0A 		beq	.L2433
 10106 869c 0A30A0E1 		mov	r3, r10
 10107 86a0 00908DE5 		str	r9, [sp]
 10108 86a4 0610A0E1 		mov	r1, r6
 10109 86a8 0520A0E1 		mov	r2, r5
 10110 86ac 88009FE5 		ldr	r0, .L2539+24
 10111 86b0 37FF2FE1 		blx	r7
 10112 86b4 00309BE5 		ldr	r3, [fp]
 10113 86b8 090053E1 		cmp	r3, r9
 10114 86bc 24FFFF0A 		beq	.L2433
 10115 86c0 5616DBE5 		ldrb	r1, [fp, #1622]	@ zero_extendqisi2
 10116 86c4 090051E1 		cmp	r1, r9
 10117 86c8 1100000A 		beq	.L2461
 10118 86cc 58209FE5 		ldr	r2, .L2539+8
 10119 86d0 010051E3 		cmp	r1, #1
 10120 86d4 1C0042E2 		sub	r0, r2, #28
 10121 86d8 0020A001 		moveq	r2, r0
 10122 86dc 0210A0E1 		mov	r1, r2
 10123              	.L2436:
 10124 86e0 7820EFE6 		uxtb	r2, r8
 10125 86e4 012082E2 		add	r2, r2, #1
 10126 86e8 60009FE5 		ldr	r0, .L2539+44
 10127 86ec 33FF2FE1 		blx	r3
 10128 86f0 17FFFFEA 		b	.L2433
 10129              	.L2453:
 10130 86f4 58109FE5 		ldr	r1, .L2539+48
 10131 86f8 F0FEFFEA 		b	.L2419
 10132              	.L2467:
 10133 86fc 50109FE5 		ldr	r1, .L2539+48
 10134 8700 49FFFFEA 		b	.L2444
 10135              	.L2456:
 10136 8704 48109FE5 		ldr	r1, .L2539+48
 10137 8708 A9FFFFEA 		b	.L2428
 10138              	.L2464:
 10139 870c 40109FE5 		ldr	r1, .L2539+48
 10140 8710 75FFFFEA 		b	.L2441
 10141              	.L2461:
 10142 8714 38109FE5 		ldr	r1, .L2539+48
 10143 8718 F0FFFFEA 		b	.L2436
 10144              	.L2458:
 10145 871c 30109FE5 		ldr	r1, .L2539+48
 10146 8720 BBFFFFEA 		b	.L2431
ARM GAS  C:\Users\ldebo\AppData\Local\Temp\ccISOhOE.s 			page 179


 10147              	.L2540:
 10148              		.align	2
 10149              	.L2539:
 10150 8724 00000000 		.word	.LANCHOR1
 10151 8728 68050000 		.word	.LC58
 10152 872c 90020000 		.word	.LANCHOR0+656
 10153 8730 50110000 		.word	.LC116
 10154 8734 D0050000 		.word	.LC59
 10155 8738 88110000 		.word	.LC117
 10156 873c 04060000 		.word	.LC60
 10157 8740 A8120000 		.word	.LC122
 10158 8744 70120000 		.word	.LC121
 10159 8748 A8110000 		.word	.LC118
 10160 874c D8110000 		.word	.LC119
 10161 8750 3C120000 		.word	.LC120
 10162 8754 5C020000 		.word	.LANCHOR0+604
 10163              		.size	UsbCheckForChange, .-UsbCheckForChange
 10164              		.align	2
 10165              		.global	UsbAttachRootHub
 10166              		.syntax unified
 10167              		.arm
 10168              		.fpu vfp
 10169              		.type	UsbAttachRootHub, %function
 10170              	UsbAttachRootHub:
 10171              		@ args = 0, pretend = 0, frame = 0
 10172              		@ frame_needed = 0, uses_anonymous_args = 0
 10173 8758 70402DE9 		push	{r4, r5, r6, lr}
 10174 875c E4409FE5 		ldr	r4, .L2560
 10175 8760 043094E5 		ldr	r3, [r4, #4]
 10176 8764 000053E3 		cmp	r3, #0
 10177 8768 0100000A 		beq	.L2542
 10178 876c D8009FE5 		ldr	r0, .L2560+4
 10179 8770 33FF2FE1 		blx	r3
 10180              	.L2542:
 10181 8774 363AD4E5 		ldrb	r3, [r4, #2614]	@ zero_extendqisi2
 10182 8778 000053E3 		cmp	r3, #0
 10183 877c 1400001A 		bne	.L2558
 10184 8780 0120A0E3 		mov	r2, #1
 10185 8784 0010E0E3 		mvn	r1, #0
 10186 8788 C0509FE5 		ldr	r5, .L2560+8
 10187 878c 4D36C4E5 		strb	r3, [r4, #1613]
 10188 8790 383A84E5 		str	r3, [r4, #2616]
 10189 8794 5126C4E5 		strb	r2, [r4, #1617]
 10190 8798 362AC4E5 		strb	r2, [r4, #2614]
 10191 879c 4C16C4E5 		strb	r1, [r4, #1612]
 10192              	.L2545:
 10193 87a0 00C0A0E3 		mov	ip, #0
 10194 87a4 01E0A0E3 		mov	lr, #1
 10195 87a8 5036D4E5 		ldrb	r3, [r4, #1616]	@ zero_extendqisi2
 10196 87ac 0C0085E2 		add	r0, r5, #12
 10197 87b0 0830C3E3 		bic	r3, r3, #8
 10198 87b4 073083E3 		orr	r3, r3, #7
 10199 87b8 5036C4E5 		strb	r3, [r4, #1616]
 10200 87bc 08C0C4E5 		strb	ip, [r4, #8]
 10201 87c0 56E6C4E5 		strb	lr, [r4, #1622]
 10202 87c4 0C20A0E1 		mov	r2, ip
 10203 87c8 7040BDE8 		pop	{r4, r5, r6, lr}
ARM GAS  C:\Users\ldebo\AppData\Local\Temp\ccISOhOE.s 			page 180


 10204 87cc 0C10A0E1 		mov	r1, ip
 10205 87d0 FEFFFFEA 		b	EnumerateDevice
 10206              	.L2558:
 10207 87d4 74509FE5 		ldr	r5, .L2560+8
 10208 87d8 0C0085E2 		add	r0, r5, #12
 10209 87dc FEFFFFEB 		bl	UsbDeallocateDevice
 10210 87e0 0030A0E3 		mov	r3, #0
 10211 87e4 0C2085E2 		add	r2, r5, #12
 10212              	.L2547:
 10213 87e8 EA13D2E5 		ldrb	r1, [r2, #1002]	@ zero_extendqisi2
 10214 87ec 3F2E82E2 		add	r2, r2, #1008
 10215 87f0 000051E3 		cmp	r1, #0
 10216 87f4 0400000A 		beq	.L2559
 10217 87f8 013083E2 		add	r3, r3, #1
 10218 87fc 200053E3 		cmp	r3, #32
 10219 8800 F8FFFF1A 		bne	.L2547
 10220              	.L2556:
 10221 8804 0500E0E3 		mvn	r0, #5
 10222 8808 7080BDE8 		pop	{r4, r5, r6, pc}
 10223              	.L2559:
 10224 880c 0100A0E3 		mov	r0, #1
 10225 8810 00C0E0E3 		mvn	ip, #0
 10226 8814 032363E0 		rsb	r2, r3, r3, lsl #6
 10227 8818 0222A0E1 		lsl	r2, r2, #4
 10228 881c 000052E3 		cmp	r2, #0
 10229 8820 003083E0 		add	r3, r3, r0
 10230 8824 022084E0 		add	r2, r4, r2
 10231 8828 5616C2E5 		strb	r1, [r2, #1622]
 10232 882c 4D16C2E5 		strb	r1, [r2, #1613]
 10233 8830 381A82E5 		str	r1, [r2, #2616]
 10234 8834 5136C2E5 		strb	r3, [r2, #1617]
 10235 8838 4CC6C2E5 		strb	ip, [r2, #1612]
 10236 883c 360AC2E5 		strb	r0, [r2, #2614]
 10237 8840 EFFFFF1A 		bne	.L2556
 10238 8844 D5FFFFEA 		b	.L2545
 10239              	.L2561:
 10240              		.align	2
 10241              	.L2560:
 10242 8848 00000000 		.word	.LANCHOR1
 10243 884c 70140000 		.word	.LC132
 10244 8850 40060000 		.word	.LANCHOR1+1600
 10245              		.size	UsbAttachRootHub, .-UsbAttachRootHub
 10246              		.align	2
 10247              		.global	UsbInitialise
 10248              		.syntax unified
 10249              		.arm
 10250              		.fpu vfp
 10251              		.type	UsbInitialise, %function
 10252              	UsbInitialise:
 10253              		@ args = 0, pretend = 0, frame = 0
 10254              		@ frame_needed = 0, uses_anonymous_args = 0
 10255 8854 70402DE9 		push	{r4, r5, r6, lr}
 10256 8858 0050A0E1 		mov	r5, r0
 10257 885c 04639FE5 		ldr	r6, .L2619
 10258 8860 04C39FE5 		ldr	ip, .L2619+4
 10259 8864 003096E5 		ldr	r3, [r6]
 10260 8868 00439FE5 		ldr	r4, .L2619+8
ARM GAS  C:\Users\ldebo\AppData\Local\Temp\ccISOhOE.s 			page 181


 10261 886c 263783E2 		add	r3, r3, #9961472
 10262 8870 400093E5 		ldr	r0, [r3, #64]
 10263 8874 10D04DE2 		sub	sp, sp, #16
 10264 8878 FF2EC0E3 		bic	r2, r0, #4080
 10265 887c 0F20C2E3 		bic	r2, r2, #15
 10266 8880 0C0052E1 		cmp	r2, ip
 10267 8884 005084E5 		str	r5, [r4]
 10268 8888 3C2093E5 		ldr	r2, [r3, #60]
 10269 888c 041084E5 		str	r1, [r4, #4]
 10270 8890 1A00000A 		beq	.L2563
 10271 8894 000055E3 		cmp	r5, #0
 10272 8898 2000000A 		beq	.L2564
 10273 889c 20C2A0E1 		lsr	ip, r0, #4
 10274 88a0 2014A0E1 		lsr	r1, r0, #8
 10275 88a4 0FE000E2 		and	lr, r0, #15
 10276 88a8 2226A0E1 		lsr	r2, r2, #12
 10277 88ac 0FC00CE2 		and	ip, ip, #15
 10278 88b0 0F1001E2 		and	r1, r1, #15
 10279 88b4 2036A0E1 		lsr	r3, r0, #12
 10280 88b8 2068A0E1 		lsr	r6, r0, #16
 10281 88bc 0C208DE5 		str	r2, [sp, #12]
 10282 88c0 02108DE8 		stm	sp, {r1, ip}
 10283 88c4 0F3003E2 		and	r3, r3, #15
 10284 88c8 201CA0E1 		lsr	r1, r0, #24
 10285 88cc 7620EFE6 		uxtb	r2, r6
 10286 88d0 08E08DE5 		str	lr, [sp, #8]
 10287 88d4 98029FE5 		ldr	r0, .L2619+12
 10288 88d8 35FF2FE1 		blx	r5
 10289 88dc 003094E5 		ldr	r3, [r4]
 10290              	.L2565:
 10291 88e0 000053E3 		cmp	r3, #0
 10292 88e4 0D00000A 		beq	.L2564
 10293 88e8 88029FE5 		ldr	r0, .L2619+16
 10294 88ec 33FF2FE1 		blx	r3
 10295 88f0 0450E0E3 		mvn	r5, #4
 10296              	.L2583:
 10297 88f4 0500A0E1 		mov	r0, r5
 10298 88f8 10D08DE2 		add	sp, sp, #16
 10299              		@ sp needed
 10300 88fc 7080BDE8 		pop	{r4, r5, r6, pc}
 10301              	.L2563:
 10302 8900 000055E3 		cmp	r5, #0
 10303 8904 0900001A 		bne	.L2614
 10304 8908 441083E2 		add	r1, r3, #68
 10305 890c 0420D1E5 		ldrb	r2, [r1, #4]	@ zero_extendqisi2
 10306 8910 A221A0E1 		lsr	r2, r2, #3
 10307 8914 032002E2 		and	r2, r2, #3
 10308 8918 020052E3 		cmp	r2, #2
 10309 891c 2100000A 		beq	.L2567
 10310              	.L2564:
 10311 8920 0450E0E3 		mvn	r5, #4
 10312 8924 0500A0E1 		mov	r0, r5
 10313 8928 10D08DE2 		add	sp, sp, #16
 10314              		@ sp needed
 10315 892c 7080BDE8 		pop	{r4, r5, r6, pc}
 10316              	.L2614:
 10317 8930 2012A0E1 		lsr	r1, r0, #4
ARM GAS  C:\Users\ldebo\AppData\Local\Temp\ccISOhOE.s 			page 182


 10318 8934 2034A0E1 		lsr	r3, r0, #8
 10319 8938 2226A0E1 		lsr	r2, r2, #12
 10320 893c 0F1001E2 		and	r1, r1, #15
 10321 8940 0F3003E2 		and	r3, r3, #15
 10322 8944 0F0000E2 		and	r0, r0, #15
 10323 8948 0C208DE5 		str	r2, [sp, #12]
 10324 894c 04108DE5 		str	r1, [sp, #4]
 10325 8950 00308DE5 		str	r3, [sp]
 10326 8954 4F10A0E3 		mov	r1, #79
 10327 8958 08008DE5 		str	r0, [sp, #8]
 10328 895c 0230A0E3 		mov	r3, #2
 10329 8960 5420A0E3 		mov	r2, #84
 10330 8964 10029FE5 		ldr	r0, .L2619+20
 10331 8968 35FF2FE1 		blx	r5
 10332 896c 003096E5 		ldr	r3, [r6]
 10333 8970 263783E2 		add	r3, r3, #9961472
 10334 8974 441083E2 		add	r1, r3, #68
 10335 8978 0420D1E5 		ldrb	r2, [r1, #4]	@ zero_extendqisi2
 10336 897c A221A0E1 		lsr	r2, r2, #3
 10337 8980 032002E2 		and	r2, r2, #3
 10338 8984 020052E3 		cmp	r2, #2
 10339 8988 0600000A 		beq	.L2567
 10340 898c 003094E5 		ldr	r3, [r4]
 10341 8990 000053E3 		cmp	r3, #0
 10342 8994 E1FFFF0A 		beq	.L2564
 10343 8998 E0019FE5 		ldr	r0, .L2619+24
 10344 899c 33FF2FE1 		blx	r3
 10345 89a0 003094E5 		ldr	r3, [r4]
 10346 89a4 CDFFFFEA 		b	.L2565
 10347              	.L2567:
 10348 89a8 0420D1E5 		ldrb	r2, [r1, #4]	@ zero_extendqisi2
 10349 89ac 2223B0E1 		lsrs	r2, r2, #6
 10350 89b0 0600001A 		bne	.L2568
 10351 89b4 003094E5 		ldr	r3, [r4]
 10352 89b8 000053E3 		cmp	r3, #0
 10353 89bc D7FFFF0A 		beq	.L2564
 10354 89c0 BC019FE5 		ldr	r0, .L2619+28
 10355 89c4 33FF2FE1 		blx	r3
 10356 89c8 003094E5 		ldr	r3, [r4]
 10357 89cc C3FFFFEA 		b	.L2565
 10358              	.L2568:
 10359 89d0 00C0A0E3 		mov	ip, #0
 10360 89d4 0810A0E3 		mov	r1, #8
 10361 89d8 03E0A0E3 		mov	lr, #3
 10362 89dc 0150A0E3 		mov	r5, #1
 10363 89e0 082093E5 		ldr	r2, [r3, #8]
 10364 89e4 0C00A0E1 		mov	r0, ip
 10365 89e8 0120C2E3 		bic	r2, r2, #1
 10366 89ec 082083E5 		str	r2, [r3, #8]
 10367 89f0 003096E5 		ldr	r3, [r6]
 10368 89f4 8C219FE5 		ldr	r2, .L2619+32
 10369 89f8 263783E2 		add	r3, r3, #9961472
 10370 89fc 18C083E5 		str	ip, [r3, #24]
 10371 8a00 0130A0E1 		mov	r3, r1
 10372 8a04 02408DE8 		stm	sp, {r1, lr}
 10373 8a08 08508DE5 		str	r5, [sp, #8]
 10374 8a0c 0510A0E3 		mov	r1, #5
ARM GAS  C:\Users\ldebo\AppData\Local\Temp\ccISOhOE.s 			page 183


 10375 8a10 FEFFFFEB 		bl	mailbox_tag_message
 10376 8a14 000050E3 		cmp	r0, #0
 10377 8a18 3C00000A 		beq	.L2615
 10378 8a1c FEFFFFEB 		bl	HCDStart
 10379 8a20 005050E2 		subs	r5, r0, #0
 10380 8a24 0700000A 		beq	.L2616
 10381 8a28 003094E5 		ldr	r3, [r4]
 10382 8a2c 000053E3 		cmp	r3, #0
 10383 8a30 AFFFFF0A 		beq	.L2583
 10384 8a34 50019FE5 		ldr	r0, .L2619+36
 10385 8a38 33FF2FE1 		blx	r3
 10386 8a3c 0500A0E1 		mov	r0, r5
 10387 8a40 10D08DE2 		add	sp, sp, #16
 10388              		@ sp needed
 10389 8a44 7080BDE8 		pop	{r4, r5, r6, pc}
 10390              	.L2616:
 10391 8a48 043094E5 		ldr	r3, [r4, #4]
 10392 8a4c 000053E3 		cmp	r3, #0
 10393 8a50 0100000A 		beq	.L2574
 10394 8a54 34019FE5 		ldr	r0, .L2619+40
 10395 8a58 33FF2FE1 		blx	r3
 10396              	.L2574:
 10397 8a5c 363AD4E5 		ldrb	r3, [r4, #2614]	@ zero_extendqisi2
 10398 8a60 000053E3 		cmp	r3, #0
 10399 8a64 1B00001A 		bne	.L2617
 10400 8a68 0120A0E3 		mov	r2, #1
 10401 8a6c 0010E0E3 		mvn	r1, #0
 10402 8a70 1C519FE5 		ldr	r5, .L2619+44
 10403 8a74 4D36C4E5 		strb	r3, [r4, #1613]
 10404 8a78 383A84E5 		str	r3, [r4, #2616]
 10405 8a7c 5126C4E5 		strb	r2, [r4, #1617]
 10406 8a80 362AC4E5 		strb	r2, [r4, #2614]
 10407 8a84 4C16C4E5 		strb	r1, [r4, #1612]
 10408              	.L2577:
 10409 8a88 00C0A0E3 		mov	ip, #0
 10410 8a8c 01E0A0E3 		mov	lr, #1
 10411 8a90 5036D4E5 		ldrb	r3, [r4, #1616]	@ zero_extendqisi2
 10412 8a94 0C0085E2 		add	r0, r5, #12
 10413 8a98 0830C3E3 		bic	r3, r3, #8
 10414 8a9c 073083E3 		orr	r3, r3, #7
 10415 8aa0 0C20A0E1 		mov	r2, ip
 10416 8aa4 0C10A0E1 		mov	r1, ip
 10417 8aa8 5036C4E5 		strb	r3, [r4, #1616]
 10418 8aac 08C0C4E5 		strb	ip, [r4, #8]
 10419 8ab0 56E6C4E5 		strb	lr, [r4, #1622]
 10420 8ab4 FEFFFFEB 		bl	EnumerateDevice
 10421 8ab8 005050E2 		subs	r5, r0, #0
 10422 8abc 8CFFFF0A 		beq	.L2583
 10423              	.L2578:
 10424 8ac0 003094E5 		ldr	r3, [r4]
 10425 8ac4 000053E3 		cmp	r3, #0
 10426 8ac8 89FFFF0A 		beq	.L2583
 10427 8acc C4009FE5 		ldr	r0, .L2619+48
 10428 8ad0 33FF2FE1 		blx	r3
 10429 8ad4 86FFFFEA 		b	.L2583
 10430              	.L2617:
 10431 8ad8 B4509FE5 		ldr	r5, .L2619+44
ARM GAS  C:\Users\ldebo\AppData\Local\Temp\ccISOhOE.s 			page 184


 10432 8adc 0C0085E2 		add	r0, r5, #12
 10433 8ae0 FEFFFFEB 		bl	UsbDeallocateDevice
 10434 8ae4 0030A0E3 		mov	r3, #0
 10435 8ae8 0C2085E2 		add	r2, r5, #12
 10436              	.L2579:
 10437 8aec EA13D2E5 		ldrb	r1, [r2, #1002]	@ zero_extendqisi2
 10438 8af0 3F2E82E2 		add	r2, r2, #1008
 10439 8af4 000051E3 		cmp	r1, #0
 10440 8af8 0B00000A 		beq	.L2618
 10441 8afc 013083E2 		add	r3, r3, #1
 10442 8b00 200053E3 		cmp	r3, #32
 10443 8b04 F8FFFF1A 		bne	.L2579
 10444              	.L2580:
 10445 8b08 0550E0E3 		mvn	r5, #5
 10446 8b0c EBFFFFEA 		b	.L2578
 10447              	.L2615:
 10448 8b10 003094E5 		ldr	r3, [r4]
 10449 8b14 000053E3 		cmp	r3, #0
 10450 8b18 80FFFF0A 		beq	.L2564
 10451 8b1c 78009FE5 		ldr	r0, .L2619+52
 10452 8b20 33FF2FE1 		blx	r3
 10453 8b24 003094E5 		ldr	r3, [r4]
 10454 8b28 6CFFFFEA 		b	.L2565
 10455              	.L2618:
 10456 8b2c 3F2EA0E3 		mov	r2, #1008
 10457 8b30 0100A0E3 		mov	r0, #1
 10458 8b34 00C0E0E3 		mvn	ip, #0
 10459 8b38 920302E0 		mul	r2, r2, r3
 10460 8b3c 003083E0 		add	r3, r3, r0
 10461 8b40 000052E3 		cmp	r2, #0
 10462 8b44 022084E0 		add	r2, r4, r2
 10463 8b48 5616C2E5 		strb	r1, [r2, #1622]
 10464 8b4c 4D16C2E5 		strb	r1, [r2, #1613]
 10465 8b50 381A82E5 		str	r1, [r2, #2616]
 10466 8b54 5136C2E5 		strb	r3, [r2, #1617]
 10467 8b58 4CC6C2E5 		strb	ip, [r2, #1612]
 10468 8b5c 360AC2E5 		strb	r0, [r2, #2614]
 10469 8b60 E8FFFF1A 		bne	.L2580
 10470 8b64 C7FFFFEA 		b	.L2577
 10471              	.L2620:
 10472              		.align	2
 10473              	.L2619:
 10474 8b68 00000000 		.word	RPi_IO_Base_Addr
 10475 8b6c 0020544F 		.word	1330913280
 10476 8b70 00000000 		.word	.LANCHOR1
 10477 8b74 54060000 		.word	.LC61
 10478 8b78 84140000 		.word	.LC133
 10479 8b7c B0060000 		.word	.LC62
 10480 8b80 DC060000 		.word	.LC63
 10481 8b84 14070000 		.word	.LC64
 10482 8b88 01800200 		.word	163841
 10483 8b8c AC140000 		.word	.LC134
 10484 8b90 70140000 		.word	.LC132
 10485 8b94 40060000 		.word	.LANCHOR1+1600
 10486 8b98 D0140000 		.word	.LC135
 10487 8b9c 3C070000 		.word	.LC65
 10488              		.size	UsbInitialise, .-UsbInitialise
ARM GAS  C:\Users\ldebo\AppData\Local\Temp\ccISOhOE.s 			page 185


 10489              		.align	2
 10490              		.global	UsbShowTree
 10491              		.syntax unified
 10492              		.arm
 10493              		.fpu vfp
 10494              		.type	UsbShowTree, %function
 10495              	UsbShowTree:
 10496              		@ args = 0, pretend = 0, frame = 8
 10497              		@ frame_needed = 0, uses_anonymous_args = 0
 10498 8ba0 F04F2DE9 		push	{r4, r5, r6, r7, r8, r9, r10, fp, lr}
 10499 8ba4 010051E3 		cmp	r1, #1
 10500 8ba8 1CD04DE2 		sub	sp, sp, #28
 10501 8bac 10108DE5 		str	r1, [sp, #16]
 10502 8bb0 00B0A0E1 		mov	fp, r0
 10503 8bb4 14208DE5 		str	r2, [sp, #20]
 10504 8bb8 E00000DA 		ble	.L2691
 10505 8bbc B0639FE5 		ldr	r6, .L2696
 10506 8bc0 0080A0E3 		mov	r8, #0
 10507 8bc4 B3A0A0E3 		mov	r10, #179
 10508 8bc8 A8739FE5 		ldr	r7, .L2696+4
 10509 8bcc 004096E5 		ldr	r4, [r6]
 10510 8bd0 A4939FE5 		ldr	r9, .L2696+8
 10511 8bd4 015041E2 		sub	r5, r1, #1
 10512 8bd8 070000EA 		b	.L2626
 10513              	.L2692:
 10514 8bdc 000054E3 		cmp	r4, #0
 10515 8be0 0200000A 		beq	.L2625
 10516 8be4 94039FE5 		ldr	r0, .L2696+12
 10517 8be8 34FF2FE1 		blx	r4
 10518 8bec 004096E5 		ldr	r4, [r6]
 10519              	.L2625:
 10520 8bf0 018088E2 		add	r8, r8, #1
 10521 8bf4 050058E1 		cmp	r8, r5
 10522 8bf8 0B00000A 		beq	.L2623
 10523              	.L2626:
 10524 8bfc 0430B7E5 		ldr	r3, [r7, #4]!
 10525 8c00 000053E3 		cmp	r3, #0
 10526 8c04 F4FFFF0A 		beq	.L2692
 10527 8c08 000054E3 		cmp	r4, #0
 10528 8c0c F7FFFF0A 		beq	.L2625
 10529 8c10 0A10A0E1 		mov	r1, r10
 10530 8c14 0900A0E1 		mov	r0, r9
 10531 8c18 018088E2 		add	r8, r8, #1
 10532 8c1c 34FF2FE1 		blx	r4
 10533 8c20 050058E1 		cmp	r8, r5
 10534 8c24 004096E5 		ldr	r4, [r6]
 10535 8c28 F3FFFF1A 		bne	.L2626
 10536              	.L2623:
 10537 8c2c 0410DBE5 		ldrb	r1, [fp, #4]	@ zero_extendqisi2
 10538 8c30 035011E2 		ands	r5, r1, #3
 10539 8c34 0850A003 		moveq	r5, #8
 10540 8c38 0500000A 		beq	.L2627
 10541 8c3c 010055E3 		cmp	r5, #1
 10542 8c40 1050A003 		moveq	r5, #16
 10543 8c44 0200000A 		beq	.L2627
 10544 8c48 020055E3 		cmp	r5, #2
 10545 8c4c 4050A013 		movne	r5, #64
ARM GAS  C:\Users\ldebo\AppData\Local\Temp\ccISOhOE.s 			page 186


 10546 8c50 2050A003 		moveq	r5, #32
 10547              	.L2627:
 10548 8c54 000054E3 		cmp	r4, #0
 10549 8c58 2A00000A 		beq	.L2628
 10550 8c5c 0A30DBE5 		ldrb	r3, [fp, #10]	@ zero_extendqisi2
 10551 8c60 000053E3 		cmp	r3, #0
 10552 8c64 1000000A 		beq	.L2648
 10553 8c68 010053E3 		cmp	r3, #1
 10554 8c6c 8F00000A 		beq	.L2649
 10555 8c70 0C239FE5 		ldr	r2, .L2696+16
 10556 8c74 02005BE1 		cmp	fp, r2
 10557 8c78 B300000A 		beq	.L2650
 10558 8c7c DC23DBE5 		ldrb	r2, [fp, #988]	@ zero_extendqisi2
 10559 8c80 090052E3 		cmp	r2, #9
 10560 8c84 A000000A 		beq	.L2630
 10561 8c88 FF0052E3 		cmp	r2, #255
 10562 8c8c 8900000A 		beq	.L2631
 10563 8c90 000052E3 		cmp	r2, #0
 10564 8c94 EC229F15 		ldrne	r2, .L2696+20
 10565 8c98 0400001A 		bne	.L2629
 10566 8c9c 040053E3 		cmp	r3, #4
 10567 8ca0 E4229F15 		ldrne	r2, .L2696+24
 10568 8ca4 0100001A 		bne	.L2629
 10569 8ca8 890000EA 		b	.L2644
 10570              	.L2648:
 10571 8cac DC229FE5 		ldr	r2, .L2696+28
 10572              	.L2629:
 10573 8cb0 0530DBE5 		ldrb	r3, [fp, #5]	@ zero_extendqisi2
 10574 8cb4 D8E29FE5 		ldr	lr, .L2696+32
 10575 8cb8 01C043E2 		sub	ip, r3, #1
 10576 8cbc 7C00EFE6 		uxtb	r0, ip
 10577 8cc0 0C1001E2 		and	r1, r1, #12
 10578 8cc4 01108EE0 		add	r1, lr, r1
 10579 8cc8 1F0050E3 		cmp	r0, #31
 10580 8ccc 1CE091E5 		ldr	lr, [r1, #28]
 10581 8cd0 0100DBE5 		ldrb	r0, [fp, #1]	@ zero_extendqisi2
 10582 8cd4 0400008A 		bhi	.L2659
 10583 8cd8 0CC36CE0 		rsb	ip, ip, ip, lsl #6
 10584 8cdc 0C1286E0 		add	r1, r6, ip, lsl #4
 10585 8ce0 36CAD1E5 		ldrb	ip, [r1, #2614]	@ zero_extendqisi2
 10586 8ce4 03005CE3 		cmp	ip, #3
 10587 8ce8 8100000A 		beq	.L2693
 10588              	.L2659:
 10589 8cec A4129FE5 		ldr	r1, .L2696+36
 10590              	.L2634:
 10591 8cf0 0C108DE5 		str	r1, [sp, #12]
 10592 8cf4 01408DE8 		stm	sp, {r0, lr}
 10593 8cf8 08508DE5 		str	r5, [sp, #8]
 10594 8cfc 14109DE5 		ldr	r1, [sp, #20]
 10595 8d00 94029FE5 		ldr	r0, .L2696+40
 10596 8d04 34FF2FE1 		blx	r4
 10597              	.L2628:
 10598 8d08 0530DBE5 		ldrb	r3, [fp, #5]	@ zero_extendqisi2
 10599 8d0c 013043E2 		sub	r3, r3, #1
 10600 8d10 7320EFE6 		uxtb	r2, r3
 10601 8d14 1F0052E3 		cmp	r2, #31
 10602 8d18 0400008A 		bhi	.L2621
ARM GAS  C:\Users\ldebo\AppData\Local\Temp\ccISOhOE.s 			page 187


 10603 8d1c 033363E0 		rsb	r3, r3, r3, lsl #6
 10604 8d20 036286E0 		add	r6, r6, r3, lsl #4
 10605 8d24 363AD6E5 		ldrb	r3, [r6, #2614]	@ zero_extendqisi2
 10606 8d28 020053E3 		cmp	r3, #2
 10607 8d2c 0100000A 		beq	.L2694
 10608              	.L2621:
 10609 8d30 1CD08DE2 		add	sp, sp, #28
 10610              		@ sp needed
 10611 8d34 F08FBDE8 		pop	{r4, r5, r6, r7, r8, r9, r10, fp, pc}
 10612              	.L2694:
 10613 8d38 383A96E5 		ldr	r3, [r6, #2616]
 10614 8d3c 000053E3 		cmp	r3, #0
 10615 8d40 FAFFFF0A 		beq	.L2621
 10616 8d44 EC139BE5 		ldr	r1, [fp, #1004]
 10617 8d48 008091E5 		ldr	r8, [r1]
 10618 8d4c 000058E3 		cmp	r8, #0
 10619 8d50 F6FFFFDA 		ble	.L2621
 10620 8d54 0030A0E3 		mov	r3, #0
 10621 8d58 10209DE5 		ldr	r2, [sp, #16]
 10622 8d5c 3C629FE5 		ldr	r6, .L2696+44
 10623 8d60 0390A0E1 		mov	r9, r3
 10624 8d64 026186E0 		add	r6, r6, r2, lsl #2
 10625 8d68 017082E2 		add	r7, r2, #1
 10626 8d6c 014048E2 		sub	r4, r8, #1
 10627 8d70 C0A0A0E3 		mov	r10, #192
 10628 8d74 010000EA 		b	.L2643
 10629              	.L2642:
 10630 8d78 0530A0E1 		mov	r3, r5
 10631 8d7c EC139BE5 		ldr	r1, [fp, #1004]
 10632              	.L2643:
 10633 8d80 040053E1 		cmp	r3, r4
 10634 8d84 015083A2 		addge	r5, r3, #1
 10635 8d88 03C1A0A1 		lslge	ip, r3, #2
 10636 8d8c 0A20A0A1 		movge	r2, r10
 10637 8d90 3B0000AA 		bge	.L2638
 10638 8d94 03C1A0E1 		lsl	ip, r3, #2
 10639 8d98 0C0081E0 		add	r0, r1, ip
 10640 8d9c 082090E5 		ldr	r2, [r0, #8]
 10641 8da0 015083E2 		add	r5, r3, #1
 10642 8da4 000052E3 		cmp	r2, #0
 10643 8da8 4D00001A 		bne	.L2640
 10644 8dac 040055E1 		cmp	r5, r4
 10645 8db0 320000AA 		bge	.L2669
 10646 8db4 0CE090E5 		ldr	lr, [r0, #12]
 10647 8db8 022083E2 		add	r2, r3, #2
 10648 8dbc 00005EE3 		cmp	lr, #0
 10649 8dc0 4700001A 		bne	.L2640
 10650 8dc4 040052E1 		cmp	r2, r4
 10651 8dc8 2C0000AA 		bge	.L2669
 10652 8dcc 10E090E5 		ldr	lr, [r0, #16]
 10653 8dd0 032083E2 		add	r2, r3, #3
 10654 8dd4 00005EE3 		cmp	lr, #0
 10655 8dd8 4100001A 		bne	.L2640
 10656 8ddc 040052E1 		cmp	r2, r4
 10657 8de0 260000AA 		bge	.L2669
 10658 8de4 14E090E5 		ldr	lr, [r0, #20]
 10659 8de8 042083E2 		add	r2, r3, #4
ARM GAS  C:\Users\ldebo\AppData\Local\Temp\ccISOhOE.s 			page 188


 10660 8dec 00005EE3 		cmp	lr, #0
 10661 8df0 3B00001A 		bne	.L2640
 10662 8df4 020054E1 		cmp	r4, r2
 10663 8df8 200000DA 		ble	.L2669
 10664 8dfc 18E090E5 		ldr	lr, [r0, #24]
 10665 8e00 052083E2 		add	r2, r3, #5
 10666 8e04 00005EE3 		cmp	lr, #0
 10667 8e08 3500001A 		bne	.L2640
 10668 8e0c 020054E1 		cmp	r4, r2
 10669 8e10 1A0000DA 		ble	.L2669
 10670 8e14 1CE090E5 		ldr	lr, [r0, #28]
 10671 8e18 062083E2 		add	r2, r3, #6
 10672 8e1c 00005EE3 		cmp	lr, #0
 10673 8e20 2F00001A 		bne	.L2640
 10674 8e24 020054E1 		cmp	r4, r2
 10675 8e28 140000DA 		ble	.L2669
 10676 8e2c 20E090E5 		ldr	lr, [r0, #32]
 10677 8e30 072083E2 		add	r2, r3, #7
 10678 8e34 00005EE3 		cmp	lr, #0
 10679 8e38 2900001A 		bne	.L2640
 10680 8e3c 020054E1 		cmp	r4, r2
 10681 8e40 0E0000DA 		ble	.L2669
 10682 8e44 24E090E5 		ldr	lr, [r0, #36]
 10683 8e48 082083E2 		add	r2, r3, #8
 10684 8e4c 00005EE3 		cmp	lr, #0
 10685 8e50 2300001A 		bne	.L2640
 10686 8e54 020054E1 		cmp	r4, r2
 10687 8e58 080000DA 		ble	.L2669
 10688 8e5c 28E090E5 		ldr	lr, [r0, #40]
 10689 8e60 092083E2 		add	r2, r3, #9
 10690 8e64 00005EE3 		cmp	lr, #0
 10691 8e68 1D00001A 		bne	.L2640
 10692 8e6c 020054E1 		cmp	r4, r2
 10693 8e70 020000DA 		ble	.L2669
 10694 8e74 2C3090E5 		ldr	r3, [r0, #44]
 10695 8e78 000053E3 		cmp	r3, #0
 10696 8e7c 1800001A 		bne	.L2640
 10697              	.L2669:
 10698 8e80 0A20A0E1 		mov	r2, r10
 10699              	.L2638:
 10700 8e84 0C3081E0 		add	r3, r1, ip
 10701 8e88 040093E5 		ldr	r0, [r3, #4]
 10702 8e8c 000050E3 		cmp	r0, #0
 10703 8e90 0100000A 		beq	.L2641
 10704 8e94 0710A0E1 		mov	r1, r7
 10705 8e98 FEFFFFEB 		bl	UsbShowTree
 10706              	.L2641:
 10707 8e9c 050058E1 		cmp	r8, r5
 10708 8ea0 6C9486E5 		str	r9, [r6, #1132]
 10709 8ea4 B3FFFFCA 		bgt	.L2642
 10710 8ea8 1CD08DE2 		add	sp, sp, #28
 10711              		@ sp needed
 10712 8eac F08FBDE8 		pop	{r4, r5, r6, r7, r8, r9, r10, fp, pc}
 10713              	.L2649:
 10714 8eb0 EC209FE5 		ldr	r2, .L2696+48
 10715 8eb4 7DFFFFEA 		b	.L2629
 10716              	.L2631:
ARM GAS  C:\Users\ldebo\AppData\Local\Temp\ccISOhOE.s 			page 189


 10717 8eb8 E8209FE5 		ldr	r2, .L2696+52
 10718 8ebc E0039BE5 		ldr	r0, [fp, #992]
 10719 8ec0 020050E1 		cmp	r0, r2
 10720 8ec4 2400000A 		beq	.L2695
 10721 8ec8 040053E3 		cmp	r3, #4
 10722 8ecc D8209F15 		ldrne	r2, .L2696+56
 10723 8ed0 76FFFF1A 		bne	.L2629
 10724              	.L2644:
 10725 8ed4 0B00A0E1 		mov	r0, fp
 10726 8ed8 48DCFFEB 		bl	UsbGetDescription.part.2
 10727 8edc 0020A0E1 		mov	r2, r0
 10728 8ee0 72FFFFEA 		b	.L2629
 10729              	.L2640:
 10730 8ee4 0130A0E3 		mov	r3, #1
 10731 8ee8 C320A0E3 		mov	r2, #195
 10732 8eec 6C3486E5 		str	r3, [r6, #1132]
 10733 8ef0 E3FFFFEA 		b	.L2638
 10734              	.L2693:
 10735 8ef4 388A91E5 		ldr	r8, [r1, #2616]
 10736 8ef8 B0C09FE5 		ldr	ip, .L2696+60
 10737 8efc 000058E3 		cmp	r8, #0
 10738 8f00 90109FE5 		ldr	r1, .L2696+36
 10739 8f04 0C10A011 		movne	r1, ip
 10740 8f08 78FFFFEA 		b	.L2634
 10741              	.L2630:
 10742 8f0c F63F8BE2 		add	r3, fp, #984
 10743 8f10 B230D3E1 		ldrh	r3, [r3, #2]
 10744 8f14 210E53E3 		cmp	r3, #528
 10745 8f18 0D00000A 		beq	.L2652
 10746 8f1c 020C53E3 		cmp	r3, #512
 10747 8f20 1100000A 		beq	.L2653
 10748 8f24 110E53E3 		cmp	r3, #272
 10749 8f28 0D00000A 		beq	.L2654
 10750 8f2c 80209FE5 		ldr	r2, .L2696+64
 10751 8f30 010C53E3 		cmp	r3, #256
 10752 8f34 100042E2 		sub	r0, r2, #16
 10753 8f38 0020A001 		moveq	r2, r0
 10754 8f3c 5BFFFFEA 		b	.L2629
 10755              	.L2691:
 10756 8f40 2C609FE5 		ldr	r6, .L2696
 10757 8f44 004096E5 		ldr	r4, [r6]
 10758 8f48 37FFFFEA 		b	.L2623
 10759              	.L2650:
 10760 8f4c 64209FE5 		ldr	r2, .L2696+68
 10761 8f50 56FFFFEA 		b	.L2629
 10762              	.L2652:
 10763 8f54 60209FE5 		ldr	r2, .L2696+72
 10764 8f58 54FFFFEA 		b	.L2629
 10765              	.L2695:
 10766 8f5c 5C209FE5 		ldr	r2, .L2696+76
 10767 8f60 52FFFFEA 		b	.L2629
 10768              	.L2654:
 10769 8f64 58209FE5 		ldr	r2, .L2696+80
 10770 8f68 50FFFFEA 		b	.L2629
 10771              	.L2653:
 10772 8f6c 54209FE5 		ldr	r2, .L2696+84
 10773 8f70 4EFFFFEA 		b	.L2629
ARM GAS  C:\Users\ldebo\AppData\Local\Temp\ccISOhOE.s 			page 190


 10774              	.L2697:
 10775              		.align	2
 10776              	.L2696:
 10777 8f74 00000000 		.word	.LANCHOR1
 10778 8f78 48840000 		.word	.LANCHOR3+1128
 10779 8f7c 0C150000 		.word	.LC139
 10780 8f80 08150000 		.word	.LC138
 10781 8f84 4C060000 		.word	.LANCHOR1+1612
 10782 8f88 D4010000 		.word	.LANCHOR0+468
 10783 8f8c B0020000 		.word	.LANCHOR0+688
 10784 8f90 5C020000 		.word	.LANCHOR0+604
 10785 8f94 00000000 		.word	.LANCHOR2
 10786 8f98 F4140000 		.word	.LC136
 10787 8f9c 14150000 		.word	.LC140
 10788 8fa0 E07F0000 		.word	.LANCHOR3
 10789 8fa4 74020000 		.word	.LANCHOR0+628
 10790 8fa8 240400EC 		.word	-335543260
 10791 8fac C0010000 		.word	.LANCHOR0+448
 10792 8fb0 F8140000 		.word	.LC137
 10793 8fb4 E4000000 		.word	.LANCHOR0+228
 10794 8fb8 90020000 		.word	.LANCHOR0+656
 10795 8fbc A4000000 		.word	.LANCHOR0+164
 10796 8fc0 A0020000 		.word	.LANCHOR0+672
 10797 8fc4 C4000000 		.word	.LANCHOR0+196
 10798 8fc8 B4000000 		.word	.LANCHOR0+180
 10799              		.size	UsbShowTree, .-UsbShowTree
 10800              		.align	2
 10801              		.global	HIDReadDescriptor
 10802              		.syntax unified
 10803              		.arm
 10804              		.fpu vfp
 10805              		.type	HIDReadDescriptor, %function
 10806              	HIDReadDescriptor:
 10807              		@ args = 0, pretend = 0, frame = 1056
 10808              		@ frame_needed = 0, uses_anonymous_args = 0
 10809 8fcc 01C043E2 		sub	ip, r3, #1
 10810 8fd0 000052E3 		cmp	r2, #0
 10811 8fd4 010B5C13 		cmpne	ip, #1024
 10812 8fd8 01C0A023 		movcs	ip, #1
 10813 8fdc 00C0A033 		movcc	ip, #0
 10814 8fe0 9A00002A 		bcs	.L2712
 10815 8fe4 F04F2DE9 		push	{r4, r5, r6, r7, r8, r9, r10, fp, lr}
 10816 8fe8 017040E2 		sub	r7, r0, #1
 10817 8fec 7700EFE6 		uxtb	r0, r7
 10818 8ff0 43DE4DE2 		sub	sp, sp, #1072
 10819 8ff4 1F0050E3 		cmp	r0, #31
 10820 8ff8 04D04DE2 		sub	sp, sp, #4
 10821 8ffc 8600008A 		bhi	.L2714
 10822 9000 07A3A0E1 		lsl	r10, r7, #6
 10823 9004 4C929FE5 		ldr	r9, .L2731
 10824 9008 07B04AE0 		sub	fp, r10, r7
 10825 900c 0BB289E0 		add	fp, r9, fp, lsl #4
 10826 9010 360ADBE5 		ldrb	r0, [fp, #2614]	@ zero_extendqisi2
 10827 9014 000050E3 		cmp	r0, #0
 10828 9018 7F00000A 		beq	.L2714
 10829 901c 030050E3 		cmp	r0, #3
 10830 9020 7B00001A 		bne	.L2716
ARM GAS  C:\Users\ldebo\AppData\Local\Temp\ccISOhOE.s 			page 191


 10831 9024 380A9BE5 		ldr	r0, [fp, #2616]
 10832 9028 000050E3 		cmp	r0, #0
 10833 902c 7800000A 		beq	.L2716
 10834 9030 28E0D0E5 		ldrb	lr, [r0, #40]	@ zero_extendqisi2
 10835 9034 01005EE1 		cmp	lr, r1
 10836 9038 7900003A 		bcc	.L2717
 10837 903c 0180A0E1 		mov	r8, r1
 10838 9040 0260A0E1 		mov	r6, r2
 10839 9044 882188E0 		add	r2, r8, r8, lsl #3
 10840 9048 14308DE5 		str	r3, [sp, #20]
 10841 904c 022080E0 		add	r2, r0, r2
 10842 9050 0750D2E5 		ldrb	r5, [r2, #7]	@ zero_extendqisi2
 10843 9054 0820D2E5 		ldrb	r2, [r2, #8]	@ zero_extendqisi2
 10844 9058 24C08DE5 		str	ip, [sp, #36]
 10845 905c 7EC0E0E3 		mvn	ip, #126
 10846 9060 0430A0E3 		mov	r3, #4
 10847 9064 0AE0A0E3 		mov	lr, #10
 10848 9068 221CA0E3 		mov	r1, #8704
 10849 906c 080080E0 		add	r0, r0, r8
 10850 9070 2400D0E5 		ldrb	r0, [r0, #36]	@ zero_extendqisi2
 10851 9074 30408DE2 		add	r4, sp, #48
 10852 9078 025485E1 		orr	r5, r5, r2, lsl #8
 10853 907c 28C0CDE5 		strb	ip, [sp, #40]
 10854 9080 082044E2 		sub	r2, r4, #8
 10855 9084 20C08DE2 		add	ip, sp, #32
 10856 9088 2530CDE5 		strb	r3, [sp, #37]
 10857 908c 50369BE5 		ldr	r3, [fp, #1616]
 10858 9090 51B6DBE5 		ldrb	fp, [fp, #1617]	@ zero_extendqisi2
 10859 9094 00208DE5 		str	r2, [sp]
 10860 9098 04E08DE5 		str	lr, [sp, #4]
 10861 909c B40044E1 		strh	r0, [r4, #-4]	@ movhi
 10862 90a0 B61044E1 		strh	r1, [r4, #-6]	@ movhi
 10863 90a4 B25044E1 		strh	r5, [r4, #-2]	@ movhi
 10864 90a8 08C08DE5 		str	ip, [sp, #8]
 10865 90ac 06C0A0E3 		mov	ip, #6
 10866 90b0 1C308DE5 		str	r3, [sp, #28]
 10867 90b4 1DB0CDE5 		strb	fp, [sp, #29]
 10868 90b8 0530A0E1 		mov	r3, r5
 10869 90bc 1C009DE5 		ldr	r0, [sp, #28]
 10870 90c0 24109DE5 		ldr	r1, [sp, #36]
 10871 90c4 0420A0E1 		mov	r2, r4
 10872 90c8 29C0CDE5 		strb	ip, [sp, #41]
 10873 90cc FEFFFFEB 		bl	HCDSubmitControlMessage
 10874 90d0 20309DE5 		ldr	r3, [sp, #32]
 10875 90d4 030055E1 		cmp	r5, r3
 10876 90d8 0900E013 		mvnne	r0, #9
 10877 90dc 1700000A 		beq	.L2730
 10878              	.L2700:
 10879 90e0 004099E5 		ldr	r4, [r9]
 10880 90e4 000054E3 		cmp	r4, #0
 10881 90e8 4500000A 		beq	.L2702
 10882 90ec 00008DE5 		str	r0, [sp]
 10883 90f0 0B30A0E1 		mov	r3, fp
 10884 90f4 0020A0E3 		mov	r2, #0
 10885 90f8 2210A0E3 		mov	r1, #34
 10886 90fc 58019FE5 		ldr	r0, .L2731+4
 10887 9100 34FF2FE1 		blx	r4
ARM GAS  C:\Users\ldebo\AppData\Local\Temp\ccISOhOE.s 			page 192


 10888 9104 004099E5 		ldr	r4, [r9]
 10889 9108 000054E3 		cmp	r4, #0
 10890 910c 3C00000A 		beq	.L2702
 10891 9110 07704AE0 		sub	r7, r10, r7
 10892 9114 079289E0 		add	r9, r9, r7, lsl #4
 10893 9118 383A99E5 		ldr	r3, [r9, #2616]
 10894 911c 5126D9E5 		ldrb	r2, [r9, #1617]	@ zero_extendqisi2
 10895 9120 088083E0 		add	r8, r3, r8
 10896 9124 2410D8E5 		ldrb	r1, [r8, #36]	@ zero_extendqisi2
 10897 9128 30019FE5 		ldr	r0, .L2731+8
 10898 912c 34FF2FE1 		blx	r4
 10899 9130 0300E0E3 		mvn	r0, #3
 10900              	.L2720:
 10901 9134 43DE8DE2 		add	sp, sp, #1072
 10902 9138 04D08DE2 		add	sp, sp, #4
 10903              		@ sp needed
 10904 913c F08FBDE8 		pop	{r4, r5, r6, r7, r8, r9, r10, fp, pc}
 10905              	.L2730:
 10906 9140 000050E3 		cmp	r0, #0
 10907 9144 E5FFFF1A 		bne	.L2700
 10908 9148 14309DE5 		ldr	r3, [sp, #20]
 10909 914c 050053E1 		cmp	r3, r5
 10910 9150 0350A031 		movcc	r5, r3
 10911 9154 000055E3 		cmp	r5, #0
 10912 9158 F5FFFF0A 		beq	.L2720
 10913 915c 030016E3 		tst	r6, #3
 10914 9160 0130A003 		moveq	r3, #1
 10915 9164 0030A013 		movne	r3, #0
 10916 9168 080055E3 		cmp	r5, #8
 10917 916c 0030A093 		movls	r3, #0
 10918 9170 01300382 		andhi	r3, r3, #1
 10919 9174 000053E3 		cmp	r3, #0
 10920 9178 2B00000A 		beq	.L2703
 10921 917c 0610A0E1 		mov	r1, r6
 10922 9180 0030A0E3 		mov	r3, #0
 10923 9184 042045E2 		sub	r2, r5, #4
 10924 9188 2221A0E1 		lsr	r2, r2, #2
 10925 918c 012082E2 		add	r2, r2, #1
 10926 9190 02E1A0E1 		lsl	lr, r2, #2
 10927              	.L2704:
 10928 9194 03C194E7 		ldr	ip, [r4, r3, lsl #2]
 10929 9198 013083E2 		add	r3, r3, #1
 10930 919c 030052E1 		cmp	r2, r3
 10931 91a0 04C081E4 		str	ip, [r1], #4
 10932 91a4 FAFFFF8A 		bhi	.L2704
 10933 91a8 05005EE1 		cmp	lr, r5
 10934 91ac E0FFFF0A 		beq	.L2720
 10935 91b0 433E8DE2 		add	r3, sp, #1072
 10936 91b4 0E3083E0 		add	r3, r3, lr
 10937 91b8 001453E5 		ldrb	r1, [r3, #-1024]	@ zero_extendqisi2
 10938 91bc 01308EE2 		add	r3, lr, #1
 10939 91c0 050053E1 		cmp	r3, r5
 10940 91c4 0211C6E7 		strb	r1, [r6, r2, lsl #2]
 10941 91c8 D9FFFFAA 		bge	.L2720
 10942 91cc 432E8DE2 		add	r2, sp, #1072
 10943 91d0 032082E0 		add	r2, r2, r3
 10944 91d4 02E08EE2 		add	lr, lr, #2
ARM GAS  C:\Users\ldebo\AppData\Local\Temp\ccISOhOE.s 			page 193


 10945 91d8 002452E5 		ldrb	r2, [r2, #-1024]	@ zero_extendqisi2
 10946 91dc 0E0055E1 		cmp	r5, lr
 10947 91e0 0320C6E7 		strb	r2, [r6, r3]
 10948 91e4 D2FFFFDA 		ble	.L2720
 10949 91e8 433E8DE2 		add	r3, sp, #1072
 10950 91ec 0E3083E0 		add	r3, r3, lr
 10951 91f0 003453E5 		ldrb	r3, [r3, #-1024]	@ zero_extendqisi2
 10952 91f4 0E30C6E7 		strb	r3, [r6, lr]
 10953 91f8 43DE8DE2 		add	sp, sp, #1072
 10954 91fc 04D08DE2 		add	sp, sp, #4
 10955              		@ sp needed
 10956 9200 F08FBDE8 		pop	{r4, r5, r6, r7, r8, r9, r10, fp, pc}
 10957              	.L2702:
 10958 9204 0300E0E3 		mvn	r0, #3
 10959 9208 43DE8DE2 		add	sp, sp, #1072
 10960 920c 04D08DE2 		add	sp, sp, #4
 10961              		@ sp needed
 10962 9210 F08FBDE8 		pop	{r4, r5, r6, r7, r8, r9, r10, fp, pc}
 10963              	.L2716:
 10964 9214 0E00E0E3 		mvn	r0, #14
 10965 9218 C5FFFFEA 		b	.L2720
 10966              	.L2714:
 10967 921c 0B00E0E3 		mvn	r0, #11
 10968 9220 C3FFFFEA 		b	.L2720
 10969              	.L2717:
 10970 9224 0D00E0E3 		mvn	r0, #13
 10971 9228 C1FFFFEA 		b	.L2720
 10972              	.L2703:
 10973 922c 015045E2 		sub	r5, r5, #1
 10974 9230 052084E0 		add	r2, r4, r5
 10975 9234 016046E2 		sub	r6, r6, #1
 10976 9238 014044E2 		sub	r4, r4, #1
 10977              	.L2708:
 10978 923c 0130F4E5 		ldrb	r3, [r4, #1]!	@ zero_extendqisi2
 10979 9240 020054E1 		cmp	r4, r2
 10980 9244 0130E6E5 		strb	r3, [r6, #1]!
 10981 9248 FBFFFF1A 		bne	.L2708
 10982 924c B8FFFFEA 		b	.L2720
 10983              	.L2712:
 10984 9250 0100E0E3 		mvn	r0, #1
 10985 9254 1EFF2FE1 		bx	lr
 10986              	.L2732:
 10987              		.align	2
 10988              	.L2731:
 10989 9258 00000000 		.word	.LANCHOR1
 10990 925c E4080000 		.word	.LC78
 10991 9260 28090000 		.word	.LC79
 10992              		.size	HIDReadDescriptor, .-HIDReadDescriptor
 10993              		.align	2
 10994              		.global	HIDReadReport
 10995              		.syntax unified
 10996              		.arm
 10997              		.fpu vfp
 10998              		.type	HIDReadReport, %function
 10999              	HIDReadReport:
 11000              		@ args = 4, pretend = 0, frame = 1040
 11001              		@ frame_needed = 0, uses_anonymous_args = 0
ARM GAS  C:\Users\ldebo\AppData\Local\Temp\ccISOhOE.s 			page 194


 11002 9264 F0472DE9 		push	{r4, r5, r6, r7, r8, r9, r10, lr}
 11003 9268 42DE4DE2 		sub	sp, sp, #1056
 11004 926c 11CD8DE2 		add	ip, sp, #1088
 11005 9270 B060DCE1 		ldrh	r6, [ip]
 11006 9274 00C0A0E3 		mov	ip, #0
 11007 9278 01E046E2 		sub	lr, r6, #1
 11008 927c 0C0053E1 		cmp	r3, ip
 11009 9280 010B5E13 		cmpne	lr, #1024
 11010 9284 10C08DE5 		str	ip, [sp, #16]
 11011 9288 01E0A023 		movcs	lr, #1
 11012 928c 00E0A033 		movcc	lr, #0
 11013 9290 20C0CDE5 		strb	ip, [sp, #32]
 11014 9294 6900002A 		bcs	.L2745
 11015 9298 010040E2 		sub	r0, r0, #1
 11016 929c 70C0EFE6 		uxtb	ip, r0
 11017 92a0 1F005CE3 		cmp	ip, #31
 11018 92a4 6300008A 		bhi	.L2747
 11019 92a8 98C19FE5 		ldr	ip, .L2755
 11020 92ac 000360E0 		rsb	r0, r0, r0, lsl #6
 11021 92b0 0002A0E1 		lsl	r0, r0, #4
 11022 92b4 00508CE0 		add	r5, ip, r0
 11023 92b8 364AD5E5 		ldrb	r4, [r5, #2614]	@ zero_extendqisi2
 11024 92bc 19CD8CE2 		add	ip, ip, #1600
 11025 92c0 0CC08CE2 		add	ip, ip, #12
 11026 92c4 000054E3 		cmp	r4, #0
 11027 92c8 00008CE0 		add	r0, ip, r0
 11028 92cc 5900000A 		beq	.L2747
 11029 92d0 030054E3 		cmp	r4, #3
 11030 92d4 4B00001A 		bne	.L2749
 11031 92d8 38CA95E5 		ldr	ip, [r5, #2616]
 11032 92dc 00005CE3 		cmp	ip, #0
 11033 92e0 4800000A 		beq	.L2749
 11034 92e4 04A0A0E3 		mov	r10, #4
 11035 92e8 0A90A0E3 		mov	r9, #10
 11036 92ec 5E80E0E3 		mvn	r8, #94
 11037 92f0 0170A0E3 		mov	r7, #1
 11038 92f4 20408DE2 		add	r4, sp, #32
 11039 92f8 01C08CE0 		add	ip, ip, r1
 11040 92fc 2410DCE5 		ldrb	r1, [ip, #36]	@ zero_extendqisi2
 11041 9300 0350A0E1 		mov	r5, r3
 11042 9304 083044E2 		sub	r3, r4, #8
 11043 9308 14E08DE5 		str	lr, [sp, #20]
 11044 930c 040090E5 		ldr	r0, [r0, #4]
 11045 9310 15A0CDE5 		strb	r10, [sp, #21]
 11046 9314 08028DE8 		stm	sp, {r3, r9}
 11047 9318 10308DE2 		add	r3, sp, #16
 11048 931c B41044E1 		strh	r1, [r4, #-4]	@ movhi
 11049 9320 B62044E1 		strh	r2, [r4, #-6]	@ movhi
 11050 9324 B26044E1 		strh	r6, [r4, #-2]	@ movhi
 11051 9328 14109DE5 		ldr	r1, [sp, #20]
 11052 932c 08308DE5 		str	r3, [sp, #8]
 11053 9330 0420A0E1 		mov	r2, r4
 11054 9334 0630A0E1 		mov	r3, r6
 11055 9338 1880CDE5 		strb	r8, [sp, #24]
 11056 933c 1970CDE5 		strb	r7, [sp, #25]
 11057 9340 FEFFFFEB 		bl	HCDSubmitControlMessage
 11058 9344 000050E3 		cmp	r0, #0
ARM GAS  C:\Users\ldebo\AppData\Local\Temp\ccISOhOE.s 			page 195


 11059 9348 2C00001A 		bne	.L2734
 11060 934c 10309DE5 		ldr	r3, [sp, #16]
 11061 9350 030056E1 		cmp	r6, r3
 11062 9354 10608D35 		strcc	r6, [sp, #16]
 11063 9358 0630A031 		movcc	r3, r6
 11064 935c 0100003A 		bcc	.L2736
 11065 9360 000053E3 		cmp	r3, #0
 11066 9364 2500000A 		beq	.L2734
 11067              	.L2736:
 11068 9368 030015E3 		tst	r5, #3
 11069 936c 0120A003 		moveq	r2, #1
 11070 9370 0020A013 		movne	r2, #0
 11071 9374 080053E3 		cmp	r3, #8
 11072 9378 0020A093 		movls	r2, #0
 11073 937c 01200282 		andhi	r2, r2, #1
 11074 9380 000052E3 		cmp	r2, #0
 11075 9384 2200000A 		beq	.L2737
 11076 9388 0510A0E1 		mov	r1, r5
 11077 938c 0020A0E3 		mov	r2, #0
 11078 9390 04E043E2 		sub	lr, r3, #4
 11079 9394 2EE1A0E1 		lsr	lr, lr, #2
 11080 9398 01E08EE2 		add	lr, lr, #1
 11081 939c 0E61A0E1 		lsl	r6, lr, #2
 11082              	.L2738:
 11083 93a0 02C194E7 		ldr	ip, [r4, r2, lsl #2]
 11084 93a4 012082E2 		add	r2, r2, #1
 11085 93a8 02005EE1 		cmp	lr, r2
 11086 93ac 04C081E4 		str	ip, [r1], #4
 11087 93b0 FAFFFF8A 		bhi	.L2738
 11088 93b4 030056E1 		cmp	r6, r3
 11089 93b8 1000000A 		beq	.L2734
 11090 93bc 422E8DE2 		add	r2, sp, #1056
 11091 93c0 062082E0 		add	r2, r2, r6
 11092 93c4 001452E5 		ldrb	r1, [r2, #-1024]	@ zero_extendqisi2
 11093 93c8 012086E2 		add	r2, r6, #1
 11094 93cc 030052E1 		cmp	r2, r3
 11095 93d0 0E11C5E7 		strb	r1, [r5, lr, lsl #2]
 11096 93d4 0900002A 		bcs	.L2734
 11097 93d8 421E8DE2 		add	r1, sp, #1056
 11098 93dc 021081E0 		add	r1, r1, r2
 11099 93e0 026086E2 		add	r6, r6, #2
 11100 93e4 001451E5 		ldrb	r1, [r1, #-1024]	@ zero_extendqisi2
 11101 93e8 030056E1 		cmp	r6, r3
 11102 93ec 0210C5E7 		strb	r1, [r5, r2]
 11103 93f0 423E8D32 		addcc	r3, sp, #1056
 11104 93f4 06308330 		addcc	r3, r3, r6
 11105 93f8 00345335 		ldrbcc	r3, [r3, #-1024]	@ zero_extendqisi2
 11106 93fc 0630C537 		strbcc	r3, [r5, r6]
 11107              	.L2734:
 11108 9400 42DE8DE2 		add	sp, sp, #1056
 11109              		@ sp needed
 11110 9404 F087BDE8 		pop	{r4, r5, r6, r7, r8, r9, r10, pc}
 11111              	.L2749:
 11112 9408 0E00E0E3 		mvn	r0, #14
 11113 940c 42DE8DE2 		add	sp, sp, #1056
 11114              		@ sp needed
 11115 9410 F087BDE8 		pop	{r4, r5, r6, r7, r8, r9, r10, pc}
ARM GAS  C:\Users\ldebo\AppData\Local\Temp\ccISOhOE.s 			page 196


 11116              	.L2737:
 11117 9414 013043E2 		sub	r3, r3, #1
 11118 9418 03C084E0 		add	ip, r4, r3
 11119 941c 012044E2 		sub	r2, r4, #1
 11120 9420 013045E2 		sub	r3, r5, #1
 11121              	.L2743:
 11122 9424 0110F2E5 		ldrb	r1, [r2, #1]!	@ zero_extendqisi2
 11123 9428 0C0052E1 		cmp	r2, ip
 11124 942c 0110E3E5 		strb	r1, [r3, #1]!
 11125 9430 FBFFFF1A 		bne	.L2743
 11126 9434 F1FFFFEA 		b	.L2734
 11127              	.L2747:
 11128 9438 0B00E0E3 		mvn	r0, #11
 11129 943c EFFFFFEA 		b	.L2734
 11130              	.L2745:
 11131 9440 0100E0E3 		mvn	r0, #1
 11132 9444 EDFFFFEA 		b	.L2734
 11133              	.L2756:
 11134              		.align	2
 11135              	.L2755:
 11136 9448 00000000 		.word	.LANCHOR1
 11137              		.size	HIDReadReport, .-HIDReadReport
 11138              		.align	2
 11139              		.global	HIDWriteReport
 11140              		.syntax unified
 11141              		.arm
 11142              		.fpu vfp
 11143              		.type	HIDWriteReport, %function
 11144              	HIDWriteReport:
 11145              		@ args = 4, pretend = 0, frame = 1040
 11146              		@ frame_needed = 0, uses_anonymous_args = 0
 11147 944c F0472DE9 		push	{r4, r5, r6, r7, r8, r9, r10, lr}
 11148 9450 0050A0E3 		mov	r5, #0
 11149 9454 42DE4DE2 		sub	sp, sp, #1056
 11150 9458 11CD8DE2 		add	ip, sp, #1088
 11151 945c B040DCE1 		ldrh	r4, [ip]
 11152 9460 10508DE5 		str	r5, [sp, #16]
 11153 9464 01E044E2 		sub	lr, r4, #1
 11154 9468 7EC0FFE6 		uxth	ip, lr
 11155 946c 050053E1 		cmp	r3, r5
 11156 9470 010B5C13 		cmpne	ip, #1024
 11157 9474 01C0A023 		movcs	ip, #1
 11158 9478 00C0A033 		movcc	ip, #0
 11159 947c 6400002A 		bcs	.L2767
 11160 9480 010040E2 		sub	r0, r0, #1
 11161 9484 7050EFE6 		uxtb	r5, r0
 11162 9488 1F0055E3 		cmp	r5, #31
 11163 948c 5E00008A 		bhi	.L2769
 11164 9490 84519FE5 		ldr	r5, .L2778
 11165 9494 000360E0 		rsb	r0, r0, r0, lsl #6
 11166 9498 0002A0E1 		lsl	r0, r0, #4
 11167 949c 008085E0 		add	r8, r5, r0
 11168 94a0 367AD8E5 		ldrb	r7, [r8, #2614]	@ zero_extendqisi2
 11169 94a4 196D85E2 		add	r6, r5, #1600
 11170 94a8 0C6086E2 		add	r6, r6, #12
 11171 94ac 000057E3 		cmp	r7, #0
 11172 94b0 006086E0 		add	r6, r6, r0
ARM GAS  C:\Users\ldebo\AppData\Local\Temp\ccISOhOE.s 			page 197


 11173 94b4 5400000A 		beq	.L2769
 11174 94b8 030057E3 		cmp	r7, #3
 11175 94bc 5000001A 		bne	.L2771
 11176 94c0 387A98E5 		ldr	r7, [r8, #2616]
 11177 94c4 000057E3 		cmp	r7, #0
 11178 94c8 4D00000A 		beq	.L2771
 11179 94cc 030013E3 		tst	r3, #3
 11180 94d0 0100A003 		moveq	r0, #1
 11181 94d4 0000A013 		movne	r0, #0
 11182 94d8 080054E3 		cmp	r4, #8
 11183 94dc 0000A093 		movls	r0, #0
 11184 94e0 01000082 		andhi	r0, r0, #1
 11185 94e4 000050E3 		cmp	r0, #0
 11186 94e8 3C00000A 		beq	.L2759
 11187 94ec 048044E2 		sub	r8, r4, #4
 11188 94f0 2881A0E1 		lsr	r8, r8, #2
 11189 94f4 018088E2 		add	r8, r8, #1
 11190 94f8 0C00A0E1 		mov	r0, ip
 11191 94fc 0891A0E1 		lsl	r9, r8, #2
 11192 9500 04C043E2 		sub	ip, r3, #4
 11193 9504 20508DE2 		add	r5, sp, #32
 11194              	.L2760:
 11195 9508 04E0BCE5 		ldr	lr, [ip, #4]!
 11196 950c 00E185E7 		str	lr, [r5, r0, lsl #2]
 11197 9510 010080E2 		add	r0, r0, #1
 11198 9514 000058E1 		cmp	r8, r0
 11199 9518 FAFFFF8A 		bhi	.L2760
 11200 951c 090054E1 		cmp	r4, r9
 11201 9520 1000000A 		beq	.L2766
 11202 9524 08E1D3E7 		ldrb	lr, [r3, r8, lsl #2]	@ zero_extendqisi2
 11203 9528 010089E2 		add	r0, r9, #1
 11204 952c 42CE8DE2 		add	ip, sp, #1056
 11205 9530 09C08CE0 		add	ip, ip, r9
 11206 9534 040050E1 		cmp	r0, r4
 11207 9538 00E44CE5 		strb	lr, [ip, #-1024]
 11208 953c 090000AA 		bge	.L2766
 11209 9540 00C0D3E7 		ldrb	ip, [r3, r0]	@ zero_extendqisi2
 11210 9544 029089E2 		add	r9, r9, #2
 11211 9548 42EE8DE2 		add	lr, sp, #1056
 11212 954c 00008EE0 		add	r0, lr, r0
 11213 9550 090054E1 		cmp	r4, r9
 11214 9554 00C440E5 		strb	ip, [r0, #-1024]
 11215 9558 0930D3C7 		ldrbgt	r3, [r3, r9]	@ zero_extendqisi2
 11216 955c 420E8DC2 		addgt	r0, sp, #1056
 11217 9560 099080C0 		addgt	r9, r0, r9
 11218 9564 003449C5 		strbgt	r3, [r9, #-1024]
 11219              	.L2766:
 11220 9568 0AA0A0E3 		mov	r10, #10
 11221 956c 00C0A0E3 		mov	ip, #0
 11222 9570 0290A0E1 		mov	r9, r2
 11223 9574 09E0A0E3 		mov	lr, #9
 11224 9578 2180A0E3 		mov	r8, #33
 11225 957c 017087E0 		add	r7, r7, r1
 11226 9580 2410D7E5 		ldrb	r1, [r7, #36]	@ zero_extendqisi2
 11227 9584 083045E2 		sub	r3, r5, #8
 11228 9588 040096E5 		ldr	r0, [r6, #4]
 11229 958c 00308DE5 		str	r3, [sp]
ARM GAS  C:\Users\ldebo\AppData\Local\Temp\ccISOhOE.s 			page 198


 11230 9590 04A08DE5 		str	r10, [sp, #4]
 11231 9594 B41045E1 		strh	r1, [r5, #-4]	@ movhi
 11232 9598 10108DE2 		add	r1, sp, #16
 11233 959c B69045E1 		strh	r9, [r5, #-6]	@ movhi
 11234 95a0 0520A0E1 		mov	r2, r5
 11235 95a4 08108DE5 		str	r1, [sp, #8]
 11236 95a8 0430A0E1 		mov	r3, r4
 11237 95ac 0C10A0E1 		mov	r1, ip
 11238 95b0 B24045E1 		strh	r4, [r5, #-2]	@ movhi
 11239 95b4 14C08DE5 		str	ip, [sp, #20]
 11240 95b8 1880CDE5 		strb	r8, [sp, #24]
 11241 95bc 19E0CDE5 		strb	lr, [sp, #25]
 11242 95c0 FEFFFFEB 		bl	HCDSubmitControlMessage
 11243 95c4 000050E3 		cmp	r0, #0
 11244 95c8 0200001A 		bne	.L2758
 11245 95cc 10009DE5 		ldr	r0, [sp, #16]
 11246 95d0 040050E0 		subs	r0, r0, r4
 11247 95d4 0000E013 		mvnne	r0, #0
 11248              	.L2758:
 11249 95d8 42DE8DE2 		add	sp, sp, #1056
 11250              		@ sp needed
 11251 95dc F087BDE8 		pop	{r4, r5, r6, r7, r8, r9, r10, pc}
 11252              	.L2759:
 11253 95e0 20508DE2 		add	r5, sp, #32
 11254 95e4 010043E2 		sub	r0, r3, #1
 11255 95e8 0EE085E0 		add	lr, r5, lr
 11256 95ec 013045E2 		sub	r3, r5, #1
 11257              	.L2765:
 11258 95f0 01C0F0E5 		ldrb	ip, [r0, #1]!	@ zero_extendqisi2
 11259 95f4 01C0E3E5 		strb	ip, [r3, #1]!
 11260 95f8 0E0053E1 		cmp	r3, lr
 11261 95fc FBFFFF1A 		bne	.L2765
 11262 9600 D8FFFFEA 		b	.L2766
 11263              	.L2771:
 11264 9604 0E00E0E3 		mvn	r0, #14
 11265 9608 F2FFFFEA 		b	.L2758
 11266              	.L2769:
 11267 960c 0B00E0E3 		mvn	r0, #11
 11268 9610 F0FFFFEA 		b	.L2758
 11269              	.L2767:
 11270 9614 0100E0E3 		mvn	r0, #1
 11271 9618 EEFFFFEA 		b	.L2758
 11272              	.L2779:
 11273              		.align	2
 11274              	.L2778:
 11275 961c 00000000 		.word	.LANCHOR1
 11276              		.size	HIDWriteReport, .-HIDWriteReport
 11277              		.align	2
 11278              		.global	HIDSetProtocol
 11279              		.syntax unified
 11280              		.arm
 11281              		.fpu vfp
 11282              		.type	HIDSetProtocol, %function
 11283              	HIDSetProtocol:
 11284              		@ args = 0, pretend = 0, frame = 16
 11285              		@ frame_needed = 0, uses_anonymous_args = 0
 11286 9620 010040E2 		sub	r0, r0, #1
ARM GAS  C:\Users\ldebo\AppData\Local\Temp\ccISOhOE.s 			page 199


 11287 9624 7030EFE6 		uxtb	r3, r0
 11288 9628 1F0053E3 		cmp	r3, #31
 11289 962c 2300008A 		bhi	.L2782
 11290 9630 98309FE5 		ldr	r3, .L2790
 11291 9634 000360E0 		rsb	r0, r0, r0, lsl #6
 11292 9638 30402DE9 		push	{r4, r5, lr}
 11293 963c 0002A0E1 		lsl	r0, r0, #4
 11294 9640 00E083E0 		add	lr, r3, r0
 11295 9644 36CADEE5 		ldrb	ip, [lr, #2614]	@ zero_extendqisi2
 11296 9648 193D83E2 		add	r3, r3, #1600
 11297 964c 0C3083E2 		add	r3, r3, #12
 11298 9650 00005CE3 		cmp	ip, #0
 11299 9654 14D04DE2 		sub	sp, sp, #20
 11300 9658 000083E0 		add	r0, r3, r0
 11301 965c 1900000A 		beq	.L2783
 11302 9660 03005CE3 		cmp	ip, #3
 11303 9664 1200001A 		bne	.L2785
 11304 9668 383A9EE5 		ldr	r3, [lr, #2616]
 11305 966c 000053E3 		cmp	r3, #0
 11306 9670 0F00000A 		beq	.L2785
 11307 9674 00E0A0E3 		mov	lr, #0
 11308 9678 02C0A0E1 		mov	ip, r2
 11309 967c 0130A0E1 		mov	r3, r1
 11310 9680 2150A0E3 		mov	r5, #33
 11311 9684 0B40A0E3 		mov	r4, #11
 11312 9688 040090E5 		ldr	r0, [r0, #4]
 11313 968c 0E10A0E1 		mov	r1, lr
 11314 9690 08208DE2 		add	r2, sp, #8
 11315 9694 BAC0CDE1 		strh	ip, [sp, #10]	@ movhi
 11316 9698 BC30CDE1 		strh	r3, [sp, #12]	@ movhi
 11317 969c BEE0CDE1 		strh	lr, [sp, #14]	@ movhi
 11318 96a0 0850CDE5 		strb	r5, [sp, #8]
 11319 96a4 0940CDE5 		strb	r4, [sp, #9]
 11320 96a8 26E1FFEB 		bl	HCDSubmitControlMessage.constprop.6
 11321              	.L2781:
 11322 96ac 14D08DE2 		add	sp, sp, #20
 11323              		@ sp needed
 11324 96b0 3080BDE8 		pop	{r4, r5, pc}
 11325              	.L2785:
 11326 96b4 0E00E0E3 		mvn	r0, #14
 11327 96b8 14D08DE2 		add	sp, sp, #20
 11328              		@ sp needed
 11329 96bc 3080BDE8 		pop	{r4, r5, pc}
 11330              	.L2782:
 11331 96c0 0B00E0E3 		mvn	r0, #11
 11332 96c4 1EFF2FE1 		bx	lr
 11333              	.L2783:
 11334 96c8 0B00E0E3 		mvn	r0, #11
 11335 96cc F6FFFFEA 		b	.L2781
 11336              	.L2791:
 11337              		.align	2
 11338              	.L2790:
 11339 96d0 00000000 		.word	.LANCHOR1
 11340              		.size	HIDSetProtocol, .-HIDSetProtocol
 11341              		.global	SpeedString
 11342              		.section	.rodata
 11343              		.align	2
ARM GAS  C:\Users\ldebo\AppData\Local\Temp\ccISOhOE.s 			page 200


 11344              		.set	.LANCHOR0,. + 0
 11345              	.LC1:
 11346 0000 55534220 		.ascii	"USB Audio Device\000\000"
 11346      41756469 
 11346      6F204465 
 11346      76696365 
 11346      0000
 11347 0012 0000     		.space	2
 11348              	.LC2:
 11349 0014 55534220 		.ascii	"USB CDC Device\000\000"
 11349      43444320 
 11349      44657669 
 11349      63650000 
 11350              	.LC3:
 11351 0024 55534220 		.ascii	"USB Keyboard\000\000"
 11351      4B657962 
 11351      6F617264 
 11351      0000
 11352 0032 0000     		.space	2
 11353              	.LC4:
 11354 0034 55534220 		.ascii	"USB Mouse\000\000"
 11354      4D6F7573 
 11354      650000
 11355 003f 00       		.space	1
 11356              	.LC5:
 11357 0040 55534220 		.ascii	"USB HID\000\000"
 11357      48494400 
 11357      00
 11358 0049 000000   		.space	3
 11359              	.LC6:
 11360 004c 55534220 		.ascii	"USB Physical Device\000\000"
 11360      50687973 
 11360      6963616C 
 11360      20446576 
 11360      69636500 
 11361 0061 000000   		.space	3
 11362              	.LC7:
 11363 0064 55534220 		.ascii	"USB Imaging Device\000\000"
 11363      496D6167 
 11363      696E6720 
 11363      44657669 
 11363      63650000 
 11364              	.LC8:
 11365 0078 55534220 		.ascii	"USB Printer\000\000"
 11365      5072696E 
 11365      74657200 
 11365      00
 11366 0085 000000   		.space	3
 11367              	.LC9:
 11368 0088 55534220 		.ascii	"USB Mass Storage Device\000\000"
 11368      4D617373 
 11368      2053746F 
 11368      72616765 
 11368      20446576 
 11369 00a1 000000   		.space	3
 11370              	.LC10:
 11371 00a4 55534220 		.ascii	"USB 2.1 Hub\000\000"
ARM GAS  C:\Users\ldebo\AppData\Local\Temp\ccISOhOE.s 			page 201


 11371      322E3120 
 11371      48756200 
 11371      00
 11372 00b1 000000   		.space	3
 11373              	.LC11:
 11374 00b4 55534220 		.ascii	"USB 2.0 Hub\000\000"
 11374      322E3020 
 11374      48756200 
 11374      00
 11375 00c1 000000   		.space	3
 11376              	.LC12:
 11377 00c4 55534220 		.ascii	"USB 1.1 Hub\000\000"
 11377      312E3120 
 11377      48756200 
 11377      00
 11378 00d1 000000   		.space	3
 11379              	.LC13:
 11380 00d4 55534220 		.ascii	"USB 1.0 Hub\000\000"
 11380      312E3020 
 11380      48756200 
 11380      00
 11381 00e1 000000   		.space	3
 11382              	.LC14:
 11383 00e4 55534220 		.ascii	"USB Hub\000\000"
 11383      48756200 
 11383      00
 11384 00ed 000000   		.space	3
 11385              	.LC15:
 11386 00f0 55534220 		.ascii	"USB CDC-Data Device\000\000"
 11386      4344432D 
 11386      44617461 
 11386      20446576 
 11386      69636500 
 11387 0105 000000   		.space	3
 11388              	.LC16:
 11389 0108 55534220 		.ascii	"USB Smart Card\000\000"
 11389      536D6172 
 11389      74204361 
 11389      72640000 
 11390              	.LC17:
 11391 0118 55534220 		.ascii	"USB Content Secuity Device\000\000"
 11391      436F6E74 
 11391      656E7420 
 11391      53656375 
 11391      69747920 
 11392              	.LC18:
 11393 0134 55534220 		.ascii	"USB Video Device\000\000"
 11393      56696465 
 11393      6F204465 
 11393      76696365 
 11393      0000
 11394 0146 0000     		.space	2
 11395              	.LC19:
 11396 0148 55534220 		.ascii	"USB Healthcare Device\000\000"
 11396      4865616C 
 11396      74686361 
 11396      72652044 
ARM GAS  C:\Users\ldebo\AppData\Local\Temp\ccISOhOE.s 			page 202


 11396      65766963 
 11397 015f 00       		.space	1
 11398              	.LC20:
 11399 0160 55534220 		.ascii	"USB AV Device\000\000"
 11399      41562044 
 11399      65766963 
 11399      650000
 11400 016f 00       		.space	1
 11401              	.LC21:
 11402 0170 55534220 		.ascii	"USB Diagnostic Device\000\000"
 11402      44696167 
 11402      6E6F7374 
 11402      69632044 
 11402      65766963 
 11403 0187 00       		.space	1
 11404              	.LC22:
 11405 0188 55534220 		.ascii	"USB Wireless Controller\000\000"
 11405      57697265 
 11405      6C657373 
 11405      20436F6E 
 11405      74726F6C 
 11406 01a1 000000   		.space	3
 11407              	.LC23:
 11408 01a4 55534220 		.ascii	"USB Miscellaneous Device\000\000"
 11408      4D697363 
 11408      656C6C61 
 11408      6E656F75 
 11408      73204465 
 11409 01be 0000     		.space	2
 11410              	.LC24:
 11411 01c0 56656E64 		.ascii	"Vendor Specific\000\000"
 11411      6F722053 
 11411      70656369 
 11411      66696300 
 11411      00
 11412 01d1 000000   		.space	3
 11413              	.LC25:
 11414 01d4 47656E65 		.ascii	"Generic Device\000\000"
 11414      72696320 
 11414      44657669 
 11414      63650000 
 11415              		.type	RootHubDeviceDescriptor, %object
 11416              		.size	RootHubDeviceDescriptor, 18
 11417              	RootHubDeviceDescriptor:
 11418 01e4 12       		.byte	18
 11419 01e5 01       		.byte	1
 11420 01e6 0002     		.short	512
 11421 01e8 09       		.byte	9
 11422 01e9 00       		.byte	0
 11423 01ea 00       		.byte	0
 11424 01eb 40       		.byte	64
 11425 01ec 0000     		.short	0
 11426 01ee 0000     		.short	0
 11427 01f0 0001     		.short	256
 11428 01f2 00       		.byte	0
 11429 01f3 01       		.byte	1
 11430 01f4 00       		.byte	0
ARM GAS  C:\Users\ldebo\AppData\Local\Temp\ccISOhOE.s 			page 203


 11431 01f5 01       		.byte	1
 11432 01f6 0000     		.space	2
 11433              		.type	RootHubString0, %object
 11434              		.size	RootHubString0, 4
 11435              	RootHubString0:
 11436 01f8 04       		.byte	4
 11437 01f9 03       		.byte	3
 11438 01fa 0904     		.short	1033
 11439              		.type	RootHubString1, %object
 11440              		.size	RootHubString1, 42
 11441              	RootHubString1:
 11442 01fc 2A       		.byte	42
 11443 01fd 03       		.byte	3
 11444 01fe 46004100 		.ascii	"F\000A\000K\000E\000D\000 \000R\000o\000o\000t\000 "
 11444      4B004500 
 11444      44002000 
 11444      52006F00 
 11444      6F007400 
 11445 0213 00480075 		.ascii	"\000H\000u\000b\000 \000(\000t\000m\000)\000\000\000"
 11445      00620020 
 11445      00280074 
 11445      006D0029 
 11445      000000
 11446 0226 0000     		.space	2
 11447              		.type	RootHubString2, %object
 11448              		.size	RootHubString2, 40
 11449              	RootHubString2:
 11450 0228 28       		.byte	40
 11451 0229 03       		.byte	3
 11452 022a 46004100 		.ascii	"F\000A\000K\000E\000 \000c\000o\000n\000f\000i\000g"
 11452      4B004500 
 11452      20006300 
 11452      6F006E00 
 11452      66006900 
 11453 023f 00200073 		.ascii	"\000 \000s\000t\000r\000i\000n\000g\000\000\000"
 11453      00740072 
 11453      0069006E 
 11453      00670000 
 11453      00
 11454              		.type	RootHubDescriptor, %object
 11455              		.size	RootHubDescriptor, 9
 11456              	RootHubDescriptor:
 11457 0250 09       		.byte	9
 11458 0251 29       		.byte	41
 11459 0252 01       		.byte	1
 11460 0253 00       		.byte	0
 11461 0254 00       		.space	1
 11462 0255 00       		.byte	0
 11463 0256 00       		.byte	0
 11464 0257 02       		.byte	2
 11465 0258 FF       		.byte	-1
 11466 0259 000000   		.space	3
 11467              	.LC66:
 11468 025c 4E657720 		.ascii	"New Device (Not Ready)\000\000"
 11468      44657669 
 11468      63652028 
 11468      4E6F7420 
ARM GAS  C:\Users\ldebo\AppData\Local\Temp\ccISOhOE.s 			page 204


 11468      52656164 
 11469              	.LC67:
 11470 0274 556E6B6E 		.ascii	"Unknown Device (Not Ready)\000\000"
 11470      6F776E20 
 11470      44657669 
 11470      63652028 
 11470      4E6F7420 
 11471              	.LC68:
 11472 0290 55534220 		.ascii	"USB Root Hub\000\000"
 11472      526F6F74 
 11472      20487562 
 11472      0000
 11473 029e 0000     		.space	2
 11474              	.LC69:
 11475 02a0 534D5343 		.ascii	"SMSC LAN9512\000\000"
 11475      204C414E 
 11475      39353132 
 11475      0000
 11476 02ae 0000     		.space	2
 11477              	.LC70:
 11478 02b0 556E636F 		.ascii	"Unconfigured Device\000\000"
 11478      6E666967 
 11478      75726564 
 11478      20446576 
 11478      69636500 
 11479              		.data
 11480              		.align	2
 11481              		.set	.LANCHOR2,. + 0
 11482              		.type	RootHubConfigurationDescriptor, %object
 11483              		.size	RootHubConfigurationDescriptor, 25
 11484              	RootHubConfigurationDescriptor:
 11485 0000 09       		.byte	9
 11486 0001 02       		.byte	2
 11487 0002 1900     		.short	25
 11488 0004 01       		.byte	1
 11489 0005 01       		.byte	1
 11490 0006 02       		.byte	2
 11491 0007 C0       		.byte	192
 11492 0008 00       		.byte	0
 11493 0009 09       		.byte	9
 11494 000a 04       		.byte	4
 11495 000b 00       		.byte	0
 11496 000c 00       		.byte	0
 11497 000d 01       		.byte	1
 11498 000e 09       		.byte	9
 11499 000f 00       		.byte	0
 11500 0010 00       		.byte	0
 11501 0011 00       		.byte	0
 11502 0012 07       		.byte	7
 11503 0013 05       		.byte	5
 11504 0014 81       		.byte	129
 11505 0015 03       		.byte	3
 11506 0016 40       		.byte	64
 11507 0017 00       		.byte	0
 11508 0018 FF       		.byte	-1
 11509 0019 000000   		.space	3
 11510              		.type	SpeedString, %object
ARM GAS  C:\Users\ldebo\AppData\Local\Temp\ccISOhOE.s 			page 205


 11511              		.size	SpeedString, 12
 11512              	SpeedString:
 11513 001c 48150000 		.word	.LC141
 11514 0020 50150000 		.word	.LC142
 11515 0024 58150000 		.word	.LC143
 11516              		.bss
 11517              		.align	2
 11518              		.set	.LANCHOR1,. + 0
 11519              		.set	.LANCHOR3,. + 32736
 11520              		.type	LogMsgHandler, %object
 11521              		.size	LogMsgHandler, 4
 11522              	LogMsgHandler:
 11523 0000 00000000 		.space	4
 11524              		.type	DbgMsgHandler, %object
 11525              		.size	DbgMsgHandler, 4
 11526              	DbgMsgHandler:
 11527 0004 00000000 		.space	4
 11528              		.type	RootHubDeviceNumber, %object
 11529              		.size	RootHubDeviceNumber, 1
 11530              	RootHubDeviceNumber:
 11531 0008 00       		.space	1
 11532              		.type	PhyInitialised, %object
 11533              		.size	PhyInitialised, 1
 11534              	PhyInitialised:
 11535 0009 00       		.space	1
 11536 000a 0000     		.space	2
 11537              		.type	HidTable, %object
 11538              		.size	HidTable, 704
 11539              	HidTable:
 11540 000c 00000000 		.space	704
 11540      00000000 
 11540      00000000 
 11540      00000000 
 11540      00000000 
 11541              		.type	HubTable, %object
 11542              		.size	HubTable, 896
 11543              	HubTable:
 11544 02cc 00000000 		.space	896
 11544      00000000 
 11544      00000000 
 11544      00000000 
 11544      00000000 
 11545              		.type	DeviceTable, %object
 11546              		.size	DeviceTable, 32256
 11547              	DeviceTable:
 11548 064c 00000000 		.space	32256
 11548      00000000 
 11548      00000000 
 11548      00000000 
 11548      00000000 
 11549              		.type	TreeLevelInUse, %object
 11550              		.size	TreeLevelInUse, 80
 11551              	TreeLevelInUse:
 11552 844c 00000000 		.space	80
 11552      00000000 
 11552      00000000 
 11552      00000000 
ARM GAS  C:\Users\ldebo\AppData\Local\Temp\ccISOhOE.s 			page 206


 11552      00000000 
 11553              		.section	.rodata.str1.4,"aMS",%progbits,1
 11554              		.align	2
 11555              	.LC26:
 11556 0000 50687973 		.ascii	"Physical host power off\012\000"
 11556      6963616C 
 11556      20686F73 
 11556      7420706F 
 11556      77657220 
 11557 0019 000000   		.space	3
 11558              	.LC27:
 11559 001c 52657365 		.ascii	"Reset physical port .. rootHub %i\012\000"
 11559      74207068 
 11559      79736963 
 11559      616C2070 
 11559      6F727420 
 11560 003f 00       		.space	1
 11561              	.LC28:
 11562 0040 50687973 		.ascii	"Physical host power on\012\000"
 11562      6963616C 
 11562      20686F73 
 11562      7420706F 
 11562      77657220 
 11563              	.LC29:
 11564 0058 4843443A 		.ascii	"HCD: Master reset.\012\000"
 11564      204D6173 
 11564      74657220 
 11564      72657365 
 11564      742E0A00 
 11565              	.LC30:
 11566 006c 46415441 		.ascii	"FATAL ERROR: Could not do a Master reset on HCD.\012"
 11566      4C204552 
 11566      524F523A 
 11566      20436F75 
 11566      6C64206E 
 11567 009d 00       		.ascii	"\000"
 11568 009e 0000     		.space	2
 11569              	.LC31:
 11570 00a0 4843443A 		.ascii	"HCD: One time phy initialisation.\012\000"
 11570      204F6E65 
 11570      2074696D 
 11570      65207068 
 11570      7920696E 
 11571 00c3 00       		.space	1
 11572              	.LC32:
 11573 00c4 4843443A 		.ascii	"HCD: Interface: UTMI+.\012\000"
 11573      20496E74 
 11573      65726661 
 11573      63653A20 
 11573      55544D49 
 11574              	.LC33:
 11575 00dc 4843443A 		.ascii	"HCD: ULPI FSLS configuration: enabled.\012\000"
 11575      20554C50 
 11575      49204653 
 11575      4C532063 
 11575      6F6E6669 
 11576              	.LC34:
ARM GAS  C:\Users\ldebo\AppData\Local\Temp\ccISOhOE.s 			page 207


 11577 0104 4843443A 		.ascii	"HCD: ULPI FSLS configuration: disabled.\012\000"
 11577      20554C50 
 11577      49204653 
 11577      4C532063 
 11577      6F6E6669 
 11578 012d 000000   		.space	3
 11579              	.LC35:
 11580 0130 4843443A 		.ascii	"HCD: HNP/SRP configuration: HNP, SRP.\012\000"
 11580      20484E50 
 11580      2F535250 
 11580      20636F6E 
 11580      66696775 
 11581 0157 00       		.space	1
 11582              	.LC36:
 11583 0158 4843443A 		.ascii	"HCD: HNP/SRP configuration: SRP.\012\000"
 11583      20484E50 
 11583      2F535250 
 11583      20636F6E 
 11583      66696775 
 11584 017a 0000     		.space	2
 11585              	.LC37:
 11586 017c 4843443A 		.ascii	"HCD: HNP/SRP configuration: none.\012\000"
 11586      20484E50 
 11586      2F535250 
 11586      20636F6E 
 11586      66696775 
 11587 019f 00       		.space	1
 11588              	.LC38:
 11589 01a0 4843443A 		.ascii	"HCD: Core started.\012\000"
 11589      20436F72 
 11589      65207374 
 11589      61727465 
 11589      642E0A00 
 11590              	.LC39:
 11591 01b4 4843443A 		.ascii	"HCD: Starting host.\012\000"
 11591      20537461 
 11591      7274696E 
 11591      6720686F 
 11591      73742E0A 
 11592 01c9 000000   		.space	3
 11593              	.LC40:
 11594 01cc 4843443A 		.ascii	"HCD: Host clock: 48Mhz.\012\000"
 11594      20486F73 
 11594      7420636C 
 11594      6F636B3A 
 11594      2034384D 
 11595 01e5 000000   		.space	3
 11596              	.LC41:
 11597 01e8 4843443A 		.ascii	"HCD: Host clock: 30-60Mhz.\012\000"
 11597      20486F73 
 11597      7420636C 
 11597      6F636B3A 
 11597      2033302D 
 11598              	.LC42:
 11599 0204 4843443A 		.ascii	"HCD: Set HNP: enabled.\012\000"
 11599      20536574 
 11599      20484E50 
ARM GAS  C:\Users\ldebo\AppData\Local\Temp\ccISOhOE.s 			page 208


 11599      3A20656E 
 11599      61626C65 
 11600              	.LC43:
 11601 021c 4843443A 		.ascii	"HCD: Unable to clear halt on channel %i.\012\000"
 11601      20556E61 
 11601      626C6520 
 11601      746F2063 
 11601      6C656172 
 11602 0246 0000     		.space	2
 11603              	.LC44:
 11604 0248 4843443A 		.ascii	"HCD: Initial power physical host up.\012\000"
 11604      20496E69 
 11604      7469616C 
 11604      20706F77 
 11604      65722070 
 11605 026e 0000     		.space	2
 11606              	.LC45:
 11607 0270 4843443A 		.ascii	"HCD: Initial resetting physical host.\012\000"
 11607      20496E69 
 11607      7469616C 
 11607      20726573 
 11607      65747469 
 11608 0297 00       		.space	1
 11609              	.LC46:
 11610 0298 4843443A 		.ascii	"HCD: Successfully started.\012\000"
 11610      20537563 
 11610      63657373 
 11610      66756C6C 
 11610      79207374 
 11611              	.LC47:
 11612 02b4 4843443A 		.ascii	"HCD: Channel %d is not available on this host.\012\000"
 11612      20436861 
 11612      6E6E656C 
 11612      20256420 
 11612      6973206E 
 11613              	.LC48:
 11614 02e4 53657474 		.ascii	"Setting split control, addr: %i port: %i, packetSiz"
 11614      696E6720 
 11614      73706C69 
 11614      7420636F 
 11614      6E74726F 
 11615 0317 653A2050 		.ascii	"e: PacketSize: %i\012\000"
 11615      61636B65 
 11615      7453697A 
 11615      653A2025 
 11615      690A00
 11616 032a 0000     		.space	2
 11617              	.LC49:
 11618 032c 4843443A 		.ascii	"HCD: Transfer buffer %08x is not DWORD aligned. Ign"
 11618      20547261 
 11618      6E736665 
 11618      72206275 
 11618      66666572 
 11619 035f 6F726564 		.ascii	"ored, but dangerous.\012\000"
 11619      2C206275 
 11619      74206461 
 11619      6E676572 
ARM GAS  C:\Users\ldebo\AppData\Local\Temp\ccISOhOE.s 			page 209


 11619      6F75732E 
 11620 0375 000000   		.space	3
 11621              	.LC50:
 11622 0378 4843443A 		.ascii	"HCD: Request on channel %i has timed out.\012\000"
 11622      20526571 
 11622      75657374 
 11622      206F6E20 
 11622      6368616E 
 11623 03a3 00       		.space	1
 11624              	.LC51:
 11625 03a4 52657375 		.ascii	"Result: %i Action: 0x%08x tempInt: 0x%08x tempSplit"
 11625      6C743A20 
 11625      25692041 
 11625      6374696F 
 11625      6E3A2030 
 11626 03d7 3A203078 		.ascii	": 0x%08x Bytes sent: %i\012\000"
 11626      25303878 
 11626      20427974 
 11626      65732073 
 11626      656E743A 
 11627              	.LC52:
 11628 03f0 4843443A 		.ascii	"HCD: Request split completion on channel:%i has tim"
 11628      20526571 
 11628      75657374 
 11628      2073706C 
 11628      69742063 
 11629 0423 6564206F 		.ascii	"ed out.\012\000"
 11629      75742E0A 
 11629      00
 11630              	.LC53:
 11631 042c 4843443A 		.ascii	"HCD: SETUP packet to device: %#x req: %#x req Type:"
 11631      20534554 
 11631      55502070 
 11631      61636B65 
 11631      7420746F 
 11632 045f 20252378 		.ascii	" %#x Speed: %i PacketSize: %i LowNode: %i LowPort: "
 11632      20537065 
 11632      65643A20 
 11632      25692050 
 11632      61636B65 
 11633 0492 25692045 		.ascii	"%i Error: %i\012\000"
 11633      72726F72 
 11633      3A202569 
 11633      0A00
 11634              	.LC54:
 11635 04a0 4843443A 		.ascii	"HCD: Could not transfer STATUS to device %i.\012\000"
 11635      20436F75 
 11635      6C64206E 
 11635      6F742074 
 11635      72616E73 
 11636 04ce 0000     		.space	2
 11637              	.LC55:
 11638 04d0 4843443A 		.ascii	"HCD: Warning non zero status transfer! %d.\012\000"
 11638      20576172 
 11638      6E696E67 
 11638      206E6F6E 
 11638      207A6572 
ARM GAS  C:\Users\ldebo\AppData\Local\Temp\ccISOhOE.s 			page 210


 11639              	.LC56:
 11640 04fc 4843443A 		.ascii	"HCD: Could not transfer DATA to device %i.\012\000"
 11640      20436F75 
 11640      6C64206E 
 11640      6F742074 
 11640      72616E73 
 11641              	.LC57:
 11642 0528 4843443A 		.ascii	"HCD: Failed to set configuration for device %i. RES"
 11642      20466169 
 11642      6C656420 
 11642      746F2073 
 11642      65742063 
 11643 055b 554C5420 		.ascii	"ULT %#x.\012\000"
 11643      2523782E 
 11643      0A00
 11644 0565 000000   		.space	3
 11645              	.LC58:
 11646 0568 48434420 		.ascii	"HCD Hub read status failed on device: %i, port: %i,"
 11646      48756220 
 11646      72656164 
 11646      20737461 
 11646      74757320 
 11647 059b 20526573 		.ascii	" Result: %#x, Pipe Speed: %#x, Pipe MaxPacket: %#x\012"
 11647      756C743A 
 11647      20252378 
 11647      2C205069 
 11647      70652053 
 11648 05ce 00       		.ascii	"\000"
 11649 05cf 00       		.space	1
 11650              	.LC59:
 11651 05d0 4855423A 		.ascii	"HUB: Failed to read hub device:%i port:%i status\012"
 11651      20466169 
 11651      6C656420 
 11651      746F2072 
 11651      65616420 
 11652 0601 00       		.ascii	"\000"
 11653 0602 0000     		.space	2
 11654              	.LC60:
 11655 0604 4855423A 		.ascii	"HUB: Failed to change port feature for device: %i, "
 11655      20466169 
 11655      6C656420 
 11655      746F2063 
 11655      68616E67 
 11656 0637 506F7274 		.ascii	"Port:%d feature:%d set:%d.\012\000"
 11656      3A256420 
 11656      66656174 
 11656      7572653A 
 11656      25642073 
 11657 0653 00       		.space	1
 11658              	.LC61:
 11659 0654 4843443A 		.ascii	"HCD: Hardware: %c%c%x.%x%x%x (BCM%.5x). Driver inco"
 11659      20486172 
 11659      64776172 
 11659      653A2025 
 11659      63256325 
 11660 0687 6D706174 		.ascii	"mpatible. Expected OT2.xxx (BCM2708x).\012\000"
 11660      69626C65 
ARM GAS  C:\Users\ldebo\AppData\Local\Temp\ccISOhOE.s 			page 211


 11660      2E204578 
 11660      70656374 
 11660      6564204F 
 11661 06af 00       		.space	1
 11662              	.LC62:
 11663 06b0 4843443A 		.ascii	"HCD: Hardware: %c%c%x.%x%x%x (BCM%.5x).\012\000"
 11663      20486172 
 11663      64776172 
 11663      653A2025 
 11663      63256325 
 11664 06d9 000000   		.space	3
 11665              	.LC63:
 11666 06dc 4843443A 		.ascii	"HCD: Host architecture does not support Internal DM"
 11666      20486F73 
 11666      74206172 
 11666      63686974 
 11666      65637475 
 11667 070f 410A00   		.ascii	"A\012\000"
 11668 0712 0000     		.space	2
 11669              	.LC64:
 11670 0714 4843443A 		.ascii	"HCD: High speed physical unsupported\012\000"
 11670      20486967 
 11670      68207370 
 11670      65656420 
 11670      70687973 
 11671 073a 0000     		.space	2
 11672              	.LC65:
 11673 073c 4843443A 		.ascii	"HCD: Failed to power on USB Host Controller.\012\000"
 11673      20466169 
 11673      6C656420 
 11673      746F2070 
 11673      6F776572 
 11674 076a 0000     		.space	2
 11675              	.LC71:
 11676 076c 4855423A 		.ascii	"HUB: Reseting device: %i Port: %d\012\000"
 11676      20526573 
 11676      6574696E 
 11676      67206465 
 11676      76696365 
 11677 078f 00       		.space	1
 11678              	.LC72:
 11679 0790 4855423A 		.ascii	"HUB: Device %i Failed to reset Port%d.\012\000"
 11679      20446576 
 11679      69636520 
 11679      25692046 
 11679      61696C65 
 11680              	.LC73:
 11681 07b8 4855423A 		.ascii	"HUB: Hub failed to get status (4) for %s.Port%d.\012"
 11681      20487562 
 11681      20666169 
 11681      6C656420 
 11681      746F2067 
 11682 07e9 00       		.ascii	"\000"
 11683 07ea 0000     		.space	2
 11684              	.LC74:
 11685 07ec 4855423A 		.ascii	"HUB: %s.Port%d Status %x:%x.\012\000"
 11685      2025732E 
ARM GAS  C:\Users\ldebo\AppData\Local\Temp\ccISOhOE.s 			page 212


 11685      506F7274 
 11685      25642053 
 11685      74617475 
 11686 080a 0000     		.space	2
 11687              	.LC75:
 11688 080c 4855423A 		.ascii	"HUB: Cannot enable %s.Port%d. Please verify the har"
 11688      2043616E 
 11688      6E6F7420 
 11688      656E6162 
 11688      6C652025 
 11689 083f 64776172 		.ascii	"dware is working.\012\000"
 11689      65206973 
 11689      20776F72 
 11689      6B696E67 
 11689      2E0A00
 11690 0852 0000     		.space	2
 11691              	.LC76:
 11692 0854 4855423A 		.ascii	"HUB: Failed to clear reset on %s.Port%d.\012\000"
 11692      20466169 
 11692      6C656420 
 11692      746F2063 
 11692      6C656172 
 11693 087e 0000     		.space	2
 11694              	.LC77:
 11695 0880 48494420 		.ascii	"HID details: Version: %4x, Language: %i Description"
 11695      64657461 
 11695      696C733A 
 11695      20566572 
 11695      73696F6E 
 11696 08b3 733A2025 		.ascii	"s: %i, Type: %i, Protocol: %i, NumInterface: %i\012"
 11696      692C2054 
 11696      7970653A 
 11696      2025692C 
 11696      2050726F 
 11697 08e3 00       		.ascii	"\000"
 11698              	.LC78:
 11699 08e4 4843443A 		.ascii	"HCD: Failed to get descriptor %#x:%#x for device:%i"
 11699      20466169 
 11699      6C656420 
 11699      746F2067 
 11699      65742064 
 11700 0917 2E205245 		.ascii	". RESULT %#x.\012\000"
 11700      53554C54 
 11700      20252378 
 11700      2E0A00
 11701 0926 0000     		.space	2
 11702              	.LC79:
 11703 0928 4843443A 		.ascii	"HCD: Fetch HID descriptor %i for device: %i failed."
 11703      20466574 
 11703      63682048 
 11703      49442064 
 11703      65736372 
 11704 095b 0A00     		.ascii	"\012\000"
 11705 095d 000000   		.space	3
 11706              	.LC80:
 11707 0960 48494420 		.ascii	"HID REPORT> Page usage: 0x%02x%02x, Usage: 0x%02x%0"
 11707      5245504F 
ARM GAS  C:\Users\ldebo\AppData\Local\Temp\ccISOhOE.s 			page 213


 11707      52543E20 
 11707      50616765 
 11707      20757361 
 11708 0993 32782C20 		.ascii	"2x, Collection: 0x%02x%02x\012\000"
 11708      436F6C6C 
 11708      65637469 
 11708      6F6E3A20 
 11708      30782530 
 11709 09af 00       		.space	1
 11710              	.LC81:
 11711 09b0 42797465 		.ascii	"Bytes: %02x:%02x:%02x:%02x:%02x:%02x:%02x:%02x:%02x"
 11711      733A2025 
 11711      3032783A 
 11711      25303278 
 11711      3A253032 
 11712 09e3 3A253032 		.ascii	":%02x:%02x:%02x:%02x:%02x:%02x:%02x:%02x:%02x:%02x:"
 11712      783A2530 
 11712      32783A25 
 11712      3032783A 
 11712      25303278 
 11713 0a16 25303278 		.ascii	"%02x:%02x:%02x:%02x:%02x:%02x:%02x:%02x:%02x:%02x:%"
 11713      3A253032 
 11713      783A2530 
 11713      32783A25 
 11713      3032783A 
 11714 0a49 3032783A 		.ascii	"02x:%02x:%02x\012\000"
 11714      25303278 
 11714      3A253032 
 11714      780A00
 11715              	.LC82:
 11716 0a58 42797465 		.ascii	"Bytes: %02x:%02x:%02x:%02x:%02x:%02x:%02x:%02x:%02x"
 11716      733A2025 
 11716      3032783A 
 11716      25303278 
 11716      3A253032 
 11717 0a8b 3A253032 		.ascii	":%02x:%02x:%02x:%02x:%02x\012\000"
 11717      783A2530 
 11717      32783A25 
 11717      3032783A 
 11717      25303278 
 11718 0aa6 0000     		.space	2
 11719              	.LC83:
 11720 0aa8 4843443A 		.ascii	"HCD: Fail to get descriptor %#x:%#x recepient: %#x,"
 11720      20466169 
 11720      6C20746F 
 11720      20676574 
 11720      20646573 
 11721 0adb 20646576 		.ascii	" device:%i. RESULT %#x.\012\000"
 11721      6963653A 
 11721      25692E20 
 11721      52455355 
 11721      4C542025 
 11722              	.LC84:
 11723 0af4 4843443A 		.ascii	"HCD: Could not read language support for device: %i"
 11723      20436F75 
 11723      6C64206E 
 11723      6F742072 
ARM GAS  C:\Users\ldebo\AppData\Local\Temp\ccISOhOE.s 			page 214


 11723      65616420 
 11724 0b27 0A00     		.ascii	"\012\000"
 11725 0b29 000000   		.space	3
 11726              	.LC85:
 11727 0b2c 4843443A 		.ascii	"HCD: Not a valid language support descriptor on dev"
 11727      204E6F74 
 11727      20612076 
 11727      616C6964 
 11727      206C616E 
 11728 0b5f 6963653A 		.ascii	"ice: %i\012\000"
 11728      2025690A 
 11728      00
 11729              	.LC86:
 11730 0b68 4843443A 		.ascii	"HCD: Could not read all the language support data o"
 11730      20436F75 
 11730      6C64206E 
 11730      6F742072 
 11730      65616420 
 11731 0b9b 6E206465 		.ascii	"n device: %i\012\000"
 11731      76696365 
 11731      3A202569 
 11731      0A00
 11732 0ba9 000000   		.space	3
 11733              	.LC87:
 11734 0bac 4E6F2065 		.ascii	"No english language string available on device: %i\012"
 11734      6E676C69 
 11734      7368206C 
 11734      616E6775 
 11734      61676520 
 11735 0bdf 00       		.ascii	"\000"
 11736              	.LC88:
 11737 0be0 4843443A 		.ascii	"HCD: Could not fetch string descriptor header (%i) "
 11737      20436F75 
 11737      6C64206E 
 11737      6F742066 
 11737      65746368 
 11738 0c13 666F7220 		.ascii	"for device: %i\012\000"
 11738      64657669 
 11738      63653A20 
 11738      25690A00 
 11739 0c23 00       		.space	1
 11740              	.LC89:
 11741 0c24 4843443A 		.ascii	"HCD: Could not fetch string descriptor (%i) for dev"
 11741      20436F75 
 11741      6C64206E 
 11741      6F742066 
 11741      65746368 
 11742 0c57 6963653A 		.ascii	"ice: %i\012\000"
 11742      2025690A 
 11742      00
 11743              	.LC90:
 11744 0c60 456E756D 		.ascii	"Enumeration: Step 1 on device %i failed, Result: %#"
 11744      65726174 
 11744      696F6E3A 
 11744      20537465 
 11744      70203120 
 11745 0c93 782E0A00 		.ascii	"x.\012\000"
ARM GAS  C:\Users\ldebo\AppData\Local\Temp\ccISOhOE.s 			page 215


 11746 0c97 00       		.space	1
 11747              	.LC91:
 11748 0c98 4843443A 		.ascii	"HCD: Failed to reset port again for new device %s.\012"
 11748      20466169 
 11748      6C656420 
 11748      746F2072 
 11748      65736574 
 11749 0ccb 00       		.ascii	"\000"
 11750              	.LC92:
 11751 0ccc 456E756D 		.ascii	"Enumeration: Failed to assign address to %#x.\012\000"
 11751      65726174 
 11751      696F6E3A 
 11751      20466169 
 11751      6C656420 
 11752 0cfb 00       		.space	1
 11753              	.LC93:
 11754 0cfc 456E756D 		.ascii	"Enumeration: Step 4 on device %i failed, Result: %#"
 11754      65726174 
 11754      696F6E3A 
 11754      20537465 
 11754      70203420 
 11755 0d2f 782E0A00 		.ascii	"x.\012\000"
 11756 0d33 00       		.space	1
 11757              	.LC94:
 11758 0d34 44657669 		.ascii	"Device: %i, Class: %i\012\000"
 11758      63653A20 
 11758      25692C20 
 11758      436C6173 
 11758      733A2025 
 11759 0d4b 00       		.space	1
 11760              	.LC95:
 11761 0d4c 4843443A 		.ascii	"HCD: Error: %i, reading configuration descriptor fo"
 11761      20457272 
 11761      6F723A20 
 11761      25692C20 
 11761      72656164 
 11762 0d7f 72206465 		.ascii	"r device: %i\012\000"
 11762      76696365 
 11762      3A202569 
 11762      0A00
 11763 0d8d 000000   		.space	3
 11764              	.LC96:
 11765 0d90 436F756C 		.ascii	"Could not allocate hid payload, Error ID %i\012\000"
 11765      64206E6F 
 11765      7420616C 
 11765      6C6F6361 
 11765      74652068 
 11766 0dbd 000000   		.space	3
 11767              	.LC97:
 11768 0dc0 48494420 		.ascii	"HID Entry wrong size\012\000"
 11768      456E7472 
 11768      79207772 
 11768      6F6E6720 
 11768      73697A65 
 11769 0dd6 0000     		.space	2
 11770              	.LC98:
 11771 0dd8 4843443A 		.ascii	"HCD: Failed to set configuration %#x for device %i."
ARM GAS  C:\Users\ldebo\AppData\Local\Temp\ccISOhOE.s 			page 216


 11771      20466169 
 11771      6C656420 
 11771      746F2073 
 11771      65742063 
 11772 0e0b 0A00     		.ascii	"\012\000"
 11773 0e0d 000000   		.space	3
 11774              	.LC99:
 11775 0e10 4843443A 		.ascii	"HCD: Attach Device %s. Address:%d Class:%d USB:%x.%"
 11775      20417474 
 11775      61636820 
 11775      44657669 
 11775      63652025 
 11776 0e43 782C2025 		.ascii	"x, %d configuration(s), %d interface(s).\012\000"
 11776      6420636F 
 11776      6E666967 
 11776      75726174 
 11776      696F6E28 
 11777 0e6d 000000   		.space	3
 11778              	.LC100:
 11779 0e70 4843443A 		.ascii	"HCD:  -Product:       %s.\012\000"
 11779      20202D50 
 11779      726F6475 
 11779      63743A20 
 11779      20202020 
 11780 0e8b 00       		.space	1
 11781              	.LC101:
 11782 0e8c 4843443A 		.ascii	"HCD:  -Manufacturer:  %s.\012\000"
 11782      20202D4D 
 11782      616E7566 
 11782      61637475 
 11782      7265723A 
 11783 0ea7 00       		.space	1
 11784              	.LC102:
 11785 0ea8 4843443A 		.ascii	"HCD:  -SerialNumber:  %s.\012\000"
 11785      20202D53 
 11785      65726961 
 11785      6C4E756D 
 11785      6265723A 
 11786 0ec3 00       		.space	1
 11787              	.LC103:
 11788 0ec4 4843443A 		.ascii	"HCD:  -Configuration: %s.\012\000"
 11788      20202D43 
 11788      6F6E6669 
 11788      67757261 
 11788      74696F6E 
 11789 0edf 00       		.space	1
 11790              	.LC104:
 11791 0ee0 436F756C 		.ascii	"Could not enumerate HUB device %i, Error ID %i\012\000"
 11791      64206E6F 
 11791      7420656E 
 11791      756D6572 
 11791      61746520 
 11792              	.LC105:
 11793 0f10 436F756C 		.ascii	"Could not enumerate HID device %i, Error ID %i\012\000"
 11793      64206E6F 
 11793      7420656E 
 11793      756D6572 
ARM GAS  C:\Users\ldebo\AppData\Local\Temp\ccISOhOE.s 			page 217


 11793      61746520 
 11794              	.LC106:
 11795 0f40 4843443A 		.ascii	"HCD: Failed to read configuration descriptor for de"
 11795      20466169 
 11795      6C656420 
 11795      746F2072 
 11795      65616420 
 11796 0f73 76696365 		.ascii	"vice %i, %u bytes read, Error: %i.\012\000"
 11796      2025692C 
 11796      20257520 
 11796      62797465 
 11796      73207265 
 11797 0f97 00       		.space	1
 11798              	.LC107:
 11799 0f98 4855423A 		.ascii	"HUB: Hub failed to get status (2) for %s.Port%d.\012"
 11799      20487562 
 11799      20666169 
 11799      6C656420 
 11799      746F2067 
 11800 0fc9 00       		.ascii	"\000"
 11801 0fca 0000     		.space	2
 11802              	.LC108:
 11803 0fcc 4855423A 		.ascii	"HUB: Failed to clear change on %s.Port%d.\012\000"
 11803      20466169 
 11803      6C656420 
 11803      746F2063 
 11803      6C656172 
 11804 0ff7 00       		.space	1
 11805              	.LC109:
 11806 0ff8 4855423A 		.ascii	"HUB: Disconnected %s.Port%d - %s.\012\000"
 11806      20446973 
 11806      636F6E6E 
 11806      65637465 
 11806      64202573 
 11807 101b 00       		.space	1
 11808              	.LC110:
 11809 101c 4855423A 		.ascii	"HUB: Could not reset %s.Port%d for new device.\012\000"
 11809      20436F75 
 11809      6C64206E 
 11809      6F742072 
 11809      65736574 
 11810              	.LC111:
 11811 104c 4855423A 		.ascii	"HUB: Could not allocate a new device entry for %s.P"
 11811      20436F75 
 11811      6C64206E 
 11811      6F742061 
 11811      6C6C6F63 
 11812 107f 6F727425 		.ascii	"ort%d.\012\000"
 11812      642E0A00 
 11813 1087 00       		.space	1
 11814              	.LC112:
 11815 1088 4855423A 		.ascii	"HUB: Hub failed to get status (3) for %s.Port%d.\012"
 11815      20487562 
 11815      20666169 
 11815      6C656420 
 11815      746F2067 
 11816 10b9 00       		.ascii	"\000"
ARM GAS  C:\Users\ldebo\AppData\Local\Temp\ccISOhOE.s 			page 218


 11817 10ba 0000     		.space	2
 11818              	.LC113:
 11819 10bc 4855423A 		.ascii	"HUB: %s. Device:%i Port:%d Status %04x:%04x.\012\000"
 11819      2025732E 
 11819      20446576 
 11819      6963653A 
 11819      25692050 
 11820 10ea 0000     		.space	2
 11821              	.LC114:
 11822 10ec 4855423A 		.ascii	"HUB: Could not connect to new device in %s.Port%d. "
 11822      20436F75 
 11822      6C64206E 
 11822      6F742063 
 11822      6F6E6E65 
 11823 111f 44697361 		.ascii	"Disabling.\012\000"
 11823      626C696E 
 11823      672E0A00 
 11824 112b 00       		.space	1
 11825              	.LC115:
 11826 112c 4855423A 		.ascii	"HUB: Failed to disable %s.Port%d.\012\000"
 11826      20466169 
 11826      6C656420 
 11826      746F2064 
 11826      69736162 
 11827 114f 00       		.space	1
 11828              	.LC116:
 11829 1150 4855423A 		.ascii	"HUB: Failed to get hub port status (1) for %s.Port%"
 11829      20466169 
 11829      6C656420 
 11829      746F2067 
 11829      65742068 
 11830 1183 642E0A00 		.ascii	"d.\012\000"
 11831 1187 00       		.space	1
 11832              	.LC117:
 11833 1188 44657669 		.ascii	"Device %i, Port: %i changed\012\000"
 11833      63652025 
 11833      692C2050 
 11833      6F72743A 
 11833      20256920 
 11834 11a5 000000   		.space	3
 11835              	.LC118:
 11836 11a8 4855423A 		.ascii	"HUB: Failed to clear enable change %s.Port%d.\012\000"
 11836      20466169 
 11836      6C656420 
 11836      746F2063 
 11836      6C656172 
 11837 11d7 00       		.space	1
 11838              	.LC119:
 11839 11d8 4855423A 		.ascii	"HUB: %s.Port%d has been disabled, but is connected."
 11839      2025732E 
 11839      506F7274 
 11839      25642068 
 11839      61732062 
 11840 120b 20546869 		.ascii	" This can be cause by interference. Reenabling!\012"
 11840      73206361 
 11840      6E206265 
 11840      20636175 
ARM GAS  C:\Users\ldebo\AppData\Local\Temp\ccISOhOE.s 			page 219


 11840      73652062 
 11841 123b 00       		.ascii	"\000"
 11842              	.LC120:
 11843 123c 4855423A 		.ascii	"HUB: Failed to clear suspended port - %s.Port%d.\012"
 11843      20466169 
 11843      6C656420 
 11843      746F2063 
 11843      6C656172 
 11844 126d 00       		.ascii	"\000"
 11845 126e 0000     		.space	2
 11846              	.LC121:
 11847 1270 4855423A 		.ascii	"HUB: Failed to clear over current port - %s.Port%d."
 11847      20466169 
 11847      6C656420 
 11847      746F2063 
 11847      6C656172 
 11848 12a3 0A00     		.ascii	"\012\000"
 11849 12a5 000000   		.space	3
 11850              	.LC122:
 11851 12a8 4855423A 		.ascii	"HUB: Failed to clear reset port - %s.Port%d.\012\000"
 11851      20466169 
 11851      6C656420 
 11851      746F2063 
 11851      6C656172 
 11852 12d6 0000     		.space	2
 11853              	.LC123:
 11854 12d8 436F756C 		.ascii	"Could not allocate hub payload, Error ID %i\012\000"
 11854      64206E6F 
 11854      7420616C 
 11854      6C6F6361 
 11854      74652068 
 11855 1305 000000   		.space	3
 11856              	.LC124:
 11857 1308 4843443A 		.ascii	"HCD: Could not fetch hub descriptor for device: %i\012"
 11857      20436F75 
 11857      6C64206E 
 11857      6F742066 
 11857      65746368 
 11858 133b 00       		.ascii	"\000"
 11859              	.LC125:
 11860 133c 48756220 		.ascii	"Hub device %i has %i ports\012\000"
 11860      64657669 
 11860      63652025 
 11860      69206861 
 11860      73202569 
 11861              	.LC126:
 11862 1358 4855423A 		.ascii	"HUB: Hub power to good: %dms.\012\000"
 11862      20487562 
 11862      20706F77 
 11862      65722074 
 11862      6F20676F 
 11863 1377 00       		.space	1
 11864              	.LC127:
 11865 1378 4855423A 		.ascii	"HUB: Hub current required: %dmA.\012\000"
 11865      20487562 
 11865      20637572 
 11865      72656E74 
ARM GAS  C:\Users\ldebo\AppData\Local\Temp\ccISOhOE.s 			page 220


 11865      20726571 
 11866 139a 0000     		.space	2
 11867              	.LC128:
 11868 139c 48554220 		.ascii	"HUB device:%i is too big for this driver to handle."
 11868      64657669 
 11868      63653A25 
 11868      69206973 
 11868      20746F6F 
 11869 13cf 204F6E6C 		.ascii	" Only the first %d ports will be used.\012\000"
 11869      79207468 
 11869      65206669 
 11869      72737420 
 11869      25642070 
 11870 13f7 00       		.space	1
 11871              	.LC129:
 11872 13f8 48554220 		.ascii	"HUB device:%i failed to get hub status.\012\000"
 11872      64657669 
 11872      63653A25 
 11872      69206661 
 11872      696C6564 
 11873 1421 000000   		.space	3
 11874              	.LC130:
 11875 1424 4855423A 		.ascii	"HUB: Hub powering ports on.\012\000"
 11875      20487562 
 11875      20706F77 
 11875      6572696E 
 11875      6720706F 
 11876 1441 000000   		.space	3
 11877              	.LC131:
 11878 1444 4855423A 		.ascii	"HUB: device: %i could not power Port%d.\012\000"
 11878      20646576 
 11878      6963653A 
 11878      20256920 
 11878      636F756C 
 11879 146d 000000   		.space	3
 11880              	.LC132:
 11881 1470 416C6C6F 		.ascii	"Allocating RootHub\012\000"
 11881      63617469 
 11881      6E672052 
 11881      6F6F7448 
 11881      75620A00 
 11882              	.LC133:
 11883 1484 46415441 		.ascii	"FATAL ERROR: HCD failed to initialise.\012\000"
 11883      4C204552 
 11883      524F523A 
 11883      20484344 
 11883      20666169 
 11884              	.LC134:
 11885 14ac 55534244 		.ascii	"USBD: Abort, HCD failed to start.\012\000"
 11885      3A204162 
 11885      6F72742C 
 11885      20484344 
 11885      20666169 
 11886 14cf 00       		.space	1
 11887              	.LC135:
 11888 14d0 55534244 		.ascii	"USBD: Failed to enumerate devices.\012\000"
 11888      3A204661 
ARM GAS  C:\Users\ldebo\AppData\Local\Temp\ccISOhOE.s 			page 221


 11888      696C6564 
 11888      20746F20 
 11888      656E756D 
 11889              	.LC136:
 11890 14f4 00       		.ascii	"\000"
 11891 14f5 000000   		.space	3
 11892              	.LC137:
 11893 14f8 2D204849 		.ascii	"- HID interface\000"
 11893      4420696E 
 11893      74657266 
 11893      61636500 
 11894              	.LC138:
 11895 1508 20202000 		.ascii	"   \000"
 11896              	.LC139:
 11897 150c 20256320 		.ascii	" %c \000"
 11897      00
 11898 1511 000000   		.space	3
 11899              	.LC140:
 11900 1514 2025632D 		.ascii	" %c-%s id: %i port: %i speed: %s packetsize: %i %s\012"
 11900      25732069 
 11900      643A2025 
 11900      6920706F 
 11900      72743A20 
 11901 1547 00       		.ascii	"\000"
 11902              	.LC141:
 11903 1548 48696768 		.ascii	"High\000"
 11903      00
 11904 154d 000000   		.space	3
 11905              	.LC142:
 11906 1550 46756C6C 		.ascii	"Full\000"
 11906      00
 11907 1555 000000   		.space	3
 11908              	.LC143:
 11909 1558 4C6F7700 		.ascii	"Low\000"
 11910              		.ident	"GCC: (GNU Tools for ARM Embedded Processors 6-2017-q2-update) 6.3.1 20170620 (release) [AR
ARM GAS  C:\Users\ldebo\AppData\Local\Temp\ccISOhOE.s 			page 222


DEFINED SYMBOLS
                            *ABS*:00000000 rpi-USB.c
C:\Users\ldebo\AppData\Local\Temp\ccISOhOE.s:14     .text:00000000 $a
C:\Users\ldebo\AppData\Local\Temp\ccISOhOE.s:19     .text:00000000 UsbGetDescription.part.2
C:\Users\ldebo\AppData\Local\Temp\ccISOhOE.s:153    .text:000001a0 $d
C:\Users\ldebo\AppData\Local\Temp\ccISOhOE.s:177    .text:000001fc $a
C:\Users\ldebo\AppData\Local\Temp\ccISOhOE.s:183    .text:000001fc HcdProcessRootHubMessage
C:\Users\ldebo\AppData\Local\Temp\ccISOhOE.s:193    .text:00000214 $d
C:\Users\ldebo\AppData\Local\Temp\ccISOhOE.s:204    .text:0000023c $a
C:\Users\ldebo\AppData\Local\Temp\ccISOhOE.s:304    .text:000003a4 $d
C:\Users\ldebo\AppData\Local\Temp\ccISOhOE.s:341    .text:00000434 $a
C:\Users\ldebo\AppData\Local\Temp\ccISOhOE.s:347    .text:00000448 $d
C:\Users\ldebo\AppData\Local\Temp\ccISOhOE.s:383    .text:000004d4 $a
C:\Users\ldebo\AppData\Local\Temp\ccISOhOE.s:389    .text:000004e8 $d
C:\Users\ldebo\AppData\Local\Temp\ccISOhOE.s:425    .text:00000574 $a
C:\Users\ldebo\AppData\Local\Temp\ccISOhOE.s:465    .text:000005fc $d
C:\Users\ldebo\AppData\Local\Temp\ccISOhOE.s:485    .text:00000648 $a
C:\Users\ldebo\AppData\Local\Temp\ccISOhOE.s:735    .text:000009dc $d
C:\Users\ldebo\AppData\Local\Temp\ccISOhOE.s:751    .text:00000a18 $a
C:\Users\ldebo\AppData\Local\Temp\ccISOhOE.s:757    .text:00000a18 PowerOnUsb
C:\Users\ldebo\AppData\Local\Temp\ccISOhOE.s:781    .text:00000a5c $d
C:\Users\ldebo\AppData\Local\Temp\ccISOhOE.s:783    .text:00000a60 $a
C:\Users\ldebo\AppData\Local\Temp\ccISOhOE.s:789    .text:00000a60 PowerOffUsb
C:\Users\ldebo\AppData\Local\Temp\ccISOhOE.s:812    .text:00000aa0 $d
C:\Users\ldebo\AppData\Local\Temp\ccISOhOE.s:814    .text:00000aa4 $a
C:\Users\ldebo\AppData\Local\Temp\ccISOhOE.s:820    .text:00000aa4 HCDReset
C:\Users\ldebo\AppData\Local\Temp\ccISOhOE.s:885    .text:00000b74 $d
C:\Users\ldebo\AppData\Local\Temp\ccISOhOE.s:888    .text:00000b7c $a
C:\Users\ldebo\AppData\Local\Temp\ccISOhOE.s:894    .text:00000b7c HCDTransmitFifoFlush
C:\Users\ldebo\AppData\Local\Temp\ccISOhOE.s:939    .text:00000c0c $d
C:\Users\ldebo\AppData\Local\Temp\ccISOhOE.s:942    .text:00000c14 $a
C:\Users\ldebo\AppData\Local\Temp\ccISOhOE.s:948    .text:00000c14 HCDReceiveFifoFlush
C:\Users\ldebo\AppData\Local\Temp\ccISOhOE.s:988    .text:00000c90 $d
C:\Users\ldebo\AppData\Local\Temp\ccISOhOE.s:991    .text:00000c98 $a
C:\Users\ldebo\AppData\Local\Temp\ccISOhOE.s:997    .text:00000c98 HCDStart
C:\Users\ldebo\AppData\Local\Temp\ccISOhOE.s:1487   .text:0000137c $d
C:\Users\ldebo\AppData\Local\Temp\ccISOhOE.s:1511   .text:000013d8 $a
C:\Users\ldebo\AppData\Local\Temp\ccISOhOE.s:1517   .text:000013d8 HCDCheckErrorAndAction
C:\Users\ldebo\AppData\Local\Temp\ccISOhOE.s:1618   .text:00001518 HCDWaitOnTransmissionResult
C:\Users\ldebo\AppData\Local\Temp\ccISOhOE.s:1675   .text:000015cc $d
C:\Users\ldebo\AppData\Local\Temp\ccISOhOE.s:1678   .text:000015d0 $a
C:\Users\ldebo\AppData\Local\Temp\ccISOhOE.s:1684   .text:000015d0 HCDChannelTransfer
C:\Users\ldebo\AppData\Local\Temp\ccISOhOE.s:2054   .text:00001b18 $d
C:\Users\ldebo\AppData\Local\Temp\ccISOhOE.s:2067   .text:00001b48 $a
C:\Users\ldebo\AppData\Local\Temp\ccISOhOE.s:2072   .text:00001b48 HCDSubmitControlMessage.constprop.6
C:\Users\ldebo\AppData\Local\Temp\ccISOhOE.s:2176   .text:00001cb4 $d
C:\Users\ldebo\AppData\Local\Temp\ccISOhOE.s:2183   .text:00001ccc $a
C:\Users\ldebo\AppData\Local\Temp\ccISOhOE.s:2189   .text:00001ccc HCDSubmitControlMessage
C:\Users\ldebo\AppData\Local\Temp\ccISOhOE.s:2515   .text:00002168 $d
C:\Users\ldebo\AppData\Local\Temp\ccISOhOE.s:2523   .text:00002184 $a
C:\Users\ldebo\AppData\Local\Temp\ccISOhOE.s:2529   .text:00002184 HCDSetAddress
C:\Users\ldebo\AppData\Local\Temp\ccISOhOE.s:2560   .text:000021cc HCDSetConfiguration
C:\Users\ldebo\AppData\Local\Temp\ccISOhOE.s:2593   .text:00002230 $d
C:\Users\ldebo\AppData\Local\Temp\ccISOhOE.s:2596   .text:00002238 $a
C:\Users\ldebo\AppData\Local\Temp\ccISOhOE.s:2602   .text:00002238 HCDReadHubPortStatus
C:\Users\ldebo\AppData\Local\Temp\ccISOhOE.s:2688   .text:0000235c $d
C:\Users\ldebo\AppData\Local\Temp\ccISOhOE.s:2692   .text:00002368 $a
ARM GAS  C:\Users\ldebo\AppData\Local\Temp\ccISOhOE.s 			page 223


C:\Users\ldebo\AppData\Local\Temp\ccISOhOE.s:2698   .text:00002368 HCDChangeHubPortFeature
C:\Users\ldebo\AppData\Local\Temp\ccISOhOE.s:2742   .text:000023f8 $d
C:\Users\ldebo\AppData\Local\Temp\ccISOhOE.s:2745   .text:00002400 $a
C:\Users\ldebo\AppData\Local\Temp\ccISOhOE.s:2751   .text:00002400 HCDInitialise
C:\Users\ldebo\AppData\Local\Temp\ccISOhOE.s:2881   .text:000025cc $d
C:\Users\ldebo\AppData\Local\Temp\ccISOhOE.s:2891   .text:000025f0 $a
C:\Users\ldebo\AppData\Local\Temp\ccISOhOE.s:2897   .text:000025f0 AddHidPayload
C:\Users\ldebo\AppData\Local\Temp\ccISOhOE.s:3018   .text:0000277c $d
C:\Users\ldebo\AppData\Local\Temp\ccISOhOE.s:3021   .text:00002784 $a
C:\Users\ldebo\AppData\Local\Temp\ccISOhOE.s:3027   .text:00002784 RemoveHidPayload
C:\Users\ldebo\AppData\Local\Temp\ccISOhOE.s:3054   .text:000027c8 AddHubPayload
C:\Users\ldebo\AppData\Local\Temp\ccISOhOE.s:3175   .text:00002954 $d
C:\Users\ldebo\AppData\Local\Temp\ccISOhOE.s:3178   .text:0000295c $a
C:\Users\ldebo\AppData\Local\Temp\ccISOhOE.s:3184   .text:0000295c UsbAllocateDevice
C:\Users\ldebo\AppData\Local\Temp\ccISOhOE.s:3230   .text:000029ec $d
C:\Users\ldebo\AppData\Local\Temp\ccISOhOE.s:3233   .text:000029f4 $a
C:\Users\ldebo\AppData\Local\Temp\ccISOhOE.s:3239   .text:000029f4 UsbDeallocateDevice
C:\Users\ldebo\AppData\Local\Temp\ccISOhOE.s:3343   .text:00002b54 $d
C:\Users\ldebo\AppData\Local\Temp\ccISOhOE.s:3345   .text:00002b58 $a
C:\Users\ldebo\AppData\Local\Temp\ccISOhOE.s:3351   .text:00002b58 RemoveHubPayload
C:\Users\ldebo\AppData\Local\Temp\ccISOhOE.s:3485   .text:00002d28 $d
C:\Users\ldebo\AppData\Local\Temp\ccISOhOE.s:3487   .text:00002d2c $a
C:\Users\ldebo\AppData\Local\Temp\ccISOhOE.s:3493   .text:00002d2c HubPortReset
C:\Users\ldebo\AppData\Local\Temp\ccISOhOE.s:4028   .text:00003474 $d
C:\Users\ldebo\AppData\Local\Temp\ccISOhOE.s:4053   .text:000034d4 $a
C:\Users\ldebo\AppData\Local\Temp\ccISOhOE.s:4059   .text:000034d4 EnumerateHID
C:\Users\ldebo\AppData\Local\Temp\ccISOhOE.s:4350   .text:00003924 $d
C:\Users\ldebo\AppData\Local\Temp\ccISOhOE.s:4358   .text:00003940 $a
C:\Users\ldebo\AppData\Local\Temp\ccISOhOE.s:4364   .text:00003940 HCDGetDescriptor
C:\Users\ldebo\AppData\Local\Temp\ccISOhOE.s:4486   .text:00003ae8 $d
C:\Users\ldebo\AppData\Local\Temp\ccISOhOE.s:4490   .text:00003af4 $a
C:\Users\ldebo\AppData\Local\Temp\ccISOhOE.s:4496   .text:00003af4 HCDReadStringDescriptor
C:\Users\ldebo\AppData\Local\Temp\ccISOhOE.s:4985   .text:000041d8 $d
C:\Users\ldebo\AppData\Local\Temp\ccISOhOE.s:5002   .text:00004218 $a
C:\Users\ldebo\AppData\Local\Temp\ccISOhOE.s:5008   .text:00004218 IsHub
C:\Users\ldebo\AppData\Local\Temp\ccISOhOE.s:5033   .text:00004258 $d
C:\Users\ldebo\AppData\Local\Temp\ccISOhOE.s:5035   .text:0000425c $a
C:\Users\ldebo\AppData\Local\Temp\ccISOhOE.s:5041   .text:0000425c IsHid
C:\Users\ldebo\AppData\Local\Temp\ccISOhOE.s:5066   .text:0000429c $d
C:\Users\ldebo\AppData\Local\Temp\ccISOhOE.s:5068   .text:000042a0 $a
C:\Users\ldebo\AppData\Local\Temp\ccISOhOE.s:5074   .text:000042a0 IsMassStorage
C:\Users\ldebo\AppData\Local\Temp\ccISOhOE.s:5099   .text:000042e0 $d
C:\Users\ldebo\AppData\Local\Temp\ccISOhOE.s:5101   .text:000042e4 $a
C:\Users\ldebo\AppData\Local\Temp\ccISOhOE.s:5107   .text:000042e4 IsMouse
C:\Users\ldebo\AppData\Local\Temp\ccISOhOE.s:5136   .text:00004334 $d
C:\Users\ldebo\AppData\Local\Temp\ccISOhOE.s:5138   .text:00004338 $a
C:\Users\ldebo\AppData\Local\Temp\ccISOhOE.s:5144   .text:00004338 IsKeyboard
C:\Users\ldebo\AppData\Local\Temp\ccISOhOE.s:5173   .text:00004388 $d
C:\Users\ldebo\AppData\Local\Temp\ccISOhOE.s:5175   .text:0000438c $a
C:\Users\ldebo\AppData\Local\Temp\ccISOhOE.s:5181   .text:0000438c UsbGetRootHub
C:\Users\ldebo\AppData\Local\Temp\ccISOhOE.s:5194   .text:000043a4 $d
C:\Users\ldebo\AppData\Local\Temp\ccISOhOE.s:5197   .text:000043ac $a
C:\Users\ldebo\AppData\Local\Temp\ccISOhOE.s:5203   .text:000043ac UsbDeviceAtAddress
C:\Users\ldebo\AppData\Local\Temp\ccISOhOE.s:5223   .text:000043e0 $d
C:\Users\ldebo\AppData\Local\Temp\ccISOhOE.s:5226   .text:000043e8 $a
C:\Users\ldebo\AppData\Local\Temp\ccISOhOE.s:5232   .text:000043e8 UsbGetDescription
C:\Users\ldebo\AppData\Local\Temp\ccISOhOE.s:5308   .text:000044cc $d
ARM GAS  C:\Users\ldebo\AppData\Local\Temp\ccISOhOE.s 			page 224


C:\Users\ldebo\AppData\Local\Temp\ccISOhOE.s:5322   .text:00004500 $a
C:\Users\ldebo\AppData\Local\Temp\ccISOhOE.s:5328   .text:00004500 EnumerateDevice
C:\Users\ldebo\AppData\Local\Temp\ccISOhOE.s:8262   .text:00006d00 EnumerateHub
C:\Users\ldebo\AppData\Local\Temp\ccISOhOE.s:6240   .text:000051dc $d
C:\Users\ldebo\AppData\Local\Temp\ccISOhOE.s:6296   .text:000052b8 $a
C:\Users\ldebo\AppData\Local\Temp\ccISOhOE.s:6302   .text:000052b8 HubPortConnectionChanged
C:\Users\ldebo\AppData\Local\Temp\ccISOhOE.s:7453   .text:0000621c $d
C:\Users\ldebo\AppData\Local\Temp\ccISOhOE.s:7482   .text:0000628c $a
C:\Users\ldebo\AppData\Local\Temp\ccISOhOE.s:7488   .text:0000628c HubCheckConnection
C:\Users\ldebo\AppData\Local\Temp\ccISOhOE.s:8231   .text:00006ca0 $d
C:\Users\ldebo\AppData\Local\Temp\ccISOhOE.s:8256   .text:00006d00 $a
C:\Users\ldebo\AppData\Local\Temp\ccISOhOE.s:8670   .text:000072a8 $d
C:\Users\ldebo\AppData\Local\Temp\ccISOhOE.s:8685   .text:000072e0 $a
C:\Users\ldebo\AppData\Local\Temp\ccISOhOE.s:8691   .text:000072e0 HubCheckForChange
C:\Users\ldebo\AppData\Local\Temp\ccISOhOE.s:9685   .text:0000809c $d
C:\Users\ldebo\AppData\Local\Temp\ccISOhOE.s:9709   .text:000080f8 $a
C:\Users\ldebo\AppData\Local\Temp\ccISOhOE.s:9715   .text:000080f8 UsbCheckForChange
C:\Users\ldebo\AppData\Local\Temp\ccISOhOE.s:10150  .text:00008724 $d
C:\Users\ldebo\AppData\Local\Temp\ccISOhOE.s:10164  .text:00008758 $a
C:\Users\ldebo\AppData\Local\Temp\ccISOhOE.s:10170  .text:00008758 UsbAttachRootHub
C:\Users\ldebo\AppData\Local\Temp\ccISOhOE.s:10242  .text:00008848 $d
C:\Users\ldebo\AppData\Local\Temp\ccISOhOE.s:10246  .text:00008854 $a
C:\Users\ldebo\AppData\Local\Temp\ccISOhOE.s:10252  .text:00008854 UsbInitialise
C:\Users\ldebo\AppData\Local\Temp\ccISOhOE.s:10474  .text:00008b68 $d
C:\Users\ldebo\AppData\Local\Temp\ccISOhOE.s:10489  .text:00008ba0 $a
C:\Users\ldebo\AppData\Local\Temp\ccISOhOE.s:10495  .text:00008ba0 UsbShowTree
C:\Users\ldebo\AppData\Local\Temp\ccISOhOE.s:10777  .text:00008f74 $d
C:\Users\ldebo\AppData\Local\Temp\ccISOhOE.s:10800  .text:00008fcc $a
C:\Users\ldebo\AppData\Local\Temp\ccISOhOE.s:10806  .text:00008fcc HIDReadDescriptor
C:\Users\ldebo\AppData\Local\Temp\ccISOhOE.s:10989  .text:00009258 $d
C:\Users\ldebo\AppData\Local\Temp\ccISOhOE.s:10993  .text:00009264 $a
C:\Users\ldebo\AppData\Local\Temp\ccISOhOE.s:10999  .text:00009264 HIDReadReport
C:\Users\ldebo\AppData\Local\Temp\ccISOhOE.s:11136  .text:00009448 $d
C:\Users\ldebo\AppData\Local\Temp\ccISOhOE.s:11138  .text:0000944c $a
C:\Users\ldebo\AppData\Local\Temp\ccISOhOE.s:11144  .text:0000944c HIDWriteReport
C:\Users\ldebo\AppData\Local\Temp\ccISOhOE.s:11275  .text:0000961c $d
C:\Users\ldebo\AppData\Local\Temp\ccISOhOE.s:11277  .text:00009620 $a
C:\Users\ldebo\AppData\Local\Temp\ccISOhOE.s:11283  .text:00009620 HIDSetProtocol
C:\Users\ldebo\AppData\Local\Temp\ccISOhOE.s:11339  .text:000096d0 $d
C:\Users\ldebo\AppData\Local\Temp\ccISOhOE.s:11512  .data:0000001c SpeedString
C:\Users\ldebo\AppData\Local\Temp\ccISOhOE.s:11343  .rodata:00000000 $d
C:\Users\ldebo\AppData\Local\Temp\ccISOhOE.s:11417  .rodata:000001e4 RootHubDeviceDescriptor
C:\Users\ldebo\AppData\Local\Temp\ccISOhOE.s:11435  .rodata:000001f8 RootHubString0
C:\Users\ldebo\AppData\Local\Temp\ccISOhOE.s:11441  .rodata:000001fc RootHubString1
C:\Users\ldebo\AppData\Local\Temp\ccISOhOE.s:11449  .rodata:00000228 RootHubString2
C:\Users\ldebo\AppData\Local\Temp\ccISOhOE.s:11456  .rodata:00000250 RootHubDescriptor
C:\Users\ldebo\AppData\Local\Temp\ccISOhOE.s:11480  .data:00000000 $d
C:\Users\ldebo\AppData\Local\Temp\ccISOhOE.s:11484  .data:00000000 RootHubConfigurationDescriptor
C:\Users\ldebo\AppData\Local\Temp\ccISOhOE.s:11517  .bss:00000000 $d
C:\Users\ldebo\AppData\Local\Temp\ccISOhOE.s:11522  .bss:00000000 LogMsgHandler
C:\Users\ldebo\AppData\Local\Temp\ccISOhOE.s:11526  .bss:00000004 DbgMsgHandler
C:\Users\ldebo\AppData\Local\Temp\ccISOhOE.s:11530  .bss:00000008 RootHubDeviceNumber
C:\Users\ldebo\AppData\Local\Temp\ccISOhOE.s:11534  .bss:00000009 PhyInitialised
C:\Users\ldebo\AppData\Local\Temp\ccISOhOE.s:11539  .bss:0000000c HidTable
C:\Users\ldebo\AppData\Local\Temp\ccISOhOE.s:11543  .bss:000002cc HubTable
C:\Users\ldebo\AppData\Local\Temp\ccISOhOE.s:11547  .bss:0000064c DeviceTable
C:\Users\ldebo\AppData\Local\Temp\ccISOhOE.s:11551  .bss:0000844c TreeLevelInUse
ARM GAS  C:\Users\ldebo\AppData\Local\Temp\ccISOhOE.s 			page 225


C:\Users\ldebo\AppData\Local\Temp\ccISOhOE.s:11554  .rodata.str1.4:00000000 $d

UNDEFINED SYMBOLS
timer_wait
RPi_IO_Base_Addr
mailbox_tag_message
timer_getTickCount
tick_difference
__aeabi_uidiv
ARMaddrToGPUaddr
memset
wctob
