AARCH64 GAS  C:\Users\ldebo\AppData\Local\Temp\ccfW7LPV.s 			page 1


   1              		.arch armv8-a
   2              		.file	"main.c"
   3              		.text
   4              		.align	2
   5              		.p2align 4,,15
   6              		.global	c_irq_handler
   7              		.type	c_irq_handler, %function
   8              	c_irq_handler:
   9 0000 01000090 		adrp	x1, .LANCHOR0
  10 0004 20004039 		ldrb	w0, [x1, #:lo12:.LANCHOR0]
  11 0008 C0000035 		cbnz	w0, .L5
  12 000c 22008052 		mov	w2, 1
  13 0010 20008052 		mov	w0, 1
  14 0014 22000039 		strb	w2, [x1, #:lo12:.LANCHOR0]
  15 0018 00000014 		b	set_Activity_LED
  16 001c 1F2003D5 		.p2align 3
  17              	.L5:
  18 0020 3F000039 		strb	wzr, [x1, #:lo12:.LANCHOR0]
  19 0024 00008052 		mov	w0, 0
  20 0028 00000014 		b	set_Activity_LED
  21              		.size	c_irq_handler, .-c_irq_handler
  22              		.align	2
  23 002c 1F2003D5 		.p2align 4,,15
  24              		.global	kernel_main
  25              		.type	kernel_main, %function
  26              	kernel_main:
  27 0030 F37BBFA9 		stp	x19, x30, [sp, -16]!
  28 0034 13000090 		adrp	x19, printf
  29 0038 73020091 		add	x19, x19, :lo12:printf
  30 003c E30313AA 		mov	x3, x19
  31 0040 02008052 		mov	w2, 0
  32 0044 01008052 		mov	w1, 0
  33 0048 00008052 		mov	w0, 0
  34 004c 00000094 		bl	PiConsole_Init
  35 0050 E00313AA 		mov	x0, x19
  36 0054 00000094 		bl	displaySmartStart
  37 0058 E00313AA 		mov	x0, x19
  38 005c 00000094 		bl	ARM_setmaxspeed
  39 0060 01000090 		adrp	x1, c_irq_handler
  40 0064 21000091 		add	x1, x1, :lo12:c_irq_handler
  41 0068 00249452 		mov	w0, 41248
  42 006c E000A072 		movk	w0, 0x7, lsl 16
  43 0070 00000094 		bl	TimerIrqSetup
  44 0074 13000090 		adrp	x19, .LC0
  45 0078 73020091 		add	x19, x19, :lo12:.LC0
  46 007c 00000094 		bl	EnableInterrupts
  47 0080 00000094 		bl	UsbInitialise
  48 0084 E00313AA 		mov	x0, x19
  49 0088 00000094 		bl	printf
  50 008c 00000094 		bl	UsbGetRootHub
  51 0090 62058052 		mov	w2, 43
  52 0094 21008052 		mov	w1, 1
  53 0098 00000094 		bl	UsbShowTree
  54 009c E00313AA 		mov	x0, x19
  55 00a0 00000094 		bl	printf
  56              	.L7:
  57 00a4 00000014 		b	.L7
AARCH64 GAS  C:\Users\ldebo\AppData\Local\Temp\ccfW7LPV.s 			page 2


  58              		.size	kernel_main, .-kernel_main
  59              		.comm	__errno,4,4
  60              		.bss
  61              		.set	.LANCHOR0,. + 0
  62              		.type	lit, %object
  63              		.size	lit, 1
  64              	lit:
  65 0000 00       		.zero	1
  66              		.section	.rodata.str1.8,"aMS",@progbits,1
  67              		.align	3
  68              	.LC0:
  69 0000 0A00     		.string	"\n"
  70              		.ident	"GCC: (Linaro GCC 7.1-2017.05) 7.1.1 20170510"
AARCH64 GAS  C:\Users\ldebo\AppData\Local\Temp\ccfW7LPV.s 			page 3


DEFINED SYMBOLS
                            *ABS*:0000000000000000 main.c
C:\Users\ldebo\AppData\Local\Temp\ccfW7LPV.s:4      .text:0000000000000000 $x
C:\Users\ldebo\AppData\Local\Temp\ccfW7LPV.s:8      .text:0000000000000000 c_irq_handler
C:\Users\ldebo\AppData\Local\Temp\ccfW7LPV.s:26     .text:0000000000000030 kernel_main
                            *COM*:0000000000000004 __errno
C:\Users\ldebo\AppData\Local\Temp\ccfW7LPV.s:64     .bss:0000000000000000 lit
C:\Users\ldebo\AppData\Local\Temp\ccfW7LPV.s:65     .bss:0000000000000000 $d
C:\Users\ldebo\AppData\Local\Temp\ccfW7LPV.s:67     .rodata.str1.8:0000000000000000 $d

UNDEFINED SYMBOLS
set_Activity_LED
printf
PiConsole_Init
displaySmartStart
ARM_setmaxspeed
TimerIrqSetup
EnableInterrupts
UsbInitialise
UsbGetRootHub
UsbShowTree
AARCH64 GAS  C:\Users\ldebo\AppData\Local\Temp\ccfW7LPV.s 			page 1


   1              	# 1 "SmartStart64.S"
   1              	﻿;/*"++++++++++++++++++++++++++++++++++++++++++++++++++++++++++++++++++++++++"
   0              	
   0              	
   2              	;@"																			"			
   3              	;@"      Filename: smartstart64.s											"
   4              	;@"      Copyright(c): Leon de Boer(LdB) 2017								"
   5              	;@"      Version: 2.03														"
   6              	;@"																			"		
   7              	;@"***************[ THIS CODE IS FREEWARE UNDER CC Attribution]*************"
   8              	;@"																            "
   9              	;@"     This sourcecode is released for the purpose to promote programming  "
  10              	;@"  on the Raspberry Pi. You may redistribute it and/or modify with the    "
  11              	;@"  following disclaimer and condition.                                    "
  12              	;@"																            "
  13              	;@"      The SOURCE CODE is distributed "AS IS" WITHOUT WARRANTIES AS TO    "
  14              	;@"   PERFORMANCE OF MERCHANTABILITY WHETHER EXPRESSED OR IMPLIED.          "
  15              	;@"   Redistributions of source code must retain the copyright notices to   "
  16              	;@"   maintain the author credit (attribution) .							"
  17              	;@"																			"
  18              	;@"*************************************************************************"
  19              	;@"                                                                         "
  20              	;@"       This code expands on my earlier SmartStart bootstub assembler for "
  21              	;@" the Pi3. It directly supports multicore operation in C/C++. To do that  "
  22              	;@" it provides stack space to each core and provides a modified bootloader " 
  23              	;@" spinlock that protects against registers X0-X7 trashed. As any C/C++    "
  24              	;@" 64 bit compiler will trash those registers, to use C/C++ in multicore   "
  25              	;@" programming this protection must be done.								"
  26              	;@"       This is a matching paired AARCH64 stub for the 64bit linker file  "
  27              	;@" and carries the samme arrangement as AARCH32 to ease porting.		    "
  28              	;@"																            "
  29              	;@"+++++++++++++++++++++++[ REVISIONS ]+++++++++++++++++++++++++++++++++++++"
  30              	;@"  1.01 Initial release .. Pi autodetection main aim                      "
  31              	;@"  1.02 Many functions moved out C to aide 32/64 bit compatability        "
  32              	;@"  2.01 Futher reductions to bare minmum assembeler code                  "
  33              	;@"  2.02 Multicore functionality added                                     "
  34              	;@"  2.03 Timer Irq support added  											"
  35              	;@"+++++++++++++++++++++++++++++++++++++++++++++++++++++++++++++++++++++++"*/
  36              	
  37              	.section ".text.startup", "ax", %progbits
  38              	.balign	4
  39              	.globl _start
  40              	_start:	
  41 0000 0C000010 		adr x12, _start							// Hold boot address in high register R12
  42 0004 610D0058 		ldr x1, =RPi_BootAddr					// Address of RPi_BootAddr
  43 0008 2C0000B9 		str w12, [x1]							// Store the boot address
  44              	
  45 000c 600D0058 		ldr	x0, =0x3F000000						// No need to detect address in 64bit mode it has to be 0x3F000000 on Pi3
  46 0010 810D0058 		ldr x1, =RPi_IO_Base_Addr				// Address of RPi_IO_Base_Addr
  47 0014 200000B9 		str w0, [x1]							// Store the IO base address
  48              	
  49 0018 200080D2 		mov x0, #1								// Multicore support starts as 1 core
  50 001c 610D0058 		ldr x1, =RPi_CoresReady					// Address of RPi_CoresReady
  51 0020 200000B9 		str w0, [x1]							// Store the CoresReady count as 1
  52              	
  53 0024 001380D2 		mov x0, #0x98							// Compiled for ARM8 CPU in AARCH64 and supports 4 cores
  54 0028 410D0058 		ldr x1, =RPi_CompileMode				// Address of RPi_CompileMode
AARCH64 GAS  C:\Users\ldebo\AppData\Local\Temp\ccfW7LPV.s 			page 2


  55 002c 200000B9 		str w0, [x1]							// Store the compiler mode  
  56              	
  57 0030 000038D5 		mrs	x0, midr_el1						// Read CPU Id register
  58 0034 210D0058 		ldr x1, =RPi_CpuId						// Address of RPi_CpuId
  59 0038 200000B9 		str w0, [x1]							// Store the CPU id 
  60              	
  61              	//"================================================================"
  62              	//  Initialize Generic Timers for Core0
  63              	//"================================================================"
  64 003c 00E13CD5 		mrs	x0, cnthctl_el2
  65 0040 000440B2 		orr	x0, x0, #0x3						/* Enable EL1 access to timers */
  66 0044 00E11CD5 		msr	cnthctl_el2, x0
  67 0048 7FE01CD5 		msr	cntvoff_el2, xzr
  68              		
  69              		/* Not sure if I want this yet */
  70 004c 00E138D5 		mrs	x0, cntkctl_el1
  71 0050 000440B2 		orr	x0, x0, #0x3						/* Enable EL0 access to timers */
  72 0054 00E118D5 		msr	cntkctl_el1, x0
  73              	
  74              	//"================================================================"
  75              	//  Setup stack pointers for each core and each CPU operation mode
  76              	//"================================================================"
  77              	multicore_start:
  78 0058 420C0058 	    ldr x2, = __EL2_stack_core0				// Address of EL2_stack_core0 stack pointer value
  79 005c 630C0058 	    ldr x3, = __EL1_stack_core0				// Address of EL1_stack_core0 stack pointer value
  80 0060 840C0058 	    ldr x4, = __EL0_stack_core0				// Address of EL0_stack_core0 stack pointer value
  81 0064 A60038D5 		mrs x6, mpidr_el1						// Read core id on ARM8
  82 0068 C60440F2 		ands x6, x6, #0x3						// Make cpu id bitmask
  83 006c C0010054 		beq set_stacks							// Ready to set core 0 stacks
  84 0070 420C0058 	    ldr x2, = __EL2_stack_core1				// Address of EL2_stack_core1 stack pointer value
  85 0074 630C0058 	    ldr x3, = __EL1_stack_core1				// Address of EL1_stack_core1 stack pointer value
  86 0078 840C0058 	    ldr x4, = __EL0_stack_core1				// Address of EL0_stack_core1 stack pointer value
  87 007c DF0400F1 		cmp x6, #1								// Check cpu id for core 1
  88 0080 20010054 		beq set_stacks							// Ready to set core 1 stacks
  89 0084 620C0058 	    ldr x2, = __EL2_stack_core2				// Address of EL2_stack_core2 stack pointer value
  90 0088 830C0058 	    ldr x3, = __EL1_stack_core2				// Address of EL1_stack_core2 stack pointer value
  91 008c A40C0058 	    ldr x4, = __EL0_stack_core2				// Address of EL0_stack_core2 stack pointer value
  92 0090 DF0800F1 		cmp x6, #2								// Check cpu id for core 2
  93 0094 80000054 		beq set_stacks							// Ready to set core 1 stacks
  94 0098 820C0058 	    ldr x2, = __EL2_stack_core3				// Address of EL2_stack_core3 stack pointer value
  95 009c A30C0058 	    ldr x3, = __EL1_stack_core3				// Address of EL1_stack_core3 stack pointer value
  96 00a0 C40C0058 	    ldr x4, = __EL0_stack_core3				// Address of EL0_stack_core3 stack pointer value
  97              	set_stacks:
  98 00a4 5F000091 		mov	sp, x2								/* EL2 stack set */
  99 00a8 03411CD5 		msr	sp_el1, x3							/* EL1 stack set */
 100 00ac 044118D5 		msr	sp_el0, x4							/* EL0 stack set */
 101              	
 102              	//"================================================================"
 103              	//  Initilize MPID/MPIDR registers for all Cores
 104              	//"================================================================"
 105 00b0 000038D5 		mrs	x0, midr_el1
 106 00b4 A10038D5 		mrs	x1, mpidr_el1
 107 00b8 00001CD5 		msr	vpidr_el2, x0
 108 00bc A1001CD5 		msr	vmpidr_el2, x1
 109              	
 110              	//"================================================================"
 111              	//  Disable coprocessor traps for all Cores
AARCH64 GAS  C:\Users\ldebo\AppData\Local\Temp\ccfW7LPV.s 			page 3


 112              	//"================================================================"
 113 00c0 E07F86D2 		mov	x0, #0x33ff
 114 00c4 40111CD5 		msr	cptr_el2, x0						// Disable coprocessor traps to EL2
 115 00c8 7F111CD5 		msr	hstr_el2, xzr						// Disable coprocessor traps to EL2
 116 00cc 0006A0D2 		mov	x0, #3 << 20
 117 00d0 401018D5 		msr	cpacr_el1, x0						// Enable FP/SIMD at EL1
 118              	
 119              	//"================================================================"
 120              	//  Initialize HCR_EL2 so EL1 is 64 bits for all Cores
 121              	//"================================================================"
 122 00d4 0000B0D2 		mov	x0, #(1 << 31)						// 64bit EL1
 123 00d8 00111CD5 		msr	hcr_el2, x0
 124              	
 125              	//"================================================================"
 126              	//  Initialize SCTLR_EL1 for all Cores
 127              	//"================================================================"
 128              	    /*  RES1 bits (29,28,23,22,20,11) to 1
 129              		 *  RES0 bits (31,30,27,21,17,13,10,6) +
 130              		 *  UCI,EE,EOE,WXN,nTWE,nTWI,UCT,DZE,I,UMA,SED,ITD,
 131              		 *  CP15BEN,SA0,SA,C,A,M to 0 */
 132 00dc 000081D2 		mov	x0, #0x0800
 133 00e0 001AA6F2 		movk	x0, #0x30d0, lsl #16
 134 00e4 00007EB2 		orr    x0, x0, #(0x1 << 2)            // The C bit on (data cache). 
 135 00e8 000074B2 		orr    x0, x0, #(0x1 << 12)           // The I bit on (instruction cache)
 136 00ec 001018D5 		msr	sctlr_el1, x0
 137              	
 138              	//"================================================================"
 139              	//  Return to the EL1_SP1 mode from EL2 for all Cores
 140              	//"================================================================"
 141 00f0 A07880D2 		mov	x0, #0x3c5							// EL1_SP1 | D | A | I | F
 142 00f4 00401CD5 		msr	spsr_el2, x0						// Set spsr_el2 with settings
 143 00f8 60000010 		adr	x0, exit_el1						// Address to exit EL2
 144 00fc 20401CD5 		msr	elr_el2, x0							// Set elevated return register
 145 0100 E0039FD6 		eret									// Call elevated return
 146              	exit_el1:
 147 0104 A60038D5 		mrs x6, mpidr_el1						// Read core id on ARM8
 148 0108 C6044092 		and x6, x6, #0x3						// Make cpu id bitmask
 149 010c C60000B4 		cbz x6, cpu0_exit_multicore_park		// Core0 continues on
 150              	
 151              	//"================================================================"
 152              	//      Now park Core 1,2,3 into secondary spinloop on BCM2837
 153              	//"================================================================"
 154 0110 C1050058 		ldr x1, =RPi_CoresReady					// Address of CoreReady count
 155 0114 200040B9 		ldr w0, [x1]							// Load current core count 
 156 0118 00040011 		add w0, w0, #1							// Add one as core about to go ready
 157 011c 200000B9 		str w0, [x1]							// Update CoreReady count
 158 0120 50000014 		b  StartSecondarySpin					// Jump to setup secondary spin
 159              	cpu0_exit_multicore_park:
 160              	
 161              	//"================================================================"
 162              	//  Set vector table for EL1 for Core0 (All others cores parked)
 163              	//"================================================================"
 164 0124 E0080058 	    ldr x0, =VectorTable						
 165 0128 00C018D5 	    msr vbar_el1,x0
 166              	
 167              	//"================================================================"
 168              	//  About to go to into C kernel clear BSS (Core0 only)
AARCH64 GAS  C:\Users\ldebo\AppData\Local\Temp\ccfW7LPV.s 			page 4


 169              	//"================================================================"
 170 012c E3080058 		ldr x3, =__bss_end__
 171 0130 00090058 		ldr x0, =__bss_start__
 172 0134 1F0003EB 		cmp	x0, x3
 173 0138 82000054 		bcs	.bss_cleared
 174              	.bss_zero_loop:
 175 013c 1F4400B8 		str	wzr, [x0], 4
 176 0140 7F0000EB 		cmp	x3, x0
 177 0144 C8FFFF54 		bhi	.bss_zero_loop
 178              	.bss_cleared:
 179              	
 180              	//"================================================================"
 181              	//			Core0 will bring Core 1,2,3 to secondary spin 
 182              	//"================================================================"
 183              	#define spin_cpu1 0xe0
 184 0148 011C80D2 		mov x1, #spin_cpu1						// Spin core1 jump address
 185 014c 62080058 		ldr x2, =multicore_start				// Function we are going to call
 186 0150 220000F9 		str	x2, [x1]							// Store the function address to core1
 187 0154 9F2003D5 		sev										// Wake core1 up
 188 0158 83030058 	 	ldr x3, =RPi_CoresReady					// Set CoresReady count address
 189              	.WaitCore1ACK:
 190 015c 610040B9 		ldr	w1, [x3]							// Read CoresReady count
 191 0160 3F080071 		cmp	w1, #2								// Wait for setting of second core ready
 192 0164 C1FFFF54 		bne	.WaitCore1ACK						// Core1 not ready so read again
 193              	#define spin_cpu2 0xe8
 194 0168 011D80D2 		mov x1, #spin_cpu2						// Spin core2 jump address
 195 016c 62070058 		ldr x2, =multicore_start				// Function we are going to call
 196 0170 220000F9 		str	x2, [x1]							// Store the function address to core2
 197 0174 9F2003D5 		sev										// Wake core2 up
 198 0178 83020058 	 	ldr x3, =RPi_CoresReady					// Set CoresReady count address
 199              	.WaitCore2ACK:
 200 017c 610040B9 		ldr	w1, [x3]							// Read CoresReady count
 201 0180 3F0C0071 		cmp	w1, #3								// Wait for setting of third core ready
 202 0184 C1FFFF54 		bne	.WaitCore2ACK						// Core2 not ready so read again
 203              	#define spin_cpu3 0xf0
 204 0188 011E80D2 		mov x1, #spin_cpu3						// Spin core3 jump address
 205 018c 62060058 		ldr x2, =multicore_start				// Function we are going to call
 206 0190 220000F9 		str	x2, [x1]							// Store the function address to core3
 207 0194 9F2003D5 		sev										// Wake core3 up
 208 0198 83010058 	 	ldr x3, =RPi_CoresReady					// Set CoresReady count address
 209              	.WaitCore3ACK:
 210 019c 610040B9 		ldr	w1, [x3]							// Read CoresReady count
 211 01a0 3F100071 		cmp	w1, #4								// Wait for setting of third core ready
 212 01a4 C1FFFF54 		bne	.WaitCore3ACK						// Core3 not ready so read again
 213              	
 214              	//"================================================================"
 215              	// Finally that all done Core0 jumps to the C compiler entry point
 216              	//"================================================================"
 217 01a8 00000014 		b kernel_main							// Jump out to C kernel 
 218              	
 219              	/*================================================================"
 220              	      Just safety incase C code ever returns back
 221              	"================================================================*/
 222              	hang:
 223 01ac 00000014 		b hang
 224              	.balign	4
 225 01b0 00000000 	.ltorg										/* Tell assembler ltorg data for code above can go here */
AARCH64 GAS  C:\Users\ldebo\AppData\Local\Temp\ccfW7LPV.s 			page 5


 225      00000000 
 225      0000003F 
 225      00000000 
 225      00000000 
 226              	
 227              	
 228              	/*++++++++++++++++++++++++++++++++++++++++++++++++++++++++++++++++++++++++++}
 229              	{    Modified bootloader Spin loop but tolerant on registers X0-X7 for C    }
 230              	{++++++++++++++++++++++++++++++++++++++++++++++++++++++++++++++++++++++++++*/
 231              	#define spin_cpu0 0xd8
 232              	.balign	4
 233              	StartSecondarySpin:
 234 0260 A60038D5 		mrs x6, MPIDR_EL1						// Fetch core Id
 235 0264 C6044092 		and x6, x6, #0x3						// Create 2 bit mask of core Id
 236 0268 051B80D2 		mov x5, #spin_cpu0						// Load address of spins
 237 026c 010080D2 		mov x1, #0                              // zero x1 register
 238 0270 A17826F8 		str x1, [x5, x6, lsl #3]				// Make sure caller address is zeroed
 239              	secondary_spin:
 240 0274 5F2003D5 		wfe										// This is all I really want processor to sleep
 241 0278 A47866F8 	    ldr x4, [x5, x6, lsl #3]				// Fetch address that has been set
 242 027c C4FFFFB4 		cbz x4, secondary_spin					// If zero spin 
 243 0280 000080D2 		mov x0, #0
 244 0284 A07826F8 		str x0, [x5, x6, lsl #3]				// Zero caller address
 245 0288 010080D2 		mov x1, #0
 246 028c 020080D2 		mov x2, #0
 247 0290 030080D2 		mov x3, #0
 248 0294 80003FD6 		blr x4									// Call the function set
 249 0298 F2FFFF17 		b StartSecondarySpin					// Loop back to spinlock
 250              	
 251              	
 252              	.globl EnableInterrupts
 253              	EnableInterrupts:
 254 029c FF4203D5 		msr daifclr,#2
 255 02a0 C0035FD6 		ret
 256              	
 257              	.globl DisableInterrupts
 258              	DisableInterrupts:
 259 02a4 DF4203D5 		msr daifset,#2
 260 02a8 C0035FD6 		ret
 261              	
 262              	.globl CoreExecute
 263              	CoreExecute:
 264 02ac 001C40F2 		ands x0, x0, #255
 265 02b0 A0010054 		beq CoreExecuteFail
 266 02b4 E3010058 		ldr x3, =RPi_CoresReady
 267 02b8 620040B9 		ldr w2, [x3]							// Fetch cores ready count
 268 02bc 1F00026B 		cmp w0, w2
 269 02c0 22010054 		bcs	CoreExecuteFail
 270 02c4 060080D2 		mov x6, #0
 271 02c8 E603002A 		mov w6, w0
 272 02cc 051B80D2 		mov x5, #spin_cpu0						// Load address of spins
 273 02d0 A17826F8 		str x1, [x5, x6, lsl #3]				// Save caller address
 274 02d4 9F3F03D5 		dsb sy
 275 02d8 9F2003D5 		sev
 276 02dc 200080D2 		mov x0, #1
 277 02e0 C0035FD6 		ret
 278              	CoreExecuteFail:
AARCH64 GAS  C:\Users\ldebo\AppData\Local\Temp\ccfW7LPV.s 			page 6


 279 02e4 000080D2 		mov x0, #0
 280 02e8 C0035FD6 		ret
 281              	.balign	4
 282 02ec 00000000 	.ltorg										// Tell assembler ltorg data for this code can go here
 282      00000000 
 282      00000000 
 283              	
 284              	/*++++++++++++++++++++++++++++++++++++++++++++++++++++++++++++++++++++++++++}
 285              	{				IRQ HELPER ROUTINES PROVIDE BY RPi-SmartStart API		    }
 286              	{++++++++++++++++++++++++++++++++++++++++++++++++++++++++++++++++++++++++++*/
 287              	
 288              	/* "PROVIDE C FUNCTION: TimerIrqHandler setTimerIrqAddress ( TimerIrqHandler* ARMaddress);" */
 289              	.section .text.setTimerIrqAddress, "ax", %progbits
 290              	.balign	4
 291              	.globl setTimerIrqAddress;
 292              	.type setTimerIrqAddress, %function
 293              	setTimerIrqAddress:
 294 0000 DF4203D5 		msr daifset,#2							// Disable irq interrupts as we are clearly changing call
 295 0004 A1000058 		ldr x1, =RPi_TimerIrqAddr				// Load address of function to call on interrupt 
 296 0008 220040F9 		ldr x2, [x1]							// Load current irq call address
 297 000c 200000F9 		str x0, [x1]							// Store the new function pointer address we were given
 298 0010 E00302AA 		mov x0, x2								// return the old call function
 299 0014 C0035FD6 		ret										// Return
 300              	.balign	4
 301 0018 00000000 	.ltorg										// Tell assembler ltorg data for this code can go here
 301      00000000 
 302              	.size	setTimerIrqAddress, .-setTimerIrqAddress
 303              	
 304              	/*++++++++++++++++++++++++++++++++++++++++++++++++++++++++++++++++++++++++++}
 305              	{			VC4 ADDRESS HELPER ROUTINES PROVIDE BY RPi-SmartStart API	    }
 306              	{++++++++++++++++++++++++++++++++++++++++++++++++++++++++++++++++++++++++++*/
 307              	
 308              	/* "PROVIDE C FUNCTION: uint32_t ARMaddrToGPUaddr (void* ARMaddress);" */
 309              	.section .text.ARMaddrToGPUaddr, "ax", %progbits
 310              	.balign	4
 311              	.globl ARMaddrToGPUaddr;		
 312              	.type ARMaddrToGPUaddr, %function
 313              	//"================================================================"
 314              	// ARMaddrToGPUaddr -- AARCH64 Pi3 code
 315              	// C Function: uint32_t ARMaddrToGPUaddr (void* ARMaddress);
 316              	// Entry: x0 will have ARMAddress value
 317              	//"================================================================"
 318              	ARMaddrToGPUaddr:
 319 0000 0100B8D2 		mov x1, #0xC0000000						// ARM to VC conversion value
 320 0004 000001AA 		orr x0, x0, x1							// Create bus address
 321 0008 C0035FD6 		ret										// Return
 322              	.balign	4
 323              	.ltorg										// Tell assembler ltorg data for this code can go here
 324              	.size	ARMaddrToGPUaddr, .-ARMaddrToGPUaddr
 325              	
 326              	
 327              	/* "PROVIDE C FUNCTION: uint32_t GPUaddrToARMaddr (uint32_t BUSaddress);" */
 328              	.section .text.GPUaddrToARMaddr, "ax", %progbits
 329              	.balign	4
 330              	.globl GPUaddrToARMaddr;		
 331              	.type GPUaddrToARMaddr, %function
 332              	//"================================================================"
AARCH64 GAS  C:\Users\ldebo\AppData\Local\Temp\ccfW7LPV.s 			page 7


 333              	// GPUaddrToARMaddr -- AARCH64 Pi3 code
 334              	// C Function: uint32_t GPUaddrToARMaddr (uint32_t BUSaddress);
 335              	// Entry: x0 will have GPUAddress value
 336              	//"================================================================"
 337              	GPUaddrToARMaddr:
 338 0000 0100B8D2 		mov x1, #0xC0000000						// ARM to VC conversion value	
 339 0004 0000218A 		bic x0, x0, x1							// Create arm address
 340 0008 C0035FD6 		ret										// Return
 341              	.balign	4
 342              	.ltorg										// Tell assembler ltorg data for this code can go here
 343              	.size	GPUaddrToARMaddr, .-GPUaddrToARMaddr
 344              	
 345              	
 346              	/* Re-entrant interrupt handler stub */
 347              	/* http://infocenter.arm.com/help/index.jsp?topic=/com.arm.doc.den0024a/ch10s05.html */
 348              	.globl irq_handler
 349              	irq_handler:
 350 000c FD7BBFA9 		stp	x29, x30, [sp, #-16]!
 351 0010 FB73BFA9 		stp	x27, x28, [sp, #-16]!
 352 0014 F96BBFA9 		stp	x25, x26, [sp, #-16]!
 353 0018 F763BFA9 		stp	x23, x24, [sp, #-16]!
 354 001c F55BBFA9 		stp	x21, x22, [sp, #-16]!
 355 0020 F353BFA9 		stp	x19, x20, [sp, #-16]!
 356 0024 F14BBFA9 		stp	x17, x18, [sp, #-16]!
 357 0028 EF43BFA9 		stp	x15, x16, [sp, #-16]!
 358 002c ED3BBFA9 		stp	x13, x14, [sp, #-16]!
 359 0030 EB33BFA9 		stp	x11, x12, [sp, #-16]!
 360 0034 E92BBFA9 		stp	x9, x10, [sp, #-16]!
 361 0038 E723BFA9 		stp	x7, x8, [sp, #-16]!
 362 003c E51BBFA9 		stp	x5, x6, [sp, #-16]!
 363 0040 E313BFA9 		stp	x3, x4, [sp, #-16]!
 364 0044 E10BBFA9 		stp	x1, x2, [sp, #-16]!
 365 0048 E00F1FF8 		str	x0, [sp, #-16]!
 366              		
 367 004c 014038D5 		mrs	x1, SPSR_EL1
 368 0050 224038D5 		mrs	x2, ELR_EL1
 369 0054 E10BBFA9 		stp	x1, x2, [sp, #-16]!
 370              	
 371              		
 372              		//  if (IRQ->IRQBasicPending.Timer_IRQ_pending) {				// Check irq on timer is triggered
 373              		//	  ARMTIMER->Clear = 1;										// Write any value to register to clear irq ... PAGE 198
 374              		//	  IRQ->IRQPending1 &= ~0x1;									// Clear timer pending irq bit 0
 375              		//  }
 376 0058 80790058 		ldr x0, =RPi_IO_Base_Addr
 377 005c 000040B9 		ldr	w0, [x0]						// Fetch Pi IO base address
 378 0060 03409652 		mov	w3, 45568						// W3 = 0xB200
 379 0064 0100030B 		add	w1, w0, w3						// W1 = Pi IO base addres + 0xB200
 380 0068 220040B9 		ldr	w2, [x1]						// W2 = IRQ->IRQBasicPending
 381 006c E2000036 		tbz	x2, 0, .TimerIrqNotPending	    // If timer IRQ pending not yet exit		
 382 0070 02809652 		mov	w2, 46080						// W2 = 0xB400
 383 0074 0000020B 		add	w0, w0, w2						// Add Pi Base Addr + 0xB400
 384 0078 020C00B9 		str	w2, [x0, 12]					// Store W2 to IRQPending1 clearing it				
 385 007c 200440B9 		ldr	w0, [x1, 4]						// W0 = IRQPending1
 386 0080 00781F12 		and	w0, w0, -2						// Clear timer pending irq bit 0
 387 0084 200400B9 		str	w0, [x1, 4]						// Write IRQPending1 clearing
 388              	.TimerIrqNotPending:
 389              	
AARCH64 GAS  C:\Users\ldebo\AppData\Local\Temp\ccfW7LPV.s 			page 8


 390 0088 FF4203D5 		msr daifclr,#2						// Enable irq interrupts
 391 008c 20780058 		ldr x0, =RPi_TimerIrqAddr			// Address to TimerIrqAddr
 392 0090 000040F9 		ldr x0, [x0]						// Load TimerIrqAddr value
 393 0094 600000B4 		cbz x0, no_irqset					// If zero no irq set 
 394 0098 00003FD6 		blr x0								// Call Irqhandler that has been set
 395 009c DF4203D5 		msr daifset,#2						// Disable irq interrupts
 396              	no_irqset:
 397              	
 398              	
 399 00a0 E10BC1A8 		ldp	x1, x2, [sp], #16
 400 00a4 224018D5 		msr	ELR_EL1, x2
 401 00a8 014018D5 		msr	SPSR_EL1, x1
 402              	
 403 00ac E00741F8 		ldr	x0, [sp], #16
 404 00b0 E10BC1A8 		ldp	x1, x2, [sp], #16
 405 00b4 E313C1A8 		ldp	x3, x4, [sp], #16
 406 00b8 E51BC1A8 		ldp	x5, x6, [sp], #16
 407 00bc E723C1A8 		ldp	x7, x8, [sp], #16
 408 00c0 E92BC1A8 		ldp	x9, x10, [sp], #16
 409 00c4 EB33C1A8 		ldp	x11, x12, [sp], #16
 410 00c8 ED3BC1A8 		ldp	x13, x14, [sp], #16
 411 00cc EF43C1A8 		ldp	x15, x16, [sp], #16
 412 00d0 F14BC1A8 		ldp	x17, x18, [sp], #16
 413 00d4 F353C1A8 		ldp	x19, x20, [sp], #16
 414 00d8 F55BC1A8 		ldp	x21, x22, [sp], #16
 415 00dc F763C1A8 		ldp	x23, x24, [sp], #16
 416 00e0 F96BC1A8 		ldp	x25, x26, [sp], #16
 417 00e4 FB73C1A8 		ldp	x27, x28, [sp], #16
 418 00e8 FD7BC1A8 		ldp	x29, x30, [sp], #16
 419 00ec E0039FD6 		eret
 420              	
 421              	/* macro to align handlers every 0x80 bytes */
 422              	.macro	vector handler
 423              	.balign 0x80
 424              	b	\handler
 425              	.endm
 426              	
 427 00f0 1F2003D5 	.balign 0x800
 427      1F2003D5 
 427      1F2003D5 
 427      1F2003D5 
 427      1F2003D5 
 428              	.globl	VectorTable
 429              	VectorTable:
 430              		/* from current EL with sp_el0 */
 431 0800 00000014 		vector	_start			/* Synchronous */
 432 0804 1F2003D5 		vector  hang			/* IRQ */
 432      1F2003D5 
 432      1F2003D5 
 432      1F2003D5 
 432      1F2003D5 
 433 0884 1F2003D5 		vector	hang			/* FIQ */
 433      1F2003D5 
 433      1F2003D5 
 433      1F2003D5 
 433      1F2003D5 
 434 0904 1F2003D5 		vector	hang			/* SErrorStub */
AARCH64 GAS  C:\Users\ldebo\AppData\Local\Temp\ccfW7LPV.s 			page 9


 434      1F2003D5 
 434      1F2003D5 
 434      1F2003D5 
 434      1F2003D5 
 435              	
 436              		/* from current EL with sp_elx, x != 0 */
 437 0984 1F2003D5 		vector	hang			/* Synchronous */
 437      1F2003D5 
 437      1F2003D5 
 437      1F2003D5 
 437      1F2003D5 
 438 0a04 1F2003D5 		vector	irq_handler		/* IRQ */
 438      1F2003D5 
 438      1F2003D5 
 438      1F2003D5 
 438      1F2003D5 
 439 0a84 1F2003D5 		vector	hang			/* FIQ */
 439      1F2003D5 
 439      1F2003D5 
 439      1F2003D5 
 439      1F2003D5 
 440 0b04 1F2003D5 		vector	hang			/* SErrorStub */
 440      1F2003D5 
 440      1F2003D5 
 440      1F2003D5 
 440      1F2003D5 
 441              	
 442              		/* from lower EL, target EL minus 1 is AArch64 */
 443 0b84 1F2003D5 		vector	hang			/* Synchronous */
 443      1F2003D5 
 443      1F2003D5 
 443      1F2003D5 
 443      1F2003D5 
 444 0c04 1F2003D5 		vector  hang			/* IRQ */
 444      1F2003D5 
 444      1F2003D5 
 444      1F2003D5 
 444      1F2003D5 
 445 0c84 1F2003D5 		vector	hang			/* FIQ */
 445      1F2003D5 
 445      1F2003D5 
 445      1F2003D5 
 445      1F2003D5 
 446 0d04 1F2003D5 		vector	hang			/* SErrorStub */
 446      1F2003D5 
 446      1F2003D5 
 446      1F2003D5 
 446      1F2003D5 
 447              	
 448              		/* from lower EL, target EL minus 1 is AArch32 */
 449 0d84 1F2003D5 		vector	hang			/* Synchronous */
 449      1F2003D5 
 449      1F2003D5 
 449      1F2003D5 
 449      1F2003D5 
 450 0e04 1F2003D5 		vector  hang			/* IRQ */
 450      1F2003D5 
AARCH64 GAS  C:\Users\ldebo\AppData\Local\Temp\ccfW7LPV.s 			page 10


 450      1F2003D5 
 450      1F2003D5 
 450      1F2003D5 
 451 0e84 1F2003D5 		vector	hang			/* FIQ */
 451      1F2003D5 
 451      1F2003D5 
 451      1F2003D5 
 451      1F2003D5 
 452 0f04 1F2003D5 		vector	hang			/* SErrorStub */
 452      1F2003D5 
 452      1F2003D5 
 452      1F2003D5 
 452      1F2003D5 
 453              	
 454              	/****************************************************************
 455              	       	   DATA FOR SMARTSTART64  EXPOSED TO INTERFACE 
 456              	****************************************************************/
 457 0f84 00000000 	.section ".data.smartstart64", "aw"
 458              	.balign 4
 459              	
 460              	.globl RPi_IO_Base_Addr;				// Make sure Pi_IO_Base_Addr label is global
 461 0000 00000000 	RPi_IO_Base_Addr : .4byte 0;			// Peripheral Base addr is 4 byte variable in 64bit mode
 462              	
 463              	.globl RPi_BootAddr;					// Make sure RPi_BootAddr label is global
 464 0004 00000000 	RPi_BootAddr : .4byte 0;				// CPU boot address is 4 byte variable in 64bit mode
 465              	
 466              	.globl RPi_CoresReady;					// Make sure RPi_CoresReady label is global
 467 0008 00000000 	RPi_CoresReady : .4byte 0;				// CPU cores ready for use is 4 byte variable in 32bit mode
 468              	
 469              	.globl RPi_CPUBootMode;					// Make sure RPi_CPUBootMode label is global
 470 000c 00000000 	RPi_CPUBootMode : .4byte 0;				// CPU Boot Mode is 4 byte variable in 64bit mode
 471              	
 472              	.globl RPi_CpuId;						// Make sure RPi_CpuId label is global
 473 0010 00000000 	RPi_CpuId : .4byte 0;					// CPU Id is 4 byte variable in 64bit mode
 474              	
 475              	.globl RPi_CompileMode;					// Make sure RPi_CompileMode label is global
 476 0014 00000000 	RPi_CompileMode : .4byte 0;				// Compile mode is 4 byte variable in 64bit mode
 477              	
 478              	/****************************************************************
 479              	       	   DATA FOR SMARTSTART64  NOT EXPOSED TO INTERFACE 
 480              	****************************************************************/
 481 0018 00000000 	RPi_TimerIrqAddr : .8byte 0;			// Timer Irq Address...
 481      00000000 
AARCH64 GAS  C:\Users\ldebo\AppData\Local\Temp\ccfW7LPV.s 			page 11


DEFINED SYMBOLS
      SmartStart64.S:38     .text.startup:0000000000000000 $x
      SmartStart64.S:40     .text.startup:0000000000000000 _start
      SmartStart64.S:464    .data.smartstart64:0000000000000004 RPi_BootAddr
      SmartStart64.S:461    .data.smartstart64:0000000000000000 RPi_IO_Base_Addr
      SmartStart64.S:467    .data.smartstart64:0000000000000008 RPi_CoresReady
      SmartStart64.S:476    .data.smartstart64:0000000000000014 RPi_CompileMode
      SmartStart64.S:473    .data.smartstart64:0000000000000010 RPi_CpuId
      SmartStart64.S:77     .text.startup:0000000000000058 multicore_start
      SmartStart64.S:97     .text.startup:00000000000000a4 set_stacks
      SmartStart64.S:146    .text.startup:0000000000000104 exit_el1
      SmartStart64.S:159    .text.startup:0000000000000124 cpu0_exit_multicore_park
      SmartStart64.S:233    .text.startup:0000000000000260 StartSecondarySpin
      SmartStart64.S:429    .text.GPUaddrToARMaddr:0000000000000800 VectorTable
      SmartStart64.S:178    .text.startup:0000000000000148 .bss_cleared
      SmartStart64.S:174    .text.startup:000000000000013c .bss_zero_loop
      SmartStart64.S:189    .text.startup:000000000000015c .WaitCore1ACK
      SmartStart64.S:199    .text.startup:000000000000017c .WaitCore2ACK
      SmartStart64.S:209    .text.startup:000000000000019c .WaitCore3ACK
      SmartStart64.S:222    .text.startup:00000000000001ac hang
      SmartStart64.S:225    .text.startup:00000000000001b0 $d
      SmartStart64.S:232    .text.startup:0000000000000260 $x
      SmartStart64.S:239    .text.startup:0000000000000274 secondary_spin
      SmartStart64.S:253    .text.startup:000000000000029c EnableInterrupts
      SmartStart64.S:258    .text.startup:00000000000002a4 DisableInterrupts
      SmartStart64.S:263    .text.startup:00000000000002ac CoreExecute
      SmartStart64.S:278    .text.startup:00000000000002e4 CoreExecuteFail
      SmartStart64.S:282    .text.startup:00000000000002f0 $d
      SmartStart64.S:290    .text.setTimerIrqAddress:0000000000000000 $x
      SmartStart64.S:293    .text.setTimerIrqAddress:0000000000000000 setTimerIrqAddress
      SmartStart64.S:481    .data.smartstart64:0000000000000018 RPi_TimerIrqAddr
      SmartStart64.S:301    .text.setTimerIrqAddress:0000000000000018 $d
      SmartStart64.S:310    .text.ARMaddrToGPUaddr:0000000000000000 $x
      SmartStart64.S:318    .text.ARMaddrToGPUaddr:0000000000000000 ARMaddrToGPUaddr
      SmartStart64.S:329    .text.GPUaddrToARMaddr:0000000000000000 $x
      SmartStart64.S:337    .text.GPUaddrToARMaddr:0000000000000000 GPUaddrToARMaddr
      SmartStart64.S:349    .text.GPUaddrToARMaddr:000000000000000c irq_handler
      SmartStart64.S:388    .text.GPUaddrToARMaddr:0000000000000088 .TimerIrqNotPending
      SmartStart64.S:396    .text.GPUaddrToARMaddr:00000000000000a0 no_irqset
      SmartStart64.S:458    .data.smartstart64:0000000000000000 $d
      SmartStart64.S:470    .data.smartstart64:000000000000000c RPi_CPUBootMode
      SmartStart64.S:481    .text.GPUaddrToARMaddr:0000000000000f88 $d

UNDEFINED SYMBOLS
__EL2_stack_core0
__EL1_stack_core0
__EL0_stack_core0
__EL2_stack_core1
__EL1_stack_core1
__EL0_stack_core1
__EL2_stack_core2
__EL1_stack_core2
__EL0_stack_core2
__EL2_stack_core3
__EL1_stack_core3
__EL0_stack_core3
__bss_end__
AARCH64 GAS  C:\Users\ldebo\AppData\Local\Temp\ccfW7LPV.s 			page 12


__bss_start__
kernel_main
AARCH64 GAS  C:\Users\ldebo\AppData\Local\Temp\ccfW7LPV.s 			page 1


   1              		.arch armv8-a
   2              		.file	"rpi-SmartStart.c"
   3              		.text
   4              		.align	2
   5              		.p2align 4,,15
   6              		.type	ClearArea16, %function
   7              	ClearArea16:
   8 0000 09204029 		ldp	w9, w8, [x0]
   9 0004 4A00020B 		add	w10, w2, w2
  10 0008 0C0840B9 		ldr	w12, [x0, 8]
  11 000c 2B781F53 		lsl	w11, w1, 1
  12 0010 06B84039 		ldrb	w6, [x0, 46]
  13 0014 8400026B 		subs	w4, w4, w2
  14 0018 07B04039 		ldrb	w7, [x0, 44]
  15 001c 298108AA 		orr	x9, x9, x8, lsl 32
  16 0020 05B44039 		ldrb	w5, [x0, 45]
  17 0024 29010B8B 		add	x9, x9, x11
  18 0028 4A7D0C1B 		mul	w10, w10, w12
  19 002c C67C0353 		lsr	w6, w6, 3
  20 0030 E77C0353 		lsr	w7, w7, 3
  21 0034 29010A8B 		add	x9, x9, x10
  22 0038 A07C0253 		lsr	w0, w5, 2
  23 003c 60030054 		beq	.L1
  24 0040 8C7D7FD3 		ubfiz	x12, x12, 1, 32
  25 0044 6300016B 		subs	w3, w3, w1
  26 0048 00030054 		beq	.L1
  27 004c 63040051 		sub	w3, w3, #1
  28 0050 4B0080D2 		mov	x11, 2
  29 0054 6B45238B 		add	x11, x11, x3, uxtw 1
  30 0058 08081B53 		ubfiz	w8, w0, 5, 3
  31 005c 037C0353 		lsr	w3, w0, 3
  32 0060 0A008052 		mov	w10, 0
  33 0064 1F2003D5 		.p2align 3
  34              	.L3:
  35 0068 E10309AA 		mov	x1, x9
  36 006c 6501098B 		add	x5, x11, x9
  37              		.p2align 3
  38              	.L4:
  39 0070 20044039 		ldrb	w0, [x1, 1]
  40 0074 E200082A 		orr	w2, w7, w8
  41 0078 21080091 		add	x1, x1, 2
  42 007c 22E01F38 		strb	w2, [x1, -2]
  43 0080 00701D12 		and	w0, w0, -8
  44 0084 3F0005EB 		cmp	x1, x5
  45 0088 0000032A 		orr	w0, w0, w3
  46 008c C0101D33 		bfi	w0, w6, 3, 5
  47 0090 20F01F38 		strb	w0, [x1, -1]
  48 0094 E1FEFF54 		bne	.L4
  49 0098 4A050011 		add	w10, w10, 1
  50 009c 29010C8B 		add	x9, x9, x12
  51 00a0 5F01046B 		cmp	w10, w4
  52 00a4 21FEFF54 		bne	.L3
  53              	.L1:
  54 00a8 C0035FD6 		ret
  55              		.size	ClearArea16, .-ClearArea16
  56              		.align	2
  57 00ac 1F2003D5 		.p2align 4,,15
AARCH64 GAS  C:\Users\ldebo\AppData\Local\Temp\ccfW7LPV.s 			page 2


  58              		.type	VertLine16, %function
  59              	VertLine16:
  60 00b0 050840B9 		ldr	w5, [x0, 8]
  61 00b4 04B04229 		ldp	w4, w12, [x0, 20]
  62 00b8 A900050B 		add	w9, w5, w5
  63 00bc 0A0C4029 		ldp	w10, w3, [x0]
  64 00c0 8400040B 		add	w4, w4, w4
  65 00c4 07984039 		ldrb	w7, [x0, 38]
  66 00c8 297D0C1B 		mul	w9, w9, w12
  67 00cc 06944039 		ldrb	w6, [x0, 37]
  68 00d0 08904039 		ldrb	w8, [x0, 36]
  69 00d4 438103AA 		orr	x3, x10, x3, lsl 32
  70 00d8 63C0248B 		add	x3, x3, x4, sxtw
  71 00dc E77C0353 		lsr	w7, w7, 3
  72 00e0 C67C0253 		lsr	w6, w6, 2
  73 00e4 6300098B 		add	x3, x3, x9
  74 00e8 087D0353 		lsr	w8, w8, 3
  75 00ec 81020034 		cbz	w1, .L14
  76 00f0 A57C7FD3 		ubfiz	x5, x5, 1, 32
  77 00f4 CB081B53 		ubfiz	w11, w6, 5, 3
  78 00f8 5F040071 		cmp	w2, 1
  79 00fc C67C0353 		lsr	w6, w6, 3
  80 0100 EA0305CB 		neg	x10, x5
  81 0104 20020054 		beq	.L18
  82 0108 05008052 		mov	w5, 0
  83 010c 1F2003D5 		.p2align 3
  84              	.L16:
  85 0110 64044039 		ldrb	w4, [x3, 1]
  86 0114 09010B2A 		orr	w9, w8, w11
  87 0118 69000039 		strb	w9, [x3]
  88 011c A5040011 		add	w5, w5, 1
  89 0120 84701D12 		and	w4, w4, -8
  90 0124 3F00056B 		cmp	w1, w5
  91 0128 8400062A 		orr	w4, w4, w6
  92 012c E4101D33 		bfi	w4, w7, 3, 5
  93 0130 64040039 		strb	w4, [x3, 1]
  94 0134 63000A8B 		add	x3, x3, x10
  95 0138 C1FEFF54 		bne	.L16
  96              	.L14:
  97 013c 4130011B 		madd	w1, w2, w1, w12
  98 0140 011800B9 		str	w1, [x0, 24]
  99 0144 C0035FD6 		ret
 100              		.p2align 3
 101              	.L18:
 102 0148 09008052 		mov	w9, 0
 103 014c 1F2003D5 		.p2align 3
 104              	.L15:
 105 0150 64044039 		ldrb	w4, [x3, 1]
 106 0154 0A010B2A 		orr	w10, w8, w11
 107 0158 6A000039 		strb	w10, [x3]
 108 015c 29050011 		add	w9, w9, 1
 109 0160 84701D12 		and	w4, w4, -8
 110 0164 3F00096B 		cmp	w1, w9
 111 0168 8400062A 		orr	w4, w4, w6
 112 016c E4101D33 		bfi	w4, w7, 3, 5
 113 0170 64040039 		strb	w4, [x3, 1]
 114 0174 6300058B 		add	x3, x3, x5
AARCH64 GAS  C:\Users\ldebo\AppData\Local\Temp\ccfW7LPV.s 			page 3


 115 0178 C1FEFF54 		bne	.L15
 116 017c 4130011B 		madd	w1, w2, w1, w12
 117 0180 011800B9 		str	w1, [x0, 24]
 118 0184 C0035FD6 		ret
 119              		.size	VertLine16, .-VertLine16
 120              		.align	2
 121 0188 1F2003D5 		.p2align 4,,15
 121      1F2003D5 
 122              		.type	HorzLine16, %function
 123              	HorzLine16:
 124 0190 030840B9 		ldr	w3, [x0, 8]
 125 0194 0C904229 		ldp	w12, w4, [x0, 20]
 126 0198 6300030B 		add	w3, w3, w3
 127 019c 06144029 		ldp	w6, w5, [x0]
 128 01a0 08984039 		ldrb	w8, [x0, 38]
 129 01a4 647C041B 		mul	w4, w3, w4
 130 01a8 07944039 		ldrb	w7, [x0, 37]
 131 01ac 83010C0B 		add	w3, w12, w12
 132 01b0 09904039 		ldrb	w9, [x0, 36]
 133 01b4 C58005AA 		orr	x5, x6, x5, lsl 32
 134 01b8 A3C0238B 		add	x3, x5, x3, sxtw
 135 01bc 087D0353 		lsr	w8, w8, 3
 136 01c0 E77C0253 		lsr	w7, w7, 2
 137 01c4 8400038B 		add	x4, x4, x3
 138 01c8 297D0353 		lsr	w9, w9, 3
 139 01cc 01020034 		cbz	w1, .L25
 140 01d0 EA081B53 		ubfiz	w10, w7, 5, 3
 141 01d4 4B7C7F93 		sbfiz	x11, x2, 1, 32
 142 01d8 E77C0353 		lsr	w7, w7, 3
 143 01dc 05008052 		mov	w5, 0
 144              		.p2align 3
 145              	.L26:
 146 01e0 83044039 		ldrb	w3, [x4, 1]
 147 01e4 26010A2A 		orr	w6, w9, w10
 148 01e8 86000039 		strb	w6, [x4]
 149 01ec A5040011 		add	w5, w5, 1
 150 01f0 63701D12 		and	w3, w3, -8
 151 01f4 3F00056B 		cmp	w1, w5
 152 01f8 6300072A 		orr	w3, w3, w7
 153 01fc 03111D33 		bfi	w3, w8, 3, 5
 154 0200 83040039 		strb	w3, [x4, 1]
 155 0204 84000B8B 		add	x4, x4, x11
 156 0208 C1FEFF54 		bne	.L26
 157              	.L25:
 158 020c 4130011B 		madd	w1, w2, w1, w12
 159 0210 011400B9 		str	w1, [x0, 20]
 160 0214 C0035FD6 		ret
 161              		.size	HorzLine16, .-HorzLine16
 162              		.align	2
 163 0218 1F2003D5 		.p2align 4,,15
 163      1F2003D5 
 164              		.type	DiagLine16, %function
 165              	DiagLine16:
 166 0220 050840B9 		ldr	w5, [x0, 8]
 167 0224 3F00026B 		cmp	w1, w2
 168 0228 08184029 		ldp	w8, w6, [x0]
 169 022c A700050B 		add	w7, w5, w5
AARCH64 GAS  C:\Users\ldebo\AppData\Local\Temp\ccfW7LPV.s 			page 4


 170 0230 10C44229 		ldp	w16, w17, [x0, 20]
 171 0234 2290821A 		csel	w2, w1, w2, ls
 172 0238 0C984039 		ldrb	w12, [x0, 38]
 173 023c 088106AA 		orr	x8, x8, x6, lsl 32
 174 0240 0A944039 		ldrb	w10, [x0, 37]
 175 0244 0602100B 		add	w6, w16, w16
 176 0248 0D904039 		ldrb	w13, [x0, 36]
 177 024c E77C111B 		mul	w7, w7, w17
 178 0250 06C1268B 		add	x6, x8, x6, sxtw
 179 0254 8C7D0353 		lsr	w12, w12, 3
 180 0258 4A7D0253 		lsr	w10, w10, 2
 181 025c C600078B 		add	x6, x6, x7
 182 0260 AD7D0353 		lsr	w13, w13, 3
 183 0264 21030034 		cbz	w1, .L32
 184 0268 AB7C041B 		mul	w11, w5, w4
 185 026c 4E091B53 		ubfiz	w14, w10, 5, 3
 186 0270 6F7C7F93 		sbfiz	x15, x3, 1, 32
 187 0274 4A7D0353 		lsr	w10, w10, 3
 188 0278 6B010B8B 		add	x11, x11, x11
 189 027c 08008052 		mov	w8, 0
 190 0280 07008052 		mov	w7, 0
 191 0284 1F2003D5 		.p2align 3
 192              	.L34:
 193 0288 C5044039 		ldrb	w5, [x6, 1]
 194 028c A9010E2A 		orr	w9, w13, w14
 195 0290 C9000039 		strb	w9, [x6]
 196 0294 E700020B 		add	w7, w7, w2
 197 0298 A5701D12 		and	w5, w5, -8
 198 029c 08050011 		add	w8, w8, 1
 199 02a0 A5000A2A 		orr	w5, w5, w10
 200 02a4 3F00076B 		cmp	w1, w7
 201 02a8 85111D33 		bfi	w5, w12, 3, 5
 202 02ac C5040039 		strb	w5, [x6, 1]
 203 02b0 C6000F8B 		add	x6, x6, x15
 204 02b4 68000054 		bhi	.L33
 205 02b8 E700014B 		sub	w7, w7, w1
 206 02bc C6000B8B 		add	x6, x6, x11
 207              	.L33:
 208 02c0 3F00086B 		cmp	w1, w8
 209 02c4 21FEFF54 		bne	.L34
 210              	.L32:
 211 02c8 6140011B 		madd	w1, w3, w1, w16
 212 02cc 8244021B 		madd	w2, w4, w2, w17
 213 02d0 01880229 		stp	w1, w2, [x0, 20]
 214 02d4 C0035FD6 		ret
 215              		.size	DiagLine16, .-DiagLine16
 216              		.align	2
 217 02d8 1F2003D5 		.p2align 4,,15
 217      1F2003D5 
 218              		.type	WriteChar16, %function
 219              	WriteChar16:
 220 02e0 0B0840B9 		ldr	w11, [x0, 8]
 221 02e4 211C1E53 		ubfiz	w1, w1, 2, 8
 222 02e8 F37BBFA9 		stp	x19, x30, [sp, -16]!
 223 02ec 12000090 		adrp	x18, BitFont
 224 02f0 52020091 		add	x18, x18, :lo12:BitFont
 225 02f4 04084029 		ldp	w4, w2, [x0]
AARCH64 GAS  C:\Users\ldebo\AppData\Local\Temp\ccfW7LPV.s 			page 5


 226 02f8 63010B0B 		add	w3, w11, w11
 227 02fc 1E944229 		ldp	w30, w5, [x0, 20]
 228 0300 33100011 		add	w19, w1, 4
 229 0304 11984039 		ldrb	w17, [x0, 38]
 230 0308 848002AA 		orr	x4, x4, x2, lsl 32
 231 030c 10944039 		ldrb	w16, [x0, 37]
 232 0310 C2031E0B 		add	w2, w30, w30
 233 0314 0F904039 		ldrb	w15, [x0, 36]
 234 0318 637C051B 		mul	w3, w3, w5
 235 031c 0EA84039 		ldrb	w14, [x0, 42]
 236 0320 82C0228B 		add	x2, x4, x2, sxtw
 237 0324 0DA44039 		ldrb	w13, [x0, 41]
 238 0328 317E0353 		lsr	w17, w17, 3
 239 032c 0CA04039 		ldrb	w12, [x0, 40]
 240 0330 107E0253 		lsr	w16, w16, 2
 241 0334 EF7D0353 		lsr	w15, w15, 3
 242 0338 CE7D0353 		lsr	w14, w14, 3
 243 033c AD7D0253 		lsr	w13, w13, 2
 244 0340 6300028B 		add	x3, x3, x2
 245 0344 8C7D0353 		lsr	w12, w12, 3
 246 0348 6B7D7FD3 		ubfiz	x11, x11, 1, 32
 247              	.L43:
 248 034c 465A61B8 		ldr	w6, [x18, w1, uxtw 2]
 249 0350 05008052 		mov	w5, 0
 250 0354 1F2003D5 		.p2align 3
 251              	.L42:
 252 0358 E2030D2A 		mov	w2, w13
 253 035c EA030E2A 		mov	w10, w14
 254 0360 E4030C2A 		mov	w4, w12
 255 0364 A9080012 		and	w9, w5, 7
 256 0368 8600F836 		tbz	w6, #31, .L40
 257 036c EA03112A 		mov	w10, w17
 258 0370 E203102A 		mov	w2, w16
 259 0374 E4030F2A 		mov	w4, w15
 260              	.L40:
 261 0378 28097FD3 		ubfiz	x8, x9, 1, 3
 262 037c 8414022A 		orr	w4, w4, w2, lsl 5
 263 0380 6700088B 		add	x7, x3, x8
 264 0384 3F1D0071 		cmp	w9, 7
 265 0388 A5040011 		add	w5, w5, 1
 266 038c 69000B8B 		add	x9, x3, x11
 267 0390 64682838 		strb	w4, [x3, x8]
 268 0394 C600060B 		add	w6, w6, w6
 269 0398 2301839A 		csel	x3, x9, x3, eq
 270 039c BF800071 		cmp	w5, 32
 271 03a0 E4044039 		ldrb	w4, [x7, 1]
 272 03a4 84701D12 		and	w4, w4, -8
 273 03a8 820C422A 		orr	w2, w4, w2, lsr 3
 274 03ac 42111D33 		bfi	w2, w10, 3, 5
 275 03b0 E2040039 		strb	w2, [x7, 1]
 276 03b4 21FDFF54 		bne	.L42
 277 03b8 21040011 		add	w1, w1, 1
 278 03bc 3F00136B 		cmp	w1, w19
 279 03c0 61FCFF54 		bne	.L43
 280 03c4 DE230011 		add	w30, w30, 8
 281 03c8 1E1400B9 		str	w30, [x0, 20]
 282 03cc F37BC1A8 		ldp	x19, x30, [sp], 16
AARCH64 GAS  C:\Users\ldebo\AppData\Local\Temp\ccfW7LPV.s 			page 6


 283 03d0 C0035FD6 		ret
 284              		.size	WriteChar16, .-WriteChar16
 285              		.align	2
 286 03d4 1F2003D5 		.p2align 4,,15
 286      1F2003D5 
 286      1F2003D5 
 287              		.type	TransparentWriteChar16, %function
 288              	TransparentWriteChar16:
 289 03e0 0A0840B9 		ldr	w10, [x0, 8]
 290 03e4 211C1E53 		ubfiz	w1, w1, 2, 8
 291 03e8 03084029 		ldp	w3, w2, [x0]
 292 03ec 44010A0B 		add	w4, w10, w10
 293 03f0 10944229 		ldp	w16, w5, [x0, 20]
 294 03f4 0F000090 		adrp	x15, BitFont
 295 03f8 EF010091 		add	x15, x15, :lo12:BitFont
 296 03fc 0B944039 		ldrb	w11, [x0, 37]
 297 0400 638002AA 		orr	x3, x3, x2, lsl 32
 298 0404 0D984039 		ldrb	w13, [x0, 38]
 299 0408 847C051B 		mul	w4, w4, w5
 300 040c 0C904039 		ldrb	w12, [x0, 36]
 301 0410 0202100B 		add	w2, w16, w16
 302 0414 6B7D0253 		lsr	w11, w11, 2
 303 0418 62C0228B 		add	x2, x3, x2, sxtw
 304 041c 6E091B53 		ubfiz	w14, w11, 5, 3
 305 0420 31100011 		add	w17, w1, 4
 306 0424 AD7D0353 		lsr	w13, w13, 3
 307 0428 8C7D0353 		lsr	w12, w12, 3
 308 042c 6B7D0353 		lsr	w11, w11, 3
 309 0430 8400028B 		add	x4, x4, x2
 310 0434 4A7D7FD3 		ubfiz	x10, x10, 1, 32
 311              	.L52:
 312 0438 E35961B8 		ldr	w3, [x15, w1, uxtw 2]
 313 043c 02008052 		mov	w2, 0
 314              		.p2align 3
 315              	.L51:
 316 0440 46080012 		and	w6, w2, 7
 317 0444 87000A8B 		add	x7, x4, x10
 318 0448 42040011 		add	w2, w2, 1
 319 044c 4301F836 		tbz	w3, #31, .L49
 320 0450 C5087FD3 		ubfiz	x5, x6, 1, 3
 321 0454 88010E2A 		orr	w8, w12, w14
 322 0458 8900058B 		add	x9, x4, x5
 323 045c 88682538 		strb	w8, [x4, x5]
 324 0460 25054039 		ldrb	w5, [x9, 1]
 325 0464 A5701D12 		and	w5, w5, -8
 326 0468 A5000B2A 		orr	w5, w5, w11
 327 046c A5111D33 		bfi	w5, w13, 3, 5
 328 0470 25050039 		strb	w5, [x9, 1]
 329              	.L49:
 330 0474 DF1C0071 		cmp	w6, 7
 331 0478 6300030B 		add	w3, w3, w3
 332 047c E400849A 		csel	x4, x7, x4, eq
 333 0480 5F800071 		cmp	w2, 32
 334 0484 E1FDFF54 		bne	.L51
 335 0488 21040011 		add	w1, w1, 1
 336 048c 3F02016B 		cmp	w17, w1
 337 0490 41FDFF54 		bne	.L52
AARCH64 GAS  C:\Users\ldebo\AppData\Local\Temp\ccfW7LPV.s 			page 7


 338 0494 10220011 		add	w16, w16, 8
 339 0498 101400B9 		str	w16, [x0, 20]
 340 049c C0035FD6 		ret
 341              		.size	TransparentWriteChar16, .-TransparentWriteChar16
 342              		.align	2
 343              		.p2align 4,,15
 344              		.type	PutImage16, %function
 345              	PutImage16:
 346 04a0 090840B9 		ldr	w9, [x0, 8]
 347 04a4 841C0012 		and	w4, w4, 255
 348 04a8 081C4029 		ldp	w8, w7, [x0]
 349 04ac 2501090B 		add	w5, w9, w9
 350 04b0 061840B9 		ldr	w6, [x0, 24]
 351 04b4 001440B9 		ldr	w0, [x0, 20]
 352 04b8 078107AA 		orr	x7, x8, x7, lsl 32
 353 04bc 0000000B 		add	w0, w0, w0
 354 04c0 A67C061B 		mul	w6, w5, w6
 355 04c4 E5C0208B 		add	x5, x7, x0, sxtw
 356 04c8 A500068B 		add	x5, x5, x6
 357 04cc 82030034 		cbz	w2, .L55
 358 04d0 297D7FD3 		ubfiz	x9, x9, 1, 32
 359 04d4 EA0309CB 		neg	x10, x9
 360 04d8 21030034 		cbz	w1, .L55
 361 04dc 27040051 		sub	w7, w1, #1
 362 04e0 08008052 		mov	w8, 0
 363 04e4 E7040091 		add	x7, x7, 1
 364 04e8 E700078B 		add	x7, x7, x7
 365 04ec 1F2003D5 		.p2align 3
 366              	.L58:
 367 04f0 000080D2 		mov	x0, 0
 368 04f4 1F2003D5 		.p2align 3
 369              	.L59:
 370 04f8 61686038 		ldrb	w1, [x3, x0]
 371 04fc 6600008B 		add	x6, x3, x0
 372 0500 A1682038 		strb	w1, [x5, x0]
 373 0504 A100008B 		add	x1, x5, x0
 374 0508 00080091 		add	x0, x0, 2
 375 050c C6044039 		ldrb	w6, [x6, 1]
 376 0510 1F0007EB 		cmp	x0, x7
 377 0514 26040039 		strb	w6, [x1, 1]
 378 0518 01FFFF54 		bne	.L59
 379 051c 9F000071 		cmp	w4, 0
 380 0520 A0000A8B 		add	x0, x5, x10
 381 0524 08050011 		add	w8, w8, 1
 382 0528 A500098B 		add	x5, x5, x9
 383 052c A500809A 		csel	x5, x5, x0, eq
 384 0530 6300078B 		add	x3, x3, x7
 385 0534 5F00086B 		cmp	w2, w8
 386 0538 C1FDFF54 		bne	.L58
 387              	.L55:
 388 053c C0035FD6 		ret
 389              		.size	PutImage16, .-PutImage16
 390              		.align	2
 391              		.p2align 4,,15
 392              		.type	ClearArea24, %function
 393              	ClearArea24:
 394 0540 09144029 		ldp	w9, w5, [x0]
AARCH64 GAS  C:\Users\ldebo\AppData\Local\Temp\ccfW7LPV.s 			page 8


 395 0544 4604020B 		add	w6, w2, w2, lsl 1
 396 0548 080840B9 		ldr	w8, [x0, 8]
 397 054c 2704010B 		add	w7, w1, w1, lsl 1
 398 0550 8400026B 		subs	w4, w4, w2
 399 0554 258105AA 		orr	x5, x9, x5, lsl 32
 400 0558 A500078B 		add	x5, x5, x7
 401 055c C67C081B 		mul	w6, w6, w8
 402 0560 A500068B 		add	x5, x5, x6
 403 0564 40030054 		beq	.L70
 404 0568 67008052 		mov	w7, 3
 405 056c 6300016B 		subs	w3, w3, w1
 406 0570 087DA79B 		umull	x8, w8, w7
 407 0574 C0020054 		beq	.L70
 408 0578 63040051 		sub	w3, w3, #1
 409 057c 620080D2 		mov	x2, 3
 410 0580 01B00091 		add	x1, x0, 44
 411 0584 06008052 		mov	w6, 0
 412 0588 6708A79B 		umaddl	x7, w3, w7, x2
 413 058c 1F2003D5 		.p2align 3
 414              	.L72:
 415 0590 E00305AA 		mov	x0, x5
 416 0594 E300058B 		add	x3, x7, x5
 417              		.p2align 3
 418              	.L73:
 419 0598 000C0091 		add	x0, x0, 3
 420 059c 22004039 		ldrb	w2, [x1]
 421 05a0 1F0003EB 		cmp	x0, x3
 422 05a4 02D01F38 		strb	w2, [x0, -3]
 423 05a8 22044039 		ldrb	w2, [x1, 1]
 424 05ac 02E01F38 		strb	w2, [x0, -2]
 425 05b0 22084039 		ldrb	w2, [x1, 2]
 426 05b4 02F01F38 		strb	w2, [x0, -1]
 427 05b8 01FFFF54 		bne	.L73
 428 05bc C6040011 		add	w6, w6, 1
 429 05c0 A500088B 		add	x5, x5, x8
 430 05c4 DF00046B 		cmp	w6, w4
 431 05c8 41FEFF54 		bne	.L72
 432              	.L70:
 433 05cc C0035FD6 		ret
 434              		.size	ClearArea24, .-ClearArea24
 435              		.align	2
 436              		.p2align 4,,15
 437              		.type	VertLine24, %function
 438              	VertLine24:
 439 05d0 050840B9 		ldr	w5, [x0, 8]
 440 05d4 04A04229 		ldp	w4, w8, [x0, 20]
 441 05d8 070C4029 		ldp	w7, w3, [x0]
 442 05dc A604050B 		add	w6, w5, w5, lsl 1
 443 05e0 8404040B 		add	w4, w4, w4, lsl 1
 444 05e4 E38003AA 		orr	x3, x7, x3, lsl 32
 445 05e8 C67C081B 		mul	w6, w6, w8
 446 05ec 63C0248B 		add	x3, x3, x4, sxtw
 447 05f0 6300068B 		add	x3, x3, x6
 448 05f4 61020034 		cbz	w1, .L82
 449 05f8 64008052 		mov	w4, 3
 450 05fc 5F040071 		cmp	w2, 1
 451 0600 A57CA49B 		umull	x5, w5, w4
AARCH64 GAS  C:\Users\ldebo\AppData\Local\Temp\ccfW7LPV.s 			page 9


 452 0604 04900091 		add	x4, x0, 36
 453 0608 E70305CB 		neg	x7, x5
 454 060c 20020054 		beq	.L86
 455 0610 05008052 		mov	w5, 0
 456 0614 1F2003D5 		.p2align 3
 457              	.L84:
 458 0618 86004039 		ldrb	w6, [x4]
 459 061c A5040011 		add	w5, w5, 1
 460 0620 66000039 		strb	w6, [x3]
 461 0624 3F00056B 		cmp	w1, w5
 462 0628 86044039 		ldrb	w6, [x4, 1]
 463 062c 66040039 		strb	w6, [x3, 1]
 464 0630 86084039 		ldrb	w6, [x4, 2]
 465 0634 66080039 		strb	w6, [x3, 2]
 466 0638 6300078B 		add	x3, x3, x7
 467 063c E1FEFF54 		bne	.L84
 468              	.L82:
 469 0640 4120011B 		madd	w1, w2, w1, w8
 470 0644 011800B9 		str	w1, [x0, 24]
 471 0648 C0035FD6 		ret
 472 064c 1F2003D5 		.p2align 3
 473              	.L86:
 474 0650 06008052 		mov	w6, 0
 475 0654 1F2003D5 		.p2align 3
 476              	.L83:
 477 0658 87004039 		ldrb	w7, [x4]
 478 065c C6040011 		add	w6, w6, 1
 479 0660 67000039 		strb	w7, [x3]
 480 0664 3F00066B 		cmp	w1, w6
 481 0668 87044039 		ldrb	w7, [x4, 1]
 482 066c 67040039 		strb	w7, [x3, 1]
 483 0670 87084039 		ldrb	w7, [x4, 2]
 484 0674 67080039 		strb	w7, [x3, 2]
 485 0678 6300058B 		add	x3, x3, x5
 486 067c E1FEFF54 		bne	.L83
 487 0680 4120011B 		madd	w1, w2, w1, w8
 488 0684 011800B9 		str	w1, [x0, 24]
 489 0688 C0035FD6 		ret
 490              		.size	VertLine24, .-VertLine24
 491              		.align	2
 492 068c 1F2003D5 		.p2align 4,,15
 493              		.type	HorzLine24, %function
 494              	HorzLine24:
 495 0690 030840B9 		ldr	w3, [x0, 8]
 496 0694 08984229 		ldp	w8, w6, [x0, 20]
 497 0698 07144029 		ldp	w7, w5, [x0]
 498 069c 6304030B 		add	w3, w3, w3, lsl 1
 499 06a0 0405080B 		add	w4, w8, w8, lsl 1
 500 06a4 E58005AA 		orr	x5, x7, x5, lsl 32
 501 06a8 637C061B 		mul	w3, w3, w6
 502 06ac A4C0248B 		add	x4, x5, x4, sxtw
 503 06b0 6300048B 		add	x3, x3, x4
 504 06b4 E1010034 		cbz	w1, .L93
 505 06b8 67008052 		mov	w7, 3
 506 06bc 05900091 		add	x5, x0, 36
 507 06c0 04008052 		mov	w4, 0
 508 06c4 477C279B 		smull	x7, w2, w7
AARCH64 GAS  C:\Users\ldebo\AppData\Local\Temp\ccfW7LPV.s 			page 10


 509              		.p2align 3
 510              	.L94:
 511 06c8 A6004039 		ldrb	w6, [x5]
 512 06cc 84040011 		add	w4, w4, 1
 513 06d0 66000039 		strb	w6, [x3]
 514 06d4 3F00046B 		cmp	w1, w4
 515 06d8 A6044039 		ldrb	w6, [x5, 1]
 516 06dc 66040039 		strb	w6, [x3, 1]
 517 06e0 A6084039 		ldrb	w6, [x5, 2]
 518 06e4 66080039 		strb	w6, [x3, 2]
 519 06e8 6300078B 		add	x3, x3, x7
 520 06ec E1FEFF54 		bne	.L94
 521              	.L93:
 522 06f0 4120011B 		madd	w1, w2, w1, w8
 523 06f4 011400B9 		str	w1, [x0, 20]
 524 06f8 C0035FD6 		ret
 525              		.size	HorzLine24, .-HorzLine24
 526              		.align	2
 527 06fc 1F2003D5 		.p2align 4,,15
 528              		.type	DiagLine24, %function
 529              	DiagLine24:
 530 0700 060840B9 		ldr	w6, [x0, 8]
 531 0704 3F00026B 		cmp	w1, w2
 532 0708 0CB44229 		ldp	w12, w13, [x0, 20]
 533 070c 2290821A 		csel	w2, w1, w2, ls
 534 0710 09204029 		ldp	w9, w8, [x0]
 535 0714 C704060B 		add	w7, w6, w6, lsl 1
 536 0718 85050C0B 		add	w5, w12, w12, lsl 1
 537 071c 288108AA 		orr	x8, x9, x8, lsl 32
 538 0720 E77C0D1B 		mul	w7, w7, w13
 539 0724 05C1258B 		add	x5, x8, x5, sxtw
 540 0728 A500078B 		add	x5, x5, x7
 541 072c 01030034 		cbz	w1, .L100
 542 0730 CA7C041B 		mul	w10, w6, w4
 543 0734 69008052 		mov	w9, 3
 544 0738 08900091 		add	x8, x0, 36
 545 073c 07008052 		mov	w7, 0
 546 0740 6B7C299B 		smull	x11, w3, w9
 547 0744 06008052 		mov	w6, 0
 548 0748 4A7DA99B 		umull	x10, w10, w9
 549 074c 1F2003D5 		.p2align 3
 550              	.L102:
 551 0750 09014039 		ldrb	w9, [x8]
 552 0754 C600020B 		add	w6, w6, w2
 553 0758 A9000039 		strb	w9, [x5]
 554 075c E7040011 		add	w7, w7, 1
 555 0760 3F00066B 		cmp	w1, w6
 556 0764 09054039 		ldrb	w9, [x8, 1]
 557 0768 A9040039 		strb	w9, [x5, 1]
 558 076c 09094039 		ldrb	w9, [x8, 2]
 559 0770 A9080039 		strb	w9, [x5, 2]
 560 0774 A5000B8B 		add	x5, x5, x11
 561 0778 68000054 		bhi	.L101
 562 077c C600014B 		sub	w6, w6, w1
 563 0780 A5000A8B 		add	x5, x5, x10
 564              	.L101:
 565 0784 3F00076B 		cmp	w1, w7
AARCH64 GAS  C:\Users\ldebo\AppData\Local\Temp\ccfW7LPV.s 			page 11


 566 0788 41FEFF54 		bne	.L102
 567              	.L100:
 568 078c 6130011B 		madd	w1, w3, w1, w12
 569 0790 8234021B 		madd	w2, w4, w2, w13
 570 0794 01880229 		stp	w1, w2, [x0, 20]
 571 0798 C0035FD6 		ret
 572              		.size	DiagLine24, .-DiagLine24
 573              		.align	2
 574 079c 1F2003D5 		.p2align 4,,15
 575              		.type	WriteChar24, %function
 576              	WriteChar24:
 577 07a0 0B0840B9 		ldr	w11, [x0, 8]
 578 07a4 65008052 		mov	w5, 3
 579 07a8 0E984229 		ldp	w14, w6, [x0, 20]
 580 07ac 211C1E53 		ubfiz	w1, w1, 2, 8
 581 07b0 07104029 		ldp	w7, w4, [x0]
 582 07b4 63050B0B 		add	w3, w11, w11, lsl 1
 583 07b8 C2050E0B 		add	w2, w14, w14, lsl 1
 584 07bc 6B7DA59B 		umull	x11, w11, w5
 585 07c0 0D000090 		adrp	x13, BitFont
 586 07c4 AD010091 		add	x13, x13, :lo12:BitFont
 587 07c8 E48004AA 		orr	x4, x7, x4, lsl 32
 588 07cc 637C061B 		mul	w3, w3, w6
 589 07d0 82C0228B 		add	x2, x4, x2, sxtw
 590 07d4 2F100011 		add	w15, w1, 4
 591 07d8 EC03052A 		mov	w12, w5
 592 07dc 6300028B 		add	x3, x3, x2
 593              	.L111:
 594 07e0 A55961B8 		ldr	w5, [x13, w1, uxtw 2]
 595 07e4 04008052 		mov	w4, 0
 596              		.p2align 3
 597              	.L110:
 598 07e8 82080012 		and	w2, w4, 7
 599 07ec 6A000B8B 		add	x10, x3, x11
 600 07f0 09A04039 		ldrb	w9, [x0, 40]
 601 07f4 84040011 		add	w4, w4, 1
 602 07f8 08A44039 		ldrb	w8, [x0, 41]
 603 07fc 07A84039 		ldrb	w7, [x0, 42]
 604 0800 8500F836 		tbz	w5, #31, .L108
 605 0804 09904039 		ldrb	w9, [x0, 36]
 606 0808 08944039 		ldrb	w8, [x0, 37]
 607 080c 07984039 		ldrb	w7, [x0, 38]
 608              	.L108:
 609 0810 5F1C0071 		cmp	w2, 7
 610 0814 427C2C9B 		smull	x2, w2, w12
 611 0818 A500050B 		add	w5, w5, w5
 612 081c 6600028B 		add	x6, x3, x2
 613 0820 69682238 		strb	w9, [x3, x2]
 614 0824 4301839A 		csel	x3, x10, x3, eq
 615 0828 C8040039 		strb	w8, [x6, 1]
 616 082c 9F800071 		cmp	w4, 32
 617 0830 C7080039 		strb	w7, [x6, 2]
 618 0834 A1FDFF54 		bne	.L110
 619 0838 21040011 		add	w1, w1, 1
 620 083c 3F000F6B 		cmp	w1, w15
 621 0840 01FDFF54 		bne	.L111
 622 0844 CE210011 		add	w14, w14, 8
AARCH64 GAS  C:\Users\ldebo\AppData\Local\Temp\ccfW7LPV.s 			page 12


 623 0848 0E1400B9 		str	w14, [x0, 20]
 624 084c C0035FD6 		ret
 625              		.size	WriteChar24, .-WriteChar24
 626              		.align	2
 627              		.p2align 4,,15
 628              		.type	TransparentWriteChar24, %function
 629              	TransparentWriteChar24:
 630 0850 0A0840B9 		ldr	w10, [x0, 8]
 631 0854 65008052 		mov	w5, 3
 632 0858 0E984229 		ldp	w14, w6, [x0, 20]
 633 085c 211C1E53 		ubfiz	w1, w1, 2, 8
 634 0860 070C4029 		ldp	w7, w3, [x0]
 635 0864 44050A0B 		add	w4, w10, w10, lsl 1
 636 0868 C2050E0B 		add	w2, w14, w14, lsl 1
 637 086c 4A7DA59B 		umull	x10, w10, w5
 638 0870 0D000090 		adrp	x13, BitFont
 639 0874 AD010091 		add	x13, x13, :lo12:BitFont
 640 0878 E38003AA 		orr	x3, x7, x3, lsl 32
 641 087c 847C061B 		mul	w4, w4, w6
 642 0880 62C0228B 		add	x2, x3, x2, sxtw
 643 0884 2F100011 		add	w15, w1, 4
 644 0888 EC03052A 		mov	w12, w5
 645 088c 8400028B 		add	x4, x4, x2
 646              	.L118:
 647 0890 A35961B8 		ldr	w3, [x13, w1, uxtw 2]
 648 0894 02008052 		mov	w2, 0
 649              		.p2align 3
 650              	.L117:
 651 0898 45080012 		and	w5, w2, 7
 652 089c 86000A8B 		add	x6, x4, x10
 653 08a0 42040011 		add	w2, w2, 1
 654 08a4 2301F836 		tbz	w3, #31, .L115
 655 08a8 A97C2C9B 		smull	x9, w5, w12
 656 08ac 0B904039 		ldrb	w11, [x0, 36]
 657 08b0 8700098B 		add	x7, x4, x9
 658 08b4 8B682938 		strb	w11, [x4, x9]
 659 08b8 09944039 		ldrb	w9, [x0, 37]
 660 08bc E9040039 		strb	w9, [x7, 1]
 661 08c0 08984039 		ldrb	w8, [x0, 38]
 662 08c4 E8080039 		strb	w8, [x7, 2]
 663              	.L115:
 664 08c8 BF1C0071 		cmp	w5, 7
 665 08cc 6300030B 		add	w3, w3, w3
 666 08d0 C400849A 		csel	x4, x6, x4, eq
 667 08d4 5F800071 		cmp	w2, 32
 668 08d8 01FEFF54 		bne	.L117
 669 08dc 21040011 		add	w1, w1, 1
 670 08e0 FF01016B 		cmp	w15, w1
 671 08e4 61FDFF54 		bne	.L118
 672 08e8 CE210011 		add	w14, w14, 8
 673 08ec 0E1400B9 		str	w14, [x0, 20]
 674 08f0 C0035FD6 		ret
 675              		.size	TransparentWriteChar24, .-TransparentWriteChar24
 676              		.align	2
 677 08f4 1F2003D5 		.p2align 4,,15
 677      1F2003D5 
 677      1F2003D5 
AARCH64 GAS  C:\Users\ldebo\AppData\Local\Temp\ccfW7LPV.s 			page 13


 678              		.type	PutImage24, %function
 679              	PutImage24:
 680 0900 0A0840B9 		ldr	w10, [x0, 8]
 681 0904 841C0012 		and	w4, w4, 255
 682 0908 059C4229 		ldp	w5, w7, [x0, 20]
 683 090c 08184029 		ldp	w8, w6, [x0]
 684 0910 40050A0B 		add	w0, w10, w10, lsl 1
 685 0914 A504050B 		add	w5, w5, w5, lsl 1
 686 0918 068106AA 		orr	x6, x8, x6, lsl 32
 687 091c 007C071B 		mul	w0, w0, w7
 688 0920 C6C0258B 		add	x6, x6, x5, sxtw
 689 0924 C600008B 		add	x6, x6, x0
 690 0928 E2030034 		cbz	w2, .L121
 691 092c 60008052 		mov	w0, 3
 692 0930 4A7DA09B 		umull	x10, w10, w0
 693 0934 EB030ACB 		neg	x11, x10
 694 0938 61030034 		cbz	w1, .L121
 695 093c 28040051 		sub	w8, w1, #1
 696 0940 09008052 		mov	w9, 0
 697 0944 08050091 		add	x8, x8, 1
 698 0948 0805088B 		add	x8, x8, x8, lsl 1
 699 094c 1F2003D5 		.p2align 3
 700              	.L124:
 701 0950 000080D2 		mov	x0, 0
 702 0954 1F2003D5 		.p2align 3
 703              	.L125:
 704 0958 61686038 		ldrb	w1, [x3, x0]
 705 095c 6500008B 		add	x5, x3, x0
 706 0960 C1682038 		strb	w1, [x6, x0]
 707 0964 C100008B 		add	x1, x6, x0
 708 0968 000C0091 		add	x0, x0, 3
 709 096c A7044039 		ldrb	w7, [x5, 1]
 710 0970 1F0008EB 		cmp	x0, x8
 711 0974 27040039 		strb	w7, [x1, 1]
 712 0978 A5084039 		ldrb	w5, [x5, 2]
 713 097c 25080039 		strb	w5, [x1, 2]
 714 0980 C1FEFF54 		bne	.L125
 715 0984 9F000071 		cmp	w4, 0
 716 0988 C0000B8B 		add	x0, x6, x11
 717 098c 29050011 		add	w9, w9, 1
 718 0990 C6000A8B 		add	x6, x6, x10
 719 0994 C600809A 		csel	x6, x6, x0, eq
 720 0998 6300088B 		add	x3, x3, x8
 721 099c 5F00096B 		cmp	w2, w9
 722 09a0 81FDFF54 		bne	.L124
 723              	.L121:
 724 09a4 C0035FD6 		ret
 725              		.size	PutImage24, .-PutImage24
 726              		.align	2
 727 09a8 1F2003D5 		.p2align 4,,15
 727      1F2003D5 
 728              		.type	ClearArea32, %function
 729              	ClearArea32:
 730 09b0 080840B9 		ldr	w8, [x0, 8]
 731 09b4 46741E53 		lsl	w6, w2, 2
 732 09b8 8400026B 		subs	w4, w4, w2
 733 09bc 07084029 		ldp	w7, w2, [x0]
AARCH64 GAS  C:\Users\ldebo\AppData\Local\Temp\ccfW7LPV.s 			page 14


 734 09c0 057D061B 		mul	w5, w8, w6
 735 09c4 E28002AA 		orr	x2, x7, x2, lsl 32
 736 09c8 4640268B 		add	x6, x2, x6, uxtw
 737 09cc C540258B 		add	x5, x6, x5, uxtw
 738 09d0 80020054 		beq	.L136
 739 09d4 087D7ED3 		ubfiz	x8, x8, 2, 32
 740 09d8 6300016B 		subs	w3, w3, w1
 741 09dc 20020054 		beq	.L136
 742 09e0 63040051 		sub	w3, w3, #1
 743 09e4 870080D2 		mov	x7, 4
 744 09e8 02B00091 		add	x2, x0, 44
 745 09ec E748238B 		add	x7, x7, x3, uxtw 2
 746 09f0 06008052 		mov	w6, 0
 747 09f4 1F2003D5 		.p2align 3
 748              	.L139:
 749 09f8 E00305AA 		mov	x0, x5
 750 09fc E300058B 		add	x3, x7, x5
 751              		.p2align 3
 752              	.L140:
 753 0a00 410040B9 		ldr	w1, [x2]
 754 0a04 014400B8 		str	w1, [x0], 4
 755 0a08 1F0003EB 		cmp	x0, x3
 756 0a0c A1FFFF54 		bne	.L140
 757 0a10 C6040011 		add	w6, w6, 1
 758 0a14 A500088B 		add	x5, x5, x8
 759 0a18 DF00046B 		cmp	w6, w4
 760 0a1c E1FEFF54 		bne	.L139
 761              	.L136:
 762 0a20 C0035FD6 		ret
 763              		.size	ClearArea32, .-ClearArea32
 764              		.align	2
 765 0a24 1F2003D5 		.p2align 4,,15
 765      1F2003D5 
 765      1F2003D5 
 766              		.type	VertLine32, %function
 767              	VertLine32:
 768 0a30 040840B9 		ldr	w4, [x0, 8]
 769 0a34 05A04229 		ldp	w5, w8, [x0, 20]
 770 0a38 07184029 		ldp	w7, w6, [x0]
 771 0a3c 83741E53 		lsl	w3, w4, 2
 772 0a40 A5741E53 		lsl	w5, w5, 2
 773 0a44 637C081B 		mul	w3, w3, w8
 774 0a48 E68006AA 		orr	x6, x7, x6, lsl 32
 775 0a4c C5C0258B 		add	x5, x6, x5, sxtw
 776 0a50 A340238B 		add	x3, x5, x3, uxtw
 777 0a54 A1010034 		cbz	w1, .L150
 778 0a58 847C7ED3 		ubfiz	x4, x4, 2, 32
 779 0a5c 06900091 		add	x6, x0, 36
 780 0a60 5F040071 		cmp	w2, 1
 781 0a64 E70304CB 		neg	x7, x4
 782 0a68 80010054 		beq	.L154
 783 0a6c 04008052 		mov	w4, 0
 784              		.p2align 3
 785              	.L152:
 786 0a70 C50040B9 		ldr	w5, [x6]
 787 0a74 84040011 		add	w4, w4, 1
 788 0a78 650000B9 		str	w5, [x3]
AARCH64 GAS  C:\Users\ldebo\AppData\Local\Temp\ccfW7LPV.s 			page 15


 789 0a7c 3F00046B 		cmp	w1, w4
 790 0a80 6300078B 		add	x3, x3, x7
 791 0a84 61FFFF54 		bne	.L152
 792              	.L150:
 793 0a88 4120011B 		madd	w1, w2, w1, w8
 794 0a8c 011800B9 		str	w1, [x0, 24]
 795 0a90 C0035FD6 		ret
 796 0a94 1F2003D5 		.p2align 3
 797              	.L154:
 798 0a98 05008052 		mov	w5, 0
 799 0a9c 1F2003D5 		.p2align 3
 800              	.L151:
 801 0aa0 C70040B9 		ldr	w7, [x6]
 802 0aa4 A5040011 		add	w5, w5, 1
 803 0aa8 670000B9 		str	w7, [x3]
 804 0aac 3F00056B 		cmp	w1, w5
 805 0ab0 6300048B 		add	x3, x3, x4
 806 0ab4 61FFFF54 		bne	.L151
 807 0ab8 4120011B 		madd	w1, w2, w1, w8
 808 0abc 011800B9 		str	w1, [x0, 24]
 809 0ac0 C0035FD6 		ret
 810              		.size	VertLine32, .-VertLine32
 811              		.align	2
 812 0ac4 1F2003D5 		.p2align 4,,15
 812      1F2003D5 
 812      1F2003D5 
 813              		.type	HorzLine32, %function
 814              	HorzLine32:
 815 0ad0 030840B9 		ldr	w3, [x0, 8]
 816 0ad4 08984229 		ldp	w8, w6, [x0, 20]
 817 0ad8 07144029 		ldp	w7, w5, [x0]
 818 0adc 63741E53 		lsl	w3, w3, 2
 819 0ae0 04751E53 		lsl	w4, w8, 2
 820 0ae4 637C061B 		mul	w3, w3, w6
 821 0ae8 E58005AA 		orr	x5, x7, x5, lsl 32
 822 0aec A4C0248B 		add	x4, x5, x4, sxtw
 823 0af0 8340238B 		add	x3, x4, x3, uxtw
 824 0af4 61010034 		cbz	w1, .L161
 825 0af8 477C7E93 		sbfiz	x7, x2, 2, 32
 826 0afc 06900091 		add	x6, x0, 36
 827 0b00 04008052 		mov	w4, 0
 828 0b04 1F2003D5 		.p2align 3
 829              	.L162:
 830 0b08 C50040B9 		ldr	w5, [x6]
 831 0b0c 84040011 		add	w4, w4, 1
 832 0b10 650000B9 		str	w5, [x3]
 833 0b14 3F00046B 		cmp	w1, w4
 834 0b18 6300078B 		add	x3, x3, x7
 835 0b1c 61FFFF54 		bne	.L162
 836              	.L161:
 837 0b20 4120011B 		madd	w1, w2, w1, w8
 838 0b24 011400B9 		str	w1, [x0, 20]
 839 0b28 C0035FD6 		ret
 840              		.size	HorzLine32, .-HorzLine32
 841              		.align	2
 842 0b2c 1F2003D5 		.p2align 4,,15
 843              		.type	DiagLine32, %function
AARCH64 GAS  C:\Users\ldebo\AppData\Local\Temp\ccfW7LPV.s 			page 16


 844              	DiagLine32:
 845 0b30 090840B9 		ldr	w9, [x0, 8]
 846 0b34 3F00026B 		cmp	w1, w2
 847 0b38 0DB04229 		ldp	w13, w12, [x0, 20]
 848 0b3c 2290821A 		csel	w2, w1, w2, ls
 849 0b40 081C4029 		ldp	w8, w7, [x0]
 850 0b44 25751E53 		lsl	w5, w9, 2
 851 0b48 A6751E53 		lsl	w6, w13, 2
 852 0b4c A57C0C1B 		mul	w5, w5, w12
 853 0b50 078107AA 		orr	x7, x8, x7, lsl 32
 854 0b54 E6C0268B 		add	x6, x7, x6, sxtw
 855 0b58 C540258B 		add	x5, x6, x5, uxtw
 856 0b5c 41020034 		cbz	w1, .L168
 857 0b60 297D041B 		mul	w9, w9, w4
 858 0b64 6B7C7E93 		sbfiz	x11, x3, 2, 32
 859 0b68 0A900091 		add	x10, x0, 36
 860 0b6c 07008052 		mov	w7, 0
 861 0b70 06008052 		mov	w6, 0
 862 0b74 29F57ED3 		lsl	x9, x9, 2
 863              		.p2align 3
 864              	.L170:
 865 0b78 480140B9 		ldr	w8, [x10]
 866 0b7c C600020B 		add	w6, w6, w2
 867 0b80 A80000B9 		str	w8, [x5]
 868 0b84 E7040011 		add	w7, w7, 1
 869 0b88 3F00066B 		cmp	w1, w6
 870 0b8c A5000B8B 		add	x5, x5, x11
 871 0b90 68000054 		bhi	.L169
 872 0b94 C600014B 		sub	w6, w6, w1
 873 0b98 A500098B 		add	x5, x5, x9
 874              	.L169:
 875 0b9c 3F00076B 		cmp	w1, w7
 876 0ba0 C1FEFF54 		bne	.L170
 877              	.L168:
 878 0ba4 6134011B 		madd	w1, w3, w1, w13
 879 0ba8 8230021B 		madd	w2, w4, w2, w12
 880 0bac 01880229 		stp	w1, w2, [x0, 20]
 881 0bb0 C0035FD6 		ret
 882              		.size	DiagLine32, .-DiagLine32
 883              		.align	2
 884 0bb4 1F2003D5 		.p2align 4,,15
 884      1F2003D5 
 884      1F2003D5 
 885              		.type	WriteChar32, %function
 886              	WriteChar32:
 887 0bc0 080840B9 		ldr	w8, [x0, 8]
 888 0bc4 211C1E53 		ubfiz	w1, w1, 2, 8
 889 0bc8 0B944229 		ldp	w11, w5, [x0, 20]
 890 0bcc 09000090 		adrp	x9, BitFont
 891 0bd0 29010091 		add	x9, x9, :lo12:BitFont
 892 0bd4 02751E53 		lsl	w2, w8, 2
 893 0bd8 FF4300D1 		sub	sp, sp, #16
 894 0bdc 06104029 		ldp	w6, w4, [x0]
 895 0be0 63751E53 		lsl	w3, w11, 2
 896 0be4 427C051B 		mul	w2, w2, w5
 897 0be8 2A100011 		add	w10, w1, 4
 898 0bec 087D7ED3 		ubfiz	x8, x8, 2, 32
AARCH64 GAS  C:\Users\ldebo\AppData\Local\Temp\ccfW7LPV.s 			page 17


 899 0bf0 C48004AA 		orr	x4, x6, x4, lsl 32
 900 0bf4 83C0238B 		add	x3, x4, x3, sxtw
 901 0bf8 6240228B 		add	x2, x3, x2, uxtw
 902              	.L180:
 903 0bfc 245961B8 		ldr	w4, [x9, w1, uxtw 2]
 904 0c00 03008052 		mov	w3, 0
 905 0c04 0D000014 		b	.L179
 906              		.p2align 3
 907              	.L185:
 908 0c08 062840B9 		ldr	w6, [x0, 40]
 909 0c0c E60B00B9 		str	w6, [sp, 8]
 910              	.L177:
 911 0c10 E603052A 		uxtw	x6, w5
 912 0c14 E70B40B9 		ldr	w7, [sp, 8]
 913 0c18 BF1C0071 		cmp	w5, 7
 914 0c1c 63040011 		add	w3, w3, 1
 915 0c20 4500088B 		add	x5, x2, x8
 916 0c24 8400040B 		add	w4, w4, w4
 917 0c28 477826B8 		str	w7, [x2, x6, lsl 2]
 918 0c2c A200829A 		csel	x2, x5, x2, eq
 919 0c30 7F800071 		cmp	w3, 32
 920 0c34 E0000054 		beq	.L184
 921              	.L179:
 922 0c38 65080012 		and	w5, w3, 7
 923 0c3c 64FEFF36 		tbz	w4, #31, .L185
 924 0c40 062440B9 		ldr	w6, [x0, 36]
 925 0c44 E60B00B9 		str	w6, [sp, 8]
 926 0c48 F2FFFF17 		b	.L177
 927 0c4c 1F2003D5 		.p2align 3
 928              	.L184:
 929 0c50 21040011 		add	w1, w1, 1
 930 0c54 5F01016B 		cmp	w10, w1
 931 0c58 21FDFF54 		bne	.L180
 932 0c5c 6B210011 		add	w11, w11, 8
 933 0c60 0B1400B9 		str	w11, [x0, 20]
 934 0c64 FF430091 		add	sp, sp, 16
 935 0c68 C0035FD6 		ret
 936              		.size	WriteChar32, .-WriteChar32
 937              		.align	2
 938 0c6c 1F2003D5 		.p2align 4,,15
 939              		.type	TransparentWriteChar32, %function
 940              	TransparentWriteChar32:
 941 0c70 080840B9 		ldr	w8, [x0, 8]
 942 0c74 211C1E53 		ubfiz	w1, w1, 2, 8
 943 0c78 0C944229 		ldp	w12, w5, [x0, 20]
 944 0c7c 0A000090 		adrp	x10, BitFont
 945 0c80 4A010091 		add	x10, x10, :lo12:BitFont
 946 0c84 04751E53 		lsl	w4, w8, 2
 947 0c88 2B100011 		add	w11, w1, 4
 948 0c8c 060C4029 		ldp	w6, w3, [x0]
 949 0c90 82751E53 		lsl	w2, w12, 2
 950 0c94 847C051B 		mul	w4, w4, w5
 951 0c98 087D7ED3 		ubfiz	x8, x8, 2, 32
 952 0c9c C38003AA 		orr	x3, x6, x3, lsl 32
 953 0ca0 62C0228B 		add	x2, x3, x2, sxtw
 954 0ca4 4440248B 		add	x4, x2, x4, uxtw
 955              	.L190:
AARCH64 GAS  C:\Users\ldebo\AppData\Local\Temp\ccfW7LPV.s 			page 18


 956 0ca8 435961B8 		ldr	w3, [x10, w1, uxtw 2]
 957 0cac 02008052 		mov	w2, 0
 958              		.p2align 3
 959              	.L189:
 960 0cb0 45080012 		and	w5, w2, 7
 961 0cb4 8600088B 		add	x6, x4, x8
 962 0cb8 42040011 		add	w2, w2, 1
 963 0cbc 8300F836 		tbz	w3, #31, .L187
 964 0cc0 E703052A 		uxtw	x7, w5
 965 0cc4 092440B9 		ldr	w9, [x0, 36]
 966 0cc8 897827B8 		str	w9, [x4, x7, lsl 2]
 967              	.L187:
 968 0ccc BF1C0071 		cmp	w5, 7
 969 0cd0 6300030B 		add	w3, w3, w3
 970 0cd4 C400849A 		csel	x4, x6, x4, eq
 971 0cd8 5F800071 		cmp	w2, 32
 972 0cdc A1FEFF54 		bne	.L189
 973 0ce0 21040011 		add	w1, w1, 1
 974 0ce4 3F000B6B 		cmp	w1, w11
 975 0ce8 01FEFF54 		bne	.L190
 976 0cec 8C210011 		add	w12, w12, 8
 977 0cf0 0C1400B9 		str	w12, [x0, 20]
 978 0cf4 C0035FD6 		ret
 979              		.size	TransparentWriteChar32, .-TransparentWriteChar32
 980              		.align	2
 981 0cf8 1F2003D5 		.p2align 4,,15
 981      1F2003D5 
 982              		.type	PutImage32, %function
 983              	PutImage32:
 984 0d00 080840B9 		ldr	w8, [x0, 8]
 985 0d04 841C0012 		and	w4, w4, 255
 986 0d08 06A44229 		ldp	w6, w9, [x0, 20]
 987 0d0c 0A1C4029 		ldp	w10, w7, [x0]
 988 0d10 05751E53 		lsl	w5, w8, 2
 989 0d14 C0741E53 		lsl	w0, w6, 2
 990 0d18 A57C091B 		mul	w5, w5, w9
 991 0d1c 468107AA 		orr	x6, x10, x7, lsl 32
 992 0d20 C0C0208B 		add	x0, x6, x0, sxtw
 993 0d24 0540258B 		add	x5, x0, x5, uxtw
 994 0d28 E2020034 		cbz	w2, .L193
 995 0d2c 087D7ED3 		ubfiz	x8, x8, 2, 32
 996 0d30 E90308CB 		neg	x9, x8
 997 0d34 81020034 		cbz	w1, .L193
 998 0d38 26040051 		sub	w6, w1, #1
 999 0d3c 07008052 		mov	w7, 0
 1000 0d40 C6040091 		add	x6, x6, 1
 1001 0d44 C6F47ED3 		lsl	x6, x6, 2
 1002              		.p2align 3
 1003              	.L196:
 1004 0d48 000080D2 		mov	x0, 0
 1005 0d4c 1F2003D5 		.p2align 3
 1006              	.L197:
 1007 0d50 616860B8 		ldr	w1, [x3, x0]
 1008 0d54 A16820B8 		str	w1, [x5, x0]
 1009 0d58 00100091 		add	x0, x0, 4
 1010 0d5c 1F0006EB 		cmp	x0, x6
 1011 0d60 81FFFF54 		bne	.L197
AARCH64 GAS  C:\Users\ldebo\AppData\Local\Temp\ccfW7LPV.s 			page 19


 1012 0d64 9F000071 		cmp	w4, 0
 1013 0d68 A000098B 		add	x0, x5, x9
 1014 0d6c E7040011 		add	w7, w7, 1
 1015 0d70 A500088B 		add	x5, x5, x8
 1016 0d74 A500809A 		csel	x5, x5, x0, eq
 1017 0d78 6300068B 		add	x3, x3, x6
 1018 0d7c 5F00076B 		cmp	w2, w7
 1019 0d80 41FEFF54 		bne	.L196
 1020              	.L193:
 1021 0d84 C0035FD6 		ret
 1022              		.size	PutImage32, .-PutImage32
 1023              		.align	2
 1024 0d88 1F2003D5 		.p2align 4,,15
 1024      1F2003D5 
 1025              		.type	mailbox_tag_message.constprop.7, %function
 1026              	mailbox_tag_message.constprop.7:
 1027 0d90 F353B1A9 		stp	x19, x20, [sp, -240]!
 1028 0d94 080B80D2 		mov	x8, 88
 1029 0d98 E1058012 		mov	w1, -48
 1030 0d9c F40300AA 		mov	x20, x0
 1031 0da0 F3030391 		add	x19, sp, 192
 1032 0da4 FE0B00F9 		str	x30, [sp, 16]
 1033 0da8 EA03012A 		mov	w10, w1
 1034 0dac ECC30391 		add	x12, sp, 240
 1035 0db0 EB030391 		add	x11, sp, 192
 1036 0db4 EC3302A9 		stp	x12, x12, [sp, 32]
 1037 0db8 680E18F8 		str	x8, [x19, -128]!
 1038 0dbc E803012A 		mov	w8, w1
 1039 0dc0 EB1B00F9 		str	x11, [sp, 48]
 1040 0dc4 60220091 		add	x0, x19, 8
 1041 0dc8 69520191 		add	x9, x19, 84
 1042 0dcc E17F0729 		stp	w1, wzr, [sp, 56]
 1043 0dd0 FF9700B9 		str	wzr, [sp, 148]
 1044 0dd4 E20F0CA9 		stp	x2, x3, [sp, 192]
 1045 0dd8 02008052 		mov	w2, 0
 1046 0ddc E4170DA9 		stp	x4, x5, [sp, 208]
 1047 0de0 E61F0EA9 		stp	x6, x7, [sp, 224]
 1048 0de4 1F2003D5 		.p2align 3
 1049              	.L212:
 1050 0de8 0806F837 		tbnz	w8, #31, .L209
 1051 0dec E1030CAA 		mov	x1, x12
 1052 0df0 8C210091 		add	x12, x12, 8
 1053              	.L210:
 1054 0df4 210040B9 		ldr	w1, [x1]
 1055 0df8 014400B8 		str	w1, [x0], 4
 1056 0dfc 1F0009EB 		cmp	x0, x9
 1057 0e00 41FFFF54 		bne	.L212
 1058 0e04 E2040035 		cbnz	w2, .L232
 1059              	.L213:
 1060 0e08 E00313AA 		mov	x0, x19
 1061 0e0c 00000094 		bl	ARMaddrToGPUaddr
 1062 0e10 01000090 		adrp	x1, RPi_IO_Base_Addr
 1063 0e14 210040B9 		ldr	w1, [x1, #:lo12:RPi_IO_Base_Addr]
 1064 0e18 006C1C12 		and	w0, w0, -16
 1065 0e1c 02001D32 		orr	w2, w0, 8
 1066 0e20 00109752 		mov	w0, 47232
 1067 0e24 2100000B 		add	w1, w1, w0
AARCH64 GAS  C:\Users\ldebo\AppData\Local\Temp\ccfW7LPV.s 			page 20


 1068              		.p2align 3
 1069              	.L214:
 1070 0e28 203840B9 		ldr	w0, [x1, 56]
 1071 0e2c E0FFFF37 		tbnz	w0, #31, .L214
 1072 0e30 222000B9 		str	w2, [x1, 32]
 1073 0e34 1F2003D5 		.p2align 3
 1074              	.L215:
 1075 0e38 201840B9 		ldr	w0, [x1, 24]
 1076 0e3c E0FFF737 		tbnz	x0, 30, .L215
 1077 0e40 200040B9 		ldr	w0, [x1]
 1078 0e44 000C0012 		and	w0, w0, 15
 1079 0e48 1F200071 		cmp	w0, 8
 1080 0e4c 61FFFF54 		bne	.L215
 1081 0e50 E24740B9 		ldr	w2, [sp, 68]
 1082 0e54 0100B052 		mov	w1, -2147483648
 1083 0e58 00008052 		mov	w0, 0
 1084 0e5c 5F00016B 		cmp	w2, w1
 1085 0e60 80000054 		beq	.L233
 1086 0e64 FE0B40F9 		ldr	x30, [sp, 16]
 1087 0e68 F353CFA8 		ldp	x19, x20, [sp], 240
 1088 0e6c C0035FD6 		ret
 1089              	.L233:
 1090 0e70 000080D2 		mov	x0, 0
 1091 0e74 F40000B4 		cbz	x20, .L219
 1092              		.p2align 3
 1093              	.L218:
 1094 0e78 6102008B 		add	x1, x19, x0
 1095 0e7c 210840B9 		ldr	w1, [x1, 8]
 1096 0e80 816A20B8 		str	w1, [x20, x0]
 1097 0e84 00100091 		add	x0, x0, 4
 1098 0e88 1F3001F1 		cmp	x0, 76
 1099 0e8c 61FFFF54 		bne	.L218
 1100              	.L219:
 1101 0e90 FE0B40F9 		ldr	x30, [sp, 16]
 1102 0e94 20008052 		mov	w0, 1
 1103 0e98 F353CFA8 		ldp	x19, x20, [sp], 240
 1104 0e9c C0035FD6 		ret
 1105              	.L232:
 1106 0ea0 EA3B00B9 		str	w10, [sp, 56]
 1107 0ea4 D9FFFF17 		b	.L213
 1108              	.L209:
 1109 0ea8 0A210011 		add	w10, w8, 8
 1110 0eac 5F010071 		cmp	w10, 0
 1111 0eb0 CD000054 		ble	.L211
 1112 0eb4 E1030CAA 		mov	x1, x12
 1113 0eb8 E8030A2A 		mov	w8, w10
 1114 0ebc 8C210091 		add	x12, x12, 8
 1115 0ec0 22008052 		mov	w2, 1
 1116 0ec4 CCFFFF17 		b	.L210
 1117              	.L211:
 1118 0ec8 E1C30391 		add	x1, sp, 240
 1119 0ecc 22008052 		mov	w2, 1
 1120 0ed0 21C0288B 		add	x1, x1, x8, sxtw
 1121 0ed4 E8030A2A 		mov	w8, w10
 1122 0ed8 C7FFFF17 		b	.L210
 1123              		.size	mailbox_tag_message.constprop.7, .-mailbox_tag_message.constprop.7
 1124              		.align	2
AARCH64 GAS  C:\Users\ldebo\AppData\Local\Temp\ccfW7LPV.s 			page 21


 1125 0edc 1F2003D5 		.p2align 4,,15
 1126              		.type	mailbox_tag_message.constprop.4, %function
 1127              	mailbox_tag_message.constprop.4:
 1128 0ee0 FE0F12F8 		str	x30, [sp, -224]!
 1129 0ee4 010480D2 		mov	x1, 32
 1130 0ee8 E0830391 		add	x0, sp, 224
 1131 0eec E28F0BA9 		stp	x2, x3, [sp, 184]
 1132 0ef0 070001CB 		sub	x7, x0, x1
 1133 0ef4 E4970CA9 		stp	x4, x5, [sp, 200]
 1134 0ef8 E66F00F9 		str	x6, [sp, 216]
 1135 0efc E0018012 		mov	w0, -16
 1136 0f00 E3CB40B9 		ldr	w3, [sp, 200]
 1137 0f04 E6830391 		add	x6, sp, 224
 1138 0f08 E40040B9 		ldr	w4, [x7]
 1139 0f0c E5C30291 		add	x5, sp, 176
 1140 0f10 E61B01A9 		stp	x6, x6, [sp, 16]
 1141 0f14 E51300F9 		str	x5, [sp, 32]
 1142 0f18 E07F0529 		stp	w0, wzr, [sp, 40]
 1143 0f1c E11B00F9 		str	x1, [sp, 48]
 1144 0f20 E10306AA 		mov	x1, x6
 1145 0f24 E23B00B9 		str	w2, [sp, 56]
 1146 0f28 E20306AA 		mov	x2, x6
 1147 0f2c E48F0729 		stp	w4, w3, [sp, 60]
 1148 0f30 FF4F00B9 		str	wzr, [sp, 76]
 1149 0f34 A004F837 		tbnz	w0, #31, .L244
 1150 0f38 C1200091 		add	x1, x6, 8
 1151 0f3c E10B00F9 		str	x1, [sp, 16]
 1152              	.L245:
 1153 0f40 420040B9 		ldr	w2, [x2]
 1154 0f44 E24700B9 		str	w2, [sp, 68]
 1155 0f48 A000F836 		tbz	w0, #31, .L247
 1156 0f4c 1F1C0031 		cmn	w0, #7
 1157 0f50 6A000054 		bge	.L247
 1158 0f54 E10F40F9 		ldr	x1, [sp, 24]
 1159 0f58 21C0208B 		add	x1, x1, x0, sxtw
 1160              	.L247:
 1161 0f5c 210040B9 		ldr	w1, [x1]
 1162 0f60 E0C30091 		add	x0, sp, 48
 1163 0f64 E14B00B9 		str	w1, [sp, 72]
 1164 0f68 00000094 		bl	ARMaddrToGPUaddr
 1165 0f6c 006C1C12 		and	w0, w0, -16
 1166 0f70 01000090 		adrp	x1, RPi_IO_Base_Addr
 1167 0f74 210040B9 		ldr	w1, [x1, #:lo12:RPi_IO_Base_Addr]
 1168 0f78 02001D32 		orr	w2, w0, 8
 1169 0f7c 00109752 		mov	w0, 47232
 1170 0f80 2100000B 		add	w1, w1, w0
 1171 0f84 1F2003D5 		.p2align 3
 1172              	.L248:
 1173 0f88 203840B9 		ldr	w0, [x1, 56]
 1174 0f8c E0FFFF37 		tbnz	w0, #31, .L248
 1175 0f90 222000B9 		str	w2, [x1, 32]
 1176 0f94 1F2003D5 		.p2align 3
 1177              	.L249:
 1178 0f98 201840B9 		ldr	w0, [x1, 24]
 1179 0f9c E0FFF737 		tbnz	x0, 30, .L249
 1180 0fa0 200040B9 		ldr	w0, [x1]
 1181 0fa4 000C0012 		and	w0, w0, 15
AARCH64 GAS  C:\Users\ldebo\AppData\Local\Temp\ccfW7LPV.s 			page 22


 1182 0fa8 1F200071 		cmp	w0, 8
 1183 0fac 61FFFF54 		bne	.L249
 1184 0fb0 E13740B9 		ldr	w1, [sp, 52]
 1185 0fb4 0000B052 		mov	w0, -2147483648
 1186 0fb8 FE074EF8 		ldr	x30, [sp], 224
 1187 0fbc 3F00006B 		cmp	w1, w0
 1188 0fc0 E0179F1A 		cset	w0, eq
 1189 0fc4 C0035FD6 		ret
 1190              	.L244:
 1191 0fc8 03200011 		add	w3, w0, 8
 1192 0fcc E32B00B9 		str	w3, [sp, 40]
 1193 0fd0 7F000071 		cmp	w3, 0
 1194 0fd4 AD000054 		ble	.L246
 1195 0fd8 C1200091 		add	x1, x6, 8
 1196 0fdc E003032A 		mov	w0, w3
 1197 0fe0 E10B00F9 		str	x1, [sp, 16]
 1198 0fe4 D7FFFF17 		b	.L245
 1199              	.L246:
 1200 0fe8 E20F40F9 		ldr	x2, [sp, 24]
 1201 0fec 42C0208B 		add	x2, x2, x0, sxtw
 1202 0ff0 E003032A 		mov	w0, w3
 1203 0ff4 D3FFFF17 		b	.L245
 1204              		.size	mailbox_tag_message.constprop.4, .-mailbox_tag_message.constprop.4
 1205              		.align	2
 1206 0ff8 1F2003D5 		.p2align 4,,15
 1206      1F2003D5 
 1207              		.type	mailbox_tag_message.constprop.5, %function
 1208              	mailbox_tag_message.constprop.5:
 1209 1000 F37BB2A9 		stp	x19, x30, [sp, -224]!
 1210 1004 070480D2 		mov	x7, 32
 1211 1008 F30300AA 		mov	x19, x0
 1212 100c E1830391 		add	x1, sp, 224
 1213 1010 E28F0BA9 		stp	x2, x3, [sp, 184]
 1214 1014 280007CB 		sub	x8, x1, x7
 1215 1018 E4970CA9 		stp	x4, x5, [sp, 200]
 1216 101c E66F00F9 		str	x6, [sp, 216]
 1217 1020 E1018012 		mov	w1, -16
 1218 1024 E3CB40B9 		ldr	w3, [sp, 200]
 1219 1028 E6830391 		add	x6, sp, 224
 1220 102c 040140B9 		ldr	w4, [x8]
 1221 1030 E5C30291 		add	x5, sp, 176
 1222 1034 E61B01A9 		stp	x6, x6, [sp, 16]
 1223 1038 E003012A 		mov	w0, w1
 1224 103c E51300F9 		str	x5, [sp, 32]
 1225 1040 E17F0529 		stp	w1, wzr, [sp, 40]
 1226 1044 E10306AA 		mov	x1, x6
 1227 1048 E71B00F9 		str	x7, [sp, 48]
 1228 104c E23B00B9 		str	w2, [sp, 56]
 1229 1050 E20306AA 		mov	x2, x6
 1230 1054 E48F0729 		stp	w4, w3, [sp, 60]
 1231 1058 FF4F00B9 		str	wzr, [sp, 76]
 1232 105c 0006F837 		tbnz	w0, #31, .L265
 1233 1060 C2200091 		add	x2, x6, 8
 1234 1064 E20B00F9 		str	x2, [sp, 16]
 1235              	.L266:
 1236 1068 210040B9 		ldr	w1, [x1]
 1237 106c E14700B9 		str	w1, [sp, 68]
AARCH64 GAS  C:\Users\ldebo\AppData\Local\Temp\ccfW7LPV.s 			page 23


 1238 1070 A000F836 		tbz	w0, #31, .L268
 1239 1074 1F1C0031 		cmn	w0, #7
 1240 1078 6A000054 		bge	.L268
 1241 107c E20F40F9 		ldr	x2, [sp, 24]
 1242 1080 42C0208B 		add	x2, x2, x0, sxtw
 1243              	.L268:
 1244 1084 410040B9 		ldr	w1, [x2]
 1245 1088 E0C30091 		add	x0, sp, 48
 1246 108c E14B00B9 		str	w1, [sp, 72]
 1247 1090 00000094 		bl	ARMaddrToGPUaddr
 1248 1094 006C1C12 		and	w0, w0, -16
 1249 1098 01000090 		adrp	x1, RPi_IO_Base_Addr
 1250 109c 210040B9 		ldr	w1, [x1, #:lo12:RPi_IO_Base_Addr]
 1251 10a0 02001D32 		orr	w2, w0, 8
 1252 10a4 00109752 		mov	w0, 47232
 1253 10a8 2100000B 		add	w1, w1, w0
 1254 10ac 1F2003D5 		.p2align 3
 1255              	.L269:
 1256 10b0 203840B9 		ldr	w0, [x1, 56]
 1257 10b4 E0FFFF37 		tbnz	w0, #31, .L269
 1258 10b8 222000B9 		str	w2, [x1, 32]
 1259 10bc 1F2003D5 		.p2align 3
 1260              	.L270:
 1261 10c0 201840B9 		ldr	w0, [x1, 24]
 1262 10c4 E0FFF737 		tbnz	x0, 30, .L270
 1263 10c8 200040B9 		ldr	w0, [x1]
 1264 10cc 000C0012 		and	w0, w0, 15
 1265 10d0 1F200071 		cmp	w0, 8
 1266 10d4 61FFFF54 		bne	.L270
 1267 10d8 E23740B9 		ldr	w2, [sp, 52]
 1268 10dc 0100B052 		mov	w1, -2147483648
 1269 10e0 00008052 		mov	w0, 0
 1270 10e4 5F00016B 		cmp	w2, w1
 1271 10e8 60000054 		beq	.L280
 1272 10ec F37BCEA8 		ldp	x19, x30, [sp], 224
 1273 10f0 C0035FD6 		ret
 1274              	.L280:
 1275 10f4 F30000B4 		cbz	x19, .L274
 1276 10f8 E40F4729 		ldp	w4, w3, [sp, 56]
 1277 10fc 640E0029 		stp	w4, w3, [x19]
 1278 1100 E2074829 		ldp	w2, w1, [sp, 64]
 1279 1104 62060129 		stp	w2, w1, [x19, 8]
 1280 1108 E04B40B9 		ldr	w0, [sp, 72]
 1281 110c 601200B9 		str	w0, [x19, 16]
 1282              	.L274:
 1283 1110 20008052 		mov	w0, 1
 1284 1114 F37BCEA8 		ldp	x19, x30, [sp], 224
 1285 1118 C0035FD6 		ret
 1286              	.L265:
 1287 111c 03200011 		add	w3, w0, 8
 1288 1120 E32B00B9 		str	w3, [sp, 40]
 1289 1124 7F000071 		cmp	w3, 0
 1290 1128 AD000054 		ble	.L267
 1291 112c C2200091 		add	x2, x6, 8
 1292 1130 E003032A 		mov	w0, w3
 1293 1134 E20B00F9 		str	x2, [sp, 16]
 1294 1138 CCFFFF17 		b	.L266
AARCH64 GAS  C:\Users\ldebo\AppData\Local\Temp\ccfW7LPV.s 			page 24


 1295              	.L267:
 1296 113c E10F40F9 		ldr	x1, [sp, 24]
 1297 1140 21C0208B 		add	x1, x1, x0, sxtw
 1298 1144 E003032A 		mov	w0, w3
 1299 1148 C8FFFF17 		b	.L266
 1300              		.size	mailbox_tag_message.constprop.5, .-mailbox_tag_message.constprop.5
 1301              		.align	2
 1302 114c 1F2003D5 		.p2align 4,,15
 1303              		.type	mailbox_tag_message.constprop.6, %function
 1304              	mailbox_tag_message.constprop.6:
 1305 1150 F37BB3A9 		stp	x19, x30, [sp, -208]!
 1306 1154 E6008012 		mov	w6, -8
 1307 1158 810380D2 		mov	x1, 28
 1308 115c F30300AA 		mov	x19, x0
 1309 1160 E7C30291 		add	x7, sp, 176
 1310 1164 E71300F9 		str	x7, [sp, 32]
 1311 1168 E67F0529 		stp	w6, wzr, [sp, 40]
 1312 116c DF1C0031 		cmn	w6, #7
 1313 1170 E11B00F9 		str	x1, [sp, 48]
 1314 1174 E20F0729 		stp	w2, w3, [sp, 56]
 1315 1178 E44300B9 		str	w4, [sp, 64]
 1316 117c FF4B00B9 		str	wzr, [sp, 72]
 1317 1180 E20F0BA9 		stp	x2, x3, [sp, 176]
 1318 1184 E4170CA9 		stp	x4, x5, [sp, 192]
 1319 1188 E5430391 		add	x5, sp, 208
 1320 118c E51701A9 		stp	x5, x5, [sp, 16]
 1321 1190 E00305AA 		mov	x0, x5
 1322 1194 4A000054 		bge	.L291
 1323 1198 A0C0268B 		add	x0, x5, x6, sxtw
 1324              	.L291:
 1325 119c 010040B9 		ldr	w1, [x0]
 1326 11a0 E0C30091 		add	x0, sp, 48
 1327 11a4 E14700B9 		str	w1, [sp, 68]
 1328 11a8 00000094 		bl	ARMaddrToGPUaddr
 1329 11ac 006C1C12 		and	w0, w0, -16
 1330 11b0 01000090 		adrp	x1, RPi_IO_Base_Addr
 1331 11b4 210040B9 		ldr	w1, [x1, #:lo12:RPi_IO_Base_Addr]
 1332 11b8 02001D32 		orr	w2, w0, 8
 1333 11bc 00109752 		mov	w0, 47232
 1334 11c0 2100000B 		add	w1, w1, w0
 1335 11c4 1F2003D5 		.p2align 3
 1336              	.L292:
 1337 11c8 203840B9 		ldr	w0, [x1, 56]
 1338 11cc E0FFFF37 		tbnz	w0, #31, .L292
 1339 11d0 222000B9 		str	w2, [x1, 32]
 1340 11d4 1F2003D5 		.p2align 3
 1341              	.L293:
 1342 11d8 201840B9 		ldr	w0, [x1, 24]
 1343 11dc E0FFF737 		tbnz	x0, 30, .L293
 1344 11e0 200040B9 		ldr	w0, [x1]
 1345 11e4 000C0012 		and	w0, w0, 15
 1346 11e8 1F200071 		cmp	w0, 8
 1347 11ec 61FFFF54 		bne	.L293
 1348 11f0 E23740B9 		ldr	w2, [sp, 52]
 1349 11f4 0100B052 		mov	w1, -2147483648
 1350 11f8 00008052 		mov	w0, 0
 1351 11fc 5F00016B 		cmp	w2, w1
AARCH64 GAS  C:\Users\ldebo\AppData\Local\Temp\ccfW7LPV.s 			page 25


 1352 1200 60000054 		beq	.L303
 1353              	.L295:
 1354 1204 F37BCDA8 		ldp	x19, x30, [sp], 208
 1355 1208 C0035FD6 		ret
 1356              	.L303:
 1357 120c 20008052 		mov	w0, 1
 1358 1210 B3FFFFB4 		cbz	x19, .L295
 1359 1214 E40F4729 		ldp	w4, w3, [sp, 56]
 1360 1218 640E0029 		stp	w4, w3, [x19]
 1361 121c E2074829 		ldp	w2, w1, [sp, 64]
 1362 1220 62060129 		stp	w2, w1, [x19, 8]
 1363 1224 F37BCDA8 		ldp	x19, x30, [sp], 208
 1364 1228 C0035FD6 		ret
 1365              		.size	mailbox_tag_message.constprop.6, .-mailbox_tag_message.constprop.6
 1366              		.align	2
 1367 122c 1F2003D5 		.p2align 4,,15
 1368              		.global	RPi_CpuIdString
 1369              		.type	RPi_CpuIdString, %function
 1370              	RPi_CpuIdString:
 1371 1230 00000090 		adrp	x0, RPi_CpuId
 1372 1234 01004079 		ldrh	w1, [x0, #:lo12:RPi_CpuId]
 1373 1238 213C44D3 		ubfx	x1, x1, 4, 12
 1374 123c 3F1C3071 		cmp	w1, 3079
 1375 1240 40010054 		beq	.L306
 1376 1244 3F0C3471 		cmp	w1, 3331
 1377 1248 80010054 		beq	.L307
 1378 124c 00000090 		adrp	x0, .LC3
 1379 1250 02000091 		add	x2, x0, :lo12:.LC3
 1380 1254 3FD82D71 		cmp	w1, 2934
 1381 1258 00000090 		adrp	x0, .LC0
 1382 125c 00000091 		add	x0, x0, :lo12:.LC0
 1383 1260 0000829A 		csel	x0, x0, x2, eq
 1384 1264 C0035FD6 		ret
 1385              		.p2align 3
 1386              	.L306:
 1387 1268 00000090 		adrp	x0, .LC1
 1388 126c 00000091 		add	x0, x0, :lo12:.LC1
 1389 1270 C0035FD6 		ret
 1390 1274 1F2003D5 		.p2align 3
 1391              	.L307:
 1392 1278 00000090 		adrp	x0, .LC2
 1393 127c 00000091 		add	x0, x0, :lo12:.LC2
 1394 1280 C0035FD6 		ret
 1395              		.size	RPi_CpuIdString, .-RPi_CpuIdString
 1396              		.align	2
 1397 1284 1F2003D5 		.p2align 4,,15
 1397      1F2003D5 
 1397      1F2003D5 
 1398              		.global	gpio_setup
 1399              		.type	gpio_setup, %function
 1400              	gpio_setup:
 1401 1290 1FD80071 		cmp	w0, 54
 1402 1294 03008052 		mov	w3, 0
 1403 1298 2298477A 		ccmp	w1, 7, 2, ls
 1404 129c 69000054 		bls	.L313
 1405 12a0 E003032A 		mov	w0, w3
 1406 12a4 C0035FD6 		ret
AARCH64 GAS  C:\Users\ldebo\AppData\Local\Temp\ccfW7LPV.s 			page 26


 1407              		.p2align 3
 1408              	.L313:
 1409 12a8 A2999952 		mov	w2, 52429
 1410 12ac 8299B972 		movk	w2, 0xcccc, lsl 16
 1411 12b0 47018052 		mov	w7, 10
 1412 12b4 03000090 		adrp	x3, RPi_IO_Base_Addr
 1413 12b8 650040B9 		ldr	w5, [x3, #:lo12:RPi_IO_Base_Addr]
 1414 12bc 23008052 		mov	w3, 1
 1415 12c0 027CA29B 		umull	x2, w0, w2
 1416 12c4 E4008052 		mov	w4, 7
 1417 12c8 A5004811 		add	w5, w5, 2097152
 1418 12cc 42FC63D3 		lsr	x2, x2, 35
 1419 12d0 E603022A 		uxtw	x6, w2
 1420 12d4 4280071B 		msub	w2, w2, w7, w0
 1421 12d8 A77866B8 		ldr	w7, [x5, x6, lsl 2]
 1422 12dc 4204020B 		add	w2, w2, w2, lsl 1
 1423 12e0 8020C21A 		lsl	w0, w4, w2
 1424 12e4 E000200A 		bic	w0, w7, w0
 1425 12e8 2120C21A 		lsl	w1, w1, w2
 1426 12ec 2100002A 		orr	w1, w1, w0
 1427 12f0 E003032A 		mov	w0, w3
 1428 12f4 A17826B8 		str	w1, [x5, x6, lsl 2]
 1429 12f8 C0035FD6 		ret
 1430              		.size	gpio_setup, .-gpio_setup
 1431              		.align	2
 1432 12fc 1F2003D5 		.p2align 4,,15
 1433              		.global	gpio_output
 1434              		.type	gpio_output, %function
 1435              	gpio_output:
 1436 1300 211C0012 		and	w1, w1, 255
 1437 1304 1FD80071 		cmp	w0, 54
 1438 1308 C8020054 		bhi	.L317
 1439 130c 04100012 		and	w4, w0, 31
 1440 1310 02000090 		adrp	x2, RPi_IO_Base_Addr
 1441 1314 430040B9 		ldr	w3, [x2, #:lo12:RPi_IO_Base_Addr]
 1442 1318 027C0553 		lsr	w2, w0, 5
 1443 131c 25008052 		mov	w5, 1
 1444 1320 42687ED3 		ubfiz	x2, x2, 2, 27
 1445 1324 A420C41A 		lsl	w4, w5, w4
 1446 1328 60004811 		add	w0, w3, 2097152
 1447 132c E1000035 		cbnz	w1, .L318
 1448 1330 42800091 		add	x2, x2, 32
 1449 1334 E103052A 		mov	w1, w5
 1450 1338 0200028B 		add	x2, x0, x2
 1451 133c E003012A 		mov	w0, w1
 1452 1340 440800B9 		str	w4, [x2, 8]
 1453 1344 C0035FD6 		ret
 1454              		.p2align 3
 1455              	.L318:
 1456 1348 43400091 		add	x3, x2, 16
 1457 134c 0300038B 		add	x3, x0, x3
 1458 1350 E003012A 		mov	w0, w1
 1459 1354 640C00B9 		str	w4, [x3, 12]
 1460 1358 C0035FD6 		ret
 1461 135c 1F2003D5 		.p2align 3
 1462              	.L317:
 1463 1360 01008052 		mov	w1, 0
AARCH64 GAS  C:\Users\ldebo\AppData\Local\Temp\ccfW7LPV.s 			page 27


 1464 1364 E003012A 		mov	w0, w1
 1465 1368 C0035FD6 		ret
 1466              		.size	gpio_output, .-gpio_output
 1467              		.align	2
 1468 136c 1F2003D5 		.p2align 4,,15
 1469              		.global	gpio_input
 1470              		.type	gpio_input, %function
 1471              	gpio_input:
 1472 1370 1FD80071 		cmp	w0, 54
 1473 1374 E8010054 		bhi	.L321
 1474 1378 01000090 		adrp	x1, RPi_IO_Base_Addr
 1475 137c 220040B9 		ldr	w2, [x1, #:lo12:RPi_IO_Base_Addr]
 1476 1380 017C0553 		lsr	w1, w0, 5
 1477 1384 00100012 		and	w0, w0, 31
 1478 1388 42004811 		add	w2, w2, 2097152
 1479 138c 21300091 		add	x1, x1, 12
 1480 1390 4108018B 		add	x1, x2, x1, lsl 2
 1481 1394 22008052 		mov	w2, 1
 1482 1398 4020C01A 		lsl	w0, w2, w0
 1483 139c 210440B9 		ldr	w1, [x1, 4]
 1484 13a0 1F00016A 		tst	w0, w1
 1485 13a4 E0079F1A 		cset	w0, ne
 1486 13a8 C0035FD6 		ret
 1487 13ac 1F2003D5 		.p2align 3
 1488              	.L321:
 1489 13b0 00008052 		mov	w0, 0
 1490 13b4 C0035FD6 		ret
 1491              		.size	gpio_input, .-gpio_input
 1492              		.align	2
 1493 13b8 1F2003D5 		.p2align 4,,15
 1493      1F2003D5 
 1494              		.global	gpio_checkEvent
 1495              		.type	gpio_checkEvent, %function
 1496              	gpio_checkEvent:
 1497 13c0 1FD80071 		cmp	w0, 54
 1498 13c4 A8010054 		bhi	.L324
 1499 13c8 01000090 		adrp	x1, RPi_IO_Base_Addr
 1500 13cc 220040B9 		ldr	w2, [x1, #:lo12:RPi_IO_Base_Addr]
 1501 13d0 037C0553 		lsr	w3, w0, 5
 1502 13d4 00100012 		and	w0, w0, 31
 1503 13d8 42004811 		add	w2, w2, 2097152
 1504 13dc 63400091 		add	x3, x3, 16
 1505 13e0 21008052 		mov	w1, 1
 1506 13e4 2020C01A 		lsl	w0, w1, w0
 1507 13e8 417863B8 		ldr	w1, [x2, x3, lsl 2]
 1508 13ec 1F00016A 		tst	w0, w1
 1509 13f0 E0079F1A 		cset	w0, ne
 1510 13f4 C0035FD6 		ret
 1511              		.p2align 3
 1512              	.L324:
 1513 13f8 00008052 		mov	w0, 0
 1514 13fc C0035FD6 		ret
 1515              		.size	gpio_checkEvent, .-gpio_checkEvent
 1516              		.align	2
 1517              		.p2align 4,,15
 1518              		.global	gpio_clearEvent
 1519              		.type	gpio_clearEvent, %function
AARCH64 GAS  C:\Users\ldebo\AppData\Local\Temp\ccfW7LPV.s 			page 28


 1520              	gpio_clearEvent:
 1521 1400 1FD80071 		cmp	w0, 54
 1522 1404 A8010054 		bhi	.L327
 1523 1408 01000090 		adrp	x1, RPi_IO_Base_Addr
 1524 140c 230040B9 		ldr	w3, [x1, #:lo12:RPi_IO_Base_Addr]
 1525 1410 047C0553 		lsr	w4, w0, 5
 1526 1414 01100012 		and	w1, w0, 31
 1527 1418 63004811 		add	w3, w3, 2097152
 1528 141c 84400091 		add	x4, x4, 16
 1529 1420 22008052 		mov	w2, 1
 1530 1424 E003022A 		mov	w0, w2
 1531 1428 4120C11A 		lsl	w1, w2, w1
 1532 142c 617824B8 		str	w1, [x3, x4, lsl 2]
 1533 1430 C0035FD6 		ret
 1534 1434 1F2003D5 		.p2align 3
 1535              	.L327:
 1536 1438 00008052 		mov	w0, 0
 1537 143c C0035FD6 		ret
 1538              		.size	gpio_clearEvent, .-gpio_clearEvent
 1539              		.align	2
 1540              		.p2align 4,,15
 1541              		.global	gpio_edgeDetect
 1542              		.type	gpio_edgeDetect, %function
 1543              	gpio_edgeDetect:
 1544 1440 211C0012 		and	w1, w1, 255
 1545 1444 421C0012 		and	w2, w2, 255
 1546 1448 1FD80071 		cmp	w0, 54
 1547 144c 28030054 		bhi	.L333
 1548 1450 05100012 		and	w5, w0, 31
 1549 1454 03000090 		adrp	x3, RPi_IO_Base_Addr
 1550 1458 640040B9 		ldr	w4, [x3, #:lo12:RPi_IO_Base_Addr]
 1551 145c 037C0553 		lsr	w3, w0, 5
 1552 1460 27008052 		mov	w7, 1
 1553 1464 E620C51A 		lsl	w6, w7, w5
 1554 1468 80004811 		add	w0, w4, 2097152
 1555 146c 21010034 		cbz	w1, .L330
 1556 1470 63687ED3 		ubfiz	x3, x3, 2, 27
 1557 1474 62020034 		cbz	w2, .L331
 1558 1478 64C00191 		add	x4, x3, 112
 1559 147c 0400048B 		add	x4, x0, x4
 1560 1480 E003022A 		mov	w0, w2
 1561 1484 860C00B9 		str	w6, [x4, 12]
 1562 1488 C0035FD6 		ret
 1563 148c 1F2003D5 		.p2align 3
 1564              	.L330:
 1565 1490 42020035 		cbnz	w2, .L334
 1566 1494 63687ED3 		ubfiz	x3, x3, 2, 27
 1567 1498 E203072A 		mov	w2, w7
 1568 149c 63400191 		add	x3, x3, 80
 1569 14a0 0300038B 		add	x3, x0, x3
 1570 14a4 E003022A 		mov	w0, w2
 1571 14a8 660800B9 		str	w6, [x3, 8]
 1572 14ac C0035FD6 		ret
 1573              		.p2align 3
 1574              	.L333:
 1575 14b0 02008052 		mov	w2, 0
 1576 14b4 E003022A 		mov	w0, w2
AARCH64 GAS  C:\Users\ldebo\AppData\Local\Temp\ccfW7LPV.s 			page 29


 1577 14b8 C0035FD6 		ret
 1578 14bc 1F2003D5 		.p2align 3
 1579              	.L331:
 1580 14c0 E203012A 		mov	w2, w1
 1581 14c4 61000191 		add	x1, x3, 64
 1582 14c8 0400018B 		add	x4, x0, x1
 1583 14cc E003022A 		mov	w0, w2
 1584 14d0 860C00B9 		str	w6, [x4, 12]
 1585 14d4 C0035FD6 		ret
 1586              		.p2align 3
 1587              	.L334:
 1588 14d8 65687ED3 		ubfiz	x5, x3, 2, 27
 1589 14dc A5000291 		add	x5, x5, 128
 1590 14e0 0400058B 		add	x4, x0, x5
 1591 14e4 E003022A 		mov	w0, w2
 1592 14e8 860800B9 		str	w6, [x4, 8]
 1593 14ec C0035FD6 		ret
 1594              		.size	gpio_edgeDetect, .-gpio_edgeDetect
 1595              		.align	2
 1596              		.p2align 4,,15
 1597              		.global	gpio_fixResistor
 1598              		.type	gpio_fixResistor, %function
 1599              	gpio_fixResistor:
 1600 14f0 1FD80071 		cmp	w0, 54
 1601 14f4 2298427A 		ccmp	w1, 2, 2, ls
 1602 14f8 89000054 		bls	.L350
 1603 14fc 00008052 		mov	w0, 0
 1604 1500 C0035FD6 		ret
 1605 1504 1F2003D5 		.p2align 3
 1606              	.L350:
 1607 1508 02000090 		adrp	x2, RPi_IO_Base_Addr
 1608 150c 420040B9 		ldr	w2, [x2, #:lo12:RPi_IO_Base_Addr]
 1609 1510 46004811 		add	w6, w2, 2097152
 1610 1514 420C4011 		add	w2, w2, 12288
 1611 1518 C19400B9 		str	w1, [x6, 148]
 1612 151c 1F2003D5 		.p2align 3
 1613              	.L337:
 1614 1520 410840B9 		ldr	w1, [x2, 8]
 1615 1524 440440B9 		ldr	w4, [x2, 4]
 1616 1528 430840B9 		ldr	w3, [x2, 8]
 1617 152c 3F00036B 		cmp	w1, w3
 1618 1530 81FFFF54 		bne	.L337
 1619 1534 E403042A 		uxtw	x4, w4
 1620 1538 818001AA 		orr	x1, x4, x1, lsl 32
 1621 153c 25080091 		add	x5, x1, 2
 1622              		.p2align 3
 1623              	.L338:
 1624 1540 410840B9 		ldr	w1, [x2, 8]
 1625 1544 440440B9 		ldr	w4, [x2, 4]
 1626 1548 430840B9 		ldr	w3, [x2, 8]
 1627 154c 3F00036B 		cmp	w1, w3
 1628 1550 81FFFF54 		bne	.L338
 1629 1554 E403042A 		uxtw	x4, w4
 1630 1558 818001AA 		orr	x1, x4, x1, lsl 32
 1631 155c BF0001EB 		cmp	x5, x1
 1632 1560 08FFFF54 		bhi	.L338
 1633 1564 057C0553 		lsr	w5, w0, 5
AARCH64 GAS  C:\Users\ldebo\AppData\Local\Temp\ccfW7LPV.s 			page 30


 1634 1568 00100012 		and	w0, w0, 31
 1635 156c C508058B 		add	x5, x6, x5, lsl 2
 1636 1570 21008052 		mov	w1, 1
 1637 1574 2020C01A 		lsl	w0, w1, w0
 1638 1578 A09800B9 		str	w0, [x5, 152]
 1639 157c 1F2003D5 		.p2align 3
 1640              	.L340:
 1641 1580 400840B9 		ldr	w0, [x2, 8]
 1642 1584 430440B9 		ldr	w3, [x2, 4]
 1643 1588 410840B9 		ldr	w1, [x2, 8]
 1644 158c 1F00016B 		cmp	w0, w1
 1645 1590 81FFFF54 		bne	.L340
 1646 1594 E303032A 		uxtw	x3, w3
 1647 1598 608000AA 		orr	x0, x3, x0, lsl 32
 1648 159c 04080091 		add	x4, x0, 2
 1649              		.p2align 3
 1650              	.L341:
 1651 15a0 400840B9 		ldr	w0, [x2, 8]
 1652 15a4 430440B9 		ldr	w3, [x2, 4]
 1653 15a8 410840B9 		ldr	w1, [x2, 8]
 1654 15ac 1F00016B 		cmp	w0, w1
 1655 15b0 81FFFF54 		bne	.L341
 1656 15b4 E303032A 		uxtw	x3, w3
 1657 15b8 608000AA 		orr	x0, x3, x0, lsl 32
 1658 15bc 9F0000EB 		cmp	x4, x0
 1659 15c0 08FFFF54 		bhi	.L341
 1660 15c4 DF9400B9 		str	wzr, [x6, 148]
 1661 15c8 20008052 		mov	w0, 1
 1662 15cc BF9800B9 		str	wzr, [x5, 152]
 1663 15d0 C0035FD6 		ret
 1664              		.size	gpio_fixResistor, .-gpio_fixResistor
 1665              		.align	2
 1666 15d4 1F2003D5 		.p2align 4,,15
 1666      1F2003D5 
 1666      1F2003D5 
 1667              		.global	timer_getTickCount
 1668              		.type	timer_getTickCount, %function
 1669              	timer_getTickCount:
 1670 15e0 00000090 		adrp	x0, RPi_IO_Base_Addr
 1671 15e4 010040B9 		ldr	w1, [x0, #:lo12:RPi_IO_Base_Addr]
 1672 15e8 210C4011 		add	w1, w1, 12288
 1673 15ec 1F2003D5 		.p2align 3
 1674              	.L352:
 1675 15f0 220840B9 		ldr	w2, [x1, 8]
 1676 15f4 200440B9 		ldr	w0, [x1, 4]
 1677 15f8 230840B9 		ldr	w3, [x1, 8]
 1678 15fc 5F00036B 		cmp	w2, w3
 1679 1600 81FFFF54 		bne	.L352
 1680 1604 E003002A 		uxtw	x0, w0
 1681 1608 008002AA 		orr	x0, x0, x2, lsl 32
 1682 160c C0035FD6 		ret
 1683              		.size	timer_getTickCount, .-timer_getTickCount
 1684              		.align	2
 1685              		.p2align 4,,15
 1686              		.global	timer_wait
 1687              		.type	timer_wait, %function
 1688              	timer_wait:
AARCH64 GAS  C:\Users\ldebo\AppData\Local\Temp\ccfW7LPV.s 			page 31


 1689 1610 01000090 		adrp	x1, RPi_IO_Base_Addr
 1690 1614 210040B9 		ldr	w1, [x1, #:lo12:RPi_IO_Base_Addr]
 1691 1618 210C4011 		add	w1, w1, 12288
 1692 161c 1F2003D5 		.p2align 3
 1693              	.L355:
 1694 1620 220840B9 		ldr	w2, [x1, 8]
 1695 1624 240440B9 		ldr	w4, [x1, 4]
 1696 1628 230840B9 		ldr	w3, [x1, 8]
 1697 162c 5F00036B 		cmp	w2, w3
 1698 1630 81FFFF54 		bne	.L355
 1699 1634 E403042A 		uxtw	x4, w4
 1700 1638 828002AA 		orr	x2, x4, x2, lsl 32
 1701 163c 4400008B 		add	x4, x2, x0
 1702              		.p2align 3
 1703              	.L356:
 1704 1640 200840B9 		ldr	w0, [x1, 8]
 1705 1644 230440B9 		ldr	w3, [x1, 4]
 1706 1648 220840B9 		ldr	w2, [x1, 8]
 1707 164c 1F00026B 		cmp	w0, w2
 1708 1650 81FFFF54 		bne	.L356
 1709 1654 E303032A 		uxtw	x3, w3
 1710 1658 608000AA 		orr	x0, x3, x0, lsl 32
 1711 165c 9F0000EB 		cmp	x4, x0
 1712 1660 08FFFF54 		bhi	.L356
 1713 1664 C0035FD6 		ret
 1714              		.size	timer_wait, .-timer_wait
 1715              		.align	2
 1716 1668 1F2003D5 		.p2align 4,,15
 1716      1F2003D5 
 1717              		.global	tick_difference
 1718              		.type	tick_difference, %function
 1719              	tick_difference:
 1720 1670 200000CB 		sub	x0, x1, x0
 1721 1674 C0035FD6 		ret
 1722              		.size	tick_difference, .-tick_difference
 1723              		.align	2
 1724 1678 1F2003D5 		.p2align 4,,15
 1724      1F2003D5 
 1725              		.global	mailbox_write
 1726              		.type	mailbox_write, %function
 1727              	mailbox_write:
 1728 1680 1F240071 		cmp	w0, 9
 1729 1684 A8010054 		bhi	.L365
 1730 1688 02000090 		adrp	x2, RPi_IO_Base_Addr
 1731 168c 420040B9 		ldr	w2, [x2, #:lo12:RPi_IO_Base_Addr]
 1732 1690 216C1C12 		and	w1, w1, -16
 1733 1694 0000012A 		orr	w0, w0, w1
 1734 1698 01109752 		mov	w1, 47232
 1735 169c 4200010B 		add	w2, w2, w1
 1736              		.p2align 3
 1737              	.L364:
 1738 16a0 413840B9 		ldr	w1, [x2, 56]
 1739 16a4 E1FFFF37 		tbnz	w1, #31, .L364
 1740 16a8 402000B9 		str	w0, [x2, 32]
 1741 16ac 20008052 		mov	w0, 1
 1742 16b0 C0035FD6 		ret
 1743 16b4 1F2003D5 		.p2align 3
AARCH64 GAS  C:\Users\ldebo\AppData\Local\Temp\ccfW7LPV.s 			page 32


 1744              	.L365:
 1745 16b8 00008052 		mov	w0, 0
 1746 16bc C0035FD6 		ret
 1747              		.size	mailbox_write, .-mailbox_write
 1748              		.align	2
 1749              		.p2align 4,,15
 1750              		.global	mailbox_read
 1751              		.type	mailbox_read, %function
 1752              	mailbox_read:
 1753 16c0 1F240071 		cmp	w0, 9
 1754 16c4 A8010054 		bhi	.L371
 1755 16c8 01000090 		adrp	x1, RPi_IO_Base_Addr
 1756 16cc 220040B9 		ldr	w2, [x1, #:lo12:RPi_IO_Base_Addr]
 1757 16d0 01109752 		mov	w1, 47232
 1758 16d4 4200010B 		add	w2, w2, w1
 1759              		.p2align 3
 1760              	.L369:
 1761 16d8 411840B9 		ldr	w1, [x2, 24]
 1762 16dc E1FFF737 		tbnz	x1, 30, .L369
 1763 16e0 410040B9 		ldr	w1, [x2]
 1764 16e4 230C0012 		and	w3, w1, 15
 1765 16e8 1F00036B 		cmp	w0, w3
 1766 16ec 61FFFF54 		bne	.L369
 1767 16f0 206C1C12 		and	w0, w1, -16
 1768 16f4 C0035FD6 		ret
 1769              		.p2align 3
 1770              	.L371:
 1771 16f8 A0D59B52 		mov	w0, 57005
 1772 16fc A0DDBF72 		movk	w0, 0xfeed, lsl 16
 1773 1700 C0035FD6 		ret
 1774              		.size	mailbox_read, .-mailbox_read
 1775              		.align	2
 1776 1704 1F2003D5 		.p2align 4,,15
 1776      1F2003D5 
 1776      1F2003D5 
 1777              		.global	mailbox_tag_message
 1778              		.type	mailbox_tag_message, %function
 1779              	mailbox_tag_message:
 1780 1710 F353B1A9 		stp	x19, x20, [sp, -240]!
 1781 1714 341C0012 		and	w20, w1, 255
 1782 1718 880A0011 		add	w8, w20, 2
 1783 171c 810E0011 		add	w1, w20, 3
 1784 1720 F3030391 		add	x19, sp, 192
 1785 1724 F57B01A9 		stp	x21, x30, [sp, 16]
 1786 1728 087D4093 		sxtw	x8, w8
 1787 172c 21741E53 		lsl	w1, w1, 2
 1788 1730 E9030391 		add	x9, sp, 192
 1789 1734 E91B00F9 		str	x9, [sp, 48]
 1790 1738 610E18B8 		str	w1, [x19, -128]!
 1791 173c E1058012 		mov	w1, -48
 1792 1740 E26300F9 		str	x2, [sp, 192]
 1793 1744 E2C30391 		add	x2, sp, 240
 1794 1748 7F7A28B8 		str	wzr, [x19, x8, lsl 2]
 1795 174c F50300AA 		mov	x21, x0
 1796 1750 E20B02A9 		stp	x2, x2, [sp, 32]
 1797 1754 E17F0729 		stp	w1, wzr, [sp, 56]
 1798 1758 FF4700B9 		str	wzr, [sp, 68]
AARCH64 GAS  C:\Users\ldebo\AppData\Local\Temp\ccfW7LPV.s 			page 33


 1799 175c E3930CA9 		stp	x3, x4, [sp, 200]
 1800 1760 E59B0DA9 		stp	x5, x6, [sp, 216]
 1801 1764 E77700F9 		str	x7, [sp, 232]
 1802 1768 14020034 		cbz	w20, .L382
 1803 176c 82060051 		sub	w2, w20, #1
 1804 1770 63320091 		add	x3, x19, 12
 1805 1774 E403012A 		mov	w4, w1
 1806 1778 E6C30391 		add	x6, sp, 240
 1807 177c 60220091 		add	x0, x19, 8
 1808 1780 6348228B 		add	x3, x3, x2, uxtw 2
 1809 1784 05008052 		mov	w5, 0
 1810              		.p2align 3
 1811              	.L380:
 1812 1788 8106F837 		tbnz	w1, #31, .L377
 1813 178c E20306AA 		mov	x2, x6
 1814 1790 C6200091 		add	x6, x6, 8
 1815              	.L378:
 1816 1794 420040B9 		ldr	w2, [x2]
 1817 1798 024400B8 		str	w2, [x0], 4
 1818 179c 7F0000EB 		cmp	x3, x0
 1819 17a0 41FFFF54 		bne	.L380
 1820 17a4 65050035 		cbnz	w5, .L402
 1821              	.L382:
 1822 17a8 E00313AA 		mov	x0, x19
 1823 17ac 00000094 		bl	ARMaddrToGPUaddr
 1824 17b0 01000090 		adrp	x1, RPi_IO_Base_Addr
 1825 17b4 220040B9 		ldr	w2, [x1, #:lo12:RPi_IO_Base_Addr]
 1826 17b8 006C1C12 		and	w0, w0, -16
 1827 17bc 01001D32 		orr	w1, w0, 8
 1828 17c0 00109752 		mov	w0, 47232
 1829 17c4 4200000B 		add	w2, w2, w0
 1830              		.p2align 3
 1831              	.L376:
 1832 17c8 403840B9 		ldr	w0, [x2, 56]
 1833 17cc E0FFFF37 		tbnz	w0, #31, .L376
 1834 17d0 412000B9 		str	w1, [x2, 32]
 1835 17d4 1F2003D5 		.p2align 3
 1836              	.L383:
 1837 17d8 401840B9 		ldr	w0, [x2, 24]
 1838 17dc E0FFF737 		tbnz	x0, 30, .L383
 1839 17e0 400040B9 		ldr	w0, [x2]
 1840 17e4 000C0012 		and	w0, w0, 15
 1841 17e8 1F200071 		cmp	w0, 8
 1842 17ec 61FFFF54 		bne	.L383
 1843 17f0 E24740B9 		ldr	w2, [sp, 68]
 1844 17f4 0100B052 		mov	w1, -2147483648
 1845 17f8 00008052 		mov	w0, 0
 1846 17fc 5F00016B 		cmp	w2, w1
 1847 1800 80000054 		beq	.L403
 1848 1804 F57B41A9 		ldp	x21, x30, [sp, 16]
 1849 1808 F353CFA8 		ldp	x19, x20, [sp], 240
 1850 180c C0035FD6 		ret
 1851              	.L403:
 1852 1810 950100B4 		cbz	x21, .L387
 1853 1814 74010034 		cbz	w20, .L387
 1854 1818 81060051 		sub	w1, w20, #1
 1855 181c 000080D2 		mov	x0, 0
AARCH64 GAS  C:\Users\ldebo\AppData\Local\Temp\ccfW7LPV.s 			page 34


 1856 1820 21040091 		add	x1, x1, 1
 1857 1824 21F47ED3 		lsl	x1, x1, 2
 1858              		.p2align 3
 1859              	.L388:
 1860 1828 6202008B 		add	x2, x19, x0
 1861 182c 420840B9 		ldr	w2, [x2, 8]
 1862 1830 A26A20B8 		str	w2, [x21, x0]
 1863 1834 00100091 		add	x0, x0, 4
 1864 1838 3F0000EB 		cmp	x1, x0
 1865 183c 61FFFF54 		bne	.L388
 1866              	.L387:
 1867 1840 F57B41A9 		ldp	x21, x30, [sp, 16]
 1868 1844 20008052 		mov	w0, 1
 1869 1848 F353CFA8 		ldp	x19, x20, [sp], 240
 1870 184c C0035FD6 		ret
 1871              	.L402:
 1872 1850 E43B00B9 		str	w4, [sp, 56]
 1873 1854 D5FFFF17 		b	.L382
 1874              	.L377:
 1875 1858 24200011 		add	w4, w1, 8
 1876 185c 9F000071 		cmp	w4, 0
 1877 1860 CD000054 		ble	.L379
 1878 1864 E20306AA 		mov	x2, x6
 1879 1868 E103042A 		mov	w1, w4
 1880 186c C6200091 		add	x6, x6, 8
 1881 1870 25008052 		mov	w5, 1
 1882 1874 C8FFFF17 		b	.L378
 1883              	.L379:
 1884 1878 E2C30391 		add	x2, sp, 240
 1885 187c 25008052 		mov	w5, 1
 1886 1880 42C0218B 		add	x2, x2, x1, sxtw
 1887 1884 E103042A 		mov	w1, w4
 1888 1888 C3FFFF17 		b	.L378
 1889              		.size	mailbox_tag_message, .-mailbox_tag_message
 1890              		.align	2
 1891 188c 1F2003D5 		.p2align 4,,15
 1892              		.global	TimerIrqSetup
 1893              		.type	TimerIrqSetup, %function
 1894              	TimerIrqSetup:
 1895 1890 F353BBA9 		stp	x19, x20, [sp, -80]!
 1896 1894 14809652 		mov	w20, 46080
 1897 1898 F303002A 		mov	w19, w0
 1898 189c 04018052 		mov	w4, 8
 1899 18a0 F55B01A9 		stp	x21, x22, [sp, 16]
 1900 18a4 15000090 		adrp	x21, RPi_IO_Base_Addr
 1901 18a8 A20240B9 		ldr	w2, [x21, #:lo12:RPi_IO_Base_Addr]
 1902 18ac FE1300F9 		str	x30, [sp, 32]
 1903 18b0 E303042A 		mov	w3, w4
 1904 18b4 4200140B 		add	w2, w2, w20
 1905 18b8 FFFF03A9 		stp	xzr, xzr, [sp, 56]
 1906 18bc FF4B00B9 		str	wzr, [sp, 72]
 1907 18c0 F60301AA 		mov	x22, x1
 1908 18c4 06008052 		mov	w6, 0
 1909 18c8 85008052 		mov	w5, 4
 1910 18cc 400840B9 		ldr	w0, [x2, 8]
 1911 18d0 A1008052 		mov	w1, 5
 1912 18d4 00781812 		and	w0, w0, -129
AARCH64 GAS  C:\Users\ldebo\AppData\Local\Temp\ccfW7LPV.s 			page 35


 1913 18d8 400800B9 		str	w0, [x2, 8]
 1914 18dc E0E30091 		add	x0, sp, 56
 1915 18e0 42008052 		mov	w2, 2
 1916 18e4 6200A072 		movk	w2, 0x3, lsl 16
 1917 18e8 C6FDFF97 		bl	mailbox_tag_message.constprop.5
 1918 18ec E14B40B9 		ldr	w1, [sp, 72]
 1919 18f0 63BA8952 		mov	w3, 19923
 1920 18f4 430CA272 		movk	w3, 0x1062, lsl 16
 1921 18f8 629B86D2 		mov	x2, 13531
 1922 18fc C2F6BAF2 		movk	x2, 0xd7b6, lsl 16
 1923 1900 42D0DBF2 		movk	x2, 0xde82, lsl 32
 1924 1904 6263E8F2 		movk	x2, 0x431b, lsl 48
 1925 1908 217CA39B 		umull	x1, w1, w3
 1926 190c E00316AA 		mov	x0, x22
 1927 1910 21FC64D3 		lsr	x1, x1, 36
 1928 1914 E14B00B9 		str	w1, [sp, 72]
 1929 1918 737EA19B 		umull	x19, w19, w1
 1930 191c 737EC29B 		umulh	x19, x19, x2
 1931 1920 00000094 		bl	setTimerIrqAddress
 1932 1924 A10240B9 		ldr	w1, [x21, #:lo12:RPi_IO_Base_Addr]
 1933 1928 02409652 		mov	w2, 45568
 1934 192c 2300020B 		add	w3, w1, w2
 1935 1930 2100140B 		add	w1, w1, w20
 1936 1934 73FE52D3 		lsr	x19, x19, 18
 1937 1938 621840B9 		ldr	w2, [x3, 24]
 1938 193c 42000032 		orr	w2, w2, 1
 1939 1940 621800B9 		str	w2, [x3, 24]
 1940 1944 330000B9 		str	w19, [x1]
 1941 1948 220840B9 		ldr	w2, [x1, 8]
 1942 194c 42001F32 		orr	w2, w2, 2
 1943 1950 220800B9 		str	w2, [x1, 8]
 1944 1954 220840B9 		ldr	w2, [x1, 8]
 1945 1958 42741C12 		and	w2, w2, -13
 1946 195c 220800B9 		str	w2, [x1, 8]
 1947 1960 220840B9 		ldr	w2, [x1, 8]
 1948 1964 42001B32 		orr	w2, w2, 32
 1949 1968 220800B9 		str	w2, [x1, 8]
 1950 196c 220840B9 		ldr	w2, [x1, 8]
 1951 1970 42001932 		orr	w2, w2, 128
 1952 1974 220800B9 		str	w2, [x1, 8]
 1953 1978 F55B41A9 		ldp	x21, x22, [sp, 16]
 1954 197c FE1340F9 		ldr	x30, [sp, 32]
 1955 1980 F353C5A8 		ldp	x19, x20, [sp], 80
 1956 1984 C0035FD6 		ret
 1957              		.size	TimerIrqSetup, .-TimerIrqSetup
 1958              		.align	2
 1959 1988 1F2003D5 		.p2align 4,,15
 1959      1F2003D5 
 1960              		.global	set_Activity_LED
 1961              		.type	set_Activity_LED, %function
 1962              	set_Activity_LED:
 1963 1990 01000090 		adrp	x1, RPi_CpuId
 1964 1994 21004079 		ldrh	w1, [x1, #:lo12:RPi_CpuId]
 1965 1998 F37BBEA9 		stp	x19, x30, [sp, -32]!
 1966 199c 131C0012 		and	w19, w0, 255
 1967 19a0 203C44D3 		ubfx	x0, x1, 4, 12
 1968 19a4 1F1C3071 		cmp	w0, 3079
AARCH64 GAS  C:\Users\ldebo\AppData\Local\Temp\ccfW7LPV.s 			page 36


 1969 19a8 80040054 		beq	.L408
 1970 19ac 1F0C3471 		cmp	w0, 3331
 1971 19b0 80020054 		beq	.L409
 1972 19b4 1FD82D71 		cmp	w0, 2934
 1973 19b8 C0000054 		beq	.L423
 1974 19bc 13008052 		mov	w19, 0
 1975              	.L407:
 1976 19c0 E003132A 		mov	w0, w19
 1977 19c4 F37BC2A8 		ldp	x19, x30, [sp], 32
 1978 19c8 C0035FD6 		ret
 1979 19cc 1F2003D5 		.p2align 3
 1980              	.L423:
 1981 19d0 00000090 		adrp	x0, .LANCHOR0
 1982 19d4 01004039 		ldrb	w1, [x0, #:lo12:.LANCHOR0]
 1983 19d8 C1040034 		cbz	w1, .L411
 1984              	.L422:
 1985 19dc 00000090 		adrp	x0, .LANCHOR1
 1986 19e0 000040B9 		ldr	w0, [x0, #:lo12:.LANCHOR1]
 1987 19e4 1FD80071 		cmp	w0, 54
 1988 19e8 C9060054 		bls	.L415
 1989 19ec 33008052 		mov	w19, 1
 1990 19f0 E003132A 		mov	w0, w19
 1991 19f4 F37BC2A8 		ldp	x19, x30, [sp], 32
 1992 19f8 C0035FD6 		ret
 1993 19fc 1F2003D5 		.p2align 3
 1994              	.L409:
 1995 1a00 E603132A 		mov	w6, w19
 1996 1a04 04018052 		mov	w4, 8
 1997 1a08 45108052 		mov	w5, 130
 1998 1a0c E303042A 		mov	w3, w4
 1999 1a10 A1008052 		mov	w1, 5
 2000 1a14 22089052 		mov	w2, 32833
 2001 1a18 6200A072 		movk	w2, 0x3, lsl 16
 2002 1a1c 000080D2 		mov	x0, 0
 2003 1a20 30FDFF97 		bl	mailbox_tag_message.constprop.4
 2004 1a24 131C0012 		and	w19, w0, 255
 2005 1a28 E003132A 		mov	w0, w19
 2006 1a2c F37BC2A8 		ldp	x19, x30, [sp], 32
 2007 1a30 C0035FD6 		ret
 2008 1a34 1F2003D5 		.p2align 3
 2009              	.L408:
 2010 1a38 00000090 		adrp	x0, RPi_IO_Base_Addr
 2011 1a3c 000040B9 		ldr	w0, [x0, #:lo12:RPi_IO_Base_Addr]
 2012 1a40 01009052 		mov	w1, 32768
 2013 1a44 00004811 		add	w0, w0, 2097152
 2014 1a48 D3000035 		cbnz	w19, .L424
 2015 1a4c 012C00B9 		str	w1, [x0, 44]
 2016 1a50 33008052 		mov	w19, 1
 2017 1a54 E003132A 		mov	w0, w19
 2018 1a58 F37BC2A8 		ldp	x19, x30, [sp], 32
 2019 1a5c C0035FD6 		ret
 2020              		.p2align 3
 2021              	.L424:
 2022 1a60 012000B9 		str	w1, [x0, 32]
 2023 1a64 E003132A 		mov	w0, w19
 2024 1a68 F37BC2A8 		ldp	x19, x30, [sp], 32
 2025 1a6c C0035FD6 		ret
AARCH64 GAS  C:\Users\ldebo\AppData\Local\Temp\ccfW7LPV.s 			page 37


 2026              		.p2align 3
 2027              	.L411:
 2028 1a70 21008052 		mov	w1, 1
 2029 1a74 83008052 		mov	w3, 4
 2030 1a78 01000039 		strb	w1, [x0, #:lo12:.LANCHOR0]
 2031 1a7c 05008052 		mov	w5, 0
 2032 1a80 04008052 		mov	w4, 0
 2033 1a84 42008052 		mov	w2, 2
 2034 1a88 2200A072 		movk	w2, 0x1, lsl 16
 2035 1a8c E103032A 		mov	w1, w3
 2036 1a90 E0430091 		add	x0, sp, 16
 2037 1a94 AFFDFF97 		bl	mailbox_tag_message.constprop.6
 2038 1a98 1F1C0072 		tst	w0, 255
 2039 1a9c 00FAFF54 		beq	.L422
 2040 1aa0 E01F40B9 		ldr	w0, [sp, 28]
 2041 1aa4 02000090 		adrp	x2, .LANCHOR1
 2042 1aa8 00080051 		sub	w0, w0, #2
 2043 1aac 1F340071 		cmp	w0, 13
 2044 1ab0 C8020054 		bhi	.L414
 2045 1ab4 01028052 		mov	w1, 16
 2046 1ab8 E003012A 		mov	w0, w1
 2047 1abc 410000B9 		str	w1, [x2, #:lo12:.LANCHOR1]
 2048              	.L415:
 2049 1ac0 02100012 		and	w2, w0, 31
 2050 1ac4 01000090 		adrp	x1, RPi_IO_Base_Addr
 2051 1ac8 210040B9 		ldr	w1, [x1, #:lo12:RPi_IO_Base_Addr]
 2052 1acc 23008052 		mov	w3, 1
 2053 1ad0 007C0553 		lsr	w0, w0, 5
 2054 1ad4 6220C21A 		lsl	w2, w3, w2
 2055 1ad8 21004811 		add	w1, w1, 2097152
 2056 1adc 00687ED3 		ubfiz	x0, x0, 2, 27
 2057 1ae0 D3000035 		cbnz	w19, .L425
 2058 1ae4 00800091 		add	x0, x0, 32
 2059 1ae8 F303032A 		mov	w19, w3
 2060 1aec 2100008B 		add	x1, x1, x0
 2061 1af0 220800B9 		str	w2, [x1, 8]
 2062 1af4 B3FFFF17 		b	.L407
 2063              		.p2align 3
 2064              	.L425:
 2065 1af8 00400091 		add	x0, x0, 16
 2066 1afc 2100008B 		add	x1, x1, x0
 2067 1b00 220C00B9 		str	w2, [x1, 12]
 2068 1b04 AFFFFF17 		b	.L407
 2069              		.p2align 3
 2070              	.L414:
 2071 1b08 E1058052 		mov	w1, 47
 2072 1b0c E003012A 		mov	w0, w1
 2073 1b10 410000B9 		str	w1, [x2, #:lo12:.LANCHOR1]
 2074 1b14 EBFFFF17 		b	.L415
 2075              		.size	set_Activity_LED, .-set_Activity_LED
 2076              		.align	2
 2077 1b18 1F2003D5 		.p2align 4,,15
 2077      1F2003D5 
 2078              		.global	ARM_setmaxspeed
 2079              		.type	ARM_setmaxspeed, %function
 2080              	ARM_setmaxspeed:
 2081 1b20 F353BCA9 		stp	x19, x20, [sp, -64]!
AARCH64 GAS  C:\Users\ldebo\AppData\Local\Temp\ccfW7LPV.s 			page 38


 2082 1b24 04018052 		mov	w4, 8
 2083 1b28 F40300AA 		mov	x20, x0
 2084 1b2c 06008052 		mov	w6, 0
 2085 1b30 65008052 		mov	w5, 3
 2086 1b34 E303042A 		mov	w3, w4
 2087 1b38 82008052 		mov	w2, 4
 2088 1b3c 6200A072 		movk	w2, 0x3, lsl 16
 2089 1b40 A1008052 		mov	w1, 5
 2090 1b44 E0A30091 		add	x0, sp, 40
 2091 1b48 FE0B00F9 		str	x30, [sp, 16]
 2092 1b4c FFFF02A9 		stp	xzr, xzr, [sp, 40]
 2093 1b50 FF3B00B9 		str	wzr, [sp, 56]
 2094 1b54 2BFDFF97 		bl	mailbox_tag_message.constprop.5
 2095 1b58 1F1C0072 		tst	w0, 255
 2096 1b5c E1000054 		bne	.L427
 2097              	.L429:
 2098 1b60 13008052 		mov	w19, 0
 2099              	.L428:
 2100 1b64 E003132A 		mov	w0, w19
 2101 1b68 FE0B40F9 		ldr	x30, [sp, 16]
 2102 1b6c F353C4A8 		ldp	x19, x20, [sp], 64
 2103 1b70 C0035FD6 		ret
 2104 1b74 1F2003D5 		.p2align 3
 2105              	.L427:
 2106 1b78 E63B40B9 		ldr	w6, [sp, 56]
 2107 1b7c 04018052 		mov	w4, 8
 2108 1b80 65008052 		mov	w5, 3
 2109 1b84 E303042A 		mov	w3, w4
 2110 1b88 42009052 		mov	w2, 32770
 2111 1b8c 6200A072 		movk	w2, 0x3, lsl 16
 2112 1b90 A1008052 		mov	w1, 5
 2113 1b94 E0A30091 		add	x0, sp, 40
 2114 1b98 1AFDFF97 		bl	mailbox_tag_message.constprop.5
 2115 1b9c 131C0072 		ands	w19, w0, 255
 2116 1ba0 00FEFF54 		beq	.L429
 2117 1ba4 14FEFFB4 		cbz	x20, .L428
 2118 1ba8 E13B40B9 		ldr	w1, [sp, 56]
 2119 1bac 00000090 		adrp	x0, .LC4
 2120 1bb0 00000091 		add	x0, x0, :lo12:.LC4
 2121 1bb4 80023FD6 		blr	x20
 2122 1bb8 E003132A 		mov	w0, w19
 2123 1bbc FE0B40F9 		ldr	x30, [sp, 16]
 2124 1bc0 F353C4A8 		ldp	x19, x20, [sp], 64
 2125 1bc4 C0035FD6 		ret
 2126              		.size	ARM_setmaxspeed, .-ARM_setmaxspeed
 2127              		.align	2
 2128 1bc8 1F2003D5 		.p2align 4,,15
 2128      1F2003D5 
 2129              		.global	displaySmartStart
 2130              		.type	displaySmartStart, %function
 2131              	displaySmartStart:
 2132 1bd0 C00600B4 		cbz	x0, .L437
 2133 1bd4 F37BBFA9 		stp	x19, x30, [sp, -16]!
 2134 1bd8 F30300AA 		mov	x19, x0
 2135 1bdc 00000090 		adrp	x0, RPi_CompileMode
 2136 1be0 03004039 		ldrb	w3, [x0, #:lo12:RPi_CompileMode]
 2137 1be4 00000090 		adrp	x0, .LC5
AARCH64 GAS  C:\Users\ldebo\AppData\Local\Temp\ccfW7LPV.s 			page 39


 2138 1be8 00000091 		add	x0, x0, :lo12:.LC5
 2139 1bec 610C0012 		and	w1, w3, 15
 2140 1bf0 621044D3 		ubfx	x2, x3, 4, 1
 2141 1bf4 631C45D3 		ubfx	x3, x3, 5, 3
 2142 1bf8 42040011 		add	w2, w2, 1
 2143 1bfc 42681B53 		lsl	w2, w2, 5
 2144 1c00 60023FD6 		blr	x19
 2145 1c04 00000090 		adrp	x0, RPi_CpuId
 2146 1c08 02004079 		ldrh	w2, [x0, #:lo12:RPi_CpuId]
 2147 1c0c 423C44D3 		ubfx	x2, x2, 4, 12
 2148 1c10 5F1C3071 		cmp	w2, 3079
 2149 1c14 60030054 		beq	.L440
 2150 1c18 5F0C3471 		cmp	w2, 3331
 2151 1c1c E0010054 		beq	.L441
 2152 1c20 03000090 		adrp	x3, RPi_CoresReady
 2153 1c24 E40313AA 		mov	x4, x19
 2154 1c28 F37BC1A8 		ldp	x19, x30, [sp], 16
 2155 1c2c 01000090 		adrp	x1, .LC3
 2156 1c30 20000091 		add	x0, x1, :lo12:.LC3
 2157 1c34 01000090 		adrp	x1, .LC0
 2158 1c38 21000091 		add	x1, x1, :lo12:.LC0
 2159 1c3c 630040B9 		ldr	w3, [x3, #:lo12:RPi_CoresReady]
 2160 1c40 5FD82D71 		cmp	w2, 2934
 2161 1c44 2100809A 		csel	x1, x1, x0, eq
 2162 1c48 00000090 		adrp	x0, .LC6
 2163 1c4c 00000091 		add	x0, x0, :lo12:.LC6
 2164 1c50 80001FD6 		br	x4
 2165 1c54 1F2003D5 		.p2align 3
 2166              	.L441:
 2167 1c58 03000090 		adrp	x3, RPi_CoresReady
 2168 1c5c E40313AA 		mov	x4, x19
 2169 1c60 F37BC1A8 		ldp	x19, x30, [sp], 16
 2170 1c64 01000090 		adrp	x1, .LC2
 2171 1c68 21000091 		add	x1, x1, :lo12:.LC2
 2172 1c6c 630040B9 		ldr	w3, [x3, #:lo12:RPi_CoresReady]
 2173 1c70 00000090 		adrp	x0, .LC6
 2174 1c74 00000091 		add	x0, x0, :lo12:.LC6
 2175 1c78 80001FD6 		br	x4
 2176 1c7c 1F2003D5 		.p2align 3
 2177              	.L440:
 2178 1c80 03000090 		adrp	x3, RPi_CoresReady
 2179 1c84 E40313AA 		mov	x4, x19
 2180 1c88 F37BC1A8 		ldp	x19, x30, [sp], 16
 2181 1c8c 01000090 		adrp	x1, .LC1
 2182 1c90 21000091 		add	x1, x1, :lo12:.LC1
 2183 1c94 630040B9 		ldr	w3, [x3, #:lo12:RPi_CoresReady]
 2184 1c98 00000090 		adrp	x0, .LC6
 2185 1c9c 00000091 		add	x0, x0, :lo12:.LC6
 2186 1ca0 80001FD6 		br	x4
 2187 1ca4 1F2003D5 		.p2align 3
 2188              	.L437:
 2189 1ca8 C0035FD6 		ret
 2190              		.size	displaySmartStart, .-displaySmartStart
 2191              		.align	2
 2192 1cac 1F2003D5 		.p2align 4,,15
 2193              		.global	Embedded_Console_WriteChar
 2194              		.type	Embedded_Console_WriteChar, %function
AARCH64 GAS  C:\Users\ldebo\AppData\Local\Temp\ccfW7LPV.s 			page 40


 2195              	Embedded_Console_WriteChar:
 2196 1cb0 011C0012 		and	w1, w0, 255
 2197 1cb4 3F280071 		cmp	w1, 10
 2198 1cb8 C0040054 		beq	.L449
 2199 1cbc 3F340071 		cmp	w1, 13
 2200 1cc0 00040054 		beq	.L450
 2201 1cc4 3F240071 		cmp	w1, 9
 2202 1cc8 40020054 		beq	.L457
 2203 1ccc F37BBFA9 		stp	x19, x30, [sp, -16]!
 2204 1cd0 13000090 		adrp	x19, .LANCHOR0
 2205 1cd4 73020091 		add	x19, x19, :lo12:.LANCHOR0
 2206 1cd8 73120091 		add	x19, x19, 4
 2207 1cdc E00313AA 		mov	x0, x19
 2208 1ce0 648E4329 		ldp	w4, w3, [x19, 28]
 2209 1ce4 650A4A29 		ldp	w5, w2, [x19, 80]
 2210 1ce8 84701D53 		lsl	w4, w4, 3
 2211 1cec 636C1C53 		lsl	w3, w3, 4
 2212 1cf0 648E0229 		stp	w4, w3, [x19, 20]
 2213 1cf4 A28002AA 		orr	x2, x5, x2, lsl 32
 2214 1cf8 40003FD6 		blr	x2
 2215 1cfc 601E40B9 		ldr	w0, [x19, 28]
 2216 1d00 00040011 		add	w0, w0, 1
 2217 1d04 601E00B9 		str	w0, [x19, 28]
 2218 1d08 F37BC1A8 		ldp	x19, x30, [sp], 16
 2219 1d0c C0035FD6 		ret
 2220              		.p2align 3
 2221              	.L457:
 2222 1d10 01000090 		adrp	x1, .LANCHOR0
 2223 1d14 21000091 		add	x1, x1, :lo12:.LANCHOR0
 2224 1d18 202040B9 		ldr	w0, [x1, 32]
 2225 1d1c 00140011 		add	w0, w0, 5
 2226 1d20 E203006B 		negs	w2, w0
 2227 1d24 03040012 		and	w3, w0, 3
 2228 1d28 42040012 		and	w2, w2, 3
 2229 1d2c 6244825A 		csneg	w2, w3, w2, mi
 2230 1d30 0000024B 		sub	w0, w0, w2
 2231 1d34 202000B9 		str	w0, [x1, 32]
 2232 1d38 C0035FD6 		ret
 2233 1d3c 1F2003D5 		.p2align 3
 2234              	.L450:
 2235 1d40 00000090 		adrp	x0, .LANCHOR0+32
 2236 1d44 1F0000B9 		str	wzr, [x0, #:lo12:.LANCHOR0+32]
 2237 1d48 C0035FD6 		ret
 2238 1d4c 1F2003D5 		.p2align 3
 2239              	.L449:
 2240 1d50 00000090 		adrp	x0, .LANCHOR0
 2241 1d54 00000091 		add	x0, x0, :lo12:.LANCHOR0
 2242 1d58 012440B9 		ldr	w1, [x0, 36]
 2243 1d5c 21040011 		add	w1, w1, 1
 2244 1d60 1F040429 		stp	wzr, w1, [x0, 32]
 2245 1d64 C0035FD6 		ret
 2246              		.size	Embedded_Console_WriteChar, .-Embedded_Console_WriteChar
 2247              		.align	2
 2248 1d68 1F2003D5 		.p2align 4,,15
 2248      1F2003D5 
 2249              		.global	WriteText
 2250              		.type	WriteText, %function
AARCH64 GAS  C:\Users\ldebo\AppData\Local\Temp\ccfW7LPV.s 			page 41


 2251              	WriteText:
 2252 1d70 C20700B4 		cbz	x2, .L475
 2253 1d74 F353BDA9 		stp	x19, x20, [sp, -48]!
 2254 1d78 E303002A 		mov	w3, w0
 2255 1d7c F30302AA 		mov	x19, x2
 2256 1d80 E00302AA 		mov	x0, x2
 2257 1d84 F50B00F9 		str	x21, [sp, 16]
 2258 1d88 15000090 		adrp	x21, .LANCHOR0
 2259 1d8c B5020091 		add	x21, x21, :lo12:.LANCHOR0
 2260 1d90 FE1300F9 		str	x30, [sp, 32]
 2261 1d94 A3060429 		stp	w3, w1, [x21, 32]
 2262 1d98 00000094 		bl	strlen
 2263 1d9c 600400B4 		cbz	x0, .L458
 2264 1da0 F60F00F9 		str	x22, [sp, 24]
 2265 1da4 7602008B 		add	x22, x19, x0
 2266 1da8 16000014 		b	.L465
 2267 1dac 1F2003D5 		.p2align 3
 2268              	.L480:
 2269 1db0 B4120091 		add	x20, x21, 4
 2270 1db4 E103022A 		mov	w1, w2
 2271 1db8 E00314AA 		mov	x0, x20
 2272 1dbc 5F340071 		cmp	w2, 13
 2273 1dc0 00050054 		beq	.L462
 2274 1dc4 5F240071 		cmp	w2, 9
 2275 1dc8 80030054 		beq	.L478
 2276 1dcc 848E4329 		ldp	w4, w3, [x20, 28]
 2277 1dd0 850A4A29 		ldp	w5, w2, [x20, 80]
 2278 1dd4 84701D53 		lsl	w4, w4, 3
 2279 1dd8 636C1C53 		lsl	w3, w3, 4
 2280 1ddc 848E0229 		stp	w4, w3, [x20, 20]
 2281 1de0 A28002AA 		orr	x2, x5, x2, lsl 32
 2282 1de4 40003FD6 		blr	x2
 2283 1de8 801E40B9 		ldr	w0, [x20, 28]
 2284 1dec 00040011 		add	w0, w0, 1
 2285 1df0 801E00B9 		str	w0, [x20, 28]
 2286              	.L464:
 2287 1df4 73060091 		add	x19, x19, 1
 2288 1df8 DF0213EB 		cmp	x22, x19
 2289 1dfc 40010054 		beq	.L479
 2290              	.L465:
 2291 1e00 62024039 		ldrb	w2, [x19]
 2292 1e04 5F280071 		cmp	w2, 10
 2293 1e08 41FDFF54 		bne	.L480
 2294 1e0c A12640B9 		ldr	w1, [x21, 36]
 2295 1e10 73060091 		add	x19, x19, 1
 2296 1e14 DF0213EB 		cmp	x22, x19
 2297 1e18 21040011 		add	w1, w1, 1
 2298 1e1c BF060429 		stp	wzr, w1, [x21, 32]
 2299 1e20 01FFFF54 		bne	.L465
 2300              	.L479:
 2301 1e24 F60F40F9 		ldr	x22, [sp, 24]
 2302              	.L458:
 2303 1e28 F50B40F9 		ldr	x21, [sp, 16]
 2304 1e2c FE1340F9 		ldr	x30, [sp, 32]
 2305 1e30 F353C3A8 		ldp	x19, x20, [sp], 48
 2306 1e34 C0035FD6 		ret
 2307              		.p2align 3
AARCH64 GAS  C:\Users\ldebo\AppData\Local\Temp\ccfW7LPV.s 			page 42


 2308              	.L478:
 2309 1e38 A12240B9 		ldr	w1, [x21, 32]
 2310 1e3c 21140011 		add	w1, w1, 5
 2311 1e40 E003016B 		negs	w0, w1
 2312 1e44 23040012 		and	w3, w1, 3
 2313 1e48 00040012 		and	w0, w0, 3
 2314 1e4c 6044805A 		csneg	w0, w3, w0, mi
 2315 1e50 2100004B 		sub	w1, w1, w0
 2316 1e54 A12200B9 		str	w1, [x21, 32]
 2317 1e58 E7FFFF17 		b	.L464
 2318 1e5c 1F2003D5 		.p2align 3
 2319              	.L462:
 2320 1e60 BF2200B9 		str	wzr, [x21, 32]
 2321 1e64 E4FFFF17 		b	.L464
 2322              		.p2align 3
 2323              	.L475:
 2324 1e68 C0035FD6 		ret
 2325              		.size	WriteText, .-WriteText
 2326              		.align	2
 2327 1e6c 1F2003D5 		.p2align 4,,15
 2328              		.global	SetDCPenColor
 2329              		.type	SetDCPenColor, %function
 2330              	SetDCPenColor:
 2331 1e70 02008052 		mov	w2, 0
 2332 1e74 600000B4 		cbz	x0, .L481
 2333 1e78 022440B9 		ldr	w2, [x0, 36]
 2334 1e7c 012400B9 		str	w1, [x0, 36]
 2335              	.L481:
 2336 1e80 E003022A 		mov	w0, w2
 2337 1e84 C0035FD6 		ret
 2338              		.size	SetDCPenColor, .-SetDCPenColor
 2339              		.align	2
 2340 1e88 1F2003D5 		.p2align 4,,15
 2340      1F2003D5 
 2341              		.global	SetDCBrushColor
 2342              		.type	SetDCBrushColor, %function
 2343              	SetDCBrushColor:
 2344 1e90 02008052 		mov	w2, 0
 2345 1e94 600000B4 		cbz	x0, .L484
 2346 1e98 022C40B9 		ldr	w2, [x0, 44]
 2347 1e9c 012C00B9 		str	w1, [x0, 44]
 2348              	.L484:
 2349 1ea0 E003022A 		mov	w0, w2
 2350 1ea4 C0035FD6 		ret
 2351              		.size	SetDCBrushColor, .-SetDCBrushColor
 2352              		.align	2
 2353 1ea8 1F2003D5 		.p2align 4,,15
 2353      1F2003D5 
 2354              		.global	MoveToEx
 2355              		.type	MoveToEx, %function
 2356              	MoveToEx:
 2357 1eb0 400100B4 		cbz	x0, .L490
 2358 1eb4 A30000B4 		cbz	x3, .L489
 2359 1eb8 041440B9 		ldr	w4, [x0, 20]
 2360 1ebc 640000B9 		str	w4, [x3]
 2361 1ec0 041840B9 		ldr	w4, [x0, 24]
 2362 1ec4 640400B9 		str	w4, [x3, 4]
AARCH64 GAS  C:\Users\ldebo\AppData\Local\Temp\ccfW7LPV.s 			page 43


 2363              	.L489:
 2364 1ec8 01880229 		stp	w1, w2, [x0, 20]
 2365 1ecc 20008052 		mov	w0, 1
 2366 1ed0 C0035FD6 		ret
 2367 1ed4 1F2003D5 		.p2align 3
 2368              	.L490:
 2369 1ed8 00008052 		mov	w0, 0
 2370 1edc C0035FD6 		ret
 2371              		.size	MoveToEx, .-MoveToEx
 2372              		.align	2
 2373              		.p2align 4,,15
 2374              		.global	LineTo
 2375              		.type	LineTo, %function
 2376              	LineTo:
 2377 1ee0 800300B4 		cbz	x0, .L502
 2378 1ee4 FE0F1FF8 		str	x30, [sp, -16]!
 2379 1ee8 051440B9 		ldr	w5, [x0, 20]
 2380 1eec BF00016B 		cmp	w5, w1
 2381 1ef0 0C020054 		bgt	.L507
 2382 1ef4 2500054B 		sub	w5, w1, w5
 2383 1ef8 011840B9 		ldr	w1, [x0, 24]
 2384 1efc 23008052 		mov	w3, 1
 2385 1f00 3F00026B 		cmp	w1, w2
 2386 1f04 0D020054 		ble	.L498
 2387              	.L508:
 2388 1f08 2100024B 		sub	w1, w1, w2
 2389 1f0c 02008012 		mov	w2, -1
 2390              	.L499:
 2391 1f10 45020035 		cbnz	w5, .L500
 2392 1f14 040C4729 		ldp	w4, w3, [x0, 56]
 2393 1f18 838003AA 		orr	x3, x4, x3, lsl 32
 2394 1f1c 60003FD6 		blr	x3
 2395 1f20 20008052 		mov	w0, 1
 2396              	.L494:
 2397 1f24 FE0741F8 		ldr	x30, [sp], 16
 2398 1f28 C0035FD6 		ret
 2399 1f2c 1F2003D5 		.p2align 3
 2400              	.L507:
 2401 1f30 A500014B 		sub	w5, w5, w1
 2402 1f34 011840B9 		ldr	w1, [x0, 24]
 2403 1f38 03008012 		mov	w3, -1
 2404 1f3c 3F00026B 		cmp	w1, w2
 2405 1f40 4CFEFF54 		bgt	.L508
 2406              	.L498:
 2407 1f44 4100014B 		sub	w1, w2, w1
 2408 1f48 22008052 		mov	w2, 1
 2409 1f4c F1FFFF17 		b	.L499
 2410              		.p2align 3
 2411              	.L502:
 2412 1f50 00008052 		mov	w0, 0
 2413 1f54 C0035FD6 		ret
 2414              		.p2align 3
 2415              	.L500:
 2416 1f58 41010034 		cbz	w1, .L509
 2417 1f5c 07184929 		ldp	w7, w6, [x0, 72]
 2418 1f60 E403022A 		mov	w4, w2
 2419 1f64 E203012A 		mov	w2, w1
AARCH64 GAS  C:\Users\ldebo\AppData\Local\Temp\ccfW7LPV.s 			page 44


 2420 1f68 E103052A 		mov	w1, w5
 2421 1f6c E58006AA 		orr	x5, x7, x6, lsl 32
 2422 1f70 A0003FD6 		blr	x5
 2423 1f74 20008052 		mov	w0, 1
 2424 1f78 EBFFFF17 		b	.L494
 2425 1f7c 1F2003D5 		.p2align 3
 2426              	.L509:
 2427 1f80 06104829 		ldp	w6, w4, [x0, 64]
 2428 1f84 E203032A 		mov	w2, w3
 2429 1f88 E103052A 		mov	w1, w5
 2430 1f8c C38004AA 		orr	x3, x6, x4, lsl 32
 2431 1f90 60003FD6 		blr	x3
 2432 1f94 20008052 		mov	w0, 1
 2433 1f98 E3FFFF17 		b	.L494
 2434              		.size	LineTo, .-LineTo
 2435              		.align	2
 2436 1f9c 1F2003D5 		.p2align 4,,15
 2437              		.global	TextOut
 2438              		.type	TextOut, %function
 2439              	TextOut:
 2440 1fa0 9F000071 		cmp	w4, 0
 2441 1fa4 641840FA 		ccmp	x3, 0, 4, ne
 2442 1fa8 00040054 		beq	.L518
 2443 1fac F353BDA9 		stp	x19, x20, [sp, -48]!
 2444 1fb0 9F000071 		cmp	w4, 0
 2445 1fb4 F55B01A9 		stp	x21, x22, [sp, 16]
 2446 1fb8 F503012A 		mov	w21, w1
 2447 1fbc FE1700F9 		str	x30, [sp, 40]
 2448 1fc0 F603022A 		mov	w22, w2
 2449 1fc4 6D020054 		ble	.L514
 2450 1fc8 84040051 		sub	w4, w4, #1
 2451 1fcc 13000090 		adrp	x19, .LANCHOR0
 2452 1fd0 73020091 		add	x19, x19, :lo12:.LANCHOR0
 2453 1fd4 F71300F9 		str	x23, [sp, 32]
 2454 1fd8 77040091 		add	x23, x3, 1
 2455 1fdc F40303AA 		mov	x20, x3
 2456 1fe0 73120091 		add	x19, x19, 4
 2457 1fe4 F702048B 		add	x23, x23, x4
 2458              		.p2align 3
 2459              	.L513:
 2460 1fe8 75DA0229 		stp	w21, w22, [x19, 20]
 2461 1fec E00313AA 		mov	x0, x19
 2462 1ff0 630A4A29 		ldp	w3, w2, [x19, 80]
 2463 1ff4 B5220011 		add	w21, w21, 8
 2464 1ff8 81164038 		ldrb	w1, [x20], 1
 2465 1ffc 628002AA 		orr	x2, x3, x2, lsl 32
 2466 2000 40003FD6 		blr	x2
 2467 2004 9F0217EB 		cmp	x20, x23
 2468 2008 01FFFF54 		bne	.L513
 2469 200c F71340F9 		ldr	x23, [sp, 32]
 2470              	.L514:
 2471 2010 20008052 		mov	w0, 1
 2472 2014 FE1740F9 		ldr	x30, [sp, 40]
 2473 2018 F55B41A9 		ldp	x21, x22, [sp, 16]
 2474 201c F353C3A8 		ldp	x19, x20, [sp], 48
 2475 2020 C0035FD6 		ret
 2476 2024 1F2003D5 		.p2align 3
AARCH64 GAS  C:\Users\ldebo\AppData\Local\Temp\ccfW7LPV.s 			page 45


 2477              	.L518:
 2478 2028 00008052 		mov	w0, 0
 2479 202c C0035FD6 		ret
 2480              		.size	TextOut, .-TextOut
 2481              		.align	2
 2482              		.p2align 4,,15
 2483              		.global	TransparentTextOut
 2484              		.type	TransparentTextOut, %function
 2485              	TransparentTextOut:
 2486 2030 420300B4 		cbz	x2, .L527
 2487 2034 F353BDA9 		stp	x19, x20, [sp, -48]!
 2488 2038 13000090 		adrp	x19, .LANCHOR0
 2489 203c 73020091 		add	x19, x19, :lo12:.LANCHOR0
 2490 2040 F55B01A9 		stp	x21, x22, [sp, 16]
 2491 2044 F503002A 		mov	w21, w0
 2492 2048 FE1300F9 		str	x30, [sp, 32]
 2493 204c F603012A 		mov	w22, w1
 2494 2050 F40302AA 		mov	x20, x2
 2495 2054 73120091 		add	x19, x19, 4
 2496 2058 40004039 		ldrb	w0, [x2]
 2497 205c 40010034 		cbz	w0, .L526
 2498              		.p2align 3
 2499              	.L525:
 2500 2060 75DA0229 		stp	w21, w22, [x19, 20]
 2501 2064 E00313AA 		mov	x0, x19
 2502 2068 620E4B29 		ldp	w2, w3, [x19, 88]
 2503 206c B5220011 		add	w21, w21, 8
 2504 2070 81164038 		ldrb	w1, [x20], 1
 2505 2074 438003AA 		orr	x3, x2, x3, lsl 32
 2506 2078 60003FD6 		blr	x3
 2507 207c 80024039 		ldrb	w0, [x20]
 2508 2080 00FFFF35 		cbnz	w0, .L525
 2509              	.L526:
 2510 2084 20008052 		mov	w0, 1
 2511 2088 FE1340F9 		ldr	x30, [sp, 32]
 2512 208c F55B41A9 		ldp	x21, x22, [sp, 16]
 2513 2090 F353C3A8 		ldp	x19, x20, [sp], 48
 2514 2094 C0035FD6 		ret
 2515              		.p2align 3
 2516              	.L527:
 2517 2098 00008052 		mov	w0, 0
 2518 209c C0035FD6 		ret
 2519              		.size	TransparentTextOut, .-TransparentTextOut
 2520              		.align	2
 2521              		.p2align 4,,15
 2522              		.global	BmpOut
 2523              		.type	BmpOut, %function
 2524              	BmpOut:
 2525 20a0 000200B4 		cbz	x0, .L537
 2526 20a4 FE0F1FF8 		str	x30, [sp, -16]!
 2527 20a8 4700040B 		add	w7, w2, w4
 2528 20ac E903032A 		mov	w9, w3
 2529 20b0 E30305AA 		mov	x3, x5
 2530 20b4 02144C29 		ldp	w2, w5, [x0, 96]
 2531 20b8 E803042A 		mov	w8, w4
 2532 20bc 019C0229 		stp	w1, w7, [x0, 20]
 2533 20c0 24008052 		mov	w4, 1
AARCH64 GAS  C:\Users\ldebo\AppData\Local\Temp\ccfW7LPV.s 			page 46


 2534 20c4 E103092A 		mov	w1, w9
 2535 20c8 458005AA 		orr	x5, x2, x5, lsl 32
 2536 20cc E203082A 		mov	w2, w8
 2537 20d0 A0003FD6 		blr	x5
 2538 20d4 20008052 		mov	w0, 1
 2539 20d8 FE0741F8 		ldr	x30, [sp], 16
 2540 20dc C0035FD6 		ret
 2541              		.p2align 3
 2542              	.L537:
 2543 20e0 00008052 		mov	w0, 0
 2544 20e4 C0035FD6 		ret
 2545              		.size	BmpOut, .-BmpOut
 2546              		.align	2
 2547 20e8 1F2003D5 		.p2align 4,,15
 2547      1F2003D5 
 2548              		.global	CvtBmpLine
 2549              		.type	CvtBmpLine, %function
 2550              	CvtBmpLine:
 2551 20f0 800600B4 		cbz	x0, .L561
 2552 20f4 100282D2 		mov	x16, 4112
 2553 20f8 FF6330CB 		sub	sp, sp, x16
 2554 20fc FE0300F9 		str	x30, [sp]
 2555 2100 01880229 		stp	w1, w2, [x0, 20]
 2556 2104 061040B9 		ldr	w6, [x0, 16]
 2557 2108 DF00046B 		cmp	w6, w4
 2558 210c 20040054 		beq	.L545
 2559 2110 DF600071 		cmp	w6, 24
 2560 2114 20080054 		beq	.L546
 2561 2118 DF800071 		cmp	w6, 32
 2562 211c 60050054 		beq	.L547
 2563 2120 DF400071 		cmp	w6, 16
 2564 2124 61030054 		bne	.L545
 2565 2128 9F600071 		cmp	w4, 24
 2566 212c A0090054 		beq	.L549
 2567 2130 03030034 		cbz	w3, .L545
 2568 2134 68040051 		sub	w8, w3, #1
 2569 2138 E1430091 		add	x1, sp, 16
 2570 213c A848288B 		add	x8, x5, x8, uxtw 2
 2571 2140 08110091 		add	x8, x8, 4
 2572 2144 1F2003D5 		.p2align 3
 2573              	.L552:
 2574 2148 A2084039 		ldrb	w2, [x5, 2]
 2575 214c 21080091 		add	x1, x1, 2
 2576 2150 A4044039 		ldrb	w4, [x5, 1]
 2577 2154 A6444038 		ldrb	w6, [x5], 4
 2578 2158 27E05F38 		ldrb	w7, [x1, -2]
 2579 215c 427C0353 		lsr	w2, w2, 3
 2580 2160 847C0253 		lsr	w4, w4, 2
 2581 2164 1F0105EB 		cmp	x8, x5
 2582 2168 C67C0353 		lsr	w6, w6, 3
 2583 216c C7100033 		bfi	w7, w6, 0, 5
 2584 2170 27E01F38 		strb	w7, [x1, -2]
 2585 2174 26E05F78 		ldrh	w6, [x1, -2]
 2586 2178 86141B33 		bfi	w6, w4, 5, 6
 2587 217c 26E01F78 		strh	w6, [x1, -2]
 2588 2180 24F05F38 		ldrb	w4, [x1, -1]
 2589 2184 44101D33 		bfi	w4, w2, 3, 5
AARCH64 GAS  C:\Users\ldebo\AppData\Local\Temp\ccfW7LPV.s 			page 47


 2590 2188 24F01F38 		strb	w4, [x1, -1]
 2591 218c E1FDFF54 		bne	.L552
 2592              	.L545:
 2593 2190 06144C29 		ldp	w6, w5, [x0, 96]
 2594 2194 E103032A 		mov	w1, w3
 2595 2198 24008052 		mov	w4, 1
 2596 219c E3430091 		add	x3, sp, 16
 2597 21a0 22008052 		mov	w2, 1
 2598 21a4 C58005AA 		orr	x5, x6, x5, lsl 32
 2599 21a8 A0003FD6 		blr	x5
 2600 21ac FE0340F9 		ldr	x30, [sp]
 2601 21b0 20008052 		mov	w0, 1
 2602 21b4 100282D2 		mov	x16, 4112
 2603 21b8 FF63308B 		add	sp, sp, x16
 2604 21bc C0035FD6 		ret
 2605              		.p2align 3
 2606              	.L561:
 2607 21c0 00008052 		mov	w0, 0
 2608 21c4 C0035FD6 		ret
 2609              		.p2align 3
 2610              	.L547:
 2611 21c8 9F400071 		cmp	w4, 16
 2612 21cc 200B0054 		beq	.L557
 2613 21d0 03FEFF34 		cbz	w3, .L545
 2614 21d4 64040051 		sub	w4, w3, #1
 2615 21d8 E10305AA 		mov	x1, x5
 2616 21dc 84040091 		add	x4, x4, 1
 2617 21e0 E2430091 		add	x2, sp, 16
 2618 21e4 8404048B 		add	x4, x4, x4, lsl 1
 2619 21e8 A500048B 		add	x5, x5, x4
 2620 21ec 1F2003D5 		.p2align 3
 2621              	.L560:
 2622 21f0 210C0091 		add	x1, x1, 3
 2623 21f4 24D05F38 		ldrb	w4, [x1, -3]
 2624 21f8 44440038 		strb	w4, [x2], 4
 2625 21fc BF0001EB 		cmp	x5, x1
 2626 2200 26E05F38 		ldrb	w6, [x1, -2]
 2627 2204 24F05F38 		ldrb	w4, [x1, -1]
 2628 2208 46D01F38 		strb	w6, [x2, -3]
 2629 220c 44E01F38 		strb	w4, [x2, -2]
 2630 2210 01FFFF54 		bne	.L560
 2631 2214 DFFFFF17 		b	.L545
 2632              		.p2align 3
 2633              	.L546:
 2634 2218 9F400071 		cmp	w4, 16
 2635 221c A0050054 		beq	.L553
 2636 2220 83FBFF34 		cbz	w3, .L545
 2637 2224 62040051 		sub	w2, w3, #1
 2638 2228 E1430091 		add	x1, sp, 16
 2639 222c 42040091 		add	x2, x2, 1
 2640 2230 4204028B 		add	x2, x2, x2, lsl 1
 2641 2234 2200028B 		add	x2, x1, x2
 2642              		.p2align 3
 2643              	.L556:
 2644 2238 A5100091 		add	x5, x5, 4
 2645 223c A4C05F38 		ldrb	w4, [x5, -4]
 2646 2240 24340038 		strb	w4, [x1], 3
AARCH64 GAS  C:\Users\ldebo\AppData\Local\Temp\ccfW7LPV.s 			page 48


 2647 2244 A6D05F38 		ldrb	w6, [x5, -3]
 2648 2248 A4E05F38 		ldrb	w4, [x5, -2]
 2649 224c 3F0002EB 		cmp	x1, x2
 2650 2250 26E01F38 		strb	w6, [x1, -2]
 2651 2254 24F01F38 		strb	w4, [x1, -1]
 2652 2258 01FFFF54 		bne	.L556
 2653 225c CDFFFF17 		b	.L545
 2654              		.p2align 3
 2655              	.L549:
 2656 2260 83F9FF34 		cbz	w3, .L545
 2657 2264 64040051 		sub	w4, w3, #1
 2658 2268 E20305AA 		mov	x2, x5
 2659 226c 84040091 		add	x4, x4, 1
 2660 2270 E1430091 		add	x1, sp, 16
 2661 2274 8404048B 		add	x4, x4, x4, lsl 1
 2662 2278 A500048B 		add	x5, x5, x4
 2663 227c 1F2003D5 		.p2align 3
 2664              	.L551:
 2665 2280 420C0091 		add	x2, x2, 3
 2666 2284 47D05F38 		ldrb	w7, [x2, -3]
 2667 2288 28004039 		ldrb	w8, [x1]
 2668 228c 21080091 		add	x1, x1, 2
 2669 2290 46E05F38 		ldrb	w6, [x2, -2]
 2670 2294 5F0005EB 		cmp	x2, x5
 2671 2298 E77C0353 		lsr	w7, w7, 3
 2672 229c 44F05F38 		ldrb	w4, [x2, -1]
 2673 22a0 E8100033 		bfi	w8, w7, 0, 5
 2674 22a4 28E01F38 		strb	w8, [x1, -2]
 2675 22a8 C67C0253 		lsr	w6, w6, 2
 2676 22ac 847C0353 		lsr	w4, w4, 3
 2677 22b0 27E05F78 		ldrh	w7, [x1, -2]
 2678 22b4 C7141B33 		bfi	w7, w6, 5, 6
 2679 22b8 27E01F78 		strh	w7, [x1, -2]
 2680 22bc 26F05F38 		ldrb	w6, [x1, -1]
 2681 22c0 86101D33 		bfi	w6, w4, 3, 5
 2682 22c4 26F01F38 		strb	w6, [x1, -1]
 2683 22c8 C1FDFF54 		bne	.L551
 2684 22cc B1FFFF17 		b	.L545
 2685              		.p2align 3
 2686              	.L553:
 2687 22d0 03F6FF34 		cbz	w3, .L545
 2688 22d4 67040051 		sub	w7, w3, #1
 2689 22d8 E4430091 		add	x4, sp, 16
 2690 22dc E7040091 		add	x7, x7, 1
 2691 22e0 E704078B 		add	x7, x7, x7, lsl 1
 2692 22e4 8700078B 		add	x7, x4, x7
 2693              		.p2align 3
 2694              	.L555:
 2695 22e8 A6004039 		ldrb	w6, [x5]
 2696 22ec A5080091 		add	x5, x5, 2
 2697 22f0 A1F05F38 		ldrb	w1, [x5, -1]
 2698 22f4 E20301AA 		mov	x2, x1
 2699 22f8 C81C45D3 		ubfx	x8, x6, 5, 3
 2700 22fc 21087DD3 		ubfiz	x1, x1, 3, 3
 2701 2300 C6101D53 		ubfiz	w6, w6, 3, 5
 2702 2304 86340038 		strb	w6, [x4], 3
 2703 2308 421C43D3 		ubfx	x2, x2, 3, 5
AARCH64 GAS  C:\Users\ldebo\AppData\Local\Temp\ccfW7LPV.s 			page 49


 2704 230c 210008AA 		orr	x1, x1, x8
 2705 2310 42101D53 		ubfiz	w2, w2, 3, 5
 2706 2314 21141E53 		ubfiz	w1, w1, 2, 6
 2707 2318 81E01F38 		strb	w1, [x4, -2]
 2708 231c 82F01F38 		strb	w2, [x4, -1]
 2709 2320 9F0007EB 		cmp	x4, x7
 2710 2324 21FEFF54 		bne	.L555
 2711 2328 9AFFFF17 		b	.L545
 2712 232c 1F2003D5 		.p2align 3
 2713              	.L557:
 2714 2330 03F3FF34 		cbz	w3, .L545
 2715 2334 61040051 		sub	w1, w3, #1
 2716 2338 E8530091 		add	x8, sp, 20
 2717 233c E2430091 		add	x2, sp, 16
 2718 2340 0849218B 		add	x8, x8, x1, uxtw 2
 2719 2344 1F2003D5 		.p2align 3
 2720              	.L559:
 2721 2348 A6004039 		ldrb	w6, [x5]
 2722 234c 42100091 		add	x2, x2, 4
 2723 2350 A1044039 		ldrb	w1, [x5, 1]
 2724 2354 1F0102EB 		cmp	x8, x2
 2725 2358 A5080091 		add	x5, x5, 2
 2726 235c E40301AA 		mov	x4, x1
 2727 2360 C71C45D3 		ubfx	x7, x6, 5, 3
 2728 2364 21087DD3 		ubfiz	x1, x1, 3, 3
 2729 2368 C6101D53 		ubfiz	w6, w6, 3, 5
 2730 236c 841C43D3 		ubfx	x4, x4, 3, 5
 2731 2370 210007AA 		orr	x1, x1, x7
 2732 2374 84101D53 		ubfiz	w4, w4, 3, 5
 2733 2378 21141E53 		ubfiz	w1, w1, 2, 6
 2734 237c 46C01F38 		strb	w6, [x2, -4]
 2735 2380 41D01F38 		strb	w1, [x2, -3]
 2736 2384 44E01F38 		strb	w4, [x2, -2]
 2737 2388 01FEFF54 		bne	.L559
 2738 238c 81FFFF17 		b	.L545
 2739              		.size	CvtBmpLine, .-CvtBmpLine
 2740              		.align	2
 2741              		.p2align 4,,15
 2742              		.global	Rectangle
 2743              		.type	Rectangle, %function
 2744              	Rectangle:
 2745 2390 000100B4 		cbz	x0, .L583
 2746 2394 FE0F1FF8 		str	x30, [sp, -16]!
 2747 2398 06144629 		ldp	w6, w5, [x0, 48]
 2748 239c C58005AA 		orr	x5, x6, x5, lsl 32
 2749 23a0 A0003FD6 		blr	x5
 2750 23a4 20008052 		mov	w0, 1
 2751 23a8 FE0741F8 		ldr	x30, [sp], 16
 2752 23ac C0035FD6 		ret
 2753              		.p2align 3
 2754              	.L583:
 2755 23b0 00008052 		mov	w0, 0
 2756 23b4 C0035FD6 		ret
 2757              		.size	Rectangle, .-Rectangle
 2758              		.align	2
 2759 23b8 1F2003D5 		.p2align 4,,15
 2759      1F2003D5 
AARCH64 GAS  C:\Users\ldebo\AppData\Local\Temp\ccfW7LPV.s 			page 50


 2760              		.global	PiConsole_Init
 2761              		.type	PiConsole_Init, %function
 2762              	PiConsole_Init:
 2763 23c0 FFC303D1 		sub	sp, sp, #240
 2764 23c4 1F000071 		cmp	w0, 0
 2765 23c8 2418407A 		ccmp	w1, 0, 4, ne
 2766 23cc F35307A9 		stp	x19, x20, [sp, 112]
 2767 23d0 F303002A 		mov	w19, w0
 2768 23d4 F55B08A9 		stp	x21, x22, [sp, 128]
 2769 23d8 F403012A 		mov	w20, w1
 2770 23dc F77B09A9 		stp	x23, x30, [sp, 144]
 2771 23e0 F503022A 		mov	w21, w2
 2772 23e4 F70303AA 		mov	x23, x3
 2773 23e8 80060054 		beq	.L613
 2774              	.L589:
 2775 23ec 95010035 		cbnz	w21, .L593
 2776              	.L615:
 2777 23f0 84008052 		mov	w4, 4
 2778 23f4 05008052 		mov	w5, 0
 2779 23f8 E303042A 		mov	w3, w4
 2780 23fc A2008052 		mov	w2, 5
 2781 2400 8200A072 		movk	w2, 0x4, lsl 16
 2782 2404 E103042A 		mov	w1, w4
 2783 2408 E0830291 		add	x0, sp, 160
 2784 240c 51FBFF97 		bl	mailbox_tag_message.constprop.6
 2785 2410 1F1C0072 		tst	w0, 255
 2786 2414 40040054 		beq	.L594
 2787 2418 F5AF40B9 		ldr	w21, [sp, 172]
 2788              	.L593:
 2789 241c 80008052 		mov	w0, 4
 2790 2420 01028052 		mov	w1, 16
 2791 2424 04018052 		mov	w4, 8
 2792 2428 E40300B9 		str	w4, [sp]
 2793 242c E40B00B9 		str	w4, [sp, 8]
 2794 2430 87009052 		mov	w7, 32772
 2795 2434 8700A072 		movk	w7, 0x4, lsl 16
 2796 2438 F31300B9 		str	w19, [sp, 16]
 2797 243c E603142A 		mov	w6, w20
 2798 2440 F41B00B9 		str	w20, [sp, 24]
 2799 2444 E503132A 		mov	w5, w19
 2800 2448 E02B00B9 		str	w0, [sp, 40]
 2801 244c E303042A 		mov	w3, w4
 2802 2450 E03300B9 		str	w0, [sp, 48]
 2803 2454 62009052 		mov	w2, 32771
 2804 2458 8200A072 		movk	w2, 0x4, lsl 16
 2805 245c F53B00B9 		str	w21, [sp, 56]
 2806 2460 E44B00B9 		str	w4, [sp, 72]
 2807 2464 E05300B9 		str	w0, [sp, 80]
 2808 2468 A0009052 		mov	w0, 32773
 2809 246c 8000A072 		movk	w0, 0x4, lsl 16
 2810 2470 E02300B9 		str	w0, [sp, 32]
 2811 2474 E15B00B9 		str	w1, [sp, 88]
 2812 2478 21008052 		mov	w1, 1
 2813 247c 8100A072 		movk	w1, 0x4, lsl 16
 2814 2480 E14300B9 		str	w1, [sp, 64]
 2815 2484 FF6300B9 		str	wzr, [sp, 96]
 2816 2488 61028052 		mov	w1, 19
AARCH64 GAS  C:\Users\ldebo\AppData\Local\Temp\ccfW7LPV.s 			page 51


 2817 248c E0830291 		add	x0, sp, 160
 2818 2490 40FAFF97 		bl	mailbox_tag_message.constprop.7
 2819 2494 161C0072 		ands	w22, w0, 255
 2820 2498 41030054 		bne	.L614
 2821              	.L594:
 2822 249c 16008052 		mov	w22, 0
 2823              	.L591:
 2824 24a0 E003162A 		mov	w0, w22
 2825 24a4 F35347A9 		ldp	x19, x20, [sp, 112]
 2826 24a8 F55B48A9 		ldp	x21, x22, [sp, 128]
 2827 24ac F77B49A9 		ldp	x23, x30, [sp, 144]
 2828 24b0 FFC30391 		add	sp, sp, 240
 2829 24b4 C0035FD6 		ret
 2830              		.p2align 3
 2831              	.L613:
 2832 24b8 06008052 		mov	w6, 0
 2833 24bc 05008052 		mov	w5, 0
 2834 24c0 04008052 		mov	w4, 0
 2835 24c4 03018052 		mov	w3, 8
 2836 24c8 62008052 		mov	w2, 3
 2837 24cc 8200A072 		movk	w2, 0x4, lsl 16
 2838 24d0 A1008052 		mov	w1, 5
 2839 24d4 E0830291 		add	x0, sp, 160
 2840 24d8 CAFAFF97 		bl	mailbox_tag_message.constprop.5
 2841 24dc 1F1C0072 		tst	w0, 255
 2842 24e0 E0FDFF54 		beq	.L594
 2843 24e4 73000035 		cbnz	w19, .L592
 2844 24e8 F3AF40B9 		ldr	w19, [sp, 172]
 2845 24ec 14F8FF35 		cbnz	w20, .L589
 2846              		.p2align 3
 2847              	.L592:
 2848 24f0 F4B340B9 		ldr	w20, [sp, 176]
 2849 24f4 55F9FF35 		cbnz	w21, .L593
 2850 24f8 BEFFFF17 		b	.L615
 2851 24fc 1F2003D5 		.p2align 3
 2852              	.L614:
 2853 2500 E0E740B9 		ldr	w0, [sp, 228]
 2854 2504 00000094 		bl	GPUaddrToARMaddr
 2855 2508 E003002A 		uxtw	x0, w0
 2856 250c 02000090 		adrp	x2, .LANCHOR0
 2857 2510 42000091 		add	x2, x2, :lo12:.LANCHOR0
 2858 2514 41100091 		add	x1, x2, 4
 2859 2518 04008012 		mov	w4, -1
 2860 251c E39F0832 		mov	w3, -16711936
 2861 2520 BF620071 		cmp	w21, 24
 2862 2524 400400B9 		str	w0, [x2, 4]
 2863 2528 3FCC0029 		stp	wzr, w19, [x1, 4]
 2864 252c 34D40129 		stp	w20, w21, [x1, 12]
 2865 2530 24FC0429 		stp	w4, wzr, [x1, 36]
 2866 2534 232C00B9 		str	w3, [x1, 44]
 2867 2538 40020054 		beq	.L596
 2868 253c BF820071 		cmp	w21, 32
 2869 2540 C0070054 		beq	.L597
 2870 2544 BF420071 		cmp	w21, 16
 2871 2548 80050054 		beq	.L616
 2872              	.L595:
 2873 254c B7FAFFB4 		cbz	x23, .L591
AARCH64 GAS  C:\Users\ldebo\AppData\Local\Temp\ccfW7LPV.s 			page 52


 2874 2550 E303152A 		mov	w3, w21
 2875 2554 E203142A 		mov	w2, w20
 2876 2558 E103132A 		mov	w1, w19
 2877 255c 00000090 		adrp	x0, .LC7
 2878 2560 00000091 		add	x0, x0, :lo12:.LC7
 2879 2564 E0023FD6 		blr	x23
 2880 2568 E003162A 		mov	w0, w22
 2881 256c F35347A9 		ldp	x19, x20, [sp, 112]
 2882 2570 F55B48A9 		ldp	x21, x22, [sp, 128]
 2883 2574 F77B49A9 		ldp	x23, x30, [sp, 144]
 2884 2578 FFC30391 		add	sp, sp, 240
 2885 257c C0035FD6 		ret
 2886              		.p2align 3
 2887              	.L596:
 2888 2580 07000090 		adrp	x7, ClearArea24
 2889 2584 E7000091 		add	x7, x7, :lo12:ClearArea24
 2890 2588 06000090 		adrp	x6, VertLine24
 2891 258c C6000091 		add	x6, x6, :lo12:VertLine24
 2892 2590 05000090 		adrp	x5, HorzLine24
 2893 2594 A5000091 		add	x5, x5, :lo12:HorzLine24
 2894 2598 04000090 		adrp	x4, DiagLine24
 2895 259c 84000091 		add	x4, x4, :lo12:DiagLine24
 2896 25a0 03000090 		adrp	x3, WriteChar24
 2897 25a4 63000091 		add	x3, x3, :lo12:WriteChar24
 2898 25a8 02000090 		adrp	x2, TransparentWriteChar24
 2899 25ac 42000091 		add	x2, x2, :lo12:TransparentWriteChar24
 2900 25b0 00000090 		adrp	x0, PutImage24
 2901 25b4 00000091 		add	x0, x0, :lo12:PutImage24
 2902              	.L612:
 2903 25b8 EEFC60D3 		lsr	x14, x7, 32
 2904 25bc CDFC60D3 		lsr	x13, x6, 32
 2905 25c0 ACFC60D3 		lsr	x12, x5, 32
 2906 25c4 8BFC60D3 		lsr	x11, x4, 32
 2907 25c8 6AFC60D3 		lsr	x10, x3, 32
 2908 25cc 49FC60D3 		lsr	x9, x2, 32
 2909 25d0 08FC60D3 		lsr	x8, x0, 32
 2910 25d4 27380629 		stp	w7, w14, [x1, 48]
 2911 25d8 26340729 		stp	w6, w13, [x1, 56]
 2912 25dc 25300829 		stp	w5, w12, [x1, 64]
 2913 25e0 242C0929 		stp	w4, w11, [x1, 72]
 2914 25e4 23280A29 		stp	w3, w10, [x1, 80]
 2915 25e8 22240B29 		stp	w2, w9, [x1, 88]
 2916 25ec 20200C29 		stp	w0, w8, [x1, 96]
 2917 25f0 D7FFFF17 		b	.L595
 2918 25f4 1F2003D5 		.p2align 3
 2919              	.L616:
 2920 25f8 07000090 		adrp	x7, ClearArea16
 2921 25fc E7000091 		add	x7, x7, :lo12:ClearArea16
 2922 2600 06000090 		adrp	x6, VertLine16
 2923 2604 C6000091 		add	x6, x6, :lo12:VertLine16
 2924 2608 05000090 		adrp	x5, HorzLine16
 2925 260c A5000091 		add	x5, x5, :lo12:HorzLine16
 2926 2610 04000090 		adrp	x4, DiagLine16
 2927 2614 84000091 		add	x4, x4, :lo12:DiagLine16
 2928 2618 03000090 		adrp	x3, WriteChar16
 2929 261c 63000091 		add	x3, x3, :lo12:WriteChar16
 2930 2620 02000090 		adrp	x2, TransparentWriteChar16
AARCH64 GAS  C:\Users\ldebo\AppData\Local\Temp\ccfW7LPV.s 			page 53


 2931 2624 42000091 		add	x2, x2, :lo12:TransparentWriteChar16
 2932 2628 00000090 		adrp	x0, PutImage16
 2933 262c 00000091 		add	x0, x0, :lo12:PutImage16
 2934 2630 E2FFFF17 		b	.L612
 2935 2634 1F2003D5 		.p2align 3
 2936              	.L597:
 2937 2638 07000090 		adrp	x7, ClearArea32
 2938 263c E7000091 		add	x7, x7, :lo12:ClearArea32
 2939 2640 06000090 		adrp	x6, VertLine32
 2940 2644 C6000091 		add	x6, x6, :lo12:VertLine32
 2941 2648 05000090 		adrp	x5, HorzLine32
 2942 264c A5000091 		add	x5, x5, :lo12:HorzLine32
 2943 2650 04000090 		adrp	x4, DiagLine32
 2944 2654 84000091 		add	x4, x4, :lo12:DiagLine32
 2945 2658 03000090 		adrp	x3, WriteChar32
 2946 265c 63000091 		add	x3, x3, :lo12:WriteChar32
 2947 2660 02000090 		adrp	x2, TransparentWriteChar32
 2948 2664 42000091 		add	x2, x2, :lo12:TransparentWriteChar32
 2949 2668 00000090 		adrp	x0, PutImage32
 2950 266c 00000091 		add	x0, x0, :lo12:PutImage32
 2951 2670 D2FFFF17 		b	.L612
 2952              		.size	PiConsole_Init, .-PiConsole_Init
 2953              		.align	2
 2954 2674 1F2003D5 		.p2align 4,,15
 2954      1F2003D5 
 2954      1F2003D5 
 2955              		.global	GetConsoleDC
 2956              		.type	GetConsoleDC, %function
 2957              	GetConsoleDC:
 2958 2680 00000090 		adrp	x0, .LANCHOR0
 2959 2684 00000091 		add	x0, x0, :lo12:.LANCHOR0
 2960 2688 00100091 		add	x0, x0, 4
 2961 268c C0035FD6 		ret
 2962              		.size	GetConsoleDC, .-GetConsoleDC
 2963              		.align	2
 2964              		.p2align 4,,15
 2965              		.global	GetConsole_FrameBuffer
 2966              		.type	GetConsole_FrameBuffer, %function
 2967              	GetConsole_FrameBuffer:
 2968 2690 00000090 		adrp	x0, .LANCHOR0+4
 2969 2694 000040B9 		ldr	w0, [x0, #:lo12:.LANCHOR0+4]
 2970 2698 C0035FD6 		ret
 2971              		.size	GetConsole_FrameBuffer, .-GetConsole_FrameBuffer
 2972              		.align	2
 2973 269c 1F2003D5 		.p2align 4,,15
 2974              		.global	GetConsole_Width
 2975              		.type	GetConsole_Width, %function
 2976              	GetConsole_Width:
 2977 26a0 00000090 		adrp	x0, .LANCHOR0+12
 2978 26a4 000040B9 		ldr	w0, [x0, #:lo12:.LANCHOR0+12]
 2979 26a8 C0035FD6 		ret
 2980              		.size	GetConsole_Width, .-GetConsole_Width
 2981              		.align	2
 2982 26ac 1F2003D5 		.p2align 4,,15
 2983              		.global	GetConsole_Height
 2984              		.type	GetConsole_Height, %function
 2985              	GetConsole_Height:
AARCH64 GAS  C:\Users\ldebo\AppData\Local\Temp\ccfW7LPV.s 			page 54


 2986 26b0 00000090 		adrp	x0, .LANCHOR0+16
 2987 26b4 000040B9 		ldr	w0, [x0, #:lo12:.LANCHOR0+16]
 2988 26b8 C0035FD6 		ret
 2989              		.size	GetConsole_Height, .-GetConsole_Height
 2990              		.align	2
 2991 26bc 1F2003D5 		.p2align 4,,15
 2992              		.weak	_sbrk
 2993              		.type	_sbrk, %function
 2994              	_sbrk:
 2995 26c0 02000090 		adrp	x2, .LANCHOR0
 2996 26c4 42000091 		add	x2, x2, :lo12:.LANCHOR0
 2997 26c8 03000090 		adrp	x3, _end
 2998 26cc 63000091 		add	x3, x3, :lo12:_end
 2999 26d0 413840F9 		ldr	x1, [x2, 112]
 3000 26d4 3F0000F1 		cmp	x1, 0
 3001 26d8 6100819A 		csel	x1, x3, x1, eq
 3002 26dc 23C0208B 		add	x3, x1, x0, sxtw
 3003 26e0 E00301AA 		mov	x0, x1
 3004 26e4 433800F9 		str	x3, [x2, 112]
 3005 26e8 C0035FD6 		ret
 3006              		.size	_sbrk, .-_sbrk
 3007              		.align	2
 3008 26ec 1F2003D5 		.p2align 4,,15
 3009              		.weak	_kill
 3010              		.type	_kill, %function
 3011              	_kill:
 3012 26f0 01000090 		adrp	x1, errno
 3013 26f4 C2028052 		mov	w2, 22
 3014 26f8 00008012 		mov	w0, -1
 3015 26fc 220000B9 		str	w2, [x1, #:lo12:errno]
 3016 2700 C0035FD6 		ret
 3017              		.size	_kill, .-_kill
 3018              		.align	2
 3019 2704 1F2003D5 		.p2align 4,,15
 3019      1F2003D5 
 3019      1F2003D5 
 3020              		.weak	_getpid
 3021              		.type	_getpid, %function
 3022              	_getpid:
 3023 2710 20008052 		mov	w0, 1
 3024 2714 C0035FD6 		ret
 3025              		.size	_getpid, .-_getpid
 3026              		.align	2
 3027 2718 1F2003D5 		.p2align 4,,15
 3027      1F2003D5 
 3028              		.weak	_read
 3029              		.type	_read, %function
 3030              	_read:
 3031 2720 00008052 		mov	w0, 0
 3032 2724 C0035FD6 		ret
 3033              		.size	_read, .-_read
 3034              		.align	2
 3035 2728 1F2003D5 		.p2align 4,,15
 3035      1F2003D5 
 3036              		.weak	_close
 3037              		.type	_close, %function
 3038              	_close:
AARCH64 GAS  C:\Users\ldebo\AppData\Local\Temp\ccfW7LPV.s 			page 55


 3039 2730 00008012 		mov	w0, -1
 3040 2734 C0035FD6 		ret
 3041              		.size	_close, .-_close
 3042              		.align	2
 3043 2738 1F2003D5 		.p2align 4,,15
 3043      1F2003D5 
 3044              		.weak	_lseek
 3045              		.type	_lseek, %function
 3046              	_lseek:
 3047 2740 00008052 		mov	w0, 0
 3048 2744 C0035FD6 		ret
 3049              		.size	_lseek, .-_lseek
 3050              		.align	2
 3051 2748 1F2003D5 		.p2align 4,,15
 3051      1F2003D5 
 3052              		.weak	_isatty
 3053              		.type	_isatty, %function
 3054              	_isatty:
 3055 2750 20008052 		mov	w0, 1
 3056 2754 C0035FD6 		ret
 3057              		.size	_isatty, .-_isatty
 3058              		.align	2
 3059 2758 1F2003D5 		.p2align 4,,15
 3059      1F2003D5 
 3060              		.weak	_fstat
 3061              		.type	_fstat, %function
 3062              	_fstat:
 3063 2760 02008452 		mov	w2, 8192
 3064 2764 00008052 		mov	w0, 0
 3065 2768 220400B9 		str	w2, [x1, 4]
 3066 276c C0035FD6 		ret
 3067              		.size	_fstat, .-_fstat
 3068              		.align	2
 3069              		.p2align 4,,15
 3070              		.weak	_exit
 3071              		.type	_exit, %function
 3072              	_exit:
 3073              		.p2align 3
 3074              	.L632:
 3075 2770 00000014 		b	.L632
 3076              		.size	_exit, .-_exit
 3077              		.align	2
 3078 2774 1F2003D5 		.p2align 4,,15
 3078      1F2003D5 
 3078      1F2003D5 
 3079              		.global	_write
 3080              		.type	_write, %function
 3081              	_write:
 3082 2780 F353BDA9 		stp	x19, x20, [sp, -48]!
 3083 2784 5F000071 		cmp	w2, 0
 3084 2788 F77B02A9 		stp	x23, x30, [sp, 32]
 3085 278c F703022A 		mov	w23, w2
 3086 2790 CD040054 		ble	.L634
 3087 2794 F55B01A9 		stp	x21, x22, [sp, 16]
 3088 2798 55040051 		sub	w21, w2, #1
 3089 279c B5060091 		add	x21, x21, 1
 3090 27a0 16000090 		adrp	x22, .LANCHOR0
AARCH64 GAS  C:\Users\ldebo\AppData\Local\Temp\ccfW7LPV.s 			page 56


 3091 27a4 D6020091 		add	x22, x22, :lo12:.LANCHOR0
 3092 27a8 F40301AA 		mov	x20, x1
 3093 27ac 3500158B 		add	x21, x1, x21
 3094 27b0 15000014 		b	.L640
 3095 27b4 1F2003D5 		.p2align 3
 3096              	.L646:
 3097 27b8 D3120091 		add	x19, x22, 4
 3098 27bc E103032A 		mov	w1, w3
 3099 27c0 E00313AA 		mov	x0, x19
 3100 27c4 7F340071 		cmp	w3, 13
 3101 27c8 C0040054 		beq	.L637
 3102 27cc 7F240071 		cmp	w3, 9
 3103 27d0 40030054 		beq	.L644
 3104 27d4 65924329 		ldp	w5, w4, [x19, 28]
 3105 27d8 620E4A29 		ldp	w2, w3, [x19, 80]
 3106 27dc A5701D53 		lsl	w5, w5, 3
 3107 27e0 846C1C53 		lsl	w4, w4, 4
 3108 27e4 65920229 		stp	w5, w4, [x19, 20]
 3109 27e8 438003AA 		orr	x3, x2, x3, lsl 32
 3110 27ec 60003FD6 		blr	x3
 3111 27f0 601E40B9 		ldr	w0, [x19, 28]
 3112 27f4 00040011 		add	w0, w0, 1
 3113 27f8 601E00B9 		str	w0, [x19, 28]
 3114              	.L639:
 3115 27fc 9F0215EB 		cmp	x20, x21
 3116 2800 20010054 		beq	.L645
 3117              	.L640:
 3118 2804 83164038 		ldrb	w3, [x20], 1
 3119 2808 7F280071 		cmp	w3, 10
 3120 280c 61FDFF54 		bne	.L646
 3121 2810 C12640B9 		ldr	w1, [x22, 36]
 3122 2814 9F0215EB 		cmp	x20, x21
 3123 2818 21040011 		add	w1, w1, 1
 3124 281c DF060429 		stp	wzr, w1, [x22, 32]
 3125 2820 21FFFF54 		bne	.L640
 3126              	.L645:
 3127 2824 F55B41A9 		ldp	x21, x22, [sp, 16]
 3128              	.L634:
 3129 2828 E003172A 		mov	w0, w23
 3130 282c F77B42A9 		ldp	x23, x30, [sp, 32]
 3131 2830 F353C3A8 		ldp	x19, x20, [sp], 48
 3132 2834 C0035FD6 		ret
 3133              		.p2align 3
 3134              	.L644:
 3135 2838 C02240B9 		ldr	w0, [x22, 32]
 3136 283c 00140011 		add	w0, w0, 5
 3137 2840 E103006B 		negs	w1, w0
 3138 2844 03040012 		and	w3, w0, 3
 3139 2848 21040012 		and	w1, w1, 3
 3140 284c 6144815A 		csneg	w1, w3, w1, mi
 3141 2850 0000014B 		sub	w0, w0, w1
 3142 2854 C02200B9 		str	w0, [x22, 32]
 3143 2858 E9FFFF17 		b	.L639
 3144 285c 1F2003D5 		.p2align 3
 3145              	.L637:
 3146 2860 DF2200B9 		str	wzr, [x22, 32]
 3147 2864 E6FFFF17 		b	.L639
AARCH64 GAS  C:\Users\ldebo\AppData\Local\Temp\ccfW7LPV.s 			page 57


 3148              		.size	_write, .-_write
 3149              		.global	console
 3150              		.global	BitFontEnd
 3151              		.section	.rodata
 3152              		.align	2
 3153              		.type	BitFont, %object
 3154              		.size	BitFont, 4096
 3155              	BitFont:
 3156 0000 00000000 		.word	0
 3157 0004 00000000 		.word	0
 3158 0008 00000000 		.word	0
 3159 000c 00000000 		.word	0
 3160 0010 817E0000 		.word	32385
 3161 0014 BD8181A5 		.word	-1518239299
 3162 0018 7E818199 		.word	-1719565954
 3163 001c 00000000 		.word	0
 3164 0020 FF7E0000 		.word	32511
 3165 0024 C3FFFFDB 		.word	-603979837
 3166 0028 7EFFFFE7 		.word	-402653314
 3167 002c 00000000 		.word	0
 3168 0030 00000000 		.word	0
 3169 0034 FEFEFE6C 		.word	1828650750
 3170 0038 10387CFE 		.word	-25413616
 3171 003c 00000000 		.word	0
 3172 0040 00000000 		.word	0
 3173 0044 FE7C3810 		.word	272137470
 3174 0048 0010387C 		.word	2084048896
 3175 004c 00000000 		.word	0
 3176 0050 18000000 		.word	24
 3177 0054 E7E73C3C 		.word	1010624487
 3178 0058 3C1818E7 		.word	-417851332
 3179 005c 00000000 		.word	0
 3180 0060 18000000 		.word	24
 3181 0064 FFFF7E3C 		.word	1014956031
 3182 0068 3C18187E 		.word	2115508284
 3183 006c 00000000 		.word	0
 3184 0070 00000000 		.word	0
 3185 0074 3C180000 		.word	6204
 3186 0078 0000183C 		.word	1008205824
 3187 007c 00000000 		.word	0
 3188 0080 FFFFFFFF 		.word	-1
 3189 0084 C3E7FFFF 		.word	-6205
 3190 0088 FFFFE7C3 		.word	-1008205825
 3191 008c FFFFFFFF 		.word	-1
 3192 0090 00000000 		.word	0
 3193 0094 42663C00 		.word	3958338
 3194 0098 003C6642 		.word	1113996288
 3195 009c 00000000 		.word	0
 3196 00a0 FFFFFFFF 		.word	-1
 3197 00a4 BD99C3FF 		.word	-3958339
 3198 00a8 FFC399BD 		.word	-1113996289
 3199 00ac FFFFFFFF 		.word	-1
 3200 00b0 0E1E0000 		.word	7694
 3201 00b4 CC78321A 		.word	439515340
 3202 00b8 78CCCCCC 		.word	-858993544
 3203 00bc 00000000 		.word	0
 3204 00c0 663C0000 		.word	15462
AARCH64 GAS  C:\Users\ldebo\AppData\Local\Temp\ccfW7LPV.s 			page 58


 3205 00c4 3C666666 		.word	1717986876
 3206 00c8 18187E18 		.word	410916888
 3207 00cc 00000000 		.word	0
 3208 00d0 333F0000 		.word	16179
 3209 00d4 3030303F 		.word	1060122672
 3210 00d8 E0F07030 		.word	812708064
 3211 00dc 00000000 		.word	0
 3212 00e0 637F0000 		.word	32611
 3213 00e4 6363637F 		.word	2137219939
 3214 00e8 E6E76763 		.word	1667753958
 3215 00ec 000000C0 		.word	-1073741824
 3216 00f0 18000000 		.word	24
 3217 00f4 E73CDB18 		.word	417021159
 3218 00f8 1818DB3C 		.word	1020991512
 3219 00fc 00000000 		.word	0
 3220 0100 E0C08000 		.word	8437984
 3221 0104 F8FEF8F0 		.word	-252117256
 3222 0108 80C0E0F0 		.word	-253706112
 3223 010c 00000000 		.word	0
 3224 0110 0E060200 		.word	132622
 3225 0114 3EFE3E1E 		.word	507444798
 3226 0118 02060E1E 		.word	504235522
 3227 011c 00000000 		.word	0
 3228 0120 3C180000 		.word	6204
 3229 0124 1818187E 		.word	2115508248
 3230 0128 00183C7E 		.word	2117867520
 3231 012c 00000000 		.word	0
 3232 0130 66660000 		.word	26214
 3233 0134 66666666 		.word	1717986918
 3234 0138 66660066 		.word	1711302246
 3235 013c 00000000 		.word	0
 3236 0140 DB7F0000 		.word	32731
 3237 0144 1B7BDBDB 		.word	-606373093
 3238 0148 1B1B1B1B 		.word	454761243
 3239 014c 00000000 		.word	0
 3240 0150 60C67C00 		.word	8177248
 3241 0154 C6C66C38 		.word	946652870
 3242 0158 C60C386C 		.word	1815612614
 3243 015c 0000007C 		.word	2080374784
 3244 0160 00000000 		.word	0
 3245 0164 00000000 		.word	0
 3246 0168 FEFEFEFE 		.word	-16843010
 3247 016c 00000000 		.word	0
 3248 0170 3C180000 		.word	6204
 3249 0174 1818187E 		.word	2115508248
 3250 0178 7E183C7E 		.word	2117867646
 3251 017c 00000000 		.word	0
 3252 0180 3C180000 		.word	6204
 3253 0184 1818187E 		.word	2115508248
 3254 0188 18181818 		.word	404232216
 3255 018c 00000000 		.word	0
 3256 0190 18180000 		.word	6168
 3257 0194 18181818 		.word	404232216
 3258 0198 183C7E18 		.word	410926104
 3259 019c 00000000 		.word	0
 3260 01a0 00000000 		.word	0
 3261 01a4 FE0C1800 		.word	1576190
AARCH64 GAS  C:\Users\ldebo\AppData\Local\Temp\ccfW7LPV.s 			page 59


 3262 01a8 0000180C 		.word	202899456
 3263 01ac 00000000 		.word	0
 3264 01b0 00000000 		.word	0
 3265 01b4 FE603000 		.word	3170558
 3266 01b8 00003060 		.word	1613758464
 3267 01bc 00000000 		.word	0
 3268 01c0 00000000 		.word	0
 3269 01c4 C0C00000 		.word	49344
 3270 01c8 0000FEC0 		.word	-1057095680
 3271 01cc 00000000 		.word	0
 3272 01d0 00000000 		.word	0
 3273 01d4 FE6C2800 		.word	2649342
 3274 01d8 0000286C 		.word	1814560768
 3275 01dc 00000000 		.word	0
 3276 01e0 00000000 		.word	0
 3277 01e4 7C383810 		.word	272119932
 3278 01e8 00FEFE7C 		.word	2097085952
 3279 01ec 00000000 		.word	0
 3280 01f0 00000000 		.word	0
 3281 01f4 7C7CFEFE 		.word	-16876420
 3282 01f8 00103838 		.word	943198208
 3283 01fc 00000000 		.word	0
 3284 0200 00000000 		.word	0
 3285 0204 00000000 		.word	0
 3286 0208 00000000 		.word	0
 3287 020c 00000000 		.word	0
 3288 0210 3C180000 		.word	6204
 3289 0214 18183C3C 		.word	1010571288
 3290 0218 18180018 		.word	402659352
 3291 021c 00000000 		.word	0
 3292 0220 66666600 		.word	6710886
 3293 0224 00000024 		.word	603979776
 3294 0228 00000000 		.word	0
 3295 022c 00000000 		.word	0
 3296 0230 6C000000 		.word	108
 3297 0234 6C6CFE6C 		.word	1828613228
 3298 0238 6C6CFE6C 		.word	1828613228
 3299 023c 00000000 		.word	0
 3300 0240 C67C1818 		.word	404257990
 3301 0244 067CC0C2 		.word	-1027572730
 3302 0248 7CC68606 		.word	109495932
 3303 024c 00001818 		.word	404226048
 3304 0250 00000000 		.word	0
 3305 0254 180CC6C2 		.word	-1027208168
 3306 0258 86C66030 		.word	811648646
 3307 025c 00000000 		.word	0
 3308 0260 6C380000 		.word	14444
 3309 0264 DC76386C 		.word	1815639772
 3310 0268 76CCCCCC 		.word	-858993546
 3311 026c 00000000 		.word	0
 3312 0270 30303000 		.word	3158064
 3313 0274 00000060 		.word	1610612736
 3314 0278 00000000 		.word	0
 3315 027c 00000000 		.word	0
 3316 0280 180C0000 		.word	3096
 3317 0284 30303030 		.word	808464432
 3318 0288 0C183030 		.word	808458252
AARCH64 GAS  C:\Users\ldebo\AppData\Local\Temp\ccfW7LPV.s 			page 60


 3319 028c 00000000 		.word	0
 3320 0290 18300000 		.word	12312
 3321 0294 0C0C0C0C 		.word	202116108
 3322 0298 30180C0C 		.word	202119216
 3323 029c 00000000 		.word	0
 3324 02a0 00000000 		.word	0
 3325 02a4 FF3C6600 		.word	6700287
 3326 02a8 0000663C 		.word	1013317632
 3327 02ac 00000000 		.word	0
 3328 02b0 00000000 		.word	0
 3329 02b4 7E181800 		.word	1579134
 3330 02b8 00001818 		.word	404226048
 3331 02bc 00000000 		.word	0
 3332 02c0 00000000 		.word	0
 3333 02c4 00000000 		.word	0
 3334 02c8 18181800 		.word	1579032
 3335 02cc 00000030 		.word	805306368
 3336 02d0 00000000 		.word	0
 3337 02d4 FE000000 		.word	254
 3338 02d8 00000000 		.word	0
 3339 02dc 00000000 		.word	0
 3340 02e0 00000000 		.word	0
 3341 02e4 00000000 		.word	0
 3342 02e8 18180000 		.word	6168
 3343 02ec 00000000 		.word	0
 3344 02f0 00000000 		.word	0
 3345 02f4 180C0602 		.word	33950744
 3346 02f8 80C06030 		.word	811647104
 3347 02fc 00000000 		.word	0
 3348 0300 6C380000 		.word	14444
 3349 0304 D6D6C6C6 		.word	-960047402
 3350 0308 386CC6C6 		.word	-960074696
 3351 030c 00000000 		.word	0
 3352 0310 38180000 		.word	6200
 3353 0314 18181878 		.word	2014844952
 3354 0318 7E181818 		.word	404232318
 3355 031c 00000000 		.word	0
 3356 0320 C67C0000 		.word	31942
 3357 0324 30180C06 		.word	101455920
 3358 0328 FEC6C060 		.word	1623246590
 3359 032c 00000000 		.word	0
 3360 0330 C67C0000 		.word	31942
 3361 0334 063C0606 		.word	101071878
 3362 0338 7CC60606 		.word	101107324
 3363 033c 00000000 		.word	0
 3364 0340 1C0C0000 		.word	3100
 3365 0344 FECC6C3C 		.word	1013763326
 3366 0348 1E0C0C0C 		.word	202116126
 3367 034c 00000000 		.word	0
 3368 0350 C0FE0000 		.word	65216
 3369 0354 06FCC0C0 		.word	-1061094394
 3370 0358 7CC60606 		.word	101107324
 3371 035c 00000000 		.word	0
 3372 0360 60380000 		.word	14432
 3373 0364 C6FCC0C0 		.word	-1061094202
 3374 0368 7CC6C6C6 		.word	-960051588
 3375 036c 00000000 		.word	0
AARCH64 GAS  C:\Users\ldebo\AppData\Local\Temp\ccfW7LPV.s 			page 61


 3376 0370 C6FE0000 		.word	65222
 3377 0374 180C0606 		.word	101059608
 3378 0378 30303030 		.word	808464432
 3379 037c 00000000 		.word	0
 3380 0380 C67C0000 		.word	31942
 3381 0384 C67CC6C6 		.word	-960070458
 3382 0388 7CC6C6C6 		.word	-960051588
 3383 038c 00000000 		.word	0
 3384 0390 C67C0000 		.word	31942
 3385 0394 067EC6C6 		.word	-960070138
 3386 0398 780C0606 		.word	101059704
 3387 039c 00000000 		.word	0
 3388 03a0 00000000 		.word	0
 3389 03a4 00001818 		.word	404226048
 3390 03a8 00181800 		.word	1579008
 3391 03ac 00000000 		.word	0
 3392 03b0 00000000 		.word	0
 3393 03b4 00001818 		.word	404226048
 3394 03b8 30181800 		.word	1579056
 3395 03bc 00000000 		.word	0
 3396 03c0 06000000 		.word	6
 3397 03c4 6030180C 		.word	202911840
 3398 03c8 060C1830 		.word	806882310
 3399 03cc 00000000 		.word	0
 3400 03d0 00000000 		.word	0
 3401 03d4 00007E00 		.word	8257536
 3402 03d8 0000007E 		.word	2113929216
 3403 03dc 00000000 		.word	0
 3404 03e0 60000000 		.word	96
 3405 03e4 060C1830 		.word	806882310
 3406 03e8 6030180C 		.word	202911840
 3407 03ec 00000000 		.word	0
 3408 03f0 C67C0000 		.word	31942
 3409 03f4 18180CC6 		.word	-972285928
 3410 03f8 18180018 		.word	402659352
 3411 03fc 00000000 		.word	0
 3412 0400 7C000000 		.word	124
 3413 0404 DEDEC6C6 		.word	-960045346
 3414 0408 7CC0DCDE 		.word	-555958148
 3415 040c 00000000 		.word	0
 3416 0410 38100000 		.word	4152
 3417 0414 FEC6C66C 		.word	1824966398
 3418 0418 C6C6C6C6 		.word	-960051514
 3419 041c 00000000 		.word	0
 3420 0420 66FC0000 		.word	64614
 3421 0424 667C6666 		.word	1717992550
 3422 0428 FC666666 		.word	1717987068
 3423 042c 00000000 		.word	0
 3424 0430 663C0000 		.word	15462
 3425 0434 C0C0C0C2 		.word	-1027555136
 3426 0438 3C66C2C0 		.word	-1061001668
 3427 043c 00000000 		.word	0
 3428 0440 6CF80000 		.word	63596
 3429 0444 66666666 		.word	1717986918
 3430 0448 F86C6666 		.word	1717988600
 3431 044c 00000000 		.word	0
 3432 0450 66FE0000 		.word	65126
AARCH64 GAS  C:\Users\ldebo\AppData\Local\Temp\ccfW7LPV.s 			page 62


 3433 0454 68786862 		.word	1651013736
 3434 0458 FE666260 		.word	1617061630
 3435 045c 00000000 		.word	0
 3436 0460 66FE0000 		.word	65126
 3437 0464 68786862 		.word	1651013736
 3438 0468 F0606060 		.word	1616929008
 3439 046c 00000000 		.word	0
 3440 0470 663C0000 		.word	15462
 3441 0474 DEC0C0C2 		.word	-1027555106
 3442 0478 3A66C6C6 		.word	-960076230
 3443 047c 00000000 		.word	0
 3444 0480 C6C60000 		.word	50886
 3445 0484 C6FEC6C6 		.word	-960037178
 3446 0488 C6C6C6C6 		.word	-960051514
 3447 048c 00000000 		.word	0
 3448 0490 183C0000 		.word	15384
 3449 0494 18181818 		.word	404232216
 3450 0498 3C181818 		.word	404232252
 3451 049c 00000000 		.word	0
 3452 04a0 0C1E0000 		.word	7692
 3453 04a4 0C0C0C0C 		.word	202116108
 3454 04a8 78CCCCCC 		.word	-858993544
 3455 04ac 00000000 		.word	0
 3456 04b0 66E60000 		.word	58982
 3457 04b4 78786C66 		.word	1718384760
 3458 04b8 E666666C 		.word	1818650342
 3459 04bc 00000000 		.word	0
 3460 04c0 60F00000 		.word	61536
 3461 04c4 60606060 		.word	1616928864
 3462 04c8 FE666260 		.word	1617061630
 3463 04cc 00000000 		.word	0
 3464 04d0 EEC60000 		.word	50926
 3465 04d4 C6D6FEFE 		.word	-16853306
 3466 04d8 C6C6C6C6 		.word	-960051514
 3467 04dc 00000000 		.word	0
 3468 04e0 E6C60000 		.word	50918
 3469 04e4 CEDEFEF6 		.word	-151068978
 3470 04e8 C6C6C6C6 		.word	-960051514
 3471 04ec 00000000 		.word	0
 3472 04f0 C67C0000 		.word	31942
 3473 04f4 C6C6C6C6 		.word	-960051514
 3474 04f8 7CC6C6C6 		.word	-960051588
 3475 04fc 00000000 		.word	0
 3476 0500 66FC0000 		.word	64614
 3477 0504 607C6666 		.word	1717992544
 3478 0508 F0606060 		.word	1616929008
 3479 050c 00000000 		.word	0
 3480 0510 C67C0000 		.word	31942
 3481 0514 C6C6C6C6 		.word	-960051514
 3482 0518 7CDED6C6 		.word	-958996868
 3483 051c 00000E0C 		.word	202244096
 3484 0520 66FC0000 		.word	64614
 3485 0524 6C7C6666 		.word	1717992556
 3486 0528 E6666666 		.word	1717987046
 3487 052c 00000000 		.word	0
 3488 0530 C67C0000 		.word	31942
 3489 0534 0C3860C6 		.word	-966772724
AARCH64 GAS  C:\Users\ldebo\AppData\Local\Temp\ccfW7LPV.s 			page 63


 3490 0538 7CC6C606 		.word	113690236
 3491 053c 00000000 		.word	0
 3492 0540 7E7E0000 		.word	32382
 3493 0544 1818185A 		.word	1511528472
 3494 0548 3C181818 		.word	404232252
 3495 054c 00000000 		.word	0
 3496 0550 C6C60000 		.word	50886
 3497 0554 C6C6C6C6 		.word	-960051514
 3498 0558 7CC6C6C6 		.word	-960051588
 3499 055c 00000000 		.word	0
 3500 0560 C6C60000 		.word	50886
 3501 0564 C6C6C6C6 		.word	-960051514
 3502 0568 10386CC6 		.word	-965986288
 3503 056c 00000000 		.word	0
 3504 0570 C6C60000 		.word	50886
 3505 0574 D6D6C6C6 		.word	-960047402
 3506 0578 6CEEFED6 		.word	-687935892
 3507 057c 00000000 		.word	0
 3508 0580 C6C60000 		.word	50886
 3509 0584 38387C6C 		.word	1820080184
 3510 0588 C6C66C7C 		.word	2087503558
 3511 058c 00000000 		.word	0
 3512 0590 66660000 		.word	26214
 3513 0594 183C6666 		.word	1717976088
 3514 0598 3C181818 		.word	404232252
 3515 059c 00000000 		.word	0
 3516 05a0 C6FE0000 		.word	65222
 3517 05a4 30180C86 		.word	-2046027728
 3518 05a8 FEC6C260 		.word	1623377662
 3519 05ac 00000000 		.word	0
 3520 05b0 303C0000 		.word	15408
 3521 05b4 30303030 		.word	808464432
 3522 05b8 3C303030 		.word	808464444
 3523 05bc 00000000 		.word	0
 3524 05c0 80000000 		.word	128
 3525 05c4 3870E0C0 		.word	-1059033032
 3526 05c8 02060E1C 		.word	470681090
 3527 05cc 00000000 		.word	0
 3528 05d0 0C3C0000 		.word	15372
 3529 05d4 0C0C0C0C 		.word	202116108
 3530 05d8 3C0C0C0C 		.word	202116156
 3531 05dc 00000000 		.word	0
 3532 05e0 C66C3810 		.word	272133318
 3533 05e4 00000000 		.word	0
 3534 05e8 00000000 		.word	0
 3535 05ec 00000000 		.word	0
 3536 05f0 00000000 		.word	0
 3537 05f4 00000000 		.word	0
 3538 05f8 00000000 		.word	0
 3539 05fc 0000FF00 		.word	16711680
 3540 0600 00183030 		.word	808458240
 3541 0604 00000000 		.word	0
 3542 0608 00000000 		.word	0
 3543 060c 00000000 		.word	0
 3544 0610 00000000 		.word	0
 3545 0614 7C0C7800 		.word	7867516
 3546 0618 76CCCCCC 		.word	-858993546
AARCH64 GAS  C:\Users\ldebo\AppData\Local\Temp\ccfW7LPV.s 			page 64


 3547 061c 00000000 		.word	0
 3548 0620 60E00000 		.word	57440
 3549 0624 666C7860 		.word	1618504806
 3550 0628 7C666666 		.word	1717986940
 3551 062c 00000000 		.word	0
 3552 0630 00000000 		.word	0
 3553 0634 C0C67C00 		.word	8177344
 3554 0638 7CC6C0C0 		.word	-1061108100
 3555 063c 00000000 		.word	0
 3556 0640 0C1C0000 		.word	7180
 3557 0644 CC6C3C0C 		.word	205286604
 3558 0648 76CCCCCC 		.word	-858993546
 3559 064c 00000000 		.word	0
 3560 0650 00000000 		.word	0
 3561 0654 FEC67C00 		.word	8177406
 3562 0658 7CC6C0C0 		.word	-1061108100
 3563 065c 00000000 		.word	0
 3564 0660 6C380000 		.word	14444
 3565 0664 60F06064 		.word	1684074592
 3566 0668 F0606060 		.word	1616929008
 3567 066c 00000000 		.word	0
 3568 0670 00000000 		.word	0
 3569 0674 CCCC7600 		.word	7785676
 3570 0678 7CCCCCCC 		.word	-858993540
 3571 067c 0078CC0C 		.word	214726656
 3572 0680 60E00000 		.word	57440
 3573 0684 66766C60 		.word	1617720934
 3574 0688 E6666666 		.word	1717987046
 3575 068c 00000000 		.word	0
 3576 0690 18180000 		.word	6168
 3577 0694 18183800 		.word	3676184
 3578 0698 3C181818 		.word	404232252
 3579 069c 00000000 		.word	0
 3580 06a0 06060000 		.word	1542
 3581 06a4 06060E00 		.word	919046
 3582 06a8 06060606 		.word	101058054
 3583 06ac 003C6666 		.word	1717976064
 3584 06b0 60E00000 		.word	57440
 3585 06b4 786C6660 		.word	1617325176
 3586 06b8 E6666C78 		.word	2020370150
 3587 06bc 00000000 		.word	0
 3588 06c0 18380000 		.word	14360
 3589 06c4 18181818 		.word	404232216
 3590 06c8 3C181818 		.word	404232252
 3591 06cc 00000000 		.word	0
 3592 06d0 00000000 		.word	0
 3593 06d4 D6FEEC00 		.word	15531734
 3594 06d8 C6D6D6D6 		.word	-690563386
 3595 06dc 00000000 		.word	0
 3596 06e0 00000000 		.word	0
 3597 06e4 6666DC00 		.word	14444134
 3598 06e8 66666666 		.word	1717986918
 3599 06ec 00000000 		.word	0
 3600 06f0 00000000 		.word	0
 3601 06f4 C6C67C00 		.word	8177350
 3602 06f8 7CC6C6C6 		.word	-960051588
 3603 06fc 00000000 		.word	0
AARCH64 GAS  C:\Users\ldebo\AppData\Local\Temp\ccfW7LPV.s 			page 65


 3604 0700 00000000 		.word	0
 3605 0704 6666DC00 		.word	14444134
 3606 0708 7C666666 		.word	1717986940
 3607 070c 00F06060 		.word	1616965632
 3608 0710 00000000 		.word	0
 3609 0714 CCCC7600 		.word	7785676
 3610 0718 7CCCCCCC 		.word	-858993540
 3611 071c 001E0C0C 		.word	202120704
 3612 0720 00000000 		.word	0
 3613 0724 6676DC00 		.word	14448230
 3614 0728 F0606060 		.word	1616929008
 3615 072c 00000000 		.word	0
 3616 0730 00000000 		.word	0
 3617 0734 60C67C00 		.word	8177248
 3618 0738 7CC60C38 		.word	940361340
 3619 073c 00000000 		.word	0
 3620 0740 30100000 		.word	4144
 3621 0744 3030FC30 		.word	821833776
 3622 0748 1C363030 		.word	808465948
 3623 074c 00000000 		.word	0
 3624 0750 00000000 		.word	0
 3625 0754 CCCCCC00 		.word	13421772
 3626 0758 76CCCCCC 		.word	-858993546
 3627 075c 00000000 		.word	0
 3628 0760 00000000 		.word	0
 3629 0764 66666600 		.word	6710886
 3630 0768 183C6666 		.word	1717976088
 3631 076c 00000000 		.word	0
 3632 0770 00000000 		.word	0
 3633 0774 D6C6C600 		.word	13027030
 3634 0778 6CFED6D6 		.word	-690553236
 3635 077c 00000000 		.word	0
 3636 0780 00000000 		.word	0
 3637 0784 386CC600 		.word	13003832
 3638 0788 C66C3838 		.word	943221958
 3639 078c 00000000 		.word	0
 3640 0790 00000000 		.word	0
 3641 0794 C6C6C600 		.word	13027014
 3642 0798 7EC6C6C6 		.word	-960051586
 3643 079c 00F80C06 		.word	101513216
 3644 07a0 00000000 		.word	0
 3645 07a4 18CCFE00 		.word	16698392
 3646 07a8 FEC66030 		.word	811648766
 3647 07ac 00000000 		.word	0
 3648 07b0 180E0000 		.word	3608
 3649 07b4 18701818 		.word	404254744
 3650 07b8 0E181818 		.word	404232206
 3651 07bc 00000000 		.word	0
 3652 07c0 18180000 		.word	6168
 3653 07c4 18001818 		.word	404226072
 3654 07c8 18181818 		.word	404232216
 3655 07cc 00000000 		.word	0
 3656 07d0 18700000 		.word	28696
 3657 07d4 180E1818 		.word	404229656
 3658 07d8 70181818 		.word	404232304
 3659 07dc 00000000 		.word	0
 3660 07e0 DC760000 		.word	30428
AARCH64 GAS  C:\Users\ldebo\AppData\Local\Temp\ccfW7LPV.s 			page 66


 3661 07e4 00000000 		.word	0
 3662 07e8 00000000 		.word	0
 3663 07ec 00000000 		.word	0
 3664 07f0 00000000 		.word	0
 3665 07f4 C66C3810 		.word	272133318
 3666 07f8 00FEC6C6 		.word	-960037376
 3667 07fc 00000000 		.word	0
 3668 0800 663C0000 		.word	15462
 3669 0804 C0C0C0C2 		.word	-1027555136
 3670 0808 0C3C66C2 		.word	-1033487348
 3671 080c 00007C06 		.word	108789760
 3672 0810 00CC0000 		.word	52224
 3673 0814 CCCCCC00 		.word	13421772
 3674 0818 76CCCCCC 		.word	-858993546
 3675 081c 00000000 		.word	0
 3676 0820 30180C00 		.word	792624
 3677 0824 FEC67C00 		.word	8177406
 3678 0828 7CC6C0C0 		.word	-1061108100
 3679 082c 00000000 		.word	0
 3680 0830 6C381000 		.word	1063020
 3681 0834 7C0C7800 		.word	7867516
 3682 0838 76CCCCCC 		.word	-858993546
 3683 083c 00000000 		.word	0
 3684 0840 00CC0000 		.word	52224
 3685 0844 7C0C7800 		.word	7867516
 3686 0848 76CCCCCC 		.word	-858993546
 3687 084c 00000000 		.word	0
 3688 0850 18306000 		.word	6303768
 3689 0854 7C0C7800 		.word	7867516
 3690 0858 76CCCCCC 		.word	-858993546
 3691 085c 00000000 		.word	0
 3692 0860 386C3800 		.word	3697720
 3693 0864 7C0C7800 		.word	7867516
 3694 0868 76CCCCCC 		.word	-858993546
 3695 086c 00000000 		.word	0
 3696 0870 00000000 		.word	0
 3697 0874 6060663C 		.word	1013342304
 3698 0878 060C3C66 		.word	1715211270
 3699 087c 0000003C 		.word	1006632960
 3700 0880 6C381000 		.word	1063020
 3701 0884 FEC67C00 		.word	8177406
 3702 0888 7CC6C0C0 		.word	-1061108100
 3703 088c 00000000 		.word	0
 3704 0890 00C60000 		.word	50688
 3705 0894 FEC67C00 		.word	8177406
 3706 0898 7CC6C0C0 		.word	-1061108100
 3707 089c 00000000 		.word	0
 3708 08a0 18306000 		.word	6303768
 3709 08a4 FEC67C00 		.word	8177406
 3710 08a8 7CC6C0C0 		.word	-1061108100
 3711 08ac 00000000 		.word	0
 3712 08b0 00660000 		.word	26112
 3713 08b4 18183800 		.word	3676184
 3714 08b8 3C181818 		.word	404232252
 3715 08bc 00000000 		.word	0
 3716 08c0 663C1800 		.word	1588326
 3717 08c4 18183800 		.word	3676184
AARCH64 GAS  C:\Users\ldebo\AppData\Local\Temp\ccfW7LPV.s 			page 67


 3718 08c8 3C181818 		.word	404232252
 3719 08cc 00000000 		.word	0
 3720 08d0 18306000 		.word	6303768
 3721 08d4 18183800 		.word	3676184
 3722 08d8 3C181818 		.word	404232252
 3723 08dc 00000000 		.word	0
 3724 08e0 1000C600 		.word	12976144
 3725 08e4 C6C66C38 		.word	946652870
 3726 08e8 C6C6C6FE 		.word	-20527418
 3727 08ec 00000000 		.word	0
 3728 08f0 00386C38 		.word	946616320
 3729 08f4 C6C66C38 		.word	946652870
 3730 08f8 C6C6C6FE 		.word	-20527418
 3731 08fc 00000000 		.word	0
 3732 0900 00603018 		.word	405823488
 3733 0904 7C6066FE 		.word	-26845060
 3734 0908 FE666060 		.word	1616930558
 3735 090c 00000000 		.word	0
 3736 0910 00000000 		.word	0
 3737 0914 3676CC00 		.word	13399606
 3738 0918 6ED8D87E 		.word	2128140398
 3739 091c 00000000 		.word	0
 3740 0920 6C3E0000 		.word	15980
 3741 0924 CCFECCCC 		.word	-858980660
 3742 0928 CECCCCCC 		.word	-858993458
 3743 092c 00000000 		.word	0
 3744 0930 6C381000 		.word	1063020
 3745 0934 C6C67C00 		.word	8177350
 3746 0938 7CC6C6C6 		.word	-960051588
 3747 093c 00000000 		.word	0
 3748 0940 00C60000 		.word	50688
 3749 0944 C6C67C00 		.word	8177350
 3750 0948 7CC6C6C6 		.word	-960051588
 3751 094c 00000000 		.word	0
 3752 0950 18306000 		.word	6303768
 3753 0954 C6C67C00 		.word	8177350
 3754 0958 7CC6C6C6 		.word	-960051588
 3755 095c 00000000 		.word	0
 3756 0960 CC783000 		.word	3176652
 3757 0964 CCCCCC00 		.word	13421772
 3758 0968 76CCCCCC 		.word	-858993546
 3759 096c 00000000 		.word	0
 3760 0970 18306000 		.word	6303768
 3761 0974 CCCCCC00 		.word	13421772
 3762 0978 76CCCCCC 		.word	-858993546
 3763 097c 00000000 		.word	0
 3764 0980 00C60000 		.word	50688
 3765 0984 C6C6C600 		.word	13027014
 3766 0988 7EC6C6C6 		.word	-960051586
 3767 098c 00780C06 		.word	101480448
 3768 0990 7C00C600 		.word	12976252
 3769 0994 C6C6C6C6 		.word	-960051514
 3770 0998 7CC6C6C6 		.word	-960051588
 3771 099c 00000000 		.word	0
 3772 09a0 C600C600 		.word	12976326
 3773 09a4 C6C6C6C6 		.word	-960051514
 3774 09a8 7CC6C6C6 		.word	-960051588
AARCH64 GAS  C:\Users\ldebo\AppData\Local\Temp\ccfW7LPV.s 			page 68


 3775 09ac 00000000 		.word	0
 3776 09b0 3C181800 		.word	1579068
 3777 09b4 60606066 		.word	1717592160
 3778 09b8 18183C66 		.word	1715214360
 3779 09bc 00000000 		.word	0
 3780 09c0 646C3800 		.word	3697764
 3781 09c4 6060F060 		.word	1626366048
 3782 09c8 FCE66060 		.word	1616963324
 3783 09cc 00000000 		.word	0
 3784 09d0 66660000 		.word	26214
 3785 09d4 187E183C 		.word	1008238104
 3786 09d8 1818187E 		.word	2115508248
 3787 09dc 00000000 		.word	0
 3788 09e0 CCCCF800 		.word	16305356
 3789 09e4 DECCC4F8 		.word	-121320226
 3790 09e8 C6CCCCCC 		.word	-858993466
 3791 09ec 00000000 		.word	0
 3792 09f0 181B0E00 		.word	924440
 3793 09f4 187E1818 		.word	404258328
 3794 09f8 18181818 		.word	404232216
 3795 09fc 000070D8 		.word	-663748608
 3796 0a00 60301800 		.word	1585248
 3797 0a04 7C0C7800 		.word	7867516
 3798 0a08 76CCCCCC 		.word	-858993546
 3799 0a0c 00000000 		.word	0
 3800 0a10 30180C00 		.word	792624
 3801 0a14 18183800 		.word	3676184
 3802 0a18 3C181818 		.word	404232252
 3803 0a1c 00000000 		.word	0
 3804 0a20 60301800 		.word	1585248
 3805 0a24 C6C67C00 		.word	8177350
 3806 0a28 7CC6C6C6 		.word	-960051588
 3807 0a2c 00000000 		.word	0
 3808 0a30 60301800 		.word	1585248
 3809 0a34 CCCCCC00 		.word	13421772
 3810 0a38 76CCCCCC 		.word	-858993546
 3811 0a3c 00000000 		.word	0
 3812 0a40 DC760000 		.word	30428
 3813 0a44 6666DC00 		.word	14444134
 3814 0a48 66666666 		.word	1717986918
 3815 0a4c 00000000 		.word	0
 3816 0a50 C600DC76 		.word	1994129606
 3817 0a54 DEFEF6E6 		.word	-420020514
 3818 0a58 C6C6C6CE 		.word	-825833786
 3819 0a5c 00000000 		.word	0
 3820 0a60 6C6C3C00 		.word	3959916
 3821 0a64 007E003E 		.word	1040219648
 3822 0a68 00000000 		.word	0
 3823 0a6c 00000000 		.word	0
 3824 0a70 6C6C3800 		.word	3697772
 3825 0a74 007C0038 		.word	939555840
 3826 0a78 00000000 		.word	0
 3827 0a7c 00000000 		.word	0
 3828 0a80 30300000 		.word	12336
 3829 0a84 60303000 		.word	3158112
 3830 0a88 7CC6C6C0 		.word	-1060714884
 3831 0a8c 00000000 		.word	0
AARCH64 GAS  C:\Users\ldebo\AppData\Local\Temp\ccfW7LPV.s 			page 69


 3832 0a90 00000000 		.word	0
 3833 0a94 C0FE0000 		.word	65216
 3834 0a98 00C0C0C0 		.word	-1061109760
 3835 0a9c 00000000 		.word	0
 3836 0aa0 00000000 		.word	0
 3837 0aa4 06FE0000 		.word	65030
 3838 0aa8 00060606 		.word	101058048
 3839 0aac 00000000 		.word	0
 3840 0ab0 C2C0C000 		.word	12632258
 3841 0ab4 3018CCC6 		.word	-959702992
 3842 0ab8 0C86DC60 		.word	1625064972
 3843 0abc 00003E18 		.word	406716416
 3844 0ac0 C2C0C000 		.word	12632258
 3845 0ac4 3018CCC6 		.word	-959702992
 3846 0ac8 3E9ECE66 		.word	1724816958
 3847 0acc 00000606 		.word	101056512
 3848 0ad0 18180000 		.word	6168
 3849 0ad4 18181800 		.word	1579032
 3850 0ad8 183C3C3C 		.word	1010580504
 3851 0adc 00000000 		.word	0
 3852 0ae0 00000000 		.word	0
 3853 0ae4 D86C3600 		.word	3566808
 3854 0ae8 0000366C 		.word	1815478272
 3855 0aec 00000000 		.word	0
 3856 0af0 00000000 		.word	0
 3857 0af4 366CD800 		.word	14183478
 3858 0af8 0000D86C 		.word	1826095104
 3859 0afc 00000000 		.word	0
 3860 0b00 44114411 		.word	289673540
 3861 0b04 44114411 		.word	289673540
 3862 0b08 44114411 		.word	289673540
 3863 0b0c 44114411 		.word	289673540
 3864 0b10 AA55AA55 		.word	1437226410
 3865 0b14 AA55AA55 		.word	1437226410
 3866 0b18 AA55AA55 		.word	1437226410
 3867 0b1c AA55AA55 		.word	1437226410
 3868 0b20 77DD77DD 		.word	-579347081
 3869 0b24 77DD77DD 		.word	-579347081
 3870 0b28 77DD77DD 		.word	-579347081
 3871 0b2c 77DD77DD 		.word	-579347081
 3872 0b30 18181818 		.word	404232216
 3873 0b34 18181818 		.word	404232216
 3874 0b38 18181818 		.word	404232216
 3875 0b3c 18181818 		.word	404232216
 3876 0b40 18181818 		.word	404232216
 3877 0b44 F8181818 		.word	404232440
 3878 0b48 18181818 		.word	404232216
 3879 0b4c 18181818 		.word	404232216
 3880 0b50 18181818 		.word	404232216
 3881 0b54 F818F818 		.word	418912504
 3882 0b58 18181818 		.word	404232216
 3883 0b5c 18181818 		.word	404232216
 3884 0b60 36363636 		.word	909522486
 3885 0b64 F6363636 		.word	909522678
 3886 0b68 36363636 		.word	909522486
 3887 0b6c 36363636 		.word	909522486
 3888 0b70 00000000 		.word	0
AARCH64 GAS  C:\Users\ldebo\AppData\Local\Temp\ccfW7LPV.s 			page 70


 3889 0b74 FE000000 		.word	254
 3890 0b78 36363636 		.word	909522486
 3891 0b7c 36363636 		.word	909522486
 3892 0b80 00000000 		.word	0
 3893 0b84 F818F800 		.word	16259320
 3894 0b88 18181818 		.word	404232216
 3895 0b8c 18181818 		.word	404232216
 3896 0b90 36363636 		.word	909522486
 3897 0b94 F606F636 		.word	922093302
 3898 0b98 36363636 		.word	909522486
 3899 0b9c 36363636 		.word	909522486
 3900 0ba0 36363636 		.word	909522486
 3901 0ba4 36363636 		.word	909522486
 3902 0ba8 36363636 		.word	909522486
 3903 0bac 36363636 		.word	909522486
 3904 0bb0 00000000 		.word	0
 3905 0bb4 F606FE00 		.word	16647926
 3906 0bb8 36363636 		.word	909522486
 3907 0bbc 36363636 		.word	909522486
 3908 0bc0 36363636 		.word	909522486
 3909 0bc4 FE06F636 		.word	922093310
 3910 0bc8 00000000 		.word	0
 3911 0bcc 00000000 		.word	0
 3912 0bd0 36363636 		.word	909522486
 3913 0bd4 FE363636 		.word	909522686
 3914 0bd8 00000000 		.word	0
 3915 0bdc 00000000 		.word	0
 3916 0be0 18181818 		.word	404232216
 3917 0be4 F818F818 		.word	418912504
 3918 0be8 00000000 		.word	0
 3919 0bec 00000000 		.word	0
 3920 0bf0 00000000 		.word	0
 3921 0bf4 F8000000 		.word	248
 3922 0bf8 18181818 		.word	404232216
 3923 0bfc 18181818 		.word	404232216
 3924 0c00 18181818 		.word	404232216
 3925 0c04 1F181818 		.word	404232223
 3926 0c08 00000000 		.word	0
 3927 0c0c 00000000 		.word	0
 3928 0c10 18181818 		.word	404232216
 3929 0c14 FF181818 		.word	404232447
 3930 0c18 00000000 		.word	0
 3931 0c1c 00000000 		.word	0
 3932 0c20 00000000 		.word	0
 3933 0c24 FF000000 		.word	255
 3934 0c28 18181818 		.word	404232216
 3935 0c2c 18181818 		.word	404232216
 3936 0c30 18181818 		.word	404232216
 3937 0c34 1F181818 		.word	404232223
 3938 0c38 18181818 		.word	404232216
 3939 0c3c 18181818 		.word	404232216
 3940 0c40 00000000 		.word	0
 3941 0c44 FF000000 		.word	255
 3942 0c48 00000000 		.word	0
 3943 0c4c 00000000 		.word	0
 3944 0c50 18181818 		.word	404232216
 3945 0c54 FF181818 		.word	404232447
AARCH64 GAS  C:\Users\ldebo\AppData\Local\Temp\ccfW7LPV.s 			page 71


 3946 0c58 18181818 		.word	404232216
 3947 0c5c 18181818 		.word	404232216
 3948 0c60 18181818 		.word	404232216
 3949 0c64 1F181F18 		.word	404690975
 3950 0c68 18181818 		.word	404232216
 3951 0c6c 18181818 		.word	404232216
 3952 0c70 36363636 		.word	909522486
 3953 0c74 37363636 		.word	909522487
 3954 0c78 36363636 		.word	909522486
 3955 0c7c 36363636 		.word	909522486
 3956 0c80 36363636 		.word	909522486
 3957 0c84 3F303736 		.word	909586495
 3958 0c88 00000000 		.word	0
 3959 0c8c 00000000 		.word	0
 3960 0c90 00000000 		.word	0
 3961 0c94 37303F00 		.word	4141111
 3962 0c98 36363636 		.word	909522486
 3963 0c9c 36363636 		.word	909522486
 3964 0ca0 36363636 		.word	909522486
 3965 0ca4 FF00F736 		.word	922157311
 3966 0ca8 00000000 		.word	0
 3967 0cac 00000000 		.word	0
 3968 0cb0 00000000 		.word	0
 3969 0cb4 F700FF00 		.word	16711927
 3970 0cb8 36363636 		.word	909522486
 3971 0cbc 36363636 		.word	909522486
 3972 0cc0 36363636 		.word	909522486
 3973 0cc4 37303736 		.word	909586487
 3974 0cc8 36363636 		.word	909522486
 3975 0ccc 36363636 		.word	909522486
 3976 0cd0 00000000 		.word	0
 3977 0cd4 FF00FF00 		.word	16711935
 3978 0cd8 00000000 		.word	0
 3979 0cdc 00000000 		.word	0
 3980 0ce0 36363636 		.word	909522486
 3981 0ce4 F700F736 		.word	922157303
 3982 0ce8 36363636 		.word	909522486
 3983 0cec 36363636 		.word	909522486
 3984 0cf0 18181818 		.word	404232216
 3985 0cf4 FF00FF18 		.word	419365119
 3986 0cf8 00000000 		.word	0
 3987 0cfc 00000000 		.word	0
 3988 0d00 36363636 		.word	909522486
 3989 0d04 FF363636 		.word	909522687
 3990 0d08 00000000 		.word	0
 3991 0d0c 00000000 		.word	0
 3992 0d10 00000000 		.word	0
 3993 0d14 FF00FF00 		.word	16711935
 3994 0d18 18181818 		.word	404232216
 3995 0d1c 18181818 		.word	404232216
 3996 0d20 00000000 		.word	0
 3997 0d24 FF000000 		.word	255
 3998 0d28 36363636 		.word	909522486
 3999 0d2c 36363636 		.word	909522486
 4000 0d30 36363636 		.word	909522486
 4001 0d34 3F363636 		.word	909522495
 4002 0d38 00000000 		.word	0
AARCH64 GAS  C:\Users\ldebo\AppData\Local\Temp\ccfW7LPV.s 			page 72


 4003 0d3c 00000000 		.word	0
 4004 0d40 18181818 		.word	404232216
 4005 0d44 1F181F18 		.word	404690975
 4006 0d48 00000000 		.word	0
 4007 0d4c 00000000 		.word	0
 4008 0d50 00000000 		.word	0
 4009 0d54 1F181F00 		.word	2037791
 4010 0d58 18181818 		.word	404232216
 4011 0d5c 18181818 		.word	404232216
 4012 0d60 00000000 		.word	0
 4013 0d64 3F000000 		.word	63
 4014 0d68 36363636 		.word	909522486
 4015 0d6c 36363636 		.word	909522486
 4016 0d70 36363636 		.word	909522486
 4017 0d74 FF363636 		.word	909522687
 4018 0d78 36363636 		.word	909522486
 4019 0d7c 36363636 		.word	909522486
 4020 0d80 18181818 		.word	404232216
 4021 0d84 FF18FF18 		.word	419371263
 4022 0d88 18181818 		.word	404232216
 4023 0d8c 18181818 		.word	404232216
 4024 0d90 18181818 		.word	404232216
 4025 0d94 F8181818 		.word	404232440
 4026 0d98 00000000 		.word	0
 4027 0d9c 00000000 		.word	0
 4028 0da0 00000000 		.word	0
 4029 0da4 1F000000 		.word	31
 4030 0da8 18181818 		.word	404232216
 4031 0dac 18181818 		.word	404232216
 4032 0db0 FFFFFFFF 		.word	-1
 4033 0db4 FFFFFFFF 		.word	-1
 4034 0db8 FFFFFFFF 		.word	-1
 4035 0dbc FFFFFFFF 		.word	-1
 4036 0dc0 00000000 		.word	0
 4037 0dc4 FF000000 		.word	255
 4038 0dc8 FFFFFFFF 		.word	-1
 4039 0dcc FFFFFFFF 		.word	-1
 4040 0dd0 F0F0F0F0 		.word	-252645136
 4041 0dd4 F0F0F0F0 		.word	-252645136
 4042 0dd8 F0F0F0F0 		.word	-252645136
 4043 0ddc F0F0F0F0 		.word	-252645136
 4044 0de0 0F0F0F0F 		.word	252645135
 4045 0de4 0F0F0F0F 		.word	252645135
 4046 0de8 0F0F0F0F 		.word	252645135
 4047 0dec 0F0F0F0F 		.word	252645135
 4048 0df0 FFFFFFFF 		.word	-1
 4049 0df4 00FFFFFF 		.word	-256
 4050 0df8 00000000 		.word	0
 4051 0dfc 00000000 		.word	0
 4052 0e00 00000000 		.word	0
 4053 0e04 D8DC7600 		.word	7789784
 4054 0e08 76DCD8D8 		.word	-656876426
 4055 0e0c 00000000 		.word	0
 4056 0e10 CC780000 		.word	30924
 4057 0e14 CCD8CCCC 		.word	-858990388
 4058 0e18 CCC6C6C6 		.word	-960051508
 4059 0e1c 00000000 		.word	0
AARCH64 GAS  C:\Users\ldebo\AppData\Local\Temp\ccfW7LPV.s 			page 73


 4060 0e20 C6FE0000 		.word	65222
 4061 0e24 C0C0C0C6 		.word	-960446272
 4062 0e28 C0C0C0C0 		.word	-1061109568
 4063 0e2c 00000000 		.word	0
 4064 0e30 00000000 		.word	0
 4065 0e34 6C6C6CFE 		.word	-26448788
 4066 0e38 6C6C6C6C 		.word	1819044972
 4067 0e3c 00000000 		.word	0
 4068 0e40 FE000000 		.word	254
 4069 0e44 183060C6 		.word	-966774760
 4070 0e48 FEC66030 		.word	811648766
 4071 0e4c 00000000 		.word	0
 4072 0e50 00000000 		.word	0
 4073 0e54 D8D87E00 		.word	8313048
 4074 0e58 70D8D8D8 		.word	-656877456
 4075 0e5c 00000000 		.word	0
 4076 0e60 00000000 		.word	0
 4077 0e64 66666666 		.word	1717986918
 4078 0e68 60607C66 		.word	1719427168
 4079 0e6c 000000C0 		.word	-1073741824
 4080 0e70 00000000 		.word	0
 4081 0e74 1818DC76 		.word	1994135576
 4082 0e78 18181818 		.word	404232216
 4083 0e7c 00000000 		.word	0
 4084 0e80 7E000000 		.word	126
 4085 0e84 66663C18 		.word	406611558
 4086 0e88 7E183C66 		.word	1715214462
 4087 0e8c 00000000 		.word	0
 4088 0e90 38000000 		.word	56
 4089 0e94 FEC6C66C 		.word	1824966398
 4090 0e98 386CC6C6 		.word	-960074696
 4091 0e9c 00000000 		.word	0
 4092 0ea0 6C380000 		.word	14444
 4093 0ea4 6CC6C6C6 		.word	-960051604
 4094 0ea8 EE6C6C6C 		.word	1819045102
 4095 0eac 00000000 		.word	0
 4096 0eb0 301E0000 		.word	7728
 4097 0eb4 663E0C18 		.word	403455590
 4098 0eb8 3C666666 		.word	1717986876
 4099 0ebc 00000000 		.word	0
 4100 0ec0 00000000 		.word	0
 4101 0ec4 DBDB7E00 		.word	8313819
 4102 0ec8 00007EDB 		.word	-612499456
 4103 0ecc 00000000 		.word	0
 4104 0ed0 03000000 		.word	3
 4105 0ed4 DBDB7E06 		.word	108977115
 4106 0ed8 C0607EF3 		.word	-209821504
 4107 0edc 00000000 		.word	0
 4108 0ee0 301C0000 		.word	7216
 4109 0ee4 607C6060 		.word	1616936032
 4110 0ee8 1C306060 		.word	1616916508
 4111 0eec 00000000 		.word	0
 4112 0ef0 7C000000 		.word	124
 4113 0ef4 C6C6C6C6 		.word	-960051514
 4114 0ef8 C6C6C6C6 		.word	-960051514
 4115 0efc 00000000 		.word	0
 4116 0f00 00000000 		.word	0
AARCH64 GAS  C:\Users\ldebo\AppData\Local\Temp\ccfW7LPV.s 			page 74


 4117 0f04 FE0000FE 		.word	-33554178
 4118 0f08 00FE0000 		.word	65024
 4119 0f0c 00000000 		.word	0
 4120 0f10 00000000 		.word	0
 4121 0f14 187E1818 		.word	404258328
 4122 0f18 FF000018 		.word	402653439
 4123 0f1c 00000000 		.word	0
 4124 0f20 30000000 		.word	48
 4125 0f24 0C060C18 		.word	403441164
 4126 0f28 7E003018 		.word	405799038
 4127 0f2c 00000000 		.word	0
 4128 0f30 0C000000 		.word	12
 4129 0f34 30603018 		.word	405823536
 4130 0f38 7E000C18 		.word	403439742
 4131 0f3c 00000000 		.word	0
 4132 0f40 1B0E0000 		.word	3611
 4133 0f44 1818181B 		.word	454563864
 4134 0f48 18181818 		.word	404232216
 4135 0f4c 18181818 		.word	404232216
 4136 0f50 18181818 		.word	404232216
 4137 0f54 18181818 		.word	404232216
 4138 0f58 70D8D8D8 		.word	-656877456
 4139 0f5c 00000000 		.word	0
 4140 0f60 00000000 		.word	0
 4141 0f64 7E001818 		.word	404226174
 4142 0f68 00181800 		.word	1579008
 4143 0f6c 00000000 		.word	0
 4144 0f70 00000000 		.word	0
 4145 0f74 00DC7600 		.word	7789568
 4146 0f78 0000DC76 		.word	1994129408
 4147 0f7c 00000000 		.word	0
 4148 0f80 6C6C3800 		.word	3697772
 4149 0f84 00000038 		.word	939524096
 4150 0f88 00000000 		.word	0
 4151 0f8c 00000000 		.word	0
 4152 0f90 00000000 		.word	0
 4153 0f94 18000000 		.word	24
 4154 0f98 00000018 		.word	402653184
 4155 0f9c 00000000 		.word	0
 4156 0fa0 00000000 		.word	0
 4157 0fa4 00000000 		.word	0
 4158 0fa8 00000018 		.word	402653184
 4159 0fac 00000000 		.word	0
 4160 0fb0 0C0C0F00 		.word	986124
 4161 0fb4 EC0C0C0C 		.word	202116332
 4162 0fb8 1C3C6C6C 		.word	1819032604
 4163 0fbc 00000000 		.word	0
 4164 0fc0 6C6CD800 		.word	14183532
 4165 0fc4 006C6C6C 		.word	1819044864
 4166 0fc8 00000000 		.word	0
 4167 0fcc 00000000 		.word	0
 4168 0fd0 30D87000 		.word	7395376
 4169 0fd4 00F8C860 		.word	1623783424
 4170 0fd8 00000000 		.word	0
 4171 0fdc 00000000 		.word	0
 4172 0fe0 00000000 		.word	0
 4173 0fe4 7C7C7C7C 		.word	2088533116
AARCH64 GAS  C:\Users\ldebo\AppData\Local\Temp\ccfW7LPV.s 			page 75


 4174 0fe8 007C7C7C 		.word	2088532992
 4175 0fec 00000000 		.word	0
 4176 0ff0 00000000 		.word	0
 4177 0ff4 00000000 		.word	0
 4178 0ff8 00000000 		.word	0
 4179 0ffc 00000000 		.word	0
 4180              		.data
 4181              		.align	2
 4182              		.set	.LANCHOR1,. + 0
 4183              		.type	ActivityGPIOPort, %object
 4184              		.size	ActivityGPIOPort, 4
 4185              	ActivityGPIOPort:
 4186 0000 2F000000 		.word	47
 4187              		.bss
 4188              		.align	3
 4189              		.set	.LANCHOR0,. + 0
 4190              		.type	ModelCheckHasRun, %object
 4191              		.size	ModelCheckHasRun, 1
 4192              	ModelCheckHasRun:
 4193 0000 00       		.zero	1
 4194 0001 000000   		.zero	3
 4195              		.type	console, %object
 4196              		.size	console, 104
 4197              	console:
 4198 0004 00000000 		.zero	104
 4198      00000000 
 4198      00000000 
 4198      00000000 
 4198      00000000 
 4199 006c 00000000 		.zero	4
 4200              		.type	heap_end.4858, %object
 4201              		.size	heap_end.4858, 8
 4202              	heap_end.4858:
 4203 0070 00000000 		.zero	8
 4203      00000000 
 4204              		.section	.rodata,"a",%progbits; //,"a",@progbits
 4205              		.align	2
 4206              		.type	BitFontEnd, %object
 4207              		.size	BitFontEnd, 4
 4208              	BitFontEnd:
 4209 1000 00000000 		.zero	4
 4210              		.section	.rodata.str1.8,"aMS",@progbits,1
 4211              		.align	3
 4212              	.LC0:
 4213 0000 61726D31 		.string	"arm1176jzf-s"
 4213      3137366A 
 4213      7A662D73 
 4213      00
 4214 000d 000000   		.zero	3
 4215              	.LC1:
 4216 0010 636F7274 		.string	"cortex-a7"
 4216      65782D61 
 4216      3700
 4217 001a 00000000 		.zero	6
 4217      0000
 4218              	.LC2:
 4219 0020 636F7274 		.string	"cortex-a53"
AARCH64 GAS  C:\Users\ldebo\AppData\Local\Temp\ccfW7LPV.s 			page 76


 4219      65782D61 
 4219      353300
 4220 002b 00000000 		.zero	5
 4220      00
 4221              	.LC3:
 4222 0030 756E6B6E 		.string	"unknown ARM cpu"
 4222      6F776E20 
 4222      41524D20 
 4222      63707500 
 4223              	.LC4:
 4224 0040 43505520 		.string	"CPU frequency set to %u Hz\n"
 4224      66726571 
 4224      75656E63 
 4224      79207365 
 4224      7420746F 
 4225 005c 00000000 		.zero	4
 4226              	.LC5:
 4227 0060 536D6172 		.string	"SmartStart v2.02 compiled for Arm%d, AARCH%d with %u core s/w support\n"
 4227      74537461 
 4227      72742076 
 4227      322E3032 
 4227      20636F6D 
 4228 00a7 00       		.zero	1
 4229              	.LC6:
 4230 00a8 44657465 		.string	"Detected %s CPU, part id: 0x%03X, Cores made ready for use: %u\n"
 4230      63746564 
 4230      20257320 
 4230      4350552C 
 4230      20706172 
 4231              	.LC7:
 4232 00e8 53637265 		.string	"Screen resolution %i x %i Colour Depth: %i\n"
 4232      656E2072 
 4232      65736F6C 
 4232      7574696F 
 4232      6E202569 
 4233              		.ident	"GCC: (Linaro GCC 7.1-2017.05) 7.1.1 20170510"
AARCH64 GAS  C:\Users\ldebo\AppData\Local\Temp\ccfW7LPV.s 			page 77


DEFINED SYMBOLS
                            *ABS*:0000000000000000 rpi-SmartStart.c
C:\Users\ldebo\AppData\Local\Temp\ccfW7LPV.s:4      .text:0000000000000000 $x
C:\Users\ldebo\AppData\Local\Temp\ccfW7LPV.s:7      .text:0000000000000000 ClearArea16
C:\Users\ldebo\AppData\Local\Temp\ccfW7LPV.s:59     .text:00000000000000b0 VertLine16
C:\Users\ldebo\AppData\Local\Temp\ccfW7LPV.s:123    .text:0000000000000190 HorzLine16
C:\Users\ldebo\AppData\Local\Temp\ccfW7LPV.s:165    .text:0000000000000220 DiagLine16
C:\Users\ldebo\AppData\Local\Temp\ccfW7LPV.s:219    .text:00000000000002e0 WriteChar16
C:\Users\ldebo\AppData\Local\Temp\ccfW7LPV.s:3155   .rodata:0000000000000000 BitFont
C:\Users\ldebo\AppData\Local\Temp\ccfW7LPV.s:288    .text:00000000000003e0 TransparentWriteChar16
C:\Users\ldebo\AppData\Local\Temp\ccfW7LPV.s:345    .text:00000000000004a0 PutImage16
C:\Users\ldebo\AppData\Local\Temp\ccfW7LPV.s:393    .text:0000000000000540 ClearArea24
C:\Users\ldebo\AppData\Local\Temp\ccfW7LPV.s:438    .text:00000000000005d0 VertLine24
C:\Users\ldebo\AppData\Local\Temp\ccfW7LPV.s:494    .text:0000000000000690 HorzLine24
C:\Users\ldebo\AppData\Local\Temp\ccfW7LPV.s:529    .text:0000000000000700 DiagLine24
C:\Users\ldebo\AppData\Local\Temp\ccfW7LPV.s:576    .text:00000000000007a0 WriteChar24
C:\Users\ldebo\AppData\Local\Temp\ccfW7LPV.s:629    .text:0000000000000850 TransparentWriteChar24
C:\Users\ldebo\AppData\Local\Temp\ccfW7LPV.s:679    .text:0000000000000900 PutImage24
C:\Users\ldebo\AppData\Local\Temp\ccfW7LPV.s:729    .text:00000000000009b0 ClearArea32
C:\Users\ldebo\AppData\Local\Temp\ccfW7LPV.s:767    .text:0000000000000a30 VertLine32
C:\Users\ldebo\AppData\Local\Temp\ccfW7LPV.s:814    .text:0000000000000ad0 HorzLine32
C:\Users\ldebo\AppData\Local\Temp\ccfW7LPV.s:844    .text:0000000000000b30 DiagLine32
C:\Users\ldebo\AppData\Local\Temp\ccfW7LPV.s:886    .text:0000000000000bc0 WriteChar32
C:\Users\ldebo\AppData\Local\Temp\ccfW7LPV.s:940    .text:0000000000000c70 TransparentWriteChar32
C:\Users\ldebo\AppData\Local\Temp\ccfW7LPV.s:983    .text:0000000000000d00 PutImage32
C:\Users\ldebo\AppData\Local\Temp\ccfW7LPV.s:1026   .text:0000000000000d90 mailbox_tag_message.constprop.7
C:\Users\ldebo\AppData\Local\Temp\ccfW7LPV.s:1127   .text:0000000000000ee0 mailbox_tag_message.constprop.4
C:\Users\ldebo\AppData\Local\Temp\ccfW7LPV.s:1208   .text:0000000000001000 mailbox_tag_message.constprop.5
C:\Users\ldebo\AppData\Local\Temp\ccfW7LPV.s:1304   .text:0000000000001150 mailbox_tag_message.constprop.6
C:\Users\ldebo\AppData\Local\Temp\ccfW7LPV.s:1370   .text:0000000000001230 RPi_CpuIdString
C:\Users\ldebo\AppData\Local\Temp\ccfW7LPV.s:1400   .text:0000000000001290 gpio_setup
C:\Users\ldebo\AppData\Local\Temp\ccfW7LPV.s:1435   .text:0000000000001300 gpio_output
C:\Users\ldebo\AppData\Local\Temp\ccfW7LPV.s:1471   .text:0000000000001370 gpio_input
C:\Users\ldebo\AppData\Local\Temp\ccfW7LPV.s:1496   .text:00000000000013c0 gpio_checkEvent
C:\Users\ldebo\AppData\Local\Temp\ccfW7LPV.s:1520   .text:0000000000001400 gpio_clearEvent
C:\Users\ldebo\AppData\Local\Temp\ccfW7LPV.s:1543   .text:0000000000001440 gpio_edgeDetect
C:\Users\ldebo\AppData\Local\Temp\ccfW7LPV.s:1599   .text:00000000000014f0 gpio_fixResistor
C:\Users\ldebo\AppData\Local\Temp\ccfW7LPV.s:1669   .text:00000000000015e0 timer_getTickCount
C:\Users\ldebo\AppData\Local\Temp\ccfW7LPV.s:1688   .text:0000000000001610 timer_wait
C:\Users\ldebo\AppData\Local\Temp\ccfW7LPV.s:1719   .text:0000000000001670 tick_difference
C:\Users\ldebo\AppData\Local\Temp\ccfW7LPV.s:1727   .text:0000000000001680 mailbox_write
C:\Users\ldebo\AppData\Local\Temp\ccfW7LPV.s:1752   .text:00000000000016c0 mailbox_read
C:\Users\ldebo\AppData\Local\Temp\ccfW7LPV.s:1779   .text:0000000000001710 mailbox_tag_message
C:\Users\ldebo\AppData\Local\Temp\ccfW7LPV.s:1894   .text:0000000000001890 TimerIrqSetup
C:\Users\ldebo\AppData\Local\Temp\ccfW7LPV.s:1962   .text:0000000000001990 set_Activity_LED
C:\Users\ldebo\AppData\Local\Temp\ccfW7LPV.s:2080   .text:0000000000001b20 ARM_setmaxspeed
C:\Users\ldebo\AppData\Local\Temp\ccfW7LPV.s:2131   .text:0000000000001bd0 displaySmartStart
C:\Users\ldebo\AppData\Local\Temp\ccfW7LPV.s:2195   .text:0000000000001cb0 Embedded_Console_WriteChar
C:\Users\ldebo\AppData\Local\Temp\ccfW7LPV.s:2251   .text:0000000000001d70 WriteText
C:\Users\ldebo\AppData\Local\Temp\ccfW7LPV.s:2330   .text:0000000000001e70 SetDCPenColor
C:\Users\ldebo\AppData\Local\Temp\ccfW7LPV.s:2343   .text:0000000000001e90 SetDCBrushColor
C:\Users\ldebo\AppData\Local\Temp\ccfW7LPV.s:2356   .text:0000000000001eb0 MoveToEx
C:\Users\ldebo\AppData\Local\Temp\ccfW7LPV.s:2376   .text:0000000000001ee0 LineTo
C:\Users\ldebo\AppData\Local\Temp\ccfW7LPV.s:2439   .text:0000000000001fa0 TextOut
C:\Users\ldebo\AppData\Local\Temp\ccfW7LPV.s:2485   .text:0000000000002030 TransparentTextOut
C:\Users\ldebo\AppData\Local\Temp\ccfW7LPV.s:2524   .text:00000000000020a0 BmpOut
C:\Users\ldebo\AppData\Local\Temp\ccfW7LPV.s:2550   .text:00000000000020f0 CvtBmpLine
AARCH64 GAS  C:\Users\ldebo\AppData\Local\Temp\ccfW7LPV.s 			page 78


C:\Users\ldebo\AppData\Local\Temp\ccfW7LPV.s:2744   .text:0000000000002390 Rectangle
C:\Users\ldebo\AppData\Local\Temp\ccfW7LPV.s:2762   .text:00000000000023c0 PiConsole_Init
C:\Users\ldebo\AppData\Local\Temp\ccfW7LPV.s:2957   .text:0000000000002680 GetConsoleDC
C:\Users\ldebo\AppData\Local\Temp\ccfW7LPV.s:2967   .text:0000000000002690 GetConsole_FrameBuffer
C:\Users\ldebo\AppData\Local\Temp\ccfW7LPV.s:2976   .text:00000000000026a0 GetConsole_Width
C:\Users\ldebo\AppData\Local\Temp\ccfW7LPV.s:2985   .text:00000000000026b0 GetConsole_Height
C:\Users\ldebo\AppData\Local\Temp\ccfW7LPV.s:2994   .text:00000000000026c0 _sbrk
C:\Users\ldebo\AppData\Local\Temp\ccfW7LPV.s:3011   .text:00000000000026f0 _kill
C:\Users\ldebo\AppData\Local\Temp\ccfW7LPV.s:3022   .text:0000000000002710 _getpid
C:\Users\ldebo\AppData\Local\Temp\ccfW7LPV.s:3030   .text:0000000000002720 _read
C:\Users\ldebo\AppData\Local\Temp\ccfW7LPV.s:3038   .text:0000000000002730 _close
C:\Users\ldebo\AppData\Local\Temp\ccfW7LPV.s:3046   .text:0000000000002740 _lseek
C:\Users\ldebo\AppData\Local\Temp\ccfW7LPV.s:3054   .text:0000000000002750 _isatty
C:\Users\ldebo\AppData\Local\Temp\ccfW7LPV.s:3062   .text:0000000000002760 _fstat
C:\Users\ldebo\AppData\Local\Temp\ccfW7LPV.s:3072   .text:0000000000002770 _exit
C:\Users\ldebo\AppData\Local\Temp\ccfW7LPV.s:3081   .text:0000000000002780 _write
C:\Users\ldebo\AppData\Local\Temp\ccfW7LPV.s:4197   .bss:0000000000000004 console
C:\Users\ldebo\AppData\Local\Temp\ccfW7LPV.s:4208   .rodata:0000000000001000 BitFontEnd
C:\Users\ldebo\AppData\Local\Temp\ccfW7LPV.s:3152   .rodata:0000000000000000 $d
C:\Users\ldebo\AppData\Local\Temp\ccfW7LPV.s:4181   .data:0000000000000000 $d
C:\Users\ldebo\AppData\Local\Temp\ccfW7LPV.s:4185   .data:0000000000000000 ActivityGPIOPort
C:\Users\ldebo\AppData\Local\Temp\ccfW7LPV.s:4188   .bss:0000000000000000 $d
C:\Users\ldebo\AppData\Local\Temp\ccfW7LPV.s:4192   .bss:0000000000000000 ModelCheckHasRun
C:\Users\ldebo\AppData\Local\Temp\ccfW7LPV.s:4202   .bss:0000000000000070 heap_end.4858
C:\Users\ldebo\AppData\Local\Temp\ccfW7LPV.s:4211   .rodata.str1.8:0000000000000000 $d

UNDEFINED SYMBOLS
ARMaddrToGPUaddr
RPi_IO_Base_Addr
RPi_CpuId
setTimerIrqAddress
RPi_CompileMode
RPi_CoresReady
strlen
GPUaddrToARMaddr
_end
errno
AARCH64 GAS  C:\Users\ldebo\AppData\Local\Temp\ccfW7LPV.s 			page 1


   1              		.arch armv8-a
   2              		.file	"emb-stdio.c"
   3              		.text
   4              		.align	2
   5              		.p2align 4,,15
   6              		.type	number, %function
   7              	number:
   8 0000 FF4301D1 		sub	sp, sp, #80
   9 0004 AE001B12 		and	w14, w5, 32
  10 0008 B0001C12 		and	w16, w5, 16
  11 000c 250F2036 		tbz	x5, 4, .L2
  12 0010 A5781F12 		and	w5, w5, -2
  13 0014 0C048052 		mov	w12, 32
  14              	.L25:
  15 0018 0F008052 		mov	w15, 0
  16 001c E5000836 		tbz	x5, 1, .L3
  17 0020 C111F8B7 		tbnz	x1, #63, .L50
  18 0024 E50F1037 		tbnz	x5, 2, .L51
  19 0028 85001836 		tbz	x5, 3, .L3
  20 002c 63040051 		sub	w3, w3, #1
  21 0030 0F048052 		mov	w15, 32
  22 0034 1F2003D5 		.p2align 3
  23              	.L3:
  24 0038 B1001A12 		and	w17, w5, 64
  25 003c C5003036 		tbz	x5, 6, .L6
  26              	.L58:
  27 0040 5F400071 		cmp	w2, 16
  28 0044 E0110054 		beq	.L52
  29 0048 5F200071 		cmp	w2, 8
  30 004c E6179F1A 		cset	w6, eq
  31 0050 6300064B 		sub	w3, w3, w6
  32              	.L6:
  33 0054 A10D00B4 		cbz	x1, .L53
  34              	.L8:
  35 0058 0D000090 		adrp	x13, .LANCHOR0
  36 005c AD010091 		add	x13, x13, :lo12:.LANCHOR0
  37 0060 4A7C4093 		sxtw	x10, w2
  38 0064 E9230091 		add	x9, sp, 8
  39 0068 260080D2 		mov	x6, 1
  40 006c 1F2003D5 		.p2align 3
  41              	.L10:
  42 0070 E80301AA 		mov	x8, x1
  43 0074 2701068B 		add	x7, x9, x6
  44 0078 2108CA9A 		udiv	x1, x1, x10
  45 007c EB03062A 		mov	w11, w6
  46 0080 C6040091 		add	x6, x6, 1
  47 0084 28A00A9B 		msub	x8, x1, x10, x8
  48 0088 A8C96838 		ldrb	w8, [x13, w8, sxtw]
  49 008c C801082A 		orr	w8, w14, w8
  50 0090 E8F01F38 		strb	w8, [x7, -1]
  51 0094 E1FEFFB5 		cbnz	x1, .L10
  52 0098 66050051 		sub	w6, w11, #1
  53              	.L9:
  54 009c 7F01046B 		cmp	w11, w4
  55 00a0 21028052 		mov	w1, 17
  56 00a4 64A1841A 		csel	w4, w11, w4, ge
  57 00a8 BF00016A 		tst	w5, w1
AARCH64 GAS  C:\Users\ldebo\AppData\Local\Temp\ccfW7LPV.s 			page 2


  58 00ac 6300044B 		sub	w3, w3, w4
  59 00b0 65040051 		sub	w5, w3, #1
  60 00b4 C1010054 		bne	.L11
  61 00b8 7F000071 		cmp	w3, 0
  62 00bc AD0E0054 		ble	.L54
  63 00c0 A1040091 		add	x1, x5, 1
  64 00c4 E30300AA 		mov	x3, x0
  65 00c8 0100018B 		add	x1, x0, x1
  66 00cc 07048052 		mov	w7, 32
  67              		.p2align 3
  68              	.L13:
  69 00d0 67140038 		strb	w7, [x3], 1
  70 00d4 3F0003EB 		cmp	x1, x3
  71 00d8 C1FFFF54 		bne	.L13
  72 00dc A1040091 		add	x1, x5, 1
  73 00e0 03008012 		mov	w3, -1
  74 00e4 0000018B 		add	x0, x0, x1
  75 00e8 25008012 		mov	w5, -2
  76              	.L11:
  77 00ec 6F000034 		cbz	w15, .L14
  78 00f0 0F000039 		strb	w15, [x0]
  79 00f4 00040091 		add	x0, x0, 1
  80              	.L14:
  81 00f8 B1000034 		cbz	w17, .L15
  82 00fc 5F200071 		cmp	w2, 8
  83 0100 800B0054 		beq	.L55
  84 0104 5F400071 		cmp	w2, 16
  85 0108 80090054 		beq	.L56
  86              	.L15:
  87 010c 50020035 		cbnz	w16, .L17
  88 0110 E203052A 		mov	w2, w5
  89 0114 E70300AA 		mov	x7, x0
  90 0118 7F000071 		cmp	w3, 0
  91 011c 2D0C0054 		ble	.L57
  92              		.p2align 3
  93              	.L18:
  94 0120 42040051 		sub	w2, w2, #1
  95 0124 EC140038 		strb	w12, [x7], 1
  96 0128 43040011 		add	w3, w2, 1
  97 012c 7F000071 		cmp	w3, 0
  98 0130 8CFFFF54 		bgt	.L18
  99 0134 BF000071 		cmp	w5, 0
 100 0138 A3040051 		sub	w3, w5, #1
 101 013c A5A09F1A 		csel	w5, w5, wzr, ge
 102 0140 A17C4093 		sxtw	x1, w5
 103 0144 6300054B 		sub	w3, w3, w5
 104 0148 21040091 		add	x1, x1, 1
 105 014c 65040051 		sub	w5, w3, #1
 106 0150 0000018B 		add	x0, x0, x1
 107              	.L17:
 108 0154 7F01046B 		cmp	w11, w4
 109 0158 2A010054 		bge	.L20
 110 015c 81000B4B 		sub	w1, w4, w11
 111 0160 02068052 		mov	w2, 48
 112 0164 21040051 		sub	w1, w1, #1
 113 0168 21040091 		add	x1, x1, 1
 114 016c 0100018B 		add	x1, x0, x1
AARCH64 GAS  C:\Users\ldebo\AppData\Local\Temp\ccfW7LPV.s 			page 3


 115              		.p2align 3
 116              	.L21:
 117 0170 02140038 		strb	w2, [x0], 1
 118 0174 3F0000EB 		cmp	x1, x0
 119 0178 C1FFFF54 		bne	.L21
 120              	.L20:
 121 017c C67C4093 		sxtw	x6, w6
 122 0180 E20300AA 		mov	x2, x0
 123 0184 E10306AA 		mov	x1, x6
 124              		.p2align 3
 125              	.L22:
 126 0188 24696138 		ldrb	w4, [x9, x1]
 127 018c 210400D1 		sub	x1, x1, #1
 128 0190 44140038 		strb	w4, [x2], 1
 129 0194 24040011 		add	w4, w1, 1
 130 0198 9F000071 		cmp	w4, 0
 131 019c 6CFFFF54 		bgt	.L22
 132 01a0 C6040091 		add	x6, x6, 1
 133 01a4 7F000071 		cmp	w3, 0
 134 01a8 0000068B 		add	x0, x0, x6
 135 01ac ED010054 		ble	.L1
 136 01b0 E103052A 		mov	w1, w5
 137 01b4 E20300AA 		mov	x2, x0
 138 01b8 04048052 		mov	w4, 32
 139 01bc 1F2003D5 		.p2align 3
 140              	.L24:
 141 01c0 21040051 		sub	w1, w1, #1
 142 01c4 44140038 		strb	w4, [x2], 1
 143 01c8 23040011 		add	w3, w1, 1
 144 01cc 7F000071 		cmp	w3, 0
 145 01d0 8CFFFF54 		bgt	.L24
 146 01d4 BF000071 		cmp	w5, 0
 147 01d8 A1A09F1A 		csel	w1, w5, wzr, ge
 148 01dc 217C4093 		sxtw	x1, w1
 149 01e0 21040091 		add	x1, x1, 1
 150 01e4 0000018B 		add	x0, x0, x1
 151              	.L1:
 152 01e8 FF430191 		add	sp, sp, 80
 153 01ec C0035FD6 		ret
 154              		.p2align 3
 155              	.L2:
 156 01f0 BF0040F2 		tst	x5, 1
 157 01f4 0C048052 		mov	w12, 32
 158 01f8 06068052 		mov	w6, 48
 159 01fc 8C01861A 		csel	w12, w12, w6, eq
 160 0200 86FFFF17 		b	.L25
 161 0204 1F2003D5 		.p2align 3
 162              	.L53:
 163 0208 E9430191 		add	x9, sp, 80
 164 020c 01068052 		mov	w1, 48
 165 0210 06008052 		mov	w6, 0
 166 0214 2B008052 		mov	w11, 1
 167 0218 218D1B38 		strb	w1, [x9, -72]!
 168 021c A0FFFF17 		b	.L9
 169              		.p2align 3
 170              	.L51:
 171 0220 63040051 		sub	w3, w3, #1
AARCH64 GAS  C:\Users\ldebo\AppData\Local\Temp\ccfW7LPV.s 			page 4


 172 0224 6F058052 		mov	w15, 43
 173 0228 B1001A12 		and	w17, w5, 64
 174 022c 45F13736 		tbz	x5, 6, .L6
 175 0230 84FFFF17 		b	.L58
 176 0234 1F2003D5 		.p2align 3
 177              	.L56:
 178 0238 E10300AA 		mov	x1, x0
 179 023c 07068052 		mov	w7, 48
 180 0240 020B8052 		mov	w2, 88
 181 0244 CE01022A 		orr	w14, w14, w2
 182 0248 27240038 		strb	w7, [x1], 2
 183 024c 0E040039 		strb	w14, [x0, 1]
 184 0250 E00301AA 		mov	x0, x1
 185 0254 AEFFFF17 		b	.L15
 186              		.p2align 3
 187              	.L50:
 188 0258 E10301CB 		neg	x1, x1
 189 025c 63040051 		sub	w3, w3, #1
 190 0260 AF058052 		mov	w15, 45
 191 0264 B1001A12 		and	w17, w5, 64
 192 0268 65EF3736 		tbz	x5, 6, .L6
 193 026c 75FFFF17 		b	.L58
 194              		.p2align 3
 195              	.L55:
 196 0270 00040091 		add	x0, x0, 1
 197 0274 01068052 		mov	w1, 48
 198 0278 01F01F38 		strb	w1, [x0, -1]
 199 027c A4FFFF17 		b	.L15
 200              		.p2align 3
 201              	.L52:
 202 0280 63080051 		sub	w3, w3, #2
 203 0284 A1EEFFB5 		cbnz	x1, .L8
 204 0288 E0FFFF17 		b	.L53
 205 028c 1F2003D5 		.p2align 3
 206              	.L54:
 207 0290 61080051 		sub	w1, w3, #2
 208 0294 E303052A 		mov	w3, w5
 209 0298 E503012A 		mov	w5, w1
 210 029c 94FFFF17 		b	.L11
 211              		.p2align 3
 212              	.L57:
 213 02a0 E303052A 		mov	w3, w5
 214 02a4 A5040051 		sub	w5, w5, #1
 215 02a8 ABFFFF17 		b	.L17
 216              		.size	number, .-number
 217              		.align	2
 218 02ac 1F2003D5 		.p2align 4,,15
 219              		.weak	strnlen
 220              		.type	strnlen, %function
 221              	strnlen:
 222 02b0 E30300AA 		mov	x3, x0
 223 02b4 610100B4 		cbz	x1, .L63
 224 02b8 00004039 		ldrb	w0, [x0]
 225 02bc 20010034 		cbz	w0, .L63
 226 02c0 000080D2 		mov	x0, 0
 227 02c4 03000014 		b	.L61
 228              		.p2align 3
AARCH64 GAS  C:\Users\ldebo\AppData\Local\Temp\ccfW7LPV.s 			page 5


 229              	.L65:
 230 02c8 62686038 		ldrb	w2, [x3, x0]
 231 02cc 82000034 		cbz	w2, .L59
 232              	.L61:
 233 02d0 00040091 		add	x0, x0, 1
 234 02d4 3F0000EB 		cmp	x1, x0
 235 02d8 81FFFF54 		bne	.L65
 236              	.L59:
 237 02dc C0035FD6 		ret
 238              		.p2align 3
 239              	.L63:
 240 02e0 000080D2 		mov	x0, 0
 241 02e4 C0035FD6 		ret
 242              		.size	strnlen, .-strnlen
 243              		.align	2
 244 02e8 1F2003D5 		.p2align 4,,15
 244      1F2003D5 
 245              		.global	emb_vsprintf
 246              		.type	emb_vsprintf, %function
 247              	emb_vsprintf:
 248 02f0 F353BAA9 		stp	x19, x20, [sp, -96]!
 249 02f4 F30301AA 		mov	x19, x1
 250 02f8 F40300AA 		mov	x20, x0
 251 02fc F6DF01A9 		stp	x22, x23, [sp, 24]
 252 0300 FA1F00F9 		str	x26, [sp, 56]
 253 0304 FE2700F9 		str	x30, [sp, 72]
 254 0308 21004039 		ldrb	w1, [x1]
 255 030c 5A1840B9 		ldr	w26, [x2, 24]
 256 0310 565C40A9 		ldp	x22, x23, [x2]
 257 0314 61270034 		cbz	w1, .L159
 258 0318 F50B00F9 		str	x21, [sp, 16]
 259 031c F50300AA 		mov	x21, x0
 260 0320 F8E702A9 		stp	x24, x25, [sp, 40]
 261 0324 190D8052 		mov	w25, 104
 262 0328 58018052 		mov	w24, 10
 263 032c 06000014 		b	.L155
 264              		.p2align 3
 265              	.L217:
 266 0330 81020039 		strb	w1, [x20]
 267 0334 94060091 		add	x20, x20, 1
 268 0338 61064039 		ldrb	w1, [x19, 1]
 269              	.L69:
 270 033c 73060091 		add	x19, x19, 1
 271 0340 010A0034 		cbz	w1, .L138
 272              	.L155:
 273 0344 3F940071 		cmp	w1, 37
 274 0348 41FFFF54 		bne	.L217
 275 034c 61064039 		ldrb	w1, [x19, 1]
 276 0350 05008052 		mov	w5, 0
 277 0354 62060091 		add	x2, x19, 1
 278 0358 3FAC0071 		cmp	w1, 43
 279 035c 80010054 		beq	.L71
 280              		.p2align 3
 281              	.L218:
 282 0360 C8010054 		bhi	.L72
 283 0364 3F800071 		cmp	w1, 32
 284 0368 C0070054 		beq	.L73
AARCH64 GAS  C:\Users\ldebo\AppData\Local\Temp\ccfW7LPV.s 			page 6


 285 036c 3F8C0071 		cmp	w1, 35
 286 0370 41020054 		bne	.L70
 287 0374 A5001A32 		orr	w5, w5, 64
 288 0378 F30302AA 		mov	x19, x2
 289              	.L219:
 290 037c 61064039 		ldrb	w1, [x19, 1]
 291 0380 62060091 		add	x2, x19, 1
 292 0384 3FAC0071 		cmp	w1, 43
 293 0388 C1FEFF54 		bne	.L218
 294              	.L71:
 295 038c A5001E32 		orr	w5, w5, 4
 296 0390 F30302AA 		mov	x19, x2
 297 0394 FAFFFF17 		b	.L219
 298              		.p2align 3
 299              	.L72:
 300 0398 3FB40071 		cmp	w1, 45
 301 039c A0060054 		beq	.L75
 302 03a0 3FC00071 		cmp	w1, 48
 303 03a4 A1000054 		bne	.L70
 304 03a8 A5000032 		orr	w5, w5, 1
 305 03ac F30302AA 		mov	x19, x2
 306 03b0 F3FFFF17 		b	.L219
 307 03b4 1F2003D5 		.p2align 3
 308              	.L70:
 309 03b8 20C00051 		sub	w0, w1, #48
 310 03bc 001C0012 		and	w0, w0, 255
 311 03c0 1F240071 		cmp	w0, 9
 312 03c4 A90B0054 		bls	.L161
 313 03c8 03008012 		mov	w3, -1
 314 03cc 3FA80071 		cmp	w1, 42
 315 03d0 80140054 		beq	.L220
 316              	.L80:
 317 03d4 04008012 		mov	w4, -1
 318 03d8 3FB80071 		cmp	w1, 46
 319 03dc 60060054 		beq	.L221
 320              	.L85:
 321 03e0 20781A12 		and	w0, w1, -33
 322 03e4 1F300171 		cmp	w0, 76
 323 03e8 2410597A 		ccmp	w1, w25, 4, ne
 324 03ec A1070054 		bne	.L91
 325              	.L226:
 326 03f0 40044039 		ldrb	w0, [x2, 1]
 327 03f4 E603012A 		mov	w6, w1
 328 03f8 53040091 		add	x19, x2, 1
 329 03fc 1FB80171 		cmp	w0, 110
 330 0400 00210054 		beq	.L93
 331 0404 E90A0054 		bls	.L222
 332 0408 1FCC0171 		cmp	w0, 115
 333 040c A0210054 		beq	.L215
 334 0410 890C0054 		bls	.L223
 335 0414 1FD40171 		cmp	w0, 117
 336 0418 40180054 		beq	.L104
 337 041c A5001B32 		orr	w5, w5, 32
 338 0420 02028052 		mov	w2, 16
 339 0424 1FE00171 		cmp	w0, 120
 340 0428 410F0054 		bne	.L92
 341              	.L102:
AARCH64 GAS  C:\Users\ldebo\AppData\Local\Temp\ccfW7LPV.s 			page 7


 342 042c DFB00171 		cmp	w6, 108
 343 0430 C00A0054 		beq	.L224
 344              	.L139:
 345 0434 A1001F12 		and	w1, w5, 2
 346 0438 DFA00171 		cmp	w6, 104
 347 043c 00230054 		beq	.L225
 348              	.L135:
 349 0440 E1060034 		cbz	w1, .L148
 350              	.L229:
 351 0444 5A29F837 		tbnz	w26, #31, .L149
 352 0448 E00316AA 		mov	x0, x22
 353 044c C12E0091 		add	x1, x22, 11
 354 0450 36F07D92 		and	x22, x1, -8
 355 0454 010080B9 		ldrsw	x1, [x0]
 356 0458 1A010014 		b	.L143
 357 045c 1F2003D5 		.p2align 3
 358              	.L73:
 359 0460 A5001D32 		orr	w5, w5, 8
 360 0464 F30302AA 		mov	x19, x2
 361 0468 C5FFFF17 		b	.L219
 362 046c 1F2003D5 		.p2align 3
 363              	.L75:
 364 0470 A5001C32 		orr	w5, w5, 16
 365 0474 F30302AA 		mov	x19, x2
 366 0478 C1FFFF17 		b	.L219
 367              	.L137:
 368 047c 94060091 		add	x20, x20, 1
 369              	.L138:
 370 0480 8002154B 		sub	w0, w20, w21
 371 0484 F50B40F9 		ldr	x21, [sp, 16]
 372 0488 F8E742A9 		ldp	x24, x25, [sp, 40]
 373 048c 9F020039 		strb	wzr, [x20]
 374 0490 F6DF41A9 		ldp	x22, x23, [sp, 24]
 375 0494 FA1F40F9 		ldr	x26, [sp, 56]
 376 0498 FE2740F9 		ldr	x30, [sp, 72]
 377 049c F353C6A8 		ldp	x19, x20, [sp], 96
 378 04a0 C0035FD6 		ret
 379 04a4 1F2003D5 		.p2align 3
 380              	.L221:
 381 04a8 41044039 		ldrb	w1, [x2, 1]
 382 04ac 46040091 		add	x6, x2, 1
 383 04b0 20C00051 		sub	w0, w1, #48
 384 04b4 001C0012 		and	w0, w0, 255
 385 04b8 1F240071 		cmp	w0, 9
 386 04bc A90B0054 		bls	.L163
 387 04c0 3FA80071 		cmp	w1, 42
 388 04c4 60180054 		beq	.L87
 389 04c8 20781A12 		and	w0, w1, -33
 390 04cc E20306AA 		mov	x2, x6
 391 04d0 1F300171 		cmp	w0, 76
 392 04d4 04008052 		mov	w4, 0
 393 04d8 2410597A 		ccmp	w1, w25, 4, ne
 394 04dc A0F8FF54 		beq	.L226
 395              		.p2align 3
 396              	.L91:
 397 04e0 3FB80171 		cmp	w1, 110
 398 04e4 A01C0054 		beq	.L170
AARCH64 GAS  C:\Users\ldebo\AppData\Local\Temp\ccfW7LPV.s 			page 8


 399 04e8 09080054 		bls	.L227
 400 04ec 3FCC0171 		cmp	w1, 115
 401 04f0 001D0054 		beq	.L172
 402 04f4 E90C0054 		bls	.L228
 403 04f8 3FD40171 		cmp	w1, 117
 404 04fc E01A0054 		beq	.L173
 405 0500 3FE00171 		cmp	w1, 120
 406 0504 41080054 		bne	.L165
 407 0508 A1001F12 		and	w1, w5, 2
 408 050c F30302AA 		mov	x19, x2
 409 0510 A5001B32 		orr	w5, w5, 32
 410 0514 02028052 		mov	w2, 16
 411 0518 61F9FF35 		cbnz	w1, .L229
 412              	.L148:
 413 051c 7A27F837 		tbnz	w26, #31, .L152
 414 0520 E00316AA 		mov	x0, x22
 415 0524 C12E0091 		add	x1, x22, 11
 416 0528 36F07D92 		and	x22, x1, -8
 417 052c 010040B9 		ldr	w1, [x0]
 418 0530 E4000014 		b	.L143
 419 0534 1F2003D5 		.p2align 3
 420              	.L161:
 421 0538 03008052 		mov	w3, 0
 422 053c 1F2003D5 		.p2align 3
 423              	.L78:
 424 0540 6304181B 		madd	w3, w3, w24, w1
 425 0544 411C4038 		ldrb	w1, [x2, 1]!
 426 0548 20C00051 		sub	w0, w1, #48
 427 054c 63C00051 		sub	w3, w3, #48
 428 0550 001C0012 		and	w0, w0, 255
 429 0554 1F240071 		cmp	w0, 9
 430 0558 49FFFF54 		bls	.L78
 431 055c 9EFFFF17 		b	.L80
 432              		.p2align 3
 433              	.L222:
 434 0560 1F8C0171 		cmp	w0, 99
 435 0564 600A0054 		beq	.L95
 436 0568 88120054 		bhi	.L96
 437 056c 1F940071 		cmp	w0, 37
 438 0570 C00D0054 		beq	.L97
 439 0574 1F600171 		cmp	w0, 88
 440 0578 C1040054 		bne	.L92
 441              	.L98:
 442 057c 02028052 		mov	w2, 16
 443 0580 DFB00171 		cmp	w6, 108
 444 0584 81F5FF54 		bne	.L139
 445              	.L224:
 446 0588 3A25F837 		tbnz	w26, #31, .L140
 447 058c E00316AA 		mov	x0, x22
 448 0590 C13E0091 		add	x1, x22, 15
 449 0594 36F07D92 		and	x22, x1, -8
 450 0598 010040F9 		ldr	x1, [x0]
 451 059c C9000014 		b	.L143
 452              		.p2align 3
 453              	.L223:
 454 05a0 1FBC0171 		cmp	w0, 111
 455 05a4 A00B0054 		beq	.L164
AARCH64 GAS  C:\Users\ldebo\AppData\Local\Temp\ccfW7LPV.s 			page 9


 456 05a8 1FC00171 		cmp	w0, 112
 457 05ac 21030054 		bne	.L92
 458              	.L103:
 459 05b0 7F040031 		cmn	w3, #1
 460 05b4 600D0054 		beq	.L230
 461              	.L123:
 462 05b8 9A1BF837 		tbnz	w26, #31, .L124
 463 05bc C13E0091 		add	x1, x22, 15
 464 05c0 E00316AA 		mov	x0, x22
 465 05c4 36F07D92 		and	x22, x1, -8
 466              	.L125:
 467 05c8 010040F9 		ldr	x1, [x0]
 468 05cc 02028052 		mov	w2, 16
 469 05d0 E00314AA 		mov	x0, x20
 470 05d4 8BFEFF97 		bl	number
 471 05d8 F40300AA 		mov	x20, x0
 472 05dc 61064039 		ldrb	w1, [x19, 1]
 473 05e0 57FFFF17 		b	.L69
 474 05e4 1F2003D5 		.p2align 3
 475              	.L227:
 476 05e8 3F8C0171 		cmp	w1, 99
 477 05ec 00060054 		beq	.L168
 478 05f0 680A0054 		bhi	.L157
 479 05f4 F30302AA 		mov	x19, x2
 480 05f8 3F940071 		cmp	w1, 37
 481 05fc 60090054 		beq	.L97
 482 0600 06008012 		mov	w6, -1
 483 0604 3F600171 		cmp	w1, 88
 484 0608 A0FBFF54 		beq	.L98
 485              	.L165:
 486 060c F30302AA 		mov	x19, x2
 487              	.L92:
 488 0610 A0048052 		mov	w0, 37
 489 0614 80020039 		strb	w0, [x20]
 490 0618 60024039 		ldrb	w0, [x19]
 491 061c 00F3FF34 		cbz	w0, .L137
 492 0620 80060039 		strb	w0, [x20, 1]
 493 0624 940A0091 		add	x20, x20, 2
 494 0628 61064039 		ldrb	w1, [x19, 1]
 495 062c 44FFFF17 		b	.L69
 496              		.p2align 3
 497              	.L163:
 498 0630 04008052 		mov	w4, 0
 499 0634 1F2003D5 		.p2align 3
 500              	.L86:
 501 0638 8404181B 		madd	w4, w4, w24, w1
 502 063c C11C4038 		ldrb	w1, [x6, 1]!
 503 0640 20C00051 		sub	w0, w1, #48
 504 0644 84C00051 		sub	w4, w4, #48
 505 0648 001C0012 		and	w0, w0, 255
 506 064c 1F240071 		cmp	w0, 9
 507 0650 49FFFF54 		bls	.L86
 508 0654 E20306AA 		mov	x2, x6
 509 0658 62FFFF17 		b	.L85
 510 065c 1F2003D5 		.p2align 3
 511              	.L220:
 512 0660 620A0091 		add	x2, x19, 2
AARCH64 GAS  C:\Users\ldebo\AppData\Local\Temp\ccfW7LPV.s 			page 10


 513 0664 7A1FF837 		tbnz	w26, #31, .L81
 514 0668 C12E0091 		add	x1, x22, 11
 515 066c E00316AA 		mov	x0, x22
 516 0670 36F07D92 		and	x22, x1, -8
 517              	.L82:
 518 0674 030040B9 		ldr	w3, [x0]
 519 0678 610A4039 		ldrb	w1, [x19, 2]
 520 067c C3EAFF36 		tbz	w3, #31, .L80
 521 0680 E303034B 		neg	w3, w3
 522 0684 A5001C32 		orr	w5, w5, 16
 523 0688 53FFFF17 		b	.L80
 524 068c 1F2003D5 		.p2align 3
 525              	.L228:
 526 0690 3FBC0171 		cmp	w1, 111
 527 0694 A00E0054 		beq	.L134
 528 0698 F30302AA 		mov	x19, x2
 529 069c 3FC00171 		cmp	w1, 112
 530 06a0 80F8FF54 		beq	.L103
 531 06a4 F30302AA 		mov	x19, x2
 532 06a8 DAFFFF17 		b	.L92
 533              	.L168:
 534 06ac F30302AA 		mov	x19, x2
 535              	.L95:
 536 06b0 60040051 		sub	w0, w3, #1
 537 06b4 C5052036 		tbz	x5, 4, .L231
 538              	.L106:
 539 06b8 9A12F837 		tbnz	w26, #31, .L109
 540 06bc C22E0091 		add	x2, x22, 11
 541 06c0 E10316AA 		mov	x1, x22
 542 06c4 56F07D92 		and	x22, x2, -8
 543              	.L110:
 544 06c8 210040B9 		ldr	w1, [x1]
 545 06cc 84060091 		add	x4, x20, 1
 546 06d0 81020039 		strb	w1, [x20]
 547 06d4 1F000071 		cmp	w0, 0
 548 06d8 ED0F0054 		ble	.L232
 549 06dc 02040051 		sub	w2, w0, #1
 550 06e0 E00304AA 		mov	x0, x4
 551 06e4 E10302AA 		mov	x1, x2
 552 06e8 42080091 		add	x2, x2, 2
 553 06ec 9402028B 		add	x20, x20, x2
 554 06f0 03048052 		mov	w3, 32
 555 06f4 1F2003D5 		.p2align 3
 556              	.L113:
 557 06f8 03140038 		strb	w3, [x0], 1
 558 06fc 1F0014EB 		cmp	x0, x20
 559 0700 C1FFFF54 		bne	.L113
 560 0704 347C4093 		sxtw	x20, w1
 561 0708 61064039 		ldrb	w1, [x19, 1]
 562 070c 94060091 		add	x20, x20, 1
 563 0710 9400148B 		add	x20, x4, x20
 564 0714 0AFFFF17 		b	.L69
 565              		.p2align 3
 566              	.L164:
 567 0718 02018052 		mov	w2, 8
 568 071c 44FFFF17 		b	.L102
 569              		.p2align 3
AARCH64 GAS  C:\Users\ldebo\AppData\Local\Temp\ccfW7LPV.s 			page 11


 570              	.L104:
 571 0720 42018052 		mov	w2, 10
 572 0724 42FFFF17 		b	.L102
 573              		.p2align 3
 574              	.L97:
 575 0728 A0048052 		mov	w0, 37
 576 072c 80020039 		strb	w0, [x20]
 577 0730 94060091 		add	x20, x20, 1
 578 0734 61064039 		ldrb	w1, [x19, 1]
 579 0738 01FFFF17 		b	.L69
 580              	.L157:
 581 073c 3F900171 		cmp	w1, 100
 582 0740 60000054 		beq	.L169
 583 0744 3FA40171 		cmp	w1, 105
 584 0748 21F6FF54 		bne	.L165
 585              	.L169:
 586 074c F30302AA 		mov	x19, x2
 587 0750 06008012 		mov	w6, -1
 588              	.L99:
 589 0754 A5001F32 		orr	w5, w5, 2
 590 0758 42018052 		mov	w2, 10
 591 075c 34FFFF17 		b	.L102
 592              	.L230:
 593 0760 A5000032 		orr	w5, w5, 1
 594 0764 03028052 		mov	w3, 16
 595 0768 94FFFF17 		b	.L123
 596              	.L231:
 597 076c 1F000071 		cmp	w0, 0
 598 0770 8D0B0054 		ble	.L233
 599 0774 62080051 		sub	w2, w3, #2
 600 0778 E10314AA 		mov	x1, x20
 601 077c E00302AA 		mov	x0, x2
 602 0780 42040091 		add	x2, x2, 1
 603 0784 8202028B 		add	x2, x20, x2
 604 0788 04048052 		mov	w4, 32
 605 078c 1F2003D5 		.p2align 3
 606              	.L108:
 607 0790 24140038 		strb	w4, [x1], 1
 608 0794 3F0002EB 		cmp	x1, x2
 609 0798 C1FFFF54 		bne	.L108
 610 079c E103002A 		uxtw	x1, w0
 611 07a0 0000034B 		sub	w0, w0, w3
 612 07a4 21040091 		add	x1, x1, 1
 613 07a8 00040011 		add	w0, w0, 1
 614 07ac 9402018B 		add	x20, x20, x1
 615 07b0 C2FFFF17 		b	.L106
 616 07b4 1F2003D5 		.p2align 3
 617              	.L96:
 618 07b8 1F900171 		cmp	w0, 100
 619 07bc C0FCFF54 		beq	.L99
 620 07c0 1FA40171 		cmp	w0, 105
 621 07c4 80FCFF54 		beq	.L99
 622 07c8 92FFFF17 		b	.L92
 623 07cc 1F2003D5 		.p2align 3
 624              	.L87:
 625 07d0 40080091 		add	x0, x2, 2
 626 07d4 7A0EF837 		tbnz	w26, #31, .L88
AARCH64 GAS  C:\Users\ldebo\AppData\Local\Temp\ccfW7LPV.s 			page 12


 627 07d8 C42E0091 		add	x4, x22, 11
 628 07dc E10316AA 		mov	x1, x22
 629 07e0 96F07D92 		and	x22, x4, -8
 630              	.L89:
 631 07e4 240040B9 		ldr	w4, [x1]
 632 07e8 41084039 		ldrb	w1, [x2, 2]
 633 07ec E20300AA 		mov	x2, x0
 634 07f0 9F000071 		cmp	w4, 0
 635 07f4 84A09F1A 		csel	w4, w4, wzr, ge
 636 07f8 FAFEFF17 		b	.L85
 637 07fc 1F2003D5 		.p2align 3
 638              	.L159:
 639 0800 9F020039 		strb	wzr, [x20]
 640 0804 00008052 		mov	w0, 0
 641 0808 F6DF41A9 		ldp	x22, x23, [sp, 24]
 642 080c FA1F40F9 		ldr	x26, [sp, 56]
 643 0810 FE2740F9 		ldr	x30, [sp, 72]
 644 0814 F353C6A8 		ldp	x19, x20, [sp], 96
 645 0818 C0035FD6 		ret
 646 081c 1F2003D5 		.p2align 3
 647              	.L93:
 648 0820 3FB00171 		cmp	w1, 108
 649 0824 C1020054 		bne	.L127
 650 0828 DA0CF837 		tbnz	w26, #31, .L128
 651 082c C13E0091 		add	x1, x22, 15
 652 0830 E00316AA 		mov	x0, x22
 653 0834 36F07D92 		and	x22, x1, -8
 654 0838 69000014 		b	.L129
 655 083c 1F2003D5 		.p2align 3
 656              	.L215:
 657 0840 FB2300F9 		str	x27, [sp, 64]
 658              	.L100:
 659 0844 BA14F837 		tbnz	w26, #31, .L114
 660 0848 C13E0091 		add	x1, x22, 15
 661 084c E00316AA 		mov	x0, x22
 662 0850 36F07D92 		and	x22, x1, -8
 663 0854 A8000014 		b	.L115
 664              		.p2align 3
 665              	.L173:
 666 0858 F30302AA 		mov	x19, x2
 667 085c 06008012 		mov	w6, -1
 668 0860 42018052 		mov	w2, 10
 669 0864 F4FEFF17 		b	.L139
 670              	.L134:
 671 0868 F30302AA 		mov	x19, x2
 672 086c A1001F12 		and	w1, w5, 2
 673 0870 02018052 		mov	w2, 8
 674 0874 F3FEFF17 		b	.L135
 675              	.L170:
 676 0878 F30302AA 		mov	x19, x2
 677              	.L127:
 678 087c 1A11F837 		tbnz	w26, #31, .L131
 679 0880 C13E0091 		add	x1, x22, 15
 680 0884 E00316AA 		mov	x0, x22
 681 0888 36F07D92 		and	x22, x1, -8
 682 088c 8B000014 		b	.L132
 683              		.p2align 3
AARCH64 GAS  C:\Users\ldebo\AppData\Local\Temp\ccfW7LPV.s 			page 13


 684              	.L172:
 685 0890 F30302AA 		mov	x19, x2
 686 0894 FB2300F9 		str	x27, [sp, 64]
 687 0898 EBFFFF17 		b	.L100
 688              	.L225:
 689 089c 7A02F837 		tbnz	w26, #31, .L144
 690 08a0 C62E0091 		add	x6, x22, 11
 691 08a4 E00316AA 		mov	x0, x22
 692 08a8 D6F07D92 		and	x22, x6, -8
 693              	.L145:
 694 08ac 000040B9 		ldr	w0, [x0]
 695 08b0 3F000071 		cmp	w1, 0
 696 08b4 013C4092 		and	x1, x0, 65535
 697 08b8 003C4093 		sxth	x0, w0
 698 08bc 0110819A 		csel	x1, x0, x1, ne
 699              	.L143:
 700 08c0 E00314AA 		mov	x0, x20
 701 08c4 CFFDFF97 		bl	number
 702 08c8 61064039 		ldrb	w1, [x19, 1]
 703 08cc F40300AA 		mov	x20, x0
 704 08d0 9BFEFF17 		b	.L69
 705              	.L232:
 706 08d4 61064039 		ldrb	w1, [x19, 1]
 707 08d8 F40304AA 		mov	x20, x4
 708 08dc 98FEFF17 		b	.L69
 709              	.L233:
 710 08e0 60080051 		sub	w0, w3, #2
 711 08e4 75FFFF17 		b	.L106
 712              	.L144:
 713 08e8 46230011 		add	w6, w26, 8
 714 08ec DF000071 		cmp	w6, 0
 715 08f0 CD020054 		ble	.L146
 716 08f4 C72E0091 		add	x7, x22, 11
 717 08f8 E00316AA 		mov	x0, x22
 718 08fc FA03062A 		mov	w26, w6
 719 0900 F6F07D92 		and	x22, x7, -8
 720 0904 EAFFFF17 		b	.L145
 721              	.L109:
 722 0908 42230011 		add	w2, w26, 8
 723 090c 5F000071 		cmp	w2, 0
 724 0910 2D020054 		ble	.L111
 725 0914 C32E0091 		add	x3, x22, 11
 726 0918 E10316AA 		mov	x1, x22
 727 091c FA03022A 		mov	w26, w2
 728 0920 76F07D92 		and	x22, x3, -8
 729 0924 69FFFF17 		b	.L110
 730              	.L124:
 731 0928 41230011 		add	w1, w26, 8
 732 092c 3F000071 		cmp	w1, 0
 733 0930 8D010054 		ble	.L126
 734 0934 C23E0091 		add	x2, x22, 15
 735 0938 E00316AA 		mov	x0, x22
 736 093c FA03012A 		mov	w26, w1
 737 0940 56F07D92 		and	x22, x2, -8
 738 0944 21FFFF17 		b	.L125
 739              	.L146:
 740 0948 E0C23A8B 		add	x0, x23, x26, sxtw
AARCH64 GAS  C:\Users\ldebo\AppData\Local\Temp\ccfW7LPV.s 			page 14


 741 094c FA03062A 		mov	w26, w6
 742 0950 D7FFFF17 		b	.L145
 743              	.L111:
 744 0954 E1C23A8B 		add	x1, x23, x26, sxtw
 745 0958 FA03022A 		mov	w26, w2
 746 095c 5BFFFF17 		b	.L110
 747              	.L126:
 748 0960 E0C23A8B 		add	x0, x23, x26, sxtw
 749 0964 FA03012A 		mov	w26, w1
 750 0968 18FFFF17 		b	.L125
 751              	.L149:
 752 096c 41230011 		add	w1, w26, 8
 753 0970 3F000071 		cmp	w1, 0
 754 0974 ED000054 		ble	.L151
 755 0978 E00316AA 		mov	x0, x22
 756 097c C62E0091 		add	x6, x22, 11
 757 0980 FA03012A 		mov	w26, w1
 758 0984 D6F07D92 		and	x22, x6, -8
 759 0988 010080B9 		ldrsw	x1, [x0]
 760 098c CDFFFF17 		b	.L143
 761              	.L151:
 762 0990 E0C23A8B 		add	x0, x23, x26, sxtw
 763 0994 FA03012A 		mov	w26, w1
 764 0998 010080B9 		ldrsw	x1, [x0]
 765 099c C9FFFF17 		b	.L143
 766              	.L88:
 767 09a0 44230011 		add	w4, w26, 8
 768 09a4 9F000071 		cmp	w4, 0
 769 09a8 4D020054 		ble	.L90
 770 09ac C62E0091 		add	x6, x22, 11
 771 09b0 E10316AA 		mov	x1, x22
 772 09b4 FA03042A 		mov	w26, w4
 773 09b8 D6F07D92 		and	x22, x6, -8
 774 09bc 8AFFFF17 		b	.L89
 775              	.L128:
 776 09c0 41230011 		add	w1, w26, 8
 777 09c4 3F000071 		cmp	w1, 0
 778 09c8 AD010054 		ble	.L130
 779 09cc C33E0091 		add	x3, x22, 15
 780 09d0 E00316AA 		mov	x0, x22
 781 09d4 FA03012A 		mov	w26, w1
 782 09d8 76F07D92 		and	x22, x3, -8
 783              	.L129:
 784 09dc 000040F9 		ldr	x0, [x0]
 785 09e0 810215CB 		sub	x1, x20, x21
 786 09e4 010000F9 		str	x1, [x0]
 787 09e8 41084039 		ldrb	w1, [x2, 2]
 788 09ec 54FEFF17 		b	.L69
 789              	.L90:
 790 09f0 E1C23A8B 		add	x1, x23, x26, sxtw
 791 09f4 FA03042A 		mov	w26, w4
 792 09f8 7BFFFF17 		b	.L89
 793              	.L130:
 794 09fc E0C23A8B 		add	x0, x23, x26, sxtw
 795 0a00 FA03012A 		mov	w26, w1
 796 0a04 F6FFFF17 		b	.L129
 797              	.L152:
AARCH64 GAS  C:\Users\ldebo\AppData\Local\Temp\ccfW7LPV.s 			page 15


 798 0a08 41230011 		add	w1, w26, 8
 799 0a0c 3F000071 		cmp	w1, 0
 800 0a10 0D030054 		ble	.L154
 801 0a14 E00316AA 		mov	x0, x22
 802 0a18 C62E0091 		add	x6, x22, 11
 803 0a1c FA03012A 		mov	w26, w1
 804 0a20 D6F07D92 		and	x22, x6, -8
 805 0a24 010040B9 		ldr	w1, [x0]
 806 0a28 A6FFFF17 		b	.L143
 807              	.L140:
 808 0a2c 41230011 		add	w1, w26, 8
 809 0a30 3F000071 		cmp	w1, 0
 810 0a34 6D020054 		ble	.L142
 811 0a38 E00316AA 		mov	x0, x22
 812 0a3c C63E0091 		add	x6, x22, 15
 813 0a40 FA03012A 		mov	w26, w1
 814 0a44 D6F07D92 		and	x22, x6, -8
 815 0a48 010040F9 		ldr	x1, [x0]
 816 0a4c 9DFFFF17 		b	.L143
 817              	.L81:
 818 0a50 41230011 		add	w1, w26, 8
 819 0a54 3F000071 		cmp	w1, 0
 820 0a58 CD010054 		ble	.L83
 821 0a5c C32E0091 		add	x3, x22, 11
 822 0a60 E00316AA 		mov	x0, x22
 823 0a64 FA03012A 		mov	w26, w1
 824 0a68 76F07D92 		and	x22, x3, -8
 825 0a6c 02FFFF17 		b	.L82
 826              	.L154:
 827 0a70 E0C23A8B 		add	x0, x23, x26, sxtw
 828 0a74 FA03012A 		mov	w26, w1
 829 0a78 010040B9 		ldr	w1, [x0]
 830 0a7c 91FFFF17 		b	.L143
 831              	.L142:
 832 0a80 E0C23A8B 		add	x0, x23, x26, sxtw
 833 0a84 FA03012A 		mov	w26, w1
 834 0a88 010040F9 		ldr	x1, [x0]
 835 0a8c 8DFFFF17 		b	.L143
 836              	.L83:
 837 0a90 E0C23A8B 		add	x0, x23, x26, sxtw
 838 0a94 FA03012A 		mov	w26, w1
 839 0a98 F7FEFF17 		b	.L82
 840              	.L131:
 841 0a9c 41230011 		add	w1, w26, 8
 842 0aa0 3F000071 		cmp	w1, 0
 843 0aa4 4D010054 		ble	.L133
 844 0aa8 C23E0091 		add	x2, x22, 15
 845 0aac E00316AA 		mov	x0, x22
 846 0ab0 FA03012A 		mov	w26, w1
 847 0ab4 56F07D92 		and	x22, x2, -8
 848              	.L132:
 849 0ab8 000040F9 		ldr	x0, [x0]
 850 0abc 810215CB 		sub	x1, x20, x21
 851 0ac0 010000B9 		str	w1, [x0]
 852 0ac4 61064039 		ldrb	w1, [x19, 1]
 853 0ac8 1DFEFF17 		b	.L69
 854              	.L133:
AARCH64 GAS  C:\Users\ldebo\AppData\Local\Temp\ccfW7LPV.s 			page 16


 855 0acc E0C23A8B 		add	x0, x23, x26, sxtw
 856 0ad0 FA03012A 		mov	w26, w1
 857 0ad4 F9FFFF17 		b	.L132
 858              	.L114:
 859 0ad8 41230011 		add	w1, w26, 8
 860 0adc 3F000071 		cmp	w1, 0
 861 0ae0 CD060054 		ble	.L116
 862 0ae4 C23E0091 		add	x2, x22, 15
 863 0ae8 E00316AA 		mov	x0, x22
 864 0aec FA03012A 		mov	w26, w1
 865 0af0 56F07D92 		and	x22, x2, -8
 866              	.L115:
 867 0af4 1B0040F9 		ldr	x27, [x0]
 868 0af8 817C4093 		sxtw	x1, w4
 869 0afc E50F0B29 		stp	w5, w3, [sp, 88]
 870 0b00 E0031BAA 		mov	x0, x27
 871 0b04 00000094 		bl	strnlen
 872 0b08 E50F4B29 		ldp	w5, w3, [sp, 88]
 873 0b0c E603002A 		mov	w6, w0
 874 0b10 62040051 		sub	w2, w3, #1
 875 0b14 25032036 		tbz	x5, 4, .L234
 876              	.L117:
 877 0b18 1F000071 		cmp	w0, 0
 878 0b1c 6D010054 		ble	.L120
 879 0b20 05040051 		sub	w5, w0, #1
 880 0b24 010080D2 		mov	x1, 0
 881 0b28 A5040091 		add	x5, x5, 1
 882 0b2c 1F2003D5 		.p2align 3
 883              	.L121:
 884 0b30 646B6138 		ldrb	w4, [x27, x1]
 885 0b34 846A2138 		strb	w4, [x20, x1]
 886 0b38 21040091 		add	x1, x1, 1
 887 0b3c BF0001EB 		cmp	x5, x1
 888 0b40 81FFFF54 		bne	.L121
 889 0b44 9402058B 		add	x20, x20, x5
 890              	.L120:
 891 0b48 01048052 		mov	w1, 32
 892 0b4c 7F00006B 		cmp	w3, w0
 893 0b50 ED000054 		ble	.L216
 894 0b54 1F2003D5 		.p2align 3
 895              	.L122:
 896 0b58 42040051 		sub	w2, w2, #1
 897 0b5c 81160038 		strb	w1, [x20], 1
 898 0b60 40040011 		add	w0, w2, 1
 899 0b64 DF00006B 		cmp	w6, w0
 900 0b68 8BFFFF54 		blt	.L122
 901              	.L216:
 902 0b6c 61064039 		ldrb	w1, [x19, 1]
 903 0b70 FB2340F9 		ldr	x27, [sp, 64]
 904 0b74 F2FDFF17 		b	.L69
 905              	.L234:
 906 0b78 7F00006B 		cmp	w3, w0
 907 0b7c 6D010054 		ble	.L235
 908 0b80 4100004B 		sub	w1, w2, w0
 909 0b84 02048052 		mov	w2, 32
 910 0b88 21040091 		add	x1, x1, 1
 911 0b8c 8102018B 		add	x1, x20, x1
AARCH64 GAS  C:\Users\ldebo\AppData\Local\Temp\ccfW7LPV.s 			page 17


 912              		.p2align 3
 913              	.L119:
 914 0b90 82160038 		strb	w2, [x20], 1
 915 0b94 9F0201EB 		cmp	x20, x1
 916 0b98 C1FFFF54 		bne	.L119
 917 0b9c 03040051 		sub	w3, w0, #1
 918 0ba0 62040051 		sub	w2, w3, #1
 919 0ba4 DDFFFF17 		b	.L117
 920              	.L235:
 921 0ba8 61080051 		sub	w1, w3, #2
 922 0bac E303022A 		mov	w3, w2
 923 0bb0 E203012A 		mov	w2, w1
 924 0bb4 D9FFFF17 		b	.L117
 925              	.L116:
 926 0bb8 E0C23A8B 		add	x0, x23, x26, sxtw
 927 0bbc FA03012A 		mov	w26, w1
 928 0bc0 CDFFFF17 		b	.L115
 929              		.size	emb_vsprintf, .-emb_vsprintf
 930              		.align	2
 931 0bc4 1F2003D5 		.p2align 4,,15
 931      1F2003D5 
 931      1F2003D5 
 932              		.global	vsscanf
 933              		.type	vsscanf, %function
 934              	vsscanf:
 935 0bd0 FF4316D1 		sub	sp, sp, #1424
 936 0bd4 3F0000F1 		cmp	x1, 0
 937 0bd8 F35300A9 		stp	x19, x20, [sp]
 938 0bdc F30300AA 		mov	x19, x0
 939 0be0 FE2B00F9 		str	x30, [sp, 80]
 940 0be4 E0179F1A 		cset	w0, eq
 941 0be8 7F0200F1 		cmp	x19, 0
 942 0bec 00149F1A 		csinc	w0, w0, wzr, ne
 943 0bf0 00290035 		cbnz	w0, .L409
 944 0bf4 F96B03A9 		stp	x25, x26, [sp, 48]
 945 0bf8 F9430291 		add	x25, sp, 144
 946 0bfc FB7304A9 		stp	x27, x28, [sp, 64]
 947 0c00 FC0301AA 		mov	x28, x1
 948 0c04 5A0040A9 		ldp	x26, x0, [x2]
 949 0c08 F55B01A9 		stp	x21, x22, [sp, 16]
 950 0c0c 5B1840B9 		ldr	w27, [x2, 24]
 951 0c10 F76302A9 		stp	x23, x24, [sp, 32]
 952 0c14 FF7F0C29 		stp	wzr, wzr, [sp, 96]
 953 0c18 E03B00F9 		str	x0, [sp, 112]
 954 0c1c 40018052 		mov	w0, 10
 955 0c20 E06B00B9 		str	w0, [sp, 104]
 956 0c24 FF7F0F29 		stp	wzr, wzr, [sp, 120]
 957              	.L238:
 958 0c28 60024039 		ldrb	w0, [x19]
 959 0c2c 80020034 		cbz	w0, .L513
 960              	.L548:
 961 0c30 80034039 		ldrb	w0, [x28]
 962 0c34 80000035 		cbnz	w0, .L407
 963 0c38 11000014 		b	.L513
 964 0c3c 1F2003D5 		.p2align 3
 965              	.L239:
 966 0c40 9C070091 		add	x28, x28, 1
AARCH64 GAS  C:\Users\ldebo\AppData\Local\Temp\ccfW7LPV.s 			page 18


 967              	.L407:
 968 0c44 00000094 		bl	__locale_ctype_ptr
 969 0c48 81034039 		ldrb	w1, [x28]
 970 0c4c 0000218B 		add	x0, x0, x1, uxtb
 971 0c50 00044039 		ldrb	w0, [x0, 1]
 972 0c54 60FF1F37 		tbnz	x0, 3, .L239
 973 0c58 3F940071 		cmp	w1, 37
 974 0c5c 20020054 		beq	.L547
 975 0c60 60024039 		ldrb	w0, [x19]
 976 0c64 1F00016B 		cmp	w0, w1
 977 0c68 A1000054 		bne	.L513
 978 0c6c 73060091 		add	x19, x19, 1
 979 0c70 60024039 		ldrb	w0, [x19]
 980 0c74 9C070091 		add	x28, x28, 1
 981 0c78 C0FDFF35 		cbnz	w0, .L548
 982              	.L513:
 983 0c7c E06340B9 		ldr	w0, [sp, 96]
 984 0c80 F35340A9 		ldp	x19, x20, [sp]
 985 0c84 F55B41A9 		ldp	x21, x22, [sp, 16]
 986 0c88 F76342A9 		ldp	x23, x24, [sp, 32]
 987 0c8c F96B43A9 		ldp	x25, x26, [sp, 48]
 988 0c90 FB7344A9 		ldp	x27, x28, [sp, 64]
 989 0c94 FE2B40F9 		ldr	x30, [sp, 80]
 990 0c98 FF431691 		add	sp, sp, 1424
 991 0c9c C0035FD6 		ret
 992              		.p2align 3
 993              	.L547:
 994 0ca0 80074039 		ldrb	w0, [x28, 1]
 995 0ca4 96070091 		add	x22, x28, 1
 996 0ca8 1FA80071 		cmp	w0, 42
 997 0cac 81000054 		bne	.L241
 998 0cb0 73060091 		add	x19, x19, 1
 999 0cb4 20008052 		mov	w0, 1
 1000 0cb8 E06700B9 		str	w0, [sp, 100]
 1001              	.L241:
 1002 0cbc 00000094 		bl	__locale_ctype_ptr
 1003 0cc0 97074039 		ldrb	w23, [x28, 1]
 1004 0cc4 0000378B 		add	x0, x0, x23, uxtb
 1005 0cc8 00044039 		ldrb	w0, [x0, 1]
 1006 0ccc A0101037 		tbnz	x0, 2, .L410
 1007 0cd0 950B0091 		add	x21, x28, 2
 1008 0cd4 18208052 		mov	w24, 256
 1009              	.L243:
 1010 0cd8 E07A1D12 		and	w0, w23, -5
 1011 0cdc 1FA00171 		cmp	w0, 104
 1012 0ce0 810E0054 		bne	.L549
 1013 0ce4 D4064039 		ldrb	w20, [x22, 1]
 1014 0ce8 BC060091 		add	x28, x21, 1
 1015 0cec 9F02176B 		cmp	w20, w23
 1016 0cf0 20180054 		beq	.L550
 1017              	.L245:
 1018 0cf4 9FE20171 		cmp	w20, 120
 1019 0cf8 C8020054 		bhi	.L414
 1020 0cfc 00000090 		adrp	x0, .L248
 1021 0d00 00000091 		add	x0, x0, :lo12:.L248
 1022 0d04 00587478 		ldrh	w0, [x0,w20,uxtw #1]
 1023 0d08 61000010 		adr	x1, .Lrtx248
AARCH64 GAS  C:\Users\ldebo\AppData\Local\Temp\ccfW7LPV.s 			page 19


 1024 0d0c 20A8208B 		add	x0, x1, w0, sxth #2
 1025 0d10 00001FD6 		br	x0
 1026              	.Lrtx248:
 1027              		.section	.rodata
 1028              		.align	0
 1029              		.align	2
 1030              	.L248:
 1031 0000 DAFF     		.2byte	(.L513 - .Lrtx248) / 4
 1032 0002 0F00     		.2byte	(.L414 - .Lrtx248) / 4
 1033 0004 0F00     		.2byte	(.L414 - .Lrtx248) / 4
 1034 0006 0F00     		.2byte	(.L414 - .Lrtx248) / 4
 1035 0008 0F00     		.2byte	(.L414 - .Lrtx248) / 4
 1036 000a 0F00     		.2byte	(.L414 - .Lrtx248) / 4
 1037 000c 0F00     		.2byte	(.L414 - .Lrtx248) / 4
 1038 000e 0F00     		.2byte	(.L414 - .Lrtx248) / 4
 1039 0010 0F00     		.2byte	(.L414 - .Lrtx248) / 4
 1040 0012 0F00     		.2byte	(.L414 - .Lrtx248) / 4
 1041 0014 0F00     		.2byte	(.L414 - .Lrtx248) / 4
 1042 0016 0F00     		.2byte	(.L414 - .Lrtx248) / 4
 1043 0018 0F00     		.2byte	(.L414 - .Lrtx248) / 4
 1044 001a 0F00     		.2byte	(.L414 - .Lrtx248) / 4
 1045 001c 0F00     		.2byte	(.L414 - .Lrtx248) / 4
 1046 001e 0F00     		.2byte	(.L414 - .Lrtx248) / 4
 1047 0020 0F00     		.2byte	(.L414 - .Lrtx248) / 4
 1048 0022 0F00     		.2byte	(.L414 - .Lrtx248) / 4
 1049 0024 0F00     		.2byte	(.L414 - .Lrtx248) / 4
 1050 0026 0F00     		.2byte	(.L414 - .Lrtx248) / 4
 1051 0028 0F00     		.2byte	(.L414 - .Lrtx248) / 4
 1052 002a 0F00     		.2byte	(.L414 - .Lrtx248) / 4
 1053 002c 0F00     		.2byte	(.L414 - .Lrtx248) / 4
 1054 002e 0F00     		.2byte	(.L414 - .Lrtx248) / 4
 1055 0030 0F00     		.2byte	(.L414 - .Lrtx248) / 4
 1056 0032 0F00     		.2byte	(.L414 - .Lrtx248) / 4
 1057 0034 0F00     		.2byte	(.L414 - .Lrtx248) / 4
 1058 0036 0F00     		.2byte	(.L414 - .Lrtx248) / 4
 1059 0038 0F00     		.2byte	(.L414 - .Lrtx248) / 4
 1060 003a 0F00     		.2byte	(.L414 - .Lrtx248) / 4
 1061 003c 0F00     		.2byte	(.L414 - .Lrtx248) / 4
 1062 003e 0F00     		.2byte	(.L414 - .Lrtx248) / 4
 1063 0040 0F00     		.2byte	(.L414 - .Lrtx248) / 4
 1064 0042 0F00     		.2byte	(.L414 - .Lrtx248) / 4
 1065 0044 0F00     		.2byte	(.L414 - .Lrtx248) / 4
 1066 0046 0F00     		.2byte	(.L414 - .Lrtx248) / 4
 1067 0048 0F00     		.2byte	(.L414 - .Lrtx248) / 4
 1068 004a 0F00     		.2byte	(.L414 - .Lrtx248) / 4
 1069 004c 0F00     		.2byte	(.L414 - .Lrtx248) / 4
 1070 004e 0F00     		.2byte	(.L414 - .Lrtx248) / 4
 1071 0050 0F00     		.2byte	(.L414 - .Lrtx248) / 4
 1072 0052 0F00     		.2byte	(.L414 - .Lrtx248) / 4
 1073 0054 0F00     		.2byte	(.L414 - .Lrtx248) / 4
 1074 0056 0F00     		.2byte	(.L414 - .Lrtx248) / 4
 1075 0058 0F00     		.2byte	(.L414 - .Lrtx248) / 4
 1076 005a 0F00     		.2byte	(.L414 - .Lrtx248) / 4
 1077 005c 0F00     		.2byte	(.L414 - .Lrtx248) / 4
 1078 005e 0F00     		.2byte	(.L414 - .Lrtx248) / 4
 1079 0060 0F00     		.2byte	(.L414 - .Lrtx248) / 4
 1080 0062 0F00     		.2byte	(.L414 - .Lrtx248) / 4
AARCH64 GAS  C:\Users\ldebo\AppData\Local\Temp\ccfW7LPV.s 			page 20


 1081 0064 0F00     		.2byte	(.L414 - .Lrtx248) / 4
 1082 0066 0F00     		.2byte	(.L414 - .Lrtx248) / 4
 1083 0068 0F00     		.2byte	(.L414 - .Lrtx248) / 4
 1084 006a 0F00     		.2byte	(.L414 - .Lrtx248) / 4
 1085 006c 0F00     		.2byte	(.L414 - .Lrtx248) / 4
 1086 006e 0F00     		.2byte	(.L414 - .Lrtx248) / 4
 1087 0070 0F00     		.2byte	(.L414 - .Lrtx248) / 4
 1088 0072 0F00     		.2byte	(.L414 - .Lrtx248) / 4
 1089 0074 0F00     		.2byte	(.L414 - .Lrtx248) / 4
 1090 0076 0F00     		.2byte	(.L414 - .Lrtx248) / 4
 1091 0078 0F00     		.2byte	(.L414 - .Lrtx248) / 4
 1092 007a 0F00     		.2byte	(.L414 - .Lrtx248) / 4
 1093 007c 0F00     		.2byte	(.L414 - .Lrtx248) / 4
 1094 007e 0F00     		.2byte	(.L414 - .Lrtx248) / 4
 1095 0080 0F00     		.2byte	(.L414 - .Lrtx248) / 4
 1096 0082 BF00     		.2byte	(.L415 - .Lrtx248) / 4
 1097 0084 0F00     		.2byte	(.L414 - .Lrtx248) / 4
 1098 0086 0F00     		.2byte	(.L414 - .Lrtx248) / 4
 1099 0088 0F00     		.2byte	(.L414 - .Lrtx248) / 4
 1100 008a BF00     		.2byte	(.L415 - .Lrtx248) / 4
 1101 008c BF00     		.2byte	(.L415 - .Lrtx248) / 4
 1102 008e BF00     		.2byte	(.L415 - .Lrtx248) / 4
 1103 0090 0F00     		.2byte	(.L414 - .Lrtx248) / 4
 1104 0092 0F00     		.2byte	(.L414 - .Lrtx248) / 4
 1105 0094 0F00     		.2byte	(.L414 - .Lrtx248) / 4
 1106 0096 0F00     		.2byte	(.L414 - .Lrtx248) / 4
 1107 0098 0F00     		.2byte	(.L414 - .Lrtx248) / 4
 1108 009a 0F00     		.2byte	(.L414 - .Lrtx248) / 4
 1109 009c 0F00     		.2byte	(.L414 - .Lrtx248) / 4
 1110 009e 0F00     		.2byte	(.L414 - .Lrtx248) / 4
 1111 00a0 0F00     		.2byte	(.L414 - .Lrtx248) / 4
 1112 00a2 0F00     		.2byte	(.L414 - .Lrtx248) / 4
 1113 00a4 0F00     		.2byte	(.L414 - .Lrtx248) / 4
 1114 00a6 0F00     		.2byte	(.L414 - .Lrtx248) / 4
 1115 00a8 0F00     		.2byte	(.L414 - .Lrtx248) / 4
 1116 00aa 0F00     		.2byte	(.L414 - .Lrtx248) / 4
 1117 00ac 0F00     		.2byte	(.L414 - .Lrtx248) / 4
 1118 00ae 0F00     		.2byte	(.L414 - .Lrtx248) / 4
 1119 00b0 5600     		.2byte	(.L250 - .Lrtx248) / 4
 1120 00b2 0F00     		.2byte	(.L414 - .Lrtx248) / 4
 1121 00b4 0F00     		.2byte	(.L414 - .Lrtx248) / 4
 1122 00b6 DA00     		.2byte	(.L251 - .Lrtx248) / 4
 1123 00b8 0F00     		.2byte	(.L414 - .Lrtx248) / 4
 1124 00ba 0F00     		.2byte	(.L414 - .Lrtx248) / 4
 1125 00bc 0F00     		.2byte	(.L414 - .Lrtx248) / 4
 1126 00be 0F00     		.2byte	(.L414 - .Lrtx248) / 4
 1127 00c0 0F00     		.2byte	(.L414 - .Lrtx248) / 4
 1128 00c2 BF00     		.2byte	(.L415 - .Lrtx248) / 4
 1129 00c4 0F00     		.2byte	(.L414 - .Lrtx248) / 4
 1130 00c6 6000     		.2byte	(.L252 - .Lrtx248) / 4
 1131 00c8 0200     		.2byte	(.L253 - .Lrtx248) / 4
 1132 00ca BF00     		.2byte	(.L415 - .Lrtx248) / 4
 1133 00cc BF00     		.2byte	(.L415 - .Lrtx248) / 4
 1134 00ce BF00     		.2byte	(.L415 - .Lrtx248) / 4
 1135 00d0 0F00     		.2byte	(.L414 - .Lrtx248) / 4
 1136 00d2 0200     		.2byte	(.L253 - .Lrtx248) / 4
 1137 00d4 0F00     		.2byte	(.L414 - .Lrtx248) / 4
AARCH64 GAS  C:\Users\ldebo\AppData\Local\Temp\ccfW7LPV.s 			page 21


 1138 00d6 0F00     		.2byte	(.L414 - .Lrtx248) / 4
 1139 00d8 0F00     		.2byte	(.L414 - .Lrtx248) / 4
 1140 00da 0F00     		.2byte	(.L414 - .Lrtx248) / 4
 1141 00dc 0F00     		.2byte	(.L414 - .Lrtx248) / 4
 1142 00de 5600     		.2byte	(.L250 - .Lrtx248) / 4
 1143 00e0 5600     		.2byte	(.L250 - .Lrtx248) / 4
 1144 00e2 0F00     		.2byte	(.L414 - .Lrtx248) / 4
 1145 00e4 0F00     		.2byte	(.L414 - .Lrtx248) / 4
 1146 00e6 6000     		.2byte	(.L252 - .Lrtx248) / 4
 1147 00e8 0F00     		.2byte	(.L414 - .Lrtx248) / 4
 1148 00ea 5600     		.2byte	(.L250 - .Lrtx248) / 4
 1149 00ec 0F00     		.2byte	(.L414 - .Lrtx248) / 4
 1150 00ee 0F00     		.2byte	(.L414 - .Lrtx248) / 4
 1151 00f0 5600     		.2byte	(.L250 - .Lrtx248) / 4
 1152              		.text
 1153 0d14 1F2003D5 		.p2align 3
 1154              	.L256:
 1155 0d18 73060091 		add	x19, x19, 1
 1156              	.L253:
 1157 0d1c 00000094 		bl	__locale_ctype_ptr
 1158 0d20 62024039 		ldrb	w2, [x19]
 1159 0d24 41AC0051 		sub	w1, w2, #43
 1160 0d28 0000228B 		add	x0, x0, x2, uxtb
 1161 0d2c 21781E12 		and	w1, w1, -3
 1162 0d30 211C0012 		and	w1, w1, 255
 1163 0d34 3F000071 		cmp	w1, 0
 1164 0d38 00044039 		ldrb	w0, [x0, 1]
 1165 0d3c 4418407A 		ccmp	w2, 0, 4, ne
 1166 0d40 00001E12 		and	w0, w0, 4
 1167 0d44 0018407A 		ccmp	w0, 0, 0, ne
 1168 0d48 80FEFF54 		beq	.L256
 1169 0d4c 1F2003D5 		.p2align 3
 1170              	.L414:
 1171 0d50 F60313AA 		mov	x22, x19
 1172              	.L247:
 1173 0d54 9F6E0171 		cmp	w20, 91
 1174 0d58 E01F0054 		beq	.L551
 1175 0d5c C1024039 		ldrb	w1, [x22]
 1176 0d60 E1F8FF34 		cbz	w1, .L513
 1177 0d64 C0064039 		ldrb	w0, [x22, 1]
 1178 0d68 D3060091 		add	x19, x22, 1
 1179 0d6c 80F8FF34 		cbz	w0, .L513
 1180 0d70 9F9E0171 		cmp	w20, 103
 1181 0d74 A91D0054 		bls	.L552
 1182 0d78 9FC20171 		cmp	w20, 112
 1183 0d7c 802A0054 		beq	.L269
 1184 0d80 C9220054 		bls	.L553
 1185 0d84 9FD60171 		cmp	w20, 117
 1186 0d88 E0110054 		beq	.L477
 1187 0d8c 9FE20171 		cmp	w20, 120
 1188 0d90 A00D0054 		beq	.L478
 1189 0d94 9FCE0171 		cmp	w20, 115
 1190 0d98 A0000054 		beq	.L272
 1191 0d9c 76000014 		b	.L263
 1192              		.p2align 3
 1193              	.L554:
 1194 0da0 58010034 		cbz	w24, .L408
AARCH64 GAS  C:\Users\ldebo\AppData\Local\Temp\ccfW7LPV.s 			page 22


 1195 0da4 73060091 		add	x19, x19, 1
 1196 0da8 18070051 		sub	w24, w24, #1
 1197              	.L272:
 1198 0dac 00000094 		bl	__locale_ctype_ptr
 1199 0db0 61024039 		ldrb	w1, [x19]
 1200 0db4 0000218B 		add	x0, x0, x1, uxtb
 1201 0db8 00044039 		ldrb	w0, [x0, 1]
 1202 0dbc 1F007DF2 		tst	x0, 8
 1203 0dc0 2408407A 		ccmp	w1, 0, 4, eq
 1204 0dc4 E1FEFF54 		bne	.L554
 1205              		.p2align 3
 1206              	.L408:
 1207 0dc8 750216CB 		sub	x21, x19, x22
 1208 0dcc E10316AA 		mov	x1, x22
 1209 0dd0 B57E4093 		sxtw	x21, w21
 1210 0dd4 E00319AA 		mov	x0, x25
 1211 0dd8 E20315AA 		mov	x2, x21
 1212 0ddc 00000094 		bl	strncpy
 1213 0de0 9F9E0171 		cmp	w20, 103
 1214 0de4 3F6B3538 		strb	wzr, [x25, x21]
 1215 0de8 C91B0054 		bls	.L555
 1216 0dec 9FC20171 		cmp	w20, 112
 1217 0df0 40320054 		beq	.L301
 1218 0df4 69220054 		bls	.L556
 1219 0df8 9FD60171 		cmp	w20, 117
 1220 0dfc A0220054 		beq	.L297
 1221 0e00 9FE20171 		cmp	w20, 120
 1222 0e04 60220054 		beq	.L297
 1223 0e08 9FCE0171 		cmp	w20, 115
 1224 0e0c 61020054 		bne	.L294
 1225 0e10 E06740B9 		ldr	w0, [sp, 100]
 1226 0e14 20020035 		cbnz	w0, .L294
 1227 0e18 D7490034 		cbz	w23, .L386
 1228 0e1c FFB20171 		cmp	w23, 108
 1229 0e20 C1010054 		bne	.L294
 1230 0e24 E00319AA 		mov	x0, x25
 1231 0e28 00000094 		bl	strlen
 1232 0e2c E10319AA 		mov	x1, x25
 1233 0e30 02040091 		add	x2, x0, 1
 1234 0e34 E0430691 		add	x0, sp, 400
 1235 0e38 00000094 		bl	mbstowcs
 1236 0e3c FB4FF837 		tbnz	w27, #31, .L391
 1237 0e40 413F0091 		add	x1, x26, 15
 1238 0e44 E0031AAA 		mov	x0, x26
 1239 0e48 3AF07D92 		and	x26, x1, -8
 1240              	.L392:
 1241 0e4c 000040F9 		ldr	x0, [x0]
 1242 0e50 E1430691 		add	x1, sp, 400
 1243 0e54 00000094 		bl	wcscpy
 1244              		.p2align 3
 1245              	.L294:
 1246 0e58 E06340B9 		ldr	w0, [sp, 96]
 1247 0e5c 00040011 		add	w0, w0, 1
 1248 0e60 E06300B9 		str	w0, [sp, 96]
 1249 0e64 71FFFF17 		b	.L238
 1250              		.p2align 3
 1251              	.L257:
AARCH64 GAS  C:\Users\ldebo\AppData\Local\Temp\ccfW7LPV.s 			page 23


 1252 0e68 73060091 		add	x19, x19, 1
 1253              	.L250:
 1254 0e6c 00000094 		bl	__locale_ctype_ptr
 1255 0e70 61024039 		ldrb	w1, [x19]
 1256 0e74 0000218B 		add	x0, x0, x1, uxtb
 1257 0e78 00044039 		ldrb	w0, [x0, 1]
 1258 0e7c 1F007EF2 		tst	x0, 4
 1259 0e80 2408407A 		ccmp	w1, 0, 4, eq
 1260 0e84 21FFFF54 		bne	.L257
 1261 0e88 B2FFFF17 		b	.L414
 1262 0e8c 1F2003D5 		.p2align 3
 1263              	.L255:
 1264 0e90 73060091 		add	x19, x19, 1
 1265              	.L252:
 1266 0e94 00000094 		bl	__locale_ctype_ptr
 1267 0e98 61024039 		ldrb	w1, [x19]
 1268 0e9c 0000018B 		add	x0, x0, x1
 1269 0ea0 00044039 		ldrb	w0, [x0, 1]
 1270 0ea4 60FF1F37 		tbnz	x0, 3, .L255
 1271 0ea8 AAFFFF17 		b	.L414
 1272 0eac 1F2003D5 		.p2align 3
 1273              	.L549:
 1274 0eb0 E0320151 		sub	w0, w23, #76
 1275 0eb4 001C0012 		and	w0, w0, 255
 1276 0eb8 1FB80071 		cmp	w0, 46
 1277 0ebc 28090054 		bhi	.L412
 1278 0ec0 210080D2 		mov	x1, 1
 1279 0ec4 0100A8F2 		movk	x1, 0x4000, lsl 16
 1280 0ec8 0120C8F2 		movk	x1, 0x4100, lsl 32
 1281 0ecc 2024C09A 		lsr	x0, x1, x0
 1282 0ed0 80360036 		tbz	x0, 0, .L413
 1283 0ed4 D4064039 		ldrb	w20, [x22, 1]
 1284 0ed8 BC060091 		add	x28, x21, 1
 1285 0edc 86FFFF17 		b	.L245
 1286              		.p2align 3
 1287              	.L410:
 1288 0ee0 F40316AA 		mov	x20, x22
 1289 0ee4 02000014 		b	.L242
 1290              		.p2align 3
 1291              	.L411:
 1292 0ee8 F40315AA 		mov	x20, x21
 1293              	.L242:
 1294 0eec 00000094 		bl	__locale_ctype_ptr
 1295 0ef0 95060091 		add	x21, x20, 1
 1296 0ef4 81024039 		ldrb	w1, [x20]
 1297 0ef8 0000018B 		add	x0, x0, x1
 1298 0efc 00044039 		ldrb	w0, [x0, 1]
 1299 0f00 40FF1737 		tbnz	x0, 2, .L411
 1300 0f04 970216CB 		sub	x23, x20, x22
 1301 0f08 E10316AA 		mov	x1, x22
 1302 0f0c F77E4093 		sxtw	x23, w23
 1303 0f10 E00319AA 		mov	x0, x25
 1304 0f14 E20317AA 		mov	x2, x23
 1305 0f18 00000094 		bl	strncpy
 1306 0f1c E00316AA 		mov	x0, x22
 1307 0f20 42018052 		mov	w2, 10
 1308 0f24 3F6B3738 		strb	wzr, [x25, x23]
AARCH64 GAS  C:\Users\ldebo\AppData\Local\Temp\ccfW7LPV.s 			page 24


 1309 0f28 E1230291 		add	x1, sp, 136
 1310 0f2c F60314AA 		mov	x22, x20
 1311 0f30 00000094 		bl	strtol
 1312 0f34 97024039 		ldrb	w23, [x20]
 1313 0f38 F803002A 		mov	w24, w0
 1314 0f3c 67FFFF17 		b	.L243
 1315              		.p2align 3
 1316              	.L279:
 1317 0f40 73060091 		add	x19, x19, 1
 1318              	.L478:
 1319 0f44 00000094 		bl	__locale_ctype_ptr
 1320 0f48 61024039 		ldrb	w1, [x19]
 1321 0f4c 0000218B 		add	x0, x0, x1, uxtb
 1322 0f50 00044039 		ldrb	w0, [x0, 1]
 1323 0f54 60FF1737 		tbnz	x0, 2, .L279
 1324 0f58 20781A12 		and	w0, w1, -33
 1325 0f5c 00040151 		sub	w0, w0, #65
 1326 0f60 001C0012 		and	w0, w0, 255
 1327 0f64 1F140071 		cmp	w0, 5
 1328 0f68 C9FEFF54 		bls	.L279
 1329              	.L514:
 1330 0f6c 00028052 		mov	w0, 16
 1331 0f70 E06B00B9 		str	w0, [sp, 104]
 1332              	.L263:
 1333 0f74 9F8E0171 		cmp	w20, 99
 1334 0f78 81F2FF54 		bne	.L408
 1335              	.L292:
 1336 0f7c E06740B9 		ldr	w0, [sp, 100]
 1337 0f80 C0F6FF35 		cbnz	w0, .L294
 1338 0f84 97310034 		cbz	w23, .L394
 1339 0f88 FFB20171 		cmp	w23, 108
 1340 0f8c 61F6FF54 		bne	.L294
 1341 0f90 220080D2 		mov	x2, 1
 1342 0f94 E10316AA 		mov	x1, x22
 1343 0f98 E0430691 		add	x0, sp, 400
 1344 0f9c 00000094 		bl	mbstowcs
 1345 0fa0 DB42F837 		tbnz	w27, #31, .L399
 1346 0fa4 413F0091 		add	x1, x26, 15
 1347 0fa8 E0031AAA 		mov	x0, x26
 1348 0fac 3AF07D92 		and	x26, x1, -8
 1349              	.L400:
 1350 0fb0 000040F9 		ldr	x0, [x0]
 1351 0fb4 E19341B9 		ldr	w1, [sp, 400]
 1352 0fb8 010000B9 		str	w1, [x0]
 1353 0fbc A7FFFF17 		b	.L294
 1354              		.p2align 3
 1355              	.L278:
 1356 0fc0 73060091 		add	x19, x19, 1
 1357              	.L477:
 1358 0fc4 00000094 		bl	__locale_ctype_ptr
 1359 0fc8 61024039 		ldrb	w1, [x19]
 1360 0fcc 0000018B 		add	x0, x0, x1
 1361 0fd0 00044039 		ldrb	w0, [x0, 1]
 1362 0fd4 60FF1737 		tbnz	x0, 2, .L278
 1363 0fd8 E7FFFF17 		b	.L263
 1364 0fdc 1F2003D5 		.p2align 3
 1365              	.L412:
AARCH64 GAS  C:\Users\ldebo\AppData\Local\Temp\ccfW7LPV.s 			page 25


 1366 0fe0 FC0315AA 		mov	x28, x21
 1367 0fe4 F403172A 		mov	w20, w23
 1368 0fe8 F50316AA 		mov	x21, x22
 1369 0fec 17008052 		mov	w23, 0
 1370 0ff0 41FFFF17 		b	.L245
 1371              	.L550:
 1372 0ff4 A00A0091 		add	x0, x21, 2
 1373 0ff8 21008052 		mov	w1, 1
 1374 0ffc F5031CAA 		mov	x21, x28
 1375 1000 D40A4039 		ldrb	w20, [x22, 2]
 1376 1004 FC0300AA 		mov	x28, x0
 1377 1008 E17F00B9 		str	w1, [sp, 124]
 1378 100c 3AFFFF17 		b	.L245
 1379              	.L415:
 1380 1010 F60313AA 		mov	x22, x19
 1381 1014 00000094 		bl	__locale_ctype_ptr
 1382 1018 C1024039 		ldrb	w1, [x22]
 1383 101c 0000218B 		add	x0, x0, x1, uxtb
 1384 1020 00044039 		ldrb	w0, [x0, 1]
 1385 1024 00001E72 		ands	w0, w0, 4
 1386 1028 E2179F1A 		cset	w2, eq
 1387 102c 3FB80071 		cmp	w1, 46
 1388 1030 89010054 		bls	.L557
 1389              	.L258:
 1390 1034 00E9FF35 		cbnz	w0, .L247
 1391 1038 D6060091 		add	x22, x22, 1
 1392 103c 1F2003D5 		.p2align 3
 1393              	.L558:
 1394 1040 00000094 		bl	__locale_ctype_ptr
 1395 1044 C1024039 		ldrb	w1, [x22]
 1396 1048 0000218B 		add	x0, x0, x1, uxtb
 1397 104c 00044039 		ldrb	w0, [x0, 1]
 1398 1050 00001E72 		ands	w0, w0, 4
 1399 1054 E2179F1A 		cset	w2, eq
 1400 1058 3FB80071 		cmp	w1, 46
 1401 105c C8FEFF54 		bhi	.L258
 1402              	.L557:
 1403 1060 200080D2 		mov	x0, 1
 1404 1064 0000CDF2 		movk	x0, 0x6800, lsl 32
 1405 1068 0124C19A 		lsr	x1, x0, x1
 1406 106c 5F00216A 		bics	wzr, w2, w1
 1407 1070 20E7FF54 		beq	.L247
 1408 1074 D6060091 		add	x22, x22, 1
 1409 1078 F2FFFF17 		b	.L558
 1410              	.L251:
 1411 107c A0064039 		ldrb	w0, [x21, 1]
 1412 1080 1F780171 		cmp	w0, 94
 1413 1084 A0110054 		beq	.L559
 1414              	.L254:
 1415 1088 A0DFFF34 		cbz	w0, .L513
 1416 108c 80074039 		ldrb	w0, [x28, 1]
 1417 1090 84070091 		add	x4, x28, 1
 1418 1094 40DFFF34 		cbz	w0, .L513
 1419 1098 1F740171 		cmp	w0, 93
 1420 109c 0418407A 		ccmp	w0, 0, 4, ne
 1421 10a0 A0000054 		beq	.L276
 1422              	.L275:
AARCH64 GAS  C:\Users\ldebo\AppData\Local\Temp\ccfW7LPV.s 			page 26


 1423 10a4 801C4038 		ldrb	w0, [x4, 1]!
 1424 10a8 1F740171 		cmp	w0, 93
 1425 10ac 0418407A 		ccmp	w0, 0, 4, ne
 1426 10b0 A1FFFF54 		bne	.L275
 1427              	.L276:
 1428 10b4 9F6E0171 		cmp	w20, 91
 1429 10b8 813E0054 		bne	.L560
 1430 10bc 94001CCB 		sub	x20, x4, x28
 1431 10c0 E1031CAA 		mov	x1, x28
 1432 10c4 947E4093 		sxtw	x20, w20
 1433 10c8 E00319AA 		mov	x0, x25
 1434 10cc E20314AA 		mov	x2, x20
 1435 10d0 FC0304AA 		mov	x28, x4
 1436 10d4 00000094 		bl	strncpy
 1437 10d8 3F6B3438 		strb	wzr, [x25, x20]
 1438              	.L300:
 1439 10dc E07B40B9 		ldr	w0, [sp, 120]
 1440 10e0 80000035 		cbnz	w0, .L402
 1441 10e4 4D000014 		b	.L403
 1442              		.p2align 3
 1443              	.L404:
 1444 10e8 73060091 		add	x19, x19, 1
 1445 10ec 18070051 		sub	w24, w24, #1
 1446              	.L402:
 1447 10f0 61024039 		ldrb	w1, [x19]
 1448 10f4 E00319AA 		mov	x0, x25
 1449 10f8 00000094 		bl	strchr
 1450 10fc 1F030071 		cmp	w24, 0
 1451 1100 001840FA 		ccmp	x0, 0, 0, ne
 1452 1104 20FFFF54 		beq	.L404
 1453 1108 C8FEFF17 		b	.L238
 1454 110c 1F2003D5 		.p2align 3
 1455              	.L409:
 1456 1110 FF6300B9 		str	wzr, [sp, 96]
 1457 1114 F35340A9 		ldp	x19, x20, [sp]
 1458 1118 E06340B9 		ldr	w0, [sp, 96]
 1459 111c FE2B40F9 		ldr	x30, [sp, 80]
 1460 1120 FF431691 		add	sp, sp, 1424
 1461 1124 C0035FD6 		ret
 1462              	.L552:
 1463 1128 9F960171 		cmp	w20, 101
 1464 112c C2100054 		bcs	.L265
 1465 1130 9F1E0171 		cmp	w20, 71
 1466 1134 09100054 		bls	.L561
 1467 1138 9F860171 		cmp	w20, 97
 1468 113c 40100054 		beq	.L265
 1469 1140 9F920171 		cmp	w20, 100
 1470 1144 00F4FF54 		beq	.L477
 1471 1148 9F620171 		cmp	w20, 88
 1472 114c 41F1FF54 		bne	.L263
 1473 1150 7DFFFF17 		b	.L478
 1474              	.L551:
 1475 1154 A0064039 		ldrb	w0, [x21, 1]
 1476 1158 F30316AA 		mov	x19, x22
 1477 115c CBFFFF17 		b	.L254
 1478              	.L555:
 1479 1160 9F960171 		cmp	w20, 101
AARCH64 GAS  C:\Users\ldebo\AppData\Local\Temp\ccfW7LPV.s 			page 27


 1480 1164 E2000054 		bcs	.L296
 1481 1168 9F620171 		cmp	w20, 88
 1482 116c 20070054 		beq	.L297
 1483 1170 A8120054 		bhi	.L298
 1484 1174 80160151 		sub	w0, w20, #69
 1485 1178 1F080071 		cmp	w0, 2
 1486 117c E8E6FF54 		bhi	.L294
 1487              	.L296:
 1488 1180 E06740B9 		ldr	w0, [sp, 100]
 1489 1184 E0010035 		cbnz	w0, .L304
 1490 1188 FF320171 		cmp	w23, 76
 1491 118c E0230054 		beq	.L371
 1492 1190 FFB20171 		cmp	w23, 108
 1493 1194 A01D0054 		beq	.L372
 1494 1198 57010035 		cbnz	w23, .L304
 1495 119c E1230291 		add	x1, sp, 136
 1496 11a0 E00319AA 		mov	x0, x25
 1497 11a4 00000094 		bl	strtof
 1498 11a8 9B35F837 		tbnz	w27, #31, .L374
 1499 11ac 413F0091 		add	x1, x26, 15
 1500 11b0 E0031AAA 		mov	x0, x26
 1501 11b4 3AF07D92 		and	x26, x1, -8
 1502              	.L375:
 1503 11b8 000040F9 		ldr	x0, [x0]
 1504 11bc 000000BD 		str	s0, [x0]
 1505              		.p2align 3
 1506              	.L304:
 1507 11c0 9F6E0171 		cmp	w20, 91
 1508 11c4 20D3FF54 		beq	.L238
 1509              	.L567:
 1510 11c8 E06340B9 		ldr	w0, [sp, 96]
 1511 11cc 00040011 		add	w0, w0, 1
 1512 11d0 E06300B9 		str	w0, [sp, 96]
 1513 11d4 95FEFF17 		b	.L238
 1514              	.L553:
 1515 11d8 9FA60171 		cmp	w20, 105
 1516 11dc 80070054 		beq	.L269
 1517 11e0 9FBE0171 		cmp	w20, 111
 1518 11e4 80000054 		beq	.L517
 1519 11e8 63FFFF17 		b	.L263
 1520 11ec 1F2003D5 		.p2align 3
 1521              	.L273:
 1522 11f0 601E4038 		ldrb	w0, [x19, 1]!
 1523              	.L517:
 1524 11f4 00C00051 		sub	w0, w0, #48
 1525 11f8 001C0012 		and	w0, w0, 255
 1526 11fc 1F1C0071 		cmp	w0, 7
 1527 1200 89FFFF54 		bls	.L273
 1528 1204 00018052 		mov	w0, 8
 1529 1208 E06B00B9 		str	w0, [sp, 104]
 1530 120c EFFEFF17 		b	.L408
 1531              		.p2align 3
 1532              	.L406:
 1533 1210 73060091 		add	x19, x19, 1
 1534 1214 18070051 		sub	w24, w24, #1
 1535              	.L403:
 1536 1218 61024039 		ldrb	w1, [x19]
AARCH64 GAS  C:\Users\ldebo\AppData\Local\Temp\ccfW7LPV.s 			page 28


 1537 121c E00319AA 		mov	x0, x25
 1538 1220 00000094 		bl	strchr
 1539 1224 1F030071 		cmp	w24, 0
 1540 1228 E1079F1A 		cset	w1, ne
 1541 122c 1F0000F1 		cmp	x0, 0
 1542 1230 20109F1A 		csel	w0, w1, wzr, ne
 1543 1234 E07B00B9 		str	w0, [sp, 120]
 1544 1238 C0FEFF35 		cbnz	w0, .L406
 1545 123c 7BFEFF17 		b	.L238
 1546              	.L556:
 1547 1240 9FA60171 		cmp	w20, 105
 1548 1244 600C0054 		beq	.L299
 1549 1248 9FBE0171 		cmp	w20, 111
 1550 124c 61E0FF54 		bne	.L294
 1551              	.L297:
 1552 1250 E06740B9 		ldr	w0, [sp, 100]
 1553 1254 60FBFF35 		cbnz	w0, .L304
 1554 1258 FFAA0171 		cmp	w23, 106
 1555 125c A0180054 		beq	.L309
 1556 1260 A9100054 		bls	.L562
 1557 1264 FFD20171 		cmp	w23, 116
 1558 1268 40180054 		beq	.L309
 1559 126c FFEA0171 		cmp	w23, 122
 1560 1270 00180054 		beq	.L309
 1561 1274 FFB20171 		cmp	w23, 108
 1562 1278 41FAFF54 		bne	.L304
 1563 127c E07F40B9 		ldr	w0, [sp, 124]
 1564 1280 E1230291 		add	x1, sp, 136
 1565 1284 E26B40B9 		ldr	w2, [sp, 104]
 1566 1288 80170034 		cbz	w0, .L545
 1567 128c E00319AA 		mov	x0, x25
 1568 1290 00000094 		bl	strtoull
 1569 1294 3B0CF836 		tbz	w27, #31, .L525
 1570              	.L368:
 1571 1298 62230011 		add	w2, w27, 8
 1572 129c 5F000071 		cmp	w2, 0
 1573 12a0 8D240054 		ble	.L370
 1574 12a4 443F0091 		add	x4, x26, 15
 1575 12a8 E1031AAA 		mov	x1, x26
 1576 12ac FB03022A 		mov	w27, w2
 1577 12b0 9AF07D92 		and	x26, x4, -8
 1578 12b4 5C000014 		b	.L369
 1579              		.p2align 3
 1580              	.L559:
 1581 12b8 21008052 		mov	w1, 1
 1582 12bc BC0A0091 		add	x28, x21, 2
 1583 12c0 A00A4039 		ldrb	w0, [x21, 2]
 1584 12c4 E17B00B9 		str	w1, [sp, 120]
 1585 12c8 70FFFF17 		b	.L254
 1586              	.L269:
 1587 12cc 3FC00071 		cmp	w1, 48
 1588 12d0 61020054 		bne	.L280
 1589 12d4 D30A0091 		add	x19, x22, 2
 1590 12d8 1F880171 		cmp	w0, 98
 1591 12dc C0170054 		beq	.L282
 1592 12e0 1FE00171 		cmp	w0, 120
 1593 12e4 A10E0054 		bne	.L563
AARCH64 GAS  C:\Users\ldebo\AppData\Local\Temp\ccfW7LPV.s 			page 29


 1594              		.p2align 3
 1595              	.L283:
 1596 12e8 00000094 		bl	__locale_ctype_ptr
 1597 12ec 61024039 		ldrb	w1, [x19]
 1598 12f0 0000218B 		add	x0, x0, x1, uxtb
 1599 12f4 00044039 		ldrb	w0, [x0, 1]
 1600 12f8 C0001037 		tbnz	x0, 2, .L284
 1601 12fc 20781A12 		and	w0, w1, -33
 1602 1300 00040151 		sub	w0, w0, #65
 1603 1304 001C0012 		and	w0, w0, 255
 1604 1308 1F140071 		cmp	w0, 5
 1605 130c 08E3FF54 		bhi	.L514
 1606              	.L284:
 1607 1310 73060091 		add	x19, x19, 1
 1608 1314 F5FFFF17 		b	.L283
 1609              		.p2align 3
 1610              	.L287:
 1611 1318 73060091 		add	x19, x19, 1
 1612              	.L280:
 1613 131c 00000094 		bl	__locale_ctype_ptr
 1614 1320 61024039 		ldrb	w1, [x19]
 1615 1324 0000018B 		add	x0, x0, x1
 1616 1328 00044039 		ldrb	w0, [x0, 1]
 1617 132c 60FF1737 		tbnz	x0, 2, .L287
 1618 1330 11FFFF17 		b	.L263
 1619              	.L561:
 1620 1334 9F160171 		cmp	w20, 69
 1621 1338 62000054 		bcs	.L265
 1622 133c 9F060171 		cmp	w20, 65
 1623 1340 A1E1FF54 		bne	.L263
 1624              	.L265:
 1625 1344 3FB80071 		cmp	w1, 46
 1626 1348 15008052 		mov	w21, 0
 1627 134c E0179F1A 		cset	w0, eq
 1628 1350 E06F00B9 		str	w0, [sp, 108]
 1629 1354 1F2003D5 		.p2align 3
 1630              	.L291:
 1631 1358 E06F40B9 		ldr	w0, [sp, 108]
 1632 135c 80000035 		cbnz	w0, .L288
 1633 1360 60024039 		ldrb	w0, [x19]
 1634 1364 1FB80071 		cmp	w0, 46
 1635 1368 60020054 		beq	.L564
 1636              	.L288:
 1637 136c 75010035 		cbnz	w21, .L289
 1638 1370 60024039 		ldrb	w0, [x19]
 1639 1374 00781A12 		and	w0, w0, -33
 1640 1378 001C0012 		and	w0, w0, 255
 1641 137c 1F140171 		cmp	w0, 69
 1642 1380 C1000054 		bne	.L289
 1643 1384 60064039 		ldrb	w0, [x19, 1]
 1644 1388 1FB40071 		cmp	w0, 45
 1645 138c E0060054 		beq	.L290
 1646 1390 73060091 		add	x19, x19, 1
 1647 1394 35008052 		mov	w21, 1
 1648              		.p2align 3
 1649              	.L289:
 1650 1398 00000094 		bl	__locale_ctype_ptr
AARCH64 GAS  C:\Users\ldebo\AppData\Local\Temp\ccfW7LPV.s 			page 30


 1651 139c 61024039 		ldrb	w1, [x19]
 1652 13a0 0000018B 		add	x0, x0, x1
 1653 13a4 00044039 		ldrb	w0, [x0, 1]
 1654 13a8 60DE1736 		tbz	x0, 2, .L263
 1655 13ac 73060091 		add	x19, x19, 1
 1656 13b0 EAFFFF17 		b	.L291
 1657              	.L564:
 1658 13b4 20008052 		mov	w0, 1
 1659 13b8 73060091 		add	x19, x19, 1
 1660 13bc E06F00B9 		str	w0, [sp, 108]
 1661 13c0 EBFFFF17 		b	.L288
 1662              	.L298:
 1663 13c4 9F8E0171 		cmp	w20, 99
 1664 13c8 A0DDFF54 		beq	.L292
 1665 13cc 09090054 		bls	.L565
 1666              	.L299:
 1667 13d0 E06740B9 		ldr	w0, [sp, 100]
 1668 13d4 60EFFF35 		cbnz	w0, .L304
 1669 13d8 FFAA0171 		cmp	w23, 106
 1670 13dc 600D0054 		beq	.L342
 1671 13e0 C9080054 		bls	.L566
 1672 13e4 FFD20171 		cmp	w23, 116
 1673 13e8 000D0054 		beq	.L342
 1674 13ec FFEA0171 		cmp	w23, 122
 1675 13f0 C00C0054 		beq	.L342
 1676 13f4 FFB20171 		cmp	w23, 108
 1677 13f8 41EEFF54 		bne	.L304
 1678 13fc E07F40B9 		ldr	w0, [sp, 124]
 1679 1400 E1230291 		add	x1, sp, 136
 1680 1404 E26B40B9 		ldr	w2, [sp, 104]
 1681 1408 400C0034 		cbz	w0, .L541
 1682 140c E00319AA 		mov	x0, x25
 1683 1410 00000094 		bl	strtoll
 1684 1414 3BF4FF37 		tbnz	w27, #31, .L368
 1685              	.L525:
 1686 1418 423F0091 		add	x2, x26, 15
 1687 141c E1031AAA 		mov	x1, x26
 1688 1420 5AF07D92 		and	x26, x2, -8
 1689              	.L369:
 1690 1424 210040F9 		ldr	x1, [x1]
 1691 1428 9F6E0171 		cmp	w20, 91
 1692 142c 200000F9 		str	x0, [x1]
 1693 1430 C1ECFF54 		bne	.L567
 1694 1434 FDFDFF17 		b	.L238
 1695              	.L301:
 1696 1438 E1230291 		add	x1, sp, 136
 1697 143c 02028052 		mov	w2, 16
 1698 1440 E00319AA 		mov	x0, x25
 1699 1444 00000094 		bl	strtol
 1700 1448 E16740B9 		ldr	w1, [sp, 100]
 1701 144c 61D0FF35 		cbnz	w1, .L294
 1702 1450 1B1CF837 		tbnz	w27, #31, .L383
 1703 1454 423F0091 		add	x2, x26, 15
 1704 1458 E1031AAA 		mov	x1, x26
 1705 145c 5AF07D92 		and	x26, x2, -8
 1706 1460 E3000014 		b	.L384
 1707 1464 1F2003D5 		.p2align 3
AARCH64 GAS  C:\Users\ldebo\AppData\Local\Temp\ccfW7LPV.s 			page 31


 1708              	.L290:
 1709 1468 730A0091 		add	x19, x19, 2
 1710 146c 35008052 		mov	w21, 1
 1711 1470 CAFFFF17 		b	.L289
 1712              	.L562:
 1713 1474 770F0034 		cbz	w23, .L307
 1714 1478 FFA20171 		cmp	w23, 104
 1715 147c 21EAFF54 		bne	.L304
 1716 1480 E07F40B9 		ldr	w0, [sp, 124]
 1717 1484 E1230291 		add	x1, sp, 136
 1718 1488 E26B40B9 		ldr	w2, [sp, 104]
 1719 148c A0110034 		cbz	w0, .L315
 1720 1490 E00319AA 		mov	x0, x25
 1721 1494 00000094 		bl	strtoul
 1722 1498 001C0012 		and	w0, w0, 255
 1723 149c 5B04F837 		tbnz	w27, #31, .L349
 1724              	.L521:
 1725 14a0 423F0091 		add	x2, x26, 15
 1726 14a4 E1031AAA 		mov	x1, x26
 1727 14a8 5AF07D92 		and	x26, x2, -8
 1728              	.L350:
 1729 14ac 210040F9 		ldr	x1, [x1]
 1730 14b0 20000039 		strb	w0, [x1]
 1731 14b4 43FFFF17 		b	.L304
 1732              	.L563:
 1733 14b8 C00A4039 		ldrb	w0, [x22, 2]
 1734 14bc 00C00051 		sub	w0, w0, #48
 1735 14c0 001C0012 		and	w0, w0, 255
 1736 14c4 1F1C0071 		cmp	w0, 7
 1737 14c8 C8000054 		bhi	.L417
 1738              	.L286:
 1739 14cc 601E4038 		ldrb	w0, [x19, 1]!
 1740 14d0 00C00051 		sub	w0, w0, #48
 1741 14d4 001C0012 		and	w0, w0, 255
 1742 14d8 1F1C0071 		cmp	w0, 7
 1743 14dc 89FFFF54 		bls	.L286
 1744              	.L417:
 1745 14e0 00018052 		mov	w0, 8
 1746 14e4 E06B00B9 		str	w0, [sp, 104]
 1747 14e8 A3FEFF17 		b	.L263
 1748              	.L565:
 1749 14ec 9F6E0171 		cmp	w20, 91
 1750 14f0 41CBFF54 		bne	.L294
 1751 14f4 FAFEFF17 		b	.L300
 1752              		.p2align 3
 1753              	.L566:
 1754 14f8 F7090034 		cbz	w23, .L340
 1755 14fc FFA20171 		cmp	w23, 104
 1756 1500 01E6FF54 		bne	.L304
 1757 1504 E07F40B9 		ldr	w0, [sp, 124]
 1758 1508 E1230291 		add	x1, sp, 136
 1759 150c E26B40B9 		ldr	w2, [sp, 104]
 1760 1510 400C0034 		cbz	w0, .L348
 1761 1514 E00319AA 		mov	x0, x25
 1762 1518 00000094 		bl	strtol
 1763 151c 001C0013 		sxtb	w0, w0
 1764 1520 1BFCFF36 		tbz	w27, #31, .L521
AARCH64 GAS  C:\Users\ldebo\AppData\Local\Temp\ccfW7LPV.s 			page 32


 1765              	.L349:
 1766 1524 62230011 		add	w2, w27, 8
 1767 1528 5F000071 		cmp	w2, 0
 1768 152c 6D1A0054 		ble	.L351
 1769 1530 443F0091 		add	x4, x26, 15
 1770 1534 E1031AAA 		mov	x1, x26
 1771 1538 FB03022A 		mov	w27, w2
 1772 153c 9AF07D92 		and	x26, x4, -8
 1773 1540 DBFFFF17 		b	.L350
 1774 1544 1F2003D5 		.p2align 3
 1775              	.L372:
 1776 1548 E1230291 		add	x1, sp, 136
 1777 154c E00319AA 		mov	x0, x25
 1778 1550 00000094 		bl	strtod
 1779 1554 FB0CF837 		tbnz	w27, #31, .L377
 1780 1558 413F0091 		add	x1, x26, 15
 1781 155c E0031AAA 		mov	x0, x26
 1782 1560 3AF07D92 		and	x26, x1, -8
 1783              	.L378:
 1784 1564 000040F9 		ldr	x0, [x0]
 1785 1568 000000FD 		str	d0, [x0]
 1786 156c 15FFFF17 		b	.L304
 1787              	.L309:
 1788 1570 E26B40B9 		ldr	w2, [sp, 104]
 1789 1574 E1230291 		add	x1, sp, 136
 1790              	.L545:
 1791 1578 E00319AA 		mov	x0, x25
 1792 157c 00000094 		bl	strtoul
 1793 1580 DBF4FF36 		tbz	w27, #31, .L525
 1794 1584 45FFFF17 		b	.L368
 1795              		.p2align 3
 1796              	.L342:
 1797 1588 E26B40B9 		ldr	w2, [sp, 104]
 1798 158c E1230291 		add	x1, sp, 136
 1799              	.L541:
 1800 1590 E00319AA 		mov	x0, x25
 1801 1594 00000094 		bl	strtol
 1802 1598 1BF4FF36 		tbz	w27, #31, .L525
 1803 159c 3FFFFF17 		b	.L368
 1804              		.p2align 3
 1805              	.L413:
 1806 15a0 FC0315AA 		mov	x28, x21
 1807 15a4 F403172A 		mov	w20, w23
 1808 15a8 F50316AA 		mov	x21, x22
 1809 15ac 17008052 		mov	w23, 0
 1810 15b0 D1FDFF17 		b	.L245
 1811              	.L394:
 1812 15b4 C2024039 		ldrb	w2, [x22]
 1813 15b8 7B17F837 		tbnz	w27, #31, .L396
 1814 15bc 413F0091 		add	x1, x26, 15
 1815 15c0 E0031AAA 		mov	x0, x26
 1816 15c4 3AF07D92 		and	x26, x1, -8
 1817              	.L397:
 1818 15c8 000040F9 		ldr	x0, [x0]
 1819 15cc 02000039 		strb	w2, [x0]
 1820 15d0 22FEFF17 		b	.L294
 1821              	.L282:
AARCH64 GAS  C:\Users\ldebo\AppData\Local\Temp\ccfW7LPV.s 			page 33


 1822 15d4 C00A4039 		ldrb	w0, [x22, 2]
 1823 15d8 00C00051 		sub	w0, w0, #48
 1824 15dc 001C0012 		and	w0, w0, 255
 1825 15e0 1F040071 		cmp	w0, 1
 1826 15e4 C8000054 		bhi	.L416
 1827              	.L285:
 1828 15e8 601E4038 		ldrb	w0, [x19, 1]!
 1829 15ec 00C00051 		sub	w0, w0, #48
 1830 15f0 001C0012 		and	w0, w0, 255
 1831 15f4 1F040071 		cmp	w0, 1
 1832 15f8 89FFFF54 		bls	.L285
 1833              	.L416:
 1834 15fc 40008052 		mov	w0, 2
 1835 1600 E06B00B9 		str	w0, [sp, 104]
 1836 1604 5CFEFF17 		b	.L263
 1837              	.L371:
 1838 1608 E1230291 		add	x1, sp, 136
 1839 160c E00319AA 		mov	x0, x25
 1840 1610 00000094 		bl	strtold
 1841 1614 011CA04E 		orr	v1.16b, v0.16b, v0.16b
 1842 1618 DB0AF837 		tbnz	w27, #31, .L380
 1843 161c 413F0091 		add	x1, x26, 15
 1844 1620 E0031AAA 		mov	x0, x26
 1845 1624 3AF07D92 		and	x26, x1, -8
 1846              	.L381:
 1847 1628 000040F9 		ldr	x0, [x0]
 1848 162c 0100803D 		str	q1, [x0]
 1849 1630 E4FEFF17 		b	.L304
 1850              	.L340:
 1851 1634 E26B40B9 		ldr	w2, [sp, 104]
 1852 1638 E1230291 		add	x1, sp, 136
 1853 163c E00319AA 		mov	x0, x25
 1854 1640 00000094 		bl	strtol
 1855 1644 9B01F837 		tbnz	w27, #31, .L345
 1856              	.L519:
 1857 1648 423F0091 		add	x2, x26, 15
 1858 164c E1031AAA 		mov	x1, x26
 1859 1650 5AF07D92 		and	x26, x2, -8
 1860              	.L346:
 1861 1654 210040F9 		ldr	x1, [x1]
 1862 1658 200000B9 		str	w0, [x1]
 1863 165c D9FEFF17 		b	.L304
 1864              	.L307:
 1865 1660 E26B40B9 		ldr	w2, [sp, 104]
 1866 1664 E1230291 		add	x1, sp, 136
 1867 1668 E00319AA 		mov	x0, x25
 1868 166c 00000094 		bl	strtoul
 1869 1670 DBFEFF36 		tbz	w27, #31, .L519
 1870              	.L345:
 1871 1674 62230011 		add	w2, w27, 8
 1872 1678 5F000071 		cmp	w2, 0
 1873 167c 2D060054 		ble	.L347
 1874 1680 443F0091 		add	x4, x26, 15
 1875 1684 E1031AAA 		mov	x1, x26
 1876 1688 FB03022A 		mov	w27, w2
 1877 168c 9AF07D92 		and	x26, x4, -8
 1878 1690 F1FFFF17 		b	.L346
AARCH64 GAS  C:\Users\ldebo\AppData\Local\Temp\ccfW7LPV.s 			page 34


 1879 1694 1F2003D5 		.p2align 3
 1880              	.L348:
 1881 1698 E00319AA 		mov	x0, x25
 1882 169c 00000094 		bl	strtol
 1883 16a0 003C0013 		sxth	w0, w0
 1884 16a4 7B01F837 		tbnz	w27, #31, .L352
 1885              	.L523:
 1886 16a8 423F0091 		add	x2, x26, 15
 1887 16ac E1031AAA 		mov	x1, x26
 1888 16b0 5AF07D92 		and	x26, x2, -8
 1889              	.L353:
 1890 16b4 210040F9 		ldr	x1, [x1]
 1891 16b8 20000079 		strh	w0, [x1]
 1892 16bc C1FEFF17 		b	.L304
 1893              	.L315:
 1894 16c0 E00319AA 		mov	x0, x25
 1895 16c4 00000094 		bl	strtoul
 1896 16c8 003C0012 		and	w0, w0, 65535
 1897 16cc FBFEFF36 		tbz	w27, #31, .L523
 1898              	.L352:
 1899 16d0 62230011 		add	w2, w27, 8
 1900 16d4 5F000071 		cmp	w2, 0
 1901 16d8 CD010054 		ble	.L354
 1902 16dc 443F0091 		add	x4, x26, 15
 1903 16e0 E1031AAA 		mov	x1, x26
 1904 16e4 FB03022A 		mov	w27, w2
 1905 16e8 9AF07D92 		and	x26, x4, -8
 1906 16ec F2FFFF17 		b	.L353
 1907              	.L377:
 1908 16f0 61230011 		add	w1, w27, 8
 1909 16f4 3F000071 		cmp	w1, 0
 1910 16f8 4D010054 		ble	.L379
 1911 16fc 423F0091 		add	x2, x26, 15
 1912 1700 E0031AAA 		mov	x0, x26
 1913 1704 FB03012A 		mov	w27, w1
 1914 1708 5AF07D92 		and	x26, x2, -8
 1915 170c 96FFFF17 		b	.L378
 1916              	.L354:
 1917 1710 E13B40F9 		ldr	x1, [sp, 112]
 1918 1714 21C03B8B 		add	x1, x1, x27, sxtw
 1919 1718 FB03022A 		mov	w27, w2
 1920 171c E6FFFF17 		b	.L353
 1921              	.L379:
 1922 1720 E03B40F9 		ldr	x0, [sp, 112]
 1923 1724 00C03B8B 		add	x0, x0, x27, sxtw
 1924 1728 FB03012A 		mov	w27, w1
 1925 172c 8EFFFF17 		b	.L378
 1926              	.L370:
 1927 1730 E13B40F9 		ldr	x1, [sp, 112]
 1928 1734 21C03B8B 		add	x1, x1, x27, sxtw
 1929 1738 FB03022A 		mov	w27, w2
 1930 173c 3AFFFF17 		b	.L369
 1931              	.L347:
 1932 1740 E13B40F9 		ldr	x1, [sp, 112]
 1933 1744 21C03B8B 		add	x1, x1, x27, sxtw
 1934 1748 FB03022A 		mov	w27, w2
 1935 174c C2FFFF17 		b	.L346
AARCH64 GAS  C:\Users\ldebo\AppData\Local\Temp\ccfW7LPV.s 			page 35


 1936              	.L386:
 1937 1750 1B02F837 		tbnz	w27, #31, .L388
 1938 1754 413F0091 		add	x1, x26, 15
 1939 1758 E0031AAA 		mov	x0, x26
 1940 175c 3AF07D92 		and	x26, x1, -8
 1941              	.L389:
 1942 1760 000040F9 		ldr	x0, [x0]
 1943 1764 E10319AA 		mov	x1, x25
 1944 1768 00000094 		bl	strcpy
 1945 176c BBFDFF17 		b	.L294
 1946              	.L380:
 1947 1770 61230011 		add	w1, w27, 8
 1948 1774 3F000071 		cmp	w1, 0
 1949 1778 CD010054 		ble	.L382
 1950 177c 423F0091 		add	x2, x26, 15
 1951 1780 E0031AAA 		mov	x0, x26
 1952 1784 FB03012A 		mov	w27, w1
 1953 1788 5AF07D92 		and	x26, x2, -8
 1954 178c A7FFFF17 		b	.L381
 1955              	.L388:
 1956 1790 61230011 		add	w1, w27, 8
 1957 1794 3F000071 		cmp	w1, 0
 1958 1798 4D010054 		ble	.L390
 1959 179c 423F0091 		add	x2, x26, 15
 1960 17a0 E0031AAA 		mov	x0, x26
 1961 17a4 FB03012A 		mov	w27, w1
 1962 17a8 5AF07D92 		and	x26, x2, -8
 1963 17ac EDFFFF17 		b	.L389
 1964              	.L382:
 1965 17b0 E03B40F9 		ldr	x0, [sp, 112]
 1966 17b4 00C03B8B 		add	x0, x0, x27, sxtw
 1967 17b8 FB03012A 		mov	w27, w1
 1968 17bc 9BFFFF17 		b	.L381
 1969              	.L390:
 1970 17c0 E03B40F9 		ldr	x0, [sp, 112]
 1971 17c4 00C03B8B 		add	x0, x0, x27, sxtw
 1972 17c8 FB03012A 		mov	w27, w1
 1973 17cc E5FFFF17 		b	.L389
 1974              	.L383:
 1975 17d0 62230011 		add	w2, w27, 8
 1976 17d4 5F000071 		cmp	w2, 0
 1977 17d8 0D020054 		ble	.L385
 1978 17dc 443F0091 		add	x4, x26, 15
 1979 17e0 E1031AAA 		mov	x1, x26
 1980 17e4 FB03022A 		mov	w27, w2
 1981 17e8 9AF07D92 		and	x26, x4, -8
 1982              	.L384:
 1983 17ec 210040F9 		ldr	x1, [x1]
 1984 17f0 200000F9 		str	x0, [x1]
 1985 17f4 99FDFF17 		b	.L294
 1986              	.L399:
 1987 17f8 61230011 		add	w1, w27, 8
 1988 17fc 3F000071 		cmp	w1, 0
 1989 1800 4D010054 		ble	.L401
 1990 1804 423F0091 		add	x2, x26, 15
 1991 1808 E0031AAA 		mov	x0, x26
 1992 180c FB03012A 		mov	w27, w1
AARCH64 GAS  C:\Users\ldebo\AppData\Local\Temp\ccfW7LPV.s 			page 36


 1993 1810 5AF07D92 		and	x26, x2, -8
 1994 1814 E7FDFF17 		b	.L400
 1995              	.L385:
 1996 1818 E13B40F9 		ldr	x1, [sp, 112]
 1997 181c 21C03B8B 		add	x1, x1, x27, sxtw
 1998 1820 FB03022A 		mov	w27, w2
 1999 1824 F2FFFF17 		b	.L384
 2000              	.L401:
 2001 1828 E03B40F9 		ldr	x0, [sp, 112]
 2002 182c 00C03B8B 		add	x0, x0, x27, sxtw
 2003 1830 FB03012A 		mov	w27, w1
 2004 1834 DFFDFF17 		b	.L400
 2005              	.L391:
 2006 1838 61230011 		add	w1, w27, 8
 2007 183c 3F000071 		cmp	w1, 0
 2008 1840 AD020054 		ble	.L393
 2009 1844 423F0091 		add	x2, x26, 15
 2010 1848 E0031AAA 		mov	x0, x26
 2011 184c FB03012A 		mov	w27, w1
 2012 1850 5AF07D92 		and	x26, x2, -8
 2013 1854 7EFDFF17 		b	.L392
 2014              	.L374:
 2015 1858 61230011 		add	w1, w27, 8
 2016 185c 3F000071 		cmp	w1, 0
 2017 1860 2D030054 		ble	.L376
 2018 1864 423F0091 		add	x2, x26, 15
 2019 1868 E0031AAA 		mov	x0, x26
 2020 186c FB03012A 		mov	w27, w1
 2021 1870 5AF07D92 		and	x26, x2, -8
 2022 1874 51FEFF17 		b	.L375
 2023              	.L351:
 2024 1878 E13B40F9 		ldr	x1, [sp, 112]
 2025 187c 21C03B8B 		add	x1, x1, x27, sxtw
 2026 1880 FB03022A 		mov	w27, w2
 2027 1884 0AFFFF17 		b	.L350
 2028              	.L560:
 2029 1888 F6031CAA 		mov	x22, x28
 2030 188c FC0304AA 		mov	x28, x4
 2031 1890 4EFDFF17 		b	.L408
 2032              	.L393:
 2033 1894 E03B40F9 		ldr	x0, [sp, 112]
 2034 1898 00C03B8B 		add	x0, x0, x27, sxtw
 2035 189c FB03012A 		mov	w27, w1
 2036 18a0 6BFDFF17 		b	.L392
 2037              	.L396:
 2038 18a4 61230011 		add	w1, w27, 8
 2039 18a8 3F000071 		cmp	w1, 0
 2040 18ac 4D010054 		ble	.L398
 2041 18b0 443F0091 		add	x4, x26, 15
 2042 18b4 E0031AAA 		mov	x0, x26
 2043 18b8 FB03012A 		mov	w27, w1
 2044 18bc 9AF07D92 		and	x26, x4, -8
 2045 18c0 42FFFF17 		b	.L397
 2046              	.L376:
 2047 18c4 E03B40F9 		ldr	x0, [sp, 112]
 2048 18c8 00C03B8B 		add	x0, x0, x27, sxtw
 2049 18cc FB03012A 		mov	w27, w1
AARCH64 GAS  C:\Users\ldebo\AppData\Local\Temp\ccfW7LPV.s 			page 37


 2050 18d0 3AFEFF17 		b	.L375
 2051              	.L398:
 2052 18d4 E03B40F9 		ldr	x0, [sp, 112]
 2053 18d8 00C03B8B 		add	x0, x0, x27, sxtw
 2054 18dc FB03012A 		mov	w27, w1
 2055 18e0 3AFFFF17 		b	.L397
 2056              		.size	vsscanf, .-vsscanf
 2057              		.align	2
 2058 18e4 1F2003D5 		.p2align 4,,15
 2058      1F2003D5 
 2058      1F2003D5 
 2059              		.global	sscanf
 2060              		.type	sscanf, %function
 2061              	sscanf:
 2062 18f0 FF0304D1 		sub	sp, sp, #256
 2063 18f4 FE0300F9 		str	x30, [sp]
 2064 18f8 E20F0DA9 		stp	x2, x3, [sp, 208]
 2065 18fc E4170EA9 		stp	x4, x5, [sp, 224]
 2066 1900 E61F0FA9 		stp	x6, x7, [sp, 240]
 2067 1904 E017803D 		str	q0, [sp, 80]
 2068 1908 E11B803D 		str	q1, [sp, 96]
 2069 190c E21F803D 		str	q2, [sp, 112]
 2070 1910 E323803D 		str	q3, [sp, 128]
 2071 1914 E427803D 		str	q4, [sp, 144]
 2072 1918 E52B803D 		str	q5, [sp, 160]
 2073 191c E62F803D 		str	q6, [sp, 176]
 2074 1920 E733803D 		str	q7, [sp, 192]
 2075 1924 600200B4 		cbz	x0, .L570
 2076 1928 E2030491 		add	x2, sp, 256
 2077 192c E20B03A9 		stp	x2, x2, [sp, 48]
 2078 1930 E2058012 		mov	w2, -48
 2079 1934 E3430391 		add	x3, sp, 208
 2080 1938 E32300F9 		str	x3, [sp, 64]
 2081 193c E24B00B9 		str	w2, [sp, 72]
 2082 1940 E20F8012 		mov	w2, -128
 2083 1944 E24F00B9 		str	w2, [sp, 76]
 2084 1948 E2430091 		add	x2, sp, 16
 2085 194c E61F43A9 		ldp	x6, x7, [sp, 48]
 2086 1950 E61F01A9 		stp	x6, x7, [sp, 16]
 2087 1954 E41744A9 		ldp	x4, x5, [sp, 64]
 2088 1958 E41702A9 		stp	x4, x5, [sp, 32]
 2089 195c 00000094 		bl	vsscanf
 2090 1960 FE0340F9 		ldr	x30, [sp]
 2091 1964 FF030491 		add	sp, sp, 256
 2092 1968 C0035FD6 		ret
 2093 196c 1F2003D5 		.p2align 3
 2094              	.L570:
 2095 1970 FE0340F9 		ldr	x30, [sp]
 2096 1974 00008052 		mov	w0, 0
 2097 1978 FF030491 		add	sp, sp, 256
 2098 197c C0035FD6 		ret
 2099              		.size	sscanf, .-sscanf
 2100              		.align	2
 2101              		.p2align 4,,15
 2102              		.global	emb_sprintf
 2103              		.type	emb_sprintf, %function
 2104              	emb_sprintf:
AARCH64 GAS  C:\Users\ldebo\AppData\Local\Temp\ccfW7LPV.s 			page 38


 2105 1980 FF0304D1 		sub	sp, sp, #256
 2106 1984 E8030491 		add	x8, sp, 256
 2107 1988 E9430391 		add	x9, sp, 208
 2108 198c E82303A9 		stp	x8, x8, [sp, 48]
 2109 1990 E8058012 		mov	w8, -48
 2110 1994 E92300F9 		str	x9, [sp, 64]
 2111 1998 E84B00B9 		str	w8, [sp, 72]
 2112 199c E80F8012 		mov	w8, -128
 2113 19a0 E84F00B9 		str	w8, [sp, 76]
 2114 19a4 EA2F43A9 		ldp	x10, x11, [sp, 48]
 2115 19a8 FE0300F9 		str	x30, [sp]
 2116 19ac E82744A9 		ldp	x8, x9, [sp, 64]
 2117 19b0 EA2F01A9 		stp	x10, x11, [sp, 16]
 2118 19b4 E82702A9 		stp	x8, x9, [sp, 32]
 2119 19b8 E017803D 		str	q0, [sp, 80]
 2120 19bc E11B803D 		str	q1, [sp, 96]
 2121 19c0 E21F803D 		str	q2, [sp, 112]
 2122 19c4 E323803D 		str	q3, [sp, 128]
 2123 19c8 E427803D 		str	q4, [sp, 144]
 2124 19cc E52B803D 		str	q5, [sp, 160]
 2125 19d0 E62F803D 		str	q6, [sp, 176]
 2126 19d4 E733803D 		str	q7, [sp, 192]
 2127 19d8 E20F0DA9 		stp	x2, x3, [sp, 208]
 2128 19dc E2430091 		add	x2, sp, 16
 2129 19e0 E4170EA9 		stp	x4, x5, [sp, 224]
 2130 19e4 E61F0FA9 		stp	x6, x7, [sp, 240]
 2131 19e8 00000094 		bl	emb_vsprintf
 2132 19ec FE0340F9 		ldr	x30, [sp]
 2133 19f0 FF030491 		add	sp, sp, 256
 2134 19f4 C0035FD6 		ret
 2135              		.size	emb_sprintf, .-emb_sprintf
 2136              		.align	2
 2137 19f8 1F2003D5 		.p2align 4,,15
 2137      1F2003D5 
 2138              		.global	printf
 2139              		.type	printf, %function
 2140              	printf:
 2141 1a00 FF830CD1 		sub	sp, sp, #800
 2142 1a04 E8830C91 		add	x8, sp, 800
 2143 1a08 EC030891 		add	x12, sp, 512
 2144 1a0c E9830B91 		add	x9, sp, 736
 2145 1a10 E82304A9 		stp	x8, x8, [sp, 64]
 2146 1a14 E8068012 		mov	w8, -56
 2147 1a18 F35300A9 		stp	x19, x20, [sp]
 2148 1a1c F57B01A9 		stp	x21, x30, [sp, 16]
 2149 1a20 E92B00F9 		str	x9, [sp, 80]
 2150 1a24 E85B00B9 		str	w8, [sp, 88]
 2151 1a28 E80F8012 		mov	w8, -128
 2152 1a2c E85F00B9 		str	w8, [sp, 92]
 2153 1a30 EA2F44A9 		ldp	x10, x11, [sp, 64]
 2154 1a34 E82745A9 		ldp	x8, x9, [sp, 80]
 2155 1a38 8019803D 		str	q0, [x12, 96]
 2156 1a3c 811D803D 		str	q1, [x12, 112]
 2157 1a40 8221803D 		str	q2, [x12, 128]
 2158 1a44 8325803D 		str	q3, [x12, 144]
 2159 1a48 8429803D 		str	q4, [x12, 160]
 2160 1a4c 852D803D 		str	q5, [x12, 176]
AARCH64 GAS  C:\Users\ldebo\AppData\Local\Temp\ccfW7LPV.s 			page 39


 2161 1a50 8631803D 		str	q6, [x12, 192]
 2162 1a54 8735803D 		str	q7, [x12, 208]
 2163 1a58 E82703A9 		stp	x8, x9, [sp, 48]
 2164 1a5c E8030891 		add	x8, sp, 512
 2165 1a60 EA2F02A9 		stp	x10, x11, [sp, 32]
 2166 1a64 01890EA9 		stp	x1, x2, [x8, 232]
 2167 1a68 E10300AA 		mov	x1, x0
 2168 1a6c 03910FA9 		stp	x3, x4, [x8, 248]
 2169 1a70 E2830091 		add	x2, sp, 32
 2170 1a74 E58701F9 		str	x5, [sp, 776]
 2171 1a78 E0830191 		add	x0, sp, 96
 2172 1a7c E68B01F9 		str	x6, [sp, 784]
 2173 1a80 E78F01F9 		str	x7, [sp, 792]
 2174 1a84 00000094 		bl	emb_vsprintf
 2175 1a88 F503002A 		mov	w21, w0
 2176 1a8c 1F000071 		cmp	w0, 0
 2177 1a90 4D010054 		ble	.L574
 2178 1a94 F3830191 		add	x19, sp, 96
 2179 1a98 14040051 		sub	w20, w0, #1
 2180 1a9c 60060091 		add	x0, x19, 1
 2181 1aa0 1400148B 		add	x20, x0, x20
 2182 1aa4 1F2003D5 		.p2align 3
 2183              	.L576:
 2184 1aa8 60164038 		ldrb	w0, [x19], 1
 2185 1aac 00000094 		bl	Embedded_Console_WriteChar
 2186 1ab0 7F0214EB 		cmp	x19, x20
 2187 1ab4 A1FFFF54 		bne	.L576
 2188              	.L574:
 2189 1ab8 E003152A 		mov	w0, w21
 2190 1abc F35340A9 		ldp	x19, x20, [sp]
 2191 1ac0 F57B41A9 		ldp	x21, x30, [sp, 16]
 2192 1ac4 FF830C91 		add	sp, sp, 800
 2193 1ac8 C0035FD6 		ret
 2194              		.size	printf, .-printf
 2195              		.comm	__errno,4,4
 2196              		.section	.rodata
 2197 00f2 00000000 		.align	3
 2197      0000
 2198              		.set	.LANCHOR0,. + 0
 2199              		.type	digits.4628, %object
 2200              		.size	digits.4628, 16
 2201              	digits.4628:
 2202 00f8 30313233 		.ascii	"0123456789ABCDEF"
 2202      34353637 
 2202      38394142 
 2202      43444546 
 2203              		.ident	"GCC: (Linaro GCC 7.1-2017.05) 7.1.1 20170510"
AARCH64 GAS  C:\Users\ldebo\AppData\Local\Temp\ccfW7LPV.s 			page 40


DEFINED SYMBOLS
                            *ABS*:0000000000000000 emb-stdio.c
C:\Users\ldebo\AppData\Local\Temp\ccfW7LPV.s:4      .text:0000000000000000 $x
C:\Users\ldebo\AppData\Local\Temp\ccfW7LPV.s:7      .text:0000000000000000 number
C:\Users\ldebo\AppData\Local\Temp\ccfW7LPV.s:221    .text:00000000000002b0 strnlen
C:\Users\ldebo\AppData\Local\Temp\ccfW7LPV.s:247    .text:00000000000002f0 emb_vsprintf
C:\Users\ldebo\AppData\Local\Temp\ccfW7LPV.s:934    .text:0000000000000bd0 vsscanf
C:\Users\ldebo\AppData\Local\Temp\ccfW7LPV.s:1029   .rodata:0000000000000000 $d
C:\Users\ldebo\AppData\Local\Temp\ccfW7LPV.s:2061   .text:00000000000018f0 sscanf
C:\Users\ldebo\AppData\Local\Temp\ccfW7LPV.s:2104   .text:0000000000001980 emb_sprintf
C:\Users\ldebo\AppData\Local\Temp\ccfW7LPV.s:2140   .text:0000000000001a00 printf
                            *COM*:0000000000000004 __errno
C:\Users\ldebo\AppData\Local\Temp\ccfW7LPV.s:2201   .rodata:00000000000000f8 digits.4628

UNDEFINED SYMBOLS
__locale_ctype_ptr
strncpy
strlen
mbstowcs
wcscpy
strtol
strchr
strtof
strtoull
strtoll
strtoul
strtod
strtold
strcpy
Embedded_Console_WriteChar
AARCH64 GAS  C:\Users\ldebo\AppData\Local\Temp\ccfW7LPV.s 			page 1


   1              		.arch armv8-a
   2              		.file	"rpi-Usb.c"
   3              		.text
   4              		.align	2
   5              		.p2align 4,,15
   6              		.global	HcdProcessRootHubMessage
   7              		.type	HcdProcessRootHubMessage, %function
   8              	HcdProcessRootHubMessage:
   9 0000 44044039 		ldrb	w4, [x2, 1]
  10 0004 9F140071 		cmp	w4, 5
  11 0008 40120054 		beq	.L3
  12 000c F353BCA9 		stp	x19, x20, [sp, -64]!
  13 0010 FE0F00F9 		str	x30, [sp, 24]
  14 0014 E9010054 		bls	.L82
  15 0018 9F200071 		cmp	w4, 8
  16 001c A00C0054 		beq	.L8
  17 0020 9F240071 		cmp	w4, 9
  18 0024 E0060054 		beq	.L72
  19 0028 9F180071 		cmp	w4, 6
  20 002c 600A0054 		beq	.L83
  21              	.L71:
  22 0030 20008012 		mov	w0, -2
  23 0034 01008052 		mov	w1, 0
  24              	.L9:
  25 0038 430000B4 		cbz	x3, .L1
  26 003c 610000B9 		str	w1, [x3]
  27              	.L1:
  28 0040 FE0F40F9 		ldr	x30, [sp, 24]
  29 0044 F353C4A8 		ldp	x19, x20, [sp], 64
  30 0048 C0035FD6 		ret
  31 004c 1F2003D5 		.p2align 3
  32              	.L82:
  33 0050 9F040071 		cmp	w4, 1
  34 0054 A00B0054 		beq	.L5
  35 0058 C4050034 		cbz	w4, .L6
  36 005c 9F0C0071 		cmp	w4, 3
  37 0060 81FEFF54 		bne	.L71
  38 0064 40004039 		ldrb	w0, [x2]
  39 0068 1F800071 		cmp	w0, 32
  40 006c A0040054 		beq	.L72
  41 0070 09040054 		bls	.L80
  42 0074 1F8C0071 		cmp	w0, 35
  43 0078 C1FDFF54 		bne	.L71
  44 007c 41104039 		ldrb	w1, [x2, 4]
  45 0080 40144039 		ldrb	w0, [x2, 5]
  46 0084 2020002A 		orr	w0, w1, w0, lsl 8
  47 0088 1F040071 		cmp	w0, 1
  48 008c 21FDFF54 		bne	.L71
  49 0090 41084039 		ldrb	w1, [x2, 2]
  50 0094 400C4039 		ldrb	w0, [x2, 3]
  51 0098 2020002A 		orr	w0, w1, w0, lsl 8
  52 009c 1F100071 		cmp	w0, 4
  53 00a0 201D0054 		beq	.L30
  54 00a4 1F200071 		cmp	w0, 8
  55 00a8 C1020054 		bne	.L72
  56 00ac E31700F9 		str	x3, [sp, 40]
  57 00b0 00000090 		adrp	x0, .LC2
AARCH64 GAS  C:\Users\ldebo\AppData\Local\Temp\ccfW7LPV.s 			page 2


  58 00b4 00000091 		add	x0, x0, :lo12:.LC2
  59 00b8 00000094 		bl	printf
  60 00bc 00000090 		adrp	x0, RPi_IO_Base_Addr
  61 00c0 040040B9 		ldr	w4, [x0, #:lo12:RPi_IO_Base_Addr]
  62 00c4 C1058012 		mov	w1, -47
  63 00c8 00008052 		mov	w0, 0
  64 00cc 84006611 		add	w4, w4, 9961472
  65 00d0 E31740F9 		ldr	x3, [sp, 40]
  66 00d4 84001111 		add	w4, w4, 1088
  67 00d8 820040B9 		ldr	w2, [x4]
  68 00dc 4100010A 		and	w1, w2, w1
  69 00e0 21001432 		orr	w1, w1, 4096
  70 00e4 810000B9 		str	w1, [x4]
  71 00e8 01008052 		mov	w1, 0
  72 00ec D3FFFF17 		b	.L9
  73              		.p2align 3
  74              	.L80:
  75 00f0 00040051 		sub	w0, w0, #1
  76 00f4 1F040071 		cmp	w0, 1
  77 00f8 C8F9FF54 		bhi	.L71
  78 00fc 1F2003D5 		.p2align 3
  79              	.L72:
  80 0100 00008052 		mov	w0, 0
  81 0104 01008052 		mov	w1, 0
  82 0108 CCFFFF17 		b	.L9
  83 010c 1F2003D5 		.p2align 3
  84              	.L6:
  85 0110 44004039 		ldrb	w4, [x2]
  86 0114 9F080271 		cmp	w4, 130
  87 0118 080B0054 		bhi	.L11
  88 011c 9F040271 		cmp	w4, 129
  89 0120 22120054 		bcs	.L12
  90 0124 9F000271 		cmp	w4, 128
  91 0128 41F8FF54 		bne	.L71
  92 012c E6030191 		add	x6, sp, 64
  93 0130 3F080071 		cmp	w1, 2
  94 0134 44008052 		mov	w4, 2
  95 0138 2190841A 		csel	w1, w1, w4, ls
  96 013c 22008052 		mov	w2, 1
  97 0140 C28C1F78 		strh	w2, [x6, -8]!
  98 0144 1F2003D5 		.p2align 3
  99              	.L16:
 100 0148 21010034 		cbz	w1, .L58
 101 014c 25040051 		sub	w5, w1, #1
 102 0150 020080D2 		mov	x2, 0
 103 0154 A5040091 		add	x5, x5, 1
 104              		.p2align 3
 105              	.L41:
 106 0158 C4686238 		ldrb	w4, [x6, x2]
 107 015c 04682238 		strb	w4, [x0, x2]
 108 0160 42040091 		add	x2, x2, 1
 109 0164 BF0002EB 		cmp	x5, x2
 110 0168 81FFFF54 		bne	.L41
 111              	.L58:
 112 016c 00008052 		mov	w0, 0
 113 0170 B2FFFF17 		b	.L9
 114 0174 1F2003D5 		.p2align 3
AARCH64 GAS  C:\Users\ldebo\AppData\Local\Temp\ccfW7LPV.s 			page 3


 115              	.L83:
 116 0178 44004039 		ldrb	w4, [x2]
 117 017c 9F000271 		cmp	w4, 128
 118 0180 E00F0054 		beq	.L32
 119 0184 9F800271 		cmp	w4, 160
 120 0188 41F5FF54 		bne	.L71
 121 018c 02000090 		adrp	x2, .LANCHOR0
 122 0190 42000091 		add	x2, x2, :lo12:.LANCHOR0
 123 0194 46600291 		add	x6, x2, 152
 124 0198 E61F00F9 		str	x6, [sp, 56]
 125 019c 42604239 		ldrb	w2, [x2, 152]
 126 01a0 5F00016B 		cmp	w2, w1
 127 01a4 4190811A 		csel	w1, w2, w1, ls
 128 01a8 E8FFFF17 		b	.L16
 129 01ac 1F2003D5 		.p2align 3
 130              	.L8:
 131 01b0 E6030191 		add	x6, sp, 64
 132 01b4 3F000071 		cmp	w1, 0
 133 01b8 22008052 		mov	w2, 1
 134 01bc 21049F1A 		csinc	w1, w1, wzr, eq
 135 01c0 C28C1F38 		strb	w2, [x6, -8]!
 136 01c4 E1FFFF17 		b	.L16
 137              		.p2align 3
 138              	.L5:
 139 01c8 40004039 		ldrb	w0, [x2]
 140 01cc 1F800071 		cmp	w0, 32
 141 01d0 80F9FF54 		beq	.L72
 142 01d4 E9F8FF54 		bls	.L80
 143 01d8 1F8C0071 		cmp	w0, 35
 144 01dc A1F2FF54 		bne	.L71
 145 01e0 41104039 		ldrb	w1, [x2, 4]
 146 01e4 40144039 		ldrb	w0, [x2, 5]
 147 01e8 2020002A 		orr	w0, w1, w0, lsl 8
 148 01ec 1F040071 		cmp	w0, 1
 149 01f0 01F2FF54 		bne	.L71
 150 01f4 41084039 		ldrb	w1, [x2, 2]
 151 01f8 400C4039 		ldrb	w0, [x2, 3]
 152 01fc 2020002A 		orr	w0, w1, w0, lsl 8
 153 0200 1F200071 		cmp	w0, 8
 154 0204 E01A0054 		beq	.L21
 155 0208 E90D0054 		bls	.L84
 156 020c 1F440071 		cmp	w0, 17
 157 0210 E01E0054 		beq	.L25
 158 0214 1F4C0071 		cmp	w0, 19
 159 0218 601D0054 		beq	.L26
 160 021c 1F400071 		cmp	w0, 16
 161 0220 01F7FF54 		bne	.L72
 162 0224 00000090 		adrp	x0, RPi_IO_Base_Addr
 163 0228 010040B9 		ldr	w1, [x0, #:lo12:RPi_IO_Base_Addr]
 164 022c 00008052 		mov	w0, 0
 165 0230 21006611 		add	w1, w1, 9961472
 166 0234 21001111 		add	w1, w1, 1088
 167 0238 220040B9 		ldr	w2, [x1]
 168 023c 42001F32 		orr	w2, w2, 2
 169 0240 220000B9 		str	w2, [x1]
 170 0244 01008052 		mov	w1, 0
 171 0248 7CFFFF17 		b	.L9
AARCH64 GAS  C:\Users\ldebo\AppData\Local\Temp\ccfW7LPV.s 			page 4


 172 024c 1F2003D5 		.p2align 3
 173              	.L3:
 174 0250 01000090 		adrp	x1, .LANCHOR1
 175 0254 42084039 		ldrb	w2, [x2, 2]
 176 0258 00008052 		mov	w0, 0
 177 025c 22000039 		strb	w2, [x1, #:lo12:.LANCHOR1]
 178 0260 01008052 		mov	w1, 0
 179 0264 630000B4 		cbz	x3, .L76
 180 0268 610000B9 		str	w1, [x3]
 181 026c C0035FD6 		ret
 182              	.L76:
 183 0270 C0035FD6 		ret
 184 0274 1F2003D5 		.p2align 3
 185              	.L11:
 186 0278 9F800271 		cmp	w4, 160
 187 027c 60060054 		beq	.L14
 188 0280 9F8C0271 		cmp	w4, 163
 189 0284 61EDFF54 		bne	.L71
 190 0288 44104039 		ldrb	w4, [x2, 4]
 191 028c 42144039 		ldrb	w2, [x2, 5]
 192 0290 8220022A 		orr	w2, w4, w2, lsl 8
 193 0294 5F040071 		cmp	w2, 1
 194 0298 C1ECFF54 		bne	.L71
 195 029c 02000090 		adrp	x2, RPi_IO_Base_Addr
 196 02a0 420040B9 		ldr	w2, [x2, #:lo12:RPi_IO_Base_Addr]
 197 02a4 04008052 		mov	w4, 0
 198 02a8 FF3B00B9 		str	wzr, [sp, 56]
 199 02ac 42006611 		add	w2, w2, 9961472
 200 02b0 06008052 		mov	w6, 0
 201 02b4 42001111 		add	w2, w2, 1088
 202 02b8 420040B9 		ldr	w2, [x2]
 203 02bc 450842D3 		ubfx	x5, x2, 2, 1
 204 02c0 44000033 		bfi	w4, w2, 0, 1
 205 02c4 491C47D3 		ubfx	x9, x2, 7, 1
 206 02c8 481044D3 		ubfx	x8, x2, 4, 1
 207 02cc A4001F33 		bfi	w4, w5, 1, 1
 208 02d0 472048D3 		ubfx	x7, x2, 8, 1
 209 02d4 4A304CD3 		ubfx	x10, x2, 12, 1
 210 02d8 455C50D3 		ubfx	x5, x2, 16, 8
 211 02dc 24011E33 		bfi	w4, w9, 2, 1
 212 02e0 A5041F72 		ands	w5, w5, 6
 213 02e4 46010033 		bfi	w6, w10, 0, 1
 214 02e8 E6E70039 		strb	w6, [sp, 57]
 215 02ec 04011D33 		bfi	w4, w8, 3, 1
 216 02f0 E4001C33 		bfi	w4, w7, 4, 1
 217 02f4 E4E30039 		strb	w4, [sp, 56]
 218 02f8 C10F0054 		bne	.L17
 219 02fc C6001E32 		orr	w6, w6, 4
 220 0300 E6E70039 		strb	w6, [sp, 57]
 221              	.L18:
 222 0304 E4EB4039 		ldrb	w4, [sp, 58]
 223 0308 470441D3 		ubfx	x7, x2, 1, 1
 224 030c 461445D3 		ubfx	x6, x2, 5, 1
 225 0310 E5E74039 		ldrb	w5, [sp, 57]
 226 0314 42404DD3 		ubfx	x2, x2, 13, 4
 227 0318 3F100071 		cmp	w1, 4
 228 031c E4000033 		bfi	w4, w7, 0, 1
AARCH64 GAS  C:\Users\ldebo\AppData\Local\Temp\ccfW7LPV.s 			page 5


 229 0320 87008052 		mov	w7, 4
 230 0324 84781E12 		and	w4, w4, -3
 231 0328 45001D33 		bfi	w5, w2, 3, 1
 232 032c 2190871A 		csel	w1, w1, w7, ls
 233 0330 E5E70039 		strb	w5, [sp, 57]
 234 0334 C4001D33 		bfi	w4, w6, 3, 1
 235 0338 E6E30091 		add	x6, sp, 56
 236 033c 84781B12 		and	w4, w4, -17
 237 0340 E4EB0039 		strb	w4, [sp, 58]
 238 0344 81FFFF17 		b	.L16
 239              	.L14:
 240 0348 E6030191 		add	x6, sp, 64
 241 034c 3F100071 		cmp	w1, 4
 242 0350 22008052 		mov	w2, 1
 243 0354 84008052 		mov	w4, 4
 244 0358 2190841A 		csel	w1, w1, w4, ls
 245 035c C28C1FB8 		str	w2, [x6, -8]!
 246 0360 7AFFFF17 		b	.L16
 247              	.L12:
 248 0364 E6030191 		add	x6, sp, 64
 249 0368 3F080071 		cmp	w1, 2
 250 036c 42008052 		mov	w2, 2
 251 0370 2190821A 		csel	w1, w1, w2, ls
 252 0374 DF8C1F78 		strh	wzr, [x6, -8]!
 253 0378 74FFFF17 		b	.L16
 254              	.L32:
 255 037c 44084039 		ldrb	w4, [x2, 2]
 256 0380 420C4039 		ldrb	w2, [x2, 3]
 257 0384 8220022A 		orr	w2, w4, w2, lsl 8
 258 0388 447C0853 		lsr	w4, w2, 8
 259 038c 9F080071 		cmp	w4, 2
 260 0390 800D0054 		beq	.L34
 261 0394 9F0C0071 		cmp	w4, 3
 262 0398 800B0054 		beq	.L35
 263 039c 9F040071 		cmp	w4, 1
 264 03a0 81E4FF54 		bne	.L71
 265 03a4 06000090 		adrp	x6, .LANCHOR0
 266 03a8 C6000091 		add	x6, x6, :lo12:.LANCHOR0
 267 03ac 3F480071 		cmp	w1, 18
 268 03b0 C6600191 		add	x6, x6, 88
 269 03b4 42028052 		mov	w2, 18
 270 03b8 E61F00F9 		str	x6, [sp, 56]
 271 03bc 2190821A 		csel	w1, w1, w2, ls
 272 03c0 62FFFF17 		b	.L16
 273              	.L84:
 274 03c4 1F040071 		cmp	w0, 1
 275 03c8 A00E0054 		beq	.L23
 276 03cc 1F080071 		cmp	w0, 2
 277 03d0 81E9FF54 		bne	.L72
 278 03d4 13000090 		adrp	x19, RPi_IO_Base_Addr
 279 03d8 610240B9 		ldr	w1, [x19, #:lo12:RPi_IO_Base_Addr]
 280 03dc E31700F9 		str	x3, [sp, 40]
 281 03e0 007182D2 		mov	x0, 5000
 282 03e4 21006611 		add	w1, w1, 9961472
 283 03e8 14888052 		mov	w20, 1088
 284 03ec 1413A072 		movk	w20, 0x98, lsl 16
 285 03f0 21003811 		add	w1, w1, 3584
AARCH64 GAS  C:\Users\ldebo\AppData\Local\Temp\ccfW7LPV.s 			page 6


 286 03f4 3F0000B9 		str	wzr, [x1]
 287 03f8 00000094 		bl	timer_wait
 288 03fc 610240B9 		ldr	w1, [x19, #:lo12:RPi_IO_Base_Addr]
 289 0400 00D490D2 		mov	x0, 34464
 290 0404 2000A0F2 		movk	x0, 0x1, lsl 16
 291 0408 2100140B 		add	w1, w1, w20
 292 040c 220040B9 		ldr	w2, [x1]
 293 0410 42001A32 		orr	w2, w2, 64
 294 0414 220000B9 		str	w2, [x1]
 295 0418 00000094 		bl	timer_wait
 296 041c 610240B9 		ldr	w1, [x19, #:lo12:RPi_IO_Base_Addr]
 297 0420 C41D8012 		mov	w4, -239
 298 0424 00008052 		mov	w0, 0
 299 0428 2100140B 		add	w1, w1, w20
 300 042c 220040B9 		ldr	w2, [x1]
 301 0430 4200040A 		and	w2, w2, w4
 302 0434 220000B9 		str	w2, [x1]
 303 0438 01008052 		mov	w1, 0
 304 043c E31740F9 		ldr	x3, [sp, 40]
 305 0440 FEFEFF17 		b	.L9
 306              	.L30:
 307 0444 13000090 		adrp	x19, RPi_IO_Base_Addr
 308 0448 610240B9 		ldr	w1, [x19, #:lo12:RPi_IO_Base_Addr]
 309 044c F50B00F9 		str	x21, [sp, 16]
 310 0450 15C08152 		mov	w21, 3584
 311 0454 1513A072 		movk	w21, 0x98, lsl 16
 312 0458 2100150B 		add	w1, w1, w21
 313 045c E31700F9 		str	x3, [sp, 40]
 314 0460 00E284D2 		mov	x0, 10000
 315 0464 14888052 		mov	w20, 1088
 316 0468 1413A072 		movk	w20, 0x98, lsl 16
 317 046c 220040B9 		ldr	w2, [x1]
 318 0470 42781A12 		and	w2, w2, -33
 319 0474 220000B9 		str	w2, [x1]
 320 0478 220040B9 		ldr	w2, [x1]
 321 047c 42781F12 		and	w2, w2, -2
 322 0480 220000B9 		str	w2, [x1]
 323 0484 00000094 		bl	timer_wait
 324 0488 610240B9 		ldr	w1, [x19, #:lo12:RPi_IO_Base_Addr]
 325 048c 004C9DD2 		mov	x0, 60000
 326 0490 2100150B 		add	w1, w1, w21
 327 0494 3F0000B9 		str	wzr, [x1]
 328 0498 610240B9 		ldr	w1, [x19, #:lo12:RPi_IO_Base_Addr]
 329 049c 2100140B 		add	w1, w1, w20
 330 04a0 220040B9 		ldr	w2, [x1]
 331 04a4 42781812 		and	w2, w2, -129
 332 04a8 220000B9 		str	w2, [x1]
 333 04ac 220040B9 		ldr	w2, [x1]
 334 04b0 42001832 		orr	w2, w2, 256
 335 04b4 220000B9 		str	w2, [x1]
 336 04b8 220040B9 		ldr	w2, [x1]
 337 04bc 42001432 		orr	w2, w2, 4096
 338 04c0 220000B9 		str	w2, [x1]
 339 04c4 00000094 		bl	timer_wait
 340 04c8 610240B9 		ldr	w1, [x19, #:lo12:RPi_IO_Base_Addr]
 341 04cc 00008052 		mov	w0, 0
 342 04d0 2100140B 		add	w1, w1, w20
AARCH64 GAS  C:\Users\ldebo\AppData\Local\Temp\ccfW7LPV.s 			page 7


 343 04d4 220040B9 		ldr	w2, [x1]
 344 04d8 42781712 		and	w2, w2, -257
 345 04dc 220000B9 		str	w2, [x1]
 346 04e0 01008052 		mov	w1, 0
 347 04e4 F50B40F9 		ldr	x21, [sp, 16]
 348 04e8 E31740F9 		ldr	x3, [sp, 40]
 349 04ec D3FEFF17 		b	.L9
 350              	.L17:
 351 04f0 BF100071 		cmp	w5, 4
 352 04f4 81F0FF54 		bne	.L18
 353 04f8 E4E74039 		ldrb	w4, [sp, 57]
 354 04fc 84001F32 		orr	w4, w4, 2
 355 0500 E4E70039 		strb	w4, [sp, 57]
 356 0504 80FFFF17 		b	.L18
 357              	.L35:
 358 0508 421C0012 		and	w2, w2, 255
 359 050c 5F040071 		cmp	w2, 1
 360 0510 20090054 		beq	.L38
 361 0514 02080034 		cbz	w2, .L39
 362 0518 5F080071 		cmp	w2, 2
 363 051c 21DFFF54 		bne	.L72
 364 0520 02000090 		adrp	x2, .LANCHOR0
 365 0524 42000091 		add	x2, x2, :lo12:.LANCHOR0
 366 0528 46C00191 		add	x6, x2, 112
 367 052c E61F00F9 		str	x6, [sp, 56]
 368 0530 42C04139 		ldrb	w2, [x2, 112]
 369 0534 5F00016B 		cmp	w2, w1
 370 0538 4190811A 		csel	w1, w2, w1, ls
 371 053c 03FFFF17 		b	.L16
 372              	.L34:
 373 0540 06000090 		adrp	x6, .LANCHOR0
 374 0544 C6000091 		add	x6, x6, :lo12:.LANCHOR0
 375 0548 3F640071 		cmp	w1, 25
 376 054c C6E00091 		add	x6, x6, 56
 377 0550 22038052 		mov	w2, 25
 378 0554 E61F00F9 		str	x6, [sp, 56]
 379 0558 2190821A 		csel	w1, w1, w2, ls
 380 055c FBFEFF17 		b	.L16
 381              	.L21:
 382 0560 E31700F9 		str	x3, [sp, 40]
 383 0564 00000090 		adrp	x0, .LC1
 384 0568 00000091 		add	x0, x0, :lo12:.LC1
 385 056c 00000094 		bl	printf
 386 0570 00000090 		adrp	x0, RPi_IO_Base_Addr
 387 0574 010040B9 		ldr	w1, [x0, #:lo12:RPi_IO_Base_Addr]
 388 0578 00008052 		mov	w0, 0
 389 057c 21006611 		add	w1, w1, 9961472
 390 0580 21001111 		add	w1, w1, 1088
 391 0584 220040B9 		ldr	w2, [x1]
 392 0588 42781312 		and	w2, w2, -4097
 393 058c 220000B9 		str	w2, [x1]
 394 0590 01008052 		mov	w1, 0
 395 0594 E31740F9 		ldr	x3, [sp, 40]
 396 0598 A8FEFF17 		b	.L9
 397              	.L23:
 398 059c 00000090 		adrp	x0, RPi_IO_Base_Addr
 399 05a0 010040B9 		ldr	w1, [x0, #:lo12:RPi_IO_Base_Addr]
AARCH64 GAS  C:\Users\ldebo\AppData\Local\Temp\ccfW7LPV.s 			page 8


 400 05a4 00008052 		mov	w0, 0
 401 05a8 21006611 		add	w1, w1, 9961472
 402 05ac 21001111 		add	w1, w1, 1088
 403 05b0 220040B9 		ldr	w2, [x1]
 404 05b4 42001E32 		orr	w2, w2, 4
 405 05b8 220000B9 		str	w2, [x1]
 406 05bc 01008052 		mov	w1, 0
 407 05c0 9EFEFF17 		b	.L9
 408              	.L26:
 409 05c4 00000090 		adrp	x0, RPi_IO_Base_Addr
 410 05c8 010040B9 		ldr	w1, [x0, #:lo12:RPi_IO_Base_Addr]
 411 05cc 00008052 		mov	w0, 0
 412 05d0 21006611 		add	w1, w1, 9961472
 413 05d4 21001111 		add	w1, w1, 1088
 414 05d8 220040B9 		ldr	w2, [x1]
 415 05dc 42001B32 		orr	w2, w2, 32
 416 05e0 220000B9 		str	w2, [x1]
 417 05e4 01008052 		mov	w1, 0
 418 05e8 94FEFF17 		b	.L9
 419              	.L25:
 420 05ec 00000090 		adrp	x0, RPi_IO_Base_Addr
 421 05f0 010040B9 		ldr	w1, [x0, #:lo12:RPi_IO_Base_Addr]
 422 05f4 00008052 		mov	w0, 0
 423 05f8 21006611 		add	w1, w1, 9961472
 424 05fc 21001111 		add	w1, w1, 1088
 425 0600 220040B9 		ldr	w2, [x1]
 426 0604 42001D32 		orr	w2, w2, 8
 427 0608 220000B9 		str	w2, [x1]
 428 060c 01008052 		mov	w1, 0
 429 0610 8AFEFF17 		b	.L9
 430              	.L39:
 431 0614 02000090 		adrp	x2, .LANCHOR0
 432 0618 44000091 		add	x4, x2, :lo12:.LANCHOR0
 433 061c E60304AA 		mov	x6, x4
 434 0620 E41F00F9 		str	x4, [sp, 56]
 435 0624 42004039 		ldrb	w2, [x2, #:lo12:.LANCHOR0]
 436 0628 5F00016B 		cmp	w2, w1
 437 062c 4190811A 		csel	w1, w2, w1, ls
 438 0630 C6FEFF17 		b	.L16
 439              	.L38:
 440 0634 02000090 		adrp	x2, .LANCHOR0
 441 0638 42000091 		add	x2, x2, :lo12:.LANCHOR0
 442 063c 46200091 		add	x6, x2, 8
 443 0640 E61F00F9 		str	x6, [sp, 56]
 444 0644 42204039 		ldrb	w2, [x2, 8]
 445 0648 5F00016B 		cmp	w2, w1
 446 064c 4190811A 		csel	w1, w2, w1, ls
 447 0650 BEFEFF17 		b	.L16
 448              		.size	HcdProcessRootHubMessage, .-HcdProcessRootHubMessage
 449              		.align	2
 450 0654 1F2003D5 		.p2align 4,,15
 450      1F2003D5 
 450      1F2003D5 
 451              		.global	PowerOnUsb
 452              		.type	PowerOnUsb, %function
 453              	PowerOnUsb:
 454 0660 FE0F1FF8 		str	x30, [sp, -16]!
AARCH64 GAS  C:\Users\ldebo\AppData\Local\Temp\ccfW7LPV.s 			page 9


 455 0664 04018052 		mov	w4, 8
 456 0668 26008052 		mov	w6, 1
 457 066c 65008052 		mov	w5, 3
 458 0670 E303042A 		mov	w3, w4
 459 0674 A1008052 		mov	w1, 5
 460 0678 22009052 		mov	w2, 32769
 461 067c 4200A072 		movk	w2, 0x2, lsl 16
 462 0680 000080D2 		mov	x0, 0
 463 0684 00000094 		bl	mailbox_tag_message
 464 0688 1F1C0072 		tst	w0, 255
 465 068c FE0741F8 		ldr	x30, [sp], 16
 466 0690 60008012 		mov	w0, -4
 467 0694 00009F1A 		csel	w0, w0, wzr, eq
 468 0698 C0035FD6 		ret
 469              		.size	PowerOnUsb, .-PowerOnUsb
 470              		.align	2
 471 069c 1F2003D5 		.p2align 4,,15
 472              		.global	PowerOffUsb
 473              		.type	PowerOffUsb, %function
 474              	PowerOffUsb:
 475 06a0 FE0F1FF8 		str	x30, [sp, -16]!
 476 06a4 04018052 		mov	w4, 8
 477 06a8 06008052 		mov	w6, 0
 478 06ac 65008052 		mov	w5, 3
 479 06b0 E303042A 		mov	w3, w4
 480 06b4 A1008052 		mov	w1, 5
 481 06b8 22009052 		mov	w2, 32769
 482 06bc 4200A072 		movk	w2, 0x2, lsl 16
 483 06c0 000080D2 		mov	x0, 0
 484 06c4 00000094 		bl	mailbox_tag_message
 485 06c8 1F1C0072 		tst	w0, 255
 486 06cc FE0741F8 		ldr	x30, [sp], 16
 487 06d0 60008012 		mov	w0, -4
 488 06d4 00009F1A 		csel	w0, w0, wzr, eq
 489 06d8 C0035FD6 		ret
 490              		.size	PowerOffUsb, .-PowerOffUsb
 491              		.align	2
 492 06dc 1F2003D5 		.p2align 4,,15
 493              		.global	HCDReset
 494              		.type	HCDReset, %function
 495              	HCDReset:
 496 06e0 F353BDA9 		stp	x19, x20, [sp, -48]!
 497 06e4 13D490D2 		mov	x19, 34464
 498 06e8 3300A0F2 		movk	x19, 0x1, lsl 16
 499 06ec F55B01A9 		stp	x21, x22, [sp, 16]
 500 06f0 15028052 		mov	w21, 16
 501 06f4 1513A072 		movk	w21, 0x98, lsl 16
 502 06f8 F77B02A9 		stp	x23, x30, [sp, 32]
 503 06fc 00000094 		bl	timer_getTickCount
 504 0700 17000090 		adrp	x23, RPi_IO_Base_Addr
 505 0704 F6020091 		add	x22, x23, :lo12:RPi_IO_Base_Addr
 506 0708 F40300AA 		mov	x20, x0
 507 070c 05000014 		b	.L96
 508              		.p2align 3
 509              	.L94:
 510 0710 C00240B9 		ldr	w0, [x22]
 511 0714 0000150B 		add	w0, w0, w21
AARCH64 GAS  C:\Users\ldebo\AppData\Local\Temp\ccfW7LPV.s 			page 10


 512 0718 010040B9 		ldr	w1, [x0]
 513 071c A101F837 		tbnz	w1, #31, .L107
 514              	.L96:
 515 0720 00000094 		bl	timer_getTickCount
 516 0724 E10300AA 		mov	x1, x0
 517 0728 E00314AA 		mov	x0, x20
 518 072c 00000094 		bl	tick_difference
 519 0730 1F0013EB 		cmp	x0, x19
 520 0734 E9FEFF54 		bls	.L94
 521              	.L97:
 522 0738 E0008012 		mov	w0, -8
 523 073c F55B41A9 		ldp	x21, x22, [sp, 16]
 524 0740 F77B42A9 		ldp	x23, x30, [sp, 32]
 525 0744 F353C3A8 		ldp	x19, x20, [sp], 48
 526 0748 C0035FD6 		ret
 527 074c 1F2003D5 		.p2align 3
 528              	.L107:
 529 0750 010040B9 		ldr	w1, [x0]
 530 0754 F7020091 		add	x23, x23, :lo12:RPi_IO_Base_Addr
 531 0758 15D490D2 		mov	x21, 34464
 532 075c 3500A0F2 		movk	x21, 0x1, lsl 16
 533 0760 21000032 		orr	w1, w1, 1
 534 0764 010000B9 		str	w1, [x0]
 535 0768 16028052 		mov	w22, 16
 536 076c 1613A072 		movk	w22, 0x98, lsl 16
 537 0770 00000094 		bl	timer_getTickCount
 538 0774 F40300AA 		mov	x20, x0
 539              		.p2align 3
 540              	.L102:
 541 0778 00000094 		bl	timer_getTickCount
 542 077c E10300AA 		mov	x1, x0
 543 0780 E00314AA 		mov	x0, x20
 544 0784 00000094 		bl	tick_difference
 545 0788 1F0015EB 		cmp	x0, x21
 546 078c 68FDFF54 		bhi	.L97
 547 0790 E00240B9 		ldr	w0, [x23]
 548 0794 0000160B 		add	w0, w0, w22
 549 0798 010040B9 		ldr	w1, [x0]
 550 079c E1FE0737 		tbnz	x1, 0, .L102
 551 07a0 000040B9 		ldr	w0, [x0]
 552 07a4 A0FEFF36 		tbz	w0, #31, .L102
 553 07a8 00008052 		mov	w0, 0
 554 07ac F55B41A9 		ldp	x21, x22, [sp, 16]
 555 07b0 F77B42A9 		ldp	x23, x30, [sp, 32]
 556 07b4 F353C3A8 		ldp	x19, x20, [sp], 48
 557 07b8 C0035FD6 		ret
 558              		.size	HCDReset, .-HCDReset
 559              		.align	2
 560 07bc 1F2003D5 		.p2align 4,,15
 561              		.global	HCDTransmitFifoFlush
 562              		.type	HCDTransmitFifoFlush, %function
 563              	HCDTransmitFifoFlush:
 564 07c0 F353BDA9 		stp	x19, x20, [sp, -48]!
 565 07c4 14000090 		adrp	x20, RPi_IO_Base_Addr
 566 07c8 810240B9 		ldr	w1, [x20, #:lo12:RPi_IO_Base_Addr]
 567 07cc 94020091 		add	x20, x20, :lo12:RPi_IO_Base_Addr
 568 07d0 13028052 		mov	w19, 16
AARCH64 GAS  C:\Users\ldebo\AppData\Local\Temp\ccfW7LPV.s 			page 11


 569 07d4 1313A072 		movk	w19, 0x98, lsl 16
 570 07d8 2100130B 		add	w1, w1, w19
 571 07dc F55B01A9 		stp	x21, x22, [sp, 16]
 572 07e0 FE1300F9 		str	x30, [sp, 32]
 573 07e4 16D490D2 		mov	x22, 34464
 574 07e8 3600A0F2 		movk	x22, 0x1, lsl 16
 575 07ec 220040B9 		ldr	w2, [x1]
 576 07f0 02101A33 		bfi	w2, w0, 6, 5
 577 07f4 220000B9 		str	w2, [x1]
 578 07f8 200040B9 		ldr	w0, [x1]
 579 07fc 00001B32 		orr	w0, w0, 32
 580 0800 200000B9 		str	w0, [x1]
 581 0804 00000094 		bl	timer_getTickCount
 582 0808 F50300AA 		mov	x21, x0
 583 080c 05000014 		b	.L110
 584              		.p2align 3
 585              	.L116:
 586 0810 800240B9 		ldr	w0, [x20]
 587 0814 0000130B 		add	w0, w0, w19
 588 0818 000040B9 		ldr	w0, [x0]
 589 081c A0012836 		tbz	x0, 5, .L115
 590              	.L110:
 591 0820 00000094 		bl	timer_getTickCount
 592 0824 E10300AA 		mov	x1, x0
 593 0828 E00315AA 		mov	x0, x21
 594 082c 00000094 		bl	tick_difference
 595 0830 1F0016EB 		cmp	x0, x22
 596 0834 E9FEFF54 		bls	.L116
 597 0838 E0008012 		mov	w0, -8
 598 083c FE1340F9 		ldr	x30, [sp, 32]
 599 0840 F55B41A9 		ldp	x21, x22, [sp, 16]
 600 0844 F353C3A8 		ldp	x19, x20, [sp], 48
 601 0848 C0035FD6 		ret
 602 084c 1F2003D5 		.p2align 3
 603              	.L115:
 604 0850 00008052 		mov	w0, 0
 605 0854 FE1340F9 		ldr	x30, [sp, 32]
 606 0858 F55B41A9 		ldp	x21, x22, [sp, 16]
 607 085c F353C3A8 		ldp	x19, x20, [sp], 48
 608 0860 C0035FD6 		ret
 609              		.size	HCDTransmitFifoFlush, .-HCDTransmitFifoFlush
 610              		.align	2
 611 0864 1F2003D5 		.p2align 4,,15
 611      1F2003D5 
 611      1F2003D5 
 612              		.global	HCDReceiveFifoFlush
 613              		.type	HCDReceiveFifoFlush, %function
 614              	HCDReceiveFifoFlush:
 615 0870 F353BDA9 		stp	x19, x20, [sp, -48]!
 616 0874 14000090 		adrp	x20, RPi_IO_Base_Addr
 617 0878 800240B9 		ldr	w0, [x20, #:lo12:RPi_IO_Base_Addr]
 618 087c 94020091 		add	x20, x20, :lo12:RPi_IO_Base_Addr
 619 0880 13028052 		mov	w19, 16
 620 0884 1313A072 		movk	w19, 0x98, lsl 16
 621 0888 0000130B 		add	w0, w0, w19
 622 088c F55B01A9 		stp	x21, x22, [sp, 16]
 623 0890 FE1300F9 		str	x30, [sp, 32]
AARCH64 GAS  C:\Users\ldebo\AppData\Local\Temp\ccfW7LPV.s 			page 12


 624 0894 16D490D2 		mov	x22, 34464
 625 0898 3600A0F2 		movk	x22, 0x1, lsl 16
 626 089c 010040B9 		ldr	w1, [x0]
 627 08a0 21001C32 		orr	w1, w1, 16
 628 08a4 010000B9 		str	w1, [x0]
 629 08a8 00000094 		bl	timer_getTickCount
 630 08ac F50300AA 		mov	x21, x0
 631 08b0 06000014 		b	.L119
 632 08b4 1F2003D5 		.p2align 3
 633              	.L125:
 634 08b8 800240B9 		ldr	w0, [x20]
 635 08bc 0000130B 		add	w0, w0, w19
 636 08c0 000040B9 		ldr	w0, [x0]
 637 08c4 A0012036 		tbz	x0, 4, .L124
 638              	.L119:
 639 08c8 00000094 		bl	timer_getTickCount
 640 08cc E10300AA 		mov	x1, x0
 641 08d0 E00315AA 		mov	x0, x21
 642 08d4 00000094 		bl	tick_difference
 643 08d8 1F0016EB 		cmp	x0, x22
 644 08dc E9FEFF54 		bls	.L125
 645 08e0 E0008012 		mov	w0, -8
 646 08e4 FE1340F9 		ldr	x30, [sp, 32]
 647 08e8 F55B41A9 		ldp	x21, x22, [sp, 16]
 648 08ec F353C3A8 		ldp	x19, x20, [sp], 48
 649 08f0 C0035FD6 		ret
 650 08f4 1F2003D5 		.p2align 3
 651              	.L124:
 652 08f8 00008052 		mov	w0, 0
 653 08fc FE1340F9 		ldr	x30, [sp, 32]
 654 0900 F55B41A9 		ldp	x21, x22, [sp, 16]
 655 0904 F353C3A8 		ldp	x19, x20, [sp], 48
 656 0908 C0035FD6 		ret
 657              		.size	HCDReceiveFifoFlush, .-HCDReceiveFifoFlush
 658              		.align	2
 659 090c 1F2003D5 		.p2align 4,,15
 660              		.global	HCDStart
 661              		.type	HCDStart, %function
 662              	HCDStart:
 663 0910 F353BCA9 		stp	x19, x20, [sp, -64]!
 664 0914 13000090 		adrp	x19, RPi_IO_Base_Addr
 665 0918 600240B9 		ldr	w0, [x19, #:lo12:RPi_IO_Base_Addr]
 666 091c F55B01A9 		stp	x21, x22, [sp, 16]
 667 0920 15D490D2 		mov	x21, 34464
 668 0924 3500A0F2 		movk	x21, 0x1, lsl 16
 669 0928 00006611 		add	w0, w0, 9961472
 670 092c F71300F9 		str	x23, [sp, 32]
 671 0930 00300011 		add	w0, w0, 12
 672 0934 FE1F00F9 		str	x30, [sp, 56]
 673 0938 16028052 		mov	w22, 16
 674 093c 1613A072 		movk	w22, 0x98, lsl 16
 675 0940 77020091 		add	x23, x19, :lo12:RPi_IO_Base_Addr
 676 0944 010040B9 		ldr	w1, [x0]
 677 0948 21780B12 		and	w1, w1, -1048577
 678 094c 010000B9 		str	w1, [x0]
 679 0950 010040B9 		ldr	w1, [x0]
 680 0954 21780912 		and	w1, w1, -4194305
AARCH64 GAS  C:\Users\ldebo\AppData\Local\Temp\ccfW7LPV.s 			page 13


 681 0958 010000B9 		str	w1, [x0]
 682 095c 00000094 		bl	timer_getTickCount
 683 0960 F40300AA 		mov	x20, x0
 684 0964 05000014 		b	.L128
 685              		.p2align 3
 686              	.L193:
 687 0968 E00240B9 		ldr	w0, [x23]
 688 096c 0000160B 		add	w0, w0, w22
 689 0970 010040B9 		ldr	w1, [x0]
 690 0974 2102F837 		tbnz	w1, #31, .L192
 691              	.L128:
 692 0978 00000094 		bl	timer_getTickCount
 693 097c E10300AA 		mov	x1, x0
 694 0980 E00314AA 		mov	x0, x20
 695 0984 00000094 		bl	tick_difference
 696 0988 1F0015EB 		cmp	x0, x21
 697 098c E9FEFF54 		bls	.L193
 698              	.L127:
 699 0990 00000090 		adrp	x0, .LC4
 700 0994 00000091 		add	x0, x0, :lo12:.LC4
 701 0998 00000094 		bl	printf
 702              	.L191:
 703 099c E0008012 		mov	w0, -8
 704 09a0 F71340F9 		ldr	x23, [sp, 32]
 705 09a4 F55B41A9 		ldp	x21, x22, [sp, 16]
 706 09a8 FE1F40F9 		ldr	x30, [sp, 56]
 707 09ac F353C4A8 		ldp	x19, x20, [sp], 64
 708 09b0 C0035FD6 		ret
 709 09b4 1F2003D5 		.p2align 3
 710              	.L192:
 711 09b8 010040B9 		ldr	w1, [x0]
 712 09bc 77020091 		add	x23, x19, :lo12:RPi_IO_Base_Addr
 713 09c0 15D490D2 		mov	x21, 34464
 714 09c4 3500A0F2 		movk	x21, 0x1, lsl 16
 715 09c8 21000032 		orr	w1, w1, 1
 716 09cc 010000B9 		str	w1, [x0]
 717 09d0 16028052 		mov	w22, 16
 718 09d4 1613A072 		movk	w22, 0x98, lsl 16
 719 09d8 00000094 		bl	timer_getTickCount
 720 09dc F40300AA 		mov	x20, x0
 721              		.p2align 3
 722              	.L175:
 723 09e0 00000094 		bl	timer_getTickCount
 724 09e4 E10300AA 		mov	x1, x0
 725 09e8 E00314AA 		mov	x0, x20
 726 09ec 00000094 		bl	tick_difference
 727 09f0 1F0015EB 		cmp	x0, x21
 728 09f4 E8FCFF54 		bhi	.L127
 729 09f8 E00240B9 		ldr	w0, [x23]
 730 09fc 0100160B 		add	w1, w0, w22
 731 0a00 220040B9 		ldr	w2, [x1]
 732 0a04 E2FE0737 		tbnz	x2, 0, .L175
 733 0a08 210040B9 		ldr	w1, [x1]
 734 0a0c A1FEFF36 		tbz	w1, #31, .L175
 735 0a10 02000090 		adrp	x2, .LANCHOR1
 736 0a14 42000091 		add	x2, x2, :lo12:.LANCHOR1
 737 0a18 01006611 		add	w1, w0, 9961472
AARCH64 GAS  C:\Users\ldebo\AppData\Local\Temp\ccfW7LPV.s 			page 14


 738 0a1c 21300011 		add	w1, w1, 12
 739 0a20 43044039 		ldrb	w3, [x2, 1]
 740 0a24 A3110034 		cbz	w3, .L194
 741              	.L156:
 742 0a28 00006611 		add	w0, w0, 9961472
 743 0a2c 00100111 		add	w0, w0, 68
 744 0a30 020440B9 		ldr	w2, [x0, 4]
 745 0a34 421C46D3 		ubfx	x2, x2, 6, 2
 746 0a38 5F080071 		cmp	w2, 2
 747 0a3c 20160054 		beq	.L195
 748              	.L133:
 749 0a40 200040B9 		ldr	w0, [x1]
 750 0a44 00780E12 		and	w0, w0, -131073
 751 0a48 200000B9 		str	w0, [x1]
 752 0a4c 200040B9 		ldr	w0, [x1]
 753 0a50 00780C12 		and	w0, w0, -524289
 754 0a54 200000B9 		str	w0, [x1]
 755              	.L134:
 756 0a58 600240B9 		ldr	w0, [x19, #:lo12:RPi_IO_Base_Addr]
 757 0a5c 01006611 		add	w1, w0, 9961472
 758 0a60 03006611 		add	w3, w0, 9961472
 759 0a64 21200011 		add	w1, w1, 8
 760 0a68 63100111 		add	w3, w3, 68
 761 0a6c 220040B9 		ldr	w2, [x1]
 762 0a70 42001B32 		orr	w2, w2, 32
 763 0a74 220000B9 		str	w2, [x1]
 764 0a78 220040B9 		ldr	w2, [x1]
 765 0a7c 42780812 		and	w2, w2, -8388609
 766 0a80 220000B9 		str	w2, [x1]
 767 0a84 610440B9 		ldr	w1, [x3, 4]
 768 0a88 210840D3 		ubfx	x1, x1, 0, 3
 769 0a8c 231C0012 		and	w3, w1, 255
 770 0a90 7F1C0071 		cmp	w3, 7
 771 0a94 60010054 		beq	.L135
 772 0a98 220080D2 		mov	x2, 1
 773 0a9c 840A80D2 		mov	x4, 84
 774 0aa0 4120C19A 		lsl	x1, x2, x1
 775 0aa4 3F0004EA 		tst	x1, x4
 776 0aa8 41140054 		bne	.L136
 777 0aac 420580D2 		mov	x2, 42
 778 0ab0 3F0002EA 		tst	x1, x2
 779 0ab4 61230054 		bne	.L137
 780 0ab8 63240034 		cbz	w3, .L196
 781 0abc 1F2003D5 		.p2align 3
 782              	.L135:
 783 0ac0 00006611 		add	w0, w0, 9961472
 784 0ac4 00003811 		add	w0, w0, 3584
 785 0ac8 1F0000B9 		str	wzr, [x0]
 786 0acc 600240B9 		ldr	w0, [x19, #:lo12:RPi_IO_Base_Addr]
 787 0ad0 02006611 		add	w2, w0, 9961472
 788 0ad4 42100111 		add	w2, w2, 68
 789 0ad8 410440B9 		ldr	w1, [x2, 4]
 790 0adc 211C46D3 		ubfx	x1, x1, 6, 2
 791 0ae0 3F080071 		cmp	w1, 2
 792 0ae4 200F0054 		beq	.L197
 793 0ae8 01006611 		add	w1, w0, 9961472
 794 0aec 21001011 		add	w1, w1, 1024
AARCH64 GAS  C:\Users\ldebo\AppData\Local\Temp\ccfW7LPV.s 			page 15


 795              	.L139:
 796 0af0 220040B9 		ldr	w2, [x1]
 797 0af4 42741E12 		and	w2, w2, -4
 798 0af8 220000B9 		str	w2, [x1]
 799              	.L140:
 800 0afc 00006611 		add	w0, w0, 9961472
 801 0b00 240040B9 		ldr	w4, [x1]
 802 0b04 00900011 		add	w0, w0, 36
 803 0b08 02008A52 		mov	w2, 20480
 804 0b0c 84001E32 		orr	w4, w4, 4
 805 0b10 240000B9 		str	w4, [x1]
 806 0b14 0800AA52 		mov	w8, 1342177280
 807 0b18 03028052 		mov	w3, 16
 808 0b1c 0313A072 		movk	w3, 0x98, lsl 16
 809 0b20 F603032A 		mov	w22, w3
 810 0b24 020000B9 		str	w2, [x0]
 811 0b28 0A009452 		mov	w10, 40960
 812 0b2c 09028052 		mov	w9, 16
 813 0b30 15D490D2 		mov	x21, 34464
 814 0b34 3500A0F2 		movk	x21, 0x1, lsl 16
 815 0b38 600240B9 		ldr	w0, [x19, #:lo12:RPi_IO_Base_Addr]
 816 0b3c 77020091 		add	x23, x19, :lo12:RPi_IO_Base_Addr
 817 0b40 06006611 		add	w6, w0, 9961472
 818 0b44 07006611 		add	w7, w0, 9961472
 819 0b48 C6A00011 		add	w6, w6, 40
 820 0b4c 05006611 		add	w5, w0, 9961472
 821 0b50 0000030B 		add	w0, w0, w3
 822 0b54 A5000411 		add	w5, w5, 256
 823 0b58 C40040B9 		ldr	w4, [x6]
 824 0b5c 843C0012 		and	w4, w4, 65535
 825 0b60 8400082A 		orr	w4, w4, w8
 826 0b64 C40000B9 		str	w4, [x6]
 827 0b68 C30040B9 		ldr	w3, [x6]
 828 0b6c 633C1012 		and	w3, w3, -65536
 829 0b70 6300022A 		orr	w3, w3, w2
 830 0b74 C30000B9 		str	w3, [x6]
 831 0b78 A20040B9 		ldr	w2, [x5]
 832 0b7c 423C0012 		and	w2, w2, 65535
 833 0b80 4200082A 		orr	w2, w2, w8
 834 0b84 A20000B9 		str	w2, [x5]
 835 0b88 A10040B9 		ldr	w1, [x5]
 836 0b8c 213C1012 		and	w1, w1, -65536
 837 0b90 21000A2A 		orr	w1, w1, w10
 838 0b94 A10000B9 		str	w1, [x5]
 839 0b98 E10040B9 		ldr	w1, [x7]
 840 0b9c 21001632 		orr	w1, w1, 1024
 841 0ba0 E10000B9 		str	w1, [x7]
 842 0ba4 010040B9 		ldr	w1, [x0]
 843 0ba8 21111A33 		bfi	w1, w9, 6, 5
 844 0bac 010000B9 		str	w1, [x0]
 845 0bb0 010040B9 		ldr	w1, [x0]
 846 0bb4 21001B32 		orr	w1, w1, 32
 847 0bb8 010000B9 		str	w1, [x0]
 848 0bbc 00000094 		bl	timer_getTickCount
 849 0bc0 F40300AA 		mov	x20, x0
 850 0bc4 05000014 		b	.L143
 851              		.p2align 3
AARCH64 GAS  C:\Users\ldebo\AppData\Local\Temp\ccfW7LPV.s 			page 16


 852              	.L141:
 853 0bc8 E00240B9 		ldr	w0, [x23]
 854 0bcc 0000160B 		add	w0, w0, w22
 855 0bd0 010040B9 		ldr	w1, [x0]
 856 0bd4 21012836 		tbz	x1, 5, .L198
 857              	.L143:
 858 0bd8 00000094 		bl	timer_getTickCount
 859 0bdc E10300AA 		mov	x1, x0
 860 0be0 E00314AA 		mov	x0, x20
 861 0be4 00000094 		bl	tick_difference
 862 0be8 1F0015EB 		cmp	x0, x21
 863 0bec E9FEFF54 		bls	.L141
 864 0bf0 6BFFFF17 		b	.L191
 865 0bf4 1F2003D5 		.p2align 3
 866              	.L198:
 867 0bf8 010040B9 		ldr	w1, [x0]
 868 0bfc 15D490D2 		mov	x21, 34464
 869 0c00 3500A0F2 		movk	x21, 0x1, lsl 16
 870 0c04 21001C32 		orr	w1, w1, 16
 871 0c08 010000B9 		str	w1, [x0]
 872 0c0c 16028052 		mov	w22, 16
 873 0c10 1613A072 		movk	w22, 0x98, lsl 16
 874 0c14 77020091 		add	x23, x19, :lo12:RPi_IO_Base_Addr
 875 0c18 00000094 		bl	timer_getTickCount
 876 0c1c F40300AA 		mov	x20, x0
 877 0c20 06000014 		b	.L146
 878 0c24 1F2003D5 		.p2align 3
 879              	.L200:
 880 0c28 E00240B9 		ldr	w0, [x23]
 881 0c2c 0100160B 		add	w1, w0, w22
 882 0c30 210040B9 		ldr	w1, [x1]
 883 0c34 21092036 		tbz	x1, 4, .L199
 884              	.L146:
 885 0c38 00000094 		bl	timer_getTickCount
 886 0c3c E10300AA 		mov	x1, x0
 887 0c40 E00314AA 		mov	x0, x20
 888 0c44 00000094 		bl	tick_difference
 889 0c48 1F0015EB 		cmp	x0, x21
 890 0c4c E9FEFF54 		bls	.L200
 891 0c50 53FFFF17 		b	.L191
 892 0c54 1F2003D5 		.p2align 3
 893              	.L194:
 894 0c58 20008052 		mov	w0, 1
 895 0c5c 40040039 		strb	w0, [x2, 1]
 896 0c60 15D490D2 		mov	x21, 34464
 897 0c64 3500A0F2 		movk	x21, 0x1, lsl 16
 898 0c68 200040B9 		ldr	w0, [x1]
 899 0c6c 16028052 		mov	w22, 16
 900 0c70 1613A072 		movk	w22, 0x98, lsl 16
 901 0c74 00001C32 		orr	w0, w0, 16
 902 0c78 200000B9 		str	w0, [x1]
 903 0c7c 77020091 		add	x23, x19, :lo12:RPi_IO_Base_Addr
 904 0c80 200040B9 		ldr	w0, [x1]
 905 0c84 00781C12 		and	w0, w0, -9
 906 0c88 200000B9 		str	w0, [x1]
 907 0c8c 00000094 		bl	timer_getTickCount
 908 0c90 F40300AA 		mov	x20, x0
AARCH64 GAS  C:\Users\ldebo\AppData\Local\Temp\ccfW7LPV.s 			page 17


 909 0c94 05000014 		b	.L131
 910              		.p2align 3
 911              	.L202:
 912 0c98 E00240B9 		ldr	w0, [x23]
 913 0c9c 0000160B 		add	w0, w0, w22
 914 0ca0 010040B9 		ldr	w1, [x0]
 915 0ca4 A110F837 		tbnz	w1, #31, .L201
 916              	.L131:
 917 0ca8 00000094 		bl	timer_getTickCount
 918 0cac E10300AA 		mov	x1, x0
 919 0cb0 E00314AA 		mov	x0, x20
 920 0cb4 00000094 		bl	tick_difference
 921 0cb8 1F0015EB 		cmp	x0, x21
 922 0cbc E9FEFF54 		bls	.L202
 923 0cc0 34FFFF17 		b	.L127
 924 0cc4 1F2003D5 		.p2align 3
 925              	.L197:
 926 0cc8 420440B9 		ldr	w2, [x2, 4]
 927 0ccc 01006611 		add	w1, w0, 9961472
 928 0cd0 21001011 		add	w1, w1, 1024
 929 0cd4 422448D3 		ubfx	x2, x2, 8, 2
 930 0cd8 5F040071 		cmp	w2, 1
 931 0cdc A1F0FF54 		bne	.L139
 932 0ce0 03006611 		add	w3, w0, 9961472
 933 0ce4 63300011 		add	w3, w3, 12
 934 0ce8 630040B9 		ldr	w3, [x3]
 935 0cec 23F08F36 		tbz	x3, 17, .L139
 936 0cf0 230040B9 		ldr	w3, [x1]
 937 0cf4 43040033 		bfi	w3, w2, 0, 2
 938 0cf8 230000B9 		str	w3, [x1]
 939 0cfc 80FFFF17 		b	.L140
 940              		.p2align 3
 941              	.L195:
 942 0d00 000440B9 		ldr	w0, [x0, 4]
 943 0d04 002448D3 		ubfx	x0, x0, 8, 2
 944 0d08 1F040071 		cmp	w0, 1
 945 0d0c A1E9FF54 		bne	.L133
 946 0d10 200040B9 		ldr	w0, [x1]
 947 0d14 00000F32 		orr	w0, w0, 131072
 948 0d18 200000B9 		str	w0, [x1]
 949 0d1c 200040B9 		ldr	w0, [x1]
 950 0d20 00000D32 		orr	w0, w0, 524288
 951 0d24 200000B9 		str	w0, [x1]
 952 0d28 4CFFFF17 		b	.L134
 953 0d2c 1F2003D5 		.p2align 3
 954              	.L136:
 955 0d30 01006611 		add	w1, w0, 9961472
 956 0d34 21300011 		add	w1, w1, 12
 957 0d38 220040B9 		ldr	w2, [x1]
 958 0d3c 42781612 		and	w2, w2, -513
 959 0d40 220000B9 		str	w2, [x1]
 960 0d44 220040B9 		ldr	w2, [x1]
 961 0d48 42781712 		and	w2, w2, -257
 962 0d4c 220000B9 		str	w2, [x1]
 963 0d50 5CFFFF17 		b	.L135
 964 0d54 1F2003D5 		.p2align 3
 965              	.L199:
AARCH64 GAS  C:\Users\ldebo\AppData\Local\Temp\ccfW7LPV.s 			page 18


 966 0d58 01006611 		add	w1, w0, 9961472
 967 0d5c 21001011 		add	w1, w1, 1024
 968 0d60 210040B9 		ldr	w1, [x1]
 969 0d64 4107B837 		tbnz	x1, 23, .L149
 970 0d68 04006611 		add	w4, w0, 9961472
 971 0d6c 84100111 		add	w4, w4, 68
 972 0d70 810440B9 		ldr	w1, [x4, 4]
 973 0d74 3F0C72F2 		tst	x1, 245760
 974 0d78 C0010054 		beq	.L159
 975 0d7c 03006611 		add	w3, w0, 9961472
 976 0d80 02008052 		mov	w2, 0
 977 0d84 63001411 		add	w3, w3, 1280
 978              		.p2align 3
 979              	.L148:
 980 0d88 610040B9 		ldr	w1, [x3]
 981 0d8c 42040011 		add	w2, w2, 1
 982 0d90 21001132 		orr	w1, w1, 32768
 983 0d94 21000232 		orr	w1, w1, 1073741824
 984 0d98 21780012 		and	w1, w1, 2147483647
 985 0d9c 610402B8 		str	w1, [x3], 32
 986 0da0 810440B9 		ldr	w1, [x4, 4]
 987 0da4 21444ED3 		ubfx	x1, x1, 14, 4
 988 0da8 5F00016B 		cmp	w2, w1
 989 0dac EBFEFF54 		blt	.L148
 990              	.L159:
 991 0db0 810440B9 		ldr	w1, [x4, 4]
 992 0db4 3F0C72F2 		tst	x1, 245760
 993 0db8 A0040054 		beq	.L149
 994 0dbc 01006611 		add	w1, w0, 9961472
 995 0dc0 F8E702A9 		stp	x24, x25, [sp, 40]
 996 0dc4 21001411 		add	w1, w1, 1280
 997 0dc8 19000090 		adrp	x25, .LC3
 998 0dcc 39030091 		add	x25, x25, :lo12:.LC3
 999 0dd0 17A08052 		mov	w23, 1280
 1000 0dd4 1713A072 		movk	w23, 0x98, lsl 16
 1001 0dd8 140080D2 		mov	x20, 0
 1002 0ddc 18008052 		mov	w24, 0
 1003              		.p2align 3
 1004              	.L154:
 1005 0de0 804A61B8 		ldr	w0, [x20, w1, uxtw]
 1006 0de4 76020091 		add	x22, x19, :lo12:RPi_IO_Base_Addr
 1007 0de8 00001132 		orr	w0, w0, 32768
 1008 0dec 00040232 		orr	w0, w0, -1073741824
 1009 0df0 804A21B8 		str	w0, [x20, w1, uxtw]
 1010 0df4 00000094 		bl	timer_getTickCount
 1011 0df8 F50300AA 		mov	x21, x0
 1012 0dfc 1F2003D5 		.p2align 3
 1013              	.L150:
 1014 0e00 00000094 		bl	timer_getTickCount
 1015 0e04 E10300AA 		mov	x1, x0
 1016 0e08 E00315AA 		mov	x0, x21
 1017 0e0c 00000094 		bl	tick_difference
 1018 0e10 1F0044F1 		cmp	x0, 1048576
 1019 0e14 28040054 		bhi	.L203
 1020 0e18 C00240B9 		ldr	w0, [x22]
 1021 0e1c 0100170B 		add	w1, w0, w23
 1022 0e20 824A61B8 		ldr	w2, [x20, w1, uxtw]
AARCH64 GAS  C:\Users\ldebo\AppData\Local\Temp\ccfW7LPV.s 			page 19


 1023 0e24 E2FEFF37 		tbnz	w2, #31, .L150
 1024              	.L153:
 1025 0e28 02006611 		add	w2, w0, 9961472
 1026 0e2c 18070011 		add	w24, w24, 1
 1027 0e30 42100111 		add	w2, w2, 68
 1028 0e34 94820091 		add	x20, x20, 32
 1029 0e38 420440B9 		ldr	w2, [x2, 4]
 1030 0e3c 42444ED3 		ubfx	x2, x2, 14, 4
 1031 0e40 1F03026B 		cmp	w24, w2
 1032 0e44 EBFCFF54 		blt	.L154
 1033 0e48 F8E742A9 		ldp	x24, x25, [sp, 40]
 1034              	.L149:
 1035 0e4c 01006611 		add	w1, w0, 9961472
 1036 0e50 21001111 		add	w1, w1, 1088
 1037 0e54 200040B9 		ldr	w0, [x1]
 1038 0e58 80006037 		tbnz	x0, 12, .L155
 1039 0e5c 200040B9 		ldr	w0, [x1]
 1040 0e60 00001432 		orr	w0, w0, 4096
 1041 0e64 200000B9 		str	w0, [x1]
 1042              	.L155:
 1043 0e68 220040B9 		ldr	w2, [x1]
 1044 0e6c 004C9DD2 		mov	x0, 60000
 1045 0e70 42001832 		orr	w2, w2, 256
 1046 0e74 220000B9 		str	w2, [x1]
 1047 0e78 00000094 		bl	timer_wait
 1048 0e7c F71340F9 		ldr	x23, [sp, 32]
 1049 0e80 00008052 		mov	w0, 0
 1050 0e84 FE1F40F9 		ldr	x30, [sp, 56]
 1051 0e88 F55B41A9 		ldp	x21, x22, [sp, 16]
 1052 0e8c F353C4A8 		ldp	x19, x20, [sp], 64
 1053 0e90 C0035FD6 		ret
 1054 0e94 1F2003D5 		.p2align 3
 1055              	.L203:
 1056 0e98 E103182A 		mov	w1, w24
 1057 0e9c E00319AA 		mov	x0, x25
 1058 0ea0 00000094 		bl	printf
 1059 0ea4 C00240B9 		ldr	w0, [x22]
 1060 0ea8 0100170B 		add	w1, w0, w23
 1061 0eac 824A61B8 		ldr	w2, [x20, w1, uxtw]
 1062 0eb0 82FAFF37 		tbnz	w2, #31, .L150
 1063 0eb4 DDFFFF17 		b	.L153
 1064              		.p2align 3
 1065              	.L201:
 1066 0eb8 010040B9 		ldr	w1, [x0]
 1067 0ebc 77020091 		add	x23, x19, :lo12:RPi_IO_Base_Addr
 1068 0ec0 15D490D2 		mov	x21, 34464
 1069 0ec4 3500A0F2 		movk	x21, 0x1, lsl 16
 1070 0ec8 21000032 		orr	w1, w1, 1
 1071 0ecc 010000B9 		str	w1, [x0]
 1072 0ed0 16028052 		mov	w22, 16
 1073 0ed4 1613A072 		movk	w22, 0x98, lsl 16
 1074 0ed8 00000094 		bl	timer_getTickCount
 1075 0edc F40300AA 		mov	x20, x0
 1076              		.p2align 3
 1077              	.L176:
 1078 0ee0 00000094 		bl	timer_getTickCount
 1079 0ee4 E10300AA 		mov	x1, x0
AARCH64 GAS  C:\Users\ldebo\AppData\Local\Temp\ccfW7LPV.s 			page 20


 1080 0ee8 E00314AA 		mov	x0, x20
 1081 0eec 00000094 		bl	tick_difference
 1082 0ef0 1F0015EB 		cmp	x0, x21
 1083 0ef4 E8D4FF54 		bhi	.L127
 1084 0ef8 E00240B9 		ldr	w0, [x23]
 1085 0efc 0100160B 		add	w1, w0, w22
 1086 0f00 220040B9 		ldr	w2, [x1]
 1087 0f04 E2FE0737 		tbnz	x2, 0, .L176
 1088 0f08 210040B9 		ldr	w1, [x1]
 1089 0f0c A1FEFF36 		tbz	w1, #31, .L176
 1090 0f10 01006611 		add	w1, w0, 9961472
 1091 0f14 21300011 		add	w1, w1, 12
 1092 0f18 C4FEFF17 		b	.L156
 1093 0f1c 1F2003D5 		.p2align 3
 1094              	.L137:
 1095 0f20 01006611 		add	w1, w0, 9961472
 1096 0f24 21300011 		add	w1, w1, 12
 1097 0f28 220040B9 		ldr	w2, [x1]
 1098 0f2c 42781612 		and	w2, w2, -513
 1099 0f30 220000B9 		str	w2, [x1]
 1100 0f34 220040B9 		ldr	w2, [x1]
 1101 0f38 42001832 		orr	w2, w2, 256
 1102 0f3c 220000B9 		str	w2, [x1]
 1103 0f40 E0FEFF17 		b	.L135
 1104              	.L196:
 1105 0f44 01006611 		add	w1, w0, 9961472
 1106 0f48 21300011 		add	w1, w1, 12
 1107 0f4c 220040B9 		ldr	w2, [x1]
 1108 0f50 42001732 		orr	w2, w2, 512
 1109 0f54 220000B9 		str	w2, [x1]
 1110 0f58 220040B9 		ldr	w2, [x1]
 1111 0f5c 42001832 		orr	w2, w2, 256
 1112 0f60 220000B9 		str	w2, [x1]
 1113 0f64 D7FEFF17 		b	.L135
 1114              		.size	HCDStart, .-HCDStart
 1115              		.align	2
 1116 0f68 1F2003D5 		.p2align 4,,15
 1116      1F2003D5 
 1117              		.global	HCDCheckErrorAndAction
 1118              		.type	HCDCheckErrorAndAction, %function
 1119              	HCDCheckErrorAndAction:
 1120 0f70 430C4039 		ldrb	w3, [x2, 3]
 1121 0f74 211C0012 		and	w1, w1, 255
 1122 0f78 041C0012 		and	w4, w0, 255
 1123 0f7c 63741A12 		and	w3, w3, -49
 1124 0f80 430C0039 		strb	w3, [x2, 3]
 1125 0f84 E4071037 		tbnz	x4, 2, .L226
 1126 0f88 00075037 		tbnz	x0, 10, .L212
 1127 0f8c A4022837 		tbnz	x4, 5, .L227
 1128 0f90 C1030034 		cbz	w1, .L211
 1129 0f94 41004039 		ldrb	w1, [x2]
 1130 0f98 21040011 		add	w1, w1, 1
 1131 0f9c 211C0012 		and	w1, w1, 255
 1132 0fa0 41000039 		strb	w1, [x2]
 1133 0fa4 3F140071 		cmp	w1, 5
 1134 0fa8 00060054 		beq	.L212
 1135 0fac 63001C32 		orr	w3, w3, 16
AARCH64 GAS  C:\Users\ldebo\AppData\Local\Temp\ccfW7LPV.s 			page 21


 1136 0fb0 430C0039 		strb	w3, [x2, 3]
 1137 0fb4 003C0012 		and	w0, w0, 65535
 1138 0fb8 01618052 		mov	w1, 776
 1139 0fbc 1F00016A 		tst	w0, w1
 1140 0fc0 C1030054 		bne	.L214
 1141              	.L228:
 1142 0fc4 010A8052 		mov	w1, 80
 1143 0fc8 E0008012 		mov	w0, -8
 1144 0fcc 9F00016A 		tst	w4, w1
 1145 0fd0 40000054 		beq	.L204
 1146              	.L216:
 1147 0fd4 20018012 		mov	w0, -10
 1148              	.L204:
 1149 0fd8 C0035FD6 		ret
 1150 0fdc 1F2003D5 		.p2align 3
 1151              	.L227:
 1152 0fe0 C4000036 		tbz	x4, 0, .L209
 1153 0fe4 63601932 		orr	w3, w3, -128
 1154 0fe8 430C0039 		strb	w3, [x2, 3]
 1155              	.L210:
 1156 0fec 5F080039 		strb	wzr, [x2, 2]
 1157 0ff0 00008052 		mov	w0, 0
 1158 0ff4 C0035FD6 		ret
 1159              		.p2align 3
 1160              	.L209:
 1161 0ff8 63001C32 		orr	w3, w3, 16
 1162 0ffc 430C0039 		strb	w3, [x2, 3]
 1163 1000 FBFFFF17 		b	.L210
 1164 1004 1F2003D5 		.p2align 3
 1165              	.L211:
 1166 1008 41044039 		ldrb	w1, [x2, 1]
 1167 100c 21040011 		add	w1, w1, 1
 1168 1010 211C0012 		and	w1, w1, 255
 1169 1014 41040039 		strb	w1, [x2, 1]
 1170 1018 3F0C0071 		cmp	w1, 3
 1171 101c 60020054 		beq	.L212
 1172 1020 63001B32 		orr	w3, w3, 32
 1173 1024 430C0039 		strb	w3, [x2, 3]
 1174 1028 003C0012 		and	w0, w0, 65535
 1175 102c 01618052 		mov	w1, 776
 1176 1030 1F00016A 		tst	w0, w1
 1177 1034 80FCFF54 		beq	.L228
 1178              	.L214:
 1179 1038 41084039 		ldrb	w1, [x2, 2]
 1180 103c 21040011 		add	w1, w1, 1
 1181 1040 211C0012 		and	w1, w1, 255
 1182 1044 41080039 		strb	w1, [x2, 2]
 1183 1048 3F0C0071 		cmp	w1, 3
 1184 104c 60020054 		beq	.L229
 1185 1050 04021837 		tbnz	x4, 3, .L218
 1186 1054 1F081972 		tst	w0, 896
 1187 1058 E1FBFF54 		bne	.L216
 1188 105c 00008012 		mov	w0, -1
 1189 1060 C0035FD6 		ret
 1190 1064 1F2003D5 		.p2align 3
 1191              	.L212:
 1192 1068 410C4039 		ldrb	w1, [x2, 3]
AARCH64 GAS  C:\Users\ldebo\AppData\Local\Temp\ccfW7LPV.s 			page 22


 1193 106c 20018012 		mov	w0, -10
 1194 1070 21001A32 		orr	w1, w1, 64
 1195 1074 410C0039 		strb	w1, [x2, 3]
 1196 1078 C0035FD6 		ret
 1197 107c 1F2003D5 		.p2align 3
 1198              	.L226:
 1199 1080 63001A32 		orr	w3, w3, 64
 1200 1084 60008012 		mov	w0, -4
 1201 1088 430C0039 		strb	w3, [x2, 3]
 1202 108c C0035FD6 		ret
 1203              	.L218:
 1204 1090 E0018012 		mov	w0, -16
 1205 1094 C0035FD6 		ret
 1206              	.L229:
 1207 1098 410C4039 		ldrb	w1, [x2, 3]
 1208 109c 20018012 		mov	w0, -10
 1209 10a0 21741A12 		and	w1, w1, -49
 1210 10a4 21001A32 		orr	w1, w1, 64
 1211 10a8 410C0039 		strb	w1, [x2, 3]
 1212 10ac C0035FD6 		ret
 1213              		.size	HCDCheckErrorAndAction, .-HCDCheckErrorAndAction
 1214              		.align	2
 1215              		.p2align 4,,15
 1216              		.global	HCDWaitOnTransmissionResult
 1217              		.type	HCDWaitOnTransmissionResult, %function
 1218              	HCDWaitOnTransmissionResult:
 1219 10b0 F353BBA9 		stp	x19, x20, [sp, -80]!
 1220 10b4 F303002A 		uxtw	x19, w0
 1221 10b8 14000090 		adrp	x20, RPi_IO_Base_Addr
 1222 10bc 94020091 		add	x20, x20, :lo12:RPi_IO_Base_Addr
 1223 10c0 F55B01A9 		stp	x21, x22, [sp, 16]
 1224 10c4 16A08052 		mov	w22, 1280
 1225 10c8 1613A072 		movk	w22, 0x98, lsl 16
 1226 10cc F76302A9 		stp	x23, x24, [sp, 32]
 1227 10d0 381C0012 		and	w24, w1, 255
 1228 10d4 F96B03A9 		stp	x25, x26, [sp, 48]
 1229 10d8 17048052 		mov	w23, 32
 1230 10dc F90302AA 		mov	x25, x2
 1231 10e0 FE2300F9 		str	x30, [sp, 64]
 1232 10e4 00000094 		bl	timer_getTickCount
 1233 10e8 F50300AA 		mov	x21, x0
 1234 10ec 06000014 		b	.L233
 1235              		.p2align 3
 1236              	.L231:
 1237 10f0 810240B9 		ldr	w1, [x20]
 1238 10f4 2100160B 		add	w1, w1, w22
 1239 10f8 E106B89B 		umaddl	x1, w23, w24, x1
 1240 10fc 3A0840B9 		ldr	w26, [x1, 8]
 1241 1100 5A020837 		tbnz	x26, 1, .L243
 1242              	.L233:
 1243 1104 800C80D2 		mov	x0, 100
 1244 1108 00000094 		bl	timer_wait
 1245 110c 00000094 		bl	timer_getTickCount
 1246 1110 E10300AA 		mov	x1, x0
 1247 1114 E00315AA 		mov	x0, x21
 1248 1118 00000094 		bl	tick_difference
 1249 111c 1F0013EB 		cmp	x0, x19
AARCH64 GAS  C:\Users\ldebo\AppData\Local\Temp\ccfW7LPV.s 			page 23


 1250 1120 89FEFF54 		bls	.L231
 1251 1124 E0008012 		mov	w0, -8
 1252 1128 590000B4 		cbz	x25, .L230
 1253              	.L241:
 1254 112c 3A0300B9 		str	w26, [x25]
 1255              	.L230:
 1256 1130 F55B41A9 		ldp	x21, x22, [sp, 16]
 1257 1134 F76342A9 		ldp	x23, x24, [sp, 32]
 1258 1138 F96B43A9 		ldp	x25, x26, [sp, 48]
 1259 113c FE2340F9 		ldr	x30, [sp, 64]
 1260 1140 F353C5A8 		ldp	x19, x20, [sp], 80
 1261 1144 C0035FD6 		ret
 1262              		.p2align 3
 1263              	.L243:
 1264 1148 00008052 		mov	w0, 0
 1265 114c 19FFFFB5 		cbnz	x25, .L241
 1266 1150 F55B41A9 		ldp	x21, x22, [sp, 16]
 1267 1154 F76342A9 		ldp	x23, x24, [sp, 32]
 1268 1158 F96B43A9 		ldp	x25, x26, [sp, 48]
 1269 115c FE2340F9 		ldr	x30, [sp, 64]
 1270 1160 F353C5A8 		ldp	x19, x20, [sp], 80
 1271 1164 C0035FD6 		ret
 1272              		.size	HCDWaitOnTransmissionResult, .-HCDWaitOnTransmissionResult
 1273              		.align	2
 1274 1168 1F2003D5 		.p2align 4,,15
 1274      1F2003D5 
 1275              		.global	HCDChannelTransfer
 1276              		.type	HCDChannelTransfer, %function
 1277              	HCDChannelTransfer:
 1278 1170 F353B8A9 		stp	x19, x20, [sp, -128]!
 1279 1174 14000090 		adrp	x20, RPi_IO_Base_Addr
 1280 1178 850240B9 		ldr	w5, [x20, #:lo12:RPi_IO_Base_Addr]
 1281 117c E06B00B9 		str	w0, [sp, 104]
 1282 1180 A0006611 		add	w0, w5, 9961472
 1283 1184 F60F00F9 		str	x22, [sp, 24]
 1284 1188 00100111 		add	w0, w0, 68
 1285 118c F91B00F9 		str	x25, [sp, 48]
 1286 1190 FE2B00F9 		str	x30, [sp, 80]
 1287 1194 391C0012 		and	w25, w1, 255
 1288 1198 E16300B9 		str	w1, [sp, 96]
 1289 119c FF7B00B9 		str	wzr, [sp, 120]
 1290 11a0 000440B9 		ldr	w0, [x0, 4]
 1291 11a4 00444ED3 		ubfx	x0, x0, 14, 4
 1292 11a8 1F00196B 		cmp	w0, w25
 1293 11ac 43270054 		bcc	.L304
 1294 11b0 F76302A9 		stp	x23, x24, [sp, 32]
 1295 11b4 F50B00F9 		str	x21, [sp, 16]
 1296 11b8 FAEF03A9 		stp	x26, x27, [sp, 56]
 1297 11bc FB03032A 		mov	w27, w3
 1298 11c0 E0A34139 		ldrb	w0, [sp, 104]
 1299 11c4 FC2700F9 		str	x28, [sp, 72]
 1300 11c8 FC0302AA 		mov	x28, x2
 1301 11cc 01040072 		ands	w1, w0, 3
 1302 11d0 40010054 		beq	.L276
 1303 11d4 3F040071 		cmp	w1, 1
 1304 11d8 00240054 		beq	.L277
 1305 11dc 03088052 		mov	w3, 64
AARCH64 GAS  C:\Users\ldebo\AppData\Local\Temp\ccfW7LPV.s 			page 24


 1306 11e0 3F080071 		cmp	w1, 2
 1307 11e4 E703032A 		mov	w7, w3
 1308 11e8 C1000054 		bne	.L247
 1309 11ec 03048052 		mov	w3, 32
 1310 11f0 E703032A 		mov	w7, w3
 1311 11f4 03000014 		b	.L247
 1312              	.L276:
 1313 11f8 03018052 		mov	w3, 8
 1314 11fc E703032A 		mov	w7, w3
 1315              	.L247:
 1316 1200 E2874139 		ldrb	w2, [sp, 97]
 1317 1204 01008052 		mov	w1, 0
 1318 1208 081C44D3 		ubfx	x8, x0, 4, 4
 1319 120c 61280033 		bfi	w1, w3, 0, 11
 1320 1210 03041E12 		and	w3, w0, 12
 1321 1214 A0006611 		add	w0, w5, 9961472
 1322 1218 460842D3 		ubfx	x6, x2, 2, 1
 1323 121c 010D1533 		bfi	w1, w8, 11, 4
 1324 1220 7F200071 		cmp	w3, 8
 1325 1224 331F7BD3 		ubfiz	x19, x25, 5, 8
 1326 1228 00001411 		add	w0, w0, 1280
 1327 122c C1001133 		bfi	w1, w6, 15, 1
 1328 1230 E8179F1A 		cset	w8, eq
 1329 1234 6542208B 		add	x5, x19, x0, uxtw
 1330 1238 E6A74139 		ldrb	w6, [sp, 105]
 1331 123c 09008012 		mov	w9, -1
 1332 1240 01010F33 		bfi	w1, w8, 17, 1
 1333 1244 684B0012 		and	w8, w27, 524287
 1334 1248 A90800B9 		str	w9, [x5, 8]
 1335 124c 41040E33 		bfi	w1, w2, 18, 2
 1336 1250 BF0C00B9 		str	wzr, [x5, 12]
 1337 1254 C1180A33 		bfi	w1, w6, 22, 7
 1338 1258 614A20B8 		str	w1, [x19, w0, uxtw]
 1339 125c 83010034 		cbz	w3, .L248
 1340 1260 E9AB4139 		ldrb	w9, [sp, 106]
 1341 1264 0600B052 		mov	w6, -2147483648
 1342 1268 E1AF4139 		ldrb	w1, [sp, 107]
 1343 126c 02008052 		mov	w2, 0
 1344 1270 26191933 		bfi	w6, w9, 7, 7
 1345 1274 26180033 		bfi	w6, w1, 0, 7
 1346 1278 A60400B9 		str	w6, [x5, 4]
 1347 127c C1000054 		bne	.L249
 1348 1280 611F0011 		add	w1, w27, 7
 1349 1284 213043D3 		ubfx	x1, x1, 3, 10
 1350 1288 07000014 		b	.L250
 1351              	.L248:
 1352 128c 02008052 		mov	w2, 0
 1353 1290 BF0400B9 		str	wzr, [x5, 4]
 1354              	.L249:
 1355 1294 61070051 		sub	w1, w27, #1
 1356 1298 2100070B 		add	w1, w1, w7
 1357 129c 2108C71A 		udiv	w1, w1, w7
 1358 12a0 21240012 		and	w1, w1, 1023
 1359              	.L250:
 1360 12a4 02490033 		bfi	w2, w8, 0, 19
 1361 12a8 94020091 		add	x20, x20, :lo12:RPi_IO_Base_Addr
 1362 12ac 15A08052 		mov	w21, 1280
AARCH64 GAS  C:\Users\ldebo\AppData\Local\Temp\ccfW7LPV.s 			page 25


 1363 12b0 1513A072 		movk	w21, 0x98, lsl 16
 1364 12b4 22240D33 		bfi	w2, w1, 19, 10
 1365 12b8 1A008052 		mov	w26, 0
 1366 12bc 42740112 		and	w2, w2, -1610612737
 1367 12c0 437C1053 		lsr	w3, w2, 16
 1368 12c4 7F241D72 		tst	w3, 8184
 1369 12c8 21149F1A 		csinc	w1, w1, wzr, ne
 1370 12cc 22240D33 		bfi	w2, w1, 19, 10
 1371 12d0 82040333 		bfi	w2, w4, 29, 2
 1372 12d4 A21000B9 		str	w2, [x5, 16]
 1373              	.L275:
 1374 12d8 7642208B 		add	x22, x19, x0, uxtw
 1375 12dc 00008012 		mov	w0, -1
 1376 12e0 97433A8B 		add	x23, x28, x26, uxtw
 1377 12e4 C00A00B9 		str	w0, [x22, 8]
 1378 12e8 FF0640F2 		tst	x23, 3
 1379 12ec DF0E00B9 		str	wzr, [x22, 12]
 1380 12f0 C60640B9 		ldr	w6, [x22, 4]
 1381 12f4 C6780F12 		and	w6, w6, -65537
 1382 12f8 C60600B9 		str	w6, [x22, 4]
 1383 12fc 21180054 		bne	.L305
 1384              	.L252:
 1385 1300 E00317AA 		mov	x0, x23
 1386 1304 00000094 		bl	ARMaddrToGPUaddr
 1387 1308 820240B9 		ldr	w2, [x20]
 1388 130c C01600B9 		str	w0, [x22, 20]
 1389 1310 20008052 		mov	w0, 1
 1390 1314 4200150B 		add	w2, w2, w21
 1391 1318 167182D2 		mov	x22, 5000
 1392 131c 614A62B8 		ldr	w1, [x19, w2, uxtw]
 1393 1320 01040C33 		bfi	w1, w0, 20, 2
 1394 1324 20780112 		and	w0, w1, -1073741825
 1395 1328 00000132 		orr	w0, w0, -2147483648
 1396 132c 604A22B8 		str	w0, [x19, w2, uxtw]
 1397 1330 00000094 		bl	timer_getTickCount
 1398 1334 F70300AA 		mov	x23, x0
 1399 1338 07000014 		b	.L254
 1400 133c 1F2003D5 		.p2align 3
 1401              	.L253:
 1402 1340 800240B9 		ldr	w0, [x20]
 1403 1344 0000150B 		add	w0, w0, w21
 1404 1348 0000138B 		add	x0, x0, x19
 1405 134c 070840B9 		ldr	w7, [x0, 8]
 1406 1350 07030837 		tbnz	x7, 1, .L306
 1407              	.L254:
 1408 1354 800C80D2 		mov	x0, 100
 1409 1358 00000094 		bl	timer_wait
 1410 135c 00000094 		bl	timer_getTickCount
 1411 1360 E10300AA 		mov	x1, x0
 1412 1364 E00317AA 		mov	x0, x23
 1413 1368 00000094 		bl	tick_difference
 1414 136c 1F0016EB 		cmp	x0, x22
 1415 1370 89FEFF54 		bls	.L253
 1416 1374 00000090 		adrp	x0, .LC7
 1417 1378 E103192A 		mov	w1, w25
 1418 137c 00000091 		add	x0, x0, :lo12:.LC7
 1419              		.p2align 3
AARCH64 GAS  C:\Users\ldebo\AppData\Local\Temp\ccfW7LPV.s 			page 26


 1420              	.L303:
 1421 1380 00000094 		bl	printf
 1422 1384 F50B40F9 		ldr	x21, [sp, 16]
 1423 1388 F76342A9 		ldp	x23, x24, [sp, 32]
 1424 138c F6008012 		mov	w22, -8
 1425 1390 FAEF43A9 		ldp	x26, x27, [sp, 56]
 1426 1394 FC2740F9 		ldr	x28, [sp, 72]
 1427              	.L244:
 1428 1398 E003162A 		mov	w0, w22
 1429 139c F60F40F9 		ldr	x22, [sp, 24]
 1430 13a0 F91B40F9 		ldr	x25, [sp, 48]
 1431 13a4 FE2B40F9 		ldr	x30, [sp, 80]
 1432 13a8 F353C8A8 		ldp	x19, x20, [sp], 128
 1433 13ac C0035FD6 		ret
 1434              		.p2align 3
 1435              	.L306:
 1436 13b0 060440B9 		ldr	w6, [x0, 4]
 1437 13b4 E2E30191 		add	x2, sp, 120
 1438 13b8 E003072A 		mov	w0, w7
 1439 13bc C17C1F53 		lsr	w1, w6, 31
 1440 13c0 00000094 		bl	HCDCheckErrorAndAction
 1441 13c4 F603002A 		mov	w22, w0
 1442 13c8 C0120035 		cbnz	w0, .L307
 1443              	.L255:
 1444 13cc E2EF4139 		ldrb	w2, [sp, 123]
 1445 13d0 420C3037 		tbnz	x2, 6, .L302
 1446 13d4 850240B9 		ldr	w5, [x20]
 1447 13d8 18008012 		mov	w24, -1
 1448 13dc FFE30139 		strb	wzr, [sp, 120]
 1449 13e0 A000150B 		add	w0, w5, w21
 1450 13e4 6142208B 		add	x1, x19, x0, uxtw
 1451 13e8 42072036 		tbz	x2, 4, .L308
 1452 13ec 1F2003D5 		.p2align 3
 1453              	.L273:
 1454 13f0 380800B9 		str	w24, [x1, 8]
 1455 13f4 177182D2 		mov	x23, 5000
 1456 13f8 3F0C00B9 		str	wzr, [x1, 12]
 1457 13fc 260440B9 		ldr	w6, [x1, 4]
 1458 1400 C6001032 		orr	w6, w6, 65536
 1459 1404 260400B9 		str	w6, [x1, 4]
 1460 1408 614A60B8 		ldr	w1, [x19, w0, uxtw]
 1461 140c 21780112 		and	w1, w1, -1073741825
 1462 1410 21000132 		orr	w1, w1, -2147483648
 1463 1414 614A20B8 		str	w1, [x19, w0, uxtw]
 1464 1418 00000094 		bl	timer_getTickCount
 1465 141c F60300AA 		mov	x22, x0
 1466 1420 07000014 		b	.L258
 1467 1424 1F2003D5 		.p2align 3
 1468              	.L257:
 1469 1428 800240B9 		ldr	w0, [x20]
 1470 142c 0000150B 		add	w0, w0, w21
 1471 1430 0000138B 		add	x0, x0, x19
 1472 1434 010840B9 		ldr	w1, [x0, 8]
 1473 1438 C1010837 		tbnz	x1, 1, .L309
 1474              	.L258:
 1475 143c 800C80D2 		mov	x0, 100
 1476 1440 00000094 		bl	timer_wait
AARCH64 GAS  C:\Users\ldebo\AppData\Local\Temp\ccfW7LPV.s 			page 27


 1477 1444 00000094 		bl	timer_getTickCount
 1478 1448 E10300AA 		mov	x1, x0
 1479 144c E00316AA 		mov	x0, x22
 1480 1450 00000094 		bl	tick_difference
 1481 1454 1F0017EB 		cmp	x0, x23
 1482 1458 89FEFF54 		bls	.L257
 1483 145c 00000090 		adrp	x0, .LC9
 1484 1460 E103192A 		mov	w1, w25
 1485 1464 00000091 		add	x0, x0, :lo12:.LC9
 1486 1468 C6FFFF17 		b	.L303
 1487 146c 1F2003D5 		.p2align 3
 1488              	.L309:
 1489 1470 060440B9 		ldr	w6, [x0, 4]
 1490 1474 221C0012 		and	w2, w1, 255
 1491 1478 E0EF4139 		ldrb	w0, [sp, 123]
 1492 147c 00741A12 		and	w0, w0, -49
 1493 1480 E0EF0139 		strb	w0, [sp, 123]
 1494 1484 C67C1F53 		lsr	w6, w6, 31
 1495 1488 E20E1037 		tbnz	x2, 2, .L310
 1496 148c C10D5037 		tbnz	x1, 10, .L266
 1497 1490 C2032836 		tbz	x2, 5, .L262
 1498 1494 E2070036 		tbz	x2, 0, .L263
 1499 1498 00601932 		orr	w0, w0, -128
 1500 149c E0EF0139 		strb	w0, [sp, 123]
 1501              	.L264:
 1502 14a0 FFEB0139 		strb	wzr, [sp, 122]
 1503 14a4 16008052 		mov	w22, 0
 1504              	.L260:
 1505 14a8 E0EF4139 		ldrb	w0, [sp, 123]
 1506 14ac 60053037 		tbnz	x0, 6, .L302
 1507              	.L311:
 1508 14b0 80061836 		tbz	x0, 3, .L271
 1509 14b4 00E284D2 		mov	x0, 10000
 1510 14b8 00000094 		bl	timer_wait
 1511 14bc E2EF4139 		ldrb	w2, [sp, 123]
 1512              	.L312:
 1513 14c0 850240B9 		ldr	w5, [x20]
 1514 14c4 A000150B 		add	w0, w5, w21
 1515 14c8 6142208B 		add	x1, x19, x0, uxtw
 1516 14cc 22F92737 		tbnz	x2, 4, .L273
 1517              	.L308:
 1518 14d0 82003836 		tbz	x2, 7, .L274
 1519 14d4 3A1040B9 		ldr	w26, [x1, 16]
 1520 14d8 5A4B40D3 		ubfx	x26, x26, 0, 19
 1521 14dc 7A031A4B 		sub	w26, w27, w26
 1522              	.L274:
 1523 14e0 211040B9 		ldr	w1, [x1, 16]
 1524 14e4 3F246DF2 		tst	x1, 536346624
 1525 14e8 81EFFF54 		bne	.L275
 1526 14ec 16008052 		mov	w22, 0
 1527 14f0 F50B40F9 		ldr	x21, [sp, 16]
 1528 14f4 F76342A9 		ldp	x23, x24, [sp, 32]
 1529 14f8 FAEF43A9 		ldp	x26, x27, [sp, 56]
 1530 14fc FC2740F9 		ldr	x28, [sp, 72]
 1531 1500 A6FFFF17 		b	.L244
 1532 1504 1F2003D5 		.p2align 3
 1533              	.L262:
AARCH64 GAS  C:\Users\ldebo\AppData\Local\Temp\ccfW7LPV.s 			page 28


 1534 1508 C6040034 		cbz	w6, .L265
 1535 150c E3E34139 		ldrb	w3, [sp, 120]
 1536 1510 63040011 		add	w3, w3, 1
 1537 1514 631C0012 		and	w3, w3, 255
 1538 1518 E3E30139 		strb	w3, [sp, 120]
 1539 151c 7F140071 		cmp	w3, 5
 1540 1520 20090054 		beq	.L266
 1541 1524 00001C32 		orr	w0, w0, 16
 1542 1528 E0EF0139 		strb	w0, [sp, 123]
 1543 152c 213C0012 		and	w1, w1, 65535
 1544 1530 00618052 		mov	w0, 776
 1545 1534 3F00006A 		tst	w1, w0
 1546 1538 C1040054 		bne	.L268
 1547              	.L313:
 1548 153c 000A8052 		mov	w0, 80
 1549 1540 F6008012 		mov	w22, -8
 1550 1544 5F00006A 		tst	w2, w0
 1551 1548 00FBFF54 		beq	.L260
 1552 154c 36018012 		mov	w22, -10
 1553              	.L315:
 1554 1550 E0EF4139 		ldrb	w0, [sp, 123]
 1555 1554 E0FA3736 		tbz	x0, 6, .L311
 1556              	.L302:
 1557 1558 F50B40F9 		ldr	x21, [sp, 16]
 1558 155c E003162A 		mov	w0, w22
 1559 1560 F60F40F9 		ldr	x22, [sp, 24]
 1560 1564 F76342A9 		ldp	x23, x24, [sp, 32]
 1561 1568 F91B40F9 		ldr	x25, [sp, 48]
 1562 156c FAEF43A9 		ldp	x26, x27, [sp, 56]
 1563 1570 FC2740F9 		ldr	x28, [sp, 72]
 1564 1574 FE2B40F9 		ldr	x30, [sp, 80]
 1565 1578 F353C8A8 		ldp	x19, x20, [sp], 128
 1566 157c C0035FD6 		ret
 1567              		.p2align 3
 1568              	.L271:
 1569 1580 803881D2 		mov	x0, 2500
 1570 1584 00000094 		bl	timer_wait
 1571 1588 E2EF4139 		ldrb	w2, [sp, 123]
 1572 158c CDFFFF17 		b	.L312
 1573              		.p2align 3
 1574              	.L263:
 1575 1590 00001C32 		orr	w0, w0, 16
 1576 1594 E0EF0139 		strb	w0, [sp, 123]
 1577 1598 C2FFFF17 		b	.L264
 1578 159c 1F2003D5 		.p2align 3
 1579              	.L265:
 1580 15a0 E3E74139 		ldrb	w3, [sp, 121]
 1581 15a4 63040011 		add	w3, w3, 1
 1582 15a8 631C0012 		and	w3, w3, 255
 1583 15ac E3E70139 		strb	w3, [sp, 121]
 1584 15b0 7F0C0071 		cmp	w3, 3
 1585 15b4 80040054 		beq	.L266
 1586 15b8 00001B32 		orr	w0, w0, 32
 1587 15bc E0EF0139 		strb	w0, [sp, 123]
 1588 15c0 213C0012 		and	w1, w1, 65535
 1589 15c4 00618052 		mov	w0, 776
 1590 15c8 3F00006A 		tst	w1, w0
AARCH64 GAS  C:\Users\ldebo\AppData\Local\Temp\ccfW7LPV.s 			page 29


 1591 15cc 80FBFF54 		beq	.L313
 1592              	.L268:
 1593 15d0 E0EB4139 		ldrb	w0, [sp, 122]
 1594 15d4 00040011 		add	w0, w0, 1
 1595 15d8 001C0012 		and	w0, w0, 255
 1596 15dc E0EB0139 		strb	w0, [sp, 122]
 1597 15e0 1F0C0071 		cmp	w0, 3
 1598 15e4 C0040054 		beq	.L314
 1599 15e8 62041837 		tbnz	x2, 3, .L281
 1600 15ec 16008012 		mov	w22, -1
 1601 15f0 3F081972 		tst	w1, 896
 1602 15f4 A0F5FF54 		beq	.L260
 1603 15f8 36018012 		mov	w22, -10
 1604 15fc D5FFFF17 		b	.L315
 1605              	.L305:
 1606 1600 00000090 		adrp	x0, .LC6
 1607 1604 E10317AA 		mov	x1, x23
 1608 1608 00000091 		add	x0, x0, :lo12:.LC6
 1609 160c 00000094 		bl	printf
 1610 1610 800240B9 		ldr	w0, [x20]
 1611 1614 0000150B 		add	w0, w0, w21
 1612 1618 1600138B 		add	x22, x0, x19
 1613 161c 39FFFF17 		b	.L252
 1614              	.L307:
 1615 1620 E27B40B9 		ldr	w2, [sp, 120]
 1616 1624 00000090 		adrp	x0, .LC8
 1617 1628 05008052 		mov	w5, 0
 1618 162c E403062A 		mov	w4, w6
 1619 1630 E303072A 		mov	w3, w7
 1620 1634 E103162A 		mov	w1, w22
 1621 1638 00000091 		add	x0, x0, :lo12:.LC8
 1622 163c 00000094 		bl	printf
 1623 1640 63FFFF17 		b	.L255
 1624              	.L266:
 1625 1644 E0EF4139 		ldrb	w0, [sp, 123]
 1626 1648 36018012 		mov	w22, -10
 1627 164c 00001A32 		orr	w0, w0, 64
 1628 1650 E0EF0139 		strb	w0, [sp, 123]
 1629 1654 95FFFF17 		b	.L260
 1630              	.L277:
 1631 1658 03028052 		mov	w3, 16
 1632 165c E703032A 		mov	w7, w3
 1633 1660 E8FEFF17 		b	.L247
 1634              	.L310:
 1635 1664 00001A32 		orr	w0, w0, 64
 1636 1668 76008012 		mov	w22, -4
 1637 166c E0EF0139 		strb	w0, [sp, 123]
 1638 1670 8EFFFF17 		b	.L260
 1639              	.L281:
 1640 1674 F6018012 		mov	w22, -16
 1641 1678 8CFFFF17 		b	.L260
 1642              	.L314:
 1643 167c E0EF4139 		ldrb	w0, [sp, 123]
 1644 1680 36018012 		mov	w22, -10
 1645 1684 00741A12 		and	w0, w0, -49
 1646 1688 00001A32 		orr	w0, w0, 64
 1647 168c E0EF0139 		strb	w0, [sp, 123]
AARCH64 GAS  C:\Users\ldebo\AppData\Local\Temp\ccfW7LPV.s 			page 30


 1648 1690 86FFFF17 		b	.L260
 1649              	.L304:
 1650 1694 00000090 		adrp	x0, .LC5
 1651 1698 E103192A 		mov	w1, w25
 1652 169c 36008012 		mov	w22, -2
 1653 16a0 00000091 		add	x0, x0, :lo12:.LC5
 1654 16a4 00000094 		bl	printf
 1655 16a8 3CFFFF17 		b	.L244
 1656              		.size	HCDChannelTransfer, .-HCDChannelTransfer
 1657              		.align	2
 1658 16ac 1F2003D5 		.p2align 4,,15
 1659              		.type	HCDSumbitControlMessage.constprop.13, %function
 1660              	HCDSumbitControlMessage.constprop.13:
 1661 16b0 FF4311D1 		sub	sp, sp, #1104
 1662 16b4 E03B00B9 		str	w0, [sp, 56]
 1663 16b8 03000090 		adrp	x3, .LANCHOR1
 1664 16bc 60004039 		ldrb	w0, [x3, #:lo12:.LANCHOR1]
 1665 16c0 F35301A9 		stp	x19, x20, [sp, 16]
 1666 16c4 F40302AA 		mov	x20, x2
 1667 16c8 F3E74039 		ldrb	w19, [sp, 57]
 1668 16cc FE1700F9 		str	x30, [sp, 40]
 1669 16d0 E13300B9 		str	w1, [sp, 48]
 1670 16d4 1F00136B 		cmp	w0, w19
 1671 16d8 00060054 		beq	.L376
 1672 16dc E14B00B9 		str	w1, [sp, 72]
 1673 16e0 64008052 		mov	w4, 3
 1674 16e4 E01F40F9 		ldr	x0, [sp, 56]
 1675 16e8 03018052 		mov	w3, 8
 1676 16ec E1274139 		ldrb	w1, [sp, 73]
 1677 16f0 21701D12 		and	w1, w1, -8
 1678 16f4 E1270139 		strb	w1, [sp, 73]
 1679 16f8 E12740F9 		ldr	x1, [sp, 72]
 1680 16fc 00000094 		bl	HCDChannelTransfer
 1681 1700 80020035 		cbnz	w0, .L377
 1682 1704 E1274139 		ldrb	w1, [sp, 73]
 1683 1708 44008052 		mov	w4, 2
 1684 170c E01F40F9 		ldr	x0, [sp, 56]
 1685 1710 03008052 		mov	w3, 0
 1686 1714 21001E32 		orr	w1, w1, 4
 1687 1718 E1270139 		strb	w1, [sp, 73]
 1688 171c E2430191 		add	x2, sp, 80
 1689 1720 E12740F9 		ldr	x1, [sp, 72]
 1690 1724 00000094 		bl	HCDChannelTransfer
 1691 1728 C00A0035 		cbnz	w0, .L378
 1692 172c 01000090 		adrp	x1, RPi_IO_Base_Addr
 1693 1730 210040B9 		ldr	w1, [x1, #:lo12:RPi_IO_Base_Addr]
 1694 1734 21006611 		add	w1, w1, 9961472
 1695 1738 21001411 		add	w1, w1, 1280
 1696 173c 211040B9 		ldr	w1, [x1, 16]
 1697              	.L316:
 1698 1740 F35341A9 		ldp	x19, x20, [sp, 16]
 1699 1744 FE1740F9 		ldr	x30, [sp, 40]
 1700 1748 FF431191 		add	sp, sp, 1104
 1701 174c C0035FD6 		ret
 1702              		.p2align 3
 1703              	.L377:
 1704 1750 83024039 		ldrb	w3, [x20]
AARCH64 GAS  C:\Users\ldebo\AppData\Local\Temp\ccfW7LPV.s 			page 31


 1705 1754 E103132A 		mov	w1, w19
 1706 1758 82064039 		ldrb	w2, [x20, 1]
 1707 175c E7EF4039 		ldrb	w7, [sp, 59]
 1708 1760 E6EB4039 		ldrb	w6, [sp, 58]
 1709 1764 E4E34039 		ldrb	w4, [sp, 56]
 1710 1768 E00300B9 		str	w0, [sp]
 1711 176c 00000090 		adrp	x0, .LC10
 1712 1770 00000091 		add	x0, x0, :lo12:.LC10
 1713 1774 85040012 		and	w5, w4, 3
 1714 1778 840C42D3 		ubfx	x4, x4, 2, 2
 1715 177c 00000094 		bl	printf
 1716 1780 F35341A9 		ldp	x19, x20, [sp, 16]
 1717 1784 00008052 		mov	w0, 0
 1718 1788 FE1740F9 		ldr	x30, [sp, 40]
 1719 178c FF431191 		add	sp, sp, 1104
 1720 1790 C0035FD6 		ret
 1721 1794 1F2003D5 		.p2align 3
 1722              	.L376:
 1723 1798 40044039 		ldrb	w0, [x2, 1]
 1724 179c 1F140071 		cmp	w0, 5
 1725 17a0 000D0054 		beq	.L319
 1726 17a4 E8040054 		bhi	.L320
 1727 17a8 1F040071 		cmp	w0, 1
 1728 17ac A0080054 		beq	.L321
 1729 17b0 40070034 		cbz	w0, .L322
 1730 17b4 1F0C0071 		cmp	w0, 3
 1731 17b8 01060054 		bne	.L357
 1732 17bc 40004039 		ldrb	w0, [x2]
 1733 17c0 1F800071 		cmp	w0, 32
 1734 17c4 80040054 		beq	.L373
 1735 17c8 09050054 		bls	.L374
 1736 17cc 1F8C0071 		cmp	w0, 35
 1737 17d0 41050054 		bne	.L357
 1738 17d4 41104039 		ldrb	w1, [x2, 4]
 1739 17d8 40144039 		ldrb	w0, [x2, 5]
 1740 17dc 2020002A 		orr	w0, w1, w0, lsl 8
 1741 17e0 1F040071 		cmp	w0, 1
 1742 17e4 A1040054 		bne	.L357
 1743 17e8 41084039 		ldrb	w1, [x2, 2]
 1744 17ec 400C4039 		ldrb	w0, [x2, 3]
 1745 17f0 2020002A 		orr	w0, w1, w0, lsl 8
 1746 17f4 1F100071 		cmp	w0, 4
 1747 17f8 E0110054 		beq	.L342
 1748 17fc 1F200071 		cmp	w0, 8
 1749 1800 A1020054 		bne	.L373
 1750 1804 00000090 		adrp	x0, .LC2
 1751 1808 00000091 		add	x0, x0, :lo12:.LC2
 1752 180c 00000094 		bl	printf
 1753 1810 00000090 		adrp	x0, RPi_IO_Base_Addr
 1754 1814 020040B9 		ldr	w2, [x0, #:lo12:RPi_IO_Base_Addr]
 1755 1818 C3058012 		mov	w3, -47
 1756 181c 00008052 		mov	w0, 0
 1757 1820 42006611 		add	w2, w2, 9961472
 1758 1824 42001111 		add	w2, w2, 1088
 1759 1828 410040B9 		ldr	w1, [x2]
 1760 182c 2100030A 		and	w1, w1, w3
 1761 1830 21001432 		orr	w1, w1, 4096
AARCH64 GAS  C:\Users\ldebo\AppData\Local\Temp\ccfW7LPV.s 			page 32


 1762 1834 410000B9 		str	w1, [x2]
 1763 1838 C2FFFF17 		b	.L316
 1764 183c 1F2003D5 		.p2align 3
 1765              	.L320:
 1766 1840 1F180071 		cmp	w0, 6
 1767 1844 60080054 		beq	.L324
 1768 1848 00200051 		sub	w0, w0, #8
 1769 184c 1F040071 		cmp	w0, 1
 1770 1850 48010054 		bhi	.L357
 1771              	.L373:
 1772 1854 00008052 		mov	w0, 0
 1773              	.L379:
 1774 1858 F35341A9 		ldp	x19, x20, [sp, 16]
 1775 185c FE1740F9 		ldr	x30, [sp, 40]
 1776 1860 FF431191 		add	sp, sp, 1104
 1777 1864 C0035FD6 		ret
 1778              		.p2align 3
 1779              	.L374:
 1780 1868 00040051 		sub	w0, w0, #1
 1781 186c 1F040071 		cmp	w0, 1
 1782 1870 29FFFF54 		bls	.L373
 1783 1874 1F2003D5 		.p2align 3
 1784              	.L357:
 1785 1878 20008012 		mov	w0, -2
 1786 187c B1FFFF17 		b	.L316
 1787              		.p2align 3
 1788              	.L378:
 1789 1880 00000090 		adrp	x0, .LC11
 1790 1884 E103132A 		mov	w1, w19
 1791 1888 00000091 		add	x0, x0, :lo12:.LC11
 1792 188c 00000094 		bl	printf
 1793 1890 00008052 		mov	w0, 0
 1794 1894 F1FFFF17 		b	.L379
 1795              		.p2align 3
 1796              	.L322:
 1797 1898 40004039 		ldrb	w0, [x2]
 1798 189c 1F800271 		cmp	w0, 160
 1799 18a0 A0FDFF54 		beq	.L373
 1800 18a4 28070054 		bhi	.L327
 1801 18a8 00000251 		sub	w0, w0, #128
 1802 18ac 1F080071 		cmp	w0, 2
 1803 18b0 48FEFF54 		bhi	.L357
 1804 18b4 00008052 		mov	w0, 0
 1805 18b8 E8FFFF17 		b	.L379
 1806 18bc 1F2003D5 		.p2align 3
 1807              	.L321:
 1808 18c0 40004039 		ldrb	w0, [x2]
 1809 18c4 1F800071 		cmp	w0, 32
 1810 18c8 60FCFF54 		beq	.L373
 1811 18cc E9FCFF54 		bls	.L374
 1812 18d0 1F8C0071 		cmp	w0, 35
 1813 18d4 21FDFF54 		bne	.L357
 1814 18d8 41104039 		ldrb	w1, [x2, 4]
 1815 18dc 40144039 		ldrb	w0, [x2, 5]
 1816 18e0 2020002A 		orr	w0, w1, w0, lsl 8
 1817 18e4 1F040071 		cmp	w0, 1
 1818 18e8 81FCFF54 		bne	.L357
AARCH64 GAS  C:\Users\ldebo\AppData\Local\Temp\ccfW7LPV.s 			page 33


 1819 18ec 41084039 		ldrb	w1, [x2, 2]
 1820 18f0 400C4039 		ldrb	w0, [x2, 3]
 1821 18f4 2020002A 		orr	w0, w1, w0, lsl 8
 1822 18f8 1F200071 		cmp	w0, 8
 1823 18fc 00110054 		beq	.L332
 1824 1900 09060054 		bls	.L380
 1825 1904 1F440071 		cmp	w0, 17
 1826 1908 800F0054 		beq	.L336
 1827 190c 1F4C0071 		cmp	w0, 19
 1828 1910 200E0054 		beq	.L337
 1829 1914 1F400071 		cmp	w0, 16
 1830 1918 E1F9FF54 		bne	.L373
 1831 191c 00000090 		adrp	x0, RPi_IO_Base_Addr
 1832 1920 010040B9 		ldr	w1, [x0, #:lo12:RPi_IO_Base_Addr]
 1833 1924 00008052 		mov	w0, 0
 1834 1928 21006611 		add	w1, w1, 9961472
 1835 192c 21001111 		add	w1, w1, 1088
 1836 1930 220040B9 		ldr	w2, [x1]
 1837 1934 42001F32 		orr	w2, w2, 2
 1838 1938 220000B9 		str	w2, [x1]
 1839 193c 81FFFF17 		b	.L316
 1840              		.p2align 3
 1841              	.L319:
 1842 1940 41084039 		ldrb	w1, [x2, 2]
 1843 1944 00008052 		mov	w0, 0
 1844 1948 61000039 		strb	w1, [x3, #:lo12:.LANCHOR1]
 1845 194c 7DFFFF17 		b	.L316
 1846              		.p2align 3
 1847              	.L324:
 1848 1950 40004039 		ldrb	w0, [x2]
 1849 1954 1F000271 		cmp	w0, 128
 1850 1958 C0000054 		beq	.L345
 1851 195c 1F800271 		cmp	w0, 160
 1852 1960 20008012 		mov	w0, -2
 1853 1964 E003801A 		csel	w0, wzr, w0, eq
 1854 1968 76FFFF17 		b	.L316
 1855 196c 1F2003D5 		.p2align 3
 1856              	.L345:
 1857 1970 410C4039 		ldrb	w1, [x2, 3]
 1858 1974 20008012 		mov	w0, -2
 1859 1978 21040051 		sub	w1, w1, #1
 1860 197c 3F080071 		cmp	w1, 2
 1861 1980 00809F1A 		csel	w0, w0, wzr, hi
 1862 1984 6FFFFF17 		b	.L316
 1863              		.p2align 3
 1864              	.L327:
 1865 1988 1F8C0271 		cmp	w0, 163
 1866 198c 61F7FF54 		bne	.L357
 1867 1990 41104039 		ldrb	w1, [x2, 4]
 1868 1994 40144039 		ldrb	w0, [x2, 5]
 1869 1998 2020002A 		orr	w0, w1, w0, lsl 8
 1870 199c 1F040071 		cmp	w0, 1
 1871 19a0 C1F6FF54 		bne	.L357
 1872 19a4 00000090 		adrp	x0, RPi_IO_Base_Addr
 1873 19a8 010040B9 		ldr	w1, [x0, #:lo12:RPi_IO_Base_Addr]
 1874 19ac 00008052 		mov	w0, 0
 1875 19b0 21006611 		add	w1, w1, 9961472
AARCH64 GAS  C:\Users\ldebo\AppData\Local\Temp\ccfW7LPV.s 			page 34


 1876 19b4 21001111 		add	w1, w1, 1088
 1877 19b8 210040B9 		ldr	w1, [x1]
 1878 19bc 61FFFF17 		b	.L316
 1879              	.L380:
 1880 19c0 1F040071 		cmp	w0, 1
 1881 19c4 400C0054 		beq	.L334
 1882 19c8 1F080071 		cmp	w0, 2
 1883 19cc 41F4FF54 		bne	.L373
 1884 19d0 13000090 		adrp	x19, RPi_IO_Base_Addr
 1885 19d4 610240B9 		ldr	w1, [x19, #:lo12:RPi_IO_Base_Addr]
 1886 19d8 007182D2 		mov	x0, 5000
 1887 19dc 14888052 		mov	w20, 1088
 1888 19e0 1413A072 		movk	w20, 0x98, lsl 16
 1889 19e4 21006611 		add	w1, w1, 9961472
 1890 19e8 21003811 		add	w1, w1, 3584
 1891 19ec 3F0000B9 		str	wzr, [x1]
 1892 19f0 00000094 		bl	timer_wait
 1893 19f4 610240B9 		ldr	w1, [x19, #:lo12:RPi_IO_Base_Addr]
 1894 19f8 00D490D2 		mov	x0, 34464
 1895 19fc 2000A0F2 		movk	x0, 0x1, lsl 16
 1896 1a00 2100140B 		add	w1, w1, w20
 1897 1a04 220040B9 		ldr	w2, [x1]
 1898 1a08 42001A32 		orr	w2, w2, 64
 1899 1a0c 220000B9 		str	w2, [x1]
 1900 1a10 00000094 		bl	timer_wait
 1901 1a14 620240B9 		ldr	w2, [x19, #:lo12:RPi_IO_Base_Addr]
 1902 1a18 C31D8012 		mov	w3, -239
 1903 1a1c 00008052 		mov	w0, 0
 1904 1a20 4200140B 		add	w2, w2, w20
 1905 1a24 410040B9 		ldr	w1, [x2]
 1906 1a28 2100030A 		and	w1, w1, w3
 1907 1a2c 410000B9 		str	w1, [x2]
 1908 1a30 44FFFF17 		b	.L316
 1909              	.L342:
 1910 1a34 13000090 		adrp	x19, RPi_IO_Base_Addr
 1911 1a38 610240B9 		ldr	w1, [x19, #:lo12:RPi_IO_Base_Addr]
 1912 1a3c F51300F9 		str	x21, [sp, 32]
 1913 1a40 15C08152 		mov	w21, 3584
 1914 1a44 1513A072 		movk	w21, 0x98, lsl 16
 1915 1a48 2100150B 		add	w1, w1, w21
 1916 1a4c 00E284D2 		mov	x0, 10000
 1917 1a50 14888052 		mov	w20, 1088
 1918 1a54 1413A072 		movk	w20, 0x98, lsl 16
 1919 1a58 220040B9 		ldr	w2, [x1]
 1920 1a5c 42781A12 		and	w2, w2, -33
 1921 1a60 220000B9 		str	w2, [x1]
 1922 1a64 220040B9 		ldr	w2, [x1]
 1923 1a68 42781F12 		and	w2, w2, -2
 1924 1a6c 220000B9 		str	w2, [x1]
 1925 1a70 00000094 		bl	timer_wait
 1926 1a74 610240B9 		ldr	w1, [x19, #:lo12:RPi_IO_Base_Addr]
 1927 1a78 004C9DD2 		mov	x0, 60000
 1928 1a7c 2100150B 		add	w1, w1, w21
 1929 1a80 3F0000B9 		str	wzr, [x1]
 1930 1a84 610240B9 		ldr	w1, [x19, #:lo12:RPi_IO_Base_Addr]
 1931 1a88 2100140B 		add	w1, w1, w20
 1932 1a8c 220040B9 		ldr	w2, [x1]
AARCH64 GAS  C:\Users\ldebo\AppData\Local\Temp\ccfW7LPV.s 			page 35


 1933 1a90 42781812 		and	w2, w2, -129
 1934 1a94 220000B9 		str	w2, [x1]
 1935 1a98 220040B9 		ldr	w2, [x1]
 1936 1a9c 42001832 		orr	w2, w2, 256
 1937 1aa0 220000B9 		str	w2, [x1]
 1938 1aa4 220040B9 		ldr	w2, [x1]
 1939 1aa8 42001432 		orr	w2, w2, 4096
 1940 1aac 220000B9 		str	w2, [x1]
 1941 1ab0 00000094 		bl	timer_wait
 1942 1ab4 610240B9 		ldr	w1, [x19, #:lo12:RPi_IO_Base_Addr]
 1943 1ab8 00008052 		mov	w0, 0
 1944 1abc 2100140B 		add	w1, w1, w20
 1945 1ac0 220040B9 		ldr	w2, [x1]
 1946 1ac4 42781712 		and	w2, w2, -257
 1947 1ac8 220000B9 		str	w2, [x1]
 1948 1acc F51340F9 		ldr	x21, [sp, 32]
 1949 1ad0 1CFFFF17 		b	.L316
 1950              	.L337:
 1951 1ad4 00000090 		adrp	x0, RPi_IO_Base_Addr
 1952 1ad8 010040B9 		ldr	w1, [x0, #:lo12:RPi_IO_Base_Addr]
 1953 1adc 00008052 		mov	w0, 0
 1954 1ae0 21006611 		add	w1, w1, 9961472
 1955 1ae4 21001111 		add	w1, w1, 1088
 1956 1ae8 220040B9 		ldr	w2, [x1]
 1957 1aec 42001B32 		orr	w2, w2, 32
 1958 1af0 220000B9 		str	w2, [x1]
 1959 1af4 13FFFF17 		b	.L316
 1960              	.L336:
 1961 1af8 00000090 		adrp	x0, RPi_IO_Base_Addr
 1962 1afc 010040B9 		ldr	w1, [x0, #:lo12:RPi_IO_Base_Addr]
 1963 1b00 00008052 		mov	w0, 0
 1964 1b04 21006611 		add	w1, w1, 9961472
 1965 1b08 21001111 		add	w1, w1, 1088
 1966 1b0c 220040B9 		ldr	w2, [x1]
 1967 1b10 42001D32 		orr	w2, w2, 8
 1968 1b14 220000B9 		str	w2, [x1]
 1969 1b18 0AFFFF17 		b	.L316
 1970              	.L332:
 1971 1b1c 00000090 		adrp	x0, .LC1
 1972 1b20 00000091 		add	x0, x0, :lo12:.LC1
 1973 1b24 00000094 		bl	printf
 1974 1b28 00000090 		adrp	x0, RPi_IO_Base_Addr
 1975 1b2c 010040B9 		ldr	w1, [x0, #:lo12:RPi_IO_Base_Addr]
 1976 1b30 00008052 		mov	w0, 0
 1977 1b34 21006611 		add	w1, w1, 9961472
 1978 1b38 21001111 		add	w1, w1, 1088
 1979 1b3c 220040B9 		ldr	w2, [x1]
 1980 1b40 42781312 		and	w2, w2, -4097
 1981 1b44 220000B9 		str	w2, [x1]
 1982 1b48 FEFEFF17 		b	.L316
 1983              	.L334:
 1984 1b4c 00000090 		adrp	x0, RPi_IO_Base_Addr
 1985 1b50 010040B9 		ldr	w1, [x0, #:lo12:RPi_IO_Base_Addr]
 1986 1b54 00008052 		mov	w0, 0
 1987 1b58 21006611 		add	w1, w1, 9961472
 1988 1b5c 21001111 		add	w1, w1, 1088
 1989 1b60 220040B9 		ldr	w2, [x1]
AARCH64 GAS  C:\Users\ldebo\AppData\Local\Temp\ccfW7LPV.s 			page 36


 1990 1b64 42001E32 		orr	w2, w2, 4
 1991 1b68 220000B9 		str	w2, [x1]
 1992 1b6c F5FEFF17 		b	.L316
 1993              		.size	HCDSumbitControlMessage.constprop.13, .-HCDSumbitControlMessage.constprop.13
 1994              		.align	2
 1995              		.p2align 4,,15
 1996              		.type	HCDSumbitControlMessage.constprop.14, %function
 1997              	HCDSumbitControlMessage.constprop.14:
 1998 1b70 FF8311D1 		sub	sp, sp, #1120
 1999 1b74 E04B00B9 		str	w0, [sp, 72]
 2000 1b78 00000090 		adrp	x0, .LANCHOR1
 2001 1b7c 00004039 		ldrb	w0, [x0, #:lo12:.LANCHOR1]
 2002 1b80 F35301A9 		stp	x19, x20, [sp, 16]
 2003 1b84 F30302AA 		mov	x19, x2
 2004 1b88 F55B02A9 		stp	x21, x22, [sp, 32]
 2005 1b8c F50303AA 		mov	x21, x3
 2006 1b90 F4274139 		ldrb	w20, [sp, 73]
 2007 1b94 F60304AA 		mov	x22, x4
 2008 1b98 FE1F00F9 		str	x30, [sp, 56]
 2009 1b9c E14300B9 		str	w1, [sp, 64]
 2010 1ba0 1F00146B 		cmp	w0, w20
 2011 1ba4 A00A0054 		beq	.L407
 2012 1ba8 E15B00B9 		str	w1, [sp, 88]
 2013 1bac 64008052 		mov	w4, 3
 2014 1bb0 E5074139 		ldrb	w5, [sp, 65]
 2015 1bb4 03018052 		mov	w3, 8
 2016 1bb8 E1674139 		ldrb	w1, [sp, 89]
 2017 1bbc E20315AA 		mov	x2, x21
 2018 1bc0 E02740F9 		ldr	x0, [sp, 72]
 2019 1bc4 21701D12 		and	w1, w1, -8
 2020 1bc8 E1670139 		strb	w1, [sp, 89]
 2021 1bcc F71B00F9 		str	x23, [sp, 48]
 2022 1bd0 B70842D3 		ubfx	x23, x5, 2, 1
 2023 1bd4 E12F40F9 		ldr	x1, [sp, 88]
 2024 1bd8 00000094 		bl	HCDChannelTransfer
 2025 1bdc 60060035 		cbnz	w0, .L408
 2026 1be0 F5830191 		add	x21, sp, 96
 2027 1be4 B30D00B4 		cbz	x19, .L385
 2028 1be8 E0074139 		ldrb	w0, [sp, 65]
 2029 1bec E1674139 		ldrb	w1, [sp, 89]
 2030 1bf0 80091037 		tbnz	x0, 2, .L386
 2031 1bf4 E1021E33 		bfi	w1, w23, 2, 1
 2032 1bf8 E1670139 		strb	w1, [sp, 89]
 2033 1bfc 65024039 		ldrb	w5, [x19]
 2034 1c00 F5830191 		add	x21, sp, 96
 2035 1c04 E02740F9 		ldr	x0, [sp, 72]
 2036 1c08 E12F40F9 		ldr	x1, [sp, 88]
 2037 1c0c 64064039 		ldrb	w4, [x19, 1]
 2038 1c10 630A4039 		ldrb	w3, [x19, 2]
 2039 1c14 620E4039 		ldrb	w2, [x19, 3]
 2040 1c18 E5830139 		strb	w5, [sp, 96]
 2041 1c1c E4870139 		strb	w4, [sp, 97]
 2042 1c20 44008052 		mov	w4, 2
 2043 1c24 E38B0139 		strb	w3, [sp, 98]
 2044 1c28 83008052 		mov	w3, 4
 2045 1c2c E28F0139 		strb	w2, [sp, 99]
 2046 1c30 F703032A 		mov	w23, w3
AARCH64 GAS  C:\Users\ldebo\AppData\Local\Temp\ccfW7LPV.s 			page 37


 2047 1c34 E20315AA 		mov	x2, x21
 2048 1c38 00000094 		bl	HCDChannelTransfer
 2049 1c3c A00C0035 		cbnz	w0, .L390
 2050              	.L387:
 2051 1c40 E1074139 		ldrb	w1, [sp, 65]
 2052 1c44 44008052 		mov	w4, 2
 2053 1c48 E5674139 		ldrb	w5, [sp, 89]
 2054 1c4c 03008052 		mov	w3, 0
 2055 1c50 21007ED2 		eor	x1, x1, 4
 2056 1c54 E02740F9 		ldr	x0, [sp, 72]
 2057 1c58 E20315AA 		mov	x2, x21
 2058 1c5c 210842D3 		ubfx	x1, x1, 2, 1
 2059 1c60 25001E33 		bfi	w5, w1, 2, 1
 2060 1c64 E5670139 		strb	w5, [sp, 89]
 2061 1c68 E12F40F9 		ldr	x1, [sp, 88]
 2062 1c6c 00000094 		bl	HCDChannelTransfer
 2063 1c70 80090035 		cbnz	w0, .L409
 2064 1c74 01000090 		adrp	x1, RPi_IO_Base_Addr
 2065 1c78 210040B9 		ldr	w1, [x1, #:lo12:RPi_IO_Base_Addr]
 2066 1c7c 21006611 		add	w1, w1, 9961472
 2067 1c80 21001411 		add	w1, w1, 1280
 2068 1c84 211040B9 		ldr	w1, [x1, 16]
 2069 1c88 D60B00B4 		cbz	x22, .L406
 2070 1c8c D70200B9 		str	w23, [x22]
 2071 1c90 F71B40F9 		ldr	x23, [sp, 48]
 2072 1c94 F35341A9 		ldp	x19, x20, [sp, 16]
 2073 1c98 F55B42A9 		ldp	x21, x22, [sp, 32]
 2074 1c9c FE1F40F9 		ldr	x30, [sp, 56]
 2075 1ca0 FF831191 		add	sp, sp, 1120
 2076 1ca4 C0035FD6 		ret
 2077              		.p2align 3
 2078              	.L408:
 2079 1ca8 A3024039 		ldrb	w3, [x21]
 2080 1cac E103142A 		mov	w1, w20
 2081 1cb0 A2064039 		ldrb	w2, [x21, 1]
 2082 1cb4 E72F4139 		ldrb	w7, [sp, 75]
 2083 1cb8 E62B4139 		ldrb	w6, [sp, 74]
 2084 1cbc E4234139 		ldrb	w4, [sp, 72]
 2085 1cc0 E00300B9 		str	w0, [sp]
 2086 1cc4 00000090 		adrp	x0, .LC10
 2087 1cc8 00000091 		add	x0, x0, :lo12:.LC10
 2088 1ccc 85040012 		and	w5, w4, 3
 2089 1cd0 840C42D3 		ubfx	x4, x4, 2, 2
 2090 1cd4 00000094 		bl	printf
 2091 1cd8 F71B40F9 		ldr	x23, [sp, 48]
 2092 1cdc 00008052 		mov	w0, 0
 2093              	.L381:
 2094 1ce0 F35341A9 		ldp	x19, x20, [sp, 16]
 2095 1ce4 F55B42A9 		ldp	x21, x22, [sp, 32]
 2096 1ce8 FE1F40F9 		ldr	x30, [sp, 56]
 2097 1cec FF831191 		add	sp, sp, 1120
 2098 1cf0 C0035FD6 		ret
 2099 1cf4 1F2003D5 		.p2align 3
 2100              	.L407:
 2101 1cf8 E20315AA 		mov	x2, x21
 2102 1cfc E30304AA 		mov	x3, x4
 2103 1d00 81008052 		mov	w1, 4
AARCH64 GAS  C:\Users\ldebo\AppData\Local\Temp\ccfW7LPV.s 			page 38


 2104 1d04 E00313AA 		mov	x0, x19
 2105 1d08 00000094 		bl	HcdProcessRootHubMessage
 2106 1d0c F35341A9 		ldp	x19, x20, [sp, 16]
 2107 1d10 F55B42A9 		ldp	x21, x22, [sp, 32]
 2108 1d14 FE1F40F9 		ldr	x30, [sp, 56]
 2109 1d18 FF831191 		add	sp, sp, 1120
 2110 1d1c C0035FD6 		ret
 2111              		.p2align 3
 2112              	.L386:
 2113 1d20 E1021E33 		bfi	w1, w23, 2, 1
 2114 1d24 E1670139 		strb	w1, [sp, 89]
 2115 1d28 E02740F9 		ldr	x0, [sp, 72]
 2116 1d2c F5830191 		add	x21, sp, 96
 2117 1d30 E12F40F9 		ldr	x1, [sp, 88]
 2118 1d34 44008052 		mov	w4, 2
 2119 1d38 83008052 		mov	w3, 4
 2120 1d3c E20315AA 		mov	x2, x21
 2121 1d40 00000094 		bl	HCDChannelTransfer
 2122 1d44 60040035 		cbnz	w0, .L390
 2123 1d48 00000090 		adrp	x0, RPi_IO_Base_Addr
 2124 1d4c 000040B9 		ldr	w0, [x0, #:lo12:RPi_IO_Base_Addr]
 2125 1d50 97008052 		mov	w23, 4
 2126 1d54 00006611 		add	w0, w0, 9961472
 2127 1d58 00001411 		add	w0, w0, 1280
 2128 1d5c 021040B9 		ldr	w2, [x0, 16]
 2129 1d60 404840D3 		ubfx	x0, x2, 0, 19
 2130 1d64 F702006B 		subs	w23, w23, w0
 2131 1d68 80010054 		beq	.L385
 2132 1d6c 62008052 		mov	w2, 3
 2133 1d70 4200004B 		sub	w2, w2, w0
 2134 1d74 42040091 		add	x2, x2, 1
 2135 1d78 000080D2 		mov	x0, 0
 2136 1d7c 1F2003D5 		.p2align 3
 2137              	.L388:
 2138 1d80 A16A6038 		ldrb	w1, [x21, x0]
 2139 1d84 616A2038 		strb	w1, [x19, x0]
 2140 1d88 00040091 		add	x0, x0, 1
 2141 1d8c 5F0000EB 		cmp	x2, x0
 2142 1d90 81FFFF54 		bne	.L388
 2143 1d94 ABFFFF17 		b	.L387
 2144              		.p2align 3
 2145              	.L385:
 2146 1d98 17008052 		mov	w23, 0
 2147 1d9c A9FFFF17 		b	.L387
 2148              		.p2align 3
 2149              	.L409:
 2150 1da0 E103142A 		mov	w1, w20
 2151 1da4 00000090 		adrp	x0, .LC11
 2152 1da8 00000091 		add	x0, x0, :lo12:.LC11
 2153 1dac 00000094 		bl	printf
 2154 1db0 F35341A9 		ldp	x19, x20, [sp, 16]
 2155 1db4 00008052 		mov	w0, 0
 2156 1db8 F55B42A9 		ldp	x21, x22, [sp, 32]
 2157 1dbc F71B40F9 		ldr	x23, [sp, 48]
 2158 1dc0 FE1F40F9 		ldr	x30, [sp, 56]
 2159 1dc4 FF831191 		add	sp, sp, 1120
 2160 1dc8 C0035FD6 		ret
AARCH64 GAS  C:\Users\ldebo\AppData\Local\Temp\ccfW7LPV.s 			page 39


 2161 1dcc 1F2003D5 		.p2align 3
 2162              	.L390:
 2163 1dd0 E103142A 		mov	w1, w20
 2164 1dd4 00000090 		adrp	x0, .LC12
 2165 1dd8 00000091 		add	x0, x0, :lo12:.LC12
 2166 1ddc 00000094 		bl	printf
 2167 1de0 F35341A9 		ldp	x19, x20, [sp, 16]
 2168 1de4 00008052 		mov	w0, 0
 2169 1de8 F55B42A9 		ldp	x21, x22, [sp, 32]
 2170 1dec F71B40F9 		ldr	x23, [sp, 48]
 2171 1df0 FE1F40F9 		ldr	x30, [sp, 56]
 2172 1df4 FF831191 		add	sp, sp, 1120
 2173 1df8 C0035FD6 		ret
 2174 1dfc 1F2003D5 		.p2align 3
 2175              	.L406:
 2176 1e00 F71B40F9 		ldr	x23, [sp, 48]
 2177 1e04 B7FFFF17 		b	.L381
 2178              		.size	HCDSumbitControlMessage.constprop.14, .-HCDSumbitControlMessage.constprop.14
 2179              		.align	2
 2180 1e08 1F2003D5 		.p2align 4,,15
 2180      1F2003D5 
 2181              		.global	HCDSumbitControlMessage
 2182              		.type	HCDSumbitControlMessage, %function
 2183              	HCDSumbitControlMessage:
 2184 1e10 FFC311D1 		sub	sp, sp, #1136
 2185 1e14 E05B00B9 		str	w0, [sp, 88]
 2186 1e18 00000090 		adrp	x0, .LANCHOR1
 2187 1e1c 00004039 		ldrb	w0, [x0, #:lo12:.LANCHOR1]
 2188 1e20 F35301A9 		stp	x19, x20, [sp, 16]
 2189 1e24 F30302AA 		mov	x19, x2
 2190 1e28 F55B02A9 		stp	x21, x22, [sp, 32]
 2191 1e2c F40304AA 		mov	x20, x4
 2192 1e30 F71B00F9 		str	x23, [sp, 48]
 2193 1e34 F503032A 		mov	w21, w3
 2194 1e38 F6674139 		ldrb	w22, [sp, 89]
 2195 1e3c F70306AA 		mov	x23, x6
 2196 1e40 FE2700F9 		str	x30, [sp, 72]
 2197 1e44 E15300B9 		str	w1, [sp, 80]
 2198 1e48 1F00166B 		cmp	w0, w22
 2199 1e4c 20090054 		beq	.L443
 2200 1e50 E16B00B9 		str	w1, [sp, 104]
 2201 1e54 64008052 		mov	w4, 3
 2202 1e58 E02F40F9 		ldr	x0, [sp, 88]
 2203 1e5c 03018052 		mov	w3, 8
 2204 1e60 E1A74139 		ldrb	w1, [sp, 105]
 2205 1e64 E20314AA 		mov	x2, x20
 2206 1e68 F81F00F9 		str	x24, [sp, 56]
 2207 1e6c 21701D12 		and	w1, w1, -8
 2208 1e70 E1A70139 		strb	w1, [sp, 105]
 2209 1e74 F8474139 		ldrb	w24, [sp, 81]
 2210 1e78 E13740F9 		ldr	x1, [sp, 104]
 2211 1e7c 180B42D3 		ubfx	x24, x24, 2, 1
 2212 1e80 00000094 		bl	HCDChannelTransfer
 2213 1e84 E0040035 		cbnz	w0, .L444
 2214 1e88 F92300F9 		str	x25, [sp, 64]
 2215 1e8c F4C30191 		add	x20, sp, 112
 2216 1e90 930E00B4 		cbz	x19, .L414
AARCH64 GAS  C:\Users\ldebo\AppData\Local\Temp\ccfW7LPV.s 			page 40


 2217 1e94 E0474139 		ldrb	w0, [sp, 81]
 2218 1e98 19001E12 		and	w25, w0, 4
 2219 1e9c 20081036 		tbz	x0, 2, .L445
 2220 1ea0 E1A74139 		ldrb	w1, [sp, 105]
 2221 1ea4 F4C30191 		add	x20, sp, 112
 2222 1ea8 E02F40F9 		ldr	x0, [sp, 88]
 2223 1eac 44008052 		mov	w4, 2
 2224 1eb0 E303152A 		mov	w3, w21
 2225 1eb4 E20314AA 		mov	x2, x20
 2226 1eb8 01031E33 		bfi	w1, w24, 2, 1
 2227 1ebc E1A70139 		strb	w1, [sp, 105]
 2228 1ec0 E13740F9 		ldr	x1, [sp, 104]
 2229 1ec4 00000094 		bl	HCDChannelTransfer
 2230 1ec8 800E0035 		cbnz	w0, .L423
 2231 1ecc 00000090 		adrp	x0, RPi_IO_Base_Addr
 2232 1ed0 000040B9 		ldr	w0, [x0, #:lo12:RPi_IO_Base_Addr]
 2233 1ed4 00006611 		add	w0, w0, 9961472
 2234 1ed8 00001411 		add	w0, w0, 1280
 2235 1edc 181040B9 		ldr	w24, [x0, 16]
 2236 1ee0 184B40D3 		ubfx	x24, x24, 0, 19
 2237 1ee4 B802186B 		subs	w24, w21, w24
 2238 1ee8 C00B0054 		beq	.L414
 2239 1eec 02070051 		sub	w2, w24, #1
 2240 1ef0 000080D2 		mov	x0, 0
 2241 1ef4 42040091 		add	x2, x2, 1
 2242              		.p2align 3
 2243              	.L419:
 2244 1ef8 816A6038 		ldrb	w1, [x20, x0]
 2245 1efc 616A2038 		strb	w1, [x19, x0]
 2246 1f00 00040091 		add	x0, x0, 1
 2247 1f04 5F0000EB 		cmp	x2, x0
 2248 1f08 81FFFF54 		bne	.L419
 2249              	.L420:
 2250 1f0c 25008052 		mov	w5, 1
 2251 1f10 95070034 		cbz	w21, .L421
 2252 1f14 F9474139 		ldrb	w25, [sp, 81]
 2253 1f18 39031E12 		and	w25, w25, 4
 2254 1f1c 37000014 		b	.L425
 2255              		.p2align 3
 2256              	.L444:
 2257 1f20 83024039 		ldrb	w3, [x20]
 2258 1f24 E103162A 		mov	w1, w22
 2259 1f28 82064039 		ldrb	w2, [x20, 1]
 2260 1f2c E76F4139 		ldrb	w7, [sp, 91]
 2261 1f30 E66B4139 		ldrb	w6, [sp, 90]
 2262 1f34 E4634139 		ldrb	w4, [sp, 88]
 2263 1f38 E00300B9 		str	w0, [sp]
 2264 1f3c 00000090 		adrp	x0, .LC10
 2265 1f40 00000091 		add	x0, x0, :lo12:.LC10
 2266 1f44 85040012 		and	w5, w4, 3
 2267 1f48 840C42D3 		ubfx	x4, x4, 2, 2
 2268 1f4c 00000094 		bl	printf
 2269 1f50 F81F40F9 		ldr	x24, [sp, 56]
 2270 1f54 00008052 		mov	w0, 0
 2271              	.L410:
 2272 1f58 F35341A9 		ldp	x19, x20, [sp, 16]
 2273 1f5c F55B42A9 		ldp	x21, x22, [sp, 32]
AARCH64 GAS  C:\Users\ldebo\AppData\Local\Temp\ccfW7LPV.s 			page 41


 2274 1f60 F71B40F9 		ldr	x23, [sp, 48]
 2275 1f64 FE2740F9 		ldr	x30, [sp, 72]
 2276 1f68 FFC31191 		add	sp, sp, 1136
 2277 1f6c C0035FD6 		ret
 2278              		.p2align 3
 2279              	.L443:
 2280 1f70 E103152A 		mov	w1, w21
 2281 1f74 E30306AA 		mov	x3, x6
 2282 1f78 E20304AA 		mov	x2, x4
 2283 1f7c E00313AA 		mov	x0, x19
 2284 1f80 00000094 		bl	HcdProcessRootHubMessage
 2285 1f84 F71B40F9 		ldr	x23, [sp, 48]
 2286 1f88 F35341A9 		ldp	x19, x20, [sp, 16]
 2287 1f8c F55B42A9 		ldp	x21, x22, [sp, 32]
 2288 1f90 FE2740F9 		ldr	x30, [sp, 72]
 2289 1f94 FFC31191 		add	sp, sp, 1136
 2290 1f98 C0035FD6 		ret
 2291 1f9c 1F2003D5 		.p2align 3
 2292              	.L445:
 2293 1fa0 95090034 		cbz	w21, .L416
 2294 1fa4 A2060051 		sub	w2, w21, #1
 2295 1fa8 F4C30191 		add	x20, sp, 112
 2296 1fac 42040091 		add	x2, x2, 1
 2297 1fb0 000080D2 		mov	x0, 0
 2298 1fb4 1F2003D5 		.p2align 3
 2299              	.L417:
 2300 1fb8 616A6038 		ldrb	w1, [x19, x0]
 2301 1fbc 816A2038 		strb	w1, [x20, x0]
 2302 1fc0 00040091 		add	x0, x0, 1
 2303 1fc4 1F0002EB 		cmp	x0, x2
 2304 1fc8 81FFFF54 		bne	.L417
 2305 1fcc E1A74139 		ldrb	w1, [sp, 105]
 2306 1fd0 44008052 		mov	w4, 2
 2307 1fd4 E02F40F9 		ldr	x0, [sp, 88]
 2308 1fd8 E303152A 		mov	w3, w21
 2309 1fdc E20314AA 		mov	x2, x20
 2310 1fe0 01031E33 		bfi	w1, w24, 2, 1
 2311 1fe4 E1A70139 		strb	w1, [sp, 105]
 2312 1fe8 F803152A 		mov	w24, w21
 2313 1fec E13740F9 		ldr	x1, [sp, 104]
 2314 1ff0 00000094 		bl	HCDChannelTransfer
 2315 1ff4 20050035 		cbnz	w0, .L423
 2316              	.L425:
 2317 1ff8 3F030071 		cmp	w25, 0
 2318 1ffc E5179F1A 		cset	w5, eq
 2319              	.L421:
 2320 2000 E1A74139 		ldrb	w1, [sp, 105]
 2321 2004 44008052 		mov	w4, 2
 2322 2008 E02F40F9 		ldr	x0, [sp, 88]
 2323 200c 03008052 		mov	w3, 0
 2324 2010 E20314AA 		mov	x2, x20
 2325 2014 A1001E33 		bfi	w1, w5, 2, 1
 2326 2018 E1A70139 		strb	w1, [sp, 105]
 2327 201c E13740F9 		ldr	x1, [sp, 104]
 2328 2020 00000094 		bl	HCDChannelTransfer
 2329 2024 20020035 		cbnz	w0, .L446
 2330 2028 01000090 		adrp	x1, RPi_IO_Base_Addr
AARCH64 GAS  C:\Users\ldebo\AppData\Local\Temp\ccfW7LPV.s 			page 42


 2331 202c 210040B9 		ldr	w1, [x1, #:lo12:RPi_IO_Base_Addr]
 2332 2030 21006611 		add	w1, w1, 9961472
 2333 2034 21001411 		add	w1, w1, 1280
 2334 2038 211040B9 		ldr	w1, [x1, 16]
 2335 203c 770400B4 		cbz	x23, .L442
 2336 2040 F80200B9 		str	w24, [x23]
 2337 2044 F8E743A9 		ldp	x24, x25, [sp, 56]
 2338 2048 F35341A9 		ldp	x19, x20, [sp, 16]
 2339 204c F55B42A9 		ldp	x21, x22, [sp, 32]
 2340 2050 F71B40F9 		ldr	x23, [sp, 48]
 2341 2054 FE2740F9 		ldr	x30, [sp, 72]
 2342 2058 FFC31191 		add	sp, sp, 1136
 2343 205c C0035FD6 		ret
 2344              		.p2align 3
 2345              	.L414:
 2346 2060 18008052 		mov	w24, 0
 2347 2064 AAFFFF17 		b	.L420
 2348              		.p2align 3
 2349              	.L446:
 2350 2068 E103162A 		mov	w1, w22
 2351 206c 00000090 		adrp	x0, .LC11
 2352 2070 00000091 		add	x0, x0, :lo12:.LC11
 2353 2074 00000094 		bl	printf
 2354 2078 F35341A9 		ldp	x19, x20, [sp, 16]
 2355 207c 00008052 		mov	w0, 0
 2356 2080 F55B42A9 		ldp	x21, x22, [sp, 32]
 2357 2084 F71B40F9 		ldr	x23, [sp, 48]
 2358 2088 F8E743A9 		ldp	x24, x25, [sp, 56]
 2359 208c FE2740F9 		ldr	x30, [sp, 72]
 2360 2090 FFC31191 		add	sp, sp, 1136
 2361 2094 C0035FD6 		ret
 2362              		.p2align 3
 2363              	.L423:
 2364 2098 E103162A 		mov	w1, w22
 2365 209c 00000090 		adrp	x0, .LC12
 2366 20a0 00000091 		add	x0, x0, :lo12:.LC12
 2367 20a4 00000094 		bl	printf
 2368 20a8 F35341A9 		ldp	x19, x20, [sp, 16]
 2369 20ac 00008052 		mov	w0, 0
 2370 20b0 F55B42A9 		ldp	x21, x22, [sp, 32]
 2371 20b4 F71B40F9 		ldr	x23, [sp, 48]
 2372 20b8 F8E743A9 		ldp	x24, x25, [sp, 56]
 2373 20bc FE2740F9 		ldr	x30, [sp, 72]
 2374 20c0 FFC31191 		add	sp, sp, 1136
 2375 20c4 C0035FD6 		ret
 2376              		.p2align 3
 2377              	.L442:
 2378 20c8 F8E743A9 		ldp	x24, x25, [sp, 56]
 2379 20cc A3FFFF17 		b	.L410
 2380              		.p2align 3
 2381              	.L416:
 2382 20d0 E1A74139 		ldrb	w1, [sp, 105]
 2383 20d4 F4C30191 		add	x20, sp, 112
 2384 20d8 E02F40F9 		ldr	x0, [sp, 88]
 2385 20dc 44008052 		mov	w4, 2
 2386 20e0 03008052 		mov	w3, 0
 2387 20e4 E20314AA 		mov	x2, x20
AARCH64 GAS  C:\Users\ldebo\AppData\Local\Temp\ccfW7LPV.s 			page 43


 2388 20e8 01031E33 		bfi	w1, w24, 2, 1
 2389 20ec E1A70139 		strb	w1, [sp, 105]
 2390 20f0 E13740F9 		ldr	x1, [sp, 104]
 2391 20f4 00000094 		bl	HCDChannelTransfer
 2392 20f8 00FDFF35 		cbnz	w0, .L423
 2393 20fc 18008052 		mov	w24, 0
 2394 2100 25008052 		mov	w5, 1
 2395 2104 BFFFFF17 		b	.L421
 2396              		.size	HCDSumbitControlMessage, .-HCDSumbitControlMessage
 2397              		.align	2
 2398 2108 1F2003D5 		.p2align 4,,15
 2398      1F2003D5 
 2399              		.global	HCDSetAddress
 2400              		.type	HCDSetAddress, %function
 2401              	HCDSetAddress:
 2402 2110 FE0F1DF8 		str	x30, [sp, -48]!
 2403 2114 221C0072 		ands	w2, w1, 255
 2404 2118 E01B00B9 		str	w0, [sp, 24]
 2405 211c A0010054 		beq	.L449
 2406 2120 FF2300B9 		str	wzr, [sp, 32]
 2407 2124 A3008052 		mov	w3, 5
 2408 2128 E00F40F9 		ldr	x0, [sp, 24]
 2409 212c E11340F9 		ldr	x1, [sp, 32]
 2410 2130 FF1700F9 		str	xzr, [sp, 40]
 2411 2134 E3A70039 		strb	w3, [sp, 41]
 2412 2138 E2570079 		strh	w2, [sp, 42]
 2413 213c E2A30091 		add	x2, sp, 40
 2414 2140 5CFDFF97 		bl	HCDSumbitControlMessage.constprop.13
 2415              	.L447:
 2416 2144 FE0743F8 		ldr	x30, [sp], 48
 2417 2148 C0035FD6 		ret
 2418 214c 1F2003D5 		.p2align 3
 2419              	.L449:
 2420 2150 20008012 		mov	w0, -2
 2421 2154 FCFFFF17 		b	.L447
 2422              		.size	HCDSetAddress, .-HCDSetAddress
 2423              		.align	2
 2424 2158 1F2003D5 		.p2align 4,,15
 2424      1F2003D5 
 2425              		.global	HCDSetConfiguration
 2426              		.type	HCDSetConfiguration, %function
 2427              	HCDSetConfiguration:
 2428 2160 F37BBDA9 		stp	x19, x30, [sp, -48]!
 2429 2164 231C0012 		and	w3, w1, 255
 2430 2168 22018052 		mov	w2, 9
 2431 216c E01B00B9 		str	w0, [sp, 24]
 2432 2170 FF2300B9 		str	wzr, [sp, 32]
 2433 2174 FF1700F9 		str	xzr, [sp, 40]
 2434 2178 E08741A9 		ldp	x0, x1, [sp, 24]
 2435 217c E2A70039 		strb	w2, [sp, 41]
 2436 2180 E3570079 		strh	w3, [sp, 42]
 2437 2184 E2A30091 		add	x2, sp, 40
 2438 2188 4AFDFF97 		bl	HCDSumbitControlMessage.constprop.13
 2439 218c F303002A 		mov	w19, w0
 2440 2190 C0000034 		cbz	w0, .L451
 2441 2194 E1674039 		ldrb	w1, [sp, 25]
 2442 2198 00000090 		adrp	x0, .LC13
AARCH64 GAS  C:\Users\ldebo\AppData\Local\Temp\ccfW7LPV.s 			page 44


 2443 219c E203132A 		mov	w2, w19
 2444 21a0 00000091 		add	x0, x0, :lo12:.LC13
 2445 21a4 00000094 		bl	printf
 2446              	.L451:
 2447 21a8 E003132A 		mov	w0, w19
 2448 21ac F37BC3A8 		ldp	x19, x30, [sp], 48
 2449 21b0 C0035FD6 		ret
 2450              		.size	HCDSetConfiguration, .-HCDSetConfiguration
 2451              		.align	2
 2452 21b4 1F2003D5 		.p2align 4,,15
 2452      1F2003D5 
 2452      1F2003D5 
 2453              		.global	HCDReadHubPortStatus
 2454              		.type	HCDReadHubPortStatus, %function
 2455              	HCDReadHubPortStatus:
 2456 21c0 F353BAA9 		stp	x19, x20, [sp, -96]!
 2457 21c4 F6FB01A9 		stp	x22, x30, [sp, 24]
 2458 21c8 E03B00B9 		str	w0, [sp, 56]
 2459 21cc FF7F0A29 		stp	wzr, wzr, [sp, 80]
 2460 21d0 F6E74039 		ldrb	w22, [sp, 57]
 2461 21d4 220600B4 		cbz	x2, .L462
 2462 21d8 FF4B00B9 		str	wzr, [sp, 72]
 2463 21dc 80008052 		mov	w0, 4
 2464 21e0 E0270139 		strb	w0, [sp, 73]
 2465 21e4 341C0012 		and	w20, w1, 255
 2466 21e8 E01F40F9 		ldr	x0, [sp, 56]
 2467 21ec 9F020071 		cmp	w20, 0
 2468 21f0 E12740F9 		ldr	x1, [sp, 72]
 2469 21f4 63148052 		mov	w3, 163
 2470 21f8 F50B00F9 		str	x21, [sp, 16]
 2471 21fc F50302AA 		mov	x21, x2
 2472 2200 02148052 		mov	w2, 160
 2473 2204 FF5B00B9 		str	wzr, [sp, 88]
 2474 2208 6310821A 		csel	w3, w3, w2, ne
 2475 220c 82008052 		mov	w2, 4
 2476 2210 E3630139 		strb	w3, [sp, 88]
 2477 2214 E4430191 		add	x4, sp, 80
 2478 2218 F4BB0079 		strh	w20, [sp, 92]
 2479 221c E3630191 		add	x3, sp, 88
 2480 2220 E2BF0079 		strh	w2, [sp, 94]
 2481 2224 E2530191 		add	x2, sp, 84
 2482 2228 52FEFF97 		bl	HCDSumbitControlMessage.constprop.14
 2483 222c F303002A 		mov	w19, w0
 2484 2230 80010035 		cbnz	w0, .L465
 2485 2234 E05340B9 		ldr	w0, [sp, 80]
 2486 2238 1F0C0071 		cmp	w0, 3
 2487 223c 29030054 		bls	.L466
 2488 2240 E05740B9 		ldr	w0, [sp, 84]
 2489 2244 A00200B9 		str	w0, [x21]
 2490 2248 F50B40F9 		ldr	x21, [sp, 16]
 2491              	.L457:
 2492 224c E003132A 		mov	w0, w19
 2493 2250 F6FB41A9 		ldp	x22, x30, [sp, 24]
 2494 2254 F353C6A8 		ldp	x19, x20, [sp], 96
 2495 2258 C0035FD6 		ret
 2496 225c 1F2003D5 		.p2align 3
 2497              	.L465:
AARCH64 GAS  C:\Users\ldebo\AppData\Local\Temp\ccfW7LPV.s 			page 45


 2498 2260 E4E34039 		ldrb	w4, [sp, 56]
 2499 2264 E303132A 		mov	w3, w19
 2500 2268 E203142A 		mov	w2, w20
 2501 226c E103162A 		mov	w1, w22
 2502 2270 85040012 		and	w5, w4, 3
 2503 2274 00000090 		adrp	x0, .LC14
 2504 2278 840C42D3 		ubfx	x4, x4, 2, 2
 2505 227c 00000091 		add	x0, x0, :lo12:.LC14
 2506 2280 00000094 		bl	printf
 2507 2284 F50B40F9 		ldr	x21, [sp, 16]
 2508 2288 E003132A 		mov	w0, w19
 2509 228c F6FB41A9 		ldp	x22, x30, [sp, 24]
 2510 2290 F353C6A8 		ldp	x19, x20, [sp], 96
 2511 2294 C0035FD6 		ret
 2512              	.L462:
 2513 2298 33008012 		mov	w19, -2
 2514 229c ECFFFF17 		b	.L457
 2515              	.L466:
 2516 22a0 00000090 		adrp	x0, .LC15
 2517 22a4 E203142A 		mov	w2, w20
 2518 22a8 E103162A 		mov	w1, w22
 2519 22ac 00000091 		add	x0, x0, :lo12:.LC15
 2520 22b0 73008012 		mov	w19, -4
 2521 22b4 00000094 		bl	printf
 2522 22b8 F50B40F9 		ldr	x21, [sp, 16]
 2523 22bc E4FFFF17 		b	.L457
 2524              		.size	HCDReadHubPortStatus, .-HCDReadHubPortStatus
 2525              		.align	2
 2526              		.p2align 4,,15
 2527              		.global	HCDChangeHubPortFeature
 2528              		.type	HCDChangeHubPortFeature, %function
 2529              	HCDChangeHubPortFeature:
 2530 22c0 F353BBA9 		stp	x19, x20, [sp, -80]!
 2531 22c4 541C0072 		ands	w20, w2, 255
 2532 22c8 04048052 		mov	w4, 32
 2533 22cc 62048052 		mov	w2, 35
 2534 22d0 E03B00B9 		str	w0, [sp, 56]
 2535 22d4 4210841A 		csel	w2, w2, w4, ne
 2536 22d8 FF4300B9 		str	wzr, [sp, 64]
 2537 22dc F55B01A9 		stp	x21, x22, [sp, 16]
 2538 22e0 761C0072 		ands	w22, w3, 255
 2539 22e4 E1970079 		strh	w1, [sp, 74]
 2540 22e8 F503012A 		mov	w21, w1
 2541 22ec E08743A9 		ldp	x0, x1, [sp, 56]
 2542 22f0 63008052 		mov	w3, 3
 2543 22f4 63149F1A 		csinc	w3, w3, wzr, ne
 2544 22f8 FE1300F9 		str	x30, [sp, 32]
 2545 22fc E2230139 		strb	w2, [sp, 72]
 2546 2300 E2230191 		add	x2, sp, 72
 2547 2304 E3270139 		strb	w3, [sp, 73]
 2548 2308 F49B0079 		strh	w20, [sp, 76]
 2549 230c FF9F0079 		strh	wzr, [sp, 78]
 2550 2310 E8FCFF97 		bl	HCDSumbitControlMessage.constprop.13
 2551 2314 F303002A 		mov	w19, w0
 2552 2318 00010034 		cbz	w0, .L467
 2553 231c E1E74039 		ldrb	w1, [sp, 57]
 2554 2320 00000090 		adrp	x0, .LC16
AARCH64 GAS  C:\Users\ldebo\AppData\Local\Temp\ccfW7LPV.s 			page 46


 2555 2324 E403162A 		mov	w4, w22
 2556 2328 E303152A 		mov	w3, w21
 2557 232c E203142A 		mov	w2, w20
 2558 2330 00000091 		add	x0, x0, :lo12:.LC16
 2559 2334 00000094 		bl	printf
 2560              	.L467:
 2561 2338 E003132A 		mov	w0, w19
 2562 233c FE1340F9 		ldr	x30, [sp, 32]
 2563 2340 F55B41A9 		ldp	x21, x22, [sp, 16]
 2564 2344 F353C5A8 		ldp	x19, x20, [sp], 80
 2565 2348 C0035FD6 		ret
 2566              		.size	HCDChangeHubPortFeature, .-HCDChangeHubPortFeature
 2567              		.align	2
 2568 234c 1F2003D5 		.p2align 4,,15
 2569              		.global	HCDInitialise
 2570              		.type	HCDInitialise, %function
 2571              	HCDInitialise:
 2572 2350 F37BBFA9 		stp	x19, x30, [sp, -16]!
 2573 2354 13000090 		adrp	x19, RPi_IO_Base_Addr
 2574 2358 600240B9 		ldr	w0, [x19, #:lo12:RPi_IO_Base_Addr]
 2575 235c 02008452 		mov	w2, 8192
 2576 2360 82EAA972 		movk	w2, 0x4f54, lsl 16
 2577 2364 01006611 		add	w1, w0, 9961472
 2578 2368 00006611 		add	w0, w0, 9961472
 2579 236c 00F00011 		add	w0, w0, 60
 2580 2370 21000111 		add	w1, w1, 64
 2581 2374 210040B9 		ldr	w1, [x1]
 2582 2378 070040B9 		ldr	w7, [x0]
 2583 237c 204C1412 		and	w0, w1, -4096
 2584 2380 1F00026B 		cmp	w0, w2
 2585 2384 A1050054 		bne	.L484
 2586 2388 260C0012 		and	w6, w1, 15
 2587 238c 251C44D3 		ubfx	x5, x1, 4, 4
 2588 2390 242C48D3 		ubfx	x4, x1, 8, 4
 2589 2394 820A8052 		mov	w2, 84
 2590 2398 E1098052 		mov	w1, 79
 2591 239c 00000090 		adrp	x0, .LC18
 2592 23a0 E77C0C53 		lsr	w7, w7, 12
 2593 23a4 43008052 		mov	w3, 2
 2594 23a8 00000091 		add	x0, x0, :lo12:.LC18
 2595 23ac 00000094 		bl	printf
 2596 23b0 600240B9 		ldr	w0, [x19, #:lo12:RPi_IO_Base_Addr]
 2597 23b4 02006611 		add	w2, w0, 9961472
 2598 23b8 42100111 		add	w2, w2, 68
 2599 23bc 410440B9 		ldr	w1, [x2, 4]
 2600 23c0 211043D3 		ubfx	x1, x1, 3, 2
 2601 23c4 3F080071 		cmp	w1, 2
 2602 23c8 81060054 		bne	.L485
 2603 23cc 410440B9 		ldr	w1, [x2, 4]
 2604 23d0 3F047AF2 		tst	x1, 192
 2605 23d4 A0040054 		beq	.L486
 2606 23d8 07006611 		add	w7, w0, 9961472
 2607 23dc 00006611 		add	w0, w0, 9961472
 2608 23e0 E7200011 		add	w7, w7, 8
 2609 23e4 00600011 		add	w0, w0, 24
 2610 23e8 04018052 		mov	w4, 8
 2611 23ec 26008052 		mov	w6, 1
AARCH64 GAS  C:\Users\ldebo\AppData\Local\Temp\ccfW7LPV.s 			page 47


 2612 23f0 65008052 		mov	w5, 3
 2613 23f4 E303042A 		mov	w3, w4
 2614 23f8 E10040B9 		ldr	w1, [x7]
 2615 23fc 22009052 		mov	w2, 32769
 2616 2400 4200A072 		movk	w2, 0x2, lsl 16
 2617 2404 21781F12 		and	w1, w1, -2
 2618 2408 E10000B9 		str	w1, [x7]
 2619 240c 1F0000B9 		str	wzr, [x0]
 2620 2410 A1008052 		mov	w1, 5
 2621 2414 000080D2 		mov	x0, 0
 2622 2418 00000094 		bl	mailbox_tag_message
 2623 241c 1F1C0072 		tst	w0, 255
 2624 2420 01008052 		mov	w1, 0
 2625 2424 E0020054 		beq	.L487
 2626              	.L477:
 2627 2428 E003012A 		mov	w0, w1
 2628 242c F37BC1A8 		ldp	x19, x30, [sp], 16
 2629 2430 C0035FD6 		ret
 2630 2434 1F2003D5 		.p2align 3
 2631              	.L484:
 2632 2438 260C0012 		and	w6, w1, 15
 2633 243c 251C44D3 		ubfx	x5, x1, 4, 4
 2634 2440 242C48D3 		ubfx	x4, x1, 8, 4
 2635 2444 233C4CD3 		ubfx	x3, x1, 12, 4
 2636 2448 225C50D3 		ubfx	x2, x1, 16, 8
 2637 244c 00000090 		adrp	x0, .LC17
 2638 2450 217C1853 		lsr	w1, w1, 24
 2639 2454 E77C0C53 		lsr	w7, w7, 12
 2640 2458 00000091 		add	x0, x0, :lo12:.LC17
 2641 245c 00000094 		bl	printf
 2642 2460 81008012 		mov	w1, -5
 2643 2464 F1FFFF17 		b	.L477
 2644              		.p2align 3
 2645              	.L486:
 2646 2468 00000090 		adrp	x0, .LC20
 2647 246c 00000091 		add	x0, x0, :lo12:.LC20
 2648 2470 00000094 		bl	printf
 2649 2474 81008012 		mov	w1, -5
 2650 2478 ECFFFF17 		b	.L477
 2651 247c 1F2003D5 		.p2align 3
 2652              	.L487:
 2653 2480 00000090 		adrp	x0, .LC21
 2654 2484 00000091 		add	x0, x0, :lo12:.LC21
 2655 2488 00000094 		bl	printf
 2656 248c 81008012 		mov	w1, -5
 2657 2490 E6FFFF17 		b	.L477
 2658 2494 1F2003D5 		.p2align 3
 2659              	.L485:
 2660 2498 00000090 		adrp	x0, .LC19
 2661 249c 00000091 		add	x0, x0, :lo12:.LC19
 2662 24a0 00000094 		bl	printf
 2663 24a4 81008012 		mov	w1, -5
 2664 24a8 E0FFFF17 		b	.L477
 2665              		.size	HCDInitialise, .-HCDInitialise
 2666              		.align	2
 2667 24ac 1F2003D5 		.p2align 4,,15
 2668              		.global	AddHidPayload
AARCH64 GAS  C:\Users\ldebo\AppData\Local\Temp\ccfW7LPV.s 			page 48


 2669              		.type	AddHidPayload, %function
 2670              	AddHidPayload:
 2671 24b0 000900B4 		cbz	x0, .L492
 2672 24b4 03E843B9 		ldr	w3, [x0, 1000]
 2673 24b8 7F040071 		cmp	w3, 1
 2674 24bc A1080054 		bne	.L492
 2675 24c0 02000090 		adrp	x2, .LANCHOR1
 2676 24c4 41000091 		add	x1, x2, :lo12:.LANCHOR1
 2677 24c8 21200091 		add	x1, x1, 8
 2678 24cc 24A04039 		ldrb	w4, [x1, 40]
 2679 24d0 84060034 		cbz	w4, .L493
 2680 24d4 24444139 		ldrb	w4, [x1, 81]
 2681 24d8 44040034 		cbz	w4, .L490
 2682 24dc 23E84139 		ldrb	w3, [x1, 122]
 2683 24e0 43060034 		cbz	w3, .L495
 2684 24e4 238C4239 		ldrb	w3, [x1, 163]
 2685 24e8 43060034 		cbz	w3, .L496
 2686 24ec 23304339 		ldrb	w3, [x1, 204]
 2687 24f0 43060034 		cbz	w3, .L497
 2688 24f4 23D44339 		ldrb	w3, [x1, 245]
 2689 24f8 83060034 		cbz	w3, .L498
 2690 24fc 23784439 		ldrb	w3, [x1, 286]
 2691 2500 C3060034 		cbz	w3, .L499
 2692 2504 211C4539 		ldrb	w1, [x1, 327]
 2693 2508 C1060034 		cbz	w1, .L500
 2694 250c 41000091 		add	x1, x2, :lo12:.LANCHOR1
 2695 2510 21200091 		add	x1, x1, 8
 2696 2514 23C04539 		ldrb	w3, [x1, 368]
 2697 2518 43050034 		cbz	w3, .L501
 2698 251c 23644639 		ldrb	w3, [x1, 409]
 2699 2520 43060034 		cbz	w3, .L502
 2700 2524 23084739 		ldrb	w3, [x1, 450]
 2701 2528 43060034 		cbz	w3, .L503
 2702 252c 23AC4739 		ldrb	w3, [x1, 491]
 2703 2530 43060034 		cbz	w3, .L504
 2704 2534 23504839 		ldrb	w3, [x1, 532]
 2705 2538 43060034 		cbz	w3, .L505
 2706 253c 23F44839 		ldrb	w3, [x1, 573]
 2707 2540 43060034 		cbz	w3, .L506
 2708 2544 23984939 		ldrb	w3, [x1, 614]
 2709 2548 43060034 		cbz	w3, .L507
 2710 254c 213C4A39 		ldrb	w1, [x1, 655]
 2711 2550 C3008012 		mov	w3, -7
 2712 2554 21020035 		cbnz	w1, .L488
 2713 2558 E3018052 		mov	w3, 15
 2714 255c 1F2003D5 		.p2align 3
 2715              	.L490:
 2716 2560 42000091 		add	x2, x2, :lo12:.LANCHOR1
 2717 2564 617C4093 		sxtw	x1, w3
 2718 2568 42200091 		add	x2, x2, 8
 2719 256c 260580D2 		mov	x6, 41
 2720 2570 25058052 		mov	w5, 41
 2721 2574 67008052 		mov	w7, 3
 2722 2578 84008052 		mov	w4, 4
 2723 257c 07E803B9 		str	w7, [x0, 1000]
 2724 2580 1F2003D5 		nop // between mem op and mult-accumulate
 2725 2584 2108069B 		madd	x1, x1, x6, x2
AARCH64 GAS  C:\Users\ldebo\AppData\Local\Temp\ccfW7LPV.s 			page 49


 2726 2588 6308259B 		smaddl	x3, w3, w5, x2
 2727 258c 03F801F9 		str	x3, [x0, 1008]
 2728 2590 03008052 		mov	w3, 0
 2729 2594 24A00039 		strb	w4, [x1, 40]
 2730              	.L488:
 2731 2598 E003032A 		mov	w0, w3
 2732 259c C0035FD6 		ret
 2733              		.p2align 3
 2734              	.L493:
 2735 25a0 03008052 		mov	w3, 0
 2736 25a4 EFFFFF17 		b	.L490
 2737              		.p2align 3
 2738              	.L495:
 2739 25a8 43008052 		mov	w3, 2
 2740 25ac EDFFFF17 		b	.L490
 2741              		.p2align 3
 2742              	.L496:
 2743 25b0 63008052 		mov	w3, 3
 2744 25b4 EBFFFF17 		b	.L490
 2745              		.p2align 3
 2746              	.L497:
 2747 25b8 83008052 		mov	w3, 4
 2748 25bc E9FFFF17 		b	.L490
 2749              		.p2align 3
 2750              	.L501:
 2751 25c0 03018052 		mov	w3, 8
 2752 25c4 E7FFFF17 		b	.L490
 2753              		.p2align 3
 2754              	.L498:
 2755 25c8 A3008052 		mov	w3, 5
 2756 25cc E5FFFF17 		b	.L490
 2757              		.p2align 3
 2758              	.L492:
 2759 25d0 23008012 		mov	w3, -2
 2760 25d4 F1FFFF17 		b	.L488
 2761              		.p2align 3
 2762              	.L499:
 2763 25d8 C3008052 		mov	w3, 6
 2764 25dc E1FFFF17 		b	.L490
 2765              		.p2align 3
 2766              	.L500:
 2767 25e0 E3008052 		mov	w3, 7
 2768 25e4 DFFFFF17 		b	.L490
 2769              		.p2align 3
 2770              	.L502:
 2771 25e8 23018052 		mov	w3, 9
 2772 25ec DDFFFF17 		b	.L490
 2773              		.p2align 3
 2774              	.L503:
 2775 25f0 43018052 		mov	w3, 10
 2776 25f4 DBFFFF17 		b	.L490
 2777              		.p2align 3
 2778              	.L504:
 2779 25f8 63018052 		mov	w3, 11
 2780 25fc D9FFFF17 		b	.L490
 2781              		.p2align 3
 2782              	.L505:
AARCH64 GAS  C:\Users\ldebo\AppData\Local\Temp\ccfW7LPV.s 			page 50


 2783 2600 83018052 		mov	w3, 12
 2784 2604 D7FFFF17 		b	.L490
 2785              		.p2align 3
 2786              	.L506:
 2787 2608 A3018052 		mov	w3, 13
 2788 260c D5FFFF17 		b	.L490
 2789              		.p2align 3
 2790              	.L507:
 2791 2610 C3018052 		mov	w3, 14
 2792 2614 D3FFFF17 		b	.L490
 2793              		.size	AddHidPayload, .-AddHidPayload
 2794              		.align	2
 2795 2618 1F2003D5 		.p2align 4,,15
 2795      1F2003D5 
 2796              		.global	RemoveHidPayload
 2797              		.type	RemoveHidPayload, %function
 2798              	RemoveHidPayload:
 2799 2620 800000B4 		cbz	x0, .L518
 2800 2624 01E843B9 		ldr	w1, [x0, 1000]
 2801 2628 3F0C0071 		cmp	w1, 3
 2802 262c 60000054 		beq	.L521
 2803              	.L518:
 2804 2630 C0035FD6 		ret
 2805 2634 1F2003D5 		.p2align 3
 2806              	.L521:
 2807 2638 03F841F9 		ldr	x3, [x0, 1008]
 2808 263c A3FFFFB4 		cbz	x3, .L518
 2809 2640 F37BBFA9 		stp	x19, x30, [sp, -16]!
 2810 2644 F30300AA 		mov	x19, x0
 2811 2648 220580D2 		mov	x2, 41
 2812 264c 01008052 		mov	w1, 0
 2813 2650 E00303AA 		mov	x0, x3
 2814 2654 00000094 		bl	memset
 2815 2658 20008052 		mov	w0, 1
 2816 265c 60EA03B9 		str	w0, [x19, 1000]
 2817 2660 7FFA01F9 		str	xzr, [x19, 1008]
 2818 2664 F37BC1A8 		ldp	x19, x30, [sp], 16
 2819 2668 C0035FD6 		ret
 2820              		.size	RemoveHidPayload, .-RemoveHidPayload
 2821              		.align	2
 2822 266c 1F2003D5 		.p2align 4,,15
 2823              		.global	AddHubPayload
 2824              		.type	AddHubPayload, %function
 2825              	AddHubPayload:
 2826 2670 000900B4 		cbz	x0, .L526
 2827 2674 03E843B9 		ldr	w3, [x0, 1000]
 2828 2678 7F040071 		cmp	w3, 1
 2829 267c A1080054 		bne	.L526
 2830 2680 02000090 		adrp	x2, .LANCHOR1
 2831 2684 44000091 		add	x4, x2, :lo12:.LANCHOR1
 2832 2688 81600A91 		add	x1, x4, 664
 2833 268c 849842B9 		ldr	w4, [x4, 664]
 2834 2690 84060034 		cbz	w4, .L527
 2835 2694 246840B9 		ldr	w4, [x1, 104]
 2836 2698 44040034 		cbz	w4, .L524
 2837 269c 23D040B9 		ldr	w3, [x1, 208]
 2838 26a0 43060034 		cbz	w3, .L529
AARCH64 GAS  C:\Users\ldebo\AppData\Local\Temp\ccfW7LPV.s 			page 51


 2839 26a4 233841B9 		ldr	w3, [x1, 312]
 2840 26a8 43060034 		cbz	w3, .L530
 2841 26ac 23A041B9 		ldr	w3, [x1, 416]
 2842 26b0 43060034 		cbz	w3, .L531
 2843 26b4 230842B9 		ldr	w3, [x1, 520]
 2844 26b8 83060034 		cbz	w3, .L532
 2845 26bc 237042B9 		ldr	w3, [x1, 624]
 2846 26c0 C3060034 		cbz	w3, .L533
 2847 26c4 21D842B9 		ldr	w1, [x1, 728]
 2848 26c8 C1060034 		cbz	w1, .L534
 2849 26cc 41000091 		add	x1, x2, :lo12:.LANCHOR1
 2850 26d0 21600A91 		add	x1, x1, 664
 2851 26d4 234043B9 		ldr	w3, [x1, 832]
 2852 26d8 43050034 		cbz	w3, .L535
 2853 26dc 23A843B9 		ldr	w3, [x1, 936]
 2854 26e0 43060034 		cbz	w3, .L536
 2855 26e4 231044B9 		ldr	w3, [x1, 1040]
 2856 26e8 43060034 		cbz	w3, .L537
 2857 26ec 237844B9 		ldr	w3, [x1, 1144]
 2858 26f0 43060034 		cbz	w3, .L538
 2859 26f4 23E044B9 		ldr	w3, [x1, 1248]
 2860 26f8 43060034 		cbz	w3, .L539
 2861 26fc 234845B9 		ldr	w3, [x1, 1352]
 2862 2700 43060034 		cbz	w3, .L540
 2863 2704 23B045B9 		ldr	w3, [x1, 1456]
 2864 2708 43060034 		cbz	w3, .L541
 2865 270c 211846B9 		ldr	w1, [x1, 1560]
 2866 2710 C3008012 		mov	w3, -7
 2867 2714 21020035 		cbnz	w1, .L522
 2868 2718 E3018052 		mov	w3, 15
 2869 271c 1F2003D5 		.p2align 3
 2870              	.L524:
 2871 2720 617C4093 		sxtw	x1, w3
 2872 2724 42000091 		add	x2, x2, :lo12:.LANCHOR1
 2873 2728 060D80D2 		mov	x6, 104
 2874 272c 42600A91 		add	x2, x2, 664
 2875 2730 040D8052 		mov	w4, 104
 2876 2734 45008052 		mov	w5, 2
 2877 2738 217C069B 		mul	x1, x1, x6
 2878 273c 05E803B9 		str	w5, [x0, 1000]
 2879 2740 1F2003D5 		nop // between mem op and mult-accumulate
 2880 2744 6308249B 		smaddl	x3, w3, w4, x2
 2881 2748 44018052 		mov	w4, 10
 2882 274c 03F801F9 		str	x3, [x0, 1008]
 2883 2750 03008052 		mov	w3, 0
 2884 2754 446821B8 		str	w4, [x2, x1]
 2885              	.L522:
 2886 2758 E003032A 		mov	w0, w3
 2887 275c C0035FD6 		ret
 2888              		.p2align 3
 2889              	.L527:
 2890 2760 03008052 		mov	w3, 0
 2891 2764 EFFFFF17 		b	.L524
 2892              		.p2align 3
 2893              	.L529:
 2894 2768 43008052 		mov	w3, 2
 2895 276c EDFFFF17 		b	.L524
AARCH64 GAS  C:\Users\ldebo\AppData\Local\Temp\ccfW7LPV.s 			page 52


 2896              		.p2align 3
 2897              	.L530:
 2898 2770 63008052 		mov	w3, 3
 2899 2774 EBFFFF17 		b	.L524
 2900              		.p2align 3
 2901              	.L531:
 2902 2778 83008052 		mov	w3, 4
 2903 277c E9FFFF17 		b	.L524
 2904              		.p2align 3
 2905              	.L535:
 2906 2780 03018052 		mov	w3, 8
 2907 2784 E7FFFF17 		b	.L524
 2908              		.p2align 3
 2909              	.L532:
 2910 2788 A3008052 		mov	w3, 5
 2911 278c E5FFFF17 		b	.L524
 2912              		.p2align 3
 2913              	.L526:
 2914 2790 23008012 		mov	w3, -2
 2915 2794 F1FFFF17 		b	.L522
 2916              		.p2align 3
 2917              	.L533:
 2918 2798 C3008052 		mov	w3, 6
 2919 279c E1FFFF17 		b	.L524
 2920              		.p2align 3
 2921              	.L534:
 2922 27a0 E3008052 		mov	w3, 7
 2923 27a4 DFFFFF17 		b	.L524
 2924              		.p2align 3
 2925              	.L536:
 2926 27a8 23018052 		mov	w3, 9
 2927 27ac DDFFFF17 		b	.L524
 2928              		.p2align 3
 2929              	.L537:
 2930 27b0 43018052 		mov	w3, 10
 2931 27b4 DBFFFF17 		b	.L524
 2932              		.p2align 3
 2933              	.L538:
 2934 27b8 63018052 		mov	w3, 11
 2935 27bc D9FFFF17 		b	.L524
 2936              		.p2align 3
 2937              	.L539:
 2938 27c0 83018052 		mov	w3, 12
 2939 27c4 D7FFFF17 		b	.L524
 2940              		.p2align 3
 2941              	.L540:
 2942 27c8 A3018052 		mov	w3, 13
 2943 27cc D5FFFF17 		b	.L524
 2944              		.p2align 3
 2945              	.L541:
 2946 27d0 C3018052 		mov	w3, 14
 2947 27d4 D3FFFF17 		b	.L524
 2948              		.size	AddHubPayload, .-AddHubPayload
 2949              		.align	2
 2950 27d8 1F2003D5 		.p2align 4,,15
 2950      1F2003D5 
 2951              		.global	UsbAllocateDevice
AARCH64 GAS  C:\Users\ldebo\AppData\Local\Temp\ccfW7LPV.s 			page 53


 2952              		.type	UsbAllocateDevice, %function
 2953              	UsbAllocateDevice:
 2954 27e0 400400B4 		cbz	x0, .L547
 2955 27e4 01000090 		adrp	x1, DeviceTable+1000
 2956 27e8 21000091 		add	x1, x1, :lo12:DeviceTable+1000
 2957 27ec 02008052 		mov	w2, 0
 2958 27f0 05000014 		b	.L546
 2959 27f4 1F2003D5 		.p2align 3
 2960              	.L545:
 2961 27f8 42040011 		add	w2, w2, 1
 2962 27fc 5F800071 		cmp	w2, 32
 2963 2800 00030054 		beq	.L549
 2964              	.L546:
 2965 2804 230040B9 		ldr	w3, [x1]
 2966 2808 21E00F91 		add	x1, x1, 1016
 2967 280c 63FFFF35 		cbnz	w3, .L545
 2968 2810 447C4093 		sxtw	x4, w2
 2969 2814 057F80D2 		mov	x5, 1016
 2970 2818 01000090 		adrp	x1, DeviceTable
 2971 281c 21000091 		add	x1, x1, :lo12:DeviceTable
 2972 2820 037F8052 		mov	w3, 1016
 2973 2824 47040011 		add	w7, w2, 1
 2974 2828 847C059B 		mul	x4, x4, x5
 2975 282c E61F8052 		mov	w6, 255
 2976 2830 4204239B 		smaddl	x2, w2, w3, x1
 2977 2834 25008052 		mov	w5, 1
 2978 2838 2300048B 		add	x3, x1, x4
 2979 283c 020000F9 		str	x2, [x0]
 2980 2840 00008052 		mov	w0, 0
 2981 2844 67140039 		strb	w7, [x3, 5]
 2982 2848 7F280039 		strb	wzr, [x3, 10]
 2983 284c 26682478 		strh	w6, [x1, x4]
 2984 2850 65E803B9 		str	w5, [x3, 1000]
 2985 2854 7FF801F9 		str	xzr, [x3, 1008]
 2986 2858 C0035FD6 		ret
 2987 285c 1F2003D5 		.p2align 3
 2988              	.L549:
 2989 2860 C0008012 		mov	w0, -7
 2990 2864 C0035FD6 		ret
 2991              	.L547:
 2992 2868 20008012 		mov	w0, -2
 2993 286c C0035FD6 		ret
 2994              		.size	UsbAllocateDevice, .-UsbAllocateDevice
 2995              		.align	2
 2996              		.p2align 4,,15
 2997              		.global	UsbDeallocateDevice
 2998              		.type	UsbDeallocateDevice, %function
 2999              	UsbDeallocateDevice:
 3000 2870 F353BEA9 		stp	x19, x20, [sp, -32]!
 3001 2874 F30300AA 		mov	x19, x0
 3002 2878 FE0B00F9 		str	x30, [sp, 16]
 3003 287c 00144039 		ldrb	w0, [x0, 5]
 3004 2880 00040051 		sub	w0, w0, #1
 3005 2884 011C0012 		and	w1, w0, 255
 3006 2888 3F7C0071 		cmp	w1, 31
 3007 288c 28010054 		bhi	.L552
 3008 2890 01000090 		adrp	x1, DeviceTable
AARCH64 GAS  C:\Users\ldebo\AppData\Local\Temp\ccfW7LPV.s 			page 54


 3009 2894 21000091 		add	x1, x1, :lo12:DeviceTable
 3010 2898 007C4093 		sxtw	x0, w0
 3011 289c 027F80D2 		mov	x2, 1016
 3012 28a0 0004029B 		madd	x0, x0, x2, x1
 3013 28a4 01E843B9 		ldr	w1, [x0, 1000]
 3014 28a8 3F080071 		cmp	w1, 2
 3015 28ac E0030054 		beq	.L612
 3016              	.L552:
 3017 28b0 60024039 		ldrb	w0, [x19]
 3018 28b4 1F7C0071 		cmp	w0, 31
 3019 28b8 48010054 		bhi	.L571
 3020 28bc 00040051 		sub	w0, w0, #1
 3021 28c0 01000090 		adrp	x1, DeviceTable
 3022 28c4 21000091 		add	x1, x1, :lo12:DeviceTable
 3023 28c8 007C4093 		sxtw	x0, w0
 3024 28cc 027F80D2 		mov	x2, 1016
 3025 28d0 0004029B 		madd	x0, x0, x2, x1
 3026 28d4 01E843B9 		ldr	w1, [x0, 1000]
 3027 28d8 3F080071 		cmp	w1, 2
 3028 28dc E0000054 		beq	.L613
 3029              	.L571:
 3030 28e0 E00313AA 		mov	x0, x19
 3031 28e4 FE0B40F9 		ldr	x30, [sp, 16]
 3032 28e8 F353C2A8 		ldp	x19, x20, [sp], 32
 3033 28ec 027F80D2 		mov	x2, 1016
 3034 28f0 01008052 		mov	w1, 0
 3035 28f4 00000014 		b	memset
 3036              		.p2align 3
 3037              	.L613:
 3038 28f8 00F841F9 		ldr	x0, [x0, 1008]
 3039 28fc 20FFFFB4 		cbz	x0, .L571
 3040 2900 61064039 		ldrb	w1, [x19, 1]
 3041 2904 020040B9 		ldr	w2, [x0]
 3042 2908 3F00026B 		cmp	w1, w2
 3043 290c A2FEFF54 		bcs	.L571
 3044 2910 000C218B 		add	x0, x0, x1, uxtb 3
 3045 2914 010440F9 		ldr	x1, [x0, 8]
 3046 2918 3F0013EB 		cmp	x1, x19
 3047 291c 21FEFF54 		bne	.L571
 3048 2920 1F0400F9 		str	xzr, [x0, 8]
 3049 2924 EFFFFF17 		b	.L571
 3050              		.p2align 3
 3051              	.L612:
 3052 2928 00F841F9 		ldr	x0, [x0, 1008]
 3053 292c 20FCFFB4 		cbz	x0, .L552
 3054 2930 61FA41F9 		ldr	x1, [x19, 1008]
 3055 2934 220040B9 		ldr	w2, [x1]
 3056 2938 02080034 		cbz	w2, .L554
 3057 293c 200440F9 		ldr	x0, [x1, 8]
 3058 2940 000A00B5 		cbnz	x0, .L614
 3059              	.L555:
 3060 2944 5F040071 		cmp	w2, 1
 3061 2948 C9040054 		bls	.L556
 3062 294c 200840F9 		ldr	x0, [x1, 16]
 3063 2950 C00600B5 		cbnz	x0, .L615
 3064              	.L557:
 3065 2954 5F080071 		cmp	w2, 2
AARCH64 GAS  C:\Users\ldebo\AppData\Local\Temp\ccfW7LPV.s 			page 55


 3066 2958 49040054 		bls	.L556
 3067 295c 200C40F9 		ldr	x0, [x1, 24]
 3068 2960 800900B5 		cbnz	x0, .L616
 3069              	.L558:
 3070 2964 5F0C0071 		cmp	w2, 3
 3071 2968 C9030054 		bls	.L556
 3072 296c 201040F9 		ldr	x0, [x1, 32]
 3073 2970 800900B5 		cbnz	x0, .L617
 3074              	.L559:
 3075 2974 5F100071 		cmp	w2, 4
 3076 2978 49030054 		bls	.L556
 3077 297c 201440F9 		ldr	x0, [x1, 40]
 3078 2980 800900B5 		cbnz	x0, .L618
 3079              	.L560:
 3080 2984 5F140071 		cmp	w2, 5
 3081 2988 C9020054 		bls	.L556
 3082 298c 201840F9 		ldr	x0, [x1, 48]
 3083 2990 800900B5 		cbnz	x0, .L619
 3084              	.L561:
 3085 2994 5F180071 		cmp	w2, 6
 3086 2998 49020054 		bls	.L556
 3087 299c 201C40F9 		ldr	x0, [x1, 56]
 3088 29a0 800900B5 		cbnz	x0, .L620
 3089              	.L562:
 3090 29a4 5F1C0071 		cmp	w2, 7
 3091 29a8 C9010054 		bls	.L556
 3092 29ac 202040F9 		ldr	x0, [x1, 64]
 3093 29b0 800900B5 		cbnz	x0, .L621
 3094              	.L563:
 3095 29b4 5F200071 		cmp	w2, 8
 3096 29b8 49010054 		bls	.L556
 3097 29bc 202440F9 		ldr	x0, [x1, 72]
 3098 29c0 800900B5 		cbnz	x0, .L622
 3099              	.L564:
 3100 29c4 5F240071 		cmp	w2, 9
 3101 29c8 C9000054 		bls	.L556
 3102 29cc 202840F9 		ldr	x0, [x1, 80]
 3103 29d0 800000B4 		cbz	x0, .L556
 3104 29d4 00000094 		bl	UsbDeallocateDevice
 3105 29d8 61FA41F9 		ldr	x1, [x19, 1008]
 3106 29dc 220040B9 		ldr	w2, [x1]
 3107              		.p2align 3
 3108              	.L556:
 3109 29e0 60EA43B9 		ldr	w0, [x19, 1000]
 3110 29e4 1F080071 		cmp	w0, 2
 3111 29e8 41F6FF54 		bne	.L552
 3112 29ec E30301AA 		mov	x3, x1
 3113 29f0 14008052 		mov	w20, 0
 3114 29f4 A2020034 		cbz	w2, .L567
 3115              	.L566:
 3116 29f8 21CC348B 		add	x1, x1, x20, sxtw 3
 3117 29fc 210440F9 		ldr	x1, [x1, 8]
 3118 2a00 E00301AA 		mov	x0, x1
 3119 2a04 210300B4 		cbz	x1, .L568
 3120 2a08 00000094 		bl	UsbDeallocateDevice
 3121 2a0c 94060011 		add	w20, w20, 1
 3122 2a10 63FA41F9 		ldr	x3, [x19, 1008]
AARCH64 GAS  C:\Users\ldebo\AppData\Local\Temp\ccfW7LPV.s 			page 56


 3123 2a14 620040B9 		ldr	w2, [x3]
 3124 2a18 5F00146B 		cmp	w2, w20
 3125 2a1c 69010054 		bls	.L567
 3126 2a20 E10303AA 		mov	x1, x3
 3127 2a24 F5FFFF17 		b	.L566
 3128              		.p2align 3
 3129              	.L615:
 3130 2a28 00000094 		bl	UsbDeallocateDevice
 3131 2a2c 61FA41F9 		ldr	x1, [x19, 1008]
 3132 2a30 220040B9 		ldr	w2, [x1]
 3133 2a34 C8FFFF17 		b	.L557
 3134              		.p2align 3
 3135              	.L554:
 3136 2a38 60EA43B9 		ldr	w0, [x19, 1000]
 3137 2a3c 1F080071 		cmp	w0, 2
 3138 2a40 81F3FF54 		bne	.L552
 3139 2a44 E30301AA 		mov	x3, x1
 3140              	.L567:
 3141 2a48 020D80D2 		mov	x2, 104
 3142 2a4c 01008052 		mov	w1, 0
 3143 2a50 E00303AA 		mov	x0, x3
 3144 2a54 00000094 		bl	memset
 3145 2a58 20008052 		mov	w0, 1
 3146 2a5c 60EA03B9 		str	w0, [x19, 1000]
 3147 2a60 7FFA01F9 		str	xzr, [x19, 1008]
 3148 2a64 93FFFF17 		b	.L552
 3149              		.p2align 3
 3150              	.L568:
 3151 2a68 94060011 		add	w20, w20, 1
 3152 2a6c 9F02026B 		cmp	w20, w2
 3153 2a70 C2FEFF54 		bcs	.L567
 3154 2a74 E10303AA 		mov	x1, x3
 3155 2a78 E0FFFF17 		b	.L566
 3156 2a7c 1F2003D5 		.p2align 3
 3157              	.L614:
 3158 2a80 00000094 		bl	UsbDeallocateDevice
 3159 2a84 61FA41F9 		ldr	x1, [x19, 1008]
 3160 2a88 220040B9 		ldr	w2, [x1]
 3161 2a8c AEFFFF17 		b	.L555
 3162              		.p2align 3
 3163              	.L616:
 3164 2a90 00000094 		bl	UsbDeallocateDevice
 3165 2a94 61FA41F9 		ldr	x1, [x19, 1008]
 3166 2a98 220040B9 		ldr	w2, [x1]
 3167 2a9c B2FFFF17 		b	.L558
 3168              	.L617:
 3169 2aa0 00000094 		bl	UsbDeallocateDevice
 3170 2aa4 61FA41F9 		ldr	x1, [x19, 1008]
 3171 2aa8 220040B9 		ldr	w2, [x1]
 3172 2aac B2FFFF17 		b	.L559
 3173              	.L618:
 3174 2ab0 00000094 		bl	UsbDeallocateDevice
 3175 2ab4 61FA41F9 		ldr	x1, [x19, 1008]
 3176 2ab8 220040B9 		ldr	w2, [x1]
 3177 2abc B2FFFF17 		b	.L560
 3178              	.L619:
 3179 2ac0 00000094 		bl	UsbDeallocateDevice
AARCH64 GAS  C:\Users\ldebo\AppData\Local\Temp\ccfW7LPV.s 			page 57


 3180 2ac4 61FA41F9 		ldr	x1, [x19, 1008]
 3181 2ac8 220040B9 		ldr	w2, [x1]
 3182 2acc B2FFFF17 		b	.L561
 3183              	.L620:
 3184 2ad0 00000094 		bl	UsbDeallocateDevice
 3185 2ad4 61FA41F9 		ldr	x1, [x19, 1008]
 3186 2ad8 220040B9 		ldr	w2, [x1]
 3187 2adc B2FFFF17 		b	.L562
 3188              	.L621:
 3189 2ae0 00000094 		bl	UsbDeallocateDevice
 3190 2ae4 61FA41F9 		ldr	x1, [x19, 1008]
 3191 2ae8 220040B9 		ldr	w2, [x1]
 3192 2aec B2FFFF17 		b	.L563
 3193              	.L622:
 3194 2af0 00000094 		bl	UsbDeallocateDevice
 3195 2af4 61FA41F9 		ldr	x1, [x19, 1008]
 3196 2af8 220040B9 		ldr	w2, [x1]
 3197 2afc B2FFFF17 		b	.L564
 3198              		.size	UsbDeallocateDevice, .-UsbDeallocateDevice
 3199              		.align	2
 3200              		.p2align 4,,15
 3201              		.global	RemoveHubPayload
 3202              		.type	RemoveHubPayload, %function
 3203              	RemoveHubPayload:
 3204 2b00 800000B4 		cbz	x0, .L705
 3205 2b04 01E843B9 		ldr	w1, [x0, 1000]
 3206 2b08 3F080071 		cmp	w1, 2
 3207 2b0c 60000054 		beq	.L710
 3208              	.L705:
 3209 2b10 C0035FD6 		ret
 3210 2b14 1F2003D5 		.p2align 3
 3211              	.L710:
 3212 2b18 03F841F9 		ldr	x3, [x0, 1008]
 3213 2b1c A3FFFFB4 		cbz	x3, .L705
 3214 2b20 F353BCA9 		stp	x19, x20, [sp, -64]!
 3215 2b24 F50B00F9 		str	x21, [sp, 16]
 3216 2b28 F50300AA 		mov	x21, x0
 3217 2b2c FE1F00F9 		str	x30, [sp, 56]
 3218 2b30 610040B9 		ldr	w1, [x3]
 3219 2b34 41050034 		cbz	w1, .L625
 3220 2b38 F6DF01A9 		stp	x22, x23, [sp, 24]
 3221 2b3c 16000090 		adrp	x22, DeviceTable
 3222 2b40 D6020091 		add	x22, x22, :lo12:DeviceTable
 3223 2b44 F81700F9 		str	x24, [sp, 40]
 3224 2b48 13008052 		mov	w19, 0
 3225 2b4c 177F80D2 		mov	x23, 1016
 3226 2b50 38008052 		mov	w24, 1
 3227 2b54 1F2003D5 		.p2align 3
 3228              	.L648:
 3229 2b58 60CC338B 		add	x0, x3, x19, sxtw 3
 3230 2b5c 140440F9 		ldr	x20, [x0, 8]
 3231 2b60 540300B4 		cbz	x20, .L626
 3232 2b64 80164039 		ldrb	w0, [x20, 5]
 3233 2b68 00040051 		sub	w0, w0, #1
 3234 2b6c 011C0012 		and	w1, w0, 255
 3235 2b70 3F7C0071 		cmp	w1, 31
 3236 2b74 C8000054 		bhi	.L628
AARCH64 GAS  C:\Users\ldebo\AppData\Local\Temp\ccfW7LPV.s 			page 58


 3237 2b78 007C4093 		sxtw	x0, w0
 3238 2b7c 0058179B 		madd	x0, x0, x23, x22
 3239 2b80 01E843B9 		ldr	w1, [x0, 1000]
 3240 2b84 3F080071 		cmp	w1, 2
 3241 2b88 80050054 		beq	.L711
 3242              	.L628:
 3243 2b8c 80024039 		ldrb	w0, [x20]
 3244 2b90 1F7C0071 		cmp	w0, 31
 3245 2b94 E8000054 		bhi	.L647
 3246 2b98 00040051 		sub	w0, w0, #1
 3247 2b9c 007C4093 		sxtw	x0, w0
 3248 2ba0 0058179B 		madd	x0, x0, x23, x22
 3249 2ba4 01E843B9 		ldr	w1, [x0, 1000]
 3250 2ba8 3F080071 		cmp	w1, 2
 3251 2bac E0020054 		beq	.L712
 3252              	.L647:
 3253 2bb0 01008052 		mov	w1, 0
 3254 2bb4 027F80D2 		mov	x2, 1016
 3255 2bb8 E00314AA 		mov	x0, x20
 3256 2bbc 00000094 		bl	memset
 3257 2bc0 A3FA41F9 		ldr	x3, [x21, 1008]
 3258 2bc4 610040B9 		ldr	w1, [x3]
 3259              	.L626:
 3260 2bc8 73060011 		add	w19, w19, 1
 3261 2bcc 7F02016B 		cmp	w19, w1
 3262 2bd0 43FCFF54 		bcc	.L648
 3263 2bd4 F6DF41A9 		ldp	x22, x23, [sp, 24]
 3264 2bd8 F81740F9 		ldr	x24, [sp, 40]
 3265              	.L625:
 3266 2bdc 020D80D2 		mov	x2, 104
 3267 2be0 01008052 		mov	w1, 0
 3268 2be4 E00303AA 		mov	x0, x3
 3269 2be8 00000094 		bl	memset
 3270 2bec 20008052 		mov	w0, 1
 3271 2bf0 A0EA03B9 		str	w0, [x21, 1000]
 3272 2bf4 BFFA01F9 		str	xzr, [x21, 1008]
 3273 2bf8 F50B40F9 		ldr	x21, [sp, 16]
 3274 2bfc FE1F40F9 		ldr	x30, [sp, 56]
 3275 2c00 F353C4A8 		ldp	x19, x20, [sp], 64
 3276 2c04 C0035FD6 		ret
 3277              		.p2align 3
 3278              	.L712:
 3279 2c08 00F841F9 		ldr	x0, [x0, 1008]
 3280 2c0c 20FDFFB4 		cbz	x0, .L647
 3281 2c10 81064039 		ldrb	w1, [x20, 1]
 3282 2c14 020040B9 		ldr	w2, [x0]
 3283 2c18 3F00026B 		cmp	w1, w2
 3284 2c1c A2FCFF54 		bcs	.L647
 3285 2c20 000C218B 		add	x0, x0, x1, uxtb 3
 3286 2c24 010440F9 		ldr	x1, [x0, 8]
 3287 2c28 9F0201EB 		cmp	x20, x1
 3288 2c2c 21FCFF54 		bne	.L647
 3289 2c30 1F0400F9 		str	xzr, [x0, 8]
 3290 2c34 DFFFFF17 		b	.L647
 3291              		.p2align 3
 3292              	.L711:
 3293 2c38 00F841F9 		ldr	x0, [x0, 1008]
AARCH64 GAS  C:\Users\ldebo\AppData\Local\Temp\ccfW7LPV.s 			page 59


 3294 2c3c 80FAFFB4 		cbz	x0, .L628
 3295 2c40 83FA41F9 		ldr	x3, [x20, 1008]
 3296 2c44 610040B9 		ldr	w1, [x3]
 3297 2c48 C1090034 		cbz	w1, .L630
 3298 2c4c 600440F9 		ldr	x0, [x3, 8]
 3299 2c50 800700B5 		cbnz	x0, .L713
 3300              	.L631:
 3301 2c54 3F040071 		cmp	w1, 1
 3302 2c58 C9040054 		bls	.L632
 3303 2c5c 600840F9 		ldr	x0, [x3, 16]
 3304 2c60 800900B5 		cbnz	x0, .L714
 3305              	.L633:
 3306 2c64 3F080071 		cmp	w1, 2
 3307 2c68 49040054 		bls	.L632
 3308 2c6c 600C40F9 		ldr	x0, [x3, 24]
 3309 2c70 800900B5 		cbnz	x0, .L715
 3310              	.L634:
 3311 2c74 3F0C0071 		cmp	w1, 3
 3312 2c78 C9030054 		bls	.L632
 3313 2c7c 601040F9 		ldr	x0, [x3, 32]
 3314 2c80 800900B5 		cbnz	x0, .L716
 3315              	.L635:
 3316 2c84 3F100071 		cmp	w1, 4
 3317 2c88 49030054 		bls	.L632
 3318 2c8c 601440F9 		ldr	x0, [x3, 40]
 3319 2c90 800900B5 		cbnz	x0, .L717
 3320              	.L636:
 3321 2c94 3F140071 		cmp	w1, 5
 3322 2c98 C9020054 		bls	.L632
 3323 2c9c 601840F9 		ldr	x0, [x3, 48]
 3324 2ca0 800900B5 		cbnz	x0, .L718
 3325              	.L637:
 3326 2ca4 3F180071 		cmp	w1, 6
 3327 2ca8 49020054 		bls	.L632
 3328 2cac 601C40F9 		ldr	x0, [x3, 56]
 3329 2cb0 800900B5 		cbnz	x0, .L719
 3330              	.L638:
 3331 2cb4 3F1C0071 		cmp	w1, 7
 3332 2cb8 C9010054 		bls	.L632
 3333 2cbc 602040F9 		ldr	x0, [x3, 64]
 3334 2cc0 800900B5 		cbnz	x0, .L720
 3335              	.L639:
 3336 2cc4 3F200071 		cmp	w1, 8
 3337 2cc8 49010054 		bls	.L632
 3338 2ccc 602440F9 		ldr	x0, [x3, 72]
 3339 2cd0 800900B5 		cbnz	x0, .L721
 3340              	.L640:
 3341 2cd4 3F240071 		cmp	w1, 9
 3342 2cd8 C9000054 		bls	.L632
 3343 2cdc 602840F9 		ldr	x0, [x3, 80]
 3344 2ce0 800000B4 		cbz	x0, .L632
 3345 2ce4 00000094 		bl	UsbDeallocateDevice
 3346 2ce8 83FA41F9 		ldr	x3, [x20, 1008]
 3347 2cec 610040B9 		ldr	w1, [x3]
 3348              		.p2align 3
 3349              	.L632:
 3350 2cf0 80EA43B9 		ldr	w0, [x20, 1000]
AARCH64 GAS  C:\Users\ldebo\AppData\Local\Temp\ccfW7LPV.s 			page 60


 3351 2cf4 1F080071 		cmp	w0, 2
 3352 2cf8 A1F4FF54 		bne	.L628
 3353 2cfc F91B00F9 		str	x25, [sp, 48]
 3354 2d00 E40303AA 		mov	x4, x3
 3355 2d04 19008052 		mov	w25, 0
 3356 2d08 C1020034 		cbz	w1, .L709
 3357 2d0c 1F2003D5 		.p2align 3
 3358              	.L643:
 3359 2d10 63CC398B 		add	x3, x3, x25, sxtw 3
 3360 2d14 620440F9 		ldr	x2, [x3, 8]
 3361 2d18 E00302AA 		mov	x0, x2
 3362 2d1c A20100B4 		cbz	x2, .L644
 3363 2d20 00000094 		bl	UsbDeallocateDevice
 3364 2d24 39070011 		add	w25, w25, 1
 3365 2d28 84FA41F9 		ldr	x4, [x20, 1008]
 3366 2d2c 810040B9 		ldr	w1, [x4]
 3367 2d30 3F03016B 		cmp	w25, w1
 3368 2d34 42010054 		bcs	.L646
 3369              	.L645:
 3370 2d38 E30304AA 		mov	x3, x4
 3371 2d3c F5FFFF17 		b	.L643
 3372              		.p2align 3
 3373              	.L713:
 3374 2d40 00000094 		bl	UsbDeallocateDevice
 3375 2d44 83FA41F9 		ldr	x3, [x20, 1008]
 3376 2d48 610040B9 		ldr	w1, [x3]
 3377 2d4c C2FFFF17 		b	.L631
 3378              		.p2align 3
 3379              	.L644:
 3380 2d50 39070011 		add	w25, w25, 1
 3381 2d54 3F00196B 		cmp	w1, w25
 3382 2d58 08FFFF54 		bhi	.L645
 3383              	.L646:
 3384 2d5c E30304AA 		mov	x3, x4
 3385              	.L709:
 3386 2d60 F91B40F9 		ldr	x25, [sp, 48]
 3387              	.L642:
 3388 2d64 020D80D2 		mov	x2, 104
 3389 2d68 01008052 		mov	w1, 0
 3390 2d6c E00303AA 		mov	x0, x3
 3391 2d70 00000094 		bl	memset
 3392 2d74 98EA03B9 		str	w24, [x20, 1000]
 3393 2d78 9FFA01F9 		str	xzr, [x20, 1008]
 3394 2d7c 84FFFF17 		b	.L628
 3395              		.p2align 3
 3396              	.L630:
 3397 2d80 80EA43B9 		ldr	w0, [x20, 1000]
 3398 2d84 1F080071 		cmp	w0, 2
 3399 2d88 21F0FF54 		bne	.L628
 3400 2d8c F6FFFF17 		b	.L642
 3401              	.L714:
 3402 2d90 00000094 		bl	UsbDeallocateDevice
 3403 2d94 83FA41F9 		ldr	x3, [x20, 1008]
 3404 2d98 610040B9 		ldr	w1, [x3]
 3405 2d9c B2FFFF17 		b	.L633
 3406              	.L715:
 3407 2da0 00000094 		bl	UsbDeallocateDevice
AARCH64 GAS  C:\Users\ldebo\AppData\Local\Temp\ccfW7LPV.s 			page 61


 3408 2da4 83FA41F9 		ldr	x3, [x20, 1008]
 3409 2da8 610040B9 		ldr	w1, [x3]
 3410 2dac B2FFFF17 		b	.L634
 3411              	.L716:
 3412 2db0 00000094 		bl	UsbDeallocateDevice
 3413 2db4 83FA41F9 		ldr	x3, [x20, 1008]
 3414 2db8 610040B9 		ldr	w1, [x3]
 3415 2dbc B2FFFF17 		b	.L635
 3416              	.L717:
 3417 2dc0 00000094 		bl	UsbDeallocateDevice
 3418 2dc4 83FA41F9 		ldr	x3, [x20, 1008]
 3419 2dc8 610040B9 		ldr	w1, [x3]
 3420 2dcc B2FFFF17 		b	.L636
 3421              	.L718:
 3422 2dd0 00000094 		bl	UsbDeallocateDevice
 3423 2dd4 83FA41F9 		ldr	x3, [x20, 1008]
 3424 2dd8 610040B9 		ldr	w1, [x3]
 3425 2ddc B2FFFF17 		b	.L637
 3426              	.L719:
 3427 2de0 00000094 		bl	UsbDeallocateDevice
 3428 2de4 83FA41F9 		ldr	x3, [x20, 1008]
 3429 2de8 610040B9 		ldr	w1, [x3]
 3430 2dec B2FFFF17 		b	.L638
 3431              	.L720:
 3432 2df0 00000094 		bl	UsbDeallocateDevice
 3433 2df4 83FA41F9 		ldr	x3, [x20, 1008]
 3434 2df8 610040B9 		ldr	w1, [x3]
 3435 2dfc B2FFFF17 		b	.L639
 3436              	.L721:
 3437 2e00 00000094 		bl	UsbDeallocateDevice
 3438 2e04 83FA41F9 		ldr	x3, [x20, 1008]
 3439 2e08 610040B9 		ldr	w1, [x3]
 3440 2e0c B2FFFF17 		b	.L640
 3441              		.size	RemoveHubPayload, .-RemoveHubPayload
 3442              		.align	2
 3443              		.p2align 4,,15
 3444              		.global	EnumerateHID
 3445              		.type	EnumerateHID, %function
 3446              	EnumerateHID:
 3447 2e10 FF4333D1 		sub	sp, sp, #3280
 3448 2e14 F35301A9 		stp	x19, x20, [sp, 16]
 3449 2e18 FE3300F9 		str	x30, [sp, 96]
 3450 2e1c E08B00B9 		str	w0, [sp, 136]
 3451 2e20 25F841F9 		ldr	x5, [x1, 1008]
 3452 2e24 A0A04039 		ldrb	w0, [x5, 40]
 3453 2e28 40170034 		cbz	w0, .L755
 3454 2e2c F76303A9 		stp	x23, x24, [sp, 48]
 3455 2e30 17000090 		adrp	x23, DeviceTable
 3456 2e34 F7020091 		add	x23, x23, :lo12:DeviceTable
 3457 2e38 F55B02A9 		stp	x21, x22, [sp, 32]
 3458 2e3c F60301AA 		mov	x22, x1
 3459 2e40 F96B04A9 		stp	x25, x26, [sp, 64]
 3460 2e44 F9431391 		add	x25, sp, 1232
 3461 2e48 FB7305A9 		stp	x27, x28, [sp, 80]
 3462 2e4c FC120091 		add	x28, x23, 4
 3463 2e50 13008052 		mov	w19, 0
 3464              	.L745:
AARCH64 GAS  C:\Users\ldebo\AppData\Local\Temp\ccfW7LPV.s 			page 62


 3465 2e54 757E4093 		sxtw	x21, w19
 3466 2e58 21018052 		mov	w1, 9
 3467 2e5c A200158B 		add	x2, x5, x21
 3468 2e60 00000090 		adrp	x0, .LC22
 3469 2e64 00000091 		add	x0, x0, :lo12:.LC22
 3470 2e68 747E219B 		smull	x20, w19, w1
 3471 2e6c 47904039 		ldrb	w7, [x2, 36]
 3472 2e70 A500148B 		add	x5, x5, x20
 3473 2e74 E758A19B 		umaddl	x7, w7, w1, x22
 3474 2e78 A90C4039 		ldrb	w9, [x5, 3]
 3475 2e7c A1084039 		ldrb	w1, [x5, 2]
 3476 2e80 A4184039 		ldrb	w4, [x5, 6]
 3477 2e84 A3144039 		ldrb	w3, [x5, 5]
 3478 2e88 A2104039 		ldrb	w2, [x5, 4]
 3479 2e8c 2120092A 		orr	w1, w1, w9, lsl 8
 3480 2e90 E5504039 		ldrb	w5, [x7, 20]
 3481 2e94 E63C4039 		ldrb	w6, [x7, 15]
 3482 2e98 00000094 		bl	printf
 3483 2e9c E0274239 		ldrb	w0, [sp, 137]
 3484 2ea0 651E0012 		and	w5, w19, 255
 3485 2ea4 00040051 		sub	w0, w0, #1
 3486 2ea8 011C0012 		and	w1, w0, 255
 3487 2eac 3F7C0071 		cmp	w1, 31
 3488 2eb0 E8110054 		bhi	.L743
 3489 2eb4 187C4093 		sxtw	x24, w0
 3490 2eb8 027F80D2 		mov	x2, 1016
 3491 2ebc 037F029B 		mul	x3, x24, x2
 3492 2ec0 E102038B 		add	x1, x23, x3
 3493 2ec4 24E843B9 		ldr	w4, [x1, 1000]
 3494 2ec8 9F0C0071 		cmp	w4, 3
 3495 2ecc 01110054 		bne	.L743
 3496 2ed0 21F841F9 		ldr	x1, [x1, 1008]
 3497 2ed4 C11000B4 		cbz	x1, .L743
 3498 2ed8 26A04039 		ldrb	w6, [x1, 40]
 3499 2edc DF00056B 		cmp	w6, w5
 3500 2ee0 63100054 		bcc	.L743
 3501 2ee4 3400148B 		add	x20, x1, x20
 3502 2ee8 850080D2 		mov	x5, 4
 3503 2eec 836B63B8 		ldr	w3, [x28, x3]
 3504 2ef0 2100158B 		add	x1, x1, x21
 3505 2ef4 E3A300B9 		str	w3, [sp, 160]
 3506 2ef8 1F2003D5 		nop // between mem op and mult-accumulate
 3507 2efc 0014229B 		smaddl	x0, w0, w2, x5
 3508 2f00 83224039 		ldrb	w3, [x20, 8]
 3509 2f04 821E4039 		ldrb	w2, [x20, 7]
 3510 2f08 0000178B 		add	x0, x0, x23
 3511 2f0c E37B0239 		strb	w3, [sp, 158]
 3512 2f10 E27F0239 		strb	w2, [sp, 159]
 3513 2f14 82008052 		mov	w2, 4
 3514 2f18 1B044039 		ldrb	w27, [x0, 1]
 3515 2f1c E97B4239 		ldrb	w9, [sp, 158]
 3516 2f20 E07F4239 		ldrb	w0, [sp, 159]
 3517 2f24 F4834239 		ldrb	w20, [sp, 160]
 3518 2f28 001C0012 		and	w0, w0, 255
 3519 2f2c 291D1853 		ubfiz	w9, w9, 8, 8
 3520 2f30 3A01002A 		orr	w26, w9, w0
 3521 2f34 00000090 		adrp	x0, .LANCHOR1
AARCH64 GAS  C:\Users\ldebo\AppData\Local\Temp\ccfW7LPV.s 			page 63


 3522 2f38 05004039 		ldrb	w5, [x0, #:lo12:.LANCHOR1]
 3523 2f3c 20D08052 		mov	w0, 1665
 3524 2f40 0040A472 		movk	w0, 0x2200, lsl 16
 3525 2f44 E0CB00B9 		str	w0, [sp, 200]
 3526 2f48 FFAB00B9 		str	wzr, [sp, 168]
 3527 2f4c 80060012 		and	w0, w20, 3
 3528 2f50 FB870239 		strb	w27, [sp, 161]
 3529 2f54 BF001B6B 		cmp	w5, w27
 3530 2f58 E2A70239 		strb	w2, [sp, 169]
 3531 2f5c 940E42D3 		ubfx	x20, x20, 2, 2
 3532 2f60 E07700B9 		str	w0, [sp, 116]
 3533 2f64 E08B4239 		ldrb	w0, [sp, 162]
 3534 2f68 22904039 		ldrb	w2, [x1, 36]
 3535 2f6c E3A340B9 		ldr	w3, [sp, 160]
 3536 2f70 E1AB40B9 		ldr	w1, [sp, 168]
 3537 2f74 E07B00B9 		str	w0, [sp, 120]
 3538 2f78 E08F4239 		ldrb	w0, [sp, 163]
 3539 2f7c E07F00B9 		str	w0, [sp, 124]
 3540 2f80 E3B300B9 		str	w3, [sp, 176]
 3541 2f84 E1BB00B9 		str	w1, [sp, 184]
 3542 2f88 E29B0179 		strh	w2, [sp, 204]
 3543 2f8c FA9F0179 		strh	w26, [sp, 206]
 3544 2f90 C00C0054 		beq	.L775
 3545 2f94 E1C300B9 		str	w1, [sp, 192]
 3546 2f98 03018052 		mov	w3, 8
 3547 2f9c E05B40F9 		ldr	x0, [sp, 176]
 3548 2fa0 E2230391 		add	x2, sp, 200
 3549 2fa4 E1074339 		ldrb	w1, [sp, 193]
 3550 2fa8 21781D12 		and	w1, w1, -5
 3551 2fac E1070339 		strb	w1, [sp, 193]
 3552 2fb0 E16340F9 		ldr	x1, [sp, 192]
 3553 2fb4 00000094 		bl	HCDChannelTransfer
 3554 2fb8 80130035 		cbnz	w0, .L776
 3555 2fbc E0E74239 		ldrb	w0, [sp, 185]
 3556 2fc0 800F1037 		tbnz	x0, 2, .L731
 3557 2fc4 BA170034 		cbz	w26, .L732
 3558 2fc8 42070051 		sub	w2, w26, #1
 3559 2fcc E6432391 		add	x6, sp, 2256
 3560 2fd0 42040091 		add	x2, x2, 1
 3561 2fd4 000080D2 		mov	x0, 0
 3562              		.p2align 3
 3563              	.L733:
 3564 2fd8 216B6038 		ldrb	w1, [x25, x0]
 3565 2fdc C1682038 		strb	w1, [x6, x0]
 3566 2fe0 00040091 		add	x0, x0, 1
 3567 2fe4 5F0000EB 		cmp	x2, x0
 3568 2fe8 81FFFF54 		bne	.L733
 3569 2fec E0074339 		ldrb	w0, [sp, 193]
 3570 2ff0 44008052 		mov	w4, 2
 3571 2ff4 E3031A2A 		mov	w3, w26
 3572 2ff8 E20306AA 		mov	x2, x6
 3573 2ffc 00001E32 		orr	w0, w0, 4
 3574 3000 E0070339 		strb	w0, [sp, 193]
 3575 3004 E05B40F9 		ldr	x0, [sp, 176]
 3576 3008 E16340F9 		ldr	x1, [sp, 192]
 3577 300c E64300F9 		str	x6, [sp, 128]
 3578 3010 00000094 		bl	HCDChannelTransfer
AARCH64 GAS  C:\Users\ldebo\AppData\Local\Temp\ccfW7LPV.s 			page 64


 3579 3014 20130035 		cbnz	w0, .L746
 3580 3018 E64340F9 		ldr	x6, [sp, 128]
 3581 301c E5031A2A 		mov	w5, w26
 3582              	.L737:
 3583 3020 20008052 		mov	w0, 1
 3584 3024 DA000034 		cbz	w26, .L739
 3585 3028 E0E74239 		ldrb	w0, [sp, 185]
 3586 302c 00001E32 		orr	w0, w0, 4
 3587 3030 E0E70239 		strb	w0, [sp, 185]
 3588 3034 00007ED2 		eor	x0, x0, 4
 3589 3038 00080253 		ubfx	w0, w0, 2, 1
 3590              	.L739:
 3591 303c E1C34239 		ldrb	w1, [sp, 176]
 3592 3040 44008052 		mov	w4, 2
 3593 3044 E58300B9 		str	w5, [sp, 128]
 3594 3048 E57740B9 		ldr	w5, [sp, 116]
 3595 304c E2074339 		ldrb	w2, [sp, 193]
 3596 3050 E3E34139 		ldrb	w3, [sp, 120]
 3597 3054 A1040033 		bfi	w1, w5, 0, 2
 3598 3058 E3CB0239 		strb	w3, [sp, 178]
 3599 305c 02001E33 		bfi	w2, w0, 2, 1
 3600 3060 E003012A 		mov	w0, w1
 3601 3064 E3F34139 		ldrb	w3, [sp, 124]
 3602 3068 E3CF0239 		strb	w3, [sp, 179]
 3603 306c 80061E33 		bfi	w0, w20, 2, 2
 3604 3070 E0C30239 		strb	w0, [sp, 176]
 3605 3074 03008052 		mov	w3, 0
 3606 3078 E2070339 		strb	w2, [sp, 193]
 3607 307c E20306AA 		mov	x2, x6
 3608 3080 E05B40F9 		ldr	x0, [sp, 176]
 3609 3084 E16340F9 		ldr	x1, [sp, 192]
 3610 3088 00000094 		bl	HCDChannelTransfer
 3611 308c E58340B9 		ldr	w5, [sp, 128]
 3612 3090 40100035 		cbnz	w0, .L777
 3613 3094 00000090 		adrp	x0, RPi_IO_Base_Addr
 3614 3098 000040B9 		ldr	w0, [x0, #:lo12:RPi_IO_Base_Addr]
 3615 309c 5F03056B 		cmp	w26, w5
 3616 30a0 00006611 		add	w0, w0, 9961472
 3617 30a4 00001411 		add	w0, w0, 1280
 3618 30a8 001040B9 		ldr	w0, [x0, 16]
 3619 30ac E5C700B9 		str	w5, [sp, 196]
 3620 30b0 41050054 		bne	.L735
 3621              	.L741:
 3622 30b4 5F031071 		cmp	w26, 1024
 3623 30b8 01808052 		mov	w1, 1024
 3624 30bc 4193811A 		csel	w1, w26, w1, ls
 3625 30c0 213C0012 		and	w1, w1, 65535
 3626 30c4 5A010034 		cbz	w26, .L743
 3627 30c8 21040051 		sub	w1, w1, #1
 3628 30cc E3430391 		add	x3, sp, 208
 3629 30d0 21040091 		add	x1, x1, 1
 3630 30d4 000080D2 		mov	x0, 0
 3631              		.p2align 3
 3632              	.L744:
 3633 30d8 226B6038 		ldrb	w2, [x25, x0]
 3634 30dc 62682038 		strb	w2, [x3, x0]
 3635 30e0 00040091 		add	x0, x0, 1
AARCH64 GAS  C:\Users\ldebo\AppData\Local\Temp\ccfW7LPV.s 			page 65


 3636 30e4 1F0001EB 		cmp	x0, x1
 3637 30e8 81FFFF54 		bne	.L744
 3638              	.L743:
 3639 30ec C5FA41F9 		ldr	x5, [x22, 1008]
 3640 30f0 73060011 		add	w19, w19, 1
 3641 30f4 A0A04039 		ldrb	w0, [x5, 40]
 3642 30f8 1F00136B 		cmp	w0, w19
 3643 30fc CCEAFF54 		bgt	.L745
 3644              	.L778:
 3645 3100 F55B42A9 		ldp	x21, x22, [sp, 32]
 3646 3104 F76343A9 		ldp	x23, x24, [sp, 48]
 3647 3108 F96B44A9 		ldp	x25, x26, [sp, 64]
 3648 310c FB7345A9 		ldp	x27, x28, [sp, 80]
 3649              	.L755:
 3650 3110 00008052 		mov	w0, 0
 3651 3114 F35341A9 		ldp	x19, x20, [sp, 16]
 3652 3118 FE3340F9 		ldr	x30, [sp, 96]
 3653 311c FF433391 		add	sp, sp, 3280
 3654 3120 C0035FD6 		ret
 3655 3124 1F2003D5 		.p2align 3
 3656              	.L775:
 3657 3128 E57700B9 		str	w5, [sp, 116]
 3658 312c E3130391 		add	x3, sp, 196
 3659 3130 E2230391 		add	x2, sp, 200
 3660 3134 E1031A2A 		mov	w1, w26
 3661 3138 E00319AA 		mov	x0, x25
 3662 313c 00000094 		bl	HcdProcessRootHubMessage
 3663 3140 E403002A 		mov	w4, w0
 3664 3144 E0C740B9 		ldr	w0, [sp, 196]
 3665 3148 E57740B9 		ldr	w5, [sp, 116]
 3666 314c 5F03006B 		cmp	w26, w0
 3667 3150 C0080054 		beq	.L769
 3668 3154 FB03052A 		mov	w27, w5
 3669              	.L735:
 3670 3158 00000090 		adrp	x0, .LC23
 3671 315c 24018012 		mov	w4, -10
 3672              	.L773:
 3673 3160 E3031B2A 		mov	w3, w27
 3674 3164 02008052 		mov	w2, 0
 3675 3168 41048052 		mov	w1, 34
 3676 316c 00000091 		add	x0, x0, :lo12:.LC23
 3677 3170 00000094 		bl	printf
 3678 3174 73060011 		add	w19, w19, 1
 3679 3178 017F80D2 		mov	x1, 1016
 3680 317c 00000090 		adrp	x0, .LC24
 3681 3180 00000091 		add	x0, x0, :lo12:.LC24
 3682 3184 185F019B 		madd	x24, x24, x1, x23
 3683 3188 01FB41F9 		ldr	x1, [x24, 1008]
 3684 318c 02174039 		ldrb	w2, [x24, 5]
 3685 3190 3500158B 		add	x21, x1, x21
 3686 3194 A1924039 		ldrb	w1, [x21, 36]
 3687 3198 00000094 		bl	printf
 3688 319c C5FA41F9 		ldr	x5, [x22, 1008]
 3689 31a0 A0A04039 		ldrb	w0, [x5, 40]
 3690 31a4 1F00136B 		cmp	w0, w19
 3691 31a8 6CE5FF54 		bgt	.L745
 3692 31ac D5FFFF17 		b	.L778
AARCH64 GAS  C:\Users\ldebo\AppData\Local\Temp\ccfW7LPV.s 			page 66


 3693              		.p2align 3
 3694              	.L731:
 3695 31b0 E0074339 		ldrb	w0, [sp, 193]
 3696 31b4 E6432391 		add	x6, sp, 2256
 3697 31b8 E20306AA 		mov	x2, x6
 3698 31bc E64300F9 		str	x6, [sp, 128]
 3699 31c0 00001E32 		orr	w0, w0, 4
 3700 31c4 E0070339 		strb	w0, [sp, 193]
 3701 31c8 E05B40F9 		ldr	x0, [sp, 176]
 3702 31cc 44008052 		mov	w4, 2
 3703 31d0 E16340F9 		ldr	x1, [sp, 192]
 3704 31d4 E3031A2A 		mov	w3, w26
 3705 31d8 00000094 		bl	HCDChannelTransfer
 3706 31dc E64340F9 		ldr	x6, [sp, 128]
 3707 31e0 C0040035 		cbnz	w0, .L746
 3708 31e4 00000090 		adrp	x0, RPi_IO_Base_Addr
 3709 31e8 000040B9 		ldr	w0, [x0, #:lo12:RPi_IO_Base_Addr]
 3710 31ec 00006611 		add	w0, w0, 9961472
 3711 31f0 00001411 		add	w0, w0, 1280
 3712 31f4 051040B9 		ldr	w5, [x0, 16]
 3713 31f8 A54840D3 		ubfx	x5, x5, 0, 19
 3714 31fc 4503056B 		subs	w5, w26, w5
 3715 3200 00F1FF54 		beq	.L737
 3716 3204 A2040051 		sub	w2, w5, #1
 3717 3208 000080D2 		mov	x0, 0
 3718 320c 42040091 		add	x2, x2, 1
 3719              		.p2align 3
 3720              	.L738:
 3721 3210 C1686038 		ldrb	w1, [x6, x0]
 3722 3214 216B2038 		strb	w1, [x25, x0]
 3723 3218 00040091 		add	x0, x0, 1
 3724 321c 5F0000EB 		cmp	x2, x0
 3725 3220 81FFFF54 		bne	.L738
 3726 3224 7FFFFF17 		b	.L737
 3727              		.p2align 3
 3728              	.L776:
 3729 3228 E3234339 		ldrb	w3, [sp, 200]
 3730 322c E403142A 		mov	w4, w20
 3731 3230 E2274339 		ldrb	w2, [sp, 201]
 3732 3234 E1031B2A 		mov	w1, w27
 3733 3238 E59B4E29 		ldp	w5, w6, [sp, 116]
 3734 323c E00300B9 		str	w0, [sp]
 3735 3240 E77F40B9 		ldr	w7, [sp, 124]
 3736 3244 00000090 		adrp	x0, .LC10
 3737 3248 00000091 		add	x0, x0, :lo12:.LC10
 3738 324c 00000094 		bl	printf
 3739 3250 E0C740B9 		ldr	w0, [sp, 196]
 3740 3254 5F03006B 		cmp	w26, w0
 3741 3258 E0F2FF54 		beq	.L741
 3742 325c 24018012 		mov	w4, -10
 3743 3260 00000090 		adrp	x0, .LC23
 3744 3264 BFFFFF17 		b	.L773
 3745              		.p2align 3
 3746              	.L769:
 3747 3268 FB03052A 		mov	w27, w5
 3748 326c 44F2FF34 		cbz	w4, .L741
 3749 3270 00000090 		adrp	x0, .LC23
AARCH64 GAS  C:\Users\ldebo\AppData\Local\Temp\ccfW7LPV.s 			page 67


 3750 3274 BBFFFF17 		b	.L773
 3751              		.p2align 3
 3752              	.L746:
 3753 3278 00000090 		adrp	x0, .LC12
 3754 327c E1031B2A 		mov	w1, w27
 3755 3280 00000091 		add	x0, x0, :lo12:.LC12
 3756 3284 00000094 		bl	printf
 3757 3288 E0C740B9 		ldr	w0, [sp, 196]
 3758 328c 5F03006B 		cmp	w26, w0
 3759 3290 20F1FF54 		beq	.L741
 3760 3294 B1FFFF17 		b	.L735
 3761              		.p2align 3
 3762              	.L777:
 3763 3298 00000090 		adrp	x0, .LC11
 3764 329c E1031B2A 		mov	w1, w27
 3765 32a0 00000091 		add	x0, x0, :lo12:.LC11
 3766 32a4 00000094 		bl	printf
 3767 32a8 E0C740B9 		ldr	w0, [sp, 196]
 3768 32ac 5F03006B 		cmp	w26, w0
 3769 32b0 20F0FF54 		beq	.L741
 3770 32b4 A9FFFF17 		b	.L735
 3771              	.L732:
 3772 32b8 E0074339 		ldrb	w0, [sp, 193]
 3773 32bc E6432391 		add	x6, sp, 2256
 3774 32c0 44008052 		mov	w4, 2
 3775 32c4 03008052 		mov	w3, 0
 3776 32c8 00001E32 		orr	w0, w0, 4
 3777 32cc E0070339 		strb	w0, [sp, 193]
 3778 32d0 E05B40F9 		ldr	x0, [sp, 176]
 3779 32d4 E20306AA 		mov	x2, x6
 3780 32d8 E16340F9 		ldr	x1, [sp, 192]
 3781 32dc E64300F9 		str	x6, [sp, 128]
 3782 32e0 00000094 		bl	HCDChannelTransfer
 3783 32e4 A0FCFF35 		cbnz	w0, .L746
 3784 32e8 20008052 		mov	w0, 1
 3785 32ec 05008052 		mov	w5, 0
 3786 32f0 E64340F9 		ldr	x6, [sp, 128]
 3787 32f4 52FFFF17 		b	.L739
 3788              		.size	EnumerateHID, .-EnumerateHID
 3789              		.align	2
 3790 32f8 1F2003D5 		.p2align 4,,15
 3790      1F2003D5 
 3791              		.global	HCDGetDescriptor
 3792              		.type	HCDGetDescriptor, %function
 3793              	HCDGetDescriptor:
 3794 3300 F353B6A9 		stp	x19, x20, [sp, -160]!
 3795 3304 341C1853 		ubfiz	w20, w1, 8, 8
 3796 3308 E8834239 		ldrb	w8, [sp, 160]
 3797 330c F55B01A9 		stp	x21, x22, [sp, 16]
 3798 3310 F603012A 		mov	w22, w1
 3799 3314 F76302A9 		stp	x23, x24, [sp, 32]
 3800 3318 571C0012 		and	w23, w2, 255
 3801 331c F96B03A9 		stp	x25, x26, [sp, 48]
 3802 3320 F503052A 		mov	w21, w5
 3803 3324 FB7304A9 		stp	x27, x28, [sp, 64]
 3804 3328 7A3C0012 		and	w26, w3, 65535
 3805 332c FE2B00F9 		str	x30, [sp, 80]
AARCH64 GAS  C:\Users\ldebo\AppData\Local\Temp\ccfW7LPV.s 			page 68


 3806 3330 FC0304AA 		mov	x28, x4
 3807 3334 E06B00B9 		str	w0, [sp, 104]
 3808 3338 D81C0012 		and	w24, w6, 255
 3809 333c FFF30079 		strh	wzr, [sp, 120]
 3810 3340 F90307AA 		mov	x25, x7
 3811 3344 9402172A 		orr	w20, w20, w23
 3812 3348 FBA74139 		ldrb	w27, [sp, 105]
 3813 334c 88050034 		cbz	w8, .L780
 3814 3350 FF8300B9 		str	wzr, [sp, 128]
 3815 3354 80008052 		mov	w0, 4
 3816 3358 E0070239 		strb	w0, [sp, 129]
 3817 335c C2008052 		mov	w2, 6
 3818 3360 E03740F9 		ldr	x0, [sp, 104]
 3819 3364 060080D2 		mov	x6, 0
 3820 3368 E14340F9 		ldr	x1, [sp, 128]
 3821 336c 45018052 		mov	w5, 10
 3822 3370 E2470239 		strb	w2, [sp, 145]
 3823 3374 42008052 		mov	w2, 2
 3824 3378 F8430239 		strb	w24, [sp, 144]
 3825 337c E4430291 		add	x4, sp, 144
 3826 3380 F4270179 		strh	w20, [sp, 146]
 3827 3384 43008052 		mov	w3, 2
 3828 3388 FA2B0179 		strh	w26, [sp, 148]
 3829 338c E22F0179 		strh	w2, [sp, 150]
 3830 3390 E2E30191 		add	x2, sp, 120
 3831 3394 00000094 		bl	HCDSumbitControlMessage
 3832 3398 F303002A 		mov	w19, w0
 3833 339c A0000035 		cbnz	w0, .L781
 3834 33a0 E0E74139 		ldrb	w0, [sp, 121]
 3835 33a4 1F00166B 		cmp	w0, w22
 3836 33a8 40020054 		beq	.L782
 3837 33ac 13008012 		mov	w19, -1
 3838              	.L781:
 3839 33b0 E503132A 		mov	w5, w19
 3840 33b4 E4031B2A 		mov	w4, w27
 3841 33b8 E303182A 		mov	w3, w24
 3842 33bc E203172A 		mov	w2, w23
 3843 33c0 E103162A 		mov	w1, w22
 3844 33c4 00000090 		adrp	x0, .LC25
 3845 33c8 00000091 		add	x0, x0, :lo12:.LC25
 3846 33cc 00000094 		bl	printf
 3847 33d0 E003132A 		mov	w0, w19
 3848 33d4 FE2B40F9 		ldr	x30, [sp, 80]
 3849 33d8 F55B41A9 		ldp	x21, x22, [sp, 16]
 3850 33dc F76342A9 		ldp	x23, x24, [sp, 32]
 3851 33e0 F96B43A9 		ldp	x25, x26, [sp, 48]
 3852 33e4 FB7344A9 		ldp	x27, x28, [sp, 64]
 3853 33e8 F353CAA8 		ldp	x19, x20, [sp], 160
 3854 33ec C0035FD6 		ret
 3855              		.p2align 3
 3856              	.L782:
 3857 33f0 E0E34139 		ldrb	w0, [sp, 120]
 3858 33f4 BF02006B 		cmp	w21, w0
 3859 33f8 B592801A 		csel	w21, w21, w0, ls
 3860              	.L780:
 3861 33fc FF8B00B9 		str	wzr, [sp, 136]
 3862 3400 80008052 		mov	w0, 4
AARCH64 GAS  C:\Users\ldebo\AppData\Local\Temp\ccfW7LPV.s 			page 69


 3863 3404 E0270239 		strb	w0, [sp, 137]
 3864 3408 C2008052 		mov	w2, 6
 3865 340c E03740F9 		ldr	x0, [sp, 104]
 3866 3410 E6330291 		add	x6, sp, 140
 3867 3414 E14740F9 		ldr	x1, [sp, 136]
 3868 3418 45018052 		mov	w5, 10
 3869 341c F8630239 		strb	w24, [sp, 152]
 3870 3420 E4630291 		add	x4, sp, 152
 3871 3424 E2670239 		strb	w2, [sp, 153]
 3872 3428 E303152A 		mov	w3, w21
 3873 342c F4370179 		strh	w20, [sp, 154]
 3874 3430 E2031CAA 		mov	x2, x28
 3875 3434 FA3B0179 		strh	w26, [sp, 156]
 3876 3438 F53F0179 		strh	w21, [sp, 158]
 3877 343c 00000094 		bl	HCDSumbitControlMessage
 3878 3440 F303002A 		mov	w19, w0
 3879 3444 E08F40B9 		ldr	w0, [sp, 140]
 3880 3448 1F00156B 		cmp	w0, w21
 3881 344c A1010054 		bne	.L786
 3882 3450 B3010035 		cbnz	w19, .L784
 3883              	.L785:
 3884 3454 790000B4 		cbz	x25, .L779
 3885 3458 E08F40B9 		ldr	w0, [sp, 140]
 3886 345c 200300B9 		str	w0, [x25]
 3887              	.L779:
 3888 3460 E003132A 		mov	w0, w19
 3889 3464 FE2B40F9 		ldr	x30, [sp, 80]
 3890 3468 F55B41A9 		ldp	x21, x22, [sp, 16]
 3891 346c F76342A9 		ldp	x23, x24, [sp, 32]
 3892 3470 F96B43A9 		ldp	x25, x26, [sp, 48]
 3893 3474 FB7344A9 		ldp	x27, x28, [sp, 64]
 3894 3478 F353CAA8 		ldp	x19, x20, [sp], 160
 3895 347c C0035FD6 		ret
 3896              		.p2align 3
 3897              	.L786:
 3898 3480 33018012 		mov	w19, -10
 3899              	.L784:
 3900 3484 00000090 		adrp	x0, .LC23
 3901 3488 E403132A 		mov	w4, w19
 3902 348c E3031B2A 		mov	w3, w27
 3903 3490 E203172A 		mov	w2, w23
 3904 3494 E103162A 		mov	w1, w22
 3905 3498 00000091 		add	x0, x0, :lo12:.LC23
 3906 349c 00000094 		bl	printf
 3907 34a0 EDFFFF17 		b	.L785
 3908              		.size	HCDGetDescriptor, .-HCDGetDescriptor
 3909              		.align	2
 3910 34a4 1F2003D5 		.p2align 4,,15
 3910      1F2003D5 
 3910      1F2003D5 
 3911              		.global	HCDReadStringDescriptor
 3912              		.type	HCDReadStringDescriptor, %function
 3913              	HCDReadStringDescriptor:
 3914 34b0 FF0317D1 		sub	sp, sp, #1472
 3915 34b4 5F0000F1 		cmp	x2, 0
 3916 34b8 F35301A9 		stp	x19, x20, [sp, 16]
 3917 34bc F4179F1A 		cset	w20, eq
AARCH64 GAS  C:\Users\ldebo\AppData\Local\Temp\ccfW7LPV.s 			page 70


 3918 34c0 F81F00F9 		str	x24, [sp, 56]
 3919 34c4 211C0072 		ands	w1, w1, 255
 3920 34c8 FE3300F9 		str	x30, [sp, 96]
 3921 34cc 94169F1A 		csinc	w20, w20, wzr, ne
 3922 34d0 E1830E29 		stp	w1, w0, [sp, 116]
 3923 34d4 FFDF00B9 		str	wzr, [sp, 220]
 3924 34d8 FF7F10A9 		stp	xzr, xzr, [sp, 256]
 3925 34dc FF7F11A9 		stp	xzr, xzr, [sp, 272]
 3926 34e0 FF7F12A9 		stp	xzr, xzr, [sp, 288]
 3927 34e4 FF7F13A9 		stp	xzr, xzr, [sp, 304]
 3928 34e8 FF7F14A9 		stp	xzr, xzr, [sp, 320]
 3929 34ec FF7F15A9 		stp	xzr, xzr, [sp, 336]
 3930 34f0 FF7F16A9 		stp	xzr, xzr, [sp, 352]
 3931 34f4 FF7F17A9 		stp	xzr, xzr, [sp, 368]
 3932 34f8 FF7F18A9 		stp	xzr, xzr, [sp, 384]
 3933 34fc FF7F19A9 		stp	xzr, xzr, [sp, 400]
 3934 3500 FF7F1AA9 		stp	xzr, xzr, [sp, 416]
 3935 3504 FF7F1BA9 		stp	xzr, xzr, [sp, 432]
 3936 3508 F3E74139 		ldrb	w19, [sp, 121]
 3937 350c 54400035 		cbnz	w20, .L841
 3938 3510 FF9B00B9 		str	wzr, [sp, 152]
 3939 3514 81008052 		mov	w1, 4
 3940 3518 E1670239 		strb	w1, [sp, 153]
 3941 351c F803002A 		mov	w24, w0
 3942 3520 F55B02A9 		stp	x21, x22, [sp, 32]
 3943 3524 F603032A 		mov	w22, w3
 3944 3528 E19B40B9 		ldr	w1, [sp, 152]
 3945 352c 03D080D2 		mov	x3, 1664
 3946 3530 0360A0F2 		movk	x3, 0x300, lsl 16
 3947 3534 F96B04A9 		stp	x25, x26, [sp, 64]
 3948 3538 F50302AA 		mov	x21, x2
 3949 353c FB7305A9 		stp	x27, x28, [sp, 80]
 3950 3540 4300E0F2 		movk	x3, 0x2, lsl 48
 3951 3544 1A000090 		adrp	x26, .LANCHOR1
 3952 3548 42034039 		ldrb	w2, [x26, #:lo12:.LANCHOR1]
 3953 354c F71B00F9 		str	x23, [sp, 48]
 3954 3550 19070012 		and	w25, w24, 3
 3955 3554 E09300B9 		str	w0, [sp, 144]
 3956 3558 180F42D3 		ubfx	x24, x24, 2, 2
 3957 355c E0AB00B9 		str	w0, [sp, 168]
 3958 3560 5F00136B 		cmp	w2, w19
 3959 3564 E1B300B9 		str	w1, [sp, 176]
 3960 3568 E37300F9 		str	x3, [sp, 224]
 3961 356c FFE30179 		strh	wzr, [sp, 240]
 3962 3570 FC4B4239 		ldrb	w28, [sp, 146]
 3963 3574 FB4F4239 		ldrb	w27, [sp, 147]
 3964 3578 00280054 		beq	.L884
 3965 357c E1FB00B9 		str	w1, [sp, 248]
 3966 3580 64008052 		mov	w4, 3
 3967 3584 E05740F9 		ldr	x0, [sp, 168]
 3968 3588 03018052 		mov	w3, 8
 3969 358c E1E74339 		ldrb	w1, [sp, 249]
 3970 3590 E2830391 		add	x2, sp, 224
 3971 3594 21781D12 		and	w1, w1, -5
 3972 3598 E1E70339 		strb	w1, [sp, 249]
 3973 359c E17F40F9 		ldr	x1, [sp, 248]
 3974 35a0 00000094 		bl	HCDChannelTransfer
AARCH64 GAS  C:\Users\ldebo\AppData\Local\Temp\ccfW7LPV.s 			page 71


 3975 35a4 20300035 		cbnz	w0, .L885
 3976 35a8 E0C74239 		ldrb	w0, [sp, 177]
 3977 35ac E1E74339 		ldrb	w1, [sp, 249]
 3978 35b0 40281037 		tbnz	x0, 2, .L803
 3979 35b4 21001E32 		orr	w1, w1, 4
 3980 35b8 E1E70339 		strb	w1, [sp, 249]
 3981 35bc E05740F9 		ldr	x0, [sp, 168]
 3982 35c0 F7030791 		add	x23, sp, 448
 3983 35c4 E17F40F9 		ldr	x1, [sp, 248]
 3984 35c8 44008052 		mov	w4, 2
 3985 35cc E3C34339 		ldrb	w3, [sp, 240]
 3986 35d0 E2C74339 		ldrb	w2, [sp, 241]
 3987 35d4 E3030739 		strb	w3, [sp, 448]
 3988 35d8 E303042A 		mov	w3, w4
 3989 35dc E2070739 		strb	w2, [sp, 449]
 3990 35e0 E20317AA 		mov	x2, x23
 3991 35e4 00000094 		bl	HCDChannelTransfer
 3992 35e8 80320035 		cbnz	w0, .L835
 3993              	.L804:
 3994 35ec E1C74239 		ldrb	w1, [sp, 177]
 3995 35f0 44008052 		mov	w4, 2
 3996 35f4 E0A34239 		ldrb	w0, [sp, 168]
 3997 35f8 21001E32 		orr	w1, w1, 4
 3998 35fc E3E74339 		ldrb	w3, [sp, 249]
 3999 3600 22007ED2 		eor	x2, x1, 4
 4000 3604 E1C70239 		strb	w1, [sp, 177]
 4001 3608 20070033 		bfi	w0, w25, 0, 2
 4002 360c FCAB0239 		strb	w28, [sp, 170]
 4003 3610 410842D3 		ubfx	x1, x2, 2, 1
 4004 3614 FBAF0239 		strb	w27, [sp, 171]
 4005 3618 00071E33 		bfi	w0, w24, 2, 2
 4006 361c E0A30239 		strb	w0, [sp, 168]
 4007 3620 23001E33 		bfi	w3, w1, 2, 1
 4008 3624 E3E70339 		strb	w3, [sp, 249]
 4009 3628 E05740F9 		ldr	x0, [sp, 168]
 4010 362c 03008052 		mov	w3, 0
 4011 3630 E17F40F9 		ldr	x1, [sp, 248]
 4012 3634 E20317AA 		mov	x2, x23
 4013 3638 00000094 		bl	HCDChannelTransfer
 4014 363c E0320035 		cbnz	w0, .L886
 4015 3640 00000090 		adrp	x0, RPi_IO_Base_Addr
 4016 3644 000040B9 		ldr	w0, [x0, #:lo12:RPi_IO_Base_Addr]
 4017 3648 00006611 		add	w0, w0, 9961472
 4018 364c 00001411 		add	w0, w0, 1280
 4019 3650 001040B9 		ldr	w0, [x0, 16]
 4020              	.L800:
 4021 3654 E0C74339 		ldrb	w0, [sp, 241]
 4022 3658 1F0C0071 		cmp	w0, 3
 4023 365c A0190054 		beq	.L807
 4024 3660 05008012 		mov	w5, -1
 4025              	.L801:
 4026 3664 00000090 		adrp	x0, .LC25
 4027 3668 E403132A 		mov	w4, w19
 4028 366c 03108052 		mov	w3, 128
 4029 3670 02008052 		mov	w2, 0
 4030 3674 61008052 		mov	w1, 3
 4031 3678 00000091 		add	x0, x0, :lo12:.LC25
AARCH64 GAS  C:\Users\ldebo\AppData\Local\Temp\ccfW7LPV.s 			page 72


 4032 367c 00000094 		bl	printf
 4033              	.L808:
 4034 3680 E0DF40B9 		ldr	w0, [sp, 220]
 4035 3684 1F040071 		cmp	w0, 1
 4036 3688 69360054 		bls	.L887
 4037              	.L810:
 4038 368c F8034279 		ldrh	w24, [sp, 256]
 4039 3690 047F0853 		lsr	w4, w24, 8
 4040 3694 9F0C0071 		cmp	w4, 3
 4041 3698 21340054 		bne	.L888
 4042 369c F3E70139 		strb	w19, [sp, 121]
 4043 36a0 80008052 		mov	w0, 4
 4044 36a4 FFC300B9 		str	wzr, [sp, 192]
 4045 36a8 03D080D2 		mov	x3, 1664
 4046 36ac 0360A0F2 		movk	x3, 0x300, lsl 16
 4047 36b0 E0070339 		strb	w0, [sp, 193]
 4048 36b4 4300E0F2 		movk	x3, 0x2, lsl 48
 4049 36b8 E07B40B9 		ldr	w0, [sp, 120]
 4050 36bc E1C340B9 		ldr	w1, [sp, 192]
 4051 36c0 42034039 		ldrb	w2, [x26, #:lo12:.LANCHOR1]
 4052 36c4 F903002A 		mov	w25, w0
 4053 36c8 FF130179 		strh	wzr, [sp, 136]
 4054 36cc 3B070012 		and	w27, w25, 3
 4055 36d0 E0BB00B9 		str	w0, [sp, 184]
 4056 36d4 5F00136B 		cmp	w2, w19
 4057 36d8 E0D300B9 		str	w0, [sp, 208]
 4058 36dc 390F42D3 		ubfx	x25, x25, 2, 2
 4059 36e0 E1DB00B9 		str	w1, [sp, 216]
 4060 36e4 E37B00F9 		str	x3, [sp, 240]
 4061 36e8 FAEB4239 		ldrb	w26, [sp, 186]
 4062 36ec FCEF4239 		ldrb	w28, [sp, 187]
 4063 36f0 401D0054 		beq	.L889
 4064 36f4 E1FB00B9 		str	w1, [sp, 248]
 4065 36f8 03018052 		mov	w3, 8
 4066 36fc E06B40F9 		ldr	x0, [sp, 208]
 4067 3700 E2C30391 		add	x2, sp, 240
 4068 3704 E1E74339 		ldrb	w1, [sp, 249]
 4069 3708 21781D12 		and	w1, w1, -5
 4070 370c E1E70339 		strb	w1, [sp, 249]
 4071 3710 E17F40F9 		ldr	x1, [sp, 248]
 4072 3714 00000094 		bl	HCDChannelTransfer
 4073 3718 802A0035 		cbnz	w0, .L890
 4074 371c E0674339 		ldrb	w0, [sp, 217]
 4075 3720 E1E74339 		ldrb	w1, [sp, 249]
 4076 3724 60201037 		tbnz	x0, 2, .L816
 4077 3728 21001E32 		orr	w1, w1, 4
 4078 372c E1E70339 		strb	w1, [sp, 249]
 4079 3730 E06B40F9 		ldr	x0, [sp, 208]
 4080 3734 F7030791 		add	x23, sp, 448
 4081 3738 E17F40F9 		ldr	x1, [sp, 248]
 4082 373c 44008052 		mov	w4, 2
 4083 3740 E3234239 		ldrb	w3, [sp, 136]
 4084 3744 E2274239 		ldrb	w2, [sp, 137]
 4085 3748 E3030739 		strb	w3, [sp, 448]
 4086 374c E303042A 		mov	w3, w4
 4087 3750 E2070739 		strb	w2, [sp, 449]
 4088 3754 E20317AA 		mov	x2, x23
AARCH64 GAS  C:\Users\ldebo\AppData\Local\Temp\ccfW7LPV.s 			page 73


 4089 3758 00000094 		bl	HCDChannelTransfer
 4090 375c A0270035 		cbnz	w0, .L838
 4091              	.L817:
 4092 3760 E1674339 		ldrb	w1, [sp, 217]
 4093 3764 44008052 		mov	w4, 2
 4094 3768 E0434339 		ldrb	w0, [sp, 208]
 4095 376c 21001E32 		orr	w1, w1, 4
 4096 3770 E3E74339 		ldrb	w3, [sp, 249]
 4097 3774 22007ED2 		eor	x2, x1, 4
 4098 3778 E1670339 		strb	w1, [sp, 217]
 4099 377c 60070033 		bfi	w0, w27, 0, 2
 4100 3780 FA4B0339 		strb	w26, [sp, 210]
 4101 3784 410842D3 		ubfx	x1, x2, 2, 1
 4102 3788 FC4F0339 		strb	w28, [sp, 211]
 4103 378c 20071E33 		bfi	w0, w25, 2, 2
 4104 3790 E0430339 		strb	w0, [sp, 208]
 4105 3794 23001E33 		bfi	w3, w1, 2, 1
 4106 3798 E3E70339 		strb	w3, [sp, 249]
 4107 379c E06B40F9 		ldr	x0, [sp, 208]
 4108 37a0 03008052 		mov	w3, 0
 4109 37a4 E17F40F9 		ldr	x1, [sp, 248]
 4110 37a8 E20317AA 		mov	x2, x23
 4111 37ac 00000094 		bl	HCDChannelTransfer
 4112 37b0 00280035 		cbnz	w0, .L891
 4113 37b4 00000090 		adrp	x0, RPi_IO_Base_Addr
 4114 37b8 000040B9 		ldr	w0, [x0, #:lo12:RPi_IO_Base_Addr]
 4115 37bc 00006611 		add	w0, w0, 9961472
 4116 37c0 00001411 		add	w0, w0, 1280
 4117 37c4 001040B9 		ldr	w0, [x0, 16]
 4118              	.L813:
 4119 37c8 E0274239 		ldrb	w0, [sp, 137]
 4120 37cc 1F0C0071 		cmp	w0, 3
 4121 37d0 C0110054 		beq	.L820
 4122 37d4 05008012 		mov	w5, -1
 4123              	.L814:
 4124 37d8 00000090 		adrp	x0, .LC25
 4125 37dc E403132A 		mov	w4, w19
 4126 37e0 03108052 		mov	w3, 128
 4127 37e4 02008052 		mov	w2, 0
 4128 37e8 61008052 		mov	w1, 3
 4129 37ec 00000091 		add	x0, x0, :lo12:.LC25
 4130 37f0 00000094 		bl	printf
 4131              	.L821:
 4132 37f4 E4034279 		ldrh	w4, [sp, 256]
 4133 37f8 E0DF40B9 		ldr	w0, [sp, 220]
 4134 37fc 1F00246B 		cmp	w0, w4, uxtb
 4135 3800 232A0054 		bcc	.L892
 4136              	.L823:
 4137 3804 841C41D3 		ubfx	x4, x4, 1, 7
 4138 3808 9F040071 		cmp	w4, 1
 4139 380c ED250054 		ble	.L843
 4140 3810 E3074279 		ldrh	w3, [sp, 258]
 4141 3814 7F241071 		cmp	w3, 1033
 4142 3818 00030054 		beq	.L825
 4143 381c 82080051 		sub	w2, w4, #2
 4144 3820 400080D2 		mov	x0, 2
 4145 3824 4200008B 		add	x2, x2, x0
AARCH64 GAS  C:\Users\ldebo\AppData\Local\Temp\ccfW7LPV.s 			page 74


 4146 3828 07000014 		b	.L826
 4147 382c 1F2003D5 		.p2align 3
 4148              	.L827:
 4149 3830 E1030491 		add	x1, sp, 256
 4150 3834 2104008B 		add	x1, x1, x0, lsl 1
 4151 3838 23E05F78 		ldrh	w3, [x1, -2]
 4152 383c 7F241071 		cmp	w3, 1033
 4153 3840 C0010054 		beq	.L825
 4154              	.L826:
 4155 3844 5F0000EB 		cmp	x2, x0
 4156 3848 E103002A 		mov	w1, w0
 4157 384c 00040091 		add	x0, x0, 1
 4158 3850 01FFFF54 		bne	.L827
 4159              	.L824:
 4160 3854 23818052 		mov	w3, 1033
 4161 3858 9F00016B 		cmp	w4, w1
 4162 385c E1000054 		bne	.L825
 4163 3860 00000090 		adrp	x0, .LC29
 4164 3864 E103132A 		mov	w1, w19
 4165 3868 00000091 		add	x0, x0, :lo12:.LC29
 4166 386c 00000094 		bl	printf
 4167 3870 E3074279 		ldrh	w3, [sp, 258]
 4168 3874 34008052 		mov	w20, 1
 4169              	.L825:
 4170 3878 F3E70139 		strb	w19, [sp, 121]
 4171 387c 38008052 		mov	w24, 1
 4172 3880 E2D34139 		ldrb	w2, [sp, 116]
 4173 3884 E7730391 		add	x7, sp, 220
 4174 3888 E03F40F9 		ldr	x0, [sp, 120]
 4175 388c E60F8012 		mov	w6, -128
 4176 3890 F8030039 		strb	w24, [sp]
 4177 3894 45008052 		mov	w5, 2
 4178 3898 E4230291 		add	x4, sp, 136
 4179 389c 61008052 		mov	w1, 3
 4180 38a0 00000094 		bl	HCDGetDescriptor
 4181 38a4 60210035 		cbnz	w0, .L828
 4182 38a8 E0DF40B9 		ldr	w0, [sp, 220]
 4183 38ac 1F080071 		cmp	w0, 2
 4184 38b0 01210054 		bne	.L828
 4185 38b4 E5234239 		ldrb	w5, [sp, 136]
 4186 38b8 9F020071 		cmp	w20, 0
 4187 38bc E2D34139 		ldrb	w2, [sp, 116]
 4188 38c0 21818052 		mov	w1, 1033
 4189 38c4 E03F40F9 		ldr	x0, [sp, 120]
 4190 38c8 F7030791 		add	x23, sp, 448
 4191 38cc E3074279 		ldrh	w3, [sp, 258]
 4192 38d0 E7730391 		add	x7, sp, 220
 4193 38d4 F8030039 		strb	w24, [sp]
 4194 38d8 E60F8012 		mov	w6, -128
 4195 38dc 6310811A 		csel	w3, w3, w1, ne
 4196 38e0 E40317AA 		mov	x4, x23
 4197 38e4 61008052 		mov	w1, 3
 4198 38e8 00000094 		bl	HCDGetDescriptor
 4199 38ec F803002A 		mov	w24, w0
 4200 38f0 60200035 		cbnz	w0, .L831
 4201 38f4 E0234239 		ldrb	w0, [sp, 136]
 4202 38f8 E1DF40B9 		ldr	w1, [sp, 220]
AARCH64 GAS  C:\Users\ldebo\AppData\Local\Temp\ccfW7LPV.s 			page 75


 4203 38fc 1F00016B 		cmp	w0, w1
 4204 3900 E11F0054 		bne	.L831
 4205 3904 F4020035 		cbnz	w20, .L833
 4206 3908 00080051 		sub	w0, w0, #2
 4207 390c 1F040071 		cmp	w0, 1
 4208 3910 8D020054 		ble	.L833
 4209 3914 DF060071 		cmp	w22, 1
 4210 3918 40020054 		beq	.L833
 4211 391c D60A0051 		sub	w22, w22, #2
 4212 3920 B4060091 		add	x20, x21, 1
 4213 3924 D60A0091 		add	x22, x22, 2
 4214 3928 330080D2 		mov	x19, 1
 4215 392c 03000014 		b	.L834
 4216              		.p2align 3
 4217              	.L893:
 4218 3930 7F0216EB 		cmp	x19, x22
 4219 3934 60010054 		beq	.L833
 4220              	.L834:
 4221 3938 E07A7378 		ldrh	w0, [x23, x19, lsl 1]
 4222 393c F50314AA 		mov	x21, x20
 4223 3940 94060091 		add	x20, x20, 1
 4224 3944 00000094 		bl	wctob
 4225 3948 80E21F38 		strb	w0, [x20, -2]
 4226 394c E1234239 		ldrb	w1, [sp, 136]
 4227 3950 21080051 		sub	w1, w1, #2
 4228 3954 7F06816B 		cmp	w19, w1, asr 1
 4229 3958 73060091 		add	x19, x19, 1
 4230 395c ABFEFF54 		blt	.L893
 4231              	.L833:
 4232 3960 BF020039 		strb	wzr, [x21]
 4233 3964 F55B42A9 		ldp	x21, x22, [sp, 32]
 4234 3968 F71B40F9 		ldr	x23, [sp, 48]
 4235 396c F96B44A9 		ldp	x25, x26, [sp, 64]
 4236 3970 FB7345A9 		ldp	x27, x28, [sp, 80]
 4237              	.L797:
 4238 3974 E003182A 		mov	w0, w24
 4239 3978 F35341A9 		ldp	x19, x20, [sp, 16]
 4240 397c F81F40F9 		ldr	x24, [sp, 56]
 4241 3980 FE3340F9 		ldr	x30, [sp, 96]
 4242 3984 FF031791 		add	sp, sp, 1472
 4243 3988 C0035FD6 		ret
 4244 398c 1F2003D5 		.p2align 3
 4245              	.L807:
 4246 3990 F8C34339 		ldrb	w24, [sp, 240]
 4247 3994 023F0012 		and	w2, w24, 65535
 4248 3998 1F070071 		cmp	w24, 1
 4249 399c 69000054 		bls	.L837
 4250 39a0 42008052 		mov	w2, 2
 4251 39a4 F803022A 		mov	w24, w2
 4252              	.L837:
 4253 39a8 FFA300B9 		str	wzr, [sp, 160]
 4254 39ac 80008052 		mov	w0, 4
 4255 39b0 F3470239 		strb	w19, [sp, 145]
 4256 39b4 03D08052 		mov	w3, 1664
 4257 39b8 0360A072 		movk	w3, 0x300, lsl 16
 4258 39bc E3EB00B9 		str	w3, [sp, 232]
 4259 39c0 E0870239 		strb	w0, [sp, 161]
AARCH64 GAS  C:\Users\ldebo\AppData\Local\Temp\ccfW7LPV.s 			page 76


 4260 39c4 E6030791 		add	x6, sp, 448
 4261 39c8 E04B40F9 		ldr	x0, [sp, 144]
 4262 39cc 45018052 		mov	w5, 10
 4263 39d0 E15340F9 		ldr	x1, [sp, 160]
 4264 39d4 E4A30391 		add	x4, sp, 232
 4265 39d8 FFDB0179 		strh	wzr, [sp, 236]
 4266 39dc E303182A 		mov	w3, w24
 4267 39e0 E2DF0179 		strh	w2, [sp, 238]
 4268 39e4 E2030491 		add	x2, sp, 256
 4269 39e8 00000094 		bl	HCDSumbitControlMessage
 4270 39ec E1C341B9 		ldr	w1, [sp, 448]
 4271 39f0 1F03016B 		cmp	w24, w1
 4272 39f4 210F0054 		bne	.L842
 4273 39f8 200F0035 		cbnz	w0, .L809
 4274 39fc F8DF00B9 		str	w24, [sp, 220]
 4275 3a00 23FFFF17 		b	.L810
 4276 3a04 1F2003D5 		.p2align 3
 4277              	.L820:
 4278 3a08 FFCB00B9 		str	wzr, [sp, 200]
 4279 3a0c 80008052 		mov	w0, 4
 4280 3a10 F3E70239 		strb	w19, [sp, 185]
 4281 3a14 181F0012 		and	w24, w24, 255
 4282 3a18 E0270339 		strb	w0, [sp, 201]
 4283 3a1c 03D08052 		mov	w3, 1664
 4284 3a20 0360A072 		movk	w3, 0x300, lsl 16
 4285 3a24 E3FB00B9 		str	w3, [sp, 248]
 4286 3a28 E2234239 		ldrb	w2, [sp, 136]
 4287 3a2c E6030791 		add	x6, sp, 448
 4288 3a30 E05F40F9 		ldr	x0, [sp, 184]
 4289 3a34 45018052 		mov	w5, 10
 4290 3a38 E16740F9 		ldr	x1, [sp, 200]
 4291 3a3c 1F03026B 		cmp	w24, w2
 4292 3a40 1893821A 		csel	w24, w24, w2, ls
 4293 3a44 FFFB0179 		strh	wzr, [sp, 252]
 4294 3a48 F8FF0179 		strh	w24, [sp, 254]
 4295 3a4c E4E30391 		add	x4, sp, 248
 4296 3a50 E2030491 		add	x2, sp, 256
 4297 3a54 E303182A 		mov	w3, w24
 4298 3a58 00000094 		bl	HCDSumbitControlMessage
 4299 3a5c E1C341B9 		ldr	w1, [sp, 448]
 4300 3a60 3F00186B 		cmp	w1, w24
 4301 3a64 210D0054 		bne	.L894
 4302 3a68 200D0035 		cbnz	w0, .L822
 4303 3a6c E4034279 		ldrh	w4, [sp, 256]
 4304 3a70 E1DF00B9 		str	w1, [sp, 220]
 4305 3a74 64FFFF17 		b	.L823
 4306              		.p2align 3
 4307              	.L884:
 4308 3a78 030080D2 		mov	x3, 0
 4309 3a7c E2830391 		add	x2, sp, 224
 4310 3a80 41008052 		mov	w1, 2
 4311 3a84 E0C30391 		add	x0, sp, 240
 4312 3a88 00000094 		bl	HcdProcessRootHubMessage
 4313 3a8c E503002A 		mov	w5, w0
 4314 3a90 A0DEFF35 		cbnz	w0, .L801
 4315 3a94 F0FEFF17 		b	.L800
 4316              		.p2align 3
AARCH64 GAS  C:\Users\ldebo\AppData\Local\Temp\ccfW7LPV.s 			page 77


 4317              	.L889:
 4318 3a98 030080D2 		mov	x3, 0
 4319 3a9c E2C30391 		add	x2, sp, 240
 4320 3aa0 41008052 		mov	w1, 2
 4321 3aa4 E0230291 		add	x0, sp, 136
 4322 3aa8 00000094 		bl	HcdProcessRootHubMessage
 4323 3aac E503002A 		mov	w5, w0
 4324 3ab0 40E9FF35 		cbnz	w0, .L814
 4325 3ab4 45FFFF17 		b	.L813
 4326              		.p2align 3
 4327              	.L803:
 4328 3ab8 21001E32 		orr	w1, w1, 4
 4329 3abc E1E70339 		strb	w1, [sp, 249]
 4330 3ac0 E05740F9 		ldr	x0, [sp, 168]
 4331 3ac4 F7030791 		add	x23, sp, 448
 4332 3ac8 E17F40F9 		ldr	x1, [sp, 248]
 4333 3acc 44008052 		mov	w4, 2
 4334 3ad0 E20317AA 		mov	x2, x23
 4335 3ad4 E303042A 		mov	w3, w4
 4336 3ad8 00000094 		bl	HCDChannelTransfer
 4337 3adc E00A0035 		cbnz	w0, .L835
 4338 3ae0 00000090 		adrp	x0, RPi_IO_Base_Addr
 4339 3ae4 000040B9 		ldr	w0, [x0, #:lo12:RPi_IO_Base_Addr]
 4340 3ae8 00006611 		add	w0, w0, 9961472
 4341 3aec 00001411 		add	w0, w0, 1280
 4342 3af0 001040B9 		ldr	w0, [x0, 16]
 4343 3af4 004840D3 		ubfx	x0, x0, 0, 19
 4344 3af8 1F080071 		cmp	w0, 2
 4345 3afc 80D7FF54 		beq	.L804
 4346 3b00 22008052 		mov	w2, 1
 4347 3b04 4200004B 		sub	w2, w2, w0
 4348 3b08 42040091 		add	x2, x2, 1
 4349 3b0c E3C30391 		add	x3, sp, 240
 4350 3b10 000080D2 		mov	x0, 0
 4351 3b14 1F2003D5 		.p2align 3
 4352              	.L805:
 4353 3b18 E16A6038 		ldrb	w1, [x23, x0]
 4354 3b1c 61682038 		strb	w1, [x3, x0]
 4355 3b20 00040091 		add	x0, x0, 1
 4356 3b24 5F0000EB 		cmp	x2, x0
 4357 3b28 81FFFF54 		bne	.L805
 4358 3b2c B0FEFF17 		b	.L804
 4359              		.p2align 3
 4360              	.L816:
 4361 3b30 21001E32 		orr	w1, w1, 4
 4362 3b34 E1E70339 		strb	w1, [sp, 249]
 4363 3b38 E06B40F9 		ldr	x0, [sp, 208]
 4364 3b3c F7030791 		add	x23, sp, 448
 4365 3b40 E17F40F9 		ldr	x1, [sp, 248]
 4366 3b44 44008052 		mov	w4, 2
 4367 3b48 E20317AA 		mov	x2, x23
 4368 3b4c E303042A 		mov	w3, w4
 4369 3b50 00000094 		bl	HCDChannelTransfer
 4370 3b54 E0070035 		cbnz	w0, .L838
 4371 3b58 00000090 		adrp	x0, RPi_IO_Base_Addr
 4372 3b5c 000040B9 		ldr	w0, [x0, #:lo12:RPi_IO_Base_Addr]
 4373 3b60 00006611 		add	w0, w0, 9961472
AARCH64 GAS  C:\Users\ldebo\AppData\Local\Temp\ccfW7LPV.s 			page 78


 4374 3b64 00001411 		add	w0, w0, 1280
 4375 3b68 001040B9 		ldr	w0, [x0, 16]
 4376 3b6c 004840D3 		ubfx	x0, x0, 0, 19
 4377 3b70 1F080071 		cmp	w0, 2
 4378 3b74 60DFFF54 		beq	.L817
 4379 3b78 22008052 		mov	w2, 1
 4380 3b7c 4200004B 		sub	w2, w2, w0
 4381 3b80 42040091 		add	x2, x2, 1
 4382 3b84 E3230291 		add	x3, sp, 136
 4383 3b88 000080D2 		mov	x0, 0
 4384 3b8c 1F2003D5 		.p2align 3
 4385              	.L818:
 4386 3b90 E16A6038 		ldrb	w1, [x23, x0]
 4387 3b94 61682038 		strb	w1, [x3, x0]
 4388 3b98 00040091 		add	x0, x0, 1
 4389 3b9c 5F0000EB 		cmp	x2, x0
 4390 3ba0 81FFFF54 		bne	.L818
 4391 3ba4 EFFEFF17 		b	.L817
 4392              		.p2align 3
 4393              	.L885:
 4394 3ba8 E3834339 		ldrb	w3, [sp, 224]
 4395 3bac E7031B2A 		mov	w7, w27
 4396 3bb0 E2874339 		ldrb	w2, [sp, 225]
 4397 3bb4 E6031C2A 		mov	w6, w28
 4398 3bb8 E00300B9 		str	w0, [sp]
 4399 3bbc E503192A 		mov	w5, w25
 4400 3bc0 E403182A 		mov	w4, w24
 4401 3bc4 E103132A 		mov	w1, w19
 4402 3bc8 00000090 		adrp	x0, .LC10
 4403 3bcc 00000091 		add	x0, x0, :lo12:.LC10
 4404 3bd0 00000094 		bl	printf
 4405 3bd4 A0FEFF17 		b	.L800
 4406              		.p2align 3
 4407              	.L842:
 4408 3bd8 20018012 		mov	w0, -10
 4409              	.L809:
 4410 3bdc 05000090 		adrp	x5, .LC23
 4411 3be0 E403002A 		mov	w4, w0
 4412 3be4 E303132A 		mov	w3, w19
 4413 3be8 02008052 		mov	w2, 0
 4414 3bec 61008052 		mov	w1, 3
 4415 3bf0 A0000091 		add	x0, x5, :lo12:.LC23
 4416 3bf4 00000094 		bl	printf
 4417 3bf8 E0C341B9 		ldr	w0, [sp, 448]
 4418 3bfc E0DF00B9 		str	w0, [sp, 220]
 4419 3c00 A0FEFF17 		b	.L808
 4420 3c04 1F2003D5 		.p2align 3
 4421              	.L894:
 4422 3c08 20018012 		mov	w0, -10
 4423              	.L822:
 4424 3c0c 05000090 		adrp	x5, .LC23
 4425 3c10 E403002A 		mov	w4, w0
 4426 3c14 E303132A 		mov	w3, w19
 4427 3c18 02008052 		mov	w2, 0
 4428 3c1c 61008052 		mov	w1, 3
 4429 3c20 A0000091 		add	x0, x5, :lo12:.LC23
 4430 3c24 00000094 		bl	printf
AARCH64 GAS  C:\Users\ldebo\AppData\Local\Temp\ccfW7LPV.s 			page 79


 4431 3c28 E0C341B9 		ldr	w0, [sp, 448]
 4432 3c2c E0DF00B9 		str	w0, [sp, 220]
 4433 3c30 F1FEFF17 		b	.L821
 4434 3c34 1F2003D5 		.p2align 3
 4435              	.L835:
 4436 3c38 00000090 		adrp	x0, .LC12
 4437 3c3c E103132A 		mov	w1, w19
 4438 3c40 00000091 		add	x0, x0, :lo12:.LC12
 4439 3c44 00000094 		bl	printf
 4440 3c48 83FEFF17 		b	.L800
 4441 3c4c 1F2003D5 		.p2align 3
 4442              	.L838:
 4443 3c50 00000090 		adrp	x0, .LC12
 4444 3c54 E103132A 		mov	w1, w19
 4445 3c58 00000091 		add	x0, x0, :lo12:.LC12
 4446 3c5c 00000094 		bl	printf
 4447 3c60 DAFEFF17 		b	.L813
 4448 3c64 1F2003D5 		.p2align 3
 4449              	.L890:
 4450 3c68 E3C34339 		ldrb	w3, [sp, 240]
 4451 3c6c E7031C2A 		mov	w7, w28
 4452 3c70 E2C74339 		ldrb	w2, [sp, 241]
 4453 3c74 E6031A2A 		mov	w6, w26
 4454 3c78 E00300B9 		str	w0, [sp]
 4455 3c7c E5031B2A 		mov	w5, w27
 4456 3c80 E403192A 		mov	w4, w25
 4457 3c84 E103132A 		mov	w1, w19
 4458 3c88 00000090 		adrp	x0, .LC10
 4459 3c8c 00000091 		add	x0, x0, :lo12:.LC10
 4460 3c90 00000094 		bl	printf
 4461 3c94 CDFEFF17 		b	.L813
 4462              		.p2align 3
 4463              	.L886:
 4464 3c98 00000090 		adrp	x0, .LC11
 4465 3c9c E103132A 		mov	w1, w19
 4466 3ca0 00000091 		add	x0, x0, :lo12:.LC11
 4467 3ca4 00000094 		bl	printf
 4468 3ca8 6BFEFF17 		b	.L800
 4469 3cac 1F2003D5 		.p2align 3
 4470              	.L891:
 4471 3cb0 00000090 		adrp	x0, .LC11
 4472 3cb4 E103132A 		mov	w1, w19
 4473 3cb8 00000091 		add	x0, x0, :lo12:.LC11
 4474 3cbc 00000094 		bl	printf
 4475 3cc0 C2FEFF17 		b	.L813
 4476 3cc4 1F2003D5 		.p2align 3
 4477              	.L843:
 4478 3cc8 21008052 		mov	w1, 1
 4479 3ccc E2FEFF17 		b	.L824
 4480              	.L828:
 4481 3cd0 E17740B9 		ldr	w1, [sp, 116]
 4482 3cd4 00000090 		adrp	x0, .LC30
 4483 3cd8 E203132A 		mov	w2, w19
 4484 3cdc 00000091 		add	x0, x0, :lo12:.LC30
 4485 3ce0 78008012 		mov	w24, -4
 4486              	.L883:
 4487 3ce4 00000094 		bl	printf
AARCH64 GAS  C:\Users\ldebo\AppData\Local\Temp\ccfW7LPV.s 			page 80


 4488 3ce8 F71B40F9 		ldr	x23, [sp, 48]
 4489 3cec F55B42A9 		ldp	x21, x22, [sp, 32]
 4490 3cf0 F96B44A9 		ldp	x25, x26, [sp, 64]
 4491 3cf4 FB7345A9 		ldp	x27, x28, [sp, 80]
 4492 3cf8 1FFFFF17 		b	.L797
 4493              	.L831:
 4494 3cfc 00000090 		adrp	x0, .LC31
 4495 3d00 E203132A 		mov	w2, w19
 4496 3d04 00000091 		add	x0, x0, :lo12:.LC31
 4497 3d08 38008012 		mov	w24, -2
 4498 3d0c E17740B9 		ldr	w1, [sp, 116]
 4499 3d10 F5FFFF17 		b	.L883
 4500              	.L841:
 4501 3d14 38008012 		mov	w24, -2
 4502 3d18 17FFFF17 		b	.L797
 4503              	.L888:
 4504 3d1c 00000090 		adrp	x0, .LC27
 4505 3d20 E103132A 		mov	w1, w19
 4506 3d24 00000091 		add	x0, x0, :lo12:.LC27
 4507              	.L882:
 4508 3d28 00000094 		bl	printf
 4509 3d2c 38008012 		mov	w24, -2
 4510 3d30 F55B42A9 		ldp	x21, x22, [sp, 32]
 4511 3d34 F71B40F9 		ldr	x23, [sp, 48]
 4512 3d38 F96B44A9 		ldp	x25, x26, [sp, 64]
 4513 3d3c FB7345A9 		ldp	x27, x28, [sp, 80]
 4514 3d40 0DFFFF17 		b	.L797
 4515              	.L892:
 4516 3d44 00000090 		adrp	x0, .LC28
 4517 3d48 E103132A 		mov	w1, w19
 4518 3d4c 00000091 		add	x0, x0, :lo12:.LC28
 4519 3d50 F6FFFF17 		b	.L882
 4520              	.L887:
 4521 3d54 00000090 		adrp	x0, .LC26
 4522 3d58 E103132A 		mov	w1, w19
 4523 3d5c 00000091 		add	x0, x0, :lo12:.LC26
 4524 3d60 F2FFFF17 		b	.L882
 4525              		.size	HCDReadStringDescriptor, .-HCDReadStringDescriptor
 4526              		.align	2
 4527 3d64 1F2003D5 		.p2align 4,,15
 4527      1F2003D5 
 4527      1F2003D5 
 4528              		.global	IsHub
 4529              		.type	IsHub, %function
 4530              	IsHub:
 4531 3d70 001C0012 		and	w0, w0, 255
 4532 3d74 00040051 		sub	w0, w0, #1
 4533 3d78 011C0012 		and	w1, w0, 255
 4534 3d7c 3F7C0071 		cmp	w1, 31
 4535 3d80 88010054 		bhi	.L897
 4536 3d84 01000090 		adrp	x1, DeviceTable
 4537 3d88 22000091 		add	x2, x1, :lo12:DeviceTable
 4538 3d8c 017C4093 		sxtw	x1, w0
 4539 3d90 037F80D2 		mov	x3, 1016
 4540 3d94 00008052 		mov	w0, 0
 4541 3d98 2108039B 		madd	x1, x1, x3, x2
 4542 3d9c 22E843B9 		ldr	w2, [x1, 1000]
AARCH64 GAS  C:\Users\ldebo\AppData\Local\Temp\ccfW7LPV.s 			page 81


 4543 3da0 5F080071 		cmp	w2, 2
 4544 3da4 A0000054 		beq	.L899
 4545 3da8 C0035FD6 		ret
 4546 3dac 1F2003D5 		.p2align 3
 4547              	.L897:
 4548 3db0 00008052 		mov	w0, 0
 4549 3db4 C0035FD6 		ret
 4550              		.p2align 3
 4551              	.L899:
 4552 3db8 20F841F9 		ldr	x0, [x1, 1008]
 4553 3dbc 1F0000F1 		cmp	x0, 0
 4554 3dc0 E0079F1A 		cset	w0, ne
 4555 3dc4 C0035FD6 		ret
 4556              		.size	IsHub, .-IsHub
 4557              		.align	2
 4558 3dc8 1F2003D5 		.p2align 4,,15
 4558      1F2003D5 
 4559              		.global	IsHid
 4560              		.type	IsHid, %function
 4561              	IsHid:
 4562 3dd0 001C0012 		and	w0, w0, 255
 4563 3dd4 00040051 		sub	w0, w0, #1
 4564 3dd8 011C0012 		and	w1, w0, 255
 4565 3ddc 3F7C0071 		cmp	w1, 31
 4566 3de0 88010054 		bhi	.L902
 4567 3de4 01000090 		adrp	x1, DeviceTable
 4568 3de8 22000091 		add	x2, x1, :lo12:DeviceTable
 4569 3dec 017C4093 		sxtw	x1, w0
 4570 3df0 037F80D2 		mov	x3, 1016
 4571 3df4 00008052 		mov	w0, 0
 4572 3df8 2108039B 		madd	x1, x1, x3, x2
 4573 3dfc 22E843B9 		ldr	w2, [x1, 1000]
 4574 3e00 5F0C0071 		cmp	w2, 3
 4575 3e04 A0000054 		beq	.L904
 4576 3e08 C0035FD6 		ret
 4577 3e0c 1F2003D5 		.p2align 3
 4578              	.L902:
 4579 3e10 00008052 		mov	w0, 0
 4580 3e14 C0035FD6 		ret
 4581              		.p2align 3
 4582              	.L904:
 4583 3e18 20F841F9 		ldr	x0, [x1, 1008]
 4584 3e1c 1F0000F1 		cmp	x0, 0
 4585 3e20 E0079F1A 		cset	w0, ne
 4586 3e24 C0035FD6 		ret
 4587              		.size	IsHid, .-IsHid
 4588              		.align	2
 4589 3e28 1F2003D5 		.p2align 4,,15
 4589      1F2003D5 
 4590              		.global	IsMassStorage
 4591              		.type	IsMassStorage, %function
 4592              	IsMassStorage:
 4593 3e30 001C0012 		and	w0, w0, 255
 4594 3e34 00040051 		sub	w0, w0, #1
 4595 3e38 011C0012 		and	w1, w0, 255
 4596 3e3c 3F7C0071 		cmp	w1, 31
 4597 3e40 88010054 		bhi	.L907
AARCH64 GAS  C:\Users\ldebo\AppData\Local\Temp\ccfW7LPV.s 			page 82


 4598 3e44 01000090 		adrp	x1, DeviceTable
 4599 3e48 22000091 		add	x2, x1, :lo12:DeviceTable
 4600 3e4c 017C4093 		sxtw	x1, w0
 4601 3e50 037F80D2 		mov	x3, 1016
 4602 3e54 00008052 		mov	w0, 0
 4603 3e58 2108039B 		madd	x1, x1, x3, x2
 4604 3e5c 22E843B9 		ldr	w2, [x1, 1000]
 4605 3e60 5F100071 		cmp	w2, 4
 4606 3e64 A0000054 		beq	.L909
 4607 3e68 C0035FD6 		ret
 4608 3e6c 1F2003D5 		.p2align 3
 4609              	.L907:
 4610 3e70 00008052 		mov	w0, 0
 4611 3e74 C0035FD6 		ret
 4612              		.p2align 3
 4613              	.L909:
 4614 3e78 20F841F9 		ldr	x0, [x1, 1008]
 4615 3e7c 1F0000F1 		cmp	x0, 0
 4616 3e80 E0079F1A 		cset	w0, ne
 4617 3e84 C0035FD6 		ret
 4618              		.size	IsMassStorage, .-IsMassStorage
 4619              		.align	2
 4620 3e88 1F2003D5 		.p2align 4,,15
 4620      1F2003D5 
 4621              		.global	IsMouse
 4622              		.type	IsMouse, %function
 4623              	IsMouse:
 4624 3e90 001C0012 		and	w0, w0, 255
 4625 3e94 00040051 		sub	w0, w0, #1
 4626 3e98 011C0012 		and	w1, w0, 255
 4627 3e9c 3F7C0071 		cmp	w1, 31
 4628 3ea0 88010054 		bhi	.L912
 4629 3ea4 01000090 		adrp	x1, DeviceTable
 4630 3ea8 22000091 		add	x2, x1, :lo12:DeviceTable
 4631 3eac 017C4093 		sxtw	x1, w0
 4632 3eb0 037F80D2 		mov	x3, 1016
 4633 3eb4 00008052 		mov	w0, 0
 4634 3eb8 2108039B 		madd	x1, x1, x3, x2
 4635 3ebc 22E843B9 		ldr	w2, [x1, 1000]
 4636 3ec0 5F0C0071 		cmp	w2, 3
 4637 3ec4 A0000054 		beq	.L916
 4638              	.L911:
 4639 3ec8 C0035FD6 		ret
 4640 3ecc 1F2003D5 		.p2align 3
 4641              	.L912:
 4642 3ed0 00008052 		mov	w0, 0
 4643 3ed4 C0035FD6 		ret
 4644              		.p2align 3
 4645              	.L916:
 4646 3ed8 22F841F9 		ldr	x2, [x1, 1008]
 4647 3edc 62FFFFB4 		cbz	x2, .L911
 4648 3ee0 20504039 		ldrb	w0, [x1, 20]
 4649 3ee4 1F080071 		cmp	w0, 2
 4650 3ee8 E0179F1A 		cset	w0, eq
 4651 3eec C0035FD6 		ret
 4652              		.size	IsMouse, .-IsMouse
 4653              		.align	2
AARCH64 GAS  C:\Users\ldebo\AppData\Local\Temp\ccfW7LPV.s 			page 83


 4654              		.p2align 4,,15
 4655              		.global	IsKeyboard
 4656              		.type	IsKeyboard, %function
 4657              	IsKeyboard:
 4658 3ef0 001C0012 		and	w0, w0, 255
 4659 3ef4 00040051 		sub	w0, w0, #1
 4660 3ef8 011C0012 		and	w1, w0, 255
 4661 3efc 3F7C0071 		cmp	w1, 31
 4662 3f00 88010054 		bhi	.L919
 4663 3f04 01000090 		adrp	x1, DeviceTable
 4664 3f08 22000091 		add	x2, x1, :lo12:DeviceTable
 4665 3f0c 017C4093 		sxtw	x1, w0
 4666 3f10 037F80D2 		mov	x3, 1016
 4667 3f14 00008052 		mov	w0, 0
 4668 3f18 2108039B 		madd	x1, x1, x3, x2
 4669 3f1c 22E843B9 		ldr	w2, [x1, 1000]
 4670 3f20 5F0C0071 		cmp	w2, 3
 4671 3f24 A0000054 		beq	.L923
 4672              	.L918:
 4673 3f28 C0035FD6 		ret
 4674 3f2c 1F2003D5 		.p2align 3
 4675              	.L919:
 4676 3f30 00008052 		mov	w0, 0
 4677 3f34 C0035FD6 		ret
 4678              		.p2align 3
 4679              	.L923:
 4680 3f38 22F841F9 		ldr	x2, [x1, 1008]
 4681 3f3c 62FFFFB4 		cbz	x2, .L918
 4682 3f40 20504039 		ldrb	w0, [x1, 20]
 4683 3f44 1F040071 		cmp	w0, 1
 4684 3f48 E0179F1A 		cset	w0, eq
 4685 3f4c C0035FD6 		ret
 4686              		.size	IsKeyboard, .-IsKeyboard
 4687              		.align	2
 4688              		.p2align 4,,15
 4689              		.global	UsbGetRootHub
 4690              		.type	UsbGetRootHub, %function
 4691              	UsbGetRootHub:
 4692 3f50 00000090 		adrp	x0, DeviceTable
 4693 3f54 00000091 		add	x0, x0, :lo12:DeviceTable
 4694 3f58 01E843B9 		ldr	w1, [x0, 1000]
 4695 3f5c 3F000071 		cmp	w1, 0
 4696 3f60 00109F9A 		csel	x0, x0, xzr, ne
 4697 3f64 C0035FD6 		ret
 4698              		.size	UsbGetRootHub, .-UsbGetRootHub
 4699              		.align	2
 4700 3f68 1F2003D5 		.p2align 4,,15
 4700      1F2003D5 
 4701              		.global	UsbDeviceAtAddress
 4702              		.type	UsbDeviceAtAddress, %function
 4703              	UsbDeviceAtAddress:
 4704 3f70 001C0072 		ands	w0, w0, 255
 4705 3f74 A0010054 		beq	.L929
 4706 3f78 00040051 		sub	w0, w0, #1
 4707 3f7c 01000090 		adrp	x1, DeviceTable
 4708 3f80 21000091 		add	x1, x1, :lo12:DeviceTable
 4709 3f84 027C4093 		sxtw	x2, w0
AARCH64 GAS  C:\Users\ldebo\AppData\Local\Temp\ccfW7LPV.s 			page 84


 4710 3f88 037F80D2 		mov	x3, 1016
 4711 3f8c 007C239B 		smull	x0, w0, w3
 4712 3f90 4204039B 		madd	x2, x2, x3, x1
 4713 3f94 0000018B 		add	x0, x0, x1
 4714 3f98 41E843B9 		ldr	w1, [x2, 1000]
 4715 3f9c 3F000071 		cmp	w1, 0
 4716 3fa0 00109F9A 		csel	x0, x0, xzr, ne
 4717 3fa4 C0035FD6 		ret
 4718              		.p2align 3
 4719              	.L929:
 4720 3fa8 000080D2 		mov	x0, 0
 4721 3fac C0035FD6 		ret
 4722              		.size	UsbDeviceAtAddress, .-UsbDeviceAtAddress
 4723              		.align	2
 4724              		.p2align 4,,15
 4725              		.global	UsbGetDescription
 4726              		.type	UsbGetDescription, %function
 4727              	UsbGetDescription:
 4728 3fb0 01284039 		ldrb	w1, [x0, 10]
 4729 3fb4 21020034 		cbz	w1, .L963
 4730 3fb8 3F040071 		cmp	w1, 1
 4731 3fbc 60020054 		beq	.L964
 4732 3fc0 02000090 		adrp	x2, DeviceTable
 4733 3fc4 42000091 		add	x2, x2, :lo12:DeviceTable
 4734 3fc8 1F0002EB 		cmp	x0, x2
 4735 3fcc 60050054 		beq	.L965
 4736 3fd0 02644F39 		ldrb	w2, [x0, 985]
 4737 3fd4 5F240071 		cmp	w2, 9
 4738 3fd8 C0060054 		beq	.L947
 4739 3fdc 5FFC0371 		cmp	w2, 255
 4740 3fe0 C0010054 		beq	.L934
 4741 3fe4 62080034 		cbz	w2, .L996
 4742              	.L973:
 4743 3fe8 00000090 		adrp	x0, .LANCHOR2
 4744 3fec 00000091 		add	x0, x0, :lo12:.LANCHOR2
 4745 3ff0 00400491 		add	x0, x0, 272
 4746 3ff4 C0035FD6 		ret
 4747              		.p2align 3
 4748              	.L963:
 4749 3ff8 00000090 		adrp	x0, .LANCHOR2
 4750 3ffc 00000091 		add	x0, x0, :lo12:.LANCHOR2
 4751 4000 C0035FD6 		ret
 4752 4004 1F2003D5 		.p2align 3
 4753              	.L964:
 4754 4008 00000090 		adrp	x0, .LANCHOR2
 4755 400c 00000091 		add	x0, x0, :lo12:.LANCHOR2
 4756 4010 00600091 		add	x0, x0, 24
 4757 4014 C0035FD6 		ret
 4758              		.p2align 3
 4759              	.L934:
 4760 4018 02DC43B9 		ldr	w2, [x0, 988]
 4761 401c 425C48D3 		ubfx	x2, x2, 8, 16
 4762 4020 5F901071 		cmp	w2, 1060
 4763 4024 A0070054 		beq	.L997
 4764              	.L936:
 4765 4028 3F100071 		cmp	w1, 4
 4766 402c E1060054 		bne	.L998
AARCH64 GAS  C:\Users\ldebo\AppData\Local\Temp\ccfW7LPV.s 			page 85


 4767              	.L962:
 4768 4030 01484039 		ldrb	w1, [x0, 18]
 4769 4034 3F280071 		cmp	w1, 10
 4770 4038 60110054 		beq	.L937
 4771 403c 69020054 		bls	.L999
 4772 4040 00000090 		adrp	x0, .LANCHOR2
 4773 4044 00000091 		add	x0, x0, :lo12:.LANCHOR2
 4774 4048 3F400071 		cmp	w1, 16
 4775 404c 40100054 		beq	.L948
 4776 4050 48080054 		bhi	.L949
 4777 4054 3F340071 		cmp	w1, 13
 4778 4058 200E0054 		beq	.L950
 4779 405c 490A0054 		bls	.L1000
 4780 4060 3F380071 		cmp	w1, 14
 4781 4064 C00F0054 		beq	.L953
 4782 4068 00200691 		add	x0, x0, 392
 4783 406c 3F3C0071 		cmp	w1, 15
 4784 4070 C1FBFF54 		bne	.L973
 4785 4074 C0035FD6 		ret
 4786              		.p2align 3
 4787              	.L965:
 4788 4078 00000090 		adrp	x0, .LANCHOR2
 4789 407c 00000091 		add	x0, x0, :lo12:.LANCHOR2
 4790 4080 00E00091 		add	x0, x0, 56
 4791 4084 C0035FD6 		ret
 4792              		.p2align 3
 4793              	.L999:
 4794 4088 3F140071 		cmp	w1, 5
 4795 408c 000D0054 		beq	.L939
 4796 4090 69070054 		bls	.L1001
 4797 4094 3F1C0071 		cmp	w1, 7
 4798 4098 E0090054 		beq	.L944
 4799 409c 43090054 		bcc	.L945
 4800 40a0 3F200071 		cmp	w1, 8
 4801 40a4 000D0054 		beq	.L946
 4802 40a8 3F240071 		cmp	w1, 9
 4803 40ac E1F9FF54 		bne	.L973
 4804              		.p2align 3
 4805              	.L947:
 4806 40b0 025C4F39 		ldrb	w2, [x0, 983]
 4807 40b4 01604F39 		ldrb	w1, [x0, 984]
 4808 40b8 00000090 		adrp	x0, .LANCHOR2
 4809 40bc 00000091 		add	x0, x0, :lo12:.LANCHOR2
 4810 40c0 4120012A 		orr	w1, w2, w1, lsl 8
 4811 40c4 3F400871 		cmp	w1, 528
 4812 40c8 C0030054 		beq	.L975
 4813 40cc 3F000871 		cmp	w1, 512
 4814 40d0 C0030054 		beq	.L976
 4815 40d4 3F400471 		cmp	w1, 272
 4816 40d8 C0030054 		beq	.L977
 4817 40dc 02E00191 		add	x2, x0, 120
 4818 40e0 3F000471 		cmp	w1, 256
 4819 40e4 00200291 		add	x0, x0, 136
 4820 40e8 0010829A 		csel	x0, x0, x2, ne
 4821 40ec C0035FD6 		ret
 4822              		.p2align 3
 4823              	.L996:
AARCH64 GAS  C:\Users\ldebo\AppData\Local\Temp\ccfW7LPV.s 			page 86


 4824 40f0 3F100071 		cmp	w1, 4
 4825 40f4 E0F9FF54 		beq	.L962
 4826 40f8 00000090 		adrp	x0, .LANCHOR2
 4827 40fc 00000091 		add	x0, x0, :lo12:.LANCHOR2
 4828 4100 00400391 		add	x0, x0, 208
 4829 4104 C0035FD6 		ret
 4830              		.p2align 3
 4831              	.L998:
 4832 4108 00000090 		adrp	x0, .LANCHOR2
 4833 410c 00000091 		add	x0, x0, :lo12:.LANCHOR2
 4834 4110 00E00291 		add	x0, x0, 184
 4835 4114 C0035FD6 		ret
 4836              		.p2align 3
 4837              	.L997:
 4838 4118 047C4F39 		ldrb	w4, [x0, 991]
 4839 411c 03809D52 		mov	w3, 60416
 4840 4120 02804F39 		ldrb	w2, [x0, 992]
 4841 4124 8220022A 		orr	w2, w4, w2, lsl 8
 4842 4128 5F00036B 		cmp	w2, w3
 4843 412c E1F7FF54 		bne	.L936
 4844 4130 00000090 		adrp	x0, .LANCHOR2
 4845 4134 00000091 		add	x0, x0, :lo12:.LANCHOR2
 4846 4138 00600291 		add	x0, x0, 152
 4847 413c C0035FD6 		ret
 4848              		.p2align 3
 4849              	.L975:
 4850 4140 00200191 		add	x0, x0, 72
 4851 4144 C0035FD6 		ret
 4852              		.p2align 3
 4853              	.L976:
 4854 4148 00600191 		add	x0, x0, 88
 4855 414c C0035FD6 		ret
 4856              		.p2align 3
 4857              	.L977:
 4858 4150 00A00191 		add	x0, x0, 104
 4859 4154 C0035FD6 		ret
 4860              	.L949:
 4861 4158 3F800371 		cmp	w1, 224
 4862 415c 40060054 		beq	.L955
 4863 4160 A9020054 		bls	.L1002
 4864 4164 3FBC0371 		cmp	w1, 239
 4865 4168 A0060054 		beq	.L958
 4866 416c 00E00291 		add	x0, x0, 184
 4867 4170 3FFC0371 		cmp	w1, 255
 4868 4174 A1F3FF54 		bne	.L973
 4869 4178 C0035FD6 		ret
 4870              	.L1001:
 4871 417c 3F080071 		cmp	w1, 2
 4872 4180 60040054 		beq	.L941
 4873 4184 3F0C0071 		cmp	w1, 3
 4874 4188 E0020054 		beq	.L942
 4875 418c 3F040071 		cmp	w1, 1
 4876 4190 C1F2FF54 		bne	.L973
 4877 4194 00000090 		adrp	x0, .LANCHOR2
 4878 4198 00000091 		add	x0, x0, :lo12:.LANCHOR2
 4879 419c 00E00391 		add	x0, x0, 248
 4880 41a0 C0035FD6 		ret
AARCH64 GAS  C:\Users\ldebo\AppData\Local\Temp\ccfW7LPV.s 			page 87


 4881              	.L1000:
 4882 41a4 00600791 		add	x0, x0, 472
 4883 41a8 3F2C0071 		cmp	w1, 11
 4884 41ac E1F1FF54 		bne	.L973
 4885 41b0 C0035FD6 		ret
 4886              	.L1002:
 4887 41b4 00800591 		add	x0, x0, 352
 4888 41b8 3F700371 		cmp	w1, 220
 4889 41bc 61F1FF54 		bne	.L973
 4890 41c0 C0035FD6 		ret
 4891              	.L945:
 4892 41c4 00000090 		adrp	x0, .LANCHOR2
 4893 41c8 00000091 		add	x0, x0, :lo12:.LANCHOR2
 4894 41cc 00400891 		add	x0, x0, 528
 4895 41d0 C0035FD6 		ret
 4896              	.L944:
 4897 41d4 00000090 		adrp	x0, .LANCHOR2
 4898 41d8 00000091 		add	x0, x0, :lo12:.LANCHOR2
 4899 41dc 00A00391 		add	x0, x0, 232
 4900 41e0 C0035FD6 		ret
 4901              	.L942:
 4902 41e4 01504039 		ldrb	w1, [x0, 20]
 4903 41e8 00000090 		adrp	x0, .LANCHOR2
 4904 41ec 00000091 		add	x0, x0, :lo12:.LANCHOR2
 4905 41f0 3F040071 		cmp	w1, 1
 4906 41f4 00040054 		beq	.L974
 4907 41f8 02000991 		add	x2, x0, 576
 4908 41fc 3F080071 		cmp	w1, 2
 4909 4200 00400991 		add	x0, x0, 592
 4910 4204 0000829A 		csel	x0, x0, x2, eq
 4911 4208 C0035FD6 		ret
 4912              	.L941:
 4913 420c 00000090 		adrp	x0, .LANCHOR2
 4914 4210 00000091 		add	x0, x0, :lo12:.LANCHOR2
 4915 4214 00A00291 		add	x0, x0, 168
 4916 4218 C0035FD6 		ret
 4917              	.L950:
 4918 421c 00E00691 		add	x0, x0, 440
 4919 4220 C0035FD6 		ret
 4920              	.L955:
 4921 4224 00000591 		add	x0, x0, 320
 4922 4228 C0035FD6 		ret
 4923              	.L939:
 4924 422c 00000090 		adrp	x0, .LANCHOR2
 4925 4230 00000091 		add	x0, x0, :lo12:.LANCHOR2
 4926 4234 00A00891 		add	x0, x0, 552
 4927 4238 C0035FD6 		ret
 4928              	.L958:
 4929 423c 00800491 		add	x0, x0, 288
 4930 4240 C0035FD6 		ret
 4931              	.L946:
 4932 4244 00000090 		adrp	x0, .LANCHOR2
 4933 4248 00000091 		add	x0, x0, :lo12:.LANCHOR2
 4934 424c 00800991 		add	x0, x0, 608
 4935 4250 C0035FD6 		ret
 4936              	.L948:
 4937 4254 00E00591 		add	x0, x0, 376
AARCH64 GAS  C:\Users\ldebo\AppData\Local\Temp\ccfW7LPV.s 			page 88


 4938 4258 C0035FD6 		ret
 4939              	.L953:
 4940 425c 00800691 		add	x0, x0, 416
 4941 4260 C0035FD6 		ret
 4942              	.L937:
 4943 4264 00000090 		adrp	x0, .LANCHOR2
 4944 4268 00000091 		add	x0, x0, :lo12:.LANCHOR2
 4945 426c 00A00791 		add	x0, x0, 488
 4946 4270 C0035FD6 		ret
 4947              	.L974:
 4948 4274 00000891 		add	x0, x0, 512
 4949 4278 C0035FD6 		ret
 4950              		.size	UsbGetDescription, .-UsbGetDescription
 4951              		.align	2
 4952 427c 1F2003D5 		.p2align 4,,15
 4953              		.global	HubPortReset
 4954              		.type	HubPortReset, %function
 4955              	HubPortReset:
 4956 4280 F353B4A9 		stp	x19, x20, [sp, -192]!
 4957 4284 F91B00F9 		str	x25, [sp, 48]
 4958 4288 FE2B00F9 		str	x30, [sp, 80]
 4959 428c 19144039 		ldrb	w25, [x0, 5]
 4960 4290 22070051 		sub	w2, w25, #1
 4961 4294 431C0012 		and	w3, w2, 255
 4962 4298 7F7C0071 		cmp	w3, 31
 4963 429c 08190054 		bhi	.L1020
 4964 42a0 03000090 		adrp	x3, DeviceTable
 4965 42a4 63000091 		add	x3, x3, :lo12:DeviceTable
 4966 42a8 427C4093 		sxtw	x2, w2
 4967 42ac 047F80D2 		mov	x4, 1016
 4968 42b0 420C049B 		madd	x2, x2, x4, x3
 4969 42b4 43E843B9 		ldr	w3, [x2, 1000]
 4970 42b8 7F080071 		cmp	w3, 2
 4971 42bc 01180054 		bne	.L1020
 4972 42c0 42F841F9 		ldr	x2, [x2, 1008]
 4973 42c4 C21700B4 		cbz	x2, .L1020
 4974 42c8 211C0012 		and	w1, w1, 255
 4975 42cc F55B01A9 		stp	x21, x22, [sp, 16]
 4976 42d0 F50300AA 		mov	x21, x0
 4977 42d4 20040011 		add	w0, w1, 1
 4978 42d8 E103002A 		mov	w1, w0
 4979 42dc E16B00B9 		str	w1, [sp, 104]
 4980 42e0 221C0072 		ands	w2, w1, 255
 4981 42e4 01048052 		mov	w1, 32
 4982 42e8 F76302A9 		stp	x23, x24, [sp, 32]
 4983 42ec 60048052 		mov	w0, 35
 4984 42f0 573C0012 		and	w23, w2, 65535
 4985 42f4 0010811A 		csel	w0, w0, w1, ne
 4986 42f8 B4120091 		add	x20, x21, 4
 4987 42fc 01148052 		mov	w1, 160
 4988 4300 5F000071 		cmp	w2, 0
 4989 4304 76148052 		mov	w22, 163
 4990 4308 FAEF03A9 		stp	x26, x27, [sp, 56]
 4991 430c D612811A 		csel	w22, w22, w1, ne
 4992 4310 98008052 		mov	w24, 4
 4993 4314 61008052 		mov	w1, 3
 4994 4318 FC2700F9 		str	x28, [sp, 72]
AARCH64 GAS  C:\Users\ldebo\AppData\Local\Temp\ccfW7LPV.s 			page 89


 4995 431c E26300B9 		str	w2, [sp, 96]
 4996 4320 E16700B9 		str	w1, [sp, 100]
 4997 4324 E06F00B9 		str	w0, [sp, 108]
 4998              	.L1015:
 4999 4328 800240B9 		ldr	w0, [x20]
 5000 432c E2A30291 		add	x2, sp, 168
 5001 4330 E07B00B9 		str	w0, [sp, 120]
 5002 4334 E0B34139 		ldrb	w0, [sp, 108]
 5003 4338 F9E70139 		strb	w25, [sp, 121]
 5004 433c FF8300B9 		str	wzr, [sp, 128]
 5005 4340 E0A30239 		strb	w0, [sp, 168]
 5006 4344 60008052 		mov	w0, 3
 5007 4348 E0A70239 		strb	w0, [sp, 169]
 5008 434c E08747A9 		ldp	x0, x1, [sp, 120]
 5009 4350 F8570179 		strh	w24, [sp, 170]
 5010 4354 F75B0179 		strh	w23, [sp, 172]
 5011 4358 FF5F0179 		strh	wzr, [sp, 174]
 5012 435c D5F4FF97 		bl	HCDSumbitControlMessage.constprop.13
 5013 4360 F303002A 		mov	w19, w0
 5014 4364 60090035 		cbnz	w0, .L1034
 5015 4368 1A008052 		mov	w26, 0
 5016 436c 0B000014 		b	.L1005
 5017              		.p2align 3
 5018              	.L1007:
 5019 4370 E0A340B9 		ldr	w0, [sp, 160]
 5020 4374 5A070011 		add	w26, w26, 1
 5021 4378 1F0C0071 		cmp	w0, 3
 5022 437c 49120054 		bls	.L1035
 5023 4380 E0BB40B9 		ldr	w0, [sp, 184]
 5024 4384 015C50D3 		ubfx	x1, x0, 16, 8
 5025 4388 C1062037 		tbnz	x1, 4, .L1011
 5026 438c A0060837 		tbnz	x0, 1, .L1011
 5027 4390 5F2B0071 		cmp	w26, 10
 5028 4394 20070054 		beq	.L1012
 5029              	.L1005:
 5030 4398 00C489D2 		mov	x0, 20000
 5031 439c 00000094 		bl	timer_wait
 5032 43a0 800240B9 		ldr	w0, [x20]
 5033 43a4 E4830291 		add	x4, sp, 160
 5034 43a8 E08B00B9 		str	w0, [sp, 136]
 5035 43ac E3C30291 		add	x3, sp, 176
 5036 43b0 FF9300B9 		str	wzr, [sp, 144]
 5037 43b4 80008052 		mov	w0, 4
 5038 43b8 BC164039 		ldrb	w28, [x21, 5]
 5039 43bc E2E30291 		add	x2, sp, 184
 5040 43c0 FC270239 		strb	w28, [sp, 137]
 5041 43c4 E0470239 		strb	w0, [sp, 145]
 5042 43c8 93024039 		ldrb	w19, [x20]
 5043 43cc E08748A9 		ldp	x0, x1, [sp, 136]
 5044 43d0 FFB300B9 		str	wzr, [sp, 176]
 5045 43d4 79060012 		and	w25, w19, 3
 5046 43d8 FFA300B9 		str	wzr, [sp, 160]
 5047 43dc F6C30239 		strb	w22, [sp, 176]
 5048 43e0 730E42D3 		ubfx	x19, x19, 2, 2
 5049 43e4 F76B0179 		strh	w23, [sp, 180]
 5050 43e8 F86F0179 		strh	w24, [sp, 182]
 5051 43ec FFBB00B9 		str	wzr, [sp, 184]
AARCH64 GAS  C:\Users\ldebo\AppData\Local\Temp\ccfW7LPV.s 			page 90


 5052 43f0 E0F5FF97 		bl	HCDSumbitControlMessage.constprop.14
 5053 43f4 FB03002A 		mov	w27, w0
 5054 43f8 C0FBFF34 		cbz	w0, .L1007
 5055 43fc E26340B9 		ldr	w2, [sp, 96]
 5056 4400 00000090 		adrp	x0, .LC14
 5057 4404 E503192A 		mov	w5, w25
 5058 4408 E403132A 		mov	w4, w19
 5059 440c E3031B2A 		mov	w3, w27
 5060 4410 E1031C2A 		mov	w1, w28
 5061 4414 00000091 		add	x0, x0, :lo12:.LC14
 5062 4418 00000094 		bl	printf
 5063              	.L1008:
 5064 441c E00315AA 		mov	x0, x21
 5065 4420 00000094 		bl	UsbGetDescription
 5066 4424 E26B40B9 		ldr	w2, [sp, 104]
 5067 4428 E10300AA 		mov	x1, x0
 5068 442c F3031B2A 		mov	w19, w27
 5069 4430 00000090 		adrp	x0, .LC63
 5070 4434 00000091 		add	x0, x0, :lo12:.LC63
 5071              	.L1033:
 5072 4438 00000094 		bl	printf
 5073 443c FC2740F9 		ldr	x28, [sp, 72]
 5074 4440 F55B41A9 		ldp	x21, x22, [sp, 16]
 5075 4444 F76342A9 		ldp	x23, x24, [sp, 32]
 5076 4448 FAEF43A9 		ldp	x26, x27, [sp, 56]
 5077              	.L1003:
 5078 444c E003132A 		mov	w0, w19
 5079 4450 F91B40F9 		ldr	x25, [sp, 48]
 5080 4454 FE2B40F9 		ldr	x30, [sp, 80]
 5081 4458 F353CCA8 		ldp	x19, x20, [sp], 192
 5082 445c C0035FD6 		ret
 5083              		.p2align 3
 5084              	.L1011:
 5085 4460 5F2B0071 		cmp	w26, 10
 5086 4464 A0000054 		beq	.L1012
 5087 4468 C10B0037 		tbnz	x1, 0, .L1023
 5088 446c 001C0012 		and	w0, w0, 255
 5089 4470 800B0036 		tbz	x0, 0, .L1023
 5090 4474 80030837 		tbnz	x0, 1, .L1013
 5091              	.L1012:
 5092 4478 E06740B9 		ldr	w0, [sp, 100]
 5093 447c 00040071 		subs	w0, w0, #1
 5094 4480 E06700B9 		str	w0, [sp, 100]
 5095 4484 E0060054 		beq	.L1014
 5096 4488 B9164039 		ldrb	w25, [x21, 5]
 5097 448c A7FFFF17 		b	.L1015
 5098              		.p2align 3
 5099              	.L1034:
 5100 4490 E26340B9 		ldr	w2, [sp, 96]
 5101 4494 E103192A 		mov	w1, w25
 5102 4498 24008052 		mov	w4, 1
 5103 449c 83008052 		mov	w3, 4
 5104 44a0 00000090 		adrp	x0, .LC16
 5105 44a4 00000091 		add	x0, x0, :lo12:.LC16
 5106 44a8 00000094 		bl	printf
 5107 44ac A1164039 		ldrb	w1, [x21, 5]
 5108 44b0 00000090 		adrp	x0, .LC62
AARCH64 GAS  C:\Users\ldebo\AppData\Local\Temp\ccfW7LPV.s 			page 91


 5109 44b4 E26B40B9 		ldr	w2, [sp, 104]
 5110 44b8 00000091 		add	x0, x0, :lo12:.LC62
 5111 44bc 00000094 		bl	printf
 5112 44c0 F91B40F9 		ldr	x25, [sp, 48]
 5113 44c4 F55B41A9 		ldp	x21, x22, [sp, 16]
 5114 44c8 E003132A 		mov	w0, w19
 5115 44cc F76342A9 		ldp	x23, x24, [sp, 32]
 5116 44d0 FAEF43A9 		ldp	x26, x27, [sp, 56]
 5117 44d4 FC2740F9 		ldr	x28, [sp, 72]
 5118 44d8 FE2B40F9 		ldr	x30, [sp, 80]
 5119 44dc F353CCA8 		ldp	x19, x20, [sp], 192
 5120 44e0 C0035FD6 		ret
 5121              	.L1013:
 5122 44e4 A00640B9 		ldr	w0, [x21, 4]
 5123 44e8 03048052 		mov	w3, 32
 5124 44ec E09B00B9 		str	w0, [sp, 152]
 5125 44f0 24008052 		mov	w4, 1
 5126 44f4 B4164039 		ldrb	w20, [x21, 5]
 5127 44f8 62048052 		mov	w2, 35
 5128 44fc E06340B9 		ldr	w0, [sp, 96]
 5129 4500 F4670239 		strb	w20, [sp, 153]
 5130 4504 FFA300B9 		str	wzr, [sp, 160]
 5131 4508 1F000071 		cmp	w0, 0
 5132 450c 4210831A 		csel	w2, w2, w3, ne
 5133 4510 83028052 		mov	w3, 20
 5134 4514 E08749A9 		ldp	x0, x1, [sp, 152]
 5135 4518 E2E30239 		strb	w2, [sp, 184]
 5136 451c E4E70239 		strb	w4, [sp, 185]
 5137 4520 E2E30291 		add	x2, sp, 184
 5138 4524 E3770179 		strh	w3, [sp, 186]
 5139 4528 F77B0179 		strh	w23, [sp, 188]
 5140 452c FF7F0179 		strh	wzr, [sp, 190]
 5141 4530 60F4FF97 		bl	HCDSumbitControlMessage.constprop.13
 5142 4534 F303002A 		mov	w19, w0
 5143 4538 40020035 		cbnz	w0, .L1031
 5144 453c F55B41A9 		ldp	x21, x22, [sp, 16]
 5145 4540 E003132A 		mov	w0, w19
 5146 4544 F76342A9 		ldp	x23, x24, [sp, 32]
 5147 4548 F91B40F9 		ldr	x25, [sp, 48]
 5148 454c FAEF43A9 		ldp	x26, x27, [sp, 56]
 5149 4550 FC2740F9 		ldr	x28, [sp, 72]
 5150 4554 FE2B40F9 		ldr	x30, [sp, 80]
 5151 4558 F353CCA8 		ldp	x19, x20, [sp], 192
 5152 455c C0035FD6 		ret
 5153              		.p2align 3
 5154              	.L1014:
 5155 4560 E00315AA 		mov	x0, x21
 5156 4564 00000094 		bl	UsbGetDescription
 5157 4568 73008012 		mov	w19, -4
 5158 456c E10300AA 		mov	x1, x0
 5159 4570 E26B40B9 		ldr	w2, [sp, 104]
 5160 4574 00000090 		adrp	x0, .LC65
 5161 4578 00000091 		add	x0, x0, :lo12:.LC65
 5162 457c AFFFFF17 		b	.L1033
 5163              		.p2align 3
 5164              	.L1031:
 5165 4580 E26340B9 		ldr	w2, [sp, 96]
AARCH64 GAS  C:\Users\ldebo\AppData\Local\Temp\ccfW7LPV.s 			page 92


 5166 4584 E103142A 		mov	w1, w20
 5167 4588 04008052 		mov	w4, 0
 5168 458c 83028052 		mov	w3, 20
 5169 4590 00000090 		adrp	x0, .LC16
 5170 4594 00000091 		add	x0, x0, :lo12:.LC16
 5171 4598 13008052 		mov	w19, 0
 5172 459c 00000094 		bl	printf
 5173 45a0 E00315AA 		mov	x0, x21
 5174 45a4 00000094 		bl	UsbGetDescription
 5175 45a8 E26B40B9 		ldr	w2, [sp, 104]
 5176 45ac E10300AA 		mov	x1, x0
 5177 45b0 00000090 		adrp	x0, .LC64
 5178 45b4 00000091 		add	x0, x0, :lo12:.LC64
 5179 45b8 A0FFFF17 		b	.L1033
 5180              	.L1020:
 5181 45bc 73008012 		mov	w19, -4
 5182 45c0 A3FFFF17 		b	.L1003
 5183              	.L1035:
 5184 45c4 E26340B9 		ldr	w2, [sp, 96]
 5185 45c8 00000090 		adrp	x0, .LC15
 5186 45cc E1031C2A 		mov	w1, w28
 5187 45d0 7B008012 		mov	w27, -4
 5188 45d4 00000091 		add	x0, x0, :lo12:.LC15
 5189 45d8 00000094 		bl	printf
 5190 45dc 90FFFF17 		b	.L1008
 5191              	.L1023:
 5192 45e0 73008012 		mov	w19, -4
 5193 45e4 FC2740F9 		ldr	x28, [sp, 72]
 5194 45e8 F55B41A9 		ldp	x21, x22, [sp, 16]
 5195 45ec F76342A9 		ldp	x23, x24, [sp, 32]
 5196 45f0 FAEF43A9 		ldp	x26, x27, [sp, 56]
 5197 45f4 96FFFF17 		b	.L1003
 5198              		.size	HubPortReset, .-HubPortReset
 5199              		.align	2
 5200 45f8 1F2003D5 		.p2align 4,,15
 5200      1F2003D5 
 5201              		.global	HubCheckConnection
 5202              		.type	HubCheckConnection, %function
 5203              	HubCheckConnection:
 5204 4600 F353B2A9 		stp	x19, x20, [sp, -224]!
 5205 4604 F55B01A9 		stp	x21, x22, [sp, 16]
 5206 4608 361C0012 		and	w22, w1, 255
 5207 460c FCFB04A9 		stp	x28, x30, [sp, 72]
 5208 4610 1C144039 		ldrb	w28, [x0, 5]
 5209 4614 81070051 		sub	w1, w28, #1
 5210 4618 221C0012 		and	w2, w1, 255
 5211 461c 5F7C0071 		cmp	w2, 31
 5212 4620 48200054 		bhi	.L1062
 5213 4624 02000090 		adrp	x2, DeviceTable
 5214 4628 42000091 		add	x2, x2, :lo12:DeviceTable
 5215 462c 217C4093 		sxtw	x1, w1
 5216 4630 037F80D2 		mov	x3, 1016
 5217 4634 2108039B 		madd	x1, x1, x3, x2
 5218 4638 22E843B9 		ldr	w2, [x1, 1000]
 5219 463c 5F080071 		cmp	w2, 2
 5220 4640 411F0054 		bne	.L1062
 5221 4644 21F841F9 		ldr	x1, [x1, 1008]
AARCH64 GAS  C:\Users\ldebo\AppData\Local\Temp\ccfW7LPV.s 			page 93


 5222 4648 011F00B4 		cbz	x1, .L1062
 5223 464c 14104039 		ldrb	w20, [x0, 4]
 5224 4650 F30300AA 		mov	x19, x0
 5225 4654 000440B9 		ldr	w0, [x0, 4]
 5226 4658 63148052 		mov	w3, 163
 5227 465c E06B00B9 		str	w0, [sp, 104]
 5228 4660 02148052 		mov	w2, 160
 5229 4664 FF7300B9 		str	wzr, [sp, 112]
 5230 4668 80008052 		mov	w0, 4
 5231 466c FCA70139 		strb	w28, [sp, 105]
 5232 4670 E4430391 		add	x4, sp, 208
 5233 4674 E0C70139 		strb	w0, [sp, 113]
 5234 4678 F76302A9 		stp	x23, x24, [sp, 32]
 5235 467c D7060011 		add	w23, w22, 1
 5236 4680 E08746A9 		ldp	x0, x1, [sp, 104]
 5237 4684 F81E0072 		ands	w24, w23, 255
 5238 4688 4200831A 		csel	w2, w2, w3, eq
 5239 468c FFBB00B9 		str	wzr, [sp, 184]
 5240 4690 83008052 		mov	w3, 4
 5241 4694 F96B03A9 		stp	x25, x26, [sp, 48]
 5242 4698 FB2300F9 		str	x27, [sp, 64]
 5243 469c 9A060012 		and	w26, w20, 3
 5244 46a0 E2E30239 		strb	w2, [sp, 184]
 5245 46a4 193F0012 		and	w25, w24, 65535
 5246 46a8 F97B0179 		strh	w25, [sp, 188]
 5247 46ac E2630391 		add	x2, sp, 216
 5248 46b0 E37F0179 		strh	w3, [sp, 190]
 5249 46b4 940E42D3 		ubfx	x20, x20, 2, 2
 5250 46b8 E3E30291 		add	x3, sp, 184
 5251 46bc FFD300B9 		str	wzr, [sp, 208]
 5252 46c0 FFDB00B9 		str	wzr, [sp, 216]
 5253 46c4 7BFA41F9 		ldr	x27, [x19, 1008]
 5254 46c8 2AF5FF97 		bl	HCDSumbitControlMessage.constprop.14
 5255 46cc F503002A 		mov	w21, w0
 5256 46d0 80020035 		cbnz	w0, .L1087
 5257 46d4 E0D340B9 		ldr	w0, [sp, 208]
 5258 46d8 1F0C0071 		cmp	w0, 3
 5259 46dc A91A0054 		bls	.L1088
 5260 46e0 F4DB40B9 		ldr	w20, [sp, 216]
 5261 46e4 9A5E50D3 		ubfx	x26, x20, 16, 8
 5262 46e8 1A050037 		tbnz	x26, 0, .L1089
 5263 46ec 941E0012 		and	w20, w20, 255
 5264 46f0 5A130837 		tbnz	x26, 1, .L1090
 5265              	.L1045:
 5266 46f4 B40E1037 		tbnz	x20, 2, .L1091
 5267              	.L1050:
 5268 46f8 5A051837 		tbnz	x26, 3, .L1092
 5269              	.L1054:
 5270 46fc BA092037 		tbnz	x26, 4, .L1093
 5271              	.L1086:
 5272 4700 F76342A9 		ldp	x23, x24, [sp, 32]
 5273 4704 F96B43A9 		ldp	x25, x26, [sp, 48]
 5274 4708 FB2340F9 		ldr	x27, [sp, 64]
 5275              	.L1036:
 5276 470c E003152A 		mov	w0, w21
 5277 4710 F55B41A9 		ldp	x21, x22, [sp, 16]
 5278 4714 FCFB44A9 		ldp	x28, x30, [sp, 72]
AARCH64 GAS  C:\Users\ldebo\AppData\Local\Temp\ccfW7LPV.s 			page 94


 5279 4718 F353CEA8 		ldp	x19, x20, [sp], 224
 5280 471c C0035FD6 		ret
 5281              		.p2align 3
 5282              	.L1087:
 5283 4720 00000090 		adrp	x0, .LC14
 5284 4724 E5031A2A 		mov	w5, w26
 5285 4728 E403142A 		mov	w4, w20
 5286 472c E303152A 		mov	w3, w21
 5287 4730 E203182A 		mov	w2, w24
 5288 4734 E1031C2A 		mov	w1, w28
 5289 4738 00000091 		add	x0, x0, :lo12:.LC14
 5290 473c 00000094 		bl	printf
 5291 4740 BF2E0031 		cmn	w21, #11
 5292 4744 E0FDFF54 		beq	.L1086
 5293              	.L1040:
 5294 4748 E00313AA 		mov	x0, x19
 5295 474c 00000094 		bl	UsbGetDescription
 5296 4750 03000090 		adrp	x3, .LC66
 5297 4754 E203172A 		mov	w2, w23
 5298 4758 E10300AA 		mov	x1, x0
 5299 475c 60000091 		add	x0, x3, :lo12:.LC66
 5300 4760 00000094 		bl	printf
 5301 4764 FB2340F9 		ldr	x27, [sp, 64]
 5302 4768 F76342A9 		ldp	x23, x24, [sp, 32]
 5303 476c E003152A 		mov	w0, w21
 5304 4770 F55B41A9 		ldp	x21, x22, [sp, 16]
 5305 4774 F96B43A9 		ldp	x25, x26, [sp, 48]
 5306 4778 FCFB44A9 		ldp	x28, x30, [sp, 72]
 5307 477c F353CEA8 		ldp	x19, x20, [sp], 224
 5308 4780 C0035FD6 		ret
 5309 4784 1F2003D5 		.p2align 3
 5310              	.L1089:
 5311 4788 E103162A 		mov	w1, w22
 5312 478c E00313AA 		mov	x0, x19
 5313 4790 941E0012 		and	w20, w20, 255
 5314 4794 00000094 		bl	HubPortConnectionChanged
 5315 4798 FAFA0F36 		tbz	x26, 1, .L1045
 5316 479c 6F000014 		b	.L1090
 5317              		.p2align 3
 5318              	.L1092:
 5319 47a0 600640B9 		ldr	w0, [x19, 4]
 5320 47a4 63048052 		mov	w3, 35
 5321 47a8 E09B00B9 		str	w0, [sp, 152]
 5322 47ac 1F030071 		cmp	w24, 0
 5323 47b0 74164039 		ldrb	w20, [x19, 5]
 5324 47b4 02048052 		mov	w2, 32
 5325 47b8 F4670239 		strb	w20, [sp, 153]
 5326 47bc 4200831A 		csel	w2, w2, w3, eq
 5327 47c0 FFA300B9 		str	wzr, [sp, 160]
 5328 47c4 24008052 		mov	w4, 1
 5329 47c8 63028052 		mov	w3, 19
 5330 47cc E2430339 		strb	w2, [sp, 208]
 5331 47d0 E08749A9 		ldp	x0, x1, [sp, 152]
 5332 47d4 E4470339 		strb	w4, [sp, 209]
 5333 47d8 E3A70179 		strh	w3, [sp, 210]
 5334 47dc E2430391 		add	x2, sp, 208
 5335 47e0 F9AB0179 		strh	w25, [sp, 212]
AARCH64 GAS  C:\Users\ldebo\AppData\Local\Temp\ccfW7LPV.s 			page 95


 5336 47e4 FFAF0179 		strh	wzr, [sp, 214]
 5337 47e8 B2F3FF97 		bl	HCDSumbitControlMessage.constprop.13
 5338 47ec 80F8FF34 		cbz	w0, .L1054
 5339 47f0 E203182A 		mov	w2, w24
 5340 47f4 E103142A 		mov	w1, w20
 5341 47f8 63028052 		mov	w3, 19
 5342 47fc 04008052 		mov	w4, 0
 5343 4800 00000090 		adrp	x0, .LC16
 5344 4804 00000091 		add	x0, x0, :lo12:.LC16
 5345 4808 00000094 		bl	printf
 5346 480c E00313AA 		mov	x0, x19
 5347 4810 00000094 		bl	UsbGetDescription
 5348 4814 03000090 		adrp	x3, .LC70
 5349 4818 E10300AA 		mov	x1, x0
 5350 481c E203172A 		mov	w2, w23
 5351 4820 60000091 		add	x0, x3, :lo12:.LC70
 5352 4824 00000094 		bl	printf
 5353 4828 DAF62736 		tbz	x26, 4, .L1086
 5354 482c 1F2003D5 		.p2align 3
 5355              	.L1093:
 5356 4830 600640B9 		ldr	w0, [x19, 4]
 5357 4834 63048052 		mov	w3, 35
 5358 4838 E0AB00B9 		str	w0, [sp, 168]
 5359 483c 1F030071 		cmp	w24, 0
 5360 4840 74164039 		ldrb	w20, [x19, 5]
 5361 4844 02048052 		mov	w2, 32
 5362 4848 F4A70239 		strb	w20, [sp, 169]
 5363 484c 4200831A 		csel	w2, w2, w3, eq
 5364 4850 FFB300B9 		str	wzr, [sp, 176]
 5365 4854 24008052 		mov	w4, 1
 5366 4858 83028052 		mov	w3, 20
 5367 485c E2630339 		strb	w2, [sp, 216]
 5368 4860 E0874AA9 		ldp	x0, x1, [sp, 168]
 5369 4864 E4670339 		strb	w4, [sp, 217]
 5370 4868 E3B70179 		strh	w3, [sp, 218]
 5371 486c E2630391 		add	x2, sp, 216
 5372 4870 F9BB0179 		strh	w25, [sp, 220]
 5373 4874 FFBF0179 		strh	wzr, [sp, 222]
 5374 4878 8EF3FF97 		bl	HCDSumbitControlMessage.constprop.13
 5375 487c 20F4FF34 		cbz	w0, .L1086
 5376 4880 E203182A 		mov	w2, w24
 5377 4884 E103142A 		mov	w1, w20
 5378 4888 04008052 		mov	w4, 0
 5379 488c 83028052 		mov	w3, 20
 5380 4890 00000090 		adrp	x0, .LC16
 5381 4894 00000091 		add	x0, x0, :lo12:.LC16
 5382 4898 00000094 		bl	printf
 5383 489c E00313AA 		mov	x0, x19
 5384 48a0 00000094 		bl	UsbGetDescription
 5385 48a4 03000090 		adrp	x3, .LC71
 5386 48a8 E10300AA 		mov	x1, x0
 5387 48ac E203172A 		mov	w2, w23
 5388 48b0 60000091 		add	x0, x3, :lo12:.LC71
 5389 48b4 00000094 		bl	printf
 5390 48b8 FB2340F9 		ldr	x27, [sp, 64]
 5391 48bc F76342A9 		ldp	x23, x24, [sp, 32]
 5392 48c0 F96B43A9 		ldp	x25, x26, [sp, 48]
AARCH64 GAS  C:\Users\ldebo\AppData\Local\Temp\ccfW7LPV.s 			page 96


 5393 48c4 92FFFF17 		b	.L1036
 5394              		.p2align 3
 5395              	.L1091:
 5396 48c8 600640B9 		ldr	w0, [x19, 4]
 5397 48cc 63048052 		mov	w3, 35
 5398 48d0 E08B00B9 		str	w0, [sp, 136]
 5399 48d4 1F030071 		cmp	w24, 0
 5400 48d8 74164039 		ldrb	w20, [x19, 5]
 5401 48dc 02048052 		mov	w2, 32
 5402 48e0 F4270239 		strb	w20, [sp, 137]
 5403 48e4 4200831A 		csel	w2, w2, w3, eq
 5404 48e8 FF9300B9 		str	wzr, [sp, 144]
 5405 48ec 24008052 		mov	w4, 1
 5406 48f0 43008052 		mov	w3, 2
 5407 48f4 E2230339 		strb	w2, [sp, 200]
 5408 48f8 E08748A9 		ldp	x0, x1, [sp, 136]
 5409 48fc E4270339 		strb	w4, [sp, 201]
 5410 4900 E3970179 		strh	w3, [sp, 202]
 5411 4904 E2230391 		add	x2, sp, 200
 5412 4908 F99B0179 		strh	w25, [sp, 204]
 5413 490c FF9F0179 		strh	wzr, [sp, 206]
 5414 4910 68F3FF97 		bl	HCDSumbitControlMessage.constprop.13
 5415 4914 20EFFF34 		cbz	w0, .L1050
 5416 4918 E203182A 		mov	w2, w24
 5417 491c E103142A 		mov	w1, w20
 5418 4920 43008052 		mov	w3, 2
 5419 4924 04008052 		mov	w4, 0
 5420 4928 00000090 		adrp	x0, .LC16
 5421 492c 00000091 		add	x0, x0, :lo12:.LC16
 5422 4930 00000094 		bl	printf
 5423 4934 E00313AA 		mov	x0, x19
 5424 4938 00000094 		bl	UsbGetDescription
 5425 493c 03000090 		adrp	x3, .LC69
 5426 4940 E10300AA 		mov	x1, x0
 5427 4944 E203172A 		mov	w2, w23
 5428 4948 60000091 		add	x0, x3, :lo12:.LC69
 5429 494c 00000094 		bl	printf
 5430 4950 7AED1F36 		tbz	x26, 3, .L1054
 5431 4954 93FFFF17 		b	.L1092
 5432              		.p2align 3
 5433              	.L1090:
 5434 4958 600640B9 		ldr	w0, [x19, 4]
 5435 495c 63048052 		mov	w3, 35
 5436 4960 E07B00B9 		str	w0, [sp, 120]
 5437 4964 1F030071 		cmp	w24, 0
 5438 4968 7C164039 		ldrb	w28, [x19, 5]
 5439 496c 02048052 		mov	w2, 32
 5440 4970 FCE70139 		strb	w28, [sp, 121]
 5441 4974 4200831A 		csel	w2, w2, w3, eq
 5442 4978 FF8300B9 		str	wzr, [sp, 128]
 5443 497c 24008052 		mov	w4, 1
 5444 4980 23028052 		mov	w3, 17
 5445 4984 E2030339 		strb	w2, [sp, 192]
 5446 4988 E08747A9 		ldp	x0, x1, [sp, 120]
 5447 498c E4070339 		strb	w4, [sp, 193]
 5448 4990 E3870179 		strh	w3, [sp, 194]
 5449 4994 E2030391 		add	x2, sp, 192
AARCH64 GAS  C:\Users\ldebo\AppData\Local\Temp\ccfW7LPV.s 			page 97


 5450 4998 F98B0179 		strh	w25, [sp, 196]
 5451 499c FF8F0179 		strh	wzr, [sp, 198]
 5452 49a0 44F3FF97 		bl	HCDSumbitControlMessage.constprop.13
 5453 49a4 E0010034 		cbz	w0, .L1047
 5454 49a8 E203182A 		mov	w2, w24
 5455 49ac E1031C2A 		mov	w1, w28
 5456 49b0 23028052 		mov	w3, 17
 5457 49b4 04008052 		mov	w4, 0
 5458 49b8 00000090 		adrp	x0, .LC16
 5459 49bc 00000091 		add	x0, x0, :lo12:.LC16
 5460 49c0 00000094 		bl	printf
 5461 49c4 E00313AA 		mov	x0, x19
 5462 49c8 00000094 		bl	UsbGetDescription
 5463 49cc 03000090 		adrp	x3, .LC67
 5464 49d0 E10300AA 		mov	x1, x0
 5465 49d4 E203172A 		mov	w2, w23
 5466 49d8 60000091 		add	x0, x3, :lo12:.LC67
 5467 49dc 00000094 		bl	printf
 5468              	.L1047:
 5469 49e0 80060012 		and	w0, w20, 3
 5470 49e4 1F040071 		cmp	w0, 1
 5471 49e8 61E8FF54 		bne	.L1045
 5472 49ec 7B0F368B 		add	x27, x27, x22, uxtb 3
 5473 49f0 600740F9 		ldr	x0, [x27, 8]
 5474 49f4 00E8FFB4 		cbz	x0, .L1045
 5475 49f8 E00313AA 		mov	x0, x19
 5476 49fc 00000094 		bl	UsbGetDescription
 5477 4a00 E203172A 		mov	w2, w23
 5478 4a04 E10300AA 		mov	x1, x0
 5479 4a08 00000090 		adrp	x0, .LC68
 5480 4a0c 00000091 		add	x0, x0, :lo12:.LC68
 5481 4a10 00000094 		bl	printf
 5482 4a14 E103162A 		mov	w1, w22
 5483 4a18 E00313AA 		mov	x0, x19
 5484 4a1c 00000094 		bl	HubPortConnectionChanged
 5485 4a20 D4E61736 		tbz	x20, 2, .L1050
 5486 4a24 A9FFFF17 		b	.L1091
 5487              		.p2align 3
 5488              	.L1062:
 5489 4a28 75008012 		mov	w21, -4
 5490 4a2c 38FFFF17 		b	.L1036
 5491              	.L1088:
 5492 4a30 00000090 		adrp	x0, .LC15
 5493 4a34 E203182A 		mov	w2, w24
 5494 4a38 E1031C2A 		mov	w1, w28
 5495 4a3c 75008012 		mov	w21, -4
 5496 4a40 00000091 		add	x0, x0, :lo12:.LC15
 5497 4a44 00000094 		bl	printf
 5498 4a48 40FFFF17 		b	.L1040
 5499              		.size	HubCheckConnection, .-HubCheckConnection
 5500              		.align	2
 5501 4a4c 1F2003D5 		.p2align 4,,15
 5502              		.global	EnumerateHub
 5503              		.type	EnumerateHub, %function
 5504              	EnumerateHub:
 5505 4a50 FF4302D1 		sub	sp, sp, #144
 5506 4a54 F35301A9 		stp	x19, x20, [sp, 16]
AARCH64 GAS  C:\Users\ldebo\AppData\Local\Temp\ccfW7LPV.s 			page 98


 5507 4a58 FE2B00F9 		str	x30, [sp, 80]
 5508 4a5c E00600B4 		cbz	x0, .L1115
 5509 4a60 F30300AA 		mov	x19, x0
 5510 4a64 00E843B9 		ldr	w0, [x0, 1000]
 5511 4a68 34008012 		mov	w20, -2
 5512 4a6c 1F040071 		cmp	w0, 1
 5513 4a70 40010054 		beq	.L1144
 5514              	.L1095:
 5515 4a74 00000090 		adrp	x0, .LC72
 5516 4a78 E103142A 		mov	w1, w20
 5517 4a7c 00000091 		add	x0, x0, :lo12:.LC72
 5518 4a80 00000094 		bl	printf
 5519              	.L1094:
 5520 4a84 E003142A 		mov	w0, w20
 5521 4a88 FE2B40F9 		ldr	x30, [sp, 80]
 5522 4a8c F35341A9 		ldp	x19, x20, [sp, 16]
 5523 4a90 FF430291 		add	sp, sp, 144
 5524 4a94 C0035FD6 		ret
 5525              		.p2align 3
 5526              	.L1144:
 5527 4a98 F61700F9 		str	x22, [sp, 40]
 5528 4a9c 16000090 		adrp	x22, .LANCHOR1
 5529 4aa0 C2020091 		add	x2, x22, :lo12:.LANCHOR1
 5530 4aa4 41600A91 		add	x1, x2, 664
 5531 4aa8 429842B9 		ldr	w2, [x2, 664]
 5532 4aac A2040034 		cbz	w2, .L1117
 5533 4ab0 226840B9 		ldr	w2, [x1, 104]
 5534 4ab4 A2190034 		cbz	w2, .L1118
 5535 4ab8 20D040B9 		ldr	w0, [x1, 208]
 5536 4abc 201A0034 		cbz	w0, .L1119
 5537 4ac0 203841B9 		ldr	w0, [x1, 312]
 5538 4ac4 A01A0034 		cbz	w0, .L1120
 5539 4ac8 20A041B9 		ldr	w0, [x1, 416]
 5540 4acc 201B0034 		cbz	w0, .L1121
 5541 4ad0 200842B9 		ldr	w0, [x1, 520]
 5542 4ad4 801B0034 		cbz	w0, .L1122
 5543 4ad8 207042B9 		ldr	w0, [x1, 624]
 5544 4adc E01B0034 		cbz	w0, .L1123
 5545 4ae0 20D842B9 		ldr	w0, [x1, 728]
 5546 4ae4 401C0034 		cbz	w0, .L1124
 5547 4ae8 E00301AA 		mov	x0, x1
 5548 4aec 214043B9 		ldr	w1, [x1, 832]
 5549 4af0 811C0034 		cbz	w1, .L1125
 5550 4af4 01A843B9 		ldr	w1, [x0, 936]
 5551 4af8 E11C0034 		cbz	w1, .L1126
 5552 4afc 011044B9 		ldr	w1, [x0, 1040]
 5553 4b00 411D0034 		cbz	w1, .L1127
 5554 4b04 017844B9 		ldr	w1, [x0, 1144]
 5555 4b08 A11D0034 		cbz	w1, .L1128
 5556 4b0c 01E044B9 		ldr	w1, [x0, 1248]
 5557 4b10 011E0034 		cbz	w1, .L1129
 5558 4b14 014845B9 		ldr	w1, [x0, 1352]
 5559 4b18 611E0034 		cbz	w1, .L1130
 5560 4b1c 01B045B9 		ldr	w1, [x0, 1456]
 5561 4b20 C11E0034 		cbz	w1, .L1131
 5562 4b24 001846B9 		ldr	w0, [x0, 1560]
 5563 4b28 D4008012 		mov	w20, -7
AARCH64 GAS  C:\Users\ldebo\AppData\Local\Temp\ccfW7LPV.s 			page 99


 5564 4b2c 40200034 		cbz	w0, .L1145
 5565 4b30 F61740F9 		ldr	x22, [sp, 40]
 5566 4b34 D0FFFF17 		b	.L1095
 5567              		.p2align 3
 5568              	.L1115:
 5569 4b38 34008012 		mov	w20, -2
 5570 4b3c CEFFFF17 		b	.L1095
 5571              		.p2align 3
 5572              	.L1117:
 5573 4b40 F76303A9 		stp	x23, x24, [sp, 48]
 5574 4b44 01008052 		mov	w1, 0
 5575 4b48 F51300F9 		str	x21, [sp, 32]
 5576 4b4c F96B04A9 		stp	x25, x26, [sp, 64]
 5577              		.p2align 3
 5578              	.L1096:
 5579 4b50 377C4093 		sxtw	x23, w1
 5580 4b54 180D80D2 		mov	x24, 104
 5581 4b58 040D8052 		mov	w4, 104
 5582 4b5c D5020091 		add	x21, x22, :lo12:.LANCHOR1
 5583 4b60 B5620A91 		add	x21, x21, 664
 5584 4b64 42008052 		mov	w2, 2
 5585 4b68 F87E189B 		mul	x24, x23, x24
 5586 4b6c 62EA03B9 		str	w2, [x19, 1000]
 5587 4b70 217C249B 		smull	x1, w1, w4
 5588 4b74 600640B9 		ldr	w0, [x19, 4]
 5589 4b78 B402188B 		add	x20, x21, x24
 5590 4b7c 23008052 		mov	w3, 1
 5591 4b80 E3030039 		strb	w3, [sp]
 5592 4b84 A202018B 		add	x2, x21, x1
 5593 4b88 62FA01F9 		str	x2, [x19, 1008]
 5594 4b8c 5A018052 		mov	w26, 10
 5595 4b90 9FFE00A9 		stp	xzr, xzr, [x20, 8]
 5596 4b94 21600191 		add	x1, x1, 88
 5597 4b98 BA6A38B8 		str	w26, [x21, x24]
 5598 4b9c A402018B 		add	x4, x21, x1
 5599 4ba0 9FFE01A9 		stp	xzr, xzr, [x20, 24]
 5600 4ba4 E7D30191 		add	x7, sp, 116
 5601 4ba8 9FFE02A9 		stp	xzr, xzr, [x20, 40]
 5602 4bac E60B8012 		mov	w6, -96
 5603 4bb0 9FFE03A9 		stp	xzr, xzr, [x20, 56]
 5604 4bb4 25018052 		mov	w5, 9
 5605 4bb8 9FFE04A9 		stp	xzr, xzr, [x20, 72]
 5606 4bbc 03008052 		mov	w3, 0
 5607 4bc0 21058052 		mov	w1, 41
 5608 4bc4 02008052 		mov	w2, 0
 5609 4bc8 00000094 		bl	HCDGetDescriptor
 5610 4bcc 001A0035 		cbnz	w0, .L1146
 5611 4bd0 E07740B9 		ldr	w0, [sp, 116]
 5612 4bd4 79164039 		ldrb	w25, [x19, 5]
 5613 4bd8 1F240071 		cmp	w0, 9
 5614 4bdc A1190054 		bne	.L1100
 5615 4be0 806A4139 		ldrb	w0, [x20, 90]
 5616 4be4 1F280071 		cmp	w0, 10
 5617 4be8 080D0054 		bhi	.L1147
 5618 4bec A06A38B8 		str	w0, [x21, x24]
 5619              	.L1104:
 5620 4bf0 600640B9 		ldr	w0, [x19, 4]
AARCH64 GAS  C:\Users\ldebo\AppData\Local\Temp\ccfW7LPV.s 			page 100


 5621 4bf4 E30B8012 		mov	w3, -96
 5622 4bf8 E06300B9 		str	w0, [sp, 96]
 5623 4bfc E4E30191 		add	x4, sp, 120
 5624 4c00 FF6B00B9 		str	wzr, [sp, 104]
 5625 4c04 80008052 		mov	w0, 4
 5626 4c08 F9870139 		strb	w25, [sp, 97]
 5627 4c0c E0A70139 		strb	w0, [sp, 105]
 5628 4c10 62124039 		ldrb	w2, [x19, 4]
 5629 4c14 E00746A9 		ldp	x0, x1, [sp, 96]
 5630 4c18 58040012 		and	w24, w2, 3
 5631 4c1c 550C42D3 		ubfx	x21, x2, 2, 2
 5632 4c20 8200A052 		mov	w2, 262144
 5633 4c24 FF0B1029 		stp	wzr, w2, [sp, 128]
 5634 4c28 E2230291 		add	x2, sp, 136
 5635 4c2c FF7B00B9 		str	wzr, [sp, 120]
 5636 4c30 E3030239 		strb	w3, [sp, 128]
 5637 4c34 E3030291 		add	x3, sp, 128
 5638 4c38 FF8B00B9 		str	wzr, [sp, 136]
 5639 4c3c CDF3FF97 		bl	HCDSumbitControlMessage.constprop.14
 5640 4c40 F403002A 		mov	w20, w0
 5641 4c44 200B0035 		cbnz	w0, .L1148
 5642 4c48 E07B40B9 		ldr	w0, [sp, 120]
 5643 4c4c 1F0C0071 		cmp	w0, 3
 5644 4c50 C9170054 		bls	.L1149
 5645 4c54 000D80D2 		mov	x0, 104
 5646 4c58 C1020091 		add	x1, x22, :lo12:.LANCHOR1
 5647 4c5c 21600A91 		add	x1, x1, 664
 5648 4c60 35008052 		mov	w21, 1
 5649 4c64 E07E009B 		mul	x0, x23, x0
 5650 4c68 7A120091 		add	x26, x19, 4
 5651 4c6c 3900008B 		add	x25, x1, x0
 5652 4c70 206860B8 		ldr	w0, [x1, x0]
 5653 4c74 60050034 		cbz	w0, .L1109
 5654              		.p2align 3
 5655              	.L1108:
 5656 4c78 400340B9 		ldr	w0, [x26]
 5657 4c7c A41E0072 		ands	w4, w21, 255
 5658 4c80 E07300B9 		str	w0, [sp, 112]
 5659 4c84 62048052 		mov	w2, 35
 5660 4c88 78164039 		ldrb	w24, [x19, 5]
 5661 4c8c 03048052 		mov	w3, 32
 5662 4c90 F8C70139 		strb	w24, [sp, 113]
 5663 4c94 6300821A 		csel	w3, w3, w2, eq
 5664 4c98 FF7B00B9 		str	wzr, [sp, 120]
 5665 4c9c 66008052 		mov	w6, 3
 5666 4ca0 05018052 		mov	w5, 8
 5667 4ca4 E2230291 		add	x2, sp, 136
 5668 4ca8 E00747A9 		ldp	x0, x1, [sp, 112]
 5669 4cac E3230239 		strb	w3, [sp, 136]
 5670 4cb0 E6270239 		strb	w6, [sp, 137]
 5671 4cb4 E5170179 		strh	w5, [sp, 138]
 5672 4cb8 E41B0179 		strh	w4, [sp, 140]
 5673 4cbc FF1F0179 		strh	wzr, [sp, 142]
 5674 4cc0 7CF2FF97 		bl	HCDSumbitControlMessage.constprop.13
 5675 4cc4 E0000035 		cbnz	w0, .L1150
 5676 4cc8 210340B9 		ldr	w1, [x25]
 5677 4ccc A0060011 		add	w0, w21, 1
AARCH64 GAS  C:\Users\ldebo\AppData\Local\Temp\ccfW7LPV.s 			page 101


 5678 4cd0 3F00156B 		cmp	w1, w21
 5679 4cd4 69020054 		bls	.L1109
 5680              	.L1112:
 5681 4cd8 F503002A 		mov	w21, w0
 5682 4cdc E7FFFF17 		b	.L1108
 5683              		.p2align 3
 5684              	.L1150:
 5685 4ce0 A21E0012 		and	w2, w21, 255
 5686 4ce4 24008052 		mov	w4, 1
 5687 4ce8 03018052 		mov	w3, 8
 5688 4cec E103182A 		mov	w1, w24
 5689 4cf0 00000090 		adrp	x0, .LC16
 5690 4cf4 00000091 		add	x0, x0, :lo12:.LC16
 5691 4cf8 00000094 		bl	printf
 5692 4cfc 61164039 		ldrb	w1, [x19, 5]
 5693 4d00 00000090 		adrp	x0, .LC76
 5694 4d04 E203152A 		mov	w2, w21
 5695 4d08 00000091 		add	x0, x0, :lo12:.LC76
 5696 4d0c 00000094 		bl	printf
 5697 4d10 210340B9 		ldr	w1, [x25]
 5698 4d14 A0060011 		add	w0, w21, 1
 5699 4d18 BF02016B 		cmp	w21, w1
 5700 4d1c E3FDFF54 		bcc	.L1112
 5701              	.L1109:
 5702 4d20 000D80D2 		mov	x0, 104
 5703 4d24 D6020091 		add	x22, x22, :lo12:.LANCHOR1
 5704 4d28 D6620A91 		add	x22, x22, 664
 5705 4d2c 01FA8052 		mov	w1, 2000
 5706 4d30 F77E009B 		mul	x23, x23, x0
 5707 4d34 D502178B 		add	x21, x22, x23
 5708 4d38 A0764139 		ldrb	w0, [x21, 93]
 5709 4d3c 007C011B 		mul	w0, w0, w1
 5710 4d40 00000094 		bl	timer_wait
 5711 4d44 C06A77B8 		ldr	w0, [x22, x23]
 5712 4d48 60010034 		cbz	w0, .L1143
 5713 4d4c F60315AA 		mov	x22, x21
 5714 4d50 15008052 		mov	w21, 0
 5715 4d54 1F2003D5 		.p2align 3
 5716              	.L1114:
 5717 4d58 E103152A 		mov	w1, w21
 5718 4d5c E00313AA 		mov	x0, x19
 5719 4d60 00000094 		bl	HubCheckConnection
 5720 4d64 B5060011 		add	w21, w21, 1
 5721 4d68 C00240B9 		ldr	w0, [x22]
 5722 4d6c 1F00156B 		cmp	w0, w21
 5723 4d70 48FFFF54 		bhi	.L1114
 5724              	.L1143:
 5725 4d74 F55B42A9 		ldp	x21, x22, [sp, 32]
 5726 4d78 F76343A9 		ldp	x23, x24, [sp, 48]
 5727 4d7c F96B44A9 		ldp	x25, x26, [sp, 64]
 5728 4d80 41FFFF17 		b	.L1094
 5729 4d84 1F2003D5 		.p2align 3
 5730              	.L1147:
 5731 4d88 E103192A 		mov	w1, w25
 5732 4d8c 00000090 		adrp	x0, .LC74
 5733 4d90 E2031A2A 		mov	w2, w26
 5734 4d94 00000091 		add	x0, x0, :lo12:.LC74
AARCH64 GAS  C:\Users\ldebo\AppData\Local\Temp\ccfW7LPV.s 			page 102


 5735 4d98 00000094 		bl	printf
 5736 4d9c 79164039 		ldrb	w25, [x19, 5]
 5737 4da0 94FFFF17 		b	.L1104
 5738 4da4 1F2003D5 		.p2align 3
 5739              	.L1148:
 5740 4da8 00000090 		adrp	x0, .LC14
 5741 4dac E503182A 		mov	w5, w24
 5742 4db0 E403152A 		mov	w4, w21
 5743 4db4 E303142A 		mov	w3, w20
 5744 4db8 02008052 		mov	w2, 0
 5745 4dbc E103192A 		mov	w1, w25
 5746 4dc0 00000091 		add	x0, x0, :lo12:.LC14
 5747 4dc4 00000094 		bl	printf
 5748              	.L1106:
 5749 4dc8 61164039 		ldrb	w1, [x19, 5]
 5750 4dcc 00000090 		adrp	x0, .LC75
 5751 4dd0 00000091 		add	x0, x0, :lo12:.LC75
 5752 4dd4 00000094 		bl	printf
 5753 4dd8 F55B42A9 		ldp	x21, x22, [sp, 32]
 5754 4ddc F76343A9 		ldp	x23, x24, [sp, 48]
 5755 4de0 F96B44A9 		ldp	x25, x26, [sp, 64]
 5756 4de4 28FFFF17 		b	.L1094
 5757              		.p2align 3
 5758              	.L1118:
 5759 4de8 F76303A9 		stp	x23, x24, [sp, 48]
 5760 4dec E103002A 		mov	w1, w0
 5761 4df0 F51300F9 		str	x21, [sp, 32]
 5762 4df4 F96B04A9 		stp	x25, x26, [sp, 64]
 5763 4df8 56FFFF17 		b	.L1096
 5764 4dfc 1F2003D5 		.p2align 3
 5765              	.L1119:
 5766 4e00 F76303A9 		stp	x23, x24, [sp, 48]
 5767 4e04 41008052 		mov	w1, 2
 5768 4e08 F51300F9 		str	x21, [sp, 32]
 5769 4e0c F96B04A9 		stp	x25, x26, [sp, 64]
 5770 4e10 50FFFF17 		b	.L1096
 5771 4e14 1F2003D5 		.p2align 3
 5772              	.L1120:
 5773 4e18 F76303A9 		stp	x23, x24, [sp, 48]
 5774 4e1c 61008052 		mov	w1, 3
 5775 4e20 F51300F9 		str	x21, [sp, 32]
 5776 4e24 F96B04A9 		stp	x25, x26, [sp, 64]
 5777 4e28 4AFFFF17 		b	.L1096
 5778 4e2c 1F2003D5 		.p2align 3
 5779              	.L1121:
 5780 4e30 F76303A9 		stp	x23, x24, [sp, 48]
 5781 4e34 81008052 		mov	w1, 4
 5782 4e38 F51300F9 		str	x21, [sp, 32]
 5783 4e3c F96B04A9 		stp	x25, x26, [sp, 64]
 5784 4e40 44FFFF17 		b	.L1096
 5785              	.L1122:
 5786 4e44 F76303A9 		stp	x23, x24, [sp, 48]
 5787 4e48 A1008052 		mov	w1, 5
 5788 4e4c F51300F9 		str	x21, [sp, 32]
 5789 4e50 F96B04A9 		stp	x25, x26, [sp, 64]
 5790 4e54 3FFFFF17 		b	.L1096
 5791              	.L1123:
AARCH64 GAS  C:\Users\ldebo\AppData\Local\Temp\ccfW7LPV.s 			page 103


 5792 4e58 F76303A9 		stp	x23, x24, [sp, 48]
 5793 4e5c C1008052 		mov	w1, 6
 5794 4e60 F51300F9 		str	x21, [sp, 32]
 5795 4e64 F96B04A9 		stp	x25, x26, [sp, 64]
 5796 4e68 3AFFFF17 		b	.L1096
 5797              	.L1124:
 5798 4e6c F76303A9 		stp	x23, x24, [sp, 48]
 5799 4e70 E1008052 		mov	w1, 7
 5800 4e74 F51300F9 		str	x21, [sp, 32]
 5801 4e78 F96B04A9 		stp	x25, x26, [sp, 64]
 5802 4e7c 35FFFF17 		b	.L1096
 5803              	.L1125:
 5804 4e80 F76303A9 		stp	x23, x24, [sp, 48]
 5805 4e84 01018052 		mov	w1, 8
 5806 4e88 F51300F9 		str	x21, [sp, 32]
 5807 4e8c F96B04A9 		stp	x25, x26, [sp, 64]
 5808 4e90 30FFFF17 		b	.L1096
 5809              	.L1126:
 5810 4e94 F76303A9 		stp	x23, x24, [sp, 48]
 5811 4e98 21018052 		mov	w1, 9
 5812 4e9c F51300F9 		str	x21, [sp, 32]
 5813 4ea0 F96B04A9 		stp	x25, x26, [sp, 64]
 5814 4ea4 2BFFFF17 		b	.L1096
 5815              	.L1127:
 5816 4ea8 F76303A9 		stp	x23, x24, [sp, 48]
 5817 4eac 41018052 		mov	w1, 10
 5818 4eb0 F51300F9 		str	x21, [sp, 32]
 5819 4eb4 F96B04A9 		stp	x25, x26, [sp, 64]
 5820 4eb8 26FFFF17 		b	.L1096
 5821              	.L1128:
 5822 4ebc F76303A9 		stp	x23, x24, [sp, 48]
 5823 4ec0 61018052 		mov	w1, 11
 5824 4ec4 F51300F9 		str	x21, [sp, 32]
 5825 4ec8 F96B04A9 		stp	x25, x26, [sp, 64]
 5826 4ecc 21FFFF17 		b	.L1096
 5827              	.L1129:
 5828 4ed0 F76303A9 		stp	x23, x24, [sp, 48]
 5829 4ed4 81018052 		mov	w1, 12
 5830 4ed8 F51300F9 		str	x21, [sp, 32]
 5831 4edc F96B04A9 		stp	x25, x26, [sp, 64]
 5832 4ee0 1CFFFF17 		b	.L1096
 5833              	.L1130:
 5834 4ee4 F76303A9 		stp	x23, x24, [sp, 48]
 5835 4ee8 A1018052 		mov	w1, 13
 5836 4eec F51300F9 		str	x21, [sp, 32]
 5837 4ef0 F96B04A9 		stp	x25, x26, [sp, 64]
 5838 4ef4 17FFFF17 		b	.L1096
 5839              	.L1131:
 5840 4ef8 F76303A9 		stp	x23, x24, [sp, 48]
 5841 4efc C1018052 		mov	w1, 14
 5842 4f00 F51300F9 		str	x21, [sp, 32]
 5843 4f04 F96B04A9 		stp	x25, x26, [sp, 64]
 5844 4f08 12FFFF17 		b	.L1096
 5845              	.L1146:
 5846 4f0c 79164039 		ldrb	w25, [x19, 5]
 5847              	.L1100:
 5848 4f10 E103192A 		mov	w1, w25
AARCH64 GAS  C:\Users\ldebo\AppData\Local\Temp\ccfW7LPV.s 			page 104


 5849 4f14 00000090 		adrp	x0, .LC73
 5850 4f18 74008012 		mov	w20, -4
 5851 4f1c 00000091 		add	x0, x0, :lo12:.LC73
 5852 4f20 00000094 		bl	printf
 5853 4f24 F55B42A9 		ldp	x21, x22, [sp, 32]
 5854 4f28 F76343A9 		ldp	x23, x24, [sp, 48]
 5855 4f2c F96B44A9 		ldp	x25, x26, [sp, 64]
 5856 4f30 D5FEFF17 		b	.L1094
 5857              	.L1145:
 5858 4f34 F76303A9 		stp	x23, x24, [sp, 48]
 5859 4f38 E1018052 		mov	w1, 15
 5860 4f3c F51300F9 		str	x21, [sp, 32]
 5861 4f40 F96B04A9 		stp	x25, x26, [sp, 64]
 5862 4f44 03FFFF17 		b	.L1096
 5863              	.L1149:
 5864 4f48 00000090 		adrp	x0, .LC15
 5865 4f4c 02008052 		mov	w2, 0
 5866 4f50 E103192A 		mov	w1, w25
 5867 4f54 74008012 		mov	w20, -4
 5868 4f58 00000091 		add	x0, x0, :lo12:.LC15
 5869 4f5c 00000094 		bl	printf
 5870 4f60 9AFFFF17 		b	.L1106
 5871              		.size	EnumerateHub, .-EnumerateHub
 5872              		.align	2
 5873 4f64 1F2003D5 		.p2align 4,,15
 5873      1F2003D5 
 5873      1F2003D5 
 5874              		.global	EnumerateDevice
 5875              		.type	EnumerateDevice, %function
 5876              	EnumerateDevice:
 5877 4f70 FF4318D1 		sub	sp, sp, #1552
 5878 4f74 05D080D2 		mov	x5, 1664
 5879 4f78 0520A0F2 		movk	x5, 0x100, lsl 16
 5880 4f7c 0501E0F2 		movk	x5, 0x8, lsl 48
 5881 4f80 F35301A9 		stp	x19, x20, [sp, 16]
 5882 4f84 F30300AA 		mov	x19, x0
 5883 4f88 F55B02A9 		stp	x21, x22, [sp, 32]
 5884 4f8c 80008052 		mov	w0, 4
 5885 4f90 F76303A9 		stp	x23, x24, [sp, 48]
 5886 4f94 17000090 		adrp	x23, .LANCHOR1
 5887 4f98 E4024039 		ldrb	w4, [x23, #:lo12:.LANCHOR1]
 5888 4f9c F96B04A9 		stp	x25, x26, [sp, 64]
 5889 4fa0 F80301AA 		mov	x24, x1
 5890 4fa4 FE3300F9 		str	x30, [sp, 96]
 5891 4fa8 591C0012 		and	w25, w2, 255
 5892 4fac FF8300B9 		str	wzr, [sp, 128]
 5893 4fb0 E0070239 		strb	w0, [sp, 129]
 5894 4fb4 60124039 		ldrb	w0, [x19, 4]
 5895 4fb8 75164039 		ldrb	w21, [x19, 5]
 5896 4fbc 00741E12 		and	w0, w0, -4
 5897 4fc0 60120039 		strb	w0, [x19, 4]
 5898 4fc4 7F160039 		strb	wzr, [x19, 5]
 5899 4fc8 E38340B9 		ldr	w3, [sp, 128]
 5900 4fcc 1A0C42D3 		ubfx	x26, x0, 2, 2
 5901 4fd0 660640B9 		ldr	w6, [x19, 4]
 5902 4fd4 E69300B9 		str	w6, [sp, 144]
 5903 4fd8 E39B00B9 		str	w3, [sp, 152]
AARCH64 GAS  C:\Users\ldebo\AppData\Local\Temp\ccfW7LPV.s 			page 105


 5904 4fdc E56700F9 		str	x5, [sp, 200]
 5905 4fe0 FFFF0FA9 		stp	xzr, xzr, [sp, 248]
 5906 4fe4 FF130279 		strh	wzr, [sp, 264]
 5907 4fe8 761A4039 		ldrb	w22, [x19, 6]
 5908 4fec 741E4039 		ldrb	w20, [x19, 7]
 5909 4ff0 440D0034 		cbz	w4, .L1255
 5910 4ff4 E31301B9 		str	w3, [sp, 272]
 5911 4ff8 64008052 		mov	w4, 3
 5912 4ffc FF470239 		strb	wzr, [sp, 145]
 5913 5000 E2230391 		add	x2, sp, 200
 5914 5004 E1474439 		ldrb	w1, [sp, 273]
 5915 5008 03018052 		mov	w3, 8
 5916 500c F64B0239 		strb	w22, [sp, 146]
 5917 5010 21781D12 		and	w1, w1, -5
 5918 5014 F44F0239 		strb	w20, [sp, 147]
 5919 5018 E1470439 		strb	w1, [sp, 273]
 5920 501c E04B40F9 		ldr	x0, [sp, 144]
 5921 5020 E18B40F9 		ldr	x1, [sp, 272]
 5922 5024 FC2F00F9 		str	x28, [sp, 88]
 5923 5028 00000094 		bl	HCDChannelTransfer
 5924 502c A0070035 		cbnz	w0, .L1256
 5925 5030 E0674239 		ldrb	w0, [sp, 153]
 5926 5034 FB2B00F9 		str	x27, [sp, 80]
 5927 5038 E1474439 		ldrb	w1, [sp, 273]
 5928 503c 60161037 		tbnz	x0, 2, .L1156
 5929 5040 21001E32 		orr	w1, w1, 4
 5930 5044 E1470439 		strb	w1, [sp, 273]
 5931 5048 E8E74339 		ldrb	w8, [sp, 249]
 5932 504c FB430891 		add	x27, sp, 528
 5933 5050 E7EB4339 		ldrb	w7, [sp, 250]
 5934 5054 E6EF4339 		ldrb	w6, [sp, 251]
 5935 5058 E5F34339 		ldrb	w5, [sp, 252]
 5936 505c E04B40F9 		ldr	x0, [sp, 144]
 5937 5060 E18B40F9 		ldr	x1, [sp, 272]
 5938 5064 E4F74339 		ldrb	w4, [sp, 253]
 5939 5068 E3FB4339 		ldrb	w3, [sp, 254]
 5940 506c E2FF4339 		ldrb	w2, [sp, 255]
 5941 5070 FF430839 		strb	wzr, [sp, 528]
 5942 5074 E8470839 		strb	w8, [sp, 529]
 5943 5078 E74B0839 		strb	w7, [sp, 530]
 5944 507c E64F0839 		strb	w6, [sp, 531]
 5945 5080 E5530839 		strb	w5, [sp, 532]
 5946 5084 E4570839 		strb	w4, [sp, 533]
 5947 5088 44008052 		mov	w4, 2
 5948 508c E35B0839 		strb	w3, [sp, 534]
 5949 5090 03018052 		mov	w3, 8
 5950 5094 E25F0839 		strb	w2, [sp, 535]
 5951 5098 FC03032A 		mov	w28, w3
 5952 509c E2031BAA 		mov	x2, x27
 5953 50a0 00000094 		bl	HCDChannelTransfer
 5954 50a4 E0170035 		cbnz	w0, .L1198
 5955              	.L1157:
 5956 50a8 E0674239 		ldrb	w0, [sp, 153]
 5957 50ac 44008052 		mov	w4, 2
 5958 50b0 E3434239 		ldrb	w3, [sp, 144]
 5959 50b4 00001E32 		orr	w0, w0, 4
 5960 50b8 E2474439 		ldrb	w2, [sp, 273]
AARCH64 GAS  C:\Users\ldebo\AppData\Local\Temp\ccfW7LPV.s 			page 106


 5961 50bc 01007ED2 		eor	x1, x0, 4
 5962 50c0 FF470239 		strb	wzr, [sp, 145]
 5963 50c4 43071E33 		bfi	w3, w26, 2, 2
 5964 50c8 E3430239 		strb	w3, [sp, 144]
 5965 50cc 210842D3 		ubfx	x1, x1, 2, 1
 5966 50d0 F64B0239 		strb	w22, [sp, 146]
 5967 50d4 F44F0239 		strb	w20, [sp, 147]
 5968 50d8 03008052 		mov	w3, 0
 5969 50dc 22001E33 		bfi	w2, w1, 2, 1
 5970 50e0 E2470439 		strb	w2, [sp, 273]
 5971 50e4 E0670239 		strb	w0, [sp, 153]
 5972 50e8 E2031BAA 		mov	x2, x27
 5973 50ec E04B40F9 		ldr	x0, [sp, 144]
 5974 50f0 E18B40F9 		ldr	x1, [sp, 272]
 5975 50f4 00000094 		bl	HCDChannelTransfer
 5976 50f8 40160035 		cbnz	w0, .L1257
 5977 50fc 00000090 		adrp	x0, RPi_IO_Base_Addr
 5978 5100 000040B9 		ldr	w0, [x0, #:lo12:RPi_IO_Base_Addr]
 5979 5104 FB2B40F9 		ldr	x27, [sp, 80]
 5980 5108 00006611 		add	w0, w0, 9961472
 5981 510c 00001411 		add	w0, w0, 1280
 5982 5110 001040B9 		ldr	w0, [x0, 16]
 5983 5114 FCC300B9 		str	w28, [sp, 192]
 5984 5118 0E000014 		b	.L1155
 5985 511c 1F2003D5 		.p2align 3
 5986              	.L1256:
 5987 5120 E3234339 		ldrb	w3, [sp, 200]
 5988 5124 E703142A 		mov	w7, w20
 5989 5128 E2274339 		ldrb	w2, [sp, 201]
 5990 512c E603162A 		mov	w6, w22
 5991 5130 E00300B9 		str	w0, [sp]
 5992 5134 05008052 		mov	w5, 0
 5993 5138 E4031A2A 		mov	w4, w26
 5994 513c 01008052 		mov	w1, 0
 5995 5140 00000090 		adrp	x0, .LC10
 5996 5144 00000091 		add	x0, x0, :lo12:.LC10
 5997 5148 00000094 		bl	printf
 5998 514c FCC340B9 		ldr	w28, [sp, 192]
 5999              	.L1155:
 6000 5150 9F230071 		cmp	w28, 8
 6001 5154 60140054 		beq	.L1258
 6002 5158 00000090 		adrp	x0, .LC77
 6003 515c 02008052 		mov	w2, 0
 6004 5160 E103152A 		mov	w1, w21
 6005 5164 00000091 		add	x0, x0, :lo12:.LC77
 6006 5168 00000094 		bl	printf
 6007 516c FC2F40F9 		ldr	x28, [sp, 88]
 6008 5170 14008052 		mov	w20, 0
 6009              	.L1151:
 6010 5174 E003142A 		mov	w0, w20
 6011 5178 FE3340F9 		ldr	x30, [sp, 96]
 6012 517c F35341A9 		ldp	x19, x20, [sp, 16]
 6013 5180 F55B42A9 		ldp	x21, x22, [sp, 32]
 6014 5184 F76343A9 		ldp	x23, x24, [sp, 48]
 6015 5188 F96B44A9 		ldp	x25, x26, [sp, 64]
 6016 518c FF431891 		add	sp, sp, 1552
 6017 5190 C0035FD6 		ret
AARCH64 GAS  C:\Users\ldebo\AppData\Local\Temp\ccfW7LPV.s 			page 107


 6018 5194 1F2003D5 		.p2align 3
 6019              	.L1255:
 6020 5198 02000090 		adrp	x2, .LANCHOR0
 6021 519c 42000091 		add	x2, x2, :lo12:.LANCHOR0
 6022 51a0 41600191 		add	x1, x2, 88
 6023 51a4 03018052 		mov	w3, 8
 6024 51a8 E3C300B9 		str	w3, [sp, 192]
 6025 51ac 48604139 		ldrb	w8, [x2, 88]
 6026 51b0 47644139 		ldrb	w7, [x2, 89]
 6027 51b4 46684139 		ldrb	w6, [x2, 90]
 6028 51b8 456C4139 		ldrb	w5, [x2, 91]
 6029 51bc 44704139 		ldrb	w4, [x2, 92]
 6030 51c0 43744139 		ldrb	w3, [x2, 93]
 6031 51c4 211C4039 		ldrb	w1, [x1, 7]
 6032 51c8 42784139 		ldrb	w2, [x2, 94]
 6033 51cc E8E30339 		strb	w8, [sp, 248]
 6034 51d0 E7E70339 		strb	w7, [sp, 249]
 6035 51d4 E6EB0339 		strb	w6, [sp, 250]
 6036 51d8 E5EF0339 		strb	w5, [sp, 251]
 6037 51dc E4F30339 		strb	w4, [sp, 252]
 6038 51e0 E3F70339 		strb	w3, [sp, 253]
 6039 51e4 E2FB0339 		strb	w2, [sp, 254]
 6040 51e8 E1FF0339 		strb	w1, [sp, 255]
 6041              	.L1153:
 6042 51ec E2FF4339 		ldrb	w2, [sp, 255]
 6043 51f0 01008052 		mov	w1, 0
 6044 51f4 5F200071 		cmp	w2, 8
 6045 51f8 E9000054 		bls	.L1161
 6046 51fc 21008052 		mov	w1, 1
 6047 5200 5F400071 		cmp	w2, 16
 6048 5204 89000054 		bls	.L1161
 6049 5208 5F800071 		cmp	w2, 32
 6050 520c E1979F1A 		cset	w1, hi
 6051 5210 21080011 		add	w1, w1, 2
 6052              	.L1161:
 6053 5214 42008052 		mov	w2, 2
 6054 5218 20040033 		bfi	w0, w1, 0, 2
 6055 521c 60120039 		strb	w0, [x19, 4]
 6056 5220 622A0039 		strb	w2, [x19, 10]
 6057 5224 F80100B4 		cbz	x24, .L1162
 6058 5228 E103192A 		mov	w1, w25
 6059 522c E00318AA 		mov	x0, x24
 6060 5230 00000094 		bl	HubPortReset
 6061 5234 F403002A 		mov	w20, w0
 6062 5238 40010034 		cbz	w0, .L1162
 6063 523c E00313AA 		mov	x0, x19
 6064 5240 00000094 		bl	UsbGetDescription
 6065 5244 02000090 		adrp	x2, .LC78
 6066 5248 E10300AA 		mov	x1, x0
 6067 524c 40000091 		add	x0, x2, :lo12:.LC78
 6068 5250 00000094 		bl	printf
 6069 5254 75160039 		strb	w21, [x19, 5]
 6070 5258 C7FFFF17 		b	.L1151
 6071 525c 1F2003D5 		.p2align 3
 6072              	.L1162:
 6073 5260 600640B9 		ldr	w0, [x19, 4]
 6074 5264 E0A300B9 		str	w0, [sp, 160]
AARCH64 GAS  C:\Users\ldebo\AppData\Local\Temp\ccfW7LPV.s 			page 108


 6075 5268 D5080034 		cbz	w21, .L1204
 6076 526c FFAB00B9 		str	wzr, [sp, 168]
 6077 5270 A2008052 		mov	w2, 5
 6078 5274 E05340F9 		ldr	x0, [sp, 160]
 6079 5278 E15740F9 		ldr	x1, [sp, 168]
 6080 527c FF6F00F9 		str	xzr, [sp, 216]
 6081 5280 E2670339 		strb	w2, [sp, 217]
 6082 5284 E2630391 		add	x2, sp, 216
 6083 5288 F5B70179 		strh	w21, [sp, 218]
 6084 528c 09F1FF97 		bl	HCDSumbitControlMessage.constprop.13
 6085 5290 F403002A 		mov	w20, w0
 6086 5294 A0070035 		cbnz	w0, .L1163
 6087 5298 75160039 		strb	w21, [x19, 5]
 6088 529c 00E284D2 		mov	x0, 10000
 6089 52a0 36008052 		mov	w22, 1
 6090 52a4 00000094 		bl	timer_wait
 6091 52a8 600640B9 		ldr	w0, [x19, 4]
 6092 52ac 61008052 		mov	w1, 3
 6093 52b0 612A0039 		strb	w1, [x19, 10]
 6094 52b4 E7030391 		add	x7, sp, 192
 6095 52b8 F6030039 		strb	w22, [sp]
 6096 52bc E60F8012 		mov	w6, -128
 6097 52c0 45028052 		mov	w5, 18
 6098 52c4 64560F91 		add	x4, x19, 981
 6099 52c8 03008052 		mov	w3, 0
 6100 52cc 02008052 		mov	w2, 0
 6101 52d0 21008052 		mov	w1, 1
 6102 52d4 00000094 		bl	HCDGetDescriptor
 6103 52d8 F403002A 		mov	w20, w0
 6104 52dc 80000035 		cbnz	w0, .L1164
 6105 52e0 E0C340B9 		ldr	w0, [sp, 192]
 6106 52e4 1F480071 		cmp	w0, 18
 6107 52e8 40080054 		beq	.L1166
 6108              	.L1164:
 6109 52ec 61164039 		ldrb	w1, [x19, 5]
 6110 52f0 00000090 		adrp	x0, .LC80
 6111 52f4 E203142A 		mov	w2, w20
 6112 52f8 00000091 		add	x0, x0, :lo12:.LC80
 6113 52fc 00000094 		bl	printf
 6114 5300 9DFFFF17 		b	.L1151
 6115 5304 1F2003D5 		.p2align 3
 6116              	.L1156:
 6117 5308 21001E32 		orr	w1, w1, 4
 6118 530c E1470439 		strb	w1, [sp, 273]
 6119 5310 E04B40F9 		ldr	x0, [sp, 144]
 6120 5314 FB430891 		add	x27, sp, 528
 6121 5318 E18B40F9 		ldr	x1, [sp, 272]
 6122 531c 44008052 		mov	w4, 2
 6123 5320 03018052 		mov	w3, 8
 6124 5324 E2031BAA 		mov	x2, x27
 6125 5328 00000094 		bl	HCDChannelTransfer
 6126 532c A0030035 		cbnz	w0, .L1198
 6127 5330 00000090 		adrp	x0, RPi_IO_Base_Addr
 6128 5334 000040B9 		ldr	w0, [x0, #:lo12:RPi_IO_Base_Addr]
 6129 5338 1C018052 		mov	w28, 8
 6130 533c 00006611 		add	w0, w0, 9961472
 6131 5340 00001411 		add	w0, w0, 1280
AARCH64 GAS  C:\Users\ldebo\AppData\Local\Temp\ccfW7LPV.s 			page 109


 6132 5344 021040B9 		ldr	w2, [x0, 16]
 6133 5348 404840D3 		ubfx	x0, x2, 0, 19
 6134 534c 9C03006B 		subs	w28, w28, w0
 6135 5350 C0EAFF54 		beq	.L1157
 6136 5354 E2008052 		mov	w2, 7
 6137 5358 4200004B 		sub	w2, w2, w0
 6138 535c 42040091 		add	x2, x2, 1
 6139 5360 E3E30391 		add	x3, sp, 248
 6140 5364 000080D2 		mov	x0, 0
 6141              		.p2align 3
 6142              	.L1158:
 6143 5368 616B6038 		ldrb	w1, [x27, x0]
 6144 536c 61682038 		strb	w1, [x3, x0]
 6145 5370 00040091 		add	x0, x0, 1
 6146 5374 1F0002EB 		cmp	x0, x2
 6147 5378 81FFFF54 		bne	.L1158
 6148 537c 4BFFFF17 		b	.L1157
 6149              	.L1204:
 6150 5380 34008012 		mov	w20, -2
 6151 5384 1F2003D5 		.p2align 3
 6152              	.L1163:
 6153 5388 00000090 		adrp	x0, .LC79
 6154 538c E103152A 		mov	w1, w21
 6155 5390 00000091 		add	x0, x0, :lo12:.LC79
 6156 5394 00000094 		bl	printf
 6157 5398 75160039 		strb	w21, [x19, 5]
 6158 539c 76FFFF17 		b	.L1151
 6159              		.p2align 3
 6160              	.L1198:
 6161 53a0 00000090 		adrp	x0, .LC12
 6162 53a4 01008052 		mov	w1, 0
 6163 53a8 00000091 		add	x0, x0, :lo12:.LC12
 6164 53ac 00000094 		bl	printf
 6165 53b0 FCC340B9 		ldr	w28, [sp, 192]
 6166 53b4 FB2B40F9 		ldr	x27, [sp, 80]
 6167 53b8 66FFFF17 		b	.L1155
 6168 53bc 1F2003D5 		.p2align 3
 6169              	.L1257:
 6170 53c0 00000090 		adrp	x0, .LC11
 6171 53c4 01008052 		mov	w1, 0
 6172 53c8 00000091 		add	x0, x0, :lo12:.LC11
 6173 53cc 00000094 		bl	printf
 6174 53d0 FCC340B9 		ldr	w28, [sp, 192]
 6175 53d4 FB2B40F9 		ldr	x27, [sp, 80]
 6176 53d8 5EFFFF17 		b	.L1155
 6177 53dc 1F2003D5 		.p2align 3
 6178              	.L1258:
 6179 53e0 60124039 		ldrb	w0, [x19, 4]
 6180 53e4 FC2F40F9 		ldr	x28, [sp, 88]
 6181 53e8 81FFFF17 		b	.L1153
 6182 53ec 1F2003D5 		.p2align 3
 6183              	.L1166:
 6184 53f0 600640B9 		ldr	w0, [x19, 4]
 6185 53f4 E60F8012 		mov	w6, -128
 6186 53f8 F6030039 		strb	w22, [sp]
 6187 53fc E7130391 		add	x7, sp, 196
 6188 5400 25018052 		mov	w5, 9
AARCH64 GAS  C:\Users\ldebo\AppData\Local\Temp\ccfW7LPV.s 			page 110


 6189 5404 E4A30391 		add	x4, sp, 232
 6190 5408 03008052 		mov	w3, 0
 6191 540c 02008052 		mov	w2, 0
 6192 5410 41008052 		mov	w1, 2
 6193 5414 00000094 		bl	HCDGetDescriptor
 6194 5418 80250035 		cbnz	w0, .L1167
 6195 541c E1C740B9 		ldr	w1, [sp, 196]
 6196 5420 3F240071 		cmp	w1, 9
 6197 5424 21250054 		bne	.L1167
 6198 5428 FF8B00B9 		str	wzr, [sp, 136]
 6199 542c 80008052 		mov	w0, 4
 6200 5430 E0270239 		strb	w0, [sp, 137]
 6201 5434 E6130391 		add	x6, sp, 196
 6202 5438 E3D74179 		ldrh	w3, [sp, 234]
 6203 543c 45018052 		mov	w5, 10
 6204 5440 E14740F9 		ldr	x1, [sp, 136]
 6205 5444 E4430391 		add	x4, sp, 208
 6206 5448 600640B9 		ldr	w0, [x19, 4]
 6207 544c E2BB4339 		ldrb	w2, [sp, 238]
 6208 5450 FB2B00F9 		str	x27, [sp, 80]
 6209 5454 FB430891 		add	x27, sp, 528
 6210 5458 62260039 		strb	w2, [x19, 9]
 6211 545c 02D08052 		mov	w2, 1664
 6212 5460 0240A072 		movk	w2, 0x200, lsl 16
 6213 5464 E2D300B9 		str	w2, [sp, 208]
 6214 5468 F6B74339 		ldrb	w22, [sp, 237]
 6215 546c E2031BAA 		mov	x2, x27
 6216 5470 FFAB0179 		strh	wzr, [sp, 212]
 6217 5474 E3AF0179 		strh	w3, [sp, 214]
 6218 5478 00000094 		bl	HCDSumbitControlMessage
 6219 547c F403002A 		mov	w20, w0
 6220 5480 A0010035 		cbnz	w0, .L1169
 6221 5484 E3D74179 		ldrh	w3, [sp, 234]
 6222 5488 E2C740B9 		ldr	w2, [sp, 196]
 6223 548c 7F00026B 		cmp	w3, w2
 6224 5490 20020054 		beq	.L1259
 6225 5494 61164039 		ldrb	w1, [x19, 5]
 6226 5498 00000090 		adrp	x0, .LC92
 6227 549c 03008052 		mov	w3, 0
 6228 54a0 00000091 		add	x0, x0, :lo12:.LC92
 6229 54a4 74008012 		mov	w20, -4
 6230 54a8 00000094 		bl	printf
 6231 54ac FB2B40F9 		ldr	x27, [sp, 80]
 6232 54b0 31FFFF17 		b	.L1151
 6233              	.L1169:
 6234 54b4 61164039 		ldrb	w1, [x19, 5]
 6235 54b8 00000090 		adrp	x0, .LC92
 6236 54bc E2C740B9 		ldr	w2, [sp, 196]
 6237 54c0 E303142A 		mov	w3, w20
 6238 54c4 00000091 		add	x0, x0, :lo12:.LC92
 6239 54c8 00000094 		bl	printf
 6240 54cc FB2B40F9 		ldr	x27, [sp, 80]
 6241 54d0 29FFFF17 		b	.L1151
 6242              	.L1259:
 6243 54d4 7F040071 		cmp	w3, 1
 6244 54d8 C02A0054 		beq	.L1205
 6245 54dc F7020091 		add	x23, x23, :lo12:.LANCHOR1
AARCH64 GAS  C:\Users\ldebo\AppData\Local\Temp\ccfW7LPV.s 			page 111


 6246 54e0 18000090 		adrp	x24, .LC83
 6247 54e4 00030091 		add	x0, x24, :lo12:.LC83
 6248 54e8 E03F00F9 		str	x0, [sp, 120]
 6249 54ec FA220091 		add	x26, x23, 8
 6250 54f0 FC2F00F9 		str	x28, [sp, 88]
 6251 54f4 17008052 		mov	w23, 0
 6252 54f8 19008052 		mov	w25, 0
 6253 54fc 1C0E8052 		mov	w28, 112
 6254 5500 0B000014 		b	.L1183
 6255 5504 1F2003D5 		.p2align 3
 6256              	.L1261:
 6257 5508 1F840071 		cmp	w0, 33
 6258 550c A0090054 		beq	.L1174
 6259 5510 1F100071 		cmp	w0, 4
 6260 5514 00050054 		beq	.L1175
 6261 5518 614B7438 		ldrb	w1, [x27, w20, uxtw]
 6262              	.L1176:
 6263 551c 9402010B 		add	w20, w20, w1
 6264 5520 60040051 		sub	w0, w3, #1
 6265 5524 1F00146B 		cmp	w0, w20
 6266 5528 C9150054 		bls	.L1260
 6267              	.L1183:
 6268 552c 81060011 		add	w1, w20, 1
 6269 5530 604B6138 		ldrb	w0, [x27, w1, uxtw]
 6270 5534 1F140071 		cmp	w0, 5
 6271 5538 81FEFF54 		bne	.L1261
 6272 553c 62324039 		ldrb	w2, [x19, 12]
 6273 5540 AA0A80D2 		mov	x10, 85
 6274 5544 E4008052 		mov	w4, 7
 6275 5548 890A0011 		add	w9, w20, 2
 6276 554c 42040051 		sub	w2, w2, #1
 6277 5550 880E0011 		add	w8, w20, 3
 6278 5554 87120011 		add	w7, w20, 4
 6279 5558 86160011 		add	w6, w20, 5
 6280 555c 851A0011 		add	w5, w20, 6
 6281 5560 614B7438 		ldrb	w1, [x27, w20, uxtw]
 6282 5564 1F2003D5 		nop // between mem op and mult-accumulate
 6283 5568 42283C9B 		smaddl	x2, w2, w28, x10
 6284 556c 694B6938 		ldrb	w9, [x27, w9, uxtw]
 6285 5570 1F2003D5 		nop // between mem op and mult-accumulate
 6286 5574 8408B99B 		umaddl	x4, w4, w25, x2
 6287 5578 684B6838 		ldrb	w8, [x27, w8, uxtw]
 6288 557c 674B6738 		ldrb	w7, [x27, w7, uxtw]
 6289 5580 39070011 		add	w25, w25, 1
 6290 5584 6202048B 		add	x2, x19, x4
 6291 5588 664B6638 		ldrb	w6, [x27, w6, uxtw]
 6292 558c 654B6538 		ldrb	w5, [x27, w5, uxtw]
 6293 5590 391F0012 		and	w25, w25, 255
 6294 5594 616A2438 		strb	w1, [x19, x4]
 6295 5598 40040039 		strb	w0, [x2, 1]
 6296 559c 49080039 		strb	w9, [x2, 2]
 6297 55a0 480C0039 		strb	w8, [x2, 3]
 6298 55a4 47100039 		strb	w7, [x2, 4]
 6299 55a8 46140039 		strb	w6, [x2, 5]
 6300 55ac 45180039 		strb	w5, [x2, 6]
 6301 55b0 DBFFFF17 		b	.L1176
 6302              	.L1175:
AARCH64 GAS  C:\Users\ldebo\AppData\Local\Temp\ccfW7LPV.s 			page 112


 6303 55b4 62324039 		ldrb	w2, [x19, 12]
 6304 55b8 A10180D2 		mov	x1, 13
 6305 55bc 24018052 		mov	w4, 9
 6306 55c0 8B0A0011 		add	w11, w20, 2
 6307 55c4 8A0E0011 		add	w10, w20, 3
 6308 55c8 89120011 		add	w9, w20, 4
 6309 55cc 88160011 		add	w8, w20, 5
 6310 55d0 871A0011 		add	w7, w20, 6
 6311 55d4 8404A29B 		umaddl	x4, w4, w2, x1
 6312 55d8 861E0011 		add	w6, w20, 7
 6313 55dc 85220011 		add	w5, w20, 8
 6314 55e0 614B7438 		ldrb	w1, [x27, w20, uxtw]
 6315 55e4 6202048B 		add	x2, x19, x4
 6316 55e8 6B4B6B38 		ldrb	w11, [x27, w11, uxtw]
 6317 55ec 6A4B6A38 		ldrb	w10, [x27, w10, uxtw]
 6318 55f0 19008052 		mov	w25, 0
 6319 55f4 616A2438 		strb	w1, [x19, x4]
 6320 55f8 694B6938 		ldrb	w9, [x27, w9, uxtw]
 6321 55fc 684B6838 		ldrb	w8, [x27, w8, uxtw]
 6322 5600 674B6738 		ldrb	w7, [x27, w7, uxtw]
 6323 5604 664B6638 		ldrb	w6, [x27, w6, uxtw]
 6324 5608 644B6538 		ldrb	w4, [x27, w5, uxtw]
 6325 560c 40040039 		strb	w0, [x2, 1]
 6326 5610 4B080039 		strb	w11, [x2, 2]
 6327 5614 4A0C0039 		strb	w10, [x2, 3]
 6328 5618 49100039 		strb	w9, [x2, 4]
 6329 561c 48140039 		strb	w8, [x2, 5]
 6330 5620 47180039 		strb	w7, [x2, 6]
 6331 5624 461C0039 		strb	w6, [x2, 7]
 6332 5628 44200039 		strb	w4, [x2, 8]
 6333 562c 60324039 		ldrb	w0, [x19, 12]
 6334 5630 00040011 		add	w0, w0, 1
 6335 5634 60320039 		strb	w0, [x19, 12]
 6336 5638 B9FFFF17 		b	.L1176
 6337 563c 1F2003D5 		.p2align 3
 6338              	.L1174:
 6339 5640 97050035 		cbnz	w23, .L1177
 6340 5644 60EA43B9 		ldr	w0, [x19, 1000]
 6341 5648 1F040071 		cmp	w0, 1
 6342 564c C11B0054 		bne	.L1206
 6343 5650 42A34039 		ldrb	w2, [x26, 40]
 6344 5654 421B0034 		cbz	w2, .L1207
 6345 5658 42474139 		ldrb	w2, [x26, 81]
 6346 565c 22060034 		cbz	w2, .L1179
 6347 5660 40EB4139 		ldrb	w0, [x26, 122]
 6348 5664 A01C0034 		cbz	w0, .L1209
 6349 5668 408F4239 		ldrb	w0, [x26, 163]
 6350 566c 601D0034 		cbz	w0, .L1210
 6351 5670 40334339 		ldrb	w0, [x26, 204]
 6352 5674 E01C0034 		cbz	w0, .L1211
 6353 5678 40D74339 		ldrb	w0, [x26, 245]
 6354 567c 601C0034 		cbz	w0, .L1212
 6355 5680 407B4439 		ldrb	w0, [x26, 286]
 6356 5684 E01B0034 		cbz	w0, .L1213
 6357 5688 401F4539 		ldrb	w0, [x26, 327]
 6358 568c E01C0034 		cbz	w0, .L1214
 6359 5690 40C34539 		ldrb	w0, [x26, 368]
AARCH64 GAS  C:\Users\ldebo\AppData\Local\Temp\ccfW7LPV.s 			page 113


 6360 5694 601C0034 		cbz	w0, .L1215
 6361 5698 40674639 		ldrb	w0, [x26, 409]
 6362 569c 601D0034 		cbz	w0, .L1216
 6363 56a0 400B4739 		ldrb	w0, [x26, 450]
 6364 56a4 E01C0034 		cbz	w0, .L1217
 6365 56a8 40AF4739 		ldrb	w0, [x26, 491]
 6366 56ac A01D0034 		cbz	w0, .L1218
 6367 56b0 40534839 		ldrb	w0, [x26, 532]
 6368 56b4 201D0034 		cbz	w0, .L1219
 6369 56b8 40F74839 		ldrb	w0, [x26, 573]
 6370 56bc A01C0034 		cbz	w0, .L1220
 6371 56c0 409B4939 		ldrb	w0, [x26, 614]
 6372 56c4 C0020034 		cbz	w0, .L1221
 6373 56c8 403F4A39 		ldrb	w0, [x26, 655]
 6374 56cc 601B0034 		cbz	w0, .L1262
 6375 56d0 D4008012 		mov	w20, -7
 6376              	.L1178:
 6377 56d4 00000090 		adrp	x0, .LC82
 6378 56d8 E103142A 		mov	w1, w20
 6379 56dc 00000091 		add	x0, x0, :lo12:.LC82
 6380 56e0 00000094 		bl	printf
 6381 56e4 FB7345A9 		ldp	x27, x28, [sp, 80]
 6382 56e8 A3FEFF17 		b	.L1151
 6383 56ec 1F2003D5 		.p2align 3
 6384              	.L1177:
 6385 56f0 F803142A 		uxtw	x24, w20
 6386 56f4 FF0E0071 		cmp	w23, 3
 6387 56f8 E9100054 		bls	.L1263
 6388              	.L1181:
 6389 56fc 616B7838 		ldrb	w1, [x27, x24]
 6390 5700 3F240071 		cmp	w1, 9
 6391 5704 80000054 		beq	.L1254
 6392 5708 E03F40F9 		ldr	x0, [sp, 120]
 6393 570c 00000094 		bl	printf
 6394 5710 616B7838 		ldrb	w1, [x27, x24]
 6395              	.L1254:
 6396 5714 E3D74179 		ldrh	w3, [sp, 234]
 6397 5718 81FFFF17 		b	.L1176
 6398              	.L1221:
 6399 571c C0018052 		mov	w0, 14
 6400              	.L1179:
 6401 5720 027C4093 		sxtw	x2, w0
 6402 5724 250580D2 		mov	x5, 41
 6403 5728 24058052 		mov	w4, 41
 6404 572c 66008052 		mov	w6, 3
 6405 5730 83008052 		mov	w3, 4
 6406 5734 66EA03B9 		str	w6, [x19, 1000]
 6407 5738 1F2003D5 		nop // between mem op and mult-accumulate
 6408 573c 4268059B 		madd	x2, x2, x5, x26
 6409 5740 0068249B 		smaddl	x0, w0, w4, x26
 6410 5744 60FA01F9 		str	x0, [x19, 1008]
 6411 5748 43A00039 		strb	w3, [x2, 40]
 6412              	.L1180:
 6413 574c 23018052 		mov	w3, 9
 6414 5750 694B7438 		ldrb	w9, [x27, w20, uxtw]
 6415 5754 880A0011 		add	w8, w20, 2
 6416 5758 870E0011 		add	w7, w20, 3
AARCH64 GAS  C:\Users\ldebo\AppData\Local\Temp\ccfW7LPV.s 			page 114


 6417 575c E37EA39B 		umull	x3, w23, w3
 6418 5760 86120011 		add	w6, w20, 4
 6419 5764 85160011 		add	w5, w20, 5
 6420 5768 841A0011 		add	w4, w20, 6
 6421 576c 0200038B 		add	x2, x0, x3
 6422 5770 F803142A 		uxtw	x24, w20
 6423 5774 09682338 		strb	w9, [x0, x3]
 6424 5778 831E0011 		add	w3, w20, 7
 6425 577c 80220011 		add	w0, w20, 8
 6426 5780 614B6138 		ldrb	w1, [x27, w1, uxtw]
 6427 5784 41040039 		strb	w1, [x2, 1]
 6428 5788 614B6838 		ldrb	w1, [x27, w8, uxtw]
 6429 578c E8060011 		add	w8, w23, 1
 6430 5790 41080039 		strb	w1, [x2, 2]
 6431 5794 614B6738 		ldrb	w1, [x27, w7, uxtw]
 6432 5798 410C0039 		strb	w1, [x2, 3]
 6433 579c 614B6638 		ldrb	w1, [x27, w6, uxtw]
 6434 57a0 41100039 		strb	w1, [x2, 4]
 6435 57a4 614B6538 		ldrb	w1, [x27, w5, uxtw]
 6436 57a8 41140039 		strb	w1, [x2, 5]
 6437 57ac 614B6438 		ldrb	w1, [x27, w4, uxtw]
 6438 57b0 41180039 		strb	w1, [x2, 6]
 6439 57b4 614B6338 		ldrb	w1, [x27, w3, uxtw]
 6440 57b8 411C0039 		strb	w1, [x2, 7]
 6441 57bc 604B6038 		ldrb	w0, [x27, w0, uxtw]
 6442 57c0 40200039 		strb	w0, [x2, 8]
 6443 57c4 60FA41F9 		ldr	x0, [x19, 1008]
 6444 57c8 61324039 		ldrb	w1, [x19, 12]
 6445 57cc 0000378B 		add	x0, x0, x23, uxtb
 6446 57d0 21040051 		sub	w1, w1, #1
 6447 57d4 171D0012 		and	w23, w8, 255
 6448 57d8 01900039 		strb	w1, [x0, 36]
 6449 57dc C8FFFF17 		b	.L1181
 6450              	.L1260:
 6451 57e0 FC2F40F9 		ldr	x28, [sp, 88]
 6452              	.L1171:
 6453 57e4 600640B9 		ldr	w0, [x19, 4]
 6454 57e8 22018052 		mov	w2, 9
 6455 57ec E0B300B9 		str	w0, [sp, 176]
 6456 57f0 78164039 		ldrb	w24, [x19, 5]
 6457 57f4 F8C70239 		strb	w24, [sp, 177]
 6458 57f8 FFBB00B9 		str	wzr, [sp, 184]
 6459 57fc FF7300F9 		str	xzr, [sp, 224]
 6460 5800 E0074BA9 		ldp	x0, x1, [sp, 176]
 6461 5804 E2870339 		strb	w2, [sp, 225]
 6462 5808 F6C70179 		strh	w22, [sp, 226]
 6463 580c E2830391 		add	x2, sp, 224
 6464 5810 A8EFFF97 		bl	HCDSumbitControlMessage.constprop.13
 6465 5814 F403002A 		mov	w20, w0
 6466 5818 60060035 		cbnz	w0, .L1184
 6467 581c 80008052 		mov	w0, 4
 6468 5820 76220039 		strb	w22, [x19, 8]
 6469 5824 602A0039 		strb	w0, [x19, 10]
 6470 5828 E00313AA 		mov	x0, x19
 6471 582c 00000094 		bl	UsbGetDescription
 6472 5830 E10300AA 		mov	x1, x0
 6473 5834 67324039 		ldrb	w7, [x19, 12]
AARCH64 GAS  C:\Users\ldebo\AppData\Local\Temp\ccfW7LPV.s 			page 115


 6474 5838 08000090 		adrp	x8, .LC84
 6475 583c 669A4F39 		ldrb	w6, [x19, 998]
 6476 5840 E203152A 		mov	w2, w21
 6477 5844 655E4F39 		ldrb	w5, [x19, 983]
 6478 5848 00010091 		add	x0, x8, :lo12:.LC84
 6479 584c 64624F39 		ldrb	w4, [x19, 984]
 6480 5850 63664F39 		ldrb	w3, [x19, 985]
 6481 5854 00000094 		bl	printf
 6482 5858 61924F39 		ldrb	w1, [x19, 996]
 6483 585c C1090035 		cbnz	w1, .L1264
 6484              	.L1186:
 6485 5860 618E4F39 		ldrb	w1, [x19, 995]
 6486 5864 41080035 		cbnz	w1, .L1265
 6487              	.L1189:
 6488 5868 61964F39 		ldrb	w1, [x19, 997]
 6489 586c C1060035 		cbnz	w1, .L1266
 6490              	.L1192:
 6491 5870 61264039 		ldrb	w1, [x19, 9]
 6492 5874 41050035 		cbnz	w1, .L1267
 6493              	.L1195:
 6494 5878 60664F39 		ldrb	w0, [x19, 985]
 6495 587c 1F240071 		cmp	w0, 9
 6496 5880 600A0054 		beq	.L1268
 6497 5884 77000035 		cbnz	w23, .L1269
 6498              	.L1253:
 6499 5888 FB2B40F9 		ldr	x27, [sp, 80]
 6500 588c 3AFEFF17 		b	.L1151
 6501              	.L1269:
 6502 5890 60FA41F9 		ldr	x0, [x19, 1008]
 6503 5894 E10313AA 		mov	x1, x19
 6504 5898 17A00039 		strb	w23, [x0, 40]
 6505 589c 600640B9 		ldr	w0, [x19, 4]
 6506 58a0 00000094 		bl	EnumerateHID
 6507 58a4 F403002A 		mov	w20, w0
 6508 58a8 00FFFF34 		cbz	w0, .L1253
 6509 58ac 61164039 		ldrb	w1, [x19, 5]
 6510 58b0 00000090 		adrp	x0, .LC91
 6511 58b4 E203142A 		mov	w2, w20
 6512 58b8 00000091 		add	x0, x0, :lo12:.LC91
 6513 58bc 00000094 		bl	printf
 6514 58c0 FB2B40F9 		ldr	x27, [sp, 80]
 6515 58c4 2CFEFF17 		b	.L1151
 6516              	.L1167:
 6517 58c8 62164039 		ldrb	w2, [x19, 5]
 6518 58cc 03000090 		adrp	x3, .LC81
 6519 58d0 E103002A 		mov	w1, w0
 6520 58d4 74008012 		mov	w20, -4
 6521 58d8 60000091 		add	x0, x3, :lo12:.LC81
 6522 58dc 00000094 		bl	printf
 6523 58e0 25FEFF17 		b	.L1151
 6524              	.L1184:
 6525 58e4 E203002A 		mov	w2, w0
 6526 58e8 E103182A 		mov	w1, w24
 6527 58ec 00000090 		adrp	x0, .LC13
 6528 58f0 00000091 		add	x0, x0, :lo12:.LC13
 6529 58f4 00000094 		bl	printf
 6530 58f8 62164039 		ldrb	w2, [x19, 5]
AARCH64 GAS  C:\Users\ldebo\AppData\Local\Temp\ccfW7LPV.s 			page 116


 6531 58fc 00000090 		adrp	x0, .LC85
 6532 5900 E103162A 		mov	w1, w22
 6533 5904 00000091 		add	x0, x0, :lo12:.LC85
 6534 5908 00000094 		bl	printf
 6535 590c FB2B40F9 		ldr	x27, [sp, 80]
 6536 5910 19FEFF17 		b	.L1151
 6537              	.L1263:
 6538 5914 60FA41F9 		ldr	x0, [x19, 1008]
 6539 5918 8DFFFF17 		b	.L1180
 6540              	.L1267:
 6541 591c 600640B9 		ldr	w0, [x19, 4]
 6542 5920 03208052 		mov	w3, 256
 6543 5924 E2430491 		add	x2, sp, 272
 6544 5928 00000094 		bl	HCDReadStringDescriptor
 6545 592c 60FAFF35 		cbnz	w0, .L1195
 6546 5930 00000090 		adrp	x0, .LC89
 6547 5934 E1430491 		add	x1, sp, 272
 6548 5938 00000091 		add	x0, x0, :lo12:.LC89
 6549 593c 00000094 		bl	printf
 6550 5940 CEFFFF17 		b	.L1195
 6551              	.L1266:
 6552 5944 600640B9 		ldr	w0, [x19, 4]
 6553 5948 03208052 		mov	w3, 256
 6554 594c E2430491 		add	x2, sp, 272
 6555 5950 00000094 		bl	HCDReadStringDescriptor
 6556 5954 E0F8FF35 		cbnz	w0, .L1192
 6557 5958 00000090 		adrp	x0, .LC88
 6558 595c E1430491 		add	x1, sp, 272
 6559 5960 00000091 		add	x0, x0, :lo12:.LC88
 6560 5964 00000094 		bl	printf
 6561 5968 C2FFFF17 		b	.L1192
 6562              	.L1265:
 6563 596c 600640B9 		ldr	w0, [x19, 4]
 6564 5970 03208052 		mov	w3, 256
 6565 5974 E2430491 		add	x2, sp, 272
 6566 5978 00000094 		bl	HCDReadStringDescriptor
 6567 597c 60F7FF35 		cbnz	w0, .L1189
 6568 5980 00000090 		adrp	x0, .LC87
 6569 5984 E1430491 		add	x1, sp, 272
 6570 5988 00000091 		add	x0, x0, :lo12:.LC87
 6571 598c 00000094 		bl	printf
 6572 5990 B6FFFF17 		b	.L1189
 6573              	.L1264:
 6574 5994 600640B9 		ldr	w0, [x19, 4]
 6575 5998 03208052 		mov	w3, 256
 6576 599c E2430491 		add	x2, sp, 272
 6577 59a0 00000094 		bl	HCDReadStringDescriptor
 6578 59a4 E0F5FF35 		cbnz	w0, .L1186
 6579 59a8 00000090 		adrp	x0, .LC86
 6580 59ac E1430491 		add	x1, sp, 272
 6581 59b0 00000091 		add	x0, x0, :lo12:.LC86
 6582 59b4 00000094 		bl	printf
 6583 59b8 AAFFFF17 		b	.L1186
 6584              	.L1207:
 6585 59bc 00008052 		mov	w0, 0
 6586 59c0 58FFFF17 		b	.L1179
 6587              	.L1206:
AARCH64 GAS  C:\Users\ldebo\AppData\Local\Temp\ccfW7LPV.s 			page 117


 6588 59c4 34008012 		mov	w20, -2
 6589 59c8 43FFFF17 		b	.L1178
 6590              	.L1268:
 6591 59cc E00313AA 		mov	x0, x19
 6592 59d0 00000094 		bl	EnumerateHub
 6593 59d4 F403002A 		mov	w20, w0
 6594 59d8 80F5FF34 		cbz	w0, .L1253
 6595 59dc 61164039 		ldrb	w1, [x19, 5]
 6596 59e0 00000090 		adrp	x0, .LC90
 6597 59e4 E203142A 		mov	w2, w20
 6598 59e8 00000091 		add	x0, x0, :lo12:.LC90
 6599 59ec 00000094 		bl	printf
 6600 59f0 FB2B40F9 		ldr	x27, [sp, 80]
 6601 59f4 E0FDFF17 		b	.L1151
 6602              	.L1209:
 6603 59f8 40008052 		mov	w0, 2
 6604 59fc 49FFFF17 		b	.L1179
 6605              	.L1213:
 6606 5a00 C0008052 		mov	w0, 6
 6607 5a04 47FFFF17 		b	.L1179
 6608              	.L1212:
 6609 5a08 A0008052 		mov	w0, 5
 6610 5a0c 45FFFF17 		b	.L1179
 6611              	.L1211:
 6612 5a10 80008052 		mov	w0, 4
 6613 5a14 43FFFF17 		b	.L1179
 6614              	.L1210:
 6615 5a18 60008052 		mov	w0, 3
 6616 5a1c 41FFFF17 		b	.L1179
 6617              	.L1215:
 6618 5a20 00018052 		mov	w0, 8
 6619 5a24 3FFFFF17 		b	.L1179
 6620              	.L1214:
 6621 5a28 E0008052 		mov	w0, 7
 6622 5a2c 3DFFFF17 		b	.L1179
 6623              	.L1205:
 6624 5a30 17008052 		mov	w23, 0
 6625 5a34 6CFFFF17 		b	.L1171
 6626              	.L1262:
 6627 5a38 E0018052 		mov	w0, 15
 6628 5a3c 39FFFF17 		b	.L1179
 6629              	.L1217:
 6630 5a40 40018052 		mov	w0, 10
 6631 5a44 37FFFF17 		b	.L1179
 6632              	.L1216:
 6633 5a48 20018052 		mov	w0, 9
 6634 5a4c 35FFFF17 		b	.L1179
 6635              	.L1220:
 6636 5a50 A0018052 		mov	w0, 13
 6637 5a54 33FFFF17 		b	.L1179
 6638              	.L1219:
 6639 5a58 80018052 		mov	w0, 12
 6640 5a5c 31FFFF17 		b	.L1179
 6641              	.L1218:
 6642 5a60 60018052 		mov	w0, 11
 6643 5a64 2FFFFF17 		b	.L1179
 6644              		.size	EnumerateDevice, .-EnumerateDevice
AARCH64 GAS  C:\Users\ldebo\AppData\Local\Temp\ccfW7LPV.s 			page 118


 6645              		.align	2
 6646 5a68 1F2003D5 		.p2align 4,,15
 6646      1F2003D5 
 6647              		.global	HubPortConnectionChanged
 6648              		.type	HubPortConnectionChanged, %function
 6649              	HubPortConnectionChanged:
 6650 5a70 F353B3A9 		stp	x19, x20, [sp, -208]!
 6651 5a74 F55B01A9 		stp	x21, x22, [sp, 16]
 6652 5a78 361C0012 		and	w22, w1, 255
 6653 5a7c FB2300F9 		str	x27, [sp, 64]
 6654 5a80 FE2B00F9 		str	x30, [sp, 80]
 6655 5a84 1B144039 		ldrb	w27, [x0, 5]
 6656 5a88 61070051 		sub	w1, w27, #1
 6657 5a8c 221C0012 		and	w2, w1, 255
 6658 5a90 5F7C0071 		cmp	w2, 31
 6659 5a94 282B0054 		bhi	.L1295
 6660 5a98 217C4093 		sxtw	x1, w1
 6661 5a9c FA1F00F9 		str	x26, [sp, 56]
 6662 5aa0 1A000090 		adrp	x26, DeviceTable
 6663 5aa4 42030091 		add	x2, x26, :lo12:DeviceTable
 6664 5aa8 037F80D2 		mov	x3, 1016
 6665 5aac 2108039B 		madd	x1, x1, x3, x2
 6666 5ab0 22E843B9 		ldr	w2, [x1, 1000]
 6667 5ab4 5F080071 		cmp	w2, 2
 6668 5ab8 01260054 		bne	.L1297
 6669 5abc 21F841F9 		ldr	x1, [x1, 1008]
 6670 5ac0 C12500B4 		cbz	x1, .L1297
 6671 5ac4 F91B00F9 		str	x25, [sp, 48]
 6672 5ac8 D3060011 		add	w19, w22, 1
 6673 5acc 19104039 		ldrb	w25, [x0, 4]
 6674 5ad0 14148052 		mov	w20, 160
 6675 5ad4 FC2700F9 		str	x28, [sp, 72]
 6676 5ad8 FC0300AA 		mov	x28, x0
 6677 5adc 000440B9 		ldr	w0, [x0, 4]
 6678 5ae0 E4030391 		add	x4, sp, 192
 6679 5ae4 E07300B9 		str	w0, [sp, 112]
 6680 5ae8 E3C30291 		add	x3, sp, 176
 6681 5aec FF7B00B9 		str	wzr, [sp, 120]
 6682 5af0 80008052 		mov	w0, 4
 6683 5af4 FBC70139 		strb	w27, [sp, 113]
 6684 5af8 E0E70139 		strb	w0, [sp, 121]
 6685 5afc 82FB41F9 		ldr	x2, [x28, 1008]
 6686 5b00 E00747A9 		ldp	x0, x1, [sp, 112]
 6687 5b04 F76302A9 		stp	x23, x24, [sp, 32]
 6688 5b08 E23300F9 		str	x2, [sp, 96]
 6689 5b0c 771E0072 		ands	w23, w19, 255
 6690 5b10 22070012 		and	w2, w25, 3
 6691 5b14 E26B00B9 		str	w2, [sp, 104]
 6692 5b18 62148052 		mov	w2, 163
 6693 5b1c FFB300B9 		str	wzr, [sp, 176]
 6694 5b20 9402821A 		csel	w20, w20, w2, eq
 6695 5b24 82008052 		mov	w2, 4
 6696 5b28 F83E0012 		and	w24, w23, 65535
 6697 5b2c F4C30239 		strb	w20, [sp, 176]
 6698 5b30 F86B0179 		strh	w24, [sp, 180]
 6699 5b34 390F42D3 		ubfx	x25, x25, 2, 2
 6700 5b38 E26F0179 		strh	w2, [sp, 182]
AARCH64 GAS  C:\Users\ldebo\AppData\Local\Temp\ccfW7LPV.s 			page 119


 6701 5b3c E2230391 		add	x2, sp, 200
 6702 5b40 FFC300B9 		str	wzr, [sp, 192]
 6703 5b44 FFCB00B9 		str	wzr, [sp, 200]
 6704 5b48 0AF0FF97 		bl	HCDSumbitControlMessage.constprop.14
 6705 5b4c F503002A 		mov	w21, w0
 6706 5b50 40160035 		cbnz	w0, .L1319
 6707 5b54 E0C340B9 		ldr	w0, [sp, 192]
 6708 5b58 1F0C0071 		cmp	w0, 3
 6709 5b5c E9260054 		bls	.L1320
 6710 5b60 800740B9 		ldr	w0, [x28, 4]
 6711 5b64 FF020071 		cmp	w23, 0
 6712 5b68 E08300B9 		str	w0, [sp, 128]
 6713 5b6c 02048052 		mov	w2, 32
 6714 5b70 9B174039 		ldrb	w27, [x28, 5]
 6715 5b74 23008052 		mov	w3, 1
 6716 5b78 FB070239 		strb	w27, [sp, 129]
 6717 5b7c 79048052 		mov	w25, 35
 6718 5b80 FF8B00B9 		str	wzr, [sp, 136]
 6719 5b84 3913821A 		csel	w25, w25, w2, ne
 6720 5b88 E4CB40B9 		ldr	w4, [sp, 200]
 6721 5b8c 02028052 		mov	w2, 16
 6722 5b90 E00748A9 		ldp	x0, x1, [sp, 128]
 6723 5b94 E46B00B9 		str	w4, [sp, 104]
 6724 5b98 F9E30239 		strb	w25, [sp, 184]
 6725 5b9c E3E70239 		strb	w3, [sp, 185]
 6726 5ba0 E2770179 		strh	w2, [sp, 186]
 6727 5ba4 E2E30291 		add	x2, sp, 184
 6728 5ba8 F87B0179 		strh	w24, [sp, 188]
 6729 5bac FF7F0179 		strh	wzr, [sp, 190]
 6730 5bb0 C0EEFF97 		bl	HCDSumbitControlMessage.constprop.13
 6731 5bb4 60170035 		cbnz	w0, .L1321
 6732 5bb8 E03340F9 		ldr	x0, [sp, 96]
 6733 5bbc E4A34139 		ldrb	w4, [sp, 104]
 6734 5bc0 1B0C368B 		add	x27, x0, x22, uxtb 3
 6735 5bc4 C01E4092 		and	x0, x22, 255
 6736 5bc8 E03700F9 		str	x0, [sp, 104]
 6737 5bcc 9F0440F2 		tst	x4, 3
 6738 5bd0 650740F9 		ldr	x5, [x27, 8]
 6739 5bd4 40000054 		beq	.L1279
 6740              	.L1327:
 6741 5bd8 450200B4 		cbz	x5, .L1282
 6742              	.L1279:
 6743 5bdc E46B00B9 		str	w4, [sp, 104]
 6744 5be0 E0031CAA 		mov	x0, x28
 6745 5be4 00000094 		bl	UsbGetDescription
 6746 5be8 E70300AA 		mov	x7, x0
 6747 5bec E00305AA 		mov	x0, x5
 6748 5bf0 00000094 		bl	UsbGetDescription
 6749 5bf4 E30300AA 		mov	x3, x0
 6750 5bf8 05000090 		adrp	x5, .LC95
 6751 5bfc E203132A 		mov	w2, w19
 6752 5c00 E10307AA 		mov	x1, x7
 6753 5c04 A0000091 		add	x0, x5, :lo12:.LC95
 6754 5c08 00000094 		bl	printf
 6755 5c0c 600740F9 		ldr	x0, [x27, 8]
 6756 5c10 00000094 		bl	UsbDeallocateDevice
 6757 5c14 7F0700F9 		str	xzr, [x27, 8]
AARCH64 GAS  C:\Users\ldebo\AppData\Local\Temp\ccfW7LPV.s 			page 120


 6758 5c18 E46B40B9 		ldr	w4, [sp, 104]
 6759 5c1c E4120036 		tbz	x4, 0, .L1318
 6760              	.L1282:
 6761 5c20 E103162A 		mov	w1, w22
 6762 5c24 E0031CAA 		mov	x0, x28
 6763 5c28 00000094 		bl	HubPortReset
 6764 5c2c E503002A 		mov	w5, w0
 6765 5c30 C0180035 		cbnz	w0, .L1322
 6766 5c34 E13340F9 		ldr	x1, [sp, 96]
 6767 5c38 C01E4092 		and	x0, x22, 255
 6768 5c3c 00040091 		add	x0, x0, 1
 6769 5c40 200C008B 		add	x0, x1, x0, lsl 3
 6770 5c44 E01500B4 		cbz	x0, .L1299
 6771 5c48 00000090 		adrp	x0, DeviceTable+1000
 6772 5c4c 00000091 		add	x0, x0, :lo12:DeviceTable+1000
 6773 5c50 01008052 		mov	w1, 0
 6774 5c54 04000014 		b	.L1287
 6775              		.p2align 3
 6776              	.L1284:
 6777 5c58 21040011 		add	w1, w1, 1
 6778 5c5c 3F800071 		cmp	w1, 32
 6779 5c60 801B0054 		beq	.L1323
 6780              	.L1287:
 6781 5c64 020040B9 		ldr	w2, [x0]
 6782 5c68 00E00F91 		add	x0, x0, 1016
 6783 5c6c 62FFFF35 		cbnz	w2, .L1284
 6784 5c70 227C4093 		sxtw	x2, w1
 6785 5c74 057F80D2 		mov	x5, 1016
 6786 5c78 5A030091 		add	x26, x26, :lo12:DeviceTable
 6787 5c7c 007F8052 		mov	w0, 1016
 6788 5c80 24040011 		add	w4, w1, 1
 6789 5c84 FF9B00B9 		str	wzr, [sp, 152]
 6790 5c88 427C059B 		mul	x2, x2, x5
 6791 5c8c E31F8052 		mov	w3, 255
 6792 5c90 2168209B 		smaddl	x1, w1, w0, x26
 6793 5c94 25008052 		mov	w5, 1
 6794 5c98 4003028B 		add	x0, x26, x2
 6795 5c9c 610700F9 		str	x1, [x27, 8]
 6796 5ca0 FFC300B9 		str	wzr, [sp, 192]
 6797 5ca4 81008052 		mov	w1, 4
 6798 5ca8 E1670239 		strb	w1, [sp, 153]
 6799 5cac 04140039 		strb	w4, [x0, 5]
 6800 5cb0 E4A30291 		add	x4, sp, 168
 6801 5cb4 1F280039 		strb	wzr, [x0, 10]
 6802 5cb8 FFAB00B9 		str	wzr, [sp, 168]
 6803 5cbc F4030339 		strb	w20, [sp, 192]
 6804 5cc0 436B2278 		strh	w3, [x26, x2]
 6805 5cc4 E14F40F9 		ldr	x1, [sp, 152]
 6806 5cc8 05E803B9 		str	w5, [x0, 1000]
 6807 5ccc 1FF801F9 		str	xzr, [x0, 1008]
 6808 5cd0 800740B9 		ldr	w0, [x28, 4]
 6809 5cd4 E09300B9 		str	w0, [sp, 144]
 6810 5cd8 94174039 		ldrb	w20, [x28, 5]
 6811 5cdc F4470239 		strb	w20, [sp, 145]
 6812 5ce0 82134039 		ldrb	w2, [x28, 4]
 6813 5ce4 E04B40F9 		ldr	x0, [sp, 144]
 6814 5ce8 43040012 		and	w3, w2, 3
AARCH64 GAS  C:\Users\ldebo\AppData\Local\Temp\ccfW7LPV.s 			page 121


 6815 5cec E36B00B9 		str	w3, [sp, 104]
 6816 5cf0 83008052 		mov	w3, 4
 6817 5cf4 E56300B9 		str	w5, [sp, 96]
 6818 5cf8 F88B0179 		strh	w24, [sp, 196]
 6819 5cfc 5A0C42D3 		ubfx	x26, x2, 2, 2
 6820 5d00 E38F0179 		strh	w3, [sp, 198]
 6821 5d04 E2230391 		add	x2, sp, 200
 6822 5d08 FFCB00B9 		str	wzr, [sp, 200]
 6823 5d0c E3030391 		add	x3, sp, 192
 6824 5d10 98EFFF97 		bl	HCDSumbitControlMessage.constprop.14
 6825 5d14 E56340B9 		ldr	w5, [sp, 96]
 6826 5d18 40170035 		cbnz	w0, .L1324
 6827 5d1c E0AB40B9 		ldr	w0, [sp, 168]
 6828 5d20 1F0C0071 		cmp	w0, 3
 6829 5d24 09130054 		bls	.L1325
 6830 5d28 E1274339 		ldrb	w1, [sp, 201]
 6831 5d2c 82174039 		ldrb	w2, [x28, 5]
 6832 5d30 600740F9 		ldr	x0, [x27, 8]
 6833 5d34 21151036 		tbz	x1, 2, .L1326
 6834 5d38 01104039 		ldrb	w1, [x0, 4]
 6835 5d3c 21741C12 		and	w1, w1, -13
 6836 5d40 01100039 		strb	w1, [x0, 4]
 6837              	.L1292:
 6838 5d44 02000039 		strb	w2, [x0]
 6839 5d48 E1031CAA 		mov	x1, x28
 6840 5d4c 16040039 		strb	w22, [x0, 1]
 6841 5d50 E203162A 		mov	w2, w22
 6842 5d54 00000094 		bl	EnumerateDevice
 6843 5d58 F403002A 		mov	w20, w0
 6844 5d5c E0080034 		cbz	w0, .L1318
 6845 5d60 E0031CAA 		mov	x0, x28
 6846 5d64 00000094 		bl	UsbGetDescription
 6847 5d68 E203132A 		mov	w2, w19
 6848 5d6c E10300AA 		mov	x1, x0
 6849 5d70 00000090 		adrp	x0, .LC99
 6850 5d74 00000091 		add	x0, x0, :lo12:.LC99
 6851 5d78 00000094 		bl	printf
 6852 5d7c F503142A 		mov	w21, w20
 6853 5d80 600740F9 		ldr	x0, [x27, 8]
 6854 5d84 00000094 		bl	UsbDeallocateDevice
 6855 5d88 94174039 		ldrb	w20, [x28, 5]
 6856 5d8c 800740B9 		ldr	w0, [x28, 4]
 6857 5d90 23008052 		mov	w3, 1
 6858 5d94 7F0700F9 		str	xzr, [x27, 8]
 6859 5d98 22008052 		mov	w2, 1
 6860 5d9c E0A300B9 		str	w0, [sp, 160]
 6861 5da0 F4870239 		strb	w20, [sp, 161]
 6862 5da4 FFAB00B9 		str	wzr, [sp, 168]
 6863 5da8 F9230339 		strb	w25, [sp, 200]
 6864 5dac E0074AA9 		ldp	x0, x1, [sp, 160]
 6865 5db0 E3270339 		strb	w3, [sp, 201]
 6866 5db4 E2970179 		strh	w2, [sp, 202]
 6867 5db8 E2230391 		add	x2, sp, 200
 6868 5dbc F89B0179 		strh	w24, [sp, 204]
 6869 5dc0 FF9F0179 		strh	wzr, [sp, 206]
 6870 5dc4 3BEEFF97 		bl	HCDSumbitControlMessage.constprop.13
 6871 5dc8 80050034 		cbz	w0, .L1318
AARCH64 GAS  C:\Users\ldebo\AppData\Local\Temp\ccfW7LPV.s 			page 122


 6872 5dcc E203172A 		mov	w2, w23
 6873 5dd0 E103142A 		mov	w1, w20
 6874 5dd4 04008052 		mov	w4, 0
 6875 5dd8 23008052 		mov	w3, 1
 6876 5ddc 00000090 		adrp	x0, .LC16
 6877 5de0 00000091 		add	x0, x0, :lo12:.LC16
 6878 5de4 00000094 		bl	printf
 6879 5de8 E0031CAA 		mov	x0, x28
 6880 5dec 00000094 		bl	UsbGetDescription
 6881 5df0 03000090 		adrp	x3, .LC100
 6882 5df4 E10300AA 		mov	x1, x0
 6883 5df8 E203132A 		mov	w2, w19
 6884 5dfc 60000091 		add	x0, x3, :lo12:.LC100
 6885 5e00 00000094 		bl	printf
 6886 5e04 FC2740F9 		ldr	x28, [sp, 72]
 6887 5e08 F76342A9 		ldp	x23, x24, [sp, 32]
 6888 5e0c F96B43A9 		ldp	x25, x26, [sp, 48]
 6889 5e10 14000014 		b	.L1270
 6890 5e14 1F2003D5 		.p2align 3
 6891              	.L1319:
 6892 5e18 E56B40B9 		ldr	w5, [sp, 104]
 6893 5e1c 00000090 		adrp	x0, .LC14
 6894 5e20 E403192A 		mov	w4, w25
 6895 5e24 E303152A 		mov	w3, w21
 6896 5e28 E203172A 		mov	w2, w23
 6897 5e2c E1031B2A 		mov	w1, w27
 6898 5e30 00000091 		add	x0, x0, :lo12:.LC14
 6899 5e34 00000094 		bl	printf
 6900              	.L1274:
 6901 5e38 E0031CAA 		mov	x0, x28
 6902 5e3c 00000094 		bl	UsbGetDescription
 6903 5e40 03000090 		adrp	x3, .LC93
 6904 5e44 E10300AA 		mov	x1, x0
 6905 5e48 E203132A 		mov	w2, w19
 6906 5e4c 60000091 		add	x0, x3, :lo12:.LC93
 6907 5e50 00000094 		bl	printf
 6908 5e54 FC2740F9 		ldr	x28, [sp, 72]
 6909 5e58 F76342A9 		ldp	x23, x24, [sp, 32]
 6910 5e5c F96B43A9 		ldp	x25, x26, [sp, 48]
 6911              	.L1270:
 6912 5e60 E003152A 		mov	w0, w21
 6913 5e64 F55B41A9 		ldp	x21, x22, [sp, 16]
 6914 5e68 FB2340F9 		ldr	x27, [sp, 64]
 6915 5e6c FE2B40F9 		ldr	x30, [sp, 80]
 6916 5e70 F353CDA8 		ldp	x19, x20, [sp], 208
 6917 5e74 C0035FD6 		ret
 6918              		.p2align 3
 6919              	.L1318:
 6920 5e78 F76342A9 		ldp	x23, x24, [sp, 32]
 6921 5e7c E003152A 		mov	w0, w21
 6922 5e80 F55B41A9 		ldp	x21, x22, [sp, 16]
 6923 5e84 F96B43A9 		ldp	x25, x26, [sp, 48]
 6924 5e88 FB2340F9 		ldr	x27, [sp, 64]
 6925 5e8c FC2740F9 		ldr	x28, [sp, 72]
 6926 5e90 FE2B40F9 		ldr	x30, [sp, 80]
 6927 5e94 F353CDA8 		ldp	x19, x20, [sp], 208
 6928 5e98 C0035FD6 		ret
AARCH64 GAS  C:\Users\ldebo\AppData\Local\Temp\ccfW7LPV.s 			page 123


 6929 5e9c 1F2003D5 		.p2align 3
 6930              	.L1321:
 6931 5ea0 E1031B2A 		mov	w1, w27
 6932 5ea4 E203172A 		mov	w2, w23
 6933 5ea8 04008052 		mov	w4, 0
 6934 5eac 03028052 		mov	w3, 16
 6935 5eb0 00000090 		adrp	x0, .LC16
 6936 5eb4 00000091 		add	x0, x0, :lo12:.LC16
 6937 5eb8 00000094 		bl	printf
 6938 5ebc E0031CAA 		mov	x0, x28
 6939 5ec0 00000094 		bl	UsbGetDescription
 6940 5ec4 03000090 		adrp	x3, .LC94
 6941 5ec8 E10300AA 		mov	x1, x0
 6942 5ecc E203132A 		mov	w2, w19
 6943 5ed0 60000091 		add	x0, x3, :lo12:.LC94
 6944 5ed4 00000094 		bl	printf
 6945 5ed8 E03340F9 		ldr	x0, [sp, 96]
 6946 5edc E4A34139 		ldrb	w4, [sp, 104]
 6947 5ee0 1B0C368B 		add	x27, x0, x22, uxtb 3
 6948 5ee4 C01E4092 		and	x0, x22, 255
 6949 5ee8 E03700F9 		str	x0, [sp, 104]
 6950 5eec 9F0440F2 		tst	x4, 3
 6951 5ef0 650740F9 		ldr	x5, [x27, 8]
 6952 5ef4 21E7FF54 		bne	.L1327
 6953 5ef8 39FFFF17 		b	.L1279
 6954 5efc 1F2003D5 		.p2align 3
 6955              	.L1299:
 6956 5f00 35008012 		mov	w21, -2
 6957              	.L1283:
 6958 5f04 E0031CAA 		mov	x0, x28
 6959 5f08 00000094 		bl	UsbGetDescription
 6960 5f0c 03000090 		adrp	x3, .LC97
 6961 5f10 E203132A 		mov	w2, w19
 6962 5f14 E10300AA 		mov	x1, x0
 6963 5f18 60000091 		add	x0, x3, :lo12:.LC97
 6964 5f1c 00000094 		bl	printf
 6965 5f20 FB2340F9 		ldr	x27, [sp, 64]
 6966 5f24 F76342A9 		ldp	x23, x24, [sp, 32]
 6967 5f28 E003152A 		mov	w0, w21
 6968 5f2c F55B41A9 		ldp	x21, x22, [sp, 16]
 6969 5f30 F96B43A9 		ldp	x25, x26, [sp, 48]
 6970 5f34 FC2740F9 		ldr	x28, [sp, 72]
 6971 5f38 FE2B40F9 		ldr	x30, [sp, 80]
 6972 5f3c F353CDA8 		ldp	x19, x20, [sp], 208
 6973 5f40 C0035FD6 		ret
 6974 5f44 1F2003D5 		.p2align 3
 6975              	.L1322:
 6976 5f48 E0031CAA 		mov	x0, x28
 6977 5f4c 00000094 		bl	UsbGetDescription
 6978 5f50 E203132A 		mov	w2, w19
 6979 5f54 E10300AA 		mov	x1, x0
 6980 5f58 F503052A 		mov	w21, w5
 6981 5f5c 00000090 		adrp	x0, .LC96
 6982 5f60 00000091 		add	x0, x0, :lo12:.LC96
 6983 5f64 00000094 		bl	printf
 6984 5f68 F76342A9 		ldp	x23, x24, [sp, 32]
 6985 5f6c F96B43A9 		ldp	x25, x26, [sp, 48]
AARCH64 GAS  C:\Users\ldebo\AppData\Local\Temp\ccfW7LPV.s 			page 124


 6986 5f70 FC2740F9 		ldr	x28, [sp, 72]
 6987 5f74 BBFFFF17 		b	.L1270
 6988              		.p2align 3
 6989              	.L1297:
 6990 5f78 75008012 		mov	w21, -4
 6991 5f7c FA1F40F9 		ldr	x26, [sp, 56]
 6992 5f80 B8FFFF17 		b	.L1270
 6993              	.L1325:
 6994 5f84 00000090 		adrp	x0, .LC15
 6995 5f88 E203172A 		mov	w2, w23
 6996 5f8c E103142A 		mov	w1, w20
 6997 5f90 00000091 		add	x0, x0, :lo12:.LC15
 6998 5f94 75008012 		mov	w21, -4
 6999 5f98 00000094 		bl	printf
 7000 5f9c 1F2003D5 		.p2align 3
 7001              	.L1288:
 7002 5fa0 E0031CAA 		mov	x0, x28
 7003 5fa4 00000094 		bl	UsbGetDescription
 7004 5fa8 03000090 		adrp	x3, .LC98
 7005 5fac E10300AA 		mov	x1, x0
 7006 5fb0 E203132A 		mov	w2, w19
 7007 5fb4 60000091 		add	x0, x3, :lo12:.LC98
 7008 5fb8 00000094 		bl	printf
 7009 5fbc FC2740F9 		ldr	x28, [sp, 72]
 7010 5fc0 F76342A9 		ldp	x23, x24, [sp, 32]
 7011 5fc4 F96B43A9 		ldp	x25, x26, [sp, 48]
 7012 5fc8 A6FFFF17 		b	.L1270
 7013 5fcc 1F2003D5 		.p2align 3
 7014              	.L1323:
 7015 5fd0 D5008012 		mov	w21, -7
 7016 5fd4 CCFFFF17 		b	.L1283
 7017              		.p2align 3
 7018              	.L1326:
 7019 5fd8 81020836 		tbz	x1, 1, .L1293
 7020 5fdc 01104039 		ldrb	w1, [x0, 4]
 7021 5fe0 43008052 		mov	w3, 2
 7022 5fe4 02180039 		strb	w2, [x0, 6]
 7023 5fe8 161C0039 		strb	w22, [x0, 7]
 7024 5fec 61041E33 		bfi	w1, w3, 2, 2
 7025 5ff0 01100039 		strb	w1, [x0, 4]
 7026 5ff4 54FFFF17 		b	.L1292
 7027              		.p2align 3
 7028              	.L1295:
 7029 5ff8 75008012 		mov	w21, -4
 7030 5ffc 99FFFF17 		b	.L1270
 7031              		.p2align 3
 7032              	.L1324:
 7033 6000 E56B40B9 		ldr	w5, [sp, 104]
 7034 6004 07000090 		adrp	x7, .LC14
 7035 6008 E303002A 		mov	w3, w0
 7036 600c E4031A2A 		mov	w4, w26
 7037 6010 E203172A 		mov	w2, w23
 7038 6014 E103142A 		mov	w1, w20
 7039 6018 E0000091 		add	x0, x7, :lo12:.LC14
 7040 601c F503032A 		mov	w21, w3
 7041 6020 00000094 		bl	printf
 7042 6024 DFFFFF17 		b	.L1288
AARCH64 GAS  C:\Users\ldebo\AppData\Local\Temp\ccfW7LPV.s 			page 125


 7043              	.L1293:
 7044 6028 01104039 		ldrb	w1, [x0, 4]
 7045 602c A1041E33 		bfi	w1, w5, 2, 2
 7046 6030 01100039 		strb	w1, [x0, 4]
 7047 6034 44FFFF17 		b	.L1292
 7048              	.L1320:
 7049 6038 00000090 		adrp	x0, .LC15
 7050 603c E203172A 		mov	w2, w23
 7051 6040 E1031B2A 		mov	w1, w27
 7052 6044 75008012 		mov	w21, -4
 7053 6048 00000091 		add	x0, x0, :lo12:.LC15
 7054 604c 00000094 		bl	printf
 7055 6050 7AFFFF17 		b	.L1274
 7056              		.size	HubPortConnectionChanged, .-HubPortConnectionChanged
 7057              		.align	2
 7058 6054 1F2003D5 		.p2align 4,,15
 7058      1F2003D5 
 7058      1F2003D5 
 7059              		.global	UsbAttachRootHub
 7060              		.type	UsbAttachRootHub, %function
 7061              	UsbAttachRootHub:
 7062 6060 F353BEA9 		stp	x19, x20, [sp, -32]!
 7063 6064 13000090 		adrp	x19, DeviceTable
 7064 6068 74020091 		add	x20, x19, :lo12:DeviceTable
 7065 606c FE0B00F9 		str	x30, [sp, 16]
 7066 6070 82EA43B9 		ldr	w2, [x20, 1000]
 7067 6074 62050035 		cbnz	w2, .L1342
 7068              	.L1329:
 7069 6078 01000090 		adrp	x1, DeviceTable+2016
 7070 607c 21000091 		add	x1, x1, :lo12:DeviceTable+2016
 7071 6080 00008052 		mov	w0, 0
 7072 6084 E2000034 		cbz	w2, .L1343
 7073              		.p2align 3
 7074              	.L1330:
 7075 6088 00040011 		add	w0, w0, 1
 7076 608c 1F800071 		cmp	w0, 32
 7077 6090 00040054 		beq	.L1332
 7078 6094 220040B9 		ldr	w2, [x1]
 7079 6098 21E00F91 		add	x1, x1, 1016
 7080 609c 62FFFF35 		cbnz	w2, .L1330
 7081              	.L1343:
 7082 60a0 027C4093 		sxtw	x2, w0
 7083 60a4 017F80D2 		mov	x1, 1016
 7084 60a8 73020091 		add	x19, x19, :lo12:DeviceTable
 7085 60ac 06040011 		add	w6, w0, 1
 7086 60b0 007C219B 		smull	x0, w0, w1
 7087 60b4 E51F8052 		mov	w5, 255
 7088 60b8 427C019B 		mul	x2, x2, x1
 7089 60bc 24008052 		mov	w4, 1
 7090 60c0 6102028B 		add	x1, x19, x2
 7091 60c4 26140039 		strb	w6, [x1, 5]
 7092 60c8 3F280039 		strb	wzr, [x1, 10]
 7093 60cc 656A2278 		strh	w5, [x19, x2]
 7094 60d0 24E803B9 		str	w4, [x1, 1000]
 7095 60d4 3FF801F9 		str	xzr, [x1, 1008]
 7096 60d8 C00100B5 		cbnz	x0, .L1332
 7097 60dc 65124039 		ldrb	w5, [x19, 4]
AARCH64 GAS  C:\Users\ldebo\AppData\Local\Temp\ccfW7LPV.s 			page 126


 7098 60e0 00000090 		adrp	x0, .LANCHOR1
 7099 60e4 642A0039 		strb	w4, [x19, 10]
 7100 60e8 02008052 		mov	w2, 0
 7101 60ec 1F000039 		strb	wzr, [x0, #:lo12:.LANCHOR1]
 7102 60f0 E00313AA 		mov	x0, x19
 7103 60f4 85041E33 		bfi	w5, w4, 2, 2
 7104 60f8 FE0B40F9 		ldr	x30, [sp, 16]
 7105 60fc A5040032 		orr	w5, w5, 3
 7106 6100 65120039 		strb	w5, [x19, 4]
 7107 6104 F353C2A8 		ldp	x19, x20, [sp], 32
 7108 6108 010080D2 		mov	x1, 0
 7109 610c 00000014 		b	EnumerateDevice
 7110              		.p2align 3
 7111              	.L1332:
 7112 6110 A0008012 		mov	w0, -6
 7113 6114 FE0B40F9 		ldr	x30, [sp, 16]
 7114 6118 F353C2A8 		ldp	x19, x20, [sp], 32
 7115 611c C0035FD6 		ret
 7116              		.p2align 3
 7117              	.L1342:
 7118 6120 E00314AA 		mov	x0, x20
 7119 6124 00000094 		bl	UsbDeallocateDevice
 7120 6128 82EA43B9 		ldr	w2, [x20, 1000]
 7121 612c D3FFFF17 		b	.L1329
 7122              		.size	UsbAttachRootHub, .-UsbAttachRootHub
 7123              		.align	2
 7124              		.p2align 4,,15
 7125              		.global	UsbInitialise
 7126              		.type	UsbInitialise, %function
 7127              	UsbInitialise:
 7128 6130 F353BEA9 		stp	x19, x20, [sp, -32]!
 7129 6134 13000090 		adrp	x19, RPi_IO_Base_Addr
 7130 6138 600240B9 		ldr	w0, [x19, #:lo12:RPi_IO_Base_Addr]
 7131 613c FE0B00F9 		str	x30, [sp, 16]
 7132 6140 02008452 		mov	w2, 8192
 7133 6144 82EAA972 		movk	w2, 0x4f54, lsl 16
 7134 6148 01006611 		add	w1, w0, 9961472
 7135 614c 00006611 		add	w0, w0, 9961472
 7136 6150 00F00011 		add	w0, w0, 60
 7137 6154 21000111 		add	w1, w1, 64
 7138 6158 210040B9 		ldr	w1, [x1]
 7139 615c 070040B9 		ldr	w7, [x0]
 7140 6160 204C1412 		and	w0, w1, -4096
 7141 6164 1F00026B 		cmp	w0, w2
 7142 6168 810D0054 		bne	.L1370
 7143 616c 260C0012 		and	w6, w1, 15
 7144 6170 251C44D3 		ubfx	x5, x1, 4, 4
 7145 6174 242C48D3 		ubfx	x4, x1, 8, 4
 7146 6178 820A8052 		mov	w2, 84
 7147 617c E1098052 		mov	w1, 79
 7148 6180 00000090 		adrp	x0, .LC18
 7149 6184 E77C0C53 		lsr	w7, w7, 12
 7150 6188 43008052 		mov	w3, 2
 7151 618c 00000091 		add	x0, x0, :lo12:.LC18
 7152 6190 00000094 		bl	printf
 7153 6194 600240B9 		ldr	w0, [x19, #:lo12:RPi_IO_Base_Addr]
 7154 6198 02006611 		add	w2, w0, 9961472
AARCH64 GAS  C:\Users\ldebo\AppData\Local\Temp\ccfW7LPV.s 			page 127


 7155 619c 42100111 		add	w2, w2, 68
 7156 61a0 410440B9 		ldr	w1, [x2, 4]
 7157 61a4 211043D3 		ubfx	x1, x1, 3, 2
 7158 61a8 3F080071 		cmp	w1, 2
 7159 61ac 210E0054 		bne	.L1371
 7160 61b0 410440B9 		ldr	w1, [x2, 4]
 7161 61b4 3F047AF2 		tst	x1, 192
 7162 61b8 400D0054 		beq	.L1372
 7163 61bc 07006611 		add	w7, w0, 9961472
 7164 61c0 00006611 		add	w0, w0, 9961472
 7165 61c4 E7200011 		add	w7, w7, 8
 7166 61c8 00600011 		add	w0, w0, 24
 7167 61cc 04018052 		mov	w4, 8
 7168 61d0 26008052 		mov	w6, 1
 7169 61d4 65008052 		mov	w5, 3
 7170 61d8 E303042A 		mov	w3, w4
 7171 61dc E10040B9 		ldr	w1, [x7]
 7172 61e0 22009052 		mov	w2, 32769
 7173 61e4 4200A072 		movk	w2, 0x2, lsl 16
 7174 61e8 21781F12 		and	w1, w1, -2
 7175 61ec E10000B9 		str	w1, [x7]
 7176 61f0 1F0000B9 		str	wzr, [x0]
 7177 61f4 A1008052 		mov	w1, 5
 7178 61f8 000080D2 		mov	x0, 0
 7179 61fc 00000094 		bl	mailbox_tag_message
 7180 6200 1F1C0072 		tst	w0, 255
 7181 6204 E00B0054 		beq	.L1373
 7182 6208 00000094 		bl	HCDStart
 7183 620c F303002A 		mov	w19, w0
 7184 6210 80060035 		cbnz	w0, .L1374
 7185 6214 13000090 		adrp	x19, DeviceTable
 7186 6218 74020091 		add	x20, x19, :lo12:DeviceTable
 7187 621c 82EA43B9 		ldr	w2, [x20, 1000]
 7188 6220 02070035 		cbnz	w2, .L1375
 7189              	.L1353:
 7190 6224 01000090 		adrp	x1, DeviceTable+2016
 7191 6228 21000091 		add	x1, x1, :lo12:DeviceTable+2016
 7192 622c 00008052 		mov	w0, 0
 7193 6230 02010034 		cbz	w2, .L1376
 7194 6234 1F2003D5 		.p2align 3
 7195              	.L1354:
 7196 6238 00040011 		add	w0, w0, 1
 7197 623c 1F800071 		cmp	w0, 32
 7198 6240 80060054 		beq	.L1357
 7199 6244 220040B9 		ldr	w2, [x1]
 7200 6248 21E00F91 		add	x1, x1, 1016
 7201 624c 62FFFF35 		cbnz	w2, .L1354
 7202              	.L1376:
 7203 6250 027C4093 		sxtw	x2, w0
 7204 6254 017F80D2 		mov	x1, 1016
 7205 6258 73020091 		add	x19, x19, :lo12:DeviceTable
 7206 625c 06040011 		add	w6, w0, 1
 7207 6260 007C219B 		smull	x0, w0, w1
 7208 6264 E51F8052 		mov	w5, 255
 7209 6268 427C019B 		mul	x2, x2, x1
 7210 626c 24008052 		mov	w4, 1
 7211 6270 6102028B 		add	x1, x19, x2
AARCH64 GAS  C:\Users\ldebo\AppData\Local\Temp\ccfW7LPV.s 			page 128


 7212 6274 26140039 		strb	w6, [x1, 5]
 7213 6278 3F280039 		strb	wzr, [x1, 10]
 7214 627c 656A2278 		strh	w5, [x19, x2]
 7215 6280 24E803B9 		str	w4, [x1, 1000]
 7216 6284 3FF801F9 		str	xzr, [x1, 1008]
 7217 6288 400400B5 		cbnz	x0, .L1357
 7218 628c 65124039 		ldrb	w5, [x19, 4]
 7219 6290 00000090 		adrp	x0, .LANCHOR1
 7220 6294 642A0039 		strb	w4, [x19, 10]
 7221 6298 02008052 		mov	w2, 0
 7222 629c 1F000039 		strb	wzr, [x0, #:lo12:.LANCHOR1]
 7223 62a0 010080D2 		mov	x1, 0
 7224 62a4 85041E33 		bfi	w5, w4, 2, 2
 7225 62a8 E00313AA 		mov	x0, x19
 7226 62ac A5040032 		orr	w5, w5, 3
 7227 62b0 65120039 		strb	w5, [x19, 4]
 7228 62b4 00000094 		bl	EnumerateDevice
 7229 62b8 F303002A 		mov	w19, w0
 7230 62bc 80010034 		cbz	w0, .L1344
 7231              	.L1356:
 7232 62c0 00000090 		adrp	x0, .LC103
 7233 62c4 00000091 		add	x0, x0, :lo12:.LC103
 7234 62c8 00000094 		bl	printf
 7235 62cc E003132A 		mov	w0, w19
 7236 62d0 FE0B40F9 		ldr	x30, [sp, 16]
 7237 62d4 F353C2A8 		ldp	x19, x20, [sp], 32
 7238 62d8 C0035FD6 		ret
 7239 62dc 1F2003D5 		.p2align 3
 7240              	.L1374:
 7241 62e0 00000090 		adrp	x0, .LC102
 7242 62e4 00000091 		add	x0, x0, :lo12:.LC102
 7243 62e8 00000094 		bl	printf
 7244              	.L1344:
 7245 62ec E003132A 		mov	w0, w19
 7246 62f0 FE0B40F9 		ldr	x30, [sp, 16]
 7247 62f4 F353C2A8 		ldp	x19, x20, [sp], 32
 7248 62f8 C0035FD6 		ret
 7249 62fc 1F2003D5 		.p2align 3
 7250              	.L1375:
 7251 6300 E00314AA 		mov	x0, x20
 7252 6304 00000094 		bl	UsbDeallocateDevice
 7253 6308 82EA43B9 		ldr	w2, [x20, 1000]
 7254 630c C6FFFF17 		b	.L1353
 7255              		.p2align 3
 7256              	.L1357:
 7257 6310 B3008012 		mov	w19, -6
 7258 6314 EBFFFF17 		b	.L1356
 7259              		.p2align 3
 7260              	.L1370:
 7261 6318 00000090 		adrp	x0, .LC17
 7262 631c 260C0012 		and	w6, w1, 15
 7263 6320 251C44D3 		ubfx	x5, x1, 4, 4
 7264 6324 242C48D3 		ubfx	x4, x1, 8, 4
 7265 6328 233C4CD3 		ubfx	x3, x1, 12, 4
 7266 632c 225C50D3 		ubfx	x2, x1, 16, 8
 7267 6330 E77C0C53 		lsr	w7, w7, 12
 7268 6334 217C1853 		lsr	w1, w1, 24
AARCH64 GAS  C:\Users\ldebo\AppData\Local\Temp\ccfW7LPV.s 			page 129


 7269 6338 00000091 		add	x0, x0, :lo12:.LC17
 7270 633c 00000094 		bl	printf
 7271              	.L1346:
 7272 6340 93008012 		mov	w19, -5
 7273 6344 00000090 		adrp	x0, .LC101
 7274 6348 00000091 		add	x0, x0, :lo12:.LC101
 7275 634c 00000094 		bl	printf
 7276 6350 E003132A 		mov	w0, w19
 7277 6354 FE0B40F9 		ldr	x30, [sp, 16]
 7278 6358 F353C2A8 		ldp	x19, x20, [sp], 32
 7279 635c C0035FD6 		ret
 7280              	.L1372:
 7281 6360 00000090 		adrp	x0, .LC20
 7282 6364 00000091 		add	x0, x0, :lo12:.LC20
 7283 6368 00000094 		bl	printf
 7284 636c F5FFFF17 		b	.L1346
 7285              	.L1371:
 7286 6370 00000090 		adrp	x0, .LC19
 7287 6374 00000091 		add	x0, x0, :lo12:.LC19
 7288 6378 00000094 		bl	printf
 7289 637c F1FFFF17 		b	.L1346
 7290              	.L1373:
 7291 6380 00000090 		adrp	x0, .LC21
 7292 6384 00000091 		add	x0, x0, :lo12:.LC21
 7293 6388 00000094 		bl	printf
 7294 638c EDFFFF17 		b	.L1346
 7295              		.size	UsbInitialise, .-UsbInitialise
 7296              		.align	2
 7297              		.p2align 4,,15
 7298              		.global	HubCheckForChange
 7299              		.type	HubCheckForChange, %function
 7300              	HubCheckForChange:
 7301 6390 F353B1A9 		stp	x19, x20, [sp, -240]!
 7302 6394 FE2B00F9 		str	x30, [sp, 80]
 7303 6398 14144039 		ldrb	w20, [x0, 5]
 7304 639c 81060051 		sub	w1, w20, #1
 7305 63a0 221C0012 		and	w2, w1, 255
 7306 63a4 5F7C0071 		cmp	w2, 31
 7307 63a8 68010054 		bhi	.L1377
 7308 63ac 227C4093 		sxtw	x2, w1
 7309 63b0 F50B00F9 		str	x21, [sp, 16]
 7310 63b4 15000090 		adrp	x21, DeviceTable
 7311 63b8 A3020091 		add	x3, x21, :lo12:DeviceTable
 7312 63bc 047F80D2 		mov	x4, 1016
 7313 63c0 420C049B 		madd	x2, x2, x4, x3
 7314 63c4 43E843B9 		ldr	w3, [x2, 1000]
 7315 63c8 7F080071 		cmp	w3, 2
 7316 63cc A0000054 		beq	.L1447
 7317              	.L1443:
 7318 63d0 F50B40F9 		ldr	x21, [sp, 16]
 7319              	.L1377:
 7320 63d4 FE2B40F9 		ldr	x30, [sp, 80]
 7321 63d8 F353CFA8 		ldp	x19, x20, [sp], 240
 7322 63dc C0035FD6 		ret
 7323              		.p2align 3
 7324              	.L1447:
 7325 63e0 42F841F9 		ldr	x2, [x2, 1008]
AARCH64 GAS  C:\Users\ldebo\AppData\Local\Temp\ccfW7LPV.s 			page 130


 7326 63e4 62FFFFB4 		cbz	x2, .L1443
 7327 63e8 F91B00F9 		str	x25, [sp, 48]
 7328 63ec 19F841F9 		ldr	x25, [x0, 1008]
 7329 63f0 220340B9 		ldr	w2, [x25]
 7330 63f4 E2220034 		cbz	w2, .L1444
 7331 63f8 F6DF01A9 		stp	x22, x23, [sp, 24]
 7332 63fc F30300AA 		mov	x19, x0
 7333 6400 17008052 		mov	w23, 0
 7334 6404 00000090 		adrp	x0, .LC66
 7335 6408 00000091 		add	x0, x0, :lo12:.LC66
 7336 640c E03700F9 		str	x0, [sp, 104]
 7337 6410 F81700F9 		str	x24, [sp, 40]
 7338 6414 FAEF03A9 		stp	x26, x27, [sp, 56]
 7339 6418 FC2700F9 		str	x28, [sp, 72]
 7340              	.L1406:
 7341 641c 201C0012 		and	w0, w1, 255
 7342 6420 F81E0012 		and	w24, w23, 255
 7343 6424 1F7C0071 		cmp	w0, 31
 7344 6428 A8060054 		bhi	.L1405
 7345 642c A0020091 		add	x0, x21, :lo12:DeviceTable
 7346 6430 227C4093 		sxtw	x2, w1
 7347 6434 037F80D2 		mov	x3, 1016
 7348 6438 4100039B 		madd	x1, x2, x3, x0
 7349 643c 20E843B9 		ldr	w0, [x1, 1000]
 7350 6440 1F080071 		cmp	w0, 2
 7351 6444 C1050054 		bne	.L1405
 7352 6448 20F841F9 		ldr	x0, [x1, 1008]
 7353 644c 800500B4 		cbz	x0, .L1405
 7354 6450 600640B9 		ldr	w0, [x19, 4]
 7355 6454 16070011 		add	w22, w24, 1
 7356 6458 E07300B9 		str	w0, [sp, 112]
 7357 645c D61E0072 		ands	w22, w22, 255
 7358 6460 FF7B00B9 		str	wzr, [sp, 120]
 7359 6464 80008052 		mov	w0, 4
 7360 6468 F4C70139 		strb	w20, [sp, 113]
 7361 646c 63148052 		mov	w3, 163
 7362 6470 E0E70139 		strb	w0, [sp, 121]
 7363 6474 02148052 		mov	w2, 160
 7364 6478 7A124039 		ldrb	w26, [x19, 4]
 7365 647c 4200831A 		csel	w2, w2, w3, eq
 7366 6480 E00747A9 		ldp	x0, x1, [sp, 112]
 7367 6484 83008052 		mov	w3, 4
 7368 6488 FFCB00B9 		str	wzr, [sp, 200]
 7369 648c 5C070012 		and	w28, w26, 3
 7370 6490 DB3E0012 		and	w27, w22, 65535
 7371 6494 E4030391 		add	x4, sp, 192
 7372 6498 FF7F1829 		stp	wzr, wzr, [sp, 192]
 7373 649c 5A0F42D3 		ubfx	x26, x26, 2, 2
 7374 64a0 E2230339 		strb	w2, [sp, 200]
 7375 64a4 E2130391 		add	x2, sp, 196
 7376 64a8 FB9B0179 		strh	w27, [sp, 204]
 7377 64ac E39F0179 		strh	w3, [sp, 206]
 7378 64b0 E3230391 		add	x3, sp, 200
 7379 64b4 AFEDFF97 		bl	HCDSumbitControlMessage.constprop.14
 7380 64b8 E603002A 		mov	w6, w0
 7381 64bc 20110035 		cbnz	w0, .L1448
 7382 64c0 E0C340B9 		ldr	w0, [sp, 192]
AARCH64 GAS  C:\Users\ldebo\AppData\Local\Temp\ccfW7LPV.s 			page 131


 7383 64c4 1F0C0071 		cmp	w0, 3
 7384 64c8 A91C0054 		bls	.L1449
 7385 64cc F4C740B9 		ldr	w20, [sp, 196]
 7386 64d0 9A5E50D3 		ubfx	x26, x20, 16, 8
 7387 64d4 7A190037 		tbnz	x26, 0, .L1450
 7388              	.L1387:
 7389 64d8 941E0012 		and	w20, w20, 255
 7390 64dc FA010837 		tbnz	x26, 1, .L1451
 7391              	.L1389:
 7392 64e0 540B1037 		tbnz	x20, 2, .L1452
 7393              	.L1394:
 7394 64e4 BA061837 		tbnz	x26, 3, .L1453
 7395              	.L1398:
 7396 64e8 5A142037 		tbnz	x26, 4, .L1454
 7397              	.L1404:
 7398 64ec 79FA41F9 		ldr	x25, [x19, 1008]
 7399 64f0 20CF378B 		add	x0, x25, x23, sxtw 3
 7400 64f4 000440F9 		ldr	x0, [x0, 8]
 7401 64f8 001200B5 		cbnz	x0, .L1455
 7402              	.L1405:
 7403 64fc 200340B9 		ldr	w0, [x25]
 7404 6500 F7060011 		add	w23, w23, 1
 7405 6504 1F00176B 		cmp	w0, w23
 7406 6508 49120054 		bls	.L1445
 7407              	.L1457:
 7408 650c 74164039 		ldrb	w20, [x19, 5]
 7409 6510 81060051 		sub	w1, w20, #1
 7410 6514 C2FFFF17 		b	.L1406
 7411              		.p2align 3
 7412              	.L1451:
 7413 6518 600640B9 		ldr	w0, [x19, 4]
 7414 651c 63048052 		mov	w3, 35
 7415 6520 E08300B9 		str	w0, [sp, 128]
 7416 6524 DF020071 		cmp	w22, 0
 7417 6528 7C164039 		ldrb	w28, [x19, 5]
 7418 652c 02048052 		mov	w2, 32
 7419 6530 FC070239 		strb	w28, [sp, 129]
 7420 6534 4200831A 		csel	w2, w2, w3, eq
 7421 6538 FF8B00B9 		str	wzr, [sp, 136]
 7422 653c 24008052 		mov	w4, 1
 7423 6540 23028052 		mov	w3, 17
 7424 6544 E2430339 		strb	w2, [sp, 208]
 7425 6548 E00748A9 		ldp	x0, x1, [sp, 128]
 7426 654c E4470339 		strb	w4, [sp, 209]
 7427 6550 E3A70179 		strh	w3, [sp, 210]
 7428 6554 E2430391 		add	x2, sp, 208
 7429 6558 FBAB0179 		strh	w27, [sp, 212]
 7430 655c FFAF0179 		strh	wzr, [sp, 214]
 7431 6560 54ECFF97 		bl	HCDSumbitControlMessage.constprop.13
 7432 6564 60150035 		cbnz	w0, .L1456
 7433              	.L1391:
 7434 6568 80060012 		and	w0, w20, 3
 7435 656c 1F040071 		cmp	w0, 1
 7436 6570 81FBFF54 		bne	.L1389
 7437 6574 E61E0012 		and	w6, w23, 255
 7438 6578 250F268B 		add	x5, x25, x6, uxtb 3
 7439 657c A00440F9 		ldr	x0, [x5, 8]
AARCH64 GAS  C:\Users\ldebo\AppData\Local\Temp\ccfW7LPV.s 			page 132


 7440 6580 00FBFFB4 		cbz	x0, .L1389
 7441 6584 E00313AA 		mov	x0, x19
 7442 6588 00000094 		bl	UsbGetDescription
 7443 658c C2040011 		add	w2, w6, 1
 7444 6590 E10300AA 		mov	x1, x0
 7445 6594 00000090 		adrp	x0, .LC68
 7446 6598 00000091 		add	x0, x0, :lo12:.LC68
 7447 659c 00000094 		bl	printf
 7448 65a0 E103182A 		mov	w1, w24
 7449 65a4 E00313AA 		mov	x0, x19
 7450 65a8 00000094 		bl	HubPortConnectionChanged
 7451 65ac D4F91736 		tbz	x20, 2, .L1394
 7452 65b0 26000014 		b	.L1452
 7453 65b4 1F2003D5 		.p2align 3
 7454              	.L1453:
 7455 65b8 600640B9 		ldr	w0, [x19, 4]
 7456 65bc 63048052 		mov	w3, 35
 7457 65c0 E0A300B9 		str	w0, [sp, 160]
 7458 65c4 DF020071 		cmp	w22, 0
 7459 65c8 74164039 		ldrb	w20, [x19, 5]
 7460 65cc 02048052 		mov	w2, 32
 7461 65d0 F4870239 		strb	w20, [sp, 161]
 7462 65d4 4200831A 		csel	w2, w2, w3, eq
 7463 65d8 FFAB00B9 		str	wzr, [sp, 168]
 7464 65dc 24008052 		mov	w4, 1
 7465 65e0 63028052 		mov	w3, 19
 7466 65e4 E2830339 		strb	w2, [sp, 224]
 7467 65e8 E0074AA9 		ldp	x0, x1, [sp, 160]
 7468 65ec E4870339 		strb	w4, [sp, 225]
 7469 65f0 E3C70179 		strh	w3, [sp, 226]
 7470 65f4 E2830391 		add	x2, sp, 224
 7471 65f8 FBCB0179 		strh	w27, [sp, 228]
 7472 65fc FFCF0179 		strh	wzr, [sp, 230]
 7473 6600 2CECFF97 		bl	HCDSumbitControlMessage.constprop.13
 7474 6604 20F7FF34 		cbz	w0, .L1398
 7475 6608 E203162A 		mov	w2, w22
 7476 660c E103142A 		mov	w1, w20
 7477 6610 04008052 		mov	w4, 0
 7478 6614 63028052 		mov	w3, 19
 7479 6618 00000090 		adrp	x0, .LC16
 7480 661c 00000091 		add	x0, x0, :lo12:.LC16
 7481 6620 00000094 		bl	printf
 7482 6624 E00313AA 		mov	x0, x19
 7483 6628 00000094 		bl	UsbGetDescription
 7484 662c 03000090 		adrp	x3, .LC70
 7485 6630 E21E0012 		and	w2, w23, 255
 7486 6634 E10300AA 		mov	x1, x0
 7487 6638 42040011 		add	w2, w2, 1
 7488 663c 60000091 		add	x0, x3, :lo12:.LC70
 7489 6640 00000094 		bl	printf
 7490 6644 A9FFFF17 		b	.L1398
 7491              		.p2align 3
 7492              	.L1452:
 7493 6648 600640B9 		ldr	w0, [x19, 4]
 7494 664c 63048052 		mov	w3, 35
 7495 6650 E09300B9 		str	w0, [sp, 144]
 7496 6654 DF020071 		cmp	w22, 0
AARCH64 GAS  C:\Users\ldebo\AppData\Local\Temp\ccfW7LPV.s 			page 133


 7497 6658 74164039 		ldrb	w20, [x19, 5]
 7498 665c 02048052 		mov	w2, 32
 7499 6660 F4470239 		strb	w20, [sp, 145]
 7500 6664 4200831A 		csel	w2, w2, w3, eq
 7501 6668 FF9B00B9 		str	wzr, [sp, 152]
 7502 666c 24008052 		mov	w4, 1
 7503 6670 43008052 		mov	w3, 2
 7504 6674 E2630339 		strb	w2, [sp, 216]
 7505 6678 E00749A9 		ldp	x0, x1, [sp, 144]
 7506 667c E4670339 		strb	w4, [sp, 217]
 7507 6680 E3B70179 		strh	w3, [sp, 218]
 7508 6684 E2630391 		add	x2, sp, 216
 7509 6688 FBBB0179 		strh	w27, [sp, 220]
 7510 668c FFBF0179 		strh	wzr, [sp, 222]
 7511 6690 08ECFF97 		bl	HCDSumbitControlMessage.constprop.13
 7512 6694 80F2FF34 		cbz	w0, .L1394
 7513 6698 E203162A 		mov	w2, w22
 7514 669c E103142A 		mov	w1, w20
 7515 66a0 43008052 		mov	w3, 2
 7516 66a4 04008052 		mov	w4, 0
 7517 66a8 00000090 		adrp	x0, .LC16
 7518 66ac 00000091 		add	x0, x0, :lo12:.LC16
 7519 66b0 00000094 		bl	printf
 7520 66b4 E00313AA 		mov	x0, x19
 7521 66b8 00000094 		bl	UsbGetDescription
 7522 66bc 03000090 		adrp	x3, .LC69
 7523 66c0 E21E0012 		and	w2, w23, 255
 7524 66c4 E10300AA 		mov	x1, x0
 7525 66c8 42040011 		add	w2, w2, 1
 7526 66cc 60000091 		add	x0, x3, :lo12:.LC69
 7527 66d0 00000094 		bl	printf
 7528 66d4 BAF01F36 		tbz	x26, 3, .L1398
 7529 66d8 B8FFFF17 		b	.L1453
 7530 66dc 1F2003D5 		.p2align 3
 7531              	.L1448:
 7532 66e0 E303062A 		mov	w3, w6
 7533 66e4 E66700B9 		str	w6, [sp, 100]
 7534 66e8 00000090 		adrp	x0, .LC14
 7535 66ec E5031C2A 		mov	w5, w28
 7536 66f0 E4031A2A 		mov	w4, w26
 7537 66f4 E203162A 		mov	w2, w22
 7538 66f8 E103142A 		mov	w1, w20
 7539 66fc 00000091 		add	x0, x0, :lo12:.LC14
 7540 6700 00000094 		bl	printf
 7541 6704 E66740B9 		ldr	w6, [sp, 100]
 7542 6708 DF2C0031 		cmn	w6, #11
 7543 670c 80010054 		beq	.L1446
 7544              	.L1384:
 7545 6710 E00313AA 		mov	x0, x19
 7546 6714 00000094 		bl	UsbGetDescription
 7547 6718 E10300AA 		mov	x1, x0
 7548 671c E03740F9 		ldr	x0, [sp, 104]
 7549 6720 E21E0012 		and	w2, w23, 255
 7550 6724 42040011 		add	w2, w2, 1
 7551 6728 00000094 		bl	printf
 7552 672c 79FA41F9 		ldr	x25, [x19, 1008]
 7553 6730 73FFFF17 		b	.L1405
AARCH64 GAS  C:\Users\ldebo\AppData\Local\Temp\ccfW7LPV.s 			page 134


 7554 6734 1F2003D5 		.p2align 3
 7555              	.L1455:
 7556 6738 00000094 		bl	HubCheckForChange
 7557              	.L1446:
 7558 673c 79FA41F9 		ldr	x25, [x19, 1008]
 7559 6740 F7060011 		add	w23, w23, 1
 7560 6744 200340B9 		ldr	w0, [x25]
 7561 6748 1F00176B 		cmp	w0, w23
 7562 674c 08EEFF54 		bhi	.L1457
 7563              	.L1445:
 7564 6750 F55B41A9 		ldp	x21, x22, [sp, 16]
 7565 6754 F76342A9 		ldp	x23, x24, [sp, 32]
 7566 6758 F96B43A9 		ldp	x25, x26, [sp, 48]
 7567 675c FB7344A9 		ldp	x27, x28, [sp, 64]
 7568 6760 FE2B40F9 		ldr	x30, [sp, 80]
 7569 6764 F353CFA8 		ldp	x19, x20, [sp], 240
 7570 6768 C0035FD6 		ret
 7571 676c 1F2003D5 		.p2align 3
 7572              	.L1454:
 7573 6770 600640B9 		ldr	w0, [x19, 4]
 7574 6774 63048052 		mov	w3, 35
 7575 6778 E0B300B9 		str	w0, [sp, 176]
 7576 677c DF020071 		cmp	w22, 0
 7577 6780 74164039 		ldrb	w20, [x19, 5]
 7578 6784 02048052 		mov	w2, 32
 7579 6788 F4C70239 		strb	w20, [sp, 177]
 7580 678c 4200831A 		csel	w2, w2, w3, eq
 7581 6790 FFBB00B9 		str	wzr, [sp, 184]
 7582 6794 24008052 		mov	w4, 1
 7583 6798 83028052 		mov	w3, 20
 7584 679c E2A30339 		strb	w2, [sp, 232]
 7585 67a0 E0074BA9 		ldp	x0, x1, [sp, 176]
 7586 67a4 E4A70339 		strb	w4, [sp, 233]
 7587 67a8 E3D70179 		strh	w3, [sp, 234]
 7588 67ac E2A30391 		add	x2, sp, 232
 7589 67b0 FBDB0179 		strh	w27, [sp, 236]
 7590 67b4 FFDF0179 		strh	wzr, [sp, 238]
 7591 67b8 BEEBFF97 		bl	HCDSumbitControlMessage.constprop.13
 7592 67bc 80E9FF34 		cbz	w0, .L1404
 7593 67c0 E203162A 		mov	w2, w22
 7594 67c4 E103142A 		mov	w1, w20
 7595 67c8 04008052 		mov	w4, 0
 7596 67cc 83028052 		mov	w3, 20
 7597 67d0 00000090 		adrp	x0, .LC16
 7598 67d4 00000091 		add	x0, x0, :lo12:.LC16
 7599 67d8 00000094 		bl	printf
 7600 67dc E00313AA 		mov	x0, x19
 7601 67e0 00000094 		bl	UsbGetDescription
 7602 67e4 03000090 		adrp	x3, .LC71
 7603 67e8 E21E0012 		and	w2, w23, 255
 7604 67ec E10300AA 		mov	x1, x0
 7605 67f0 42040011 		add	w2, w2, 1
 7606 67f4 60000091 		add	x0, x3, :lo12:.LC71
 7607 67f8 00000094 		bl	printf
 7608 67fc 3CFFFF17 		b	.L1404
 7609              		.p2align 3
 7610              	.L1450:
AARCH64 GAS  C:\Users\ldebo\AppData\Local\Temp\ccfW7LPV.s 			page 135


 7611 6800 E103182A 		mov	w1, w24
 7612 6804 E00313AA 		mov	x0, x19
 7613 6808 00000094 		bl	HubPortConnectionChanged
 7614 680c 33FFFF17 		b	.L1387
 7615              		.p2align 3
 7616              	.L1456:
 7617 6810 E203162A 		mov	w2, w22
 7618 6814 E1031C2A 		mov	w1, w28
 7619 6818 04008052 		mov	w4, 0
 7620 681c 23028052 		mov	w3, 17
 7621 6820 00000090 		adrp	x0, .LC16
 7622 6824 00000091 		add	x0, x0, :lo12:.LC16
 7623 6828 00000094 		bl	printf
 7624 682c E00313AA 		mov	x0, x19
 7625 6830 00000094 		bl	UsbGetDescription
 7626 6834 03000090 		adrp	x3, .LC67
 7627 6838 E21E0012 		and	w2, w23, 255
 7628 683c E10300AA 		mov	x1, x0
 7629 6840 42040011 		add	w2, w2, 1
 7630 6844 60000091 		add	x0, x3, :lo12:.LC67
 7631 6848 00000094 		bl	printf
 7632 684c 47FFFF17 		b	.L1391
 7633              		.p2align 3
 7634              	.L1444:
 7635 6850 F50B40F9 		ldr	x21, [sp, 16]
 7636 6854 F91B40F9 		ldr	x25, [sp, 48]
 7637 6858 DFFEFF17 		b	.L1377
 7638              	.L1449:
 7639 685c 00000090 		adrp	x0, .LC15
 7640 6860 E203162A 		mov	w2, w22
 7641 6864 E103142A 		mov	w1, w20
 7642 6868 00000091 		add	x0, x0, :lo12:.LC15
 7643 686c 00000094 		bl	printf
 7644 6870 A8FFFF17 		b	.L1384
 7645              		.size	HubCheckForChange, .-HubCheckForChange
 7646              		.align	2
 7647 6874 1F2003D5 		.p2align 4,,15
 7647      1F2003D5 
 7647      1F2003D5 
 7648              		.global	UsbCheckForChange
 7649              		.type	UsbCheckForChange, %function
 7650              	UsbCheckForChange:
 7651 6880 F353B0A9 		stp	x19, x20, [sp, -256]!
 7652 6884 13000090 		adrp	x19, DeviceTable
 7653 6888 60020091 		add	x0, x19, :lo12:DeviceTable
 7654 688c FE2B00F9 		str	x30, [sp, 80]
 7655 6890 01E843B9 		ldr	w1, [x0, 1000]
 7656 6894 A1000035 		cbnz	w1, .L1560
 7657              	.L1458:
 7658 6898 FE2B40F9 		ldr	x30, [sp, 80]
 7659 689c F353D0A8 		ldp	x19, x20, [sp], 256
 7660 68a0 C0035FD6 		ret
 7661 68a4 1F2003D5 		.p2align 3
 7662              	.L1560:
 7663 68a8 14144039 		ldrb	w20, [x0, 5]
 7664 68ac 81060051 		sub	w1, w20, #1
 7665 68b0 221C0012 		and	w2, w1, 255
AARCH64 GAS  C:\Users\ldebo\AppData\Local\Temp\ccfW7LPV.s 			page 136


 7666 68b4 5F7C0071 		cmp	w2, 31
 7667 68b8 08FFFF54 		bhi	.L1458
 7668 68bc 227C4093 		sxtw	x2, w1
 7669 68c0 037F80D2 		mov	x3, 1016
 7670 68c4 4200039B 		madd	x2, x2, x3, x0
 7671 68c8 43E843B9 		ldr	w3, [x2, 1000]
 7672 68cc 7F080071 		cmp	w3, 2
 7673 68d0 41FEFF54 		bne	.L1458
 7674 68d4 42F841F9 		ldr	x2, [x2, 1008]
 7675 68d8 02FEFFB4 		cbz	x2, .L1458
 7676 68dc F91B00F9 		str	x25, [sp, 48]
 7677 68e0 19F841F9 		ldr	x25, [x0, 1008]
 7678 68e4 200340B9 		ldr	w0, [x25]
 7679 68e8 401A0034 		cbz	w0, .L1557
 7680 68ec F76302A9 		stp	x23, x24, [sp, 32]
 7681 68f0 18000090 		adrp	x24, .LANCHOR2
 7682 68f4 00030091 		add	x0, x24, :lo12:.LANCHOR2
 7683 68f8 E03B00F9 		str	x0, [sp, 112]
 7684 68fc F55B01A9 		stp	x21, x22, [sp, 16]
 7685 6900 00600091 		add	x0, x0, 24
 7686 6904 FAEF03A9 		stp	x26, x27, [sp, 56]
 7687 6908 16008052 		mov	w22, 0
 7688 690c FC2700F9 		str	x28, [sp, 72]
 7689 6910 E03F00F9 		str	x0, [sp, 120]
 7690              	.L1498:
 7691 6914 201C0012 		and	w0, w1, 255
 7692 6918 D71E0012 		and	w23, w22, 255
 7693 691c 1F7C0071 		cmp	w0, 31
 7694 6920 A8200054 		bhi	.L1559
 7695 6924 7C020091 		add	x28, x19, :lo12:DeviceTable
 7696 6928 217C4093 		sxtw	x1, w1
 7697 692c 007F80D2 		mov	x0, 1016
 7698 6930 2170009B 		madd	x1, x1, x0, x28
 7699 6934 20E843B9 		ldr	w0, [x1, 1000]
 7700 6938 1F080071 		cmp	w0, 2
 7701 693c 211B0054 		bne	.L1554
 7702 6940 20F841F9 		ldr	x0, [x1, 1008]
 7703 6944 E01A00B4 		cbz	x0, .L1554
 7704 6948 800740B9 		ldr	w0, [x28, 4]
 7705 694c F5060011 		add	w21, w23, 1
 7706 6950 E08300B9 		str	w0, [sp, 128]
 7707 6954 B51E0072 		ands	w21, w21, 255
 7708 6958 FF8B00B9 		str	wzr, [sp, 136]
 7709 695c 80008052 		mov	w0, 4
 7710 6960 F4070239 		strb	w20, [sp, 129]
 7711 6964 63148052 		mov	w3, 163
 7712 6968 E0270239 		strb	w0, [sp, 137]
 7713 696c BB3E0012 		and	w27, w21, 65535
 7714 6970 9A134039 		ldrb	w26, [x28, 4]
 7715 6974 E4430391 		add	x4, sp, 208
 7716 6978 E00748A9 		ldp	x0, x1, [sp, 128]
 7717 697c 42070012 		and	w2, w26, 3
 7718 6980 E26F00B9 		str	w2, [sp, 108]
 7719 6984 02148052 		mov	w2, 160
 7720 6988 FFDB00B9 		str	wzr, [sp, 216]
 7721 698c 4200831A 		csel	w2, w2, w3, eq
 7722 6990 83008052 		mov	w3, 4
AARCH64 GAS  C:\Users\ldebo\AppData\Local\Temp\ccfW7LPV.s 			page 137


 7723 6994 FF7F1A29 		stp	wzr, wzr, [sp, 208]
 7724 6998 E2630339 		strb	w2, [sp, 216]
 7725 699c 5A0F42D3 		ubfx	x26, x26, 2, 2
 7726 69a0 FBBB0179 		strh	w27, [sp, 220]
 7727 69a4 E2530391 		add	x2, sp, 212
 7728 69a8 E3BF0179 		strh	w3, [sp, 222]
 7729 69ac E3630391 		add	x3, sp, 216
 7730 69b0 70ECFF97 		bl	HCDSumbitControlMessage.constprop.14
 7731 69b4 F803002A 		mov	w24, w0
 7732 69b8 00140035 		cbnz	w0, .L1561
 7733 69bc E0D340B9 		ldr	w0, [sp, 208]
 7734 69c0 1F0C0071 		cmp	w0, 3
 7735 69c4 69250054 		bls	.L1562
 7736 69c8 F4D740B9 		ldr	w20, [sp, 212]
 7737 69cc 9A5E50D3 		ubfx	x26, x20, 16, 8
 7738 69d0 DA200037 		tbnz	x26, 0, .L1563
 7739              	.L1469:
 7740 69d4 941E0012 		and	w20, w20, 255
 7741 69d8 1A0D0837 		tbnz	x26, 1, .L1564
 7742              	.L1474:
 7743 69dc 74071037 		tbnz	x20, 2, .L1565
 7744              	.L1481:
 7745 69e0 1A021837 		tbnz	x26, 3, .L1566
 7746              	.L1486:
 7747 69e4 FA1A2037 		tbnz	x26, 4, .L1567
 7748              	.L1472:
 7749 69e8 60020091 		add	x0, x19, :lo12:DeviceTable
 7750 69ec 19F841F9 		ldr	x25, [x0, 1008]
 7751 69f0 21CF368B 		add	x1, x25, x22, sxtw 3
 7752 69f4 340440F9 		ldr	x20, [x1, 8]
 7753 69f8 541600B5 		cbnz	x20, .L1568
 7754              	.L1494:
 7755 69fc 200340B9 		ldr	w0, [x25]
 7756 6a00 D6060011 		add	w22, w22, 1
 7757 6a04 1F00166B 		cmp	w0, w22
 7758 6a08 09150054 		bls	.L1558
 7759 6a0c 60020091 		add	x0, x19, :lo12:DeviceTable
 7760 6a10 14144039 		ldrb	w20, [x0, 5]
 7761 6a14 81060051 		sub	w1, w20, #1
 7762 6a18 BFFFFF17 		b	.L1498
 7763 6a1c 1F2003D5 		.p2align 3
 7764              	.L1566:
 7765 6a20 74020091 		add	x20, x19, :lo12:DeviceTable
 7766 6a24 BF020071 		cmp	w21, 0
 7767 6a28 FFBB00B9 		str	wzr, [sp, 184]
 7768 6a2c 62048052 		mov	w2, 35
 7769 6a30 00048052 		mov	w0, 32
 7770 6a34 0000821A 		csel	w0, w0, w2, eq
 7771 6a38 830640B9 		ldr	w3, [x20, 4]
 7772 6a3c 62028052 		mov	w2, 19
 7773 6a40 E3B300B9 		str	w3, [sp, 176]
 7774 6a44 97164039 		ldrb	w23, [x20, 5]
 7775 6a48 23008052 		mov	w3, 1
 7776 6a4c F7C70239 		strb	w23, [sp, 177]
 7777 6a50 E0C30339 		strb	w0, [sp, 240]
 7778 6a54 E0074BA9 		ldp	x0, x1, [sp, 176]
 7779 6a58 E3C70339 		strb	w3, [sp, 241]
AARCH64 GAS  C:\Users\ldebo\AppData\Local\Temp\ccfW7LPV.s 			page 138


 7780 6a5c E2E70179 		strh	w2, [sp, 242]
 7781 6a60 E2C30391 		add	x2, sp, 240
 7782 6a64 FBEB0179 		strh	w27, [sp, 244]
 7783 6a68 FFEF0179 		strh	wzr, [sp, 246]
 7784 6a6c 11EBFF97 		bl	HCDSumbitControlMessage.constprop.13
 7785 6a70 A0FBFF34 		cbz	w0, .L1486
 7786 6a74 E203152A 		mov	w2, w21
 7787 6a78 E103172A 		mov	w1, w23
 7788 6a7c 00000090 		adrp	x0, .LC16
 7789 6a80 04008052 		mov	w4, 0
 7790 6a84 63028052 		mov	w3, 19
 7791 6a88 00000091 		add	x0, x0, :lo12:.LC16
 7792 6a8c 00000094 		bl	printf
 7793 6a90 802A4039 		ldrb	w0, [x20, 10]
 7794 6a94 E23B40F9 		ldr	x2, [sp, 112]
 7795 6a98 E10302AA 		mov	x1, x2
 7796 6a9c A0000034 		cbz	w0, .L1489
 7797 6aa0 1F040071 		cmp	w0, 1
 7798 6aa4 E03F40F9 		ldr	x0, [sp, 120]
 7799 6aa8 41E00091 		add	x1, x2, 56
 7800 6aac 2110809A 		csel	x1, x1, x0, ne
 7801              	.L1489:
 7802 6ab0 C21E0012 		and	w2, w22, 255
 7803 6ab4 00000090 		adrp	x0, .LC70
 7804 6ab8 42040011 		add	w2, w2, 1
 7805 6abc 00000091 		add	x0, x0, :lo12:.LC70
 7806 6ac0 00000094 		bl	printf
 7807 6ac4 C8FFFF17 		b	.L1486
 7808              		.p2align 3
 7809              	.L1565:
 7810 6ac8 74020091 		add	x20, x19, :lo12:DeviceTable
 7811 6acc BF020071 		cmp	w21, 0
 7812 6ad0 FFAB00B9 		str	wzr, [sp, 168]
 7813 6ad4 62048052 		mov	w2, 35
 7814 6ad8 00048052 		mov	w0, 32
 7815 6adc 0000821A 		csel	w0, w0, w2, eq
 7816 6ae0 830640B9 		ldr	w3, [x20, 4]
 7817 6ae4 42008052 		mov	w2, 2
 7818 6ae8 E3A300B9 		str	w3, [sp, 160]
 7819 6aec 97164039 		ldrb	w23, [x20, 5]
 7820 6af0 23008052 		mov	w3, 1
 7821 6af4 F7870239 		strb	w23, [sp, 161]
 7822 6af8 E0A30339 		strb	w0, [sp, 232]
 7823 6afc E0074AA9 		ldp	x0, x1, [sp, 160]
 7824 6b00 E3A70339 		strb	w3, [sp, 233]
 7825 6b04 E2D70179 		strh	w2, [sp, 234]
 7826 6b08 E2A30391 		add	x2, sp, 232
 7827 6b0c FBDB0179 		strh	w27, [sp, 236]
 7828 6b10 FFDF0179 		strh	wzr, [sp, 238]
 7829 6b14 E7EAFF97 		bl	HCDSumbitControlMessage.constprop.13
 7830 6b18 40F6FF34 		cbz	w0, .L1481
 7831 6b1c E203152A 		mov	w2, w21
 7832 6b20 E103172A 		mov	w1, w23
 7833 6b24 00000090 		adrp	x0, .LC16
 7834 6b28 04008052 		mov	w4, 0
 7835 6b2c 43008052 		mov	w3, 2
 7836 6b30 00000091 		add	x0, x0, :lo12:.LC16
AARCH64 GAS  C:\Users\ldebo\AppData\Local\Temp\ccfW7LPV.s 			page 139


 7837 6b34 00000094 		bl	printf
 7838 6b38 802A4039 		ldrb	w0, [x20, 10]
 7839 6b3c E23B40F9 		ldr	x2, [sp, 112]
 7840 6b40 E10302AA 		mov	x1, x2
 7841 6b44 A0000034 		cbz	w0, .L1484
 7842 6b48 1F040071 		cmp	w0, 1
 7843 6b4c E03F40F9 		ldr	x0, [sp, 120]
 7844 6b50 41E00091 		add	x1, x2, 56
 7845 6b54 2110809A 		csel	x1, x1, x0, ne
 7846              	.L1484:
 7847 6b58 C21E0012 		and	w2, w22, 255
 7848 6b5c 00000090 		adrp	x0, .LC69
 7849 6b60 42040011 		add	w2, w2, 1
 7850 6b64 00000091 		add	x0, x0, :lo12:.LC69
 7851 6b68 00000094 		bl	printf
 7852 6b6c DAF31F36 		tbz	x26, 3, .L1486
 7853 6b70 ACFFFF17 		b	.L1566
 7854 6b74 1F2003D5 		.p2align 3
 7855              	.L1564:
 7856 6b78 7C020091 		add	x28, x19, :lo12:DeviceTable
 7857 6b7c BF020071 		cmp	w21, 0
 7858 6b80 FF9B00B9 		str	wzr, [sp, 152]
 7859 6b84 62048052 		mov	w2, 35
 7860 6b88 00048052 		mov	w0, 32
 7861 6b8c 0000821A 		csel	w0, w0, w2, eq
 7862 6b90 830740B9 		ldr	w3, [x28, 4]
 7863 6b94 22028052 		mov	w2, 17
 7864 6b98 E39300B9 		str	w3, [sp, 144]
 7865 6b9c 98174039 		ldrb	w24, [x28, 5]
 7866 6ba0 23008052 		mov	w3, 1
 7867 6ba4 F8470239 		strb	w24, [sp, 145]
 7868 6ba8 E0830339 		strb	w0, [sp, 224]
 7869 6bac E00749A9 		ldp	x0, x1, [sp, 144]
 7870 6bb0 E3870339 		strb	w3, [sp, 225]
 7871 6bb4 E2C70179 		strh	w2, [sp, 226]
 7872 6bb8 E2830391 		add	x2, sp, 224
 7873 6bbc FBCB0179 		strh	w27, [sp, 228]
 7874 6bc0 FFCF0179 		strh	wzr, [sp, 230]
 7875 6bc4 BBEAFF97 		bl	HCDSumbitControlMessage.constprop.13
 7876 6bc8 40120035 		cbnz	w0, .L1569
 7877              	.L1476:
 7878 6bcc 80060012 		and	w0, w20, 3
 7879 6bd0 1F040071 		cmp	w0, 1
 7880 6bd4 41F0FF54 		bne	.L1474
 7881 6bd8 C21E0012 		and	w2, w22, 255
 7882 6bdc 250F228B 		add	x5, x25, x2, uxtb 3
 7883 6be0 A00440F9 		ldr	x0, [x5, 8]
 7884 6be4 C0EFFFB4 		cbz	x0, .L1474
 7885 6be8 60020091 		add	x0, x19, :lo12:DeviceTable
 7886 6bec E33B40F9 		ldr	x3, [sp, 112]
 7887 6bf0 E10303AA 		mov	x1, x3
 7888 6bf4 00284039 		ldrb	w0, [x0, 10]
 7889 6bf8 A0000034 		cbz	w0, .L1479
 7890 6bfc 1F040071 		cmp	w0, 1
 7891 6c00 E03F40F9 		ldr	x0, [sp, 120]
 7892 6c04 61E00091 		add	x1, x3, 56
 7893 6c08 2110809A 		csel	x1, x1, x0, ne
AARCH64 GAS  C:\Users\ldebo\AppData\Local\Temp\ccfW7LPV.s 			page 140


 7894              	.L1479:
 7895 6c0c 42040011 		add	w2, w2, 1
 7896 6c10 00000090 		adrp	x0, .LC68
 7897 6c14 00000091 		add	x0, x0, :lo12:.LC68
 7898 6c18 00000094 		bl	printf
 7899 6c1c E103172A 		mov	w1, w23
 7900 6c20 60020091 		add	x0, x19, :lo12:DeviceTable
 7901 6c24 00000094 		bl	HubPortConnectionChanged
 7902 6c28 D4ED1736 		tbz	x20, 2, .L1481
 7903 6c2c A7FFFF17 		b	.L1565
 7904              		.p2align 3
 7905              	.L1557:
 7906 6c30 F91B40F9 		ldr	x25, [sp, 48]
 7907 6c34 19FFFF17 		b	.L1458
 7908              		.p2align 3
 7909              	.L1561:
 7910 6c38 E56F40B9 		ldr	w5, [sp, 108]
 7911 6c3c 00000090 		adrp	x0, .LC14
 7912 6c40 E4031A2A 		mov	w4, w26
 7913 6c44 E303182A 		mov	w3, w24
 7914 6c48 E203152A 		mov	w2, w21
 7915 6c4c E103142A 		mov	w1, w20
 7916 6c50 00000091 		add	x0, x0, :lo12:.LC14
 7917 6c54 00000094 		bl	printf
 7918 6c58 1F2F0031 		cmn	w24, #11
 7919 6c5c 20020054 		beq	.L1554
 7920              	.L1465:
 7921 6c60 74020091 		add	x20, x19, :lo12:DeviceTable
 7922 6c64 C21E0012 		and	w2, w22, 255
 7923 6c68 42040011 		add	w2, w2, 1
 7924 6c6c 802A4039 		ldrb	w0, [x20, 10]
 7925 6c70 400C0034 		cbz	w0, .L1570
 7926 6c74 1F040071 		cmp	w0, 1
 7927 6c78 E00F47A9 		ldp	x0, x3, [sp, 112]
 7928 6c7c 01E00091 		add	x1, x0, 56
 7929 6c80 00000090 		adrp	x0, .LC66
 7930 6c84 2110839A 		csel	x1, x1, x3, ne
 7931 6c88 00000091 		add	x0, x0, :lo12:.LC66
 7932 6c8c 00000094 		bl	printf
 7933 6c90 D8EAFF34 		cbz	w24, .L1472
 7934 6c94 99FA41F9 		ldr	x25, [x20, 1008]
 7935 6c98 59FFFF17 		b	.L1494
 7936 6c9c 1F2003D5 		.p2align 3
 7937              	.L1554:
 7938 6ca0 99FB41F9 		ldr	x25, [x28, 1008]
 7939 6ca4 56FFFF17 		b	.L1494
 7940              		.p2align 3
 7941              	.L1558:
 7942 6ca8 F55B41A9 		ldp	x21, x22, [sp, 16]
 7943 6cac F76342A9 		ldp	x23, x24, [sp, 32]
 7944 6cb0 F96B43A9 		ldp	x25, x26, [sp, 48]
 7945 6cb4 FB7344A9 		ldp	x27, x28, [sp, 64]
 7946 6cb8 F8FEFF17 		b	.L1458
 7947 6cbc 1F2003D5 		.p2align 3
 7948              	.L1568:
 7949 6cc0 81164039 		ldrb	w1, [x20, 5]
 7950 6cc4 21040051 		sub	w1, w1, #1
AARCH64 GAS  C:\Users\ldebo\AppData\Local\Temp\ccfW7LPV.s 			page 141


 7951 6cc8 221C0012 		and	w2, w1, 255
 7952 6ccc 5F7C0071 		cmp	w2, 31
 7953 6cd0 68E9FF54 		bhi	.L1494
 7954 6cd4 217C4093 		sxtw	x1, w1
 7955 6cd8 027F80D2 		mov	x2, 1016
 7956 6cdc 2000029B 		madd	x0, x1, x2, x0
 7957 6ce0 01E843B9 		ldr	w1, [x0, 1000]
 7958 6ce4 3F080071 		cmp	w1, 2
 7959 6ce8 A1E8FF54 		bne	.L1494
 7960 6cec 00F841F9 		ldr	x0, [x0, 1008]
 7961 6cf0 60E8FFB4 		cbz	x0, .L1494
 7962 6cf4 80FA41F9 		ldr	x0, [x20, 1008]
 7963 6cf8 000040B9 		ldr	w0, [x0]
 7964 6cfc 00E8FF34 		cbz	w0, .L1494
 7965 6d00 15008052 		mov	w21, 0
 7966              	.L1497:
 7967 6d04 E103152A 		mov	w1, w21
 7968 6d08 E00314AA 		mov	x0, x20
 7969 6d0c 00000094 		bl	HubCheckConnection
 7970 6d10 81FA41F9 		ldr	x1, [x20, 1008]
 7971 6d14 80000035 		cbnz	w0, .L1496
 7972 6d18 20CC358B 		add	x0, x1, x21, sxtw 3
 7973 6d1c 000440F9 		ldr	x0, [x0, 8]
 7974 6d20 200A00B5 		cbnz	x0, .L1571
 7975              	.L1496:
 7976 6d24 200040B9 		ldr	w0, [x1]
 7977 6d28 B5060011 		add	w21, w21, 1
 7978 6d2c 1F00156B 		cmp	w0, w21
 7979 6d30 A8FEFF54 		bhi	.L1497
 7980              	.L1559:
 7981 6d34 60020091 		add	x0, x19, :lo12:DeviceTable
 7982 6d38 19F841F9 		ldr	x25, [x0, 1008]
 7983 6d3c 30FFFF17 		b	.L1494
 7984              		.p2align 3
 7985              	.L1567:
 7986 6d40 74020091 		add	x20, x19, :lo12:DeviceTable
 7987 6d44 BF020071 		cmp	w21, 0
 7988 6d48 FFCB00B9 		str	wzr, [sp, 200]
 7989 6d4c 62048052 		mov	w2, 35
 7990 6d50 00048052 		mov	w0, 32
 7991 6d54 0000821A 		csel	w0, w0, w2, eq
 7992 6d58 830640B9 		ldr	w3, [x20, 4]
 7993 6d5c 82028052 		mov	w2, 20
 7994 6d60 E3C300B9 		str	w3, [sp, 192]
 7995 6d64 97164039 		ldrb	w23, [x20, 5]
 7996 6d68 23008052 		mov	w3, 1
 7997 6d6c F7070339 		strb	w23, [sp, 193]
 7998 6d70 E0E30339 		strb	w0, [sp, 248]
 7999 6d74 E0074CA9 		ldp	x0, x1, [sp, 192]
 8000 6d78 E3E70339 		strb	w3, [sp, 249]
 8001 6d7c E2F70179 		strh	w2, [sp, 250]
 8002 6d80 E2E30391 		add	x2, sp, 248
 8003 6d84 FBFB0179 		strh	w27, [sp, 252]
 8004 6d88 FFFF0179 		strh	wzr, [sp, 254]
 8005 6d8c 49EAFF97 		bl	HCDSumbitControlMessage.constprop.13
 8006 6d90 C0E2FF34 		cbz	w0, .L1472
 8007 6d94 E203152A 		mov	w2, w21
AARCH64 GAS  C:\Users\ldebo\AppData\Local\Temp\ccfW7LPV.s 			page 142


 8008 6d98 E103172A 		mov	w1, w23
 8009 6d9c 00000090 		adrp	x0, .LC16
 8010 6da0 04008052 		mov	w4, 0
 8011 6da4 83028052 		mov	w3, 20
 8012 6da8 00000091 		add	x0, x0, :lo12:.LC16
 8013 6dac 00000094 		bl	printf
 8014 6db0 802A4039 		ldrb	w0, [x20, 10]
 8015 6db4 E23B40F9 		ldr	x2, [sp, 112]
 8016 6db8 E10302AA 		mov	x1, x2
 8017 6dbc A0000034 		cbz	w0, .L1493
 8018 6dc0 1F040071 		cmp	w0, 1
 8019 6dc4 E03F40F9 		ldr	x0, [sp, 120]
 8020 6dc8 41E00091 		add	x1, x2, 56
 8021 6dcc 2110809A 		csel	x1, x1, x0, ne
 8022              	.L1493:
 8023 6dd0 C21E0012 		and	w2, w22, 255
 8024 6dd4 00000090 		adrp	x0, .LC71
 8025 6dd8 42040011 		add	w2, w2, 1
 8026 6ddc 00000091 		add	x0, x0, :lo12:.LC71
 8027 6de0 00000094 		bl	printf
 8028 6de4 01FFFF17 		b	.L1472
 8029              		.p2align 3
 8030              	.L1563:
 8031 6de8 E103172A 		mov	w1, w23
 8032 6dec E0031CAA 		mov	x0, x28
 8033 6df0 00000094 		bl	HubPortConnectionChanged
 8034 6df4 F8FEFF17 		b	.L1469
 8035              		.p2align 3
 8036              	.L1570:
 8037 6df8 E13B40F9 		ldr	x1, [sp, 112]
 8038 6dfc 00000090 		adrp	x0, .LC66
 8039 6e00 00000091 		add	x0, x0, :lo12:.LC66
 8040 6e04 00000094 		bl	printf
 8041 6e08 99FA41F9 		ldr	x25, [x20, 1008]
 8042 6e0c FCFEFF17 		b	.L1494
 8043              	.L1569:
 8044 6e10 E203152A 		mov	w2, w21
 8045 6e14 E103182A 		mov	w1, w24
 8046 6e18 00000090 		adrp	x0, .LC16
 8047 6e1c 04008052 		mov	w4, 0
 8048 6e20 23028052 		mov	w3, 17
 8049 6e24 00000091 		add	x0, x0, :lo12:.LC16
 8050 6e28 00000094 		bl	printf
 8051 6e2c 802B4039 		ldrb	w0, [x28, 10]
 8052 6e30 E23B40F9 		ldr	x2, [sp, 112]
 8053 6e34 E10302AA 		mov	x1, x2
 8054 6e38 A0000034 		cbz	w0, .L1477
 8055 6e3c 1F040071 		cmp	w0, 1
 8056 6e40 E03F40F9 		ldr	x0, [sp, 120]
 8057 6e44 41E00091 		add	x1, x2, 56
 8058 6e48 2110809A 		csel	x1, x1, x0, ne
 8059              	.L1477:
 8060 6e4c C21E0012 		and	w2, w22, 255
 8061 6e50 00000090 		adrp	x0, .LC67
 8062 6e54 42040011 		add	w2, w2, 1
 8063 6e58 00000091 		add	x0, x0, :lo12:.LC67
 8064 6e5c 00000094 		bl	printf
AARCH64 GAS  C:\Users\ldebo\AppData\Local\Temp\ccfW7LPV.s 			page 143


 8065 6e60 5BFFFF17 		b	.L1476
 8066              	.L1571:
 8067 6e64 00000094 		bl	HubCheckForChange
 8068 6e68 81FA41F9 		ldr	x1, [x20, 1008]
 8069 6e6c AEFFFF17 		b	.L1496
 8070              	.L1562:
 8071 6e70 00000090 		adrp	x0, .LC15
 8072 6e74 E203152A 		mov	w2, w21
 8073 6e78 E103142A 		mov	w1, w20
 8074 6e7c 78008012 		mov	w24, -4
 8075 6e80 00000091 		add	x0, x0, :lo12:.LC15
 8076 6e84 00000094 		bl	printf
 8077 6e88 76FFFF17 		b	.L1465
 8078              		.size	UsbCheckForChange, .-UsbCheckForChange
 8079              		.align	2
 8080 6e8c 1F2003D5 		.p2align 4,,15
 8081              		.global	UsbShowTree
 8082              		.type	UsbShowTree, %function
 8083              	UsbShowTree:
 8084 6e90 F353BBA9 		stp	x19, x20, [sp, -80]!
 8085 6e94 3F040071 		cmp	w1, 1
 8086 6e98 F60F00F9 		str	x22, [sp, 24]
 8087 6e9c F60300AA 		mov	x22, x0
 8088 6ea0 F8E702A9 		stp	x24, x25, [sp, 40]
 8089 6ea4 F803012A 		mov	w24, w1
 8090 6ea8 FE2300F9 		str	x30, [sp, 64]
 8091 6eac 591C0012 		and	w25, w2, 255
 8092 6eb0 0D040054 		ble	.L1573
 8093 6eb4 34080051 		sub	w20, w1, #2
 8094 6eb8 FA1F00F9 		str	x26, [sp, 56]
 8095 6ebc 1A000090 		adrp	x26, .LANCHOR1
 8096 6ec0 5A030091 		add	x26, x26, :lo12:.LANCHOR1
 8097 6ec4 F50B00F9 		str	x21, [sp, 16]
 8098 6ec8 94060091 		add	x20, x20, 1
 8099 6ecc F71300F9 		str	x23, [sp, 32]
 8100 6ed0 15000090 		adrp	x21, .LC106
 8101 6ed4 B5020091 		add	x21, x21, :lo12:.LC106
 8102 6ed8 17000090 		adrp	x23, .LC107
 8103 6edc F7020091 		add	x23, x23, :lo12:.LC107
 8104 6ee0 130080D2 		mov	x19, 0
 8105 6ee4 5A632491 		add	x26, x26, 2328
 8106 6ee8 06000014 		b	.L1576
 8107 6eec 1F2003D5 		.p2align 3
 8108              	.L1617:
 8109 6ef0 00000094 		bl	printf
 8110 6ef4 73060091 		add	x19, x19, 1
 8111 6ef8 7F0214EB 		cmp	x19, x20
 8112 6efc 40010054 		beq	.L1616
 8113              	.L1576:
 8114 6f00 427B73B8 		ldr	w2, [x26, x19, lsl 2]
 8115 6f04 E00315AA 		mov	x0, x21
 8116 6f08 61168052 		mov	w1, 179
 8117 6f0c 22FFFF34 		cbz	w2, .L1617
 8118 6f10 E00317AA 		mov	x0, x23
 8119 6f14 73060091 		add	x19, x19, 1
 8120 6f18 00000094 		bl	printf
 8121 6f1c 7F0214EB 		cmp	x19, x20
AARCH64 GAS  C:\Users\ldebo\AppData\Local\Temp\ccfW7LPV.s 			page 144


 8122 6f20 01FFFF54 		bne	.L1576
 8123              	.L1616:
 8124 6f24 F50B40F9 		ldr	x21, [sp, 16]
 8125 6f28 F71340F9 		ldr	x23, [sp, 32]
 8126 6f2c FA1F40F9 		ldr	x26, [sp, 56]
 8127              	.L1573:
 8128 6f30 C5124039 		ldrb	w5, [x22, 4]
 8129 6f34 06018052 		mov	w6, 8
 8130 6f38 A0040072 		ands	w0, w5, 3
 8131 6f3c 00010054 		beq	.L1577
 8132 6f40 06028052 		mov	w6, 16
 8133 6f44 1F040071 		cmp	w0, 1
 8134 6f48 A0000054 		beq	.L1577
 8135 6f4c 1F080071 		cmp	w0, 2
 8136 6f50 06048052 		mov	w6, 32
 8137 6f54 00088052 		mov	w0, 64
 8138 6f58 0610861A 		csel	w6, w0, w6, ne
 8139              	.L1577:
 8140 6f5c E00316AA 		mov	x0, x22
 8141 6f60 00000094 		bl	UsbGetDescription
 8142 6f64 C3164039 		ldrb	w3, [x22, 5]
 8143 6f68 01000090 		adrp	x1, .LANCHOR0
 8144 6f6c 21000091 		add	x1, x1, :lo12:.LANCHOR0
 8145 6f70 21A00291 		add	x1, x1, 168
 8146 6f74 A50C42D3 		ubfx	x5, x5, 2, 2
 8147 6f78 67040051 		sub	w7, w3, #1
 8148 6f7c C4064039 		ldrb	w4, [x22, 1]
 8149 6f80 E21C0012 		and	w2, w7, 255
 8150 6f84 257865F8 		ldr	x5, [x1, x5, lsl 3]
 8151 6f88 5F7C0071 		cmp	w2, 31
 8152 6f8c 68040054 		bhi	.L1593
 8153 6f90 01000090 		adrp	x1, DeviceTable
 8154 6f94 22000091 		add	x2, x1, :lo12:DeviceTable
 8155 6f98 E17C4093 		sxtw	x1, w7
 8156 6f9c 087F80D2 		mov	x8, 1016
 8157 6fa0 07000090 		adrp	x7, .LC105
 8158 6fa4 E7000091 		add	x7, x7, :lo12:.LC105
 8159 6fa8 2108089B 		madd	x1, x1, x8, x2
 8160 6fac 22E843B9 		ldr	w2, [x1, 1000]
 8161 6fb0 5F0C0071 		cmp	w2, 3
 8162 6fb4 200D0054 		beq	.L1618
 8163              	.L1578:
 8164 6fb8 08000090 		adrp	x8, .LC108
 8165 6fbc E20300AA 		mov	x2, x0
 8166 6fc0 E103192A 		mov	w1, w25
 8167 6fc4 00010091 		add	x0, x8, :lo12:.LC108
 8168 6fc8 00000094 		bl	printf
 8169 6fcc C0164039 		ldrb	w0, [x22, 5]
 8170 6fd0 00040051 		sub	w0, w0, #1
 8171 6fd4 011C0012 		and	w1, w0, 255
 8172 6fd8 3F7C0071 		cmp	w1, 31
 8173 6fdc 28010054 		bhi	.L1572
 8174 6fe0 01000090 		adrp	x1, DeviceTable
 8175 6fe4 21000091 		add	x1, x1, :lo12:DeviceTable
 8176 6fe8 007C4093 		sxtw	x0, w0
 8177 6fec 027F80D2 		mov	x2, 1016
 8178 6ff0 0004029B 		madd	x0, x0, x2, x1
AARCH64 GAS  C:\Users\ldebo\AppData\Local\Temp\ccfW7LPV.s 			page 145


 8179 6ff4 01E843B9 		ldr	w1, [x0, 1000]
 8180 6ff8 3F080071 		cmp	w1, 2
 8181 6ffc 60010054 		beq	.L1619
 8182              	.L1572:
 8183 7000 F60F40F9 		ldr	x22, [sp, 24]
 8184 7004 F8E742A9 		ldp	x24, x25, [sp, 40]
 8185 7008 FE2340F9 		ldr	x30, [sp, 64]
 8186 700c F353C5A8 		ldp	x19, x20, [sp], 80
 8187 7010 C0035FD6 		ret
 8188 7014 1F2003D5 		.p2align 3
 8189              	.L1593:
 8190 7018 07000090 		adrp	x7, .LC105
 8191 701c E7000091 		add	x7, x7, :lo12:.LC105
 8192 7020 E6FFFF17 		b	.L1578
 8193 7024 1F2003D5 		.p2align 3
 8194              	.L1619:
 8195 7028 00F841F9 		ldr	x0, [x0, 1008]
 8196 702c A0FEFFB4 		cbz	x0, .L1572
 8197 7030 C1FA41F9 		ldr	x1, [x22, 1008]
 8198 7034 330040B9 		ldr	w19, [x1]
 8199 7038 7F020071 		cmp	w19, 0
 8200 703c 2DFEFF54 		ble	.L1572
 8201 7040 F50B00F9 		str	x21, [sp, 16]
 8202 7044 00008052 		mov	w0, 0
 8203 7048 FA1F00F9 		str	x26, [sp, 56]
 8204 704c 1A000090 		adrp	x26, .LANCHOR1
 8205 7050 55030091 		add	x21, x26, :lo12:.LANCHOR1
 8206 7054 F71300F9 		str	x23, [sp, 32]
 8207 7058 B5622491 		add	x21, x21, 2328
 8208 705c 177F4093 		sxtw	x23, w24
 8209 7060 39008052 		mov	w25, 1
 8210              	.L1582:
 8211 7064 14040011 		add	w20, w0, 1
 8212 7068 7F02146B 		cmp	w19, w20
 8213 706c AD090054 		ble	.L1583
 8214 7070 23CC208B 		add	x3, x1, x0, sxtw 3
 8215 7074 620840F9 		ldr	x2, [x3, 16]
 8216 7078 C20700B5 		cbnz	x2, .L1584
 8217 707c 82060011 		add	w2, w20, 1
 8218 7080 7F02026B 		cmp	w19, w2
 8219 7084 ED070054 		ble	.L1604
 8220 7088 22CC228B 		add	x2, x1, x2, sxtw 3
 8221 708c 420440F9 		ldr	x2, [x2, 8]
 8222 7090 020700B5 		cbnz	x2, .L1584
 8223 7094 020C0011 		add	w2, w0, 3
 8224 7098 5F00136B 		cmp	w2, w19
 8225 709c 2A070054 		bge	.L1604
 8226 70a0 22CC228B 		add	x2, x1, x2, sxtw 3
 8227 70a4 420440F9 		ldr	x2, [x2, 8]
 8228 70a8 420600B5 		cbnz	x2, .L1584
 8229 70ac 02100011 		add	w2, w0, 4
 8230 70b0 5F00136B 		cmp	w2, w19
 8231 70b4 6A060054 		bge	.L1604
 8232 70b8 22CC228B 		add	x2, x1, x2, sxtw 3
 8233 70bc 420440F9 		ldr	x2, [x2, 8]
 8234 70c0 820500B5 		cbnz	x2, .L1584
 8235 70c4 00140011 		add	w0, w0, 5
AARCH64 GAS  C:\Users\ldebo\AppData\Local\Temp\ccfW7LPV.s 			page 146


 8236 70c8 1F00136B 		cmp	w0, w19
 8237 70cc AA050054 		bge	.L1604
 8238 70d0 20CC208B 		add	x0, x1, x0, sxtw 3
 8239 70d4 000440F9 		ldr	x0, [x0, 8]
 8240 70d8 C00400B5 		cbnz	x0, .L1584
 8241 70dc 80160011 		add	w0, w20, 5
 8242 70e0 7F02006B 		cmp	w19, w0
 8243 70e4 ED040054 		ble	.L1604
 8244 70e8 20CC208B 		add	x0, x1, x0, sxtw 3
 8245 70ec 000440F9 		ldr	x0, [x0, 8]
 8246 70f0 000400B5 		cbnz	x0, .L1584
 8247 70f4 801A0011 		add	w0, w20, 6
 8248 70f8 7F02006B 		cmp	w19, w0
 8249 70fc 2D040054 		ble	.L1604
 8250 7100 20CC208B 		add	x0, x1, x0, sxtw 3
 8251 7104 000440F9 		ldr	x0, [x0, 8]
 8252 7108 400300B5 		cbnz	x0, .L1584
 8253 710c 801E0011 		add	w0, w20, 7
 8254 7110 7F02006B 		cmp	w19, w0
 8255 7114 6D030054 		ble	.L1604
 8256 7118 20CC208B 		add	x0, x1, x0, sxtw 3
 8257 711c 000440F9 		ldr	x0, [x0, 8]
 8258 7120 800200B5 		cbnz	x0, .L1584
 8259 7124 80220011 		add	w0, w20, 8
 8260 7128 7F02006B 		cmp	w19, w0
 8261 712c AD020054 		ble	.L1604
 8262 7130 20CC208B 		add	x0, x1, x0, sxtw 3
 8263 7134 02188052 		mov	w2, 192
 8264 7138 000440F9 		ldr	x0, [x0, 8]
 8265 713c A00100B5 		cbnz	x0, .L1584
 8266              	.L1585:
 8267 7140 600440F9 		ldr	x0, [x3, 8]
 8268 7144 200200B5 		cbnz	x0, .L1620
 8269 7148 BF7A37B8 		str	wzr, [x21, x23, lsl 2]
 8270 714c E003142A 		mov	w0, w20
 8271 7150 C5FFFF17 		b	.L1582
 8272 7154 1F2003D5 		.p2align 3
 8273              	.L1618:
 8274 7158 22F841F9 		ldr	x2, [x1, 1008]
 8275 715c 01000090 		adrp	x1, .LC104
 8276 7160 21000091 		add	x1, x1, :lo12:.LC104
 8277 7164 5F0000F1 		cmp	x2, 0
 8278 7168 E700819A 		csel	x7, x7, x1, eq
 8279 716c 93FFFF17 		b	.L1578
 8280              		.p2align 3
 8281              	.L1584:
 8282 7170 B97A37B8 		str	w25, [x21, x23, lsl 2]
 8283 7174 62188052 		mov	w2, 195
 8284 7178 F2FFFF17 		b	.L1585
 8285 717c 1F2003D5 		.p2align 3
 8286              	.L1604:
 8287 7180 02188052 		mov	w2, 192
 8288 7184 EFFFFF17 		b	.L1585
 8289              	.L1620:
 8290 7188 01070011 		add	w1, w24, 1
 8291 718c 00000094 		bl	UsbShowTree
 8292 7190 C1FA41F9 		ldr	x1, [x22, 1008]
AARCH64 GAS  C:\Users\ldebo\AppData\Local\Temp\ccfW7LPV.s 			page 147


 8293 7194 E003142A 		mov	w0, w20
 8294 7198 BF7A37B8 		str	wzr, [x21, x23, lsl 2]
 8295 719c B2FFFF17 		b	.L1582
 8296              	.L1583:
 8297 71a0 20CC208B 		add	x0, x1, x0, sxtw 3
 8298 71a4 000440F9 		ldr	x0, [x0, 8]
 8299 71a8 800000B4 		cbz	x0, .L1615
 8300 71ac E2078012 		mov	w2, -64
 8301 71b0 01070011 		add	w1, w24, 1
 8302 71b4 00000094 		bl	UsbShowTree
 8303              	.L1615:
 8304 71b8 40030091 		add	x0, x26, :lo12:.LANCHOR1
 8305 71bc F50B40F9 		ldr	x21, [sp, 16]
 8306 71c0 00602491 		add	x0, x0, 2328
 8307 71c4 FA1F40F9 		ldr	x26, [sp, 56]
 8308 71c8 1F7837B8 		str	wzr, [x0, x23, lsl 2]
 8309 71cc F71340F9 		ldr	x23, [sp, 32]
 8310 71d0 8CFFFF17 		b	.L1572
 8311              		.size	UsbShowTree, .-UsbShowTree
 8312              		.align	2
 8313 71d4 1F2003D5 		.p2align 4,,15
 8313      1F2003D5 
 8313      1F2003D5 
 8314              		.global	HIDReadDescriptor
 8315              		.type	HIDReadDescriptor, %function
 8316              	HIDReadDescriptor:
 8317 71e0 FF0323D1 		sub	sp, sp, #2240
 8318 71e4 5F0000F1 		cmp	x2, 0
 8319 71e8 F35301A9 		stp	x19, x20, [sp, 16]
 8320 71ec F61700F9 		str	x22, [sp, 40]
 8321 71f0 763C0012 		and	w22, w3, 65535
 8322 71f4 FE3300F9 		str	x30, [sp, 96]
 8323 71f8 C41A407A 		ccmp	w22, 0, 4, ne
 8324 71fc 60250054 		beq	.L1646
 8325 7200 001C0012 		and	w0, w0, 255
 8326 7204 00040051 		sub	w0, w0, #1
 8327 7208 031C0012 		and	w3, w0, 255
 8328 720c 7F7C0071 		cmp	w3, 31
 8329 7210 08250054 		bhi	.L1647
 8330 7214 F76303A9 		stp	x23, x24, [sp, 48]
 8331 7218 187C4093 		sxtw	x24, w0
 8332 721c 077F80D2 		mov	x7, 1016
 8333 7220 17000090 		adrp	x23, DeviceTable
 8334 7224 E5020091 		add	x5, x23, :lo12:DeviceTable
 8335 7228 067F079B 		mul	x6, x24, x7
 8336 722c A300068B 		add	x3, x5, x6
 8337 7230 64E843B9 		ldr	w4, [x3, 1000]
 8338 7234 24240034 		cbz	w4, .L1648
 8339 7238 9F0C0071 		cmp	w4, 3
 8340 723c A1220054 		bne	.L1650
 8341 7240 63F841F9 		ldr	x3, [x3, 1008]
 8342 7244 632200B4 		cbz	x3, .L1650
 8343 7248 68A04039 		ldrb	w8, [x3, 40]
 8344 724c 211C0012 		and	w1, w1, 255
 8345 7250 1F01016B 		cmp	w8, w1
 8346 7254 43220054 		bcc	.L1651
 8347 7258 29018052 		mov	w9, 9
AARCH64 GAS  C:\Users\ldebo\AppData\Local\Temp\ccfW7LPV.s 			page 148


 8348 725c F96B04A9 		stp	x25, x26, [sp, 64]
 8349 7260 880080D2 		mov	x8, 4
 8350 7264 397C4093 		sxtw	x25, w1
 8351 7268 210CA99B 		umaddl	x1, w1, w9, x3
 8352 726c F40302AA 		mov	x20, x2
 8353 7270 0020279B 		smaddl	x0, w0, w7, x8
 8354 7274 A200088B 		add	x2, x5, x8
 8355 7278 6300198B 		add	x3, x3, x25
 8356 727c FF9B00B9 		str	wzr, [sp, 152]
 8357 7280 0000058B 		add	x0, x0, x5
 8358 7284 FB7305A9 		stp	x27, x28, [sp, 80]
 8359 7288 25204039 		ldrb	w5, [x1, 8]
 8360 728c E53B0239 		strb	w5, [sp, 142]
 8361 7290 211C4039 		ldrb	w1, [x1, 7]
 8362 7294 E13F0239 		strb	w1, [sp, 143]
 8363 7298 426866B8 		ldr	w2, [x2, x6]
 8364 729c F33B4239 		ldrb	w19, [sp, 142]
 8365 72a0 1A044039 		ldrb	w26, [x0, 1]
 8366 72a4 E03F4239 		ldrb	w0, [sp, 143]
 8367 72a8 E29300B9 		str	w2, [sp, 144]
 8368 72ac 731E1853 		ubfiz	w19, w19, 8, 8
 8369 72b0 001C0012 		and	w0, w0, 255
 8370 72b4 F51300F9 		str	x21, [sp, 32]
 8371 72b8 82008052 		mov	w2, 4
 8372 72bc FA470239 		strb	w26, [sp, 145]
 8373 72c0 E2670239 		strb	w2, [sp, 153]
 8374 72c4 7302002A 		orr	w19, w19, w0
 8375 72c8 00000090 		adrp	x0, .LANCHOR1
 8376 72cc 05004039 		ldrb	w5, [x0, #:lo12:.LANCHOR1]
 8377 72d0 F5434239 		ldrb	w21, [sp, 144]
 8378 72d4 62904039 		ldrb	w2, [x3, 36]
 8379 72d8 23D08052 		mov	w3, 1665
 8380 72dc 0340A472 		movk	w3, 0x2200, lsl 16
 8381 72e0 E3BB00B9 		str	w3, [sp, 184]
 8382 72e4 E04F4239 		ldrb	w0, [sp, 147]
 8383 72e8 BC060012 		and	w28, w21, 3
 8384 72ec E69340B9 		ldr	w6, [sp, 144]
 8385 72f0 BF001A6B 		cmp	w5, w26
 8386 72f4 E19B40B9 		ldr	w1, [sp, 152]
 8387 72f8 B50E42D3 		ubfx	x21, x21, 2, 2
 8388 72fc E07700B9 		str	w0, [sp, 116]
 8389 7300 E6A300B9 		str	w6, [sp, 160]
 8390 7304 E1AB00B9 		str	w1, [sp, 168]
 8391 7308 E27B0179 		strh	w2, [sp, 188]
 8392 730c F37F0179 		strh	w19, [sp, 190]
 8393 7310 FB4B4239 		ldrb	w27, [sp, 146]
 8394 7314 600C0054 		beq	.L1669
 8395 7318 E1B300B9 		str	w1, [sp, 176]
 8396 731c 03018052 		mov	w3, 8
 8397 7320 E05340F9 		ldr	x0, [sp, 160]
 8398 7324 E2E30291 		add	x2, sp, 184
 8399 7328 E1C74239 		ldrb	w1, [sp, 177]
 8400 732c 21781D12 		and	w1, w1, -5
 8401 7330 E1C70239 		strb	w1, [sp, 177]
 8402 7334 E15B40F9 		ldr	x1, [sp, 176]
 8403 7338 00000094 		bl	HCDChannelTransfer
 8404 733c 20110035 		cbnz	w0, .L1670
AARCH64 GAS  C:\Users\ldebo\AppData\Local\Temp\ccfW7LPV.s 			page 149


 8405 7340 E0A74239 		ldrb	w0, [sp, 169]
 8406 7344 E00C1037 		tbnz	x0, 2, .L1629
 8407 7348 53180034 		cbz	w19, .L1630
 8408 734c 63060051 		sub	w3, w19, #1
 8409 7350 E2030391 		add	x2, sp, 192
 8410 7354 63040091 		add	x3, x3, 1
 8411 7358 E6031391 		add	x6, sp, 1216
 8412 735c 000080D2 		mov	x0, 0
 8413              		.p2align 3
 8414              	.L1631:
 8415 7360 41686038 		ldrb	w1, [x2, x0]
 8416 7364 C1682038 		strb	w1, [x6, x0]
 8417 7368 00040091 		add	x0, x0, 1
 8418 736c 7F0000EB 		cmp	x3, x0
 8419 7370 81FFFF54 		bne	.L1631
 8420 7374 E1C74239 		ldrb	w1, [sp, 177]
 8421 7378 44008052 		mov	w4, 2
 8422 737c E05340F9 		ldr	x0, [sp, 160]
 8423 7380 E303132A 		mov	w3, w19
 8424 7384 21001E32 		orr	w1, w1, 4
 8425 7388 E1C70239 		strb	w1, [sp, 177]
 8426 738c E20306AA 		mov	x2, x6
 8427 7390 E63F00F9 		str	x6, [sp, 120]
 8428 7394 E15B40F9 		ldr	x1, [sp, 176]
 8429 7398 00000094 		bl	HCDChannelTransfer
 8430 739c A0100035 		cbnz	w0, .L1643
 8431 73a0 E63F40F9 		ldr	x6, [sp, 120]
 8432 73a4 E503132A 		mov	w5, w19
 8433              	.L1635:
 8434 73a8 20008052 		mov	w0, 1
 8435 73ac D3000034 		cbz	w19, .L1637
 8436 73b0 E0A74239 		ldrb	w0, [sp, 169]
 8437 73b4 00001E32 		orr	w0, w0, 4
 8438 73b8 E0A70239 		strb	w0, [sp, 169]
 8439 73bc 00007ED2 		eor	x0, x0, 4
 8440 73c0 00080253 		ubfx	w0, w0, 2, 1
 8441              	.L1637:
 8442 73c4 E1834239 		ldrb	w1, [sp, 160]
 8443 73c8 44008052 		mov	w4, 2
 8444 73cc E2C74239 		ldrb	w2, [sp, 177]
 8445 73d0 E3D34139 		ldrb	w3, [sp, 116]
 8446 73d4 81070033 		bfi	w1, w28, 0, 2
 8447 73d8 FB8B0239 		strb	w27, [sp, 162]
 8448 73dc 02001E33 		bfi	w2, w0, 2, 1
 8449 73e0 E003012A 		mov	w0, w1
 8450 73e4 E38F0239 		strb	w3, [sp, 163]
 8451 73e8 03008052 		mov	w3, 0
 8452 73ec E2C70239 		strb	w2, [sp, 177]
 8453 73f0 A0061E33 		bfi	w0, w21, 2, 2
 8454 73f4 E0830239 		strb	w0, [sp, 160]
 8455 73f8 E20306AA 		mov	x2, x6
 8456 73fc E15B40F9 		ldr	x1, [sp, 176]
 8457 7400 E05340F9 		ldr	x0, [sp, 160]
 8458 7404 E57B00B9 		str	w5, [sp, 120]
 8459 7408 00000094 		bl	HCDChannelTransfer
 8460 740c E57B40B9 		ldr	w5, [sp, 120]
 8461 7410 00110035 		cbnz	w0, .L1671
AARCH64 GAS  C:\Users\ldebo\AppData\Local\Temp\ccfW7LPV.s 			page 150


 8462 7414 00000090 		adrp	x0, RPi_IO_Base_Addr
 8463 7418 000040B9 		ldr	w0, [x0, #:lo12:RPi_IO_Base_Addr]
 8464 741c 7F02056B 		cmp	w19, w5
 8465 7420 00006611 		add	w0, w0, 9961472
 8466 7424 00001411 		add	w0, w0, 1280
 8467 7428 001040B9 		ldr	w0, [x0, 16]
 8468 742c E5B700B9 		str	w5, [sp, 180]
 8469 7430 000D0054 		beq	.L1639
 8470              	.L1633:
 8471 7434 00000090 		adrp	x0, .LC23
 8472 7438 24018012 		mov	w4, -10
 8473              	.L1668:
 8474 743c E3031A2A 		mov	w3, w26
 8475 7440 02008052 		mov	w2, 0
 8476 7444 41048052 		mov	w1, 34
 8477 7448 F7020091 		add	x23, x23, :lo12:DeviceTable
 8478 744c 00000091 		add	x0, x0, :lo12:.LC23
 8479 7450 00000094 		bl	printf
 8480 7454 017F80D2 		mov	x1, 1016
 8481 7458 00000090 		adrp	x0, .LC24
 8482 745c 00000091 		add	x0, x0, :lo12:.LC24
 8483 7460 185F019B 		madd	x24, x24, x1, x23
 8484 7464 01FB41F9 		ldr	x1, [x24, 1008]
 8485 7468 02174039 		ldrb	w2, [x24, 5]
 8486 746c 3900198B 		add	x25, x1, x25
 8487 7470 21934039 		ldrb	w1, [x25, 36]
 8488 7474 00000094 		bl	printf
 8489 7478 F51340F9 		ldr	x21, [sp, 32]
 8490 747c F76343A9 		ldp	x23, x24, [sp, 48]
 8491 7480 60008012 		mov	w0, -4
 8492 7484 F96B44A9 		ldp	x25, x26, [sp, 64]
 8493 7488 FB7345A9 		ldp	x27, x28, [sp, 80]
 8494              	.L1621:
 8495 748c F35341A9 		ldp	x19, x20, [sp, 16]
 8496 7490 F61740F9 		ldr	x22, [sp, 40]
 8497 7494 FE3340F9 		ldr	x30, [sp, 96]
 8498 7498 FF032391 		add	sp, sp, 2240
 8499 749c C0035FD6 		ret
 8500              		.p2align 3
 8501              	.L1669:
 8502 74a0 E57700B9 		str	w5, [sp, 116]
 8503 74a4 E3D30291 		add	x3, sp, 180
 8504 74a8 E2E30291 		add	x2, sp, 184
 8505 74ac E103132A 		mov	w1, w19
 8506 74b0 E0030391 		add	x0, sp, 192
 8507 74b4 00000094 		bl	HcdProcessRootHubMessage
 8508 74b8 E403002A 		mov	w4, w0
 8509 74bc E0B740B9 		ldr	w0, [sp, 180]
 8510 74c0 E57740B9 		ldr	w5, [sp, 116]
 8511 74c4 7F02006B 		cmp	w19, w0
 8512 74c8 01070054 		bne	.L1672
 8513 74cc FA03052A 		mov	w26, w5
 8514 74d0 04080034 		cbz	w4, .L1639
 8515 74d4 00000090 		adrp	x0, .LC23
 8516 74d8 D9FFFF17 		b	.L1668
 8517 74dc 1F2003D5 		.p2align 3
 8518              	.L1629:
AARCH64 GAS  C:\Users\ldebo\AppData\Local\Temp\ccfW7LPV.s 			page 151


 8519 74e0 E1C74239 		ldrb	w1, [sp, 177]
 8520 74e4 E6031391 		add	x6, sp, 1216
 8521 74e8 E05340F9 		ldr	x0, [sp, 160]
 8522 74ec E20306AA 		mov	x2, x6
 8523 74f0 21001E32 		orr	w1, w1, 4
 8524 74f4 E1C70239 		strb	w1, [sp, 177]
 8525 74f8 E63F00F9 		str	x6, [sp, 120]
 8526 74fc 44008052 		mov	w4, 2
 8527 7500 E15B40F9 		ldr	x1, [sp, 176]
 8528 7504 E303132A 		mov	w3, w19
 8529 7508 00000094 		bl	HCDChannelTransfer
 8530 750c E63F40F9 		ldr	x6, [sp, 120]
 8531 7510 00050035 		cbnz	w0, .L1643
 8532 7514 00000090 		adrp	x0, RPi_IO_Base_Addr
 8533 7518 000040B9 		ldr	w0, [x0, #:lo12:RPi_IO_Base_Addr]
 8534 751c 00006611 		add	w0, w0, 9961472
 8535 7520 00001411 		add	w0, w0, 1280
 8536 7524 051040B9 		ldr	w5, [x0, 16]
 8537 7528 A54840D3 		ubfx	x5, x5, 0, 19
 8538 752c 6502056B 		subs	w5, w19, w5
 8539 7530 C0F3FF54 		beq	.L1635
 8540 7534 A3040051 		sub	w3, w5, #1
 8541 7538 E2030391 		add	x2, sp, 192
 8542 753c 63040091 		add	x3, x3, 1
 8543 7540 000080D2 		mov	x0, 0
 8544 7544 1F2003D5 		.p2align 3
 8545              	.L1636:
 8546 7548 C1686038 		ldrb	w1, [x6, x0]
 8547 754c 41682038 		strb	w1, [x2, x0]
 8548 7550 00040091 		add	x0, x0, 1
 8549 7554 7F0000EB 		cmp	x3, x0
 8550 7558 81FFFF54 		bne	.L1636
 8551 755c 93FFFF17 		b	.L1635
 8552              		.p2align 3
 8553              	.L1670:
 8554 7560 E3E34239 		ldrb	w3, [sp, 184]
 8555 7564 E6031B2A 		mov	w6, w27
 8556 7568 E2E74239 		ldrb	w2, [sp, 185]
 8557 756c E5031C2A 		mov	w5, w28
 8558 7570 E77740B9 		ldr	w7, [sp, 116]
 8559 7574 E403152A 		mov	w4, w21
 8560 7578 E00300B9 		str	w0, [sp]
 8561 757c E1031A2A 		mov	w1, w26
 8562 7580 00000090 		adrp	x0, .LC10
 8563 7584 00000091 		add	x0, x0, :lo12:.LC10
 8564 7588 00000094 		bl	printf
 8565 758c E0B740B9 		ldr	w0, [sp, 180]
 8566 7590 7F02006B 		cmp	w19, w0
 8567 7594 E0010054 		beq	.L1639
 8568 7598 24018012 		mov	w4, -10
 8569 759c 00000090 		adrp	x0, .LC23
 8570 75a0 A7FFFF17 		b	.L1668
 8571 75a4 1F2003D5 		.p2align 3
 8572              	.L1672:
 8573 75a8 FA03052A 		mov	w26, w5
 8574 75ac A2FFFF17 		b	.L1633
 8575              		.p2align 3
AARCH64 GAS  C:\Users\ldebo\AppData\Local\Temp\ccfW7LPV.s 			page 152


 8576              	.L1643:
 8577 75b0 00000090 		adrp	x0, .LC12
 8578 75b4 E1031A2A 		mov	w1, w26
 8579 75b8 00000091 		add	x0, x0, :lo12:.LC12
 8580 75bc 00000094 		bl	printf
 8581 75c0 E0B740B9 		ldr	w0, [sp, 180]
 8582 75c4 7F02006B 		cmp	w19, w0
 8583 75c8 61F3FF54 		bne	.L1633
 8584 75cc 1F2003D5 		.p2align 3
 8585              	.L1639:
 8586 75d0 7F02166B 		cmp	w19, w22
 8587 75d4 7332961A 		csel	w19, w19, w22, cc
 8588 75d8 733E0072 		ands	w19, w19, 65535
 8589 75dc 40010054 		beq	.L1642
 8590 75e0 73060051 		sub	w19, w19, #1
 8591 75e4 E2030391 		add	x2, sp, 192
 8592 75e8 61060091 		add	x1, x19, 1
 8593 75ec 000080D2 		mov	x0, 0
 8594              		.p2align 3
 8595              	.L1641:
 8596 75f0 43686038 		ldrb	w3, [x2, x0]
 8597 75f4 836A2038 		strb	w3, [x20, x0]
 8598 75f8 00040091 		add	x0, x0, 1
 8599 75fc 1F0001EB 		cmp	x0, x1
 8600 7600 81FFFF54 		bne	.L1641
 8601              	.L1642:
 8602 7604 F35341A9 		ldp	x19, x20, [sp, 16]
 8603 7608 00008052 		mov	w0, 0
 8604 760c F51340F9 		ldr	x21, [sp, 32]
 8605 7610 F61740F9 		ldr	x22, [sp, 40]
 8606 7614 F76343A9 		ldp	x23, x24, [sp, 48]
 8607 7618 F96B44A9 		ldp	x25, x26, [sp, 64]
 8608 761c FB7345A9 		ldp	x27, x28, [sp, 80]
 8609 7620 FE3340F9 		ldr	x30, [sp, 96]
 8610 7624 FF032391 		add	sp, sp, 2240
 8611 7628 C0035FD6 		ret
 8612 762c 1F2003D5 		.p2align 3
 8613              	.L1671:
 8614 7630 00000090 		adrp	x0, .LC11
 8615 7634 E1031A2A 		mov	w1, w26
 8616 7638 00000091 		add	x0, x0, :lo12:.LC11
 8617 763c 00000094 		bl	printf
 8618 7640 E0B740B9 		ldr	w0, [sp, 180]
 8619 7644 7F02006B 		cmp	w19, w0
 8620 7648 40FCFF54 		beq	.L1639
 8621 764c 7AFFFF17 		b	.L1633
 8622              	.L1630:
 8623 7650 E1C74239 		ldrb	w1, [sp, 177]
 8624 7654 E6031391 		add	x6, sp, 1216
 8625 7658 E05340F9 		ldr	x0, [sp, 160]
 8626 765c 44008052 		mov	w4, 2
 8627 7660 21001E32 		orr	w1, w1, 4
 8628 7664 E1C70239 		strb	w1, [sp, 177]
 8629 7668 03008052 		mov	w3, 0
 8630 766c E20306AA 		mov	x2, x6
 8631 7670 E15B40F9 		ldr	x1, [sp, 176]
 8632 7674 E63F00F9 		str	x6, [sp, 120]
AARCH64 GAS  C:\Users\ldebo\AppData\Local\Temp\ccfW7LPV.s 			page 153


 8633 7678 00000094 		bl	HCDChannelTransfer
 8634 767c A0F9FF35 		cbnz	w0, .L1643
 8635 7680 20008052 		mov	w0, 1
 8636 7684 05008052 		mov	w5, 0
 8637 7688 E63F40F9 		ldr	x6, [sp, 120]
 8638 768c 4EFFFF17 		b	.L1637
 8639              	.L1650:
 8640 7690 C0018012 		mov	w0, -15
 8641 7694 F76343A9 		ldp	x23, x24, [sp, 48]
 8642 7698 7DFFFF17 		b	.L1621
 8643              	.L1651:
 8644 769c A0018012 		mov	w0, -14
 8645 76a0 F76343A9 		ldp	x23, x24, [sp, 48]
 8646 76a4 7AFFFF17 		b	.L1621
 8647              	.L1646:
 8648 76a8 20008012 		mov	w0, -2
 8649 76ac 78FFFF17 		b	.L1621
 8650              	.L1647:
 8651 76b0 60018012 		mov	w0, -12
 8652 76b4 76FFFF17 		b	.L1621
 8653              	.L1648:
 8654 76b8 60018012 		mov	w0, -12
 8655 76bc F76343A9 		ldp	x23, x24, [sp, 48]
 8656 76c0 73FFFF17 		b	.L1621
 8657              		.size	HIDReadDescriptor, .-HIDReadDescriptor
 8658              		.align	2
 8659 76c4 1F2003D5 		.p2align 4,,15
 8659      1F2003D5 
 8659      1F2003D5 
 8660              		.global	HIDReadReport
 8661              		.type	HIDReadReport, %function
 8662              	HIDReadReport:
 8663 76d0 FF8322D1 		sub	sp, sp, #2208
 8664 76d4 F35301A9 		stp	x19, x20, [sp, 16]
 8665 76d8 F4830291 		add	x20, sp, 160
 8666 76dc F55B02A9 		stp	x21, x22, [sp, 32]
 8667 76e0 131C0012 		and	w19, w0, 255
 8668 76e4 F76303A9 		stp	x23, x24, [sp, 48]
 8669 76e8 F50303AA 		mov	x21, x3
 8670 76ec 963C0012 		and	w22, w4, 65535
 8671 76f0 381C0012 		and	w24, w1, 255
 8672 76f4 573C0012 		and	w23, w2, 65535
 8673 76f8 01008052 		mov	w1, 0
 8674 76fc 028080D2 		mov	x2, 1024
 8675 7700 E00314AA 		mov	x0, x20
 8676 7704 FE3300F9 		str	x30, [sp, 96]
 8677 7708 00000094 		bl	memset
 8678 770c BF0200F1 		cmp	x21, 0
 8679 7710 C41A407A 		ccmp	w22, 0, 4, ne
 8680 7714 A0190054 		beq	.L1688
 8681 7718 60060051 		sub	w0, w19, #1
 8682 771c 011C0012 		and	w1, w0, 255
 8683 7720 3F7C0071 		cmp	w1, 31
 8684 7724 E8180054 		bhi	.L1690
 8685 7728 027C4093 		sxtw	x2, w0
 8686 772c 057F80D2 		mov	x5, 1016
 8687 7730 01000090 		adrp	x1, DeviceTable
AARCH64 GAS  C:\Users\ldebo\AppData\Local\Temp\ccfW7LPV.s 			page 154


 8688 7734 21000091 		add	x1, x1, :lo12:DeviceTable
 8689 7738 427C059B 		mul	x2, x2, x5
 8690 773c 2300028B 		add	x3, x1, x2
 8691 7740 64E843B9 		ldr	w4, [x3, 1000]
 8692 7744 E4170034 		cbz	w4, .L1690
 8693 7748 9F0C0071 		cmp	w4, 3
 8694 774c 61170054 		bne	.L1692
 8695 7750 66F841F9 		ldr	x6, [x3, 1008]
 8696 7754 261700B4 		cbz	x6, .L1692
 8697 7758 870080D2 		mov	x7, 4
 8698 775c D800388B 		add	x24, x6, x24, uxtb
 8699 7760 2600078B 		add	x6, x1, x7
 8700 7764 FF7B00B9 		str	wzr, [sp, 120]
 8701 7768 1F2003D5 		nop // between mem op and mult-accumulate
 8702 776c 001C259B 		smaddl	x0, w0, w5, x7
 8703 7770 F96B04A9 		stp	x25, x26, [sp, 64]
 8704 7774 85008052 		mov	w5, 4
 8705 7778 E5E70139 		strb	w5, [sp, 121]
 8706 777c 0000018B 		add	x0, x0, x1
 8707 7780 C76862B8 		ldr	w7, [x6, x2]
 8708 7784 E17B40B9 		ldr	w1, [sp, 120]
 8709 7788 26348052 		mov	w6, 417
 8710 778c 02000090 		adrp	x2, .LANCHOR1
 8711 7790 42004039 		ldrb	w2, [x2, #:lo12:.LANCHOR1]
 8712 7794 1A0C4039 		ldrb	w26, [x0, 3]
 8713 7798 FC2F00F9 		str	x28, [sp, 88]
 8714 779c 1C044039 		ldrb	w28, [x0, 1]
 8715 77a0 63104039 		ldrb	w3, [x3, 4]
 8716 77a4 05934039 		ldrb	w5, [x24, 36]
 8717 77a8 5F001C6B 		cmp	w2, w28
 8718 77ac E78300B9 		str	w7, [sp, 128]
 8719 77b0 79040012 		and	w25, w3, 3
 8720 77b4 E18B00B9 		str	w1, [sp, 136]
 8721 77b8 E6330179 		strh	w6, [sp, 152]
 8722 77bc F7370179 		strh	w23, [sp, 154]
 8723 77c0 770C42D3 		ubfx	x23, x3, 2, 2
 8724 77c4 E53B0179 		strh	w5, [sp, 156]
 8725 77c8 F63F0179 		strh	w22, [sp, 158]
 8726 77cc 18084039 		ldrb	w24, [x0, 2]
 8727 77d0 800B0054 		beq	.L1707
 8728 77d4 E19300B9 		str	w1, [sp, 144]
 8729 77d8 03018052 		mov	w3, 8
 8730 77dc FC070239 		strb	w28, [sp, 129]
 8731 77e0 E2630291 		add	x2, sp, 152
 8732 77e4 E1474239 		ldrb	w1, [sp, 145]
 8733 77e8 F80B0239 		strb	w24, [sp, 130]
 8734 77ec 21781D12 		and	w1, w1, -5
 8735 77f0 FA0F0239 		strb	w26, [sp, 131]
 8736 77f4 E1470239 		strb	w1, [sp, 145]
 8737 77f8 E04340F9 		ldr	x0, [sp, 128]
 8738 77fc E14B40F9 		ldr	x1, [sp, 144]
 8739 7800 00000094 		bl	HCDChannelTransfer
 8740 7804 A00E0035 		cbnz	w0, .L1708
 8741 7808 E0274239 		ldrb	w0, [sp, 137]
 8742 780c FB2B00F9 		str	x27, [sp, 80]
 8743 7810 C00A1037 		tbnz	x0, 2, .L1678
 8744 7814 FB831291 		add	x27, sp, 1184
AARCH64 GAS  C:\Users\ldebo\AppData\Local\Temp\ccfW7LPV.s 			page 155


 8745 7818 000080D2 		mov	x0, 0
 8746 781c C2060051 		sub	w2, w22, #1
 8747 7820 01008052 		mov	w1, 0
 8748 7824 42040091 		add	x2, x2, 1
 8749 7828 616B2038 		strb	w1, [x27, x0]
 8750 782c 00040091 		add	x0, x0, 1
 8751 7830 5F0000EB 		cmp	x2, x0
 8752 7834 C0000054 		beq	.L1679
 8753              		.p2align 3
 8754              	.L1709:
 8755 7838 816A6038 		ldrb	w1, [x20, x0]
 8756 783c 616B2038 		strb	w1, [x27, x0]
 8757 7840 00040091 		add	x0, x0, 1
 8758 7844 5F0000EB 		cmp	x2, x0
 8759 7848 81FFFF54 		bne	.L1709
 8760              	.L1679:
 8761 784c E1474239 		ldrb	w1, [sp, 145]
 8762 7850 44008052 		mov	w4, 2
 8763 7854 E04340F9 		ldr	x0, [sp, 128]
 8764 7858 E303162A 		mov	w3, w22
 8765 785c 21001E32 		orr	w1, w1, 4
 8766 7860 E1470239 		strb	w1, [sp, 145]
 8767 7864 E2031BAA 		mov	x2, x27
 8768 7868 F303162A 		mov	w19, w22
 8769 786c E14B40F9 		ldr	x1, [sp, 144]
 8770 7870 00000094 		bl	HCDChannelTransfer
 8771 7874 A00C0035 		cbnz	w0, .L1684
 8772              	.L1681:
 8773 7878 E1274239 		ldrb	w1, [sp, 137]
 8774 787c 44008052 		mov	w4, 2
 8775 7880 E0034239 		ldrb	w0, [sp, 128]
 8776 7884 21001E32 		orr	w1, w1, 4
 8777 7888 E3474239 		ldrb	w3, [sp, 145]
 8778 788c 22007ED2 		eor	x2, x1, 4
 8779 7890 FC070239 		strb	w28, [sp, 129]
 8780 7894 20070033 		bfi	w0, w25, 0, 2
 8781 7898 F80B0239 		strb	w24, [sp, 130]
 8782 789c 420842D3 		ubfx	x2, x2, 2, 1
 8783 78a0 FA0F0239 		strb	w26, [sp, 131]
 8784 78a4 E0061E33 		bfi	w0, w23, 2, 2
 8785 78a8 E0030239 		strb	w0, [sp, 128]
 8786 78ac 43001E33 		bfi	w3, w2, 2, 1
 8787 78b0 E3470239 		strb	w3, [sp, 145]
 8788 78b4 E1270239 		strb	w1, [sp, 137]
 8789 78b8 03008052 		mov	w3, 0
 8790 78bc E04340F9 		ldr	x0, [sp, 128]
 8791 78c0 E2031BAA 		mov	x2, x27
 8792 78c4 E14B40F9 		ldr	x1, [sp, 144]
 8793 78c8 00000094 		bl	HCDChannelTransfer
 8794 78cc A00A0035 		cbnz	w0, .L1710
 8795 78d0 00000090 		adrp	x0, RPi_IO_Base_Addr
 8796 78d4 000040B9 		ldr	w0, [x0, #:lo12:RPi_IO_Base_Addr]
 8797 78d8 DF02136B 		cmp	w22, w19
 8798 78dc 00006611 		add	w0, w0, 9961472
 8799 78e0 D692931A 		csel	w22, w22, w19, ls
 8800 78e4 00001411 		add	w0, w0, 1280
 8801 78e8 001040B9 		ldr	w0, [x0, 16]
AARCH64 GAS  C:\Users\ldebo\AppData\Local\Temp\ccfW7LPV.s 			page 156


 8802 78ec 56010034 		cbz	w22, .L1706
 8803 78f0 D6060051 		sub	w22, w22, #1
 8804 78f4 000080D2 		mov	x0, 0
 8805 78f8 C2060091 		add	x2, x22, 1
 8806 78fc 1F2003D5 		.p2align 3
 8807              	.L1683:
 8808 7900 816A6038 		ldrb	w1, [x20, x0]
 8809 7904 A16A2038 		strb	w1, [x21, x0]
 8810 7908 00040091 		add	x0, x0, 1
 8811 790c 1F0002EB 		cmp	x0, x2
 8812 7910 81FFFF54 		bne	.L1683
 8813              	.L1706:
 8814 7914 FB2B40F9 		ldr	x27, [sp, 80]
 8815              	.L1677:
 8816 7918 F96B44A9 		ldp	x25, x26, [sp, 64]
 8817 791c 00008052 		mov	w0, 0
 8818 7920 FC2F40F9 		ldr	x28, [sp, 88]
 8819              	.L1673:
 8820 7924 F35341A9 		ldp	x19, x20, [sp, 16]
 8821 7928 F55B42A9 		ldp	x21, x22, [sp, 32]
 8822 792c F76343A9 		ldp	x23, x24, [sp, 48]
 8823 7930 FE3340F9 		ldr	x30, [sp, 96]
 8824 7934 FF832291 		add	sp, sp, 2208
 8825 7938 C0035FD6 		ret
 8826 793c 1F2003D5 		.p2align 3
 8827              	.L1707:
 8828 7940 F35341A9 		ldp	x19, x20, [sp, 16]
 8829 7944 20008012 		mov	w0, -2
 8830 7948 F55B42A9 		ldp	x21, x22, [sp, 32]
 8831 794c F76343A9 		ldp	x23, x24, [sp, 48]
 8832 7950 F96B44A9 		ldp	x25, x26, [sp, 64]
 8833 7954 FC2F40F9 		ldr	x28, [sp, 88]
 8834 7958 FE3340F9 		ldr	x30, [sp, 96]
 8835 795c FF832291 		add	sp, sp, 2208
 8836 7960 C0035FD6 		ret
 8837 7964 1F2003D5 		.p2align 3
 8838              	.L1678:
 8839 7968 E1474239 		ldrb	w1, [sp, 145]
 8840 796c FB831291 		add	x27, sp, 1184
 8841 7970 E04340F9 		ldr	x0, [sp, 128]
 8842 7974 44008052 		mov	w4, 2
 8843 7978 21001E32 		orr	w1, w1, 4
 8844 797c E1470239 		strb	w1, [sp, 145]
 8845 7980 E303162A 		mov	w3, w22
 8846 7984 E2031BAA 		mov	x2, x27
 8847 7988 E14B40F9 		ldr	x1, [sp, 144]
 8848 798c 00000094 		bl	HCDChannelTransfer
 8849 7990 C0030035 		cbnz	w0, .L1684
 8850 7994 00000090 		adrp	x0, RPi_IO_Base_Addr
 8851 7998 000040B9 		ldr	w0, [x0, #:lo12:RPi_IO_Base_Addr]
 8852 799c 00006611 		add	w0, w0, 9961472
 8853 79a0 00001411 		add	w0, w0, 1280
 8854 79a4 131040B9 		ldr	w19, [x0, 16]
 8855 79a8 734A40D3 		ubfx	x19, x19, 0, 19
 8856 79ac D302136B 		subs	w19, w22, w19
 8857 79b0 40F6FF54 		beq	.L1681
 8858 79b4 62060051 		sub	w2, w19, #1
AARCH64 GAS  C:\Users\ldebo\AppData\Local\Temp\ccfW7LPV.s 			page 157


 8859 79b8 000080D2 		mov	x0, 0
 8860 79bc 42040091 		add	x2, x2, 1
 8861              		.p2align 3
 8862              	.L1682:
 8863 79c0 616B6038 		ldrb	w1, [x27, x0]
 8864 79c4 816A2038 		strb	w1, [x20, x0]
 8865 79c8 00040091 		add	x0, x0, 1
 8866 79cc 5F0000EB 		cmp	x2, x0
 8867 79d0 81FFFF54 		bne	.L1682
 8868 79d4 A9FFFF17 		b	.L1681
 8869              		.p2align 3
 8870              	.L1708:
 8871 79d8 E3634239 		ldrb	w3, [sp, 152]
 8872 79dc E7031A2A 		mov	w7, w26
 8873 79e0 E2674239 		ldrb	w2, [sp, 153]
 8874 79e4 E603182A 		mov	w6, w24
 8875 79e8 E00300B9 		str	w0, [sp]
 8876 79ec E503192A 		mov	w5, w25
 8877 79f0 E403172A 		mov	w4, w23
 8878 79f4 E1031C2A 		mov	w1, w28
 8879 79f8 00000090 		adrp	x0, .LC10
 8880 79fc 00000091 		add	x0, x0, :lo12:.LC10
 8881 7a00 00000094 		bl	printf
 8882 7a04 C5FFFF17 		b	.L1677
 8883              		.p2align 3
 8884              	.L1684:
 8885 7a08 00000090 		adrp	x0, .LC12
 8886 7a0c E1031C2A 		mov	w1, w28
 8887 7a10 00000091 		add	x0, x0, :lo12:.LC12
 8888 7a14 00000094 		bl	printf
 8889 7a18 FB2B40F9 		ldr	x27, [sp, 80]
 8890 7a1c BFFFFF17 		b	.L1677
 8891              		.p2align 3
 8892              	.L1710:
 8893 7a20 00000090 		adrp	x0, .LC11
 8894 7a24 E1031C2A 		mov	w1, w28
 8895 7a28 00000091 		add	x0, x0, :lo12:.LC11
 8896 7a2c 00000094 		bl	printf
 8897 7a30 FB2B40F9 		ldr	x27, [sp, 80]
 8898 7a34 B9FFFF17 		b	.L1677
 8899              		.p2align 3
 8900              	.L1692:
 8901 7a38 C0018012 		mov	w0, -15
 8902 7a3c BAFFFF17 		b	.L1673
 8903              		.p2align 3
 8904              	.L1690:
 8905 7a40 60018012 		mov	w0, -12
 8906 7a44 B8FFFF17 		b	.L1673
 8907              	.L1688:
 8908 7a48 20008012 		mov	w0, -2
 8909 7a4c B6FFFF17 		b	.L1673
 8910              		.size	HIDReadReport, .-HIDReadReport
 8911              		.align	2
 8912              		.p2align 4,,15
 8913              		.global	HIDWriteReport
 8914              		.type	HIDWriteReport, %function
 8915              	HIDWriteReport:
AARCH64 GAS  C:\Users\ldebo\AppData\Local\Temp\ccfW7LPV.s 			page 158


 8916 7a50 FF4322D1 		sub	sp, sp, #2192
 8917 7a54 7F0000F1 		cmp	x3, 0
 8918 7a58 F35301A9 		stp	x19, x20, [sp, 16]
 8919 7a5c F51300F9 		str	x21, [sp, 32]
 8920 7a60 953C0012 		and	w21, w4, 65535
 8921 7a64 FE2B00F9 		str	x30, [sp, 80]
 8922 7a68 A41A407A 		ccmp	w21, 0, 4, ne
 8923 7a6c 00130054 		beq	.L1720
 8924 7a70 001C0012 		and	w0, w0, 255
 8925 7a74 00040051 		sub	w0, w0, #1
 8926 7a78 041C0012 		and	w4, w0, 255
 8927 7a7c 9F7C0071 		cmp	w4, 31
 8928 7a80 28120054 		bhi	.L1722
 8929 7a84 07000090 		adrp	x7, DeviceTable
 8930 7a88 E5000091 		add	x5, x7, :lo12:DeviceTable
 8931 7a8c 087C4093 		sxtw	x8, w0
 8932 7a90 047F80D2 		mov	x4, 1016
 8933 7a94 0415049B 		madd	x4, x8, x4, x5
 8934 7a98 85E843B9 		ldr	w5, [x4, 1000]
 8935 7a9c 45110034 		cbz	w5, .L1722
 8936 7aa0 BF0C0071 		cmp	w5, 3
 8937 7aa4 C1100054 		bne	.L1724
 8938 7aa8 89F841F9 		ldr	x9, [x4, 1008]
 8939 7aac 891000B4 		cbz	x9, .L1724
 8940 7ab0 A6060051 		sub	w6, w21, #1
 8941 7ab4 211C0012 		and	w1, w1, 255
 8942 7ab8 F40306AA 		mov	x20, x6
 8943 7abc 423C0012 		and	w2, w2, 65535
 8944 7ac0 F3430291 		add	x19, sp, 144
 8945 7ac4 C6040091 		add	x6, x6, 1
 8946 7ac8 F6DF02A9 		stp	x22, x23, [sp, 40]
 8947 7acc 040080D2 		mov	x4, 0
 8948 7ad0 F8E703A9 		stp	x24, x25, [sp, 56]
 8949 7ad4 FA2700F9 		str	x26, [sp, 72]
 8950              		.p2align 3
 8951              	.L1713:
 8952 7ad8 65686438 		ldrb	w5, [x3, x4]
 8953 7adc 656A2438 		strb	w5, [x19, x4]
 8954 7ae0 84040091 		add	x4, x4, 1
 8955 7ae4 DF0004EB 		cmp	x6, x4
 8956 7ae8 81FFFF54 		bne	.L1713
 8957 7aec 047F80D2 		mov	x4, 1016
 8958 7af0 850080D2 		mov	x5, 4
 8959 7af4 E3000091 		add	x3, x7, :lo12:DeviceTable
 8960 7af8 2101218B 		add	x1, x9, x1, uxtb
 8961 7afc 087D049B 		mul	x8, x8, x4
 8962 7b00 6600058B 		add	x6, x3, x5
 8963 7b04 0014249B 		smaddl	x0, w0, w4, x5
 8964 7b08 25248152 		mov	w5, 2337
 8965 7b0c 6700088B 		add	x7, x3, x8
 8966 7b10 24904039 		ldrb	w4, [x1, 36]
 8967 7b14 0000038B 		add	x0, x0, x3
 8968 7b18 01000090 		adrp	x1, .LANCHOR1
 8969 7b1c 23004039 		ldrb	w3, [x1, #:lo12:.LANCHOR1]
 8970 7b20 C66868B8 		ldr	w6, [x6, x8]
 8971 7b24 E1104039 		ldrb	w1, [x7, 4]
 8972 7b28 17044039 		ldrb	w23, [x0, 1]
AARCH64 GAS  C:\Users\ldebo\AppData\Local\Temp\ccfW7LPV.s 			page 159


 8973 7b2c FF6B00B9 		str	wzr, [sp, 104]
 8974 7b30 38040012 		and	w24, w1, 3
 8975 7b34 E67300B9 		str	w6, [sp, 112]
 8976 7b38 360C42D3 		ubfx	x22, x1, 2, 2
 8977 7b3c FF7B00B9 		str	wzr, [sp, 120]
 8978 7b40 7F00176B 		cmp	w3, w23
 8979 7b44 E5130179 		strh	w5, [sp, 136]
 8980 7b48 E2170179 		strh	w2, [sp, 138]
 8981 7b4c E41B0179 		strh	w4, [sp, 140]
 8982 7b50 F51F0179 		strh	w21, [sp, 142]
 8983 7b54 19084039 		ldrb	w25, [x0, 2]
 8984 7b58 1A0C4039 		ldrb	w26, [x0, 3]
 8985 7b5c A0070054 		beq	.L1715
 8986 7b60 E0C34139 		ldrb	w0, [sp, 112]
 8987 7b64 64008052 		mov	w4, 3
 8988 7b68 F7C70139 		strb	w23, [sp, 113]
 8989 7b6c 03018052 		mov	w3, 8
 8990 7b70 F9CB0139 		strb	w25, [sp, 114]
 8991 7b74 E2230291 		add	x2, sp, 136
 8992 7b78 00070033 		bfi	w0, w24, 0, 2
 8993 7b7c FACF0139 		strb	w26, [sp, 115]
 8994 7b80 FF8300B9 		str	wzr, [sp, 128]
 8995 7b84 C0061E33 		bfi	w0, w22, 2, 2
 8996 7b88 E0C30139 		strb	w0, [sp, 112]
 8997 7b8c E14340F9 		ldr	x1, [sp, 128]
 8998 7b90 E03B40F9 		ldr	x0, [sp, 112]
 8999 7b94 00000094 		bl	HCDChannelTransfer
 9000 7b98 00070035 		cbnz	w0, .L1716
 9001 7b9c 94060091 		add	x20, x20, 1
 9002 7ba0 F6431291 		add	x22, sp, 1168
 9003 7ba4 000080D2 		mov	x0, 0
 9004              	.L1717:
 9005 7ba8 616A6038 		ldrb	w1, [x19, x0]
 9006 7bac C16A2038 		strb	w1, [x22, x0]
 9007 7bb0 00040091 		add	x0, x0, 1
 9008 7bb4 9F0200EB 		cmp	x20, x0
 9009 7bb8 81FFFF54 		bne	.L1717
 9010 7bbc E03B40F9 		ldr	x0, [sp, 112]
 9011 7bc0 44008052 		mov	w4, 2
 9012 7bc4 E14340F9 		ldr	x1, [sp, 128]
 9013 7bc8 E303152A 		mov	w3, w21
 9014 7bcc E20316AA 		mov	x2, x22
 9015 7bd0 00000094 		bl	HCDChannelTransfer
 9016 7bd4 60030035 		cbnz	w0, .L1728
 9017 7bd8 E1E74139 		ldrb	w1, [sp, 121]
 9018 7bdc 44008052 		mov	w4, 2
 9019 7be0 E5074239 		ldrb	w5, [sp, 129]
 9020 7be4 03008052 		mov	w3, 0
 9021 7be8 21007ED2 		eor	x1, x1, 4
 9022 7bec E03B40F9 		ldr	x0, [sp, 112]
 9023 7bf0 E20316AA 		mov	x2, x22
 9024 7bf4 210842D3 		ubfx	x1, x1, 2, 1
 9025 7bf8 25001E33 		bfi	w5, w1, 2, 1
 9026 7bfc E5070239 		strb	w5, [sp, 129]
 9027 7c00 E14340F9 		ldr	x1, [sp, 128]
 9028 7c04 00000094 		bl	HCDChannelTransfer
 9029 7c08 00050035 		cbnz	w0, .L1729
AARCH64 GAS  C:\Users\ldebo\AppData\Local\Temp\ccfW7LPV.s 			page 160


 9030 7c0c 01000090 		adrp	x1, RPi_IO_Base_Addr
 9031 7c10 210040B9 		ldr	w1, [x1, #:lo12:RPi_IO_Base_Addr]
 9032 7c14 F35341A9 		ldp	x19, x20, [sp, 16]
 9033 7c18 21006611 		add	w1, w1, 9961472
 9034 7c1c 21001411 		add	w1, w1, 1280
 9035 7c20 F51340F9 		ldr	x21, [sp, 32]
 9036 7c24 F6DF42A9 		ldp	x22, x23, [sp, 40]
 9037 7c28 F8E743A9 		ldp	x24, x25, [sp, 56]
 9038 7c2c FA2740F9 		ldr	x26, [sp, 72]
 9039 7c30 FE2B40F9 		ldr	x30, [sp, 80]
 9040 7c34 211040B9 		ldr	w1, [x1, 16]
 9041 7c38 FF432291 		add	sp, sp, 2192
 9042 7c3c C0035FD6 		ret
 9043              		.p2align 3
 9044              	.L1728:
 9045 7c40 00000090 		adrp	x0, .LC12
 9046 7c44 E103172A 		mov	w1, w23
 9047 7c48 00000091 		add	x0, x0, :lo12:.LC12
 9048 7c4c 00000094 		bl	printf
 9049              		.p2align 3
 9050              	.L1715:
 9051 7c50 F6DF42A9 		ldp	x22, x23, [sp, 40]
 9052 7c54 00008012 		mov	w0, -1
 9053 7c58 F8E743A9 		ldp	x24, x25, [sp, 56]
 9054 7c5c FA2740F9 		ldr	x26, [sp, 72]
 9055              	.L1711:
 9056 7c60 F35341A9 		ldp	x19, x20, [sp, 16]
 9057 7c64 F51340F9 		ldr	x21, [sp, 32]
 9058 7c68 FE2B40F9 		ldr	x30, [sp, 80]
 9059 7c6c FF432291 		add	sp, sp, 2192
 9060 7c70 C0035FD6 		ret
 9061 7c74 1F2003D5 		.p2align 3
 9062              	.L1716:
 9063 7c78 E3234239 		ldrb	w3, [sp, 136]
 9064 7c7c E7031A2A 		mov	w7, w26
 9065 7c80 E2274239 		ldrb	w2, [sp, 137]
 9066 7c84 E603192A 		mov	w6, w25
 9067 7c88 E00300B9 		str	w0, [sp]
 9068 7c8c E503182A 		mov	w5, w24
 9069 7c90 E403162A 		mov	w4, w22
 9070 7c94 E103172A 		mov	w1, w23
 9071 7c98 00000090 		adrp	x0, .LC10
 9072 7c9c 00000091 		add	x0, x0, :lo12:.LC10
 9073 7ca0 00000094 		bl	printf
 9074 7ca4 EBFFFF17 		b	.L1715
 9075              		.p2align 3
 9076              	.L1729:
 9077 7ca8 00000090 		adrp	x0, .LC11
 9078 7cac E103172A 		mov	w1, w23
 9079 7cb0 00000091 		add	x0, x0, :lo12:.LC11
 9080 7cb4 00000094 		bl	printf
 9081 7cb8 E6FFFF17 		b	.L1715
 9082              	.L1724:
 9083 7cbc C0018012 		mov	w0, -15
 9084 7cc0 E8FFFF17 		b	.L1711
 9085              	.L1722:
 9086 7cc4 60018012 		mov	w0, -12
AARCH64 GAS  C:\Users\ldebo\AppData\Local\Temp\ccfW7LPV.s 			page 161


 9087 7cc8 E6FFFF17 		b	.L1711
 9088              	.L1720:
 9089 7ccc 20008012 		mov	w0, -2
 9090 7cd0 E4FFFF17 		b	.L1711
 9091              		.size	HIDWriteReport, .-HIDWriteReport
 9092              		.align	2
 9093 7cd4 1F2003D5 		.p2align 4,,15
 9093      1F2003D5 
 9093      1F2003D5 
 9094              		.global	HIDSetProtocol
 9095              		.type	HIDSetProtocol, %function
 9096              	HIDSetProtocol:
 9097 7ce0 001C0012 		and	w0, w0, 255
 9098 7ce4 261C0012 		and	w6, w1, 255
 9099 7ce8 00040051 		sub	w0, w0, #1
 9100 7cec 011C0012 		and	w1, w0, 255
 9101 7cf0 3F7C0071 		cmp	w1, 31
 9102 7cf4 E8030054 		bhi	.L1733
 9103 7cf8 037C4093 		sxtw	x3, w0
 9104 7cfc 01000090 		adrp	x1, DeviceTable
 9105 7d00 21000091 		add	x1, x1, :lo12:DeviceTable
 9106 7d04 057F80D2 		mov	x5, 1016
 9107 7d08 047F8052 		mov	w4, 1016
 9108 7d0c 6304059B 		madd	x3, x3, x5, x1
 9109 7d10 0004249B 		smaddl	x0, w0, w4, x1
 9110 7d14 61E843B9 		ldr	w1, [x3, 1000]
 9111 7d18 C1020034 		cbz	w1, .L1733
 9112 7d1c 3F0C0071 		cmp	w1, 3
 9113 7d20 41020054 		bne	.L1735
 9114 7d24 61F841F9 		ldr	x1, [x3, 1008]
 9115 7d28 010200B4 		cbz	x1, .L1735
 9116 7d2c FE0F1EF8 		str	x30, [sp, -32]!
 9117 7d30 23648152 		mov	w3, 2849
 9118 7d34 423C0012 		and	w2, w2, 65535
 9119 7d38 FF1300B9 		str	wzr, [sp, 16]
 9120 7d3c 000440B9 		ldr	w0, [x0, 4]
 9121 7d40 E10B40F9 		ldr	x1, [sp, 16]
 9122 7d44 E3330079 		strh	w3, [sp, 24]
 9123 7d48 E2370079 		strh	w2, [sp, 26]
 9124 7d4c E2630091 		add	x2, sp, 24
 9125 7d50 E63B0079 		strh	w6, [sp, 28]
 9126 7d54 FF3F0079 		strh	wzr, [sp, 30]
 9127 7d58 56E6FF97 		bl	HCDSumbitControlMessage.constprop.13
 9128 7d5c FE0742F8 		ldr	x30, [sp], 32
 9129 7d60 C0035FD6 		ret
 9130 7d64 1F2003D5 		.p2align 3
 9131              	.L1735:
 9132 7d68 C0018012 		mov	w0, -15
 9133 7d6c C0035FD6 		ret
 9134              		.p2align 3
 9135              	.L1733:
 9136 7d70 60018012 		mov	w0, -12
 9137 7d74 C0035FD6 		ret
 9138              		.size	HIDSetProtocol, .-HIDSetProtocol
 9139              		.global	SpeedString
 9140              		.global	RootHubDescriptor
 9141              		.global	RootHubString2
AARCH64 GAS  C:\Users\ldebo\AppData\Local\Temp\ccfW7LPV.s 			page 162


 9142              		.global	RootHubString1
 9143              		.global	RootHubString0
 9144              		.global	RootHubConfigurationDescriptor
 9145              		.global	RootHubDeviceDescriptor
 9146              		.global	HidTable
 9147              		.global	HubTable
 9148              		.global	DeviceTable
 9149              		.global	RootHubDeviceNumber
 9150              		.global	PhyInitialised
 9151              		.comm	__errno,4,4
 9152              		.section	.rodata
 9153              		.align	3
 9154              		.set	.LANCHOR2,. + 0
 9155              	.LC32:
 9156 0000 4E657720 		.string	"New Device (Not Ready)"
 9156      44657669 
 9156      63652028 
 9156      4E6F7420 
 9156      52656164 
 9157 0017 00       		.string	""
 9158              	.LC33:
 9159 0018 556E6B6E 		.string	"Unknown Device (Not Ready)"
 9159      6F776E20 
 9159      44657669 
 9159      63652028 
 9159      4E6F7420 
 9160 0033 00       		.string	""
 9161 0034 00000000 		.zero	4
 9162              	.LC34:
 9163 0038 55534220 		.string	"USB Root Hub"
 9163      526F6F74 
 9163      20487562 
 9163      00
 9164 0045 00       		.string	""
 9165 0046 0000     		.zero	2
 9166              	.LC35:
 9167 0048 55534220 		.string	"USB 2.1 Hub"
 9167      322E3120 
 9167      48756200 
 9168 0054 00       		.string	""
 9169 0055 000000   		.zero	3
 9170              	.LC36:
 9171 0058 55534220 		.string	"USB 2.0 Hub"
 9171      322E3020 
 9171      48756200 
 9172 0064 00       		.string	""
 9173 0065 000000   		.zero	3
 9174              	.LC37:
 9175 0068 55534220 		.string	"USB 1.1 Hub"
 9175      312E3120 
 9175      48756200 
 9176 0074 00       		.string	""
 9177 0075 000000   		.zero	3
 9178              	.LC38:
 9179 0078 55534220 		.string	"USB 1.0 Hub"
 9179      312E3020 
 9179      48756200 
AARCH64 GAS  C:\Users\ldebo\AppData\Local\Temp\ccfW7LPV.s 			page 163


 9180 0084 00       		.string	""
 9181 0085 000000   		.zero	3
 9182              	.LC39:
 9183 0088 55534220 		.string	"USB Hub"
 9183      48756200 
 9184 0090 00       		.string	""
 9185 0091 00000000 		.zero	7
 9185      000000
 9186              	.LC40:
 9187 0098 534D5343 		.string	"SMSC LAN9512"
 9187      204C414E 
 9187      39353132 
 9187      00
 9188 00a5 00       		.string	""
 9189 00a6 0000     		.zero	2
 9190              	.LC41:
 9191 00a8 55534220 		.string	"USB CDC Device"
 9191      43444320 
 9191      44657669 
 9191      636500
 9192 00b7 00       		.string	""
 9193              	.LC42:
 9194 00b8 56656E64 		.string	"Vendor Specific"
 9194      6F722053 
 9194      70656369 
 9194      66696300 
 9195 00c8 00       		.string	""
 9196 00c9 00000000 		.zero	7
 9196      000000
 9197              	.LC43:
 9198 00d0 556E636F 		.string	"Unconfigured Device"
 9198      6E666967 
 9198      75726564 
 9198      20446576 
 9198      69636500 
 9199 00e4 00       		.string	""
 9200 00e5 000000   		.zero	3
 9201              	.LC44:
 9202 00e8 55534220 		.string	"USB Printer"
 9202      5072696E 
 9202      74657200 
 9203 00f4 00       		.string	""
 9204 00f5 000000   		.zero	3
 9205              	.LC45:
 9206 00f8 55534220 		.string	"USB Audio Device"
 9206      41756469 
 9206      6F204465 
 9206      76696365 
 9206      00
 9207 0109 00       		.string	""
 9208 010a 00000000 		.zero	6
 9208      0000
 9209              	.LC46:
 9210 0110 47656E65 		.string	"Generic Device"
 9210      72696320 
 9210      44657669 
 9210      636500
AARCH64 GAS  C:\Users\ldebo\AppData\Local\Temp\ccfW7LPV.s 			page 164


 9211 011f 00       		.string	""
 9212              	.LC47:
 9213 0120 55534220 		.string	"USB Miscellaneous Device"
 9213      4D697363 
 9213      656C6C61 
 9213      6E656F75 
 9213      73204465 
 9214 0139 00       		.string	""
 9215 013a 00000000 		.zero	6
 9215      0000
 9216              	.LC48:
 9217 0140 55534220 		.string	"USB Wireless Controller"
 9217      57697265 
 9217      6C657373 
 9217      20436F6E 
 9217      74726F6C 
 9218 0158 00       		.string	""
 9219 0159 00000000 		.zero	7
 9219      000000
 9220              	.LC49:
 9221 0160 55534220 		.string	"USB Diagnostic Device"
 9221      44696167 
 9221      6E6F7374 
 9221      69632044 
 9221      65766963 
 9222 0176 00       		.string	""
 9223 0177 00       		.zero	1
 9224              	.LC50:
 9225 0178 55534220 		.string	"USB AV Device"
 9225      41562044 
 9225      65766963 
 9225      6500
 9226 0186 00       		.string	""
 9227 0187 00       		.zero	1
 9228              	.LC51:
 9229 0188 55534220 		.string	"USB Healthcare Device"
 9229      4865616C 
 9229      74686361 
 9229      72652044 
 9229      65766963 
 9230 019e 00       		.string	""
 9231 019f 00       		.zero	1
 9232              	.LC52:
 9233 01a0 55534220 		.string	"USB Video Device"
 9233      56696465 
 9233      6F204465 
 9233      76696365 
 9233      00
 9234 01b1 00       		.string	""
 9235 01b2 00000000 		.zero	6
 9235      0000
 9236              	.LC53:
 9237 01b8 55534220 		.string	"USB Content Secuity Device"
 9237      436F6E74 
 9237      656E7420 
 9237      53656375 
 9237      69747920 
AARCH64 GAS  C:\Users\ldebo\AppData\Local\Temp\ccfW7LPV.s 			page 165


 9238 01d3 00       		.string	""
 9239 01d4 00000000 		.zero	4
 9240              	.LC54:
 9241 01d8 55534220 		.string	"USB Smart Card"
 9241      536D6172 
 9241      74204361 
 9241      726400
 9242 01e7 00       		.string	""
 9243              	.LC55:
 9244 01e8 55534220 		.string	"USB CDC-Data Device"
 9244      4344432D 
 9244      44617461 
 9244      20446576 
 9244      69636500 
 9245 01fc 00       		.string	""
 9246 01fd 000000   		.zero	3
 9247              	.LC56:
 9248 0200 55534220 		.string	"USB Keyboard"
 9248      4B657962 
 9248      6F617264 
 9248      00
 9249 020d 00       		.string	""
 9250 020e 0000     		.zero	2
 9251              	.LC57:
 9252 0210 55534220 		.string	"USB Imaging Device"
 9252      496D6167 
 9252      696E6720 
 9252      44657669 
 9252      636500
 9253 0223 00       		.string	""
 9254 0224 00000000 		.zero	4
 9255              	.LC58:
 9256 0228 55534220 		.string	"USB Physical Device"
 9256      50687973 
 9256      6963616C 
 9256      20446576 
 9256      69636500 
 9257 023c 00       		.string	""
 9258 023d 000000   		.zero	3
 9259              	.LC59:
 9260 0240 55534220 		.string	"USB HID"
 9260      48494400 
 9261 0248 00       		.string	""
 9262 0249 00000000 		.zero	7
 9262      000000
 9263              	.LC60:
 9264 0250 55534220 		.string	"USB Mouse"
 9264      4D6F7573 
 9264      6500
 9265 025a 00       		.string	""
 9266 025b 00000000 		.zero	5
 9266      00
 9267              	.LC61:
 9268 0260 55534220 		.string	"USB Mass Storage Device"
 9268      4D617373 
 9268      2053746F 
 9268      72616765 
AARCH64 GAS  C:\Users\ldebo\AppData\Local\Temp\ccfW7LPV.s 			page 166


 9268      20446576 
 9269 0278 00       		.string	""
 9270              		.data
 9271              		.align	3
 9272              		.set	.LANCHOR0,. + 0
 9273              		.type	RootHubString0, %object
 9274              		.size	RootHubString0, 4
 9275              	RootHubString0:
 9276 0000 04       		.byte	4
 9277 0001 03       		.byte	3
 9278 0002 0904     		.hword	1033
 9279 0004 00000000 		.zero	4
 9280              		.type	RootHubString1, %object
 9281              		.size	RootHubString1, 42
 9282              	RootHubString1:
 9283 0008 2A       		.byte	42
 9284 0009 03       		.byte	3
 9285 000a 4600     		.string	"F"
 9286 000c 4100     		.string	"A"
 9287 000e 4B00     		.string	"K"
 9288 0010 4500     		.string	"E"
 9289 0012 4400     		.string	"D"
 9290 0014 2000     		.string	" "
 9291 0016 5200     		.string	"R"
 9292 0018 6F00     		.string	"o"
 9293 001a 6F00     		.string	"o"
 9294 001c 7400     		.string	"t"
 9295 001e 2000     		.string	" "
 9296 0020 4800     		.string	"H"
 9297 0022 7500     		.string	"u"
 9298 0024 6200     		.string	"b"
 9299 0026 2000     		.string	" "
 9300 0028 2800     		.string	"("
 9301 002a 7400     		.string	"t"
 9302 002c 6D00     		.string	"m"
 9303 002e 2900     		.string	")"
 9304 0030 00       		.string	""
 9305 0031 00       		.string	""
 9306 0032 00000000 		.zero	6
 9306      0000
 9307              		.type	RootHubConfigurationDescriptor, %object
 9308              		.size	RootHubConfigurationDescriptor, 25
 9309              	RootHubConfigurationDescriptor:
 9310 0038 09       		.byte	9
 9311 0039 02       		.byte	2
 9312 003a 1900     		.hword	25
 9313 003c 01       		.byte	1
 9314 003d 01       		.byte	1
 9315 003e 02       		.byte	2
 9316 003f C0       		.byte	192
 9317 0040 00       		.byte	0
 9318 0041 09       		.byte	9
 9319 0042 04       		.byte	4
 9320 0043 00       		.byte	0
 9321 0044 00       		.byte	0
 9322 0045 01       		.byte	1
 9323 0046 09       		.byte	9
AARCH64 GAS  C:\Users\ldebo\AppData\Local\Temp\ccfW7LPV.s 			page 167


 9324 0047 00       		.byte	0
 9325 0048 00       		.byte	0
 9326 0049 00       		.byte	0
 9327 004a 07       		.byte	7
 9328 004b 05       		.byte	5
 9329 004c 81       		.byte	129
 9330 004d 03       		.byte	3
 9331 004e 40       		.byte	64
 9332 004f 00       		.byte	0
 9333 0050 FF       		.byte	-1
 9334 0051 00000000 		.zero	7
 9334      000000
 9335              		.type	RootHubDeviceDescriptor, %object
 9336              		.size	RootHubDeviceDescriptor, 18
 9337              	RootHubDeviceDescriptor:
 9338 0058 12       		.byte	18
 9339 0059 01       		.byte	1
 9340 005a 0002     		.hword	512
 9341 005c 09       		.byte	9
 9342 005d 00       		.byte	0
 9343 005e 00       		.byte	0
 9344 005f 40       		.byte	64
 9345 0060 0000     		.hword	0
 9346 0062 0000     		.hword	0
 9347 0064 0001     		.hword	256
 9348 0066 00       		.byte	0
 9349 0067 01       		.byte	1
 9350 0068 00       		.byte	0
 9351 0069 01       		.byte	1
 9352 006a 00000000 		.zero	6
 9352      0000
 9353              		.type	RootHubString2, %object
 9354              		.size	RootHubString2, 40
 9355              	RootHubString2:
 9356 0070 28       		.byte	40
 9357 0071 03       		.byte	3
 9358 0072 4600     		.string	"F"
 9359 0074 4100     		.string	"A"
 9360 0076 4B00     		.string	"K"
 9361 0078 4500     		.string	"E"
 9362 007a 2000     		.string	" "
 9363 007c 6300     		.string	"c"
 9364 007e 6F00     		.string	"o"
 9365 0080 6E00     		.string	"n"
 9366 0082 6600     		.string	"f"
 9367 0084 6900     		.string	"i"
 9368 0086 6700     		.string	"g"
 9369 0088 2000     		.string	" "
 9370 008a 7300     		.string	"s"
 9371 008c 7400     		.string	"t"
 9372 008e 7200     		.string	"r"
 9373 0090 6900     		.string	"i"
 9374 0092 6E00     		.string	"n"
 9375 0094 6700     		.string	"g"
 9376 0096 00       		.string	""
 9377 0097 00       		.string	""
 9378              		.type	RootHubDescriptor, %object
AARCH64 GAS  C:\Users\ldebo\AppData\Local\Temp\ccfW7LPV.s 			page 168


 9379              		.size	RootHubDescriptor, 9
 9380              	RootHubDescriptor:
 9381 0098 09       		.byte	9
 9382 0099 29       		.byte	41
 9383 009a 01       		.byte	1
 9384 009b 00       		.byte	0
 9385 009c 00       		.zero	1
 9386 009d 00       		.byte	0
 9387 009e 00       		.byte	0
 9388 009f 02       		.byte	2
 9389 00a0 FF       		.byte	-1
 9390 00a1 00000000 		.zero	7
 9390      000000
 9391              		.type	SpeedString, %object
 9392              		.size	SpeedString, 24
 9393              	SpeedString:
 9394 00a8 00000000 		.xword	.LC109
 9394      00000000 
 9395 00b0 00000000 		.xword	.LC110
 9395      00000000 
 9396 00b8 00000000 		.xword	.LC111
 9396      00000000 
 9397              		.bss
 9398              		.align	3
 9399              		.set	.LANCHOR1,. + 0
 9400              		.type	RootHubDeviceNumber, %object
 9401              		.size	RootHubDeviceNumber, 1
 9402              	RootHubDeviceNumber:
 9403 0000 00       		.zero	1
 9404              		.type	PhyInitialised, %object
 9405              		.size	PhyInitialised, 1
 9406              	PhyInitialised:
 9407 0001 00       		.zero	1
 9408 0002 00000000 		.zero	6
 9408      0000
 9409              		.type	HidTable, %object
 9410              		.size	HidTable, 656
 9411              	HidTable:
 9412 0008 00000000 		.zero	656
 9412      00000000 
 9412      00000000 
 9412      00000000 
 9412      00000000 
 9413              		.type	HubTable, %object
 9414              		.size	HubTable, 1664
 9415              	HubTable:
 9416 0298 00000000 		.zero	1664
 9416      00000000 
 9416      00000000 
 9416      00000000 
 9416      00000000 
 9417              		.type	TreeLevelInUse, %object
 9418              		.size	TreeLevelInUse, 80
 9419              	TreeLevelInUse:
 9420 0918 00000000 		.zero	80
 9420      00000000 
 9420      00000000 
AARCH64 GAS  C:\Users\ldebo\AppData\Local\Temp\ccfW7LPV.s 			page 169


 9420      00000000 
 9420      00000000 
 9421              		.type	DeviceTable, %object
 9422              		.size	DeviceTable, 32512
 9423              	DeviceTable:
 9424 0968 00000000 		.zero	32512
 9424      00000000 
 9424      00000000 
 9424      00000000 
 9424      00000000 
 9425              		.section	.rodata.str1.8,"aMS",@progbits,1
 9426              		.align	3
 9427              	.LC1:
 9428 0000 50687973 		.string	"Physical host power off\n"
 9428      6963616C 
 9428      20686F73 
 9428      7420706F 
 9428      77657220 
 9429 0019 00000000 		.zero	7
 9429      000000
 9430              	.LC2:
 9431 0020 50687973 		.string	"Physical host power on\n"
 9431      6963616C 
 9431      20686F73 
 9431      7420706F 
 9431      77657220 
 9432              	.LC3:
 9433 0038 4843443A 		.string	"HCD: Unable to clear halt on channel %i.\n"
 9433      20556E61 
 9433      626C6520 
 9433      746F2063 
 9433      6C656172 
 9434 0062 00000000 		.zero	6
 9434      0000
 9435              	.LC4:
 9436 0068 46415441 		.string	"FATAL ERROR: Could not do a Master reset on HCD.\n"
 9436      4C204552 
 9436      524F523A 
 9436      20436F75 
 9436      6C64206E 
 9437 009a 00000000 		.zero	6
 9437      0000
 9438              	.LC5:
 9439 00a0 4843443A 		.string	"HCD: Channel %d is not available on this host.\n"
 9439      20436861 
 9439      6E6E656C 
 9439      20256420 
 9439      6973206E 
 9440              	.LC6:
 9441 00d0 4843443A 		.string	"HCD: Transfer buffer %08x is not DWORD aligned. Ignored, but dangerous.\n"
 9441      20547261 
 9441      6E736665 
 9441      72206275 
 9441      66666572 
 9442 0119 00000000 		.zero	7
 9442      000000
 9443              	.LC7:
AARCH64 GAS  C:\Users\ldebo\AppData\Local\Temp\ccfW7LPV.s 			page 170


 9444 0120 4843443A 		.string	"HCD: Request on channel %i has timed out.\n"
 9444      20526571 
 9444      75657374 
 9444      206F6E20 
 9444      6368616E 
 9445 014b 00000000 		.zero	5
 9445      00
 9446              	.LC8:
 9447 0150 52657375 		.string	"Result: %i Action: 0x%08x tempInt: 0x%08x tempSplit: 0x%08x Bytes sent: %i\n"
 9447      6C743A20 
 9447      25692041 
 9447      6374696F 
 9447      6E3A2030 
 9448 019c 00000000 		.zero	4
 9449              	.LC9:
 9450 01a0 4843443A 		.string	"HCD: Request split completion on channel:%i has timed out.\n"
 9450      20526571 
 9450      75657374 
 9450      2073706C 
 9450      69742063 
 9451 01dc 00000000 		.zero	4
 9452              	.LC10:
 9453 01e0 4843443A 		.string	"HCD: SETUP packet to device: %#x req: %#x req Type: %#x Speed: %i PacketSize: %i LowNode:
 9453      20534554 
 9453      55502070 
 9453      61636B65 
 9453      7420746F 
 9454 0254 00000000 		.zero	4
 9455              	.LC11:
 9456 0258 4843443A 		.string	"HCD: Could not transfer STATUS to device %i.\n"
 9456      20436F75 
 9456      6C64206E 
 9456      6F742074 
 9456      72616E73 
 9457 0286 0000     		.zero	2
 9458              	.LC12:
 9459 0288 4843443A 		.string	"HCD: Could not transfer DATA to device %i.\n"
 9459      20436F75 
 9459      6C64206E 
 9459      6F742074 
 9459      72616E73 
 9460 02b4 00000000 		.zero	4
 9461              	.LC13:
 9462 02b8 4843443A 		.string	"HCD: Failed to set configuration for device %i. RESULT %#x.\n"
 9462      20466169 
 9462      6C656420 
 9462      746F2073 
 9462      65742063 
 9463 02f5 000000   		.zero	3
 9464              	.LC14:
 9465 02f8 48434420 		.string	"HCD Hub read status failed on device: %i, port: %i, Result: %#x, Pipe Speed: %#x, Pipe Ma
 9465      48756220 
 9465      72656164 
 9465      20737461 
 9465      74757320 
 9466 035f 00       		.zero	1
 9467              	.LC15:
AARCH64 GAS  C:\Users\ldebo\AppData\Local\Temp\ccfW7LPV.s 			page 171


 9468 0360 4855423A 		.string	"HUB: Failed to read hub device:%i port:%i status\n"
 9468      20466169 
 9468      6C656420 
 9468      746F2072 
 9468      65616420 
 9469 0392 00000000 		.zero	6
 9469      0000
 9470              	.LC16:
 9471 0398 4855423A 		.string	"HUB: Failed to change port feature for device: %i, Port:%d feature:%d set:%d.\n"
 9471      20466169 
 9471      6C656420 
 9471      746F2063 
 9471      68616E67 
 9472 03e7 00       		.zero	1
 9473              	.LC17:
 9474 03e8 4843443A 		.string	"HCD: Hardware: %c%c%x.%x%x%x (BCM%.5x). Driver incompatible. Expected OT2.xxx (BCM2708x).
 9474      20486172 
 9474      64776172 
 9474      653A2025 
 9474      63256325 
 9475 0443 00000000 		.zero	5
 9475      00
 9476              	.LC18:
 9477 0448 4843443A 		.string	"HCD: Hardware: %c%c%x.%x%x%x (BCM%.5x).\n"
 9477      20486172 
 9477      64776172 
 9477      653A2025 
 9477      63256325 
 9478 0471 00000000 		.zero	7
 9478      000000
 9479              	.LC19:
 9480 0478 4843443A 		.string	"HCD: Host architecture does not support Internal DMA\n"
 9480      20486F73 
 9480      74206172 
 9480      63686974 
 9480      65637475 
 9481 04ae 0000     		.zero	2
 9482              	.LC20:
 9483 04b0 4843443A 		.string	"HCD: High speed physical unsupported\n"
 9483      20486967 
 9483      68207370 
 9483      65656420 
 9483      70687973 
 9484 04d6 0000     		.zero	2
 9485              	.LC21:
 9486 04d8 4843443A 		.string	"HCD: Failed to power on USB Host Controller.\n"
 9486      20466169 
 9486      6C656420 
 9486      746F2070 
 9486      6F776572 
 9487 0506 0000     		.zero	2
 9488              	.LC22:
 9489 0508 48494420 		.string	"HID details: Version: %4x, Language: %i Descriptions: %i, Type: %i, Protocol: %i, NumInte
 9489      64657461 
 9489      696C733A 
 9489      20566572 
 9489      73696F6E 
AARCH64 GAS  C:\Users\ldebo\AppData\Local\Temp\ccfW7LPV.s 			page 172


 9490 056c 00000000 		.zero	4
 9491              	.LC23:
 9492 0570 4843443A 		.string	"HCD: Failed to get descriptor %#x:%#x for device:%i. RESULT %d.\n"
 9492      20466169 
 9492      6C656420 
 9492      746F2067 
 9492      65742064 
 9493 05b1 00000000 		.zero	7
 9493      000000
 9494              	.LC24:
 9495 05b8 4843443A 		.string	"HCD: Fetch HID descriptor %i for device: %i failed.\n"
 9495      20466574 
 9495      63682048 
 9495      49442064 
 9495      65736372 
 9496 05ed 000000   		.zero	3
 9497              	.LC25:
 9498 05f0 4843443A 		.string	"HCD: Fail to get descriptor %#x:%#x recepient: %#x, device:%i. RESULT %#x.\n"
 9498      20466169 
 9498      6C20746F 
 9498      20676574 
 9498      20646573 
 9499 063c 00000000 		.zero	4
 9500              	.LC26:
 9501 0640 4843443A 		.string	"HCD: Could not read language support for device: %i\n"
 9501      20436F75 
 9501      6C64206E 
 9501      6F742072 
 9501      65616420 
 9502 0675 000000   		.zero	3
 9503              	.LC27:
 9504 0678 4843443A 		.string	"HCD: Not a valid language support descriptor on device: %i\n"
 9504      204E6F74 
 9504      20612076 
 9504      616C6964 
 9504      206C616E 
 9505 06b4 00000000 		.zero	4
 9506              	.LC28:
 9507 06b8 4843443A 		.string	"HCD: Could not read all the language support data on device: %i\n"
 9507      20436F75 
 9507      6C64206E 
 9507      6F742072 
 9507      65616420 
 9508 06f9 00000000 		.zero	7
 9508      000000
 9509              	.LC29:
 9510 0700 4E6F2065 		.string	"No english language string available on device: %i\n"
 9510      6E676C69 
 9510      7368206C 
 9510      616E6775 
 9510      61676520 
 9511 0734 00000000 		.zero	4
 9512              	.LC30:
 9513 0738 4843443A 		.string	"HCD: Could not fetch string descriptor header (%i) for device: %i\n"
 9513      20436F75 
 9513      6C64206E 
 9513      6F742066 
AARCH64 GAS  C:\Users\ldebo\AppData\Local\Temp\ccfW7LPV.s 			page 173


 9513      65746368 
 9514 077b 00000000 		.zero	5
 9514      00
 9515              	.LC31:
 9516 0780 4843443A 		.string	"HCD: Could not fetch string descriptor (%i) for device: %i\n"
 9516      20436F75 
 9516      6C64206E 
 9516      6F742066 
 9516      65746368 
 9517 07bc 00000000 		.zero	4
 9518              	.LC62:
 9519 07c0 4855423A 		.string	"HUB: Device %i Failed to reset Port%d.\n"
 9519      20446576 
 9519      69636520 
 9519      25692046 
 9519      61696C65 
 9520              	.LC63:
 9521 07e8 4855423A 		.string	"HUB: Hub failed to get status (4) for %s.Port%d.\n"
 9521      20487562 
 9521      20666169 
 9521      6C656420 
 9521      746F2067 
 9522 081a 00000000 		.zero	6
 9522      0000
 9523              	.LC64:
 9524 0820 4855423A 		.string	"HUB: Failed to clear reset on %s.Port%d.\n"
 9524      20466169 
 9524      6C656420 
 9524      746F2063 
 9524      6C656172 
 9525 084a 00000000 		.zero	6
 9525      0000
 9526              	.LC65:
 9527 0850 4855423A 		.string	"HUB: Cannot enable %s.Port%d. Please verify the hardware is working.\n"
 9527      2043616E 
 9527      6E6F7420 
 9527      656E6162 
 9527      6C652025 
 9528 0896 0000     		.zero	2
 9529              	.LC66:
 9530 0898 4855423A 		.string	"HUB: Failed to get hub port status (1) for %s.Port%d.\n"
 9530      20466169 
 9530      6C656420 
 9530      746F2067 
 9530      65742068 
 9531 08cf 00       		.zero	1
 9532              	.LC67:
 9533 08d0 4855423A 		.string	"HUB: Failed to clear enable change %s.Port%d.\n"
 9533      20466169 
 9533      6C656420 
 9533      746F2063 
 9533      6C656172 
 9534 08ff 00       		.zero	1
 9535              	.LC68:
 9536 0900 4855423A 		.string	"HUB: %s.Port%d has been disabled, but is connected. This can be cause by interference. Re
 9536      2025732E 
 9536      506F7274 
AARCH64 GAS  C:\Users\ldebo\AppData\Local\Temp\ccfW7LPV.s 			page 174


 9536      25642068 
 9536      61732062 
 9537 0964 00000000 		.zero	4
 9538              	.LC69:
 9539 0968 4855423A 		.string	"HUB: Failed to clear suspended port - %s.Port%d.\n"
 9539      20466169 
 9539      6C656420 
 9539      746F2063 
 9539      6C656172 
 9540 099a 00000000 		.zero	6
 9540      0000
 9541              	.LC70:
 9542 09a0 4855423A 		.string	"HUB: Failed to clear over current port - %s.Port%d.\n"
 9542      20466169 
 9542      6C656420 
 9542      746F2063 
 9542      6C656172 
 9543 09d5 000000   		.zero	3
 9544              	.LC71:
 9545 09d8 4855423A 		.string	"HUB: Failed to clear reset port - %s.Port%d.\n"
 9545      20466169 
 9545      6C656420 
 9545      746F2063 
 9545      6C656172 
 9546 0a06 0000     		.zero	2
 9547              	.LC72:
 9548 0a08 436F756C 		.string	"Could not allocate hub payload, Error ID %i\n"
 9548      64206E6F 
 9548      7420616C 
 9548      6C6F6361 
 9548      74652068 
 9549 0a35 000000   		.zero	3
 9550              	.LC73:
 9551 0a38 4843443A 		.string	"HCD: Could not fetch hub descriptor for device: %i\n"
 9551      20436F75 
 9551      6C64206E 
 9551      6F742066 
 9551      65746368 
 9552 0a6c 00000000 		.zero	4
 9553              	.LC74:
 9554 0a70 48554220 		.string	"HUB device:%i is too big for this driver to handle. Only the first %d ports will be used.
 9554      64657669 
 9554      63653A25 
 9554      69206973 
 9554      20746F6F 
 9555 0acb 00000000 		.zero	5
 9555      00
 9556              	.LC75:
 9557 0ad0 48554220 		.string	"HUB device:%i failed to get hub status.\n"
 9557      64657669 
 9557      63653A25 
 9557      69206661 
 9557      696C6564 
 9558 0af9 00000000 		.zero	7
 9558      000000
 9559              	.LC76:
 9560 0b00 4855423A 		.string	"HUB: device: %i could not power Port%d.\n"
AARCH64 GAS  C:\Users\ldebo\AppData\Local\Temp\ccfW7LPV.s 			page 175


 9560      20646576 
 9560      6963653A 
 9560      20256920 
 9560      636F756C 
 9561 0b29 00000000 		.zero	7
 9561      000000
 9562              	.LC77:
 9563 0b30 456E756D 		.string	"Enumeration: Step 1 on device %i failed, Result: %#x.\n"
 9563      65726174 
 9563      696F6E3A 
 9563      20537465 
 9563      70203120 
 9564 0b67 00       		.zero	1
 9565              	.LC78:
 9566 0b68 4843443A 		.string	"HCD: Failed to reset port again for new device %s.\n"
 9566      20466169 
 9566      6C656420 
 9566      746F2072 
 9566      65736574 
 9567 0b9c 00000000 		.zero	4
 9568              	.LC79:
 9569 0ba0 456E756D 		.string	"Enumeration: Failed to assign address to %#x.\n"
 9569      65726174 
 9569      696F6E3A 
 9569      20466169 
 9569      6C656420 
 9570 0bcf 00       		.zero	1
 9571              	.LC80:
 9572 0bd0 456E756D 		.string	"Enumeration: Step 4 on device %i failed, Result: %#x.\n"
 9572      65726174 
 9572      696F6E3A 
 9572      20537465 
 9572      70203420 
 9573 0c07 00       		.zero	1
 9574              	.LC81:
 9575 0c08 4843443A 		.string	"HCD: Error: %i, reading configuration descriptor for device: %i\n"
 9575      20457272 
 9575      6F723A20 
 9575      25692C20 
 9575      72656164 
 9576 0c49 00000000 		.zero	7
 9576      000000
 9577              	.LC82:
 9578 0c50 436F756C 		.string	"Could not allocate hid payload, Error ID %i\n"
 9578      64206E6F 
 9578      7420616C 
 9578      6C6F6361 
 9578      74652068 
 9579 0c7d 000000   		.zero	3
 9580              	.LC83:
 9581 0c80 48494420 		.string	"HID Entry wrong size\n"
 9581      456E7472 
 9581      79207772 
 9581      6F6E6720 
 9581      73697A65 
 9582 0c96 0000     		.zero	2
 9583              	.LC84:
AARCH64 GAS  C:\Users\ldebo\AppData\Local\Temp\ccfW7LPV.s 			page 176


 9584 0c98 4843443A 		.string	"HCD: Attach Device %s. Address:%d Class:%d USB:%x.%x, %d configuration(s), %d interface(s
 9584      20417474 
 9584      61636820 
 9584      44657669 
 9584      63652025 
 9585 0cf5 000000   		.zero	3
 9586              	.LC85:
 9587 0cf8 4843443A 		.string	"HCD: Failed to set configuration %#x for device %i.\n"
 9587      20466169 
 9587      6C656420 
 9587      746F2073 
 9587      65742063 
 9588 0d2d 000000   		.zero	3
 9589              	.LC86:
 9590 0d30 4843443A 		.string	"HCD:  -Product:       %s.\n"
 9590      20202D50 
 9590      726F6475 
 9590      63743A20 
 9590      20202020 
 9591 0d4b 00000000 		.zero	5
 9591      00
 9592              	.LC87:
 9593 0d50 4843443A 		.string	"HCD:  -Manufacturer:  %s.\n"
 9593      20202D4D 
 9593      616E7566 
 9593      61637475 
 9593      7265723A 
 9594 0d6b 00000000 		.zero	5
 9594      00
 9595              	.LC88:
 9596 0d70 4843443A 		.string	"HCD:  -SerialNumber:  %s.\n"
 9596      20202D53 
 9596      65726961 
 9596      6C4E756D 
 9596      6265723A 
 9597 0d8b 00000000 		.zero	5
 9597      00
 9598              	.LC89:
 9599 0d90 4843443A 		.string	"HCD:  -Configuration: %s.\n"
 9599      20202D43 
 9599      6F6E6669 
 9599      67757261 
 9599      74696F6E 
 9600 0dab 00000000 		.zero	5
 9600      00
 9601              	.LC90:
 9602 0db0 436F756C 		.string	"Could not enumerate HUB device %i, Error ID %i\n"
 9602      64206E6F 
 9602      7420656E 
 9602      756D6572 
 9602      61746520 
 9603              	.LC91:
 9604 0de0 436F756C 		.string	"Could not enumerate HID device %i, Error ID %i\n"
 9604      64206E6F 
 9604      7420656E 
 9604      756D6572 
 9604      61746520 
AARCH64 GAS  C:\Users\ldebo\AppData\Local\Temp\ccfW7LPV.s 			page 177


 9605              	.LC92:
 9606 0e10 4843443A 		.string	"HCD: Failed to read configuration descriptor for device %i, %u bytes read, Error: %i.\n"
 9606      20466169 
 9606      6C656420 
 9606      746F2072 
 9606      65616420 
 9607 0e67 00       		.zero	1
 9608              	.LC93:
 9609 0e68 4855423A 		.string	"HUB: Hub failed to get status (2) for %s.Port%d.\n"
 9609      20487562 
 9609      20666169 
 9609      6C656420 
 9609      746F2067 
 9610 0e9a 00000000 		.zero	6
 9610      0000
 9611              	.LC94:
 9612 0ea0 4855423A 		.string	"HUB: Failed to clear change on %s.Port%d.\n"
 9612      20466169 
 9612      6C656420 
 9612      746F2063 
 9612      6C656172 
 9613 0ecb 00000000 		.zero	5
 9613      00
 9614              	.LC95:
 9615 0ed0 4855423A 		.string	"HUB: Disconnected %s.Port%d - %s.\n"
 9615      20446973 
 9615      636F6E6E 
 9615      65637465 
 9615      64202573 
 9616 0ef3 00000000 		.zero	5
 9616      00
 9617              	.LC96:
 9618 0ef8 4855423A 		.string	"HUB: Could not reset %s.Port%d for new device.\n"
 9618      20436F75 
 9618      6C64206E 
 9618      6F742072 
 9618      65736574 
 9619              	.LC97:
 9620 0f28 4855423A 		.string	"HUB: Could not allocate a new device entry for %s.Port%d.\n"
 9620      20436F75 
 9620      6C64206E 
 9620      6F742061 
 9620      6C6C6F63 
 9621 0f63 00000000 		.zero	5
 9621      00
 9622              	.LC98:
 9623 0f68 4855423A 		.string	"HUB: Hub failed to get status (3) for %s.Port%d.\n"
 9623      20487562 
 9623      20666169 
 9623      6C656420 
 9623      746F2067 
 9624 0f9a 00000000 		.zero	6
 9624      0000
 9625              	.LC99:
 9626 0fa0 4855423A 		.string	"HUB: Could not connect to new device in %s.Port%d. Disabling.\n"
 9626      20436F75 
 9626      6C64206E 
AARCH64 GAS  C:\Users\ldebo\AppData\Local\Temp\ccfW7LPV.s 			page 178


 9626      6F742063 
 9626      6F6E6E65 
 9627 0fdf 00       		.zero	1
 9628              	.LC100:
 9629 0fe0 4855423A 		.string	"HUB: Failed to disable %s.Port%d.\n"
 9629      20466169 
 9629      6C656420 
 9629      746F2064 
 9629      69736162 
 9630 1003 00000000 		.zero	5
 9630      00
 9631              	.LC101:
 9632 1008 46415441 		.string	"FATAL ERROR: HCD failed to initialise.\n"
 9632      4C204552 
 9632      524F523A 
 9632      20484344 
 9632      20666169 
 9633              	.LC102:
 9634 1030 55534244 		.string	"USBD: Abort, HCD failed to start.\n"
 9634      3A204162 
 9634      6F72742C 
 9634      20484344 
 9634      20666169 
 9635 1053 00000000 		.zero	5
 9635      00
 9636              	.LC103:
 9637 1058 55534244 		.string	"USBD: Failed to enumerate devices.\n"
 9637      3A204661 
 9637      696C6564 
 9637      20746F20 
 9637      656E756D 
 9638 107c 00000000 		.zero	4
 9639              	.LC104:
 9640 1080 2D204849 		.string	"- HID interface"
 9640      4420696E 
 9640      74657266 
 9640      61636500 
 9641              	.LC105:
 9642 1090 00       		.string	""
 9643 1091 00000000 		.zero	7
 9643      000000
 9644              	.LC106:
 9645 1098 20202000 		.string	"   "
 9646 109c 00000000 		.zero	4
 9647              	.LC107:
 9648 10a0 20256320 		.string	" %c "
 9648      00
 9649 10a5 000000   		.zero	3
 9650              	.LC108:
 9651 10a8 2025632D 		.string	" %c-%s id: %i port: %i speed: %s packetsize: %i %s\n"
 9651      25732069 
 9651      643A2025 
 9651      6920706F 
 9651      72743A20 
 9652 10dc 00000000 		.zero	4
 9653              	.LC109:
 9654 10e0 48696768 		.string	"High"
AARCH64 GAS  C:\Users\ldebo\AppData\Local\Temp\ccfW7LPV.s 			page 179


 9654      00
 9655 10e5 000000   		.zero	3
 9656              	.LC110:
 9657 10e8 46756C6C 		.string	"Full"
 9657      00
 9658 10ed 000000   		.zero	3
 9659              	.LC111:
 9660 10f0 4C6F7700 		.string	"Low"
 9661              		.ident	"GCC: (Linaro GCC 7.1-2017.05) 7.1.1 20170510"
AARCH64 GAS  C:\Users\ldebo\AppData\Local\Temp\ccfW7LPV.s 			page 180


DEFINED SYMBOLS
                            *ABS*:0000000000000000 rpi-Usb.c
C:\Users\ldebo\AppData\Local\Temp\ccfW7LPV.s:4      .text:0000000000000000 $x
C:\Users\ldebo\AppData\Local\Temp\ccfW7LPV.s:8      .text:0000000000000000 HcdProcessRootHubMessage
C:\Users\ldebo\AppData\Local\Temp\ccfW7LPV.s:453    .text:0000000000000660 PowerOnUsb
C:\Users\ldebo\AppData\Local\Temp\ccfW7LPV.s:474    .text:00000000000006a0 PowerOffUsb
C:\Users\ldebo\AppData\Local\Temp\ccfW7LPV.s:495    .text:00000000000006e0 HCDReset
C:\Users\ldebo\AppData\Local\Temp\ccfW7LPV.s:563    .text:00000000000007c0 HCDTransmitFifoFlush
C:\Users\ldebo\AppData\Local\Temp\ccfW7LPV.s:614    .text:0000000000000870 HCDReceiveFifoFlush
C:\Users\ldebo\AppData\Local\Temp\ccfW7LPV.s:662    .text:0000000000000910 HCDStart
C:\Users\ldebo\AppData\Local\Temp\ccfW7LPV.s:1119   .text:0000000000000f70 HCDCheckErrorAndAction
C:\Users\ldebo\AppData\Local\Temp\ccfW7LPV.s:1218   .text:00000000000010b0 HCDWaitOnTransmissionResult
C:\Users\ldebo\AppData\Local\Temp\ccfW7LPV.s:1277   .text:0000000000001170 HCDChannelTransfer
C:\Users\ldebo\AppData\Local\Temp\ccfW7LPV.s:1660   .text:00000000000016b0 HCDSumbitControlMessage.constprop.13
C:\Users\ldebo\AppData\Local\Temp\ccfW7LPV.s:1997   .text:0000000000001b70 HCDSumbitControlMessage.constprop.14
C:\Users\ldebo\AppData\Local\Temp\ccfW7LPV.s:2183   .text:0000000000001e10 HCDSumbitControlMessage
C:\Users\ldebo\AppData\Local\Temp\ccfW7LPV.s:2401   .text:0000000000002110 HCDSetAddress
C:\Users\ldebo\AppData\Local\Temp\ccfW7LPV.s:2427   .text:0000000000002160 HCDSetConfiguration
C:\Users\ldebo\AppData\Local\Temp\ccfW7LPV.s:2455   .text:00000000000021c0 HCDReadHubPortStatus
C:\Users\ldebo\AppData\Local\Temp\ccfW7LPV.s:2529   .text:00000000000022c0 HCDChangeHubPortFeature
C:\Users\ldebo\AppData\Local\Temp\ccfW7LPV.s:2571   .text:0000000000002350 HCDInitialise
C:\Users\ldebo\AppData\Local\Temp\ccfW7LPV.s:2670   .text:00000000000024b0 AddHidPayload
C:\Users\ldebo\AppData\Local\Temp\ccfW7LPV.s:2798   .text:0000000000002620 RemoveHidPayload
C:\Users\ldebo\AppData\Local\Temp\ccfW7LPV.s:2825   .text:0000000000002670 AddHubPayload
C:\Users\ldebo\AppData\Local\Temp\ccfW7LPV.s:2953   .text:00000000000027e0 UsbAllocateDevice
C:\Users\ldebo\AppData\Local\Temp\ccfW7LPV.s:9423   .bss:0000000000000968 DeviceTable
C:\Users\ldebo\AppData\Local\Temp\ccfW7LPV.s:2999   .text:0000000000002870 UsbDeallocateDevice
C:\Users\ldebo\AppData\Local\Temp\ccfW7LPV.s:3203   .text:0000000000002b00 RemoveHubPayload
C:\Users\ldebo\AppData\Local\Temp\ccfW7LPV.s:3446   .text:0000000000002e10 EnumerateHID
C:\Users\ldebo\AppData\Local\Temp\ccfW7LPV.s:3793   .text:0000000000003300 HCDGetDescriptor
C:\Users\ldebo\AppData\Local\Temp\ccfW7LPV.s:3913   .text:00000000000034b0 HCDReadStringDescriptor
C:\Users\ldebo\AppData\Local\Temp\ccfW7LPV.s:4530   .text:0000000000003d70 IsHub
C:\Users\ldebo\AppData\Local\Temp\ccfW7LPV.s:4561   .text:0000000000003dd0 IsHid
C:\Users\ldebo\AppData\Local\Temp\ccfW7LPV.s:4592   .text:0000000000003e30 IsMassStorage
C:\Users\ldebo\AppData\Local\Temp\ccfW7LPV.s:4623   .text:0000000000003e90 IsMouse
C:\Users\ldebo\AppData\Local\Temp\ccfW7LPV.s:4657   .text:0000000000003ef0 IsKeyboard
C:\Users\ldebo\AppData\Local\Temp\ccfW7LPV.s:4691   .text:0000000000003f50 UsbGetRootHub
C:\Users\ldebo\AppData\Local\Temp\ccfW7LPV.s:4703   .text:0000000000003f70 UsbDeviceAtAddress
C:\Users\ldebo\AppData\Local\Temp\ccfW7LPV.s:4727   .text:0000000000003fb0 UsbGetDescription
C:\Users\ldebo\AppData\Local\Temp\ccfW7LPV.s:4955   .text:0000000000004280 HubPortReset
C:\Users\ldebo\AppData\Local\Temp\ccfW7LPV.s:5203   .text:0000000000004600 HubCheckConnection
C:\Users\ldebo\AppData\Local\Temp\ccfW7LPV.s:6649   .text:0000000000005a70 HubPortConnectionChanged
C:\Users\ldebo\AppData\Local\Temp\ccfW7LPV.s:5504   .text:0000000000004a50 EnumerateHub
C:\Users\ldebo\AppData\Local\Temp\ccfW7LPV.s:5876   .text:0000000000004f70 EnumerateDevice
C:\Users\ldebo\AppData\Local\Temp\ccfW7LPV.s:7061   .text:0000000000006060 UsbAttachRootHub
C:\Users\ldebo\AppData\Local\Temp\ccfW7LPV.s:7127   .text:0000000000006130 UsbInitialise
C:\Users\ldebo\AppData\Local\Temp\ccfW7LPV.s:7300   .text:0000000000006390 HubCheckForChange
C:\Users\ldebo\AppData\Local\Temp\ccfW7LPV.s:7650   .text:0000000000006880 UsbCheckForChange
C:\Users\ldebo\AppData\Local\Temp\ccfW7LPV.s:8083   .text:0000000000006e90 UsbShowTree
C:\Users\ldebo\AppData\Local\Temp\ccfW7LPV.s:8316   .text:00000000000071e0 HIDReadDescriptor
C:\Users\ldebo\AppData\Local\Temp\ccfW7LPV.s:8662   .text:00000000000076d0 HIDReadReport
C:\Users\ldebo\AppData\Local\Temp\ccfW7LPV.s:8915   .text:0000000000007a50 HIDWriteReport
C:\Users\ldebo\AppData\Local\Temp\ccfW7LPV.s:9096   .text:0000000000007ce0 HIDSetProtocol
C:\Users\ldebo\AppData\Local\Temp\ccfW7LPV.s:9393   .data:00000000000000a8 SpeedString
C:\Users\ldebo\AppData\Local\Temp\ccfW7LPV.s:9380   .data:0000000000000098 RootHubDescriptor
C:\Users\ldebo\AppData\Local\Temp\ccfW7LPV.s:9355   .data:0000000000000070 RootHubString2
C:\Users\ldebo\AppData\Local\Temp\ccfW7LPV.s:9282   .data:0000000000000008 RootHubString1
AARCH64 GAS  C:\Users\ldebo\AppData\Local\Temp\ccfW7LPV.s 			page 181


C:\Users\ldebo\AppData\Local\Temp\ccfW7LPV.s:9275   .data:0000000000000000 RootHubString0
C:\Users\ldebo\AppData\Local\Temp\ccfW7LPV.s:9309   .data:0000000000000038 RootHubConfigurationDescriptor
C:\Users\ldebo\AppData\Local\Temp\ccfW7LPV.s:9337   .data:0000000000000058 RootHubDeviceDescriptor
C:\Users\ldebo\AppData\Local\Temp\ccfW7LPV.s:9411   .bss:0000000000000008 HidTable
C:\Users\ldebo\AppData\Local\Temp\ccfW7LPV.s:9415   .bss:0000000000000298 HubTable
C:\Users\ldebo\AppData\Local\Temp\ccfW7LPV.s:9402   .bss:0000000000000000 RootHubDeviceNumber
C:\Users\ldebo\AppData\Local\Temp\ccfW7LPV.s:9406   .bss:0000000000000001 PhyInitialised
                            *COM*:0000000000000004 __errno
C:\Users\ldebo\AppData\Local\Temp\ccfW7LPV.s:9153   .rodata:0000000000000000 $d
C:\Users\ldebo\AppData\Local\Temp\ccfW7LPV.s:9271   .data:0000000000000000 $d
C:\Users\ldebo\AppData\Local\Temp\ccfW7LPV.s:9398   .bss:0000000000000000 $d
C:\Users\ldebo\AppData\Local\Temp\ccfW7LPV.s:9419   .bss:0000000000000918 TreeLevelInUse
C:\Users\ldebo\AppData\Local\Temp\ccfW7LPV.s:9426   .rodata.str1.8:0000000000000000 $d

UNDEFINED SYMBOLS
printf
RPi_IO_Base_Addr
timer_wait
mailbox_tag_message
timer_getTickCount
tick_difference
ARMaddrToGPUaddr
memset
wctob
