ARM GAS  C:\Users\ldebo\AppData\Local\Temp\ccrazFu5.s 			page 1


   1              		.arch armv7-a
   2              		.arch_extension virt
   3              		.arch_extension idiv
   4              		.arch_extension sec
   5              		.arch_extension mp
   6              		.eabi_attribute 28, 1
   7              		.eabi_attribute 20, 1
   8              		.eabi_attribute 21, 1
   9              		.eabi_attribute 23, 3
  10              		.eabi_attribute 24, 1
  11              		.eabi_attribute 25, 1
  12              		.eabi_attribute 26, 1
  13              		.eabi_attribute 30, 2
  14              		.eabi_attribute 34, 0
  15              		.eabi_attribute 18, 4
  16              		.file	"main.c"
  17              		.text
  18              		.align	2
  19              		.global	kernel_main
  20              		.syntax unified
  21              		.arm
  22              		.fpu neon
  23              		.type	kernel_main, %function
  24              	kernel_main:
  25              		@ Volatile: function does not return.
  26              		@ args = 0, pretend = 0, frame = 0
  27              		@ frame_needed = 0, uses_anonymous_args = 0
  28 0000 80402DE9 		push	{r7, lr}
  29 0004 08D04DE2 		sub	sp, sp, #8
  30 0008 318A9FED 		vldr.32	s16, .L5
  31 000c FEFFFFEB 		bl	InitV3D
  32 0010 0000A0E3 		mov	r0, #0
  33 0014 006000E3 		movw	r6, #:lower16:printf
  34 0018 006040E3 		movt	r6, #:upper16:printf
  35 001c FEFFFFEB 		bl	ARM_setmaxspeed
  36 0020 0030A0E3 		mov	r3, #0
  37 0024 2020A0E3 		mov	r2, #32
  38 0028 0310A0E1 		mov	r1, r3
  39 002c 0300A0E1 		mov	r0, r3
  40 0030 007000E3 		movw	r7, #:lower16:.LANCHOR0
  41 0034 FEFFFFEB 		bl	PiConsole_Init
  42 0038 007040E3 		movt	r7, #:upper16:.LANCHOR0
  43 003c 0610A0E1 		mov	r1, r6
  44 0040 0120A0E3 		mov	r2, #1
  45 0044 0600A0E1 		mov	r0, r6
  46 0048 FEFFFFEB 		bl	sdInitCard
  47 004c 000000E3 		movw	r0, #:lower16:.LC0
  48 0050 0620A0E1 		mov	r2, r6
  49 0054 000040E3 		movt	r0, #:upper16:.LC0
  50 0058 0710A0E1 		mov	r1, r7
  51 005c FEFFFFEB 		bl	CreateVertexData
  52 0060 1C0A9FED 		vldr.32	s0, .L5+4
  53 0064 FEFFFFEB 		bl	DoRotate
  54 0068 FEFFFFEB 		bl	GetConsole_Width
  55 006c 0040A0E1 		mov	r4, r0
  56 0070 FEFFFFEB 		bl	GetConsole_Height
  57 0074 0050A0E1 		mov	r5, r0
ARM GAS  C:\Users\ldebo\AppData\Local\Temp\ccrazFu5.s 			page 2


  58 0078 FEFFFFEB 		bl	GetConsole_FrameBuffer
  59 007c FEFFFFEB 		bl	ARMaddrToGPUaddr
  60 0080 00608DE5 		str	r6, [sp]
  61 0084 0020A0E1 		mov	r2, r0
  62 0088 D510EFE7 		ubfx	r1, r5, #1, #16
  63 008c 0730A0E1 		mov	r3, r7
  64 0090 D400EFE7 		ubfx	r0, r4, #1, #16
  65 0094 FEFFFFEB 		bl	RenderModel
  66              	.L2:
  67 0098 480AB0EE 		vmov.f32	s0, s16
  68 009c FEFFFFEB 		bl	DoRotate
  69 00a0 FEFFFFEB 		bl	GetConsole_Width
  70 00a4 0040A0E1 		mov	r4, r0
  71 00a8 FEFFFFEB 		bl	GetConsole_Height
  72 00ac 0050A0E1 		mov	r5, r0
  73 00b0 FEFFFFEB 		bl	GetConsole_FrameBuffer
  74 00b4 FEFFFFEB 		bl	ARMaddrToGPUaddr
  75 00b8 D510EFE7 		ubfx	r1, r5, #1, #16
  76 00bc 0020A0E1 		mov	r2, r0
  77 00c0 00608DE5 		str	r6, [sp]
  78 00c4 0730A0E1 		mov	r3, r7
  79 00c8 D400EFE7 		ubfx	r0, r4, #1, #16
  80 00cc FEFFFFEB 		bl	RenderModel
  81 00d0 F0FFFFEA 		b	.L2
  82              	.L6:
  83              		.align	2
  84              	.L5:
  85 00d4 CDCCCC3D 		.word	1036831949
  86 00d8 00000000 		.word	0
  87              		.size	kernel_main, .-kernel_main
  88              		.global	model
  89              		.comm	__errno,4,4
  90              		.bss
  91              		.align	2
  92              		.set	.LANCHOR0,. + 0
  93              		.type	model, %object
  94              		.size	model, 132
  95              	model:
  96 0000 00000000 		.space	132
  96      00000000 
  96      00000000 
  96      00000000 
  96      00000000 
  97              		.section	.rodata.str1.4,"aMS",%progbits,1
  98              		.align	2
  99              	.LC0:
 100 0000 5C737061 		.ascii	"\\spacecraft\\runner\\spacecraft.obj\000"
 100      63656372 
 100      6166745C 
 100      72756E6E 
 100      65725C73 
 101              		.ident	"GCC: (GNU Tools for ARM Embedded Processors 6-2017-q2-update) 6.3.1 20170620 (release) [AR
ARM GAS  C:\Users\ldebo\AppData\Local\Temp\ccrazFu5.s 			page 3


DEFINED SYMBOLS
                            *ABS*:00000000 main.c
C:\Users\ldebo\AppData\Local\Temp\ccrazFu5.s:18     .text:00000000 $a
C:\Users\ldebo\AppData\Local\Temp\ccrazFu5.s:24     .text:00000000 kernel_main
C:\Users\ldebo\AppData\Local\Temp\ccrazFu5.s:92     .bss:00000000 .LANCHOR0
C:\Users\ldebo\AppData\Local\Temp\ccrazFu5.s:99     .rodata.str1.4:00000000 .LC0
C:\Users\ldebo\AppData\Local\Temp\ccrazFu5.s:85     .text:000000d4 $d
C:\Users\ldebo\AppData\Local\Temp\ccrazFu5.s:95     .bss:00000000 model
                            *COM*:00000004 __errno
C:\Users\ldebo\AppData\Local\Temp\ccrazFu5.s:91     .bss:00000000 $d
C:\Users\ldebo\AppData\Local\Temp\ccrazFu5.s:98     .rodata.str1.4:00000000 $d

UNDEFINED SYMBOLS
InitV3D
printf
ARM_setmaxspeed
PiConsole_Init
sdInitCard
CreateVertexData
DoRotate
GetConsole_Width
GetConsole_Height
GetConsole_FrameBuffer
ARMaddrToGPUaddr
RenderModel
ARM GAS  C:\Users\ldebo\AppData\Local\Temp\ccrazFu5.s 			page 1


   1              	# 1 "SmartStart32.S"
   1              	﻿;@"+++++++++++++++++++++++++++++++++++++++++++++++++++++++++++++++++++++++++"
   0              	
   0              	
   2              	;@"																			"			
   3              	;@"      Filename: smartstart32.s											"
   4              	;@"      Copyright(c): Leon de Boer(LdB) 2017								"
   5              	;@"      Version: 2.02														"
   6              	;@"																			"		
   7              	;@"**************[ THIS CODE IS FREEWARE UNDER CC Attribution]**************"
   8              	;@"																            "
   9              	;@"     This sourcecode is released for the purpose to promote programming  "
  10              	;@"  on the Raspberry Pi. You may redistribute it and/or modify with the    "
  11              	;@"  following disclaimer and condition.                                    "
  12              	;@"																            "
  13              	;@"      The SOURCE CODE is distributed "AS IS" WITHOUT WARRANTIES AS TO    "
  14              	;@"   PERFORMANCE OF MERCHANTABILITY WHETHER EXPRESSED OR IMPLIED.          "
  15              	;@"   Redistributions of source code must retain the copyright notices to   "
  16              	;@"   maintain the author credit (attribution) .							"
  17              	;@"																			"
  18              	;@"*************************************************************************"
  19              	;@"                                                                         "
  20              	;@"       This code expands on my earlier SmartStart bootstub assembler for "
  21              	;@" the Pi 1/2/3. It simplifies some of the autodetect code but importantly "
  22              	;@" directly supports multicore operation in C/C++. To do that it provides  "
  23              	;@" stack space to each core and provides a modified bootloader spinlock    "
  24              	;@" that protects against registers R0-R3 trashed. As any C/C++ compiler    "
  25              	;@" code will trash those registers, to use C/C++ in multicore programming  "
  26              	;@" this protection must be done.											"
  27              	;@"      The downside is this bootstub must be a little more complex in     "
  28              	;@" that it must start and setup multiple cores. The code is much more      "
  29              	;@" connected to the linker file which provides memory space to each core.  "
  30              	;@"       There is however matching paired AARCH64 stub and linker files    "
  31              	;@" so code written for this setup can be ported to AARCH64 with ease.		"
  32              	;@"																            "
  33              	;@"+++++++++++++++++++++++++++++++++++++++++++++++++++++++++++++++++++++++++"
  34              	
  35              	;@"========================================================================="
  36              	;@"				 	 ARM CPU ID CONSTANT DEFINITIONS					    "
  37              	;@"========================================================================="
  38              	.equ ARM6_CPU_ID, 0x410FB767					;@ CPU id a BCM2835 reports
  39              	.equ ARM7_CPU_ID, 0x410FC073					;@ CPU id a BCM2836 reports
  40              	.equ ARM8_CPU_ID, 0x410FD034					;@ CPU id a BCM2837 reports
  41              	
  42              	;@"========================================================================="
  43              	;@"				 	 ARM CPU MODE CONSTANT DEFINITIONS					    "
  44              	;@"========================================================================="
  45              	.equ CPU_FIQMODE, 0x11							;@ CPU in FIQ mode
  46              	.equ CPU_IRQMODE, 0x12							;@ CPU in IRQ mode
  47              	.equ CPU_SVCMODE, 0x13							;@ CPU in SVC mode
  48              	.equ CPU_HYPMODE, 0x1A							;@ CPU in HYP mode
  49              	
  50              	;@"========================================================================="
  51              	;@"				 ARM CPU IRQ/FIQ BIT CONSTANT DEFINITIONS				    "
  52              	;@"========================================================================="
  53              	#define I_Bit  (1 << 7)							// Irq flag bit in cpsr (CPUMODE register)
  54              	#define F_Bit  (1 << 6)							// Fiq flag bit in cpsr (CPUMODE register)
ARM GAS  C:\Users\ldebo\AppData\Local\Temp\ccrazFu5.s 			page 2


  55              	
  56              	;@"========================================================================="
  57              	;@"				 	 ARM CPU MODE CONSTANT DEFINITIONS					    "
  58              	;@"========================================================================="
  59              	.equ CPU_FIQMODE_VALUE, (CPU_FIQMODE | I_Bit | F_Bit)	;@ CPU in FIQ mode with irq, fiq off
  60              	.equ CPU_IRQMODE_VALUE, (CPU_IRQMODE | I_Bit | F_Bit)	;@ CPU in IRQ mode with irq, fiq off
  61              	.equ CPU_SVCMODE_VALUE, (CPU_SVCMODE | I_Bit | F_Bit)	;@ CPU in SVC mode with irq, fiq off
  62              	
  63              	;@"*************************************************************************"
  64              	;@"          INTERNAL DATA FOR SMARTSTART NOT EXPOSED TO INTERFACE			"
  65              	;@"*************************************************************************"
  66              	.section ".data.smartstart", "aw"
  67              	.balign 4
  68              	
  69 0000 00000000 	RPi_BusAlias	: .4byte 0;				// Address offset between VC4 physical address and ARM address needed f
  70              	
  71              	
  72              	
  73              	.globl RPi_CPUCurrentMode;				// Make sure RPi_CPUCurrentMode label is global
  74 0004 00000000 	RPi_CPUCurrentMode : .4byte 0;			//  CPU current Mode is 4 byte variable
  75              	
  76              	.globl RPi_Heap; @ Make sure RPi_Heap label is global
  77 0008 00000000 	RPi_Heap : .4byte 0; @ RPi_Heap is 4 byte variable
  78              	
  79              	.section ".text.startup", "ax", %progbits
  80              	.balign	4
  81              	.globl _start
  82              	.syntax unified
  83              	.arm
  84              	_start:
  85              	;@"================================================================"
  86              	;@ Grab cpu mode and start address and hold in a high register.
  87              	;@"================================================================"
  88 0000 0FC0A0E1 		mov r12, pc;							;@ Hold boot address in high register R12
  89 0004 00B00FE1 		mrs r11, CPSR							;@ Read current CPU mode
  90 0008 1FB00BE2 		and r11, r11, #0x1F						;@ Clear all but CPU mode bits in register r11
  91              	;@"================================================================"
  92              	;@ If the cpu is in HYP_MODE(EL2) we will bring it SVC_MODE (EL1).
  93              	;@"================================================================"
  94              	multicore_start:
  95 000c 00000FE1 	    mrs r0,cpsr								;@ Fetch the cpsr register which includes CPU mode bits 
  96 0010 1F1000E2 	 	and r1, r0, #0x1F						;@ Mask off the CPU mode bits to register r1                            
  97 0014 1A0051E3 	 	cmp r1, #CPU_HYPMODE					;@ Check we are in HYP_MODE											
  98 0018 0500001A 		bne .NotInHypMode						;@ Branch if not equal meaning was not in HYP_MODE  
  99 001c 1F00C0E3 		bic r0,r0,#0x1F							;@ Clear the CPU mode bits in register r0							
 100 0020 D30080E3 		orr r0, r0, #CPU_SVCMODE_VALUE			;@ SVC_MODE bits onto register with Irq/Fiq disabled	
 101 0024 00F06FE1 	    msr spsr_cxsf,r0						;@ Hold value in spsr_cxsf
 102 0028 04E08FE2 	    add lr,pc,#4							;@ Calculate address of .NotInHypMode label
 103              		/* I borrowed this trick from Ultibo because ARM6 code running on an ARM7/8 needs this opcode  */
 104              		/* The ARM6 compiler does not know these instructions so it is a way to get needed opcode here */
 105              	    /* So our ARM6 code can drop an arm7 or arm8 out of HYP mode and run on an ARM7/8.             
 106              	 	/* Native ARM7/8 compilers already understand the OPCODE but do not mind it this way either	   */
 107 002c 0EF32EE1 		.long 0xE12EF30E						;@ "msr ELR_hyp, lr" Set the address to ELR_hyp
 108 0030 6E0060E1 		.long 0xE160006E						;@ "eret" Elevated return which will exit at .NotInHypMode in SVC_MODE
 109              	.NotInHypMode:
 110              	;@"================================================================"
 111              	;@  Setup stack pointers for each core and each CPU operation mode
ARM GAS  C:\Users\ldebo\AppData\Local\Temp\ccrazFu5.s 			page 3


 112              	;@"================================================================"
 113 0034 4C229FE5 	    ldr r2, = __SVC_stack_core0				;@ Address of svc_stack_core0 stack pointer value
 114 0038 4C329FE5 	    ldr r3, = __FIQ_stack_core0				;@ Address of fiq_stack_core0 stack pointer value
 115 003c 4C429FE5 	    ldr r4, = __IRQ_stack_core0				;@ Address of irq_stack_core0 stack pointer value
 116 0040 100F10EE 		mrc p15, 0, r0, c0, c0, 0				;@ Read CPU ID Register
 117 0044 48129FE5 		ldr r1, =#ARM6_CPU_ID					;@ Fetch ARM6_CPU_ID
 118 0048 000051E1 		cmp r1, r0								;@ Check for match
 119 004c 0F00000A 		beq set_svc_stack						;@ ARM6 only has 1 core so goto set svc_stack
 120 0050 B05F10EE 		mrc p15, 0, r5, c0, c0, 5				;@ Read core id on ARM7 & ARM8
 121 0054 035015E2 		ands r5, r5, #0x3						;@ Make cpu id bitmask
 122 0058 0C00000A 		beq set_svc_stack						;@ This is core 0 so set got set svc_stack
 123 005c 34229FE5 	    ldr r2, = __SVC_stack_core1				;@ Address of svc_stack_core1 stack pointer value
 124 0060 34329FE5 	    ldr r3, = __FIQ_stack_core1				;@ Address of fiq_stack_core1 stack pointer value
 125 0064 34429FE5 	    ldr r4, = __IRQ_stack_core1				;@ Address of irq_stack_core1 stack pointer value
 126 0068 010055E3 		cmp r5, #1								;@ Check cpu id for core 1
 127 006c 0700000A 		beq set_svc_stack						;@ This is core 1 so set svc_stack
 128 0070 2C229FE5 	    ldr r2, = __SVC_stack_core2				;@ Address of svc_stack_core2 stack pointer value
 129 0074 2C329FE5 	    ldr r3, = __FIQ_stack_core2				;@ Address of fiq_stack_core2 stack pointer value
 130 0078 2C429FE5 	    ldr r4, = __IRQ_stack_core2				;@ Address of irq_stack_core2 stack pointer value
 131 007c 020055E3 		cmp r5, #2								;@ Check cpu id for core 2
 132 0080 0200000A 		beq set_svc_stack						;@ This is core 2 so set svc_stack
 133 0084 24229FE5 	    ldr r2, = __SVC_stack_core3				;@ Address of svc_stack_core3 stack pointer value
 134 0088 24329FE5 	    ldr r3, = __FIQ_stack_core3				;@ Address of fiq_stack_core3 stack pointer value
 135 008c 24429FE5 	    ldr r4, = __IRQ_stack_core3				;@ Address of irq_stack_core3 stack pointer value
 136              	set_svc_stack:
 137 0090 02D0A0E1 		mov sp, r2								;@ Set the stack pointer for SVC_MODE 
 138 0094 00000FE1 	    mrs r0,cpsr								;@ Fetch the cpsr register which includes CPU mode bits 
 139 0098 1F00C0E3 		bic r0,r0,#0x1F							;@ Clear the CPU mode bits in register r0							
 140 009c D10080E3 		orr r0, r0, #CPU_FIQMODE_VALUE			;@ FIQ_MODE bits onto register with Irq/Fiq disabled
 141 00a0 00F021E1 	    msr CPSR_c, r0							;@ Switch to FIQ_MODE
 142 00a4 03D0A0E1 		mov sp, r3								;@ Set the stack pointer for FIQ_MODE 
 143 00a8 1F00C0E3 		bic r0,r0,#0x1F							;@ Clear the CPU mode bits in register r0	
 144 00ac D20080E3 		orr r0, r0, #CPU_IRQMODE_VALUE			;@ IRQ_MODE bits onto register with Irq/Fiq disabled	
 145 00b0 00F021E1 	    msr CPSR_c, r0							;@ Switch to IRQ_MODE
 146 00b4 04D0A0E1 		mov sp, r4								;@ Set the stack pointer for IRQ_MODE 
 147 00b8 1F00C0E3 		bic r0,r0,#0x1F							;@ Clear the CPU mode bits in register r0							
 148 00bc D30080E3 		orr r0, r0, #CPU_SVCMODE_VALUE			;@ SVC_MODE bits onto register with Irq/Fiq disabled	
 149 00c0 00F021E1 	    msr CPSR_c, r0							;@ Switch to SVC_MODE again all stacks ready to go
 150              	@"================================================================"
 151              	;@ PI NSACR regsister setup for access to floating point unit
 152              	;@ Cortex A-7 => Section 4.3.34. Non-Secure Access Control Register
 153              	;@ Cortex A-53 => Section 4.5.32. Non-Secure Access Control Register
 154              	;@"================================================================"
 155 00c4 510F11EE 		mrc p15, 0, r0, c1, c1, 2				;@ Read NSACR into R0
 156 00c8 030B50E3 		cmp r0, #0x00000C00						;@ Access turned on or in AARCH32 mode and can not touch register or EL3 
 157 00cc 0100000A 		beq .free_to_enable_fpu1
 158 00d0 030B80E3 		orr r0, r0, #0x3<<10					;@ Set access to both secure and non secure modes
 159 00d4 510F01EE 		mcr p15, 0, r0, c1, c1, 2				;@ Write NSACR
 160              	;@"================================================================"
 161              	;@ Bring fpu online
 162              	;@"================================================================"
 163              	.free_to_enable_fpu1:
 164 00d8 500F11EE 		mrc p15, 0, r0, c1, c0, #2				;@ R0 = Access Control Register
 165 00dc 0F0680E3 		orr r0, #(0x300000 + 0xC00000)			;@ Enable Single & Double Precision
 166 00e0 500F01EE 		mcr p15,0,r0,c1,c0, #2					;@ Access Control Register = R0
 167 00e4 0101A0E3 		mov r0, #0x40000000						;@ R0 = Enable VFP
 168 00e8 100AE8EE 		vmsr fpexc, r0							;@ FPEXC = R0
ARM GAS  C:\Users\ldebo\AppData\Local\Temp\ccrazFu5.s 			page 4


 169              	;@"================================================================"
 170              	;@ Enable L1 cache
 171              	;@"================================================================"
 172              	.equ SCTLR_ENABLE_DATA_CACHE,			0x4
 173              	.equ SCTLR_ENABLE_BRANCH_PREDICTION,	0x800
 174              	.equ SCTLR_ENABLE_INSTRUCTION_CACHE,	0x1000
 175 00ec 100F11EE 	    mrc p15,0,r0,c1,c0,0					;@ R0 = System Control Register
 176              	
 177              	    /* Enable caches and branch prediction */
 178 00f0 020B80E3 	    orr r0, #SCTLR_ENABLE_BRANCH_PREDICTION
 179 00f4 040080E3 	    orr r0, #SCTLR_ENABLE_DATA_CACHE
 180 00f8 010A80E3 	    orr r0, #SCTLR_ENABLE_INSTRUCTION_CACHE
 181              	
 182 00fc 100F01EE 	    mcr p15,0,r0,c1,c0,0					;@ System Control Register = R0
 183              	;@"================================================================"
 184              	;@ Check if BC2835 and if so branch over multi-core park routine
 185              	;@"================================================================"
 186 0100 100F10EE 		mrc p15,0,r0,c0,c0,0					;@ Read CPU ID Register
 187 0104 88119FE5 		ldr r1, =#ARM6_CPU_ID					;@ fetch ARM6_CPU_ID
 188 0108 000051E1 		cmp r1, r0								;@ Check for match
 189 010c 0700000A 		beq .cpu0_exit_multicore_park			;@ Branch as Arm6 has only 1 CPU 
 190              	;@"================================================================"
 191              	;@ Now park Core 1,2,3 into secondary spinloop on BCM2836, BCM2837
 192              	;@ If bootloader is used this will not happen but booting with the
 193              	;@ "OldKernel=1" from 0x0000 this can happen. Core 0 continues on.
 194              	;@"================================================================"
 195 0110 B00F10EE 		mrc p15, 0, r0, c0, c0, 5				;@ Read core id on ARM7 & ARM8
 196 0114 030010E2 		ands r0, r0, #0x3					    ;@ Make core 2 bit bitmask in R0
 197 0118 0400000A 		beq  .cpu0_exit_multicore_park			;@ Core 0 jumps out
 198 011c 98119FE5 		ldr r1, =RPi_CoresReady					;@ Address of CoreReady count
 199 0120 000091E5 		ldr r0, [r1]							;@ Load current core count 
 200 0124 010080E2 		add r0, r0, #1							;@ Add one as core about to go ready
 201 0128 000081E5 		str r0, [r1]							;@ Update CoreReady count
 202 012c 810000EA 		b    SecondarySpin						;@ Jump to setup secondary spin
 203              	.cpu0_exit_multicore_park:
 204              	;@"================================================================"
 205              	;@ Now store initial CPU boot mode and address we might need later.
 206              	;@"================================================================"
 207 0130 88119FE5 		ldr r1, =RPi_BootAddr					;@ Address to hold Boot address
 208 0134 08C04CE2 		sub r12, #8								;@ Subtract op-code offset
 209 0138 00C081E5 		str r12, [r1]							;@ Save the boot address we started at
 210 013c 80119FE5 		ldr r1, =RPi_CPUBootMode				;@ Memory address to save this CPU boot mode
 211 0140 00B081E5 		str r11, [r1]							;@ Save the boot mode we started in
 212              	;@"================================================================"
 213              	;@  Initial CPU core ready so set CoreReady count to 1.
 214              	;@"================================================================"
 215 0144 0100A0E3 		mov r0, #1								;@ Core0 is will be ready
 216 0148 6C119FE5 		ldr r1, =RPi_CoresReady					;@ Memory address to save Cores ready
 217 014c 000081E5 		str r0, [r1]							;@ Set RPi_CoresReady to 1
 218              	;@"================================================================"
 219              	;@ Fetch and hold CPU changed mode. If we changed modes this value
 220              	;@ will now reflect a change from the original held RPi_CPUBootMode.
 221              	;@"================================================================"
 222 0150 00200FE1 		mrs r2, CPSR
 223 0154 1F2002E2 		and r2, r2, #0x1F						;@ Clear all but CPU mode bits in register r2
 224 0158 68119FE5 		ldr r1, =RPi_CPUCurrentMode
 225 015c 002081E5 		str r2, [r1]							;@ Hold the changed CPU mode
ARM GAS  C:\Users\ldebo\AppData\Local\Temp\ccrazFu5.s 			page 5


 226              	;@"================================================================"
 227              	;@ Read the Arm Main CPUID register => sets RPi_CpuId
 228              	;@"================================================================"
 229 0160 64119FE5 		ldr r1, =RPi_CpuId						;@ Address to hold CPU id
 230 0164 100F10EE 		mrc p15, 0, r0, c0, c0, 0				;@ Read Main ID Register
 231 0168 000081E5 		str r0, [r1]							;@ Save CPU Id for interface 
 232              	;@"================================================================"
 233              	;@ Store the compiler mode in RPi_CompileMode
 234              	;@"================================================================"
 235 016c 000020E0 		eor r0, r0, r0;							;@ Zero register
 236              	.if (__ARM_ARCH == 6)						// Compiling for ARM6
 237              		mov r0, #0x06							;@ Compiled for ARM6 CPU
 238              	.endif
 239              	.if (__ARM_ARCH == 7)						// Compiling for ARM7
 240 0170 0700A0E3 		mov r0, #0x07							;@ Compiled for ARM7 CPU
 241              	.endif
 242              	.if (__ARM_ARCH == 8)						// Compiling for ARM8
 243              		mov r0, #0x08							;@ Compiled for ARM8 CPU
 244              	.endif
 245 0174 800080E3 		orr r0, r0, #(4 << 5)					;@ Code is setup to support 4 cores			
 246 0178 50119FE5 		ldr r1, =RPi_CompileMode
 247 017c 000081E5 		str r0, [r1]							;@ Store the compiler mode  
 248              	;;@"================================================================"
 249              	;@ Try Auto-Detect Raspberry PI IO base address at 1st position
 250              	;@"================================================================"
 251 0180 4C219FE5 		ldr r2, =#0x61757830
 252 0184 4C119FE5 		ldr r1, =#0x20215010
 253 0188 000091E5 		ldr r0, [r1]							;@ Fetch value at 0x20215010 being uart0
 254 018c 000052E1 		cmp r2, r0;								;@ Check if we have the value the uart0 will be at reset
 255 0190 0600001A 		bne .not_at_address_1
 256              	;@"================================================================"
 257              	;@  Raspberry PI IO base address was detected as 0x20000000
 258              	;@  RPi_IO_Base_Addr => 0x20000000
 259              	;@"================================================================"
 260 0194 40119FE5 		ldr r1, =RPi_BusAlias
 261 0198 0101A0E3 		mov	r0, #0x40000000
 262 019c 000081E5 		str	r0, [r1]							;@ Hold bus alias
 263 01a0 38119FE5 		ldr r1, =RPi_IO_Base_Addr
 264 01a4 0202A0E3 		mov	r0, #0x20000000
 265 01a8 000081E5 		str	r0, [r1]							;@ Hold the detected address
 266 01ac 0A0000EA 		b .autodetect_done;
 267              	;@"================================================================"
 268              	;@ Try Auto-Detect Raspberry PI IO base address at 2nd position
 269              	;@"================================================================"
 270              	.not_at_address_1:
 271 01b0 2C119FE5 		ldr r1, =#0x3f215010
 272 01b4 000091E5 		ldr r0, [r1]							;@ Fetch value at 0x3f215010
 273 01b8 000052E1 		cmp r2, r0								;@ Check if we have the value the uart0 will be at reset
 274 01bc 0000000A 		beq .At2ndAddress
 275              	;@"================================================================"
 276              	;@ ** Auto-Detected failed, not safe to do anything but deadloop **
 277              	;@ Would love to be display an error state but no ability on Pi
 278              	;@"================================================================"
 279              	.pi_detect_fail:
 280 01c0 FEFFFFEA 	    b .pi_detect_fail
 281              	;@"================================================================"
 282              	;@  Raspberry PI IO base address was detected as 0x3f000000
ARM GAS  C:\Users\ldebo\AppData\Local\Temp\ccrazFu5.s 			page 6


 283              	;@  RPi_IO_Base_Addr => 0x3f000000
 284              	;@"================================================================"
 285              	.At2ndAddress:
 286 01c4 10119FE5 		ldr r1, =RPi_BusAlias
 287 01c8 0301A0E3 		mov	r0, #0xC0000000
 288 01cc 000081E5 		str	r0, [r1]							;@ Hold bus alias
 289              	;@ Pi2 address 0x3f000000
 290 01d0 08119FE5 		ldr r1, =RPi_IO_Base_Addr
 291 01d4 3F04A0E3 		mov	r0, #0x3f000000						;@ Hold the detected address
 292 01d8 000081E5 		str	r0, [r1]
 293              	.autodetect_done:
 294              	;@"================================================================"
 295              	;@  We are getting close to handing over to C so we need to copy the 
 296              	;@  ISR table to position 0x0000 so interrupts can be used if wanted 
 297              	;@"================================================================"
 298 01dc 04019FE5 		ldr r0, = _isr_Table					;@ Address of isr_Table
 299 01e0 0010A0E3 		mov     r1, #0x0000						;@ Destination 0x0000
 300 01e4 FC03B0E8 	    ldmia   r0!,{r2, r3, r4, r5, r6, r7, r8, r9}
 301 01e8 FC03A1E8 	    stmia   r1!,{r2, r3, r4, r5, r6, r7, r8, r9}
 302 01ec FC03B0E8 	    ldmia   r0!,{r2, r3, r4, r5, r6, r7, r8, r9}
 303 01f0 FC03A1E8 	    stmia   r1!,{r2, r3, r4, r5, r6, r7, r8, r9}
 304              	;@"================================================================"
 305              	;@ Now Clear the .BSS segment as the C compiler expects us to do
 306              	;@"================================================================"
 307 01f4 F0009FE5 		ldr   r0, =__bss_start__
 308 01f8 F0109FE5 		ldr   r1, =__bss_end__	
 309 01fc 0020A0E3 		mov   r2, #0
 310              	.clear_bss:
 311 0200 010050E1 	    cmp   r0, r1
 312 0204 020000AA 	    bge   .clear_bss_exit
 313 0208 002080E5 	    str   r2, [r0]
 314 020c 040080E2 		add   r0, r0, #4
 315 0210 FAFFFFEA 	    b .clear_bss
 316              	.clear_bss_exit:
 317              	;@"================================================================"
 318              	;@ Bring Core 1,2,3 to secondary spin if not an ARM6 and bootloaded
 319              	;@"================================================================"
 320 0214 100F10EE 		mrc p15,0,r0,c0,c0,0					;@ Read Main ID Register
 321 0218 74109FE5 		ldr r1, =#ARM6_CPU_ID					;@ fetch ARM6_CPU_ID
 322 021c 000051E1 		cmp r1, r0								;@ Check for match
 323 0220 1600000A 		beq .NoMultiCoreSetup					;@ ARM6 jumps as no multicore
 324 0224 94109FE5 		ldr r1, =RPi_BootAddr					;@ Address to hold Boot address
 325 0228 000091E5 		ldr r0, [r1]							;@ Fetch bootAddress
 326 022c 0219A0E3 		ldr r1, =#0x8000						;@ Check against 0x8000
 327 0230 000051E1 		cmp r1, r0								;@ Check for match	
 328 0234 1100001A 		bne .NoMultiCoreSetup					;@ Not bootladed so jump multicore setup
 329 0238 0111A0E3 	 	mov	r1, #1073741824						;@ 0x40000000
 330 023c B0209FE5 	    ldr r2, =multicore_start				;@ Address of CoreSetup call
 331 0240 9C2081E5 		str	r2, [r1, #156]						;@ Write ExtraCoreSetup to 0x4000009C which signals core1 to jump
 332 0244 70309FE5 	 	ldr r3, =RPi_CoresReady					;@ Address of CoreReady count
 333              	.WaitCore1ACK:
 334 0248 001093E5 		ldr	r1, [r3]							;@ Read CoreReady
 335 024c 020051E3 		cmp	r1, #2								;@ Wait for setting of second core ready
 336 0250 FCFFFF0A 		beq	.WaitCore1ACK						;@ Core1 not ready so read again
 337 0254 0111A0E3 	 	mov	r1, #1073741824						;@ 0x40000000
 338 0258 94209FE5 	    ldr r2, =multicore_start				;@ Address of CoreSetup call
 339 025c AC2081E5 		str	r2, [r1, #172]						;@ Write ExtraCoreSetup to 0x400000AC which signals core2 to jump
ARM GAS  C:\Users\ldebo\AppData\Local\Temp\ccrazFu5.s 			page 7


 340              	.WaitCore2ACK:
 341 0260 001093E5 		ldr	r1, [r3]							;@ Read CoreReady count
 342 0264 030051E3 		cmp	r1, #3								;@ Wair for setting of third core ready
 343 0268 FCFFFF0A 		beq	.WaitCore2ACK						;@ Core2 not ready so read again
 344 026c 0111A0E3 	 	mov	r1, #1073741824						;@ 0x40000000
 345 0270 BC2081E5 		str	r2, [r1, #188]						;@ Write ExtraCoreSetup to 0x400000BC which signals core3 to jump
 346              	.WaitCore3ACK:
 347 0274 001093E5 		ldr	r1, [r3]							;@ Read CoreReady count
 348 0278 040051E3 		cmp	r1, #4								;@ check for ACK
 349 027c FCFFFF0A 		beq	.WaitCore3ACK						;@ Core2 not ready so read again
 350              	.NoMultiCoreSetup:
 351              	;@"================================================================"
 352              	;@ Finally that all done jump to the C compiler entry point
 353              	;@"================================================================"
 354 0280 FEFFFFEB 	   	 bl kernel_main
 355              	hang:
 356 0284 FEFFFFEA 		b hang
 357              	.balign	4
 358 0288 00000000 	.ltorg									;@ Tell assembler ltorg data for this code can go here
 358      00000000 
 358      00000000 
 358      67B70F41 
 358      00000000 
 359              	
 360              	_isr_Table:
 361 02f8 18F09FE5 	    ldr pc, _reset_h
 362 02fc 18F09FE5 	    ldr pc, _undefined_instruction_vector_h
 363 0300 18F09FE5 	    ldr pc, _software_interrupt_vector_h
 364 0304 18F09FE5 	    ldr pc, _prefetch_abort_vector_h
 365 0308 18F09FE5 	    ldr pc, _data_abort_vector_h
 366 030c 18F09FE5 	    ldr pc, _unused_handler_h
 367 0310 18F09FE5 	    ldr pc, _interrupt_vector_h
 368 0314 18F09FE5 	    ldr pc, _fast_interrupt_vector_h
 369              	
 370 0318 00000000 	_reset_h:                           .word   _start
 371 031c 84020000 	_undefined_instruction_vector_h:    .word   hang
 372 0320 84020000 	_software_interrupt_vector_h:       .word   hang
 373 0324 84020000 	_prefetch_abort_vector_h:           .word   hang
 374 0328 84020000 	_data_abort_vector_h:               .word   hang
 375 032c 84020000 	_unused_handler_h:                  .word   hang
 376 0330 1C000000 	_interrupt_vector_h:                .word   _irq_handler_stub
 377 0334 84020000 	_fast_interrupt_vector_h:           .word   hang	
 378              	
 379              	
 380              	/*++++++++++++++++++++++++++++++++++++++++++++++++++++++++++++++++++++++++++}
 381              	{    Modified bootloader Spin loop but tolerant on registers R0-R3 for C    }
 382              	{++++++++++++++++++++++++++++++++++++++++++++++++++++++++++++++++++++++++++*/
 383              	.balign	4
 384              	SecondarySpin:
 385 0338 B00F10EE 		mrc     p15, 0, r0, c0, c0, 5
 386 033c 030010E2 		ands r0, r0, #0x3					    // Make core 2 bit bitmask in R0
 387 0340 44509FE5 		ldr r5, =mbox		
 388 0344 005095E5 		ldr r5, [r5]		@ mbox
 389 0348 0030A0E3 		mov	r3, #0			@ magic
 390 034c 405085E2 		add	r5, #(0x400000CC-0x4000008C)	@ mbox
 391              	SecondarySpinLoop:
 392 0350 004295E7 		ldr	r4, [r5, r0, lsl #4]
ARM GAS  C:\Users\ldebo\AppData\Local\Temp\ccrazFu5.s 			page 8


 393 0354 030054E1 		cmp	r4, r3
 394 0358 FCFFFF0A 		beq	SecondarySpinLoop
 395              	@ clear mailbox
 396 035c 004285E7 		str	r4, [r5, r0, lsl #4]
 397 0360 0000A0E3 		mov	r0, #0
 398 0364 24109FE5 		ldr r1, =machid		
 399 0368 001091E5 		ldr r1, [r1]		@ BCM2708 machine id
 400 036c 20209FE5 		ldr r2, = atags		
 401 0370 002092E5 		ldr r2, [r2]		@ ATAGS
 402 0374 1CE09FE5 		ldr lr, =SecondarySpin
 403 0378 14FF2FE1 		bx	r4
 404 037c EDFFFFEA 		b SecondarySpin
 405 0380 8C000040 	mbox: 	.4byte 0x4000008C
 406 0384 420C0000 	machid:	.4byte 3138
 407 0388 00010000 	atags:  .4byte 0x100
 408              	.balign	4
 409 038c 80030000 	.ltorg										;@ Tell assembler ltorg data for this code can go here
 409      84030000 
 409      88030000 
 409      38030000 
 410              	
 411              	.globl RPi_CpuIdString
 412              	RPi_CpuIdString:
 413 039c 34009FE5 		ldr r0, =ARM6_STR						
 414 03a0 102F10EE 		mrc p15,0,r2,c0,c0,0					;@ Read Main ID Register
 415 03a4 30109FE5 		ldr r1, =#ARM6_CPU_ID					;@ Fetch ARM6_CPU_ID
 416 03a8 020051E1 		cmp r1, r2								;@ Check for match	
 417 03ac 0800000A 		beq CpuIdStringDone
 418 03b0 28009FE5 		ldr r0, =ARM7_STR
 419 03b4 28109FE5 		ldr r1, =#ARM7_CPU_ID					;@ Fetch ARM7_CPU_ID
 420 03b8 020051E1 		cmp r1, r2								;@ Check for match
 421 03bc 0400000A 		beq CpuIdStringDone
 422 03c0 20009FE5 		ldr r0, =ARM8_STR
 423 03c4 20109FE5 		ldr r1, =#ARM8_CPU_ID					;@ Fetch ARM8_CPU_ID
 424 03c8 020051E1 		cmp r1, r2								;@ Check for match
 425 03cc 0000000A 		beq CpuIdStringDone	
 426 03d0 18009FE5 		ldr r0, =ARMX_STR
 427              	CpuIdStringDone:
 428 03d4 1EFF2FE1 		bx  lr									;@ Return
 429              	.balign	4
 430 03d8 00000000 	.ltorg										;@ Tell assembler ltorg data for this code can go here
 430      67B70F41 
 430      0E000000 
 430      73C00F41 
 430      19000000 
 431              	
 432              	.globl EnableInterrupts
 433              	EnableInterrupts:
 434 03f4 800008F1 		cpsie i									;@ Enable IRQ
 435 03f8 1EFF2FE1 		bx  lr									;@ Return
 436              	
 437              	.globl DisableInterrupts
 438              	DisableInterrupts:
 439 03fc 80000CF1 	    cpsid i									;@ Disable IRQ
 440 0400 1EFF2FE1 		bx  lr									;@ Return
 441              	
 442              	
ARM GAS  C:\Users\ldebo\AppData\Local\Temp\ccrazFu5.s 			page 9


 443              	.globl CoreExecute
 444              	CoreExecute:
 445 0404 FF0010E2 		ands r0, r0, #255
 446 0408 0700000A 		beq CoreExecuteFail
 447 040c 20309FE5 		ldr r3, =RPi_CoresReady
 448 0410 002093E5 		ldr r2, [r3]							// Fetch cores ready count
 449 0414 020050E1 		cmp r0, r2
 450 0418 0300002A 		bcs	CoreExecuteFail
 451 041c 14309FE5 		ldr r3, =#0x4000008C					// Load address of spins
 452 0420 001283E7 		str r1, [r3, r0, lsl #4]				// Save caller address
 453 0424 0100A0E3 		mov r0, #1
 454 0428 1EFF2FE1 		bx  lr
 455              	CoreExecuteFail:
 456 042c 0000A0E3 		mov r0, #0
 457 0430 1EFF2FE1 		bx  lr
 458              	.balign	4
 459 0434 00000000 	.ltorg										// Tell assembler ltorg data for this code can go here
 459      8C000040 
 460              	
 461              	/*++++++++++++++++++++++++++++++++++++++++++++++++++++++++++++++++++++++++++}
 462              	{			MEMORY HELPER ROUTINES PROVIDE BY RPi-SmartStart API		    }
 463              	{++++++++++++++++++++++++++++++++++++++++++++++++++++++++++++++++++++++++++*/
 464              	
 465              	/* "PROVIDE C FUNCTION: uint32_t ARMaddrToGPUaddr (void* ARMaddress);" */
 466              	.section .text.ARMaddrToGPUaddr, "ax", %progbits
 467              	.balign	4
 468              	.globl ARMaddrToGPUaddr;		
 469              	.type ARMaddrToGPUaddr, %function
 470              	.syntax unified
 471              	.arm
 472              	;@"================================================================"
 473              	;@ ARMaddrToGPUaddr -- Composite Pi1, Pi2 & Pi3 code
 474              	;@ C Function: uint32_t ARMaddrToGPUaddr (void* ARMaddress);
 475              	;@ Entry: R0 will have ARMAddress value
 476              	;@"================================================================"
 477              	ARMaddrToGPUaddr:
 478 0000 08109FE5 		ldr r1, =RPi_BusAlias
 479 0004 001091E5 	    ldr r1,[r1]								;@ Fetch bus alias	
 480 0008 010080E1 		orr r0, r0, r1							;@ Create bus address
 481 000c 1EFF2FE1 		bx   lr									;@ Return
 482              	.balign	4
 483 0010 00000000 	.ltorg										;@ Tell assembler ltorg data for this code can go here
 484              	.size	ARMaddrToGPUaddr, .-ARMaddrToGPUaddr
 485              	
 486              	
 487              	/* "PROVIDE C FUNCTION: uint32_t GPUaddrToARMaddr (uint32_t BUSaddress);" */
 488              	.section .text.GPUaddrToARMaddr, "ax", %progbits
 489              	.balign	4
 490              	.globl GPUaddrToARMaddr;		
 491              	.type GPUaddrToARMaddr, %function
 492              	.syntax unified
 493              	.arm
 494              	;@"================================================================"
 495              	;@ GPUaddrToARMaddr -- Composite Pi1, Pi2 & Pi3 code
 496              	;@ C Function: uint32_t GPUaddrToARMaddr (uint32_t BUSaddress);
 497              	;@ Entry: R0 will have GPUAddress value
 498              	;@"================================================================"
ARM GAS  C:\Users\ldebo\AppData\Local\Temp\ccrazFu5.s 			page 10


 499              	GPUaddrToARMaddr:
 500 0000 08109FE5 		ldr r1, =RPi_BusAlias
 501 0004 001091E5 	    ldr r1,[r1]								;@ Fetch bus alias	
 502 0008 0100C0E1 		bic r0, r0, r1							;@ Create arm address
 503 000c 1EFF2FE1 		bx   lr									;@ Return
 504              	.balign	4
 505 0010 00000000 	.ltorg										;@ Tell assembler ltorg data for this code can go here
 506              	.size	GPUaddrToARMaddr, .-GPUaddrToARMaddr
 507              	
 508              	/* Provide weak reference c_irq_handler so if user does not use it functions as dummy */
 509              	.weak c_irq_handler
 510              	c_irq_handler:
 511 0014 1EFF2FE1 		bx  lr									;@ Return
 512              	
 513              	/* Provide weak reference c_irq_identify_and_clear_source so if user does not use it functions as d
 514              	.weak c_irq_identify_and_clear_source
 515              	c_irq_identify_and_clear_source:
 516 0018 1EFF2FE1 		bx  lr									;@ Return
 517              	
 518              	/* Re-entrant interrupt handler stub */
 519              	/* http://infocenter.arm.com/help/index.jsp?topic=/com.arm.doc.faqs/ka13552.html */
 520              	_irq_handler_stub:
 521 001c 04E04EE2 	    sub lr, lr, #4							;@ Use SRS to save LR_irq and SPSP_irq
 522 0020 13056DF9 	    srsfd sp!, #0x13						;@ on to the SVC mode stack
 523              	
 524 0024 130002F1 	    cps #0x13								;@ Switch to SVC mode
 525 0028 0F102DE9 	    push {r0-r3, r12}						;@ Store AAPCS regs on to SVC stack
 526              	
 527 002c 0D10A0E1 	    mov r1, sp
 528 0030 041001E2 	    and r1, r1, #4							;@ Ensure 8-byte stack alignment…
 529 0034 01D04DE0 	    sub sp, sp, r1							;@ …adjust stack as necessary
 530 0038 02402DE9 	    push {r1, lr}							;@ Store adjustment and LR_svc
 531              	
 532 003c FEFFFFEB 	    bl c_irq_identify_and_clear_source		;@ Clear IRQ source
 533 0040 800008F1 	    cpsie i									;@ Enable IRQ
 534 0044 FEFFFFEB 	    bl c_irq_handler						;@ Branch to 2nd level handler
 535 0048 80000CF1 	    cpsid i									;@ Disable IRQ
 536              	
 537 004c 0240BDE8 	    pop {r1, lr}							;@ Restore LR_svc
 538 0050 01D08DE0 	    add sp, sp, r1							;@ Un-adjust stack
 539              	
 540 0054 0F10BDE8 	    pop {r0-r3, r12}						;@ Restore AAPCS registers
 541 0058 000ABDF8 	    rfefd sp!								;@ Return from the SVC mode stack
 542              	
 543              	.section .text._sbrk, "ax", %progbits
 544              	.balign	4
 545              	.globl _sbrk;			
 546              	.type _sbrk, %function
 547              	.syntax unified
 548              	.arm
 549              	_sbrk:
 550 0000 1C209FE5 	        ldr     r2, =RPi_Heap
 551 0004 1C109FE5 	        ldr     r1, =_end
 552 0008 003092E5 	        ldr     r3, [r2]
 553 000c 000053E3 	        cmp     r3, #0
 554 0010 0130A001 	        moveq   r3, r1
 555 0014 000083E0 	        add     r0, r3, r0
ARM GAS  C:\Users\ldebo\AppData\Local\Temp\ccrazFu5.s 			page 11


 556 0018 000082E5 	        str     r0, [r2]
 557 001c 0300A0E1 	        mov     r0, r3
 558 0020 1EFF2FE1 	        bx      lr
 559              	.balign	4
 560 0024 00000000 	.ltorg										;@ Tell assembler ltorg data for this code can go here
 560      00000000 
 561              	.size	_sbrk, .-_sbrk
 562              	
 563              	/*==========================================================================}
 564              	;{					  CPU STRING CONSTANT DEFINITIONS					    }
 565              	;{=========================================================================*/
 566              	.section ".rodata.cpuid", "a", %progbits
 567              	.balign	4
 568 0000 61726D31 	ARM6_STR: .string "arm1176jzf-s\0"
 568      3137366A 
 568      7A662D73 
 568      0000
 569 000e 636F7274 	ARM7_STR: .string "cortex-a7\0"
 569      65782D61 
 569      370000
 570 0019 636F7274 	ARM8_STR: .string "cortex-a53\0"
 570      65782D61 
 570      35330000 
 571 0025 756E6B6E 	ARMX_STR: .string "unknown ARM cpu\0"
 571      6F776E20 
 571      41524D20 
 571      63707500 
 571      00
 572              	
 573              	/****************************************************************
 574              	       	   DATA FOR SMARTSTART32 EXPOSED TO INTERFACE 
 575              	****************************************************************/
 576              	.section ".data.smartstart32", "aw"
 577              	.balign 4
 578              	
 579              	.globl RPi_IO_Base_Addr;				// Make sure Pi_IO_Base_Addr label is global
 580 0000 00000000 	RPi_IO_Base_Addr : .4byte 0;			// Peripheral Base addr is 4 byte variable in 32bit mode
 581              	
 582              	.globl RPi_BootAddr;					// Make sure RPi_BootAddr label is global
 583 0004 00000000 	RPi_BootAddr : .4byte 0;				// CPU boot address is 4 byte variable in 32bit mode
 584              	
 585              	.globl RPi_CoresReady;					// Make sure RPi_CoresReady label is global
 586 0008 00000000 	RPi_CoresReady : .4byte 0;				// CPU cores ready for use is 4 byte variable in 32bit mode
 587              	
 588              	.globl RPi_CPUBootMode;					// Make sure RPi_CPUBootMode label is global
 589 000c 00000000 	RPi_CPUBootMode : .4byte 0;				// CPU Boot Mode is 4 byte variable in 32bit mode
 590              	
 591              	.globl RPi_CpuId;						// Make sure RPi_CpuId label is global
 592 0010 00000000 	RPi_CpuId : .4byte 0;					// CPU Id is 4 byte variable in 32bit mode
 593              	
 594              	.globl RPi_CompileMode;					// Make sure RPi_CompileMode label is global
 595 0014 00000000 	RPi_CompileMode : .4byte 0;				// Compile mode is 4 byte variable in 32bit mode...
ARM GAS  C:\Users\ldebo\AppData\Local\Temp\ccrazFu5.s 			page 12


DEFINED SYMBOLS
      SmartStart32.S:38     *ABS*:410fb767 ARM6_CPU_ID
      SmartStart32.S:39     *ABS*:410fc073 ARM7_CPU_ID
      SmartStart32.S:40     *ABS*:410fd034 ARM8_CPU_ID
      SmartStart32.S:45     *ABS*:00000011 CPU_FIQMODE
      SmartStart32.S:46     *ABS*:00000012 CPU_IRQMODE
      SmartStart32.S:47     *ABS*:00000013 CPU_SVCMODE
      SmartStart32.S:48     *ABS*:0000001a CPU_HYPMODE
      SmartStart32.S:59     *ABS*:000000d1 CPU_FIQMODE_VALUE
      SmartStart32.S:60     *ABS*:000000d2 CPU_IRQMODE_VALUE
      SmartStart32.S:61     *ABS*:000000d3 CPU_SVCMODE_VALUE
      SmartStart32.S:67     .data.smartstart:00000000 $d
      SmartStart32.S:69     .data.smartstart:00000000 RPi_BusAlias
      SmartStart32.S:74     .data.smartstart:00000004 RPi_CPUCurrentMode
      SmartStart32.S:77     .data.smartstart:00000008 RPi_Heap
      SmartStart32.S:80     .text.startup:00000000 $a
      SmartStart32.S:84     .text.startup:00000000 _start
      SmartStart32.S:94     .text.startup:0000000c multicore_start
      SmartStart32.S:109    .text.startup:00000034 .NotInHypMode
      SmartStart32.S:107    .text.startup:0000002c $d
      SmartStart32.S:113    .text.startup:00000034 $a
      SmartStart32.S:136    .text.startup:00000090 set_svc_stack
      SmartStart32.S:163    .text.startup:000000d8 .free_to_enable_fpu1
      SmartStart32.S:172    *ABS*:00000004 SCTLR_ENABLE_DATA_CACHE
      SmartStart32.S:173    *ABS*:00000800 SCTLR_ENABLE_BRANCH_PREDICTION
      SmartStart32.S:174    *ABS*:00001000 SCTLR_ENABLE_INSTRUCTION_CACHE
      SmartStart32.S:203    .text.startup:00000130 .cpu0_exit_multicore_park
      SmartStart32.S:586    .data.smartstart32:00000008 RPi_CoresReady
      SmartStart32.S:384    .text.startup:00000338 SecondarySpin
      SmartStart32.S:583    .data.smartstart32:00000004 RPi_BootAddr
      SmartStart32.S:589    .data.smartstart32:0000000c RPi_CPUBootMode
      SmartStart32.S:592    .data.smartstart32:00000010 RPi_CpuId
      SmartStart32.S:595    .data.smartstart32:00000014 RPi_CompileMode
      SmartStart32.S:270    .text.startup:000001b0 .not_at_address_1
      SmartStart32.S:580    .data.smartstart32:00000000 RPi_IO_Base_Addr
      SmartStart32.S:293    .text.startup:000001dc .autodetect_done
      SmartStart32.S:285    .text.startup:000001c4 .At2ndAddress
      SmartStart32.S:279    .text.startup:000001c0 .pi_detect_fail
      SmartStart32.S:360    .text.startup:000002f8 _isr_Table
      SmartStart32.S:310    .text.startup:00000200 .clear_bss
      SmartStart32.S:316    .text.startup:00000214 .clear_bss_exit
      SmartStart32.S:350    .text.startup:00000280 .NoMultiCoreSetup
      SmartStart32.S:333    .text.startup:00000248 .WaitCore1ACK
      SmartStart32.S:340    .text.startup:00000260 .WaitCore2ACK
      SmartStart32.S:346    .text.startup:00000274 .WaitCore3ACK
      SmartStart32.S:355    .text.startup:00000284 hang
      SmartStart32.S:358    .text.startup:00000288 $d
      SmartStart32.S:370    .text.startup:00000318 _reset_h
      SmartStart32.S:361    .text.startup:000002f8 $a
      SmartStart32.S:371    .text.startup:0000031c _undefined_instruction_vector_h
      SmartStart32.S:372    .text.startup:00000320 _software_interrupt_vector_h
      SmartStart32.S:373    .text.startup:00000324 _prefetch_abort_vector_h
      SmartStart32.S:374    .text.startup:00000328 _data_abort_vector_h
      SmartStart32.S:375    .text.startup:0000032c _unused_handler_h
      SmartStart32.S:376    .text.startup:00000330 _interrupt_vector_h
      SmartStart32.S:377    .text.startup:00000334 _fast_interrupt_vector_h
      SmartStart32.S:370    .text.startup:00000318 $d
ARM GAS  C:\Users\ldebo\AppData\Local\Temp\ccrazFu5.s 			page 13


      SmartStart32.S:520    .text.GPUaddrToARMaddr:0000001c _irq_handler_stub
      SmartStart32.S:383    .text.startup:00000338 $a
      SmartStart32.S:405    .text.startup:00000380 mbox
      SmartStart32.S:391    .text.startup:00000350 SecondarySpinLoop
      SmartStart32.S:406    .text.startup:00000384 machid
      SmartStart32.S:407    .text.startup:00000388 atags
      SmartStart32.S:405    .text.startup:00000380 $d
      SmartStart32.S:409    .text.startup:0000038c $d
      SmartStart32.S:412    .text.startup:0000039c RPi_CpuIdString
      SmartStart32.S:568    .rodata.cpuid:00000000 ARM6_STR
      SmartStart32.S:413    .text.startup:0000039c $a
      SmartStart32.S:427    .text.startup:000003d4 CpuIdStringDone
      SmartStart32.S:569    .rodata.cpuid:0000000e ARM7_STR
      SmartStart32.S:570    .rodata.cpuid:00000019 ARM8_STR
      SmartStart32.S:571    .rodata.cpuid:00000025 ARMX_STR
      SmartStart32.S:430    .text.startup:000003d8 $d
      SmartStart32.S:433    .text.startup:000003f4 EnableInterrupts
      SmartStart32.S:434    .text.startup:000003f4 $a
      SmartStart32.S:438    .text.startup:000003fc DisableInterrupts
      SmartStart32.S:444    .text.startup:00000404 CoreExecute
      SmartStart32.S:455    .text.startup:0000042c CoreExecuteFail
      SmartStart32.S:459    .text.startup:00000434 $d
      SmartStart32.S:467    .text.ARMaddrToGPUaddr:00000000 $a
      SmartStart32.S:477    .text.ARMaddrToGPUaddr:00000000 ARMaddrToGPUaddr
      SmartStart32.S:483    .text.ARMaddrToGPUaddr:00000010 $d
      SmartStart32.S:489    .text.GPUaddrToARMaddr:00000000 $a
      SmartStart32.S:499    .text.GPUaddrToARMaddr:00000000 GPUaddrToARMaddr
      SmartStart32.S:505    .text.GPUaddrToARMaddr:00000010 $d
      SmartStart32.S:510    .text.GPUaddrToARMaddr:00000014 c_irq_handler
      SmartStart32.S:511    .text.GPUaddrToARMaddr:00000014 $a
      SmartStart32.S:515    .text.GPUaddrToARMaddr:00000018 c_irq_identify_and_clear_source
      SmartStart32.S:544    .text._sbrk:00000000 $a
      SmartStart32.S:549    .text._sbrk:00000000 _sbrk
      SmartStart32.S:560    .text._sbrk:00000024 $d
      SmartStart32.S:567    .rodata.cpuid:00000000 $d
      SmartStart32.S:577    .data.smartstart32:00000000 $d

UNDEFINED SYMBOLS
__SVC_stack_core0
__FIQ_stack_core0
__IRQ_stack_core0
__SVC_stack_core1
__FIQ_stack_core1
__IRQ_stack_core1
__SVC_stack_core2
__FIQ_stack_core2
__IRQ_stack_core2
__SVC_stack_core3
__FIQ_stack_core3
__IRQ_stack_core3
__bss_start__
__bss_end__
kernel_main
_end
ARM GAS  C:\Users\ldebo\AppData\Local\Temp\ccrazFu5.s 			page 1


   1              		.arch armv7-a
   2              		.arch_extension virt
   3              		.arch_extension idiv
   4              		.arch_extension sec
   5              		.arch_extension mp
   6              		.eabi_attribute 28, 1
   7              		.eabi_attribute 20, 1
   8              		.eabi_attribute 21, 1
   9              		.eabi_attribute 23, 3
  10              		.eabi_attribute 24, 1
  11              		.eabi_attribute 25, 1
  12              		.eabi_attribute 26, 1
  13              		.eabi_attribute 30, 2
  14              		.eabi_attribute 34, 0
  15              		.eabi_attribute 18, 4
  16              		.file	"rpi-SmartStart.c"
  17              		.text
  18              		.align	2
  19              		.syntax unified
  20              		.arm
  21              		.fpu neon
  22              		.type	ClearArea16, %function
  23              	ClearArea16:
  24              		@ args = 4, pretend = 0, frame = 0
  25              		@ frame_needed = 0, uses_anonymous_args = 0
  26 0000 F0472DE9 		push	{r4, r5, r6, r7, r8, r9, r10, lr}
  27 0004 20909DE5 		ldr	r9, [sp, #32]
  28 0008 400490E8 		ldm	r0, {r6, r10}
  29 000c 029059E0 		subs	r9, r9, r2
  30 0010 921A2EE0 		mla	lr, r2, r10, r1
  31 0014 2A40D0E5 		ldrb	r4, [r0, #42]	@ zero_extendqisi2
  32 0018 29C0D0E5 		ldrb	ip, [r0, #41]	@ zero_extendqisi2
  33 001c 2850D0E5 		ldrb	r5, [r0, #40]	@ zero_extendqisi2
  34 0020 8E6086E0 		add	r6, r6, lr, lsl #1
  35 0024 F087BD08 		popeq	{r4, r5, r6, r7, r8, r9, r10, pc}
  36 0028 013053E0 		subs	r3, r3, r1
  37 002c 8AA0A0E1 		lsl	r10, r10, #1
  38 0030 F087BD08 		popeq	{r4, r5, r6, r7, r8, r9, r10, pc}
  39 0034 2CC1A0E1 		lsr	ip, ip, #2
  40 0038 0070A0E3 		mov	r7, #0
  41 003c A441A0E1 		lsr	r4, r4, #3
  42 0040 07E00CE2 		and	lr, ip, #7
  43 0044 A551A0E1 		lsr	r5, r5, #3
  44 0048 8380A0E1 		lsl	r8, r3, #1
  45 004c 8EE2A0E1 		lsl	lr, lr, #5
  46 0050 ACC1A0E1 		lsr	ip, ip, #3
  47              	.L3:
  48 0054 080086E0 		add	r0, r6, r8
  49 0058 0620A0E1 		mov	r2, r6
  50              	.L4:
  51 005c 0130D2E5 		ldrb	r3, [r2, #1]	@ zero_extendqisi2
  52 0060 022082E2 		add	r2, r2, #2
  53 0064 0E1085E1 		orr	r1, r5, lr
  54 0068 0730C3E3 		bic	r3, r3, #7
  55 006c 0C3083E1 		orr	r3, r3, ip
  56 0070 9431C7E7 		bfi	r3, r4, #3, #5
  57 0074 013042E5 		strb	r3, [r2, #-1]
ARM GAS  C:\Users\ldebo\AppData\Local\Temp\ccrazFu5.s 			page 2


  58 0078 021042E5 		strb	r1, [r2, #-2]
  59 007c 020050E1 		cmp	r0, r2
  60 0080 F5FFFF1A 		bne	.L4
  61 0084 0A6086E0 		add	r6, r6, r10
  62 0088 017087E2 		add	r7, r7, #1
  63 008c 090057E1 		cmp	r7, r9
  64 0090 EFFFFF1A 		bne	.L3
  65 0094 F087BDE8 		pop	{r4, r5, r6, r7, r8, r9, r10, pc}
  66              		.size	ClearArea16, .-ClearArea16
  67              		.align	2
  68              		.syntax unified
  69              		.arm
  70              		.fpu neon
  71              		.type	VertLine16, %function
  72              	VertLine16:
  73              		@ args = 0, pretend = 0, frame = 0
  74              		@ frame_needed = 0, uses_anonymous_args = 0
  75 0098 F0472DE9 		push	{r4, r5, r6, r7, r8, r9, r10, lr}
  76 009c 000051E3 		cmp	r1, #0
  77 00a0 045090E5 		ldr	r5, [r0, #4]
  78 00a4 149090E5 		ldr	r9, [r0, #20]
  79 00a8 8550A0E1 		lsl	r5, r5, #1
  80 00ac 990503E0 		mul	r3, r9, r5
  81 00b0 10E090E5 		ldr	lr, [r0, #16]
  82 00b4 00C090E5 		ldr	ip, [r0]
  83 00b8 8E3083E0 		add	r3, r3, lr, lsl #1
  84 00bc 2260D0E5 		ldrb	r6, [r0, #34]	@ zero_extendqisi2
  85 00c0 2140D0E5 		ldrb	r4, [r0, #33]	@ zero_extendqisi2
  86 00c4 2070D0E5 		ldrb	r7, [r0, #32]	@ zero_extendqisi2
  87 00c8 0C3083E0 		add	r3, r3, ip
  88 00cc 1300000A 		beq	.L18
  89 00d0 2441A0E1 		lsr	r4, r4, #2
  90 00d4 010052E3 		cmp	r2, #1
  91 00d8 078004E2 		and	r8, r4, #7
  92 00dc 00E0A0E3 		mov	lr, #0
  93 00e0 A661A0E1 		lsr	r6, r6, #3
  94 00e4 A771A0E1 		lsr	r7, r7, #3
  95 00e8 A441A0E1 		lsr	r4, r4, #3
  96 00ec 8882A0E1 		lsl	r8, r8, #5
  97 00f0 0D00000A 		beq	.L19
  98              	.L17:
  99 00f4 01C0D3E5 		ldrb	ip, [r3, #1]	@ zero_extendqisi2
 100 00f8 01E08EE2 		add	lr, lr, #1
 101 00fc 0E0051E1 		cmp	r1, lr
 102 0100 07C0CCE3 		bic	ip, ip, #7
 103 0104 04C08CE1 		orr	ip, ip, r4
 104 0108 96C1C7E7 		bfi	ip, r6, #3, #5
 105 010c 08A087E1 		orr	r10, r7, r8
 106 0110 01C0C3E5 		strb	ip, [r3, #1]
 107 0114 00A0C3E5 		strb	r10, [r3]
 108 0118 053043E0 		sub	r3, r3, r5
 109 011c F4FFFF1A 		bne	.L17
 110              	.L18:
 111 0120 919221E0 		mla	r1, r1, r2, r9
 112 0124 141080E5 		str	r1, [r0, #20]
 113 0128 F087BDE8 		pop	{r4, r5, r6, r7, r8, r9, r10, pc}
 114              	.L19:
ARM GAS  C:\Users\ldebo\AppData\Local\Temp\ccrazFu5.s 			page 3


 115 012c 01C0D3E5 		ldrb	ip, [r3, #1]	@ zero_extendqisi2
 116 0130 01E08EE2 		add	lr, lr, #1
 117 0134 0E0051E1 		cmp	r1, lr
 118 0138 07C0CCE3 		bic	ip, ip, #7
 119 013c 04C08CE1 		orr	ip, ip, r4
 120 0140 96C1C7E7 		bfi	ip, r6, #3, #5
 121 0144 08A087E1 		orr	r10, r7, r8
 122 0148 01C0C3E5 		strb	ip, [r3, #1]
 123 014c 00A0C3E5 		strb	r10, [r3]
 124 0150 053083E0 		add	r3, r3, r5
 125 0154 F4FFFF1A 		bne	.L19
 126 0158 F0FFFFEA 		b	.L18
 127              		.size	VertLine16, .-VertLine16
 128              		.align	2
 129              		.syntax unified
 130              		.arm
 131              		.fpu neon
 132              		.type	HorzLine16, %function
 133              	HorzLine16:
 134              		@ args = 0, pretend = 0, frame = 0
 135              		@ frame_needed = 0, uses_anonymous_args = 0
 136 015c F0472DE9 		push	{r4, r5, r6, r7, r8, r9, r10, lr}
 137 0160 000051E3 		cmp	r1, #0
 138 0164 109090E5 		ldr	r9, [r0, #16]
 139 0168 04C090E5 		ldr	ip, [r0, #4]
 140 016c 14E090E5 		ldr	lr, [r0, #20]
 141 0170 8930A0E1 		lsl	r3, r9, #1
 142 0174 8CC0A0E1 		lsl	ip, ip, #1
 143 0178 9E3C2CE0 		mla	ip, lr, ip, r3
 144 017c 003090E5 		ldr	r3, [r0]
 145 0180 2250D0E5 		ldrb	r5, [r0, #34]	@ zero_extendqisi2
 146 0184 2140D0E5 		ldrb	r4, [r0, #33]	@ zero_extendqisi2
 147 0188 2060D0E5 		ldrb	r6, [r0, #32]	@ zero_extendqisi2
 148 018c 03C08CE0 		add	ip, ip, r3
 149 0190 1200000A 		beq	.L27
 150 0194 2441A0E1 		lsr	r4, r4, #2
 151 0198 00E0A0E3 		mov	lr, #0
 152 019c A551A0E1 		lsr	r5, r5, #3
 153 01a0 077004E2 		and	r7, r4, #7
 154 01a4 A661A0E1 		lsr	r6, r6, #3
 155 01a8 A441A0E1 		lsr	r4, r4, #3
 156 01ac 8772A0E1 		lsl	r7, r7, #5
 157 01b0 8280A0E1 		lsl	r8, r2, #1
 158              	.L26:
 159 01b4 0130DCE5 		ldrb	r3, [ip, #1]	@ zero_extendqisi2
 160 01b8 01E08EE2 		add	lr, lr, #1
 161 01bc 0E0051E1 		cmp	r1, lr
 162 01c0 0730C3E3 		bic	r3, r3, #7
 163 01c4 043083E1 		orr	r3, r3, r4
 164 01c8 9531C7E7 		bfi	r3, r5, #3, #5
 165 01cc 07A086E1 		orr	r10, r6, r7
 166 01d0 0130CCE5 		strb	r3, [ip, #1]
 167 01d4 00A0CCE5 		strb	r10, [ip]
 168 01d8 08C08CE0 		add	ip, ip, r8
 169 01dc F4FFFF1A 		bne	.L26
 170              	.L27:
 171 01e0 919221E0 		mla	r1, r1, r2, r9
ARM GAS  C:\Users\ldebo\AppData\Local\Temp\ccrazFu5.s 			page 4


 172 01e4 101080E5 		str	r1, [r0, #16]
 173 01e8 F087BDE8 		pop	{r4, r5, r6, r7, r8, r9, r10, pc}
 174              		.size	HorzLine16, .-HorzLine16
 175              		.align	2
 176              		.syntax unified
 177              		.arm
 178              		.fpu neon
 179              		.type	DiagLine16, %function
 180              	DiagLine16:
 181              		@ args = 4, pretend = 0, frame = 16
 182              		@ frame_needed = 0, uses_anonymous_args = 0
 183 01ec F04F2DE9 		push	{r4, r5, r6, r7, r8, r9, r10, fp, lr}
 184 01f0 14D04DE2 		sub	sp, sp, #20
 185 01f4 10C090E5 		ldr	ip, [r0, #16]
 186 01f8 04B090E5 		ldr	fp, [r0, #4]
 187 01fc 04308DE5 		str	r3, [sp, #4]
 188 0200 143090E5 		ldr	r3, [r0, #20]
 189 0204 020051E1 		cmp	r1, r2
 190 0208 08C08DE5 		str	ip, [sp, #8]
 191 020c 03E0A0E1 		mov	lr, r3
 192 0210 0C308DE5 		str	r3, [sp, #12]
 193 0214 0120A031 		movcc	r2, r1
 194 0218 8C30A0E1 		lsl	r3, ip, #1
 195 021c 000051E3 		cmp	r1, #0
 196 0220 8BC0A0E1 		lsl	ip, fp, #1
 197 0224 9E3C2CE0 		mla	ip, lr, ip, r3
 198 0228 003090E5 		ldr	r3, [r0]
 199 022c 2270D0E5 		ldrb	r7, [r0, #34]	@ zero_extendqisi2
 200 0230 2160D0E5 		ldrb	r6, [r0, #33]	@ zero_extendqisi2
 201 0234 2080D0E5 		ldrb	r8, [r0, #32]	@ zero_extendqisi2
 202 0238 03C08CE0 		add	ip, ip, r3
 203 023c 1B00000A 		beq	.L35
 204 0240 38309DE5 		ldr	r3, [sp, #56]
 205 0244 0050A0E3 		mov	r5, #0
 206 0248 2661A0E1 		lsr	r6, r6, #2
 207 024c 05E0A0E1 		mov	lr, r5
 208 0250 8330A0E1 		lsl	r3, r3, #1
 209 0254 079006E2 		and	r9, r6, #7
 210 0258 9B030BE0 		mul	fp, fp, r3
 211 025c 04309DE5 		ldr	r3, [sp, #4]
 212 0260 A771A0E1 		lsr	r7, r7, #3
 213 0264 A881A0E1 		lsr	r8, r8, #3
 214 0268 8992A0E1 		lsl	r9, r9, #5
 215 026c A661A0E1 		lsr	r6, r6, #3
 216 0270 83A0A0E1 		lsl	r10, r3, #1
 217              	.L34:
 218 0274 0130DCE5 		ldrb	r3, [ip, #1]	@ zero_extendqisi2
 219 0278 015085E2 		add	r5, r5, #1
 220 027c 02E08EE0 		add	lr, lr, r2
 221 0280 0730C3E3 		bic	r3, r3, #7
 222 0284 063083E1 		orr	r3, r3, r6
 223 0288 9731C7E7 		bfi	r3, r7, #3, #5
 224 028c 094088E1 		orr	r4, r8, r9
 225 0290 0E0051E1 		cmp	r1, lr
 226 0294 0130CCE5 		strb	r3, [ip, #1]
 227 0298 0040CCE5 		strb	r4, [ip]
 228 029c 0AC08CE0 		add	ip, ip, r10
ARM GAS  C:\Users\ldebo\AppData\Local\Temp\ccrazFu5.s 			page 5


 229 02a0 01E04E90 		subls	lr, lr, r1
 230 02a4 0BC08C90 		addls	ip, ip, fp
 231 02a8 050051E1 		cmp	r1, r5
 232 02ac F0FFFF1A 		bne	.L34
 233              	.L35:
 234 02b0 08109DE9 		ldmib	sp, {r3, ip}
 235 02b4 91C321E0 		mla	r1, r1, r3, ip
 236 02b8 38309DE5 		ldr	r3, [sp, #56]
 237 02bc 0CC09DE5 		ldr	ip, [sp, #12]
 238 02c0 101080E5 		str	r1, [r0, #16]
 239 02c4 92C322E0 		mla	r2, r2, r3, ip
 240 02c8 142080E5 		str	r2, [r0, #20]
 241 02cc 14D08DE2 		add	sp, sp, #20
 242              		@ sp needed
 243 02d0 F08FBDE8 		pop	{r4, r5, r6, r7, r8, r9, r10, fp, pc}
 244              		.size	DiagLine16, .-DiagLine16
 245              		.align	2
 246              		.syntax unified
 247              		.arm
 248              		.fpu neon
 249              		.type	WriteChar16, %function
 250              	WriteChar16:
 251              		@ args = 0, pretend = 0, frame = 24
 252              		@ frame_needed = 0, uses_anonymous_args = 0
 253 02d4 103090E5 		ldr	r3, [r0, #16]
 254 02d8 F04F2DE9 		push	{r4, r5, r6, r7, r8, r9, r10, fp, lr}
 255 02dc 03C0A0E1 		mov	ip, r3
 256 02e0 04A090E5 		ldr	r10, [r0, #4]
 257 02e4 1CD04DE2 		sub	sp, sp, #28
 258 02e8 145090E5 		ldr	r5, [r0, #20]
 259 02ec 00E0A0E1 		mov	lr, r0
 260 02f0 8C20A0E1 		lsl	r2, ip, #1
 261 02f4 8AA0A0E1 		lsl	r10, r10, #1
 262 02f8 00C090E5 		ldr	ip, [r0]
 263 02fc 952A25E0 		mla	r5, r5, r10, r2
 264 0300 10308DE5 		str	r3, [sp, #16]
 265 0304 003000E3 		movw	r3, #:lower16:.LANCHOR0
 266 0308 003040E3 		movt	r3, #:upper16:.LANCHOR0
 267 030c 22B0D0E5 		ldrb	fp, [r0, #34]	@ zero_extendqisi2
 268 0310 14008DE5 		str	r0, [sp, #20]
 269 0314 0C5085E0 		add	r5, r5, ip
 270 0318 2100D0E5 		ldrb	r0, [r0, #33]	@ zero_extendqisi2
 271 031c 01C283E0 		add	ip, r3, r1, lsl #4
 272 0320 2020DEE5 		ldrb	r2, [lr, #32]	@ zero_extendqisi2
 273 0324 0C308CE2 		add	r3, ip, #12
 274 0328 2680DEE5 		ldrb	r8, [lr, #38]	@ zero_extendqisi2
 275 032c 04104CE2 		sub	r1, ip, #4
 276 0330 2570DEE5 		ldrb	r7, [lr, #37]	@ zero_extendqisi2
 277 0334 2490DEE5 		ldrb	r9, [lr, #36]	@ zero_extendqisi2
 278 0338 0C308DE5 		str	r3, [sp, #12]
 279 033c 2031A0E1 		lsr	r3, r0, #2
 280 0340 00308DE5 		str	r3, [sp]
 281 0344 A231A0E1 		lsr	r3, r2, #3
 282 0348 04308DE5 		str	r3, [sp, #4]
 283 034c 0130A0E1 		mov	r3, r1
 284 0350 ABB1A0E1 		lsr	fp, fp, #3
 285 0354 A881A0E1 		lsr	r8, r8, #3
ARM GAS  C:\Users\ldebo\AppData\Local\Temp\ccrazFu5.s 			page 6


 286 0358 2771A0E1 		lsr	r7, r7, #2
 287 035c A991A0E1 		lsr	r9, r9, #3
 288 0360 08108DE5 		str	r1, [sp, #8]
 289              	.L43:
 290 0364 04E0B3E5 		ldr	lr, [r3, #4]!
 291 0368 0000A0E3 		mov	r0, #0
 292 036c 08308DE5 		str	r3, [sp, #8]
 293              	.L42:
 294 0370 00005EE3 		cmp	lr, #0
 295 0374 0710A0E1 		mov	r1, r7
 296 0378 073000E2 		and	r3, r0, #7
 297 037c 0920A0A1 		movge	r2, r9
 298 0380 06009DB8 		ldmlt	sp, {r1, r2}
 299 0384 83C085E0 		add	ip, r5, r3, lsl #1
 300 0388 0840A0E1 		mov	r4, r8
 301 038c 076001E2 		and	r6, r1, #7
 302 0390 0B40A0B1 		movlt	r4, fp
 303 0394 070053E3 		cmp	r3, #7
 304 0398 010080E2 		add	r0, r0, #1
 305 039c 862282E1 		orr	r2, r2, r6, lsl #5
 306 03a0 8320C5E7 		strb	r2, [r5, r3, lsl #1]
 307 03a4 0130DCE5 		ldrb	r3, [ip, #1]	@ zero_extendqisi2
 308 03a8 0A508500 		addeq	r5, r5, r10
 309 03ac 200050E3 		cmp	r0, #32
 310 03b0 0730C3E3 		bic	r3, r3, #7
 311 03b4 A11183E1 		orr	r1, r3, r1, lsr #3
 312 03b8 9411C7E7 		bfi	r1, r4, #3, #5
 313 03bc 8EE0A0E1 		lsl	lr, lr, #1
 314 03c0 0110CCE5 		strb	r1, [ip, #1]
 315 03c4 E9FFFF1A 		bne	.L42
 316 03c8 08309DE5 		ldr	r3, [sp, #8]
 317 03cc 0C209DE5 		ldr	r2, [sp, #12]
 318 03d0 020053E1 		cmp	r3, r2
 319 03d4 E2FFFF1A 		bne	.L43
 320 03d8 10309DE5 		ldr	r3, [sp, #16]
 321 03dc 14209DE5 		ldr	r2, [sp, #20]
 322 03e0 083083E2 		add	r3, r3, #8
 323 03e4 103082E5 		str	r3, [r2, #16]
 324 03e8 1CD08DE2 		add	sp, sp, #28
 325              		@ sp needed
 326 03ec F08FBDE8 		pop	{r4, r5, r6, r7, r8, r9, r10, fp, pc}
 327              		.size	WriteChar16, .-WriteChar16
 328              		.align	2
 329              		.syntax unified
 330              		.arm
 331              		.fpu neon
 332              		.type	PutImage16, %function
 333              	PutImage16:
 334              		@ args = 4, pretend = 0, frame = 8
 335              		@ frame_needed = 0, uses_anonymous_args = 0
 336 03f0 F04F2DE9 		push	{r4, r5, r6, r7, r8, r9, r10, fp, lr}
 337 03f4 009052E2 		subs	r9, r2, #0
 338 03f8 048090E5 		ldr	r8, [r0, #4]
 339 03fc 0CD04DE2 		sub	sp, sp, #12
 340 0400 14C090E5 		ldr	ip, [r0, #20]
 341 0404 8880A0E1 		lsl	r8, r8, #1
 342 0408 9C0804E0 		mul	r4, ip, r8
ARM GAS  C:\Users\ldebo\AppData\Local\Temp\ccrazFu5.s 			page 7


 343 040c 10C090E5 		ldr	ip, [r0, #16]
 344 0410 002090E5 		ldr	r2, [r0]
 345 0414 8C4084E0 		add	r4, r4, ip, lsl #1
 346 0418 30B0DDE5 		ldrb	fp, [sp, #48]	@ zero_extendqisi2
 347 041c 024084E0 		add	r4, r4, r2
 348 0420 1700000A 		beq	.L48
 349 0424 000051E3 		cmp	r1, #0
 350 0428 1500000A 		beq	.L48
 351 042c 0160A0E1 		mov	r6, r1
 352 0430 0070A0E3 		mov	r7, #0
 353 0434 0350A0E1 		mov	r5, r3
 354 0438 8130A0E1 		lsl	r3, r1, #1
 355 043c 04308DE5 		str	r3, [sp, #4]
 356              	.L54:
 357 0440 00A0A0E3 		mov	r10, #0
 358              	.L51:
 359 0444 8A00A0E1 		lsl	r0, r10, #1
 360 0448 0220A0E3 		mov	r2, #2
 361 044c 001085E0 		add	r1, r5, r0
 362 0450 01A08AE2 		add	r10, r10, #1
 363 0454 000084E0 		add	r0, r4, r0
 364 0458 FEFFFFEB 		bl	memcpy
 365 045c 0A0056E1 		cmp	r6, r10
 366 0460 F7FFFF1A 		bne	.L51
 367 0464 04309DE5 		ldr	r3, [sp, #4]
 368 0468 00005BE3 		cmp	fp, #0
 369 046c 08404410 		subne	r4, r4, r8
 370 0470 017087E2 		add	r7, r7, #1
 371 0474 08408400 		addeq	r4, r4, r8
 372 0478 070059E1 		cmp	r9, r7
 373 047c 035085E0 		add	r5, r5, r3
 374 0480 EEFFFF1A 		bne	.L54
 375              	.L48:
 376 0484 0CD08DE2 		add	sp, sp, #12
 377              		@ sp needed
 378 0488 F08FBDE8 		pop	{r4, r5, r6, r7, r8, r9, r10, fp, pc}
 379              		.size	PutImage16, .-PutImage16
 380              		.align	2
 381              		.syntax unified
 382              		.arm
 383              		.fpu neon
 384              		.type	ClearArea24, %function
 385              	ClearArea24:
 386              		@ args = 4, pretend = 0, frame = 0
 387              		@ frame_needed = 0, uses_anonymous_args = 0
 388 048c F0472DE9 		push	{r4, r5, r6, r7, r8, r9, r10, lr}
 389 0490 0370A0E3 		mov	r7, #3
 390 0494 20909DE5 		ldr	r9, [sp, #32]
 391 0498 048090E5 		ldr	r8, [r0, #4]
 392 049c 00C090E5 		ldr	ip, [r0]
 393 04a0 921825E0 		mla	r5, r2, r8, r1
 394 04a4 029059E0 		subs	r9, r9, r2
 395 04a8 97C525E0 		mla	r5, r7, r5, ip
 396 04ac F087BD08 		popeq	{r4, r5, r6, r7, r8, r9, r10, pc}
 397 04b0 013053E0 		subs	r3, r3, r1
 398 04b4 970808E0 		mul	r8, r7, r8
 399 04b8 F087BD08 		popeq	{r4, r5, r6, r7, r8, r9, r10, pc}
ARM GAS  C:\Users\ldebo\AppData\Local\Temp\ccrazFu5.s 			page 8


 400 04bc 970307E0 		mul	r7, r7, r3
 401 04c0 286080E2 		add	r6, r0, #40
 402 04c4 00A0A0E3 		mov	r10, #0
 403              	.L63:
 404 04c8 0040A0E3 		mov	r4, #0
 405              	.L64:
 406 04cc 040085E0 		add	r0, r5, r4
 407 04d0 0320A0E3 		mov	r2, #3
 408 04d4 024084E0 		add	r4, r4, r2
 409 04d8 0610A0E1 		mov	r1, r6
 410 04dc FEFFFFEB 		bl	memcpy
 411 04e0 070054E1 		cmp	r4, r7
 412 04e4 F8FFFF1A 		bne	.L64
 413 04e8 085085E0 		add	r5, r5, r8
 414 04ec 01A08AE2 		add	r10, r10, #1
 415 04f0 09005AE1 		cmp	r10, r9
 416 04f4 F3FFFF1A 		bne	.L63
 417 04f8 F087BDE8 		pop	{r4, r5, r6, r7, r8, r9, r10, pc}
 418              		.size	ClearArea24, .-ClearArea24
 419              		.align	2
 420              		.syntax unified
 421              		.arm
 422              		.fpu neon
 423              		.type	VertLine24, %function
 424              	VertLine24:
 425              		@ args = 0, pretend = 0, frame = 0
 426              		@ frame_needed = 0, uses_anonymous_args = 0
 427 04fc F84F2DE9 		push	{r3, r4, r5, r6, r7, r8, r9, r10, fp, lr}
 428 0500 0330A0E3 		mov	r3, #3
 429 0504 045090E5 		ldr	r5, [r0, #4]
 430 0508 0290A0E1 		mov	r9, r2
 431 050c 148090E5 		ldr	r8, [r0, #20]
 432 0510 006051E2 		subs	r6, r1, #0
 433 0514 930505E0 		mul	r5, r3, r5
 434 0518 104090E5 		ldr	r4, [r0, #16]
 435 051c 0070A0E1 		mov	r7, r0
 436 0520 980502E0 		mul	r2, r8, r5
 437 0524 932424E0 		mla	r4, r3, r4, r2
 438 0528 003090E5 		ldr	r3, [r0]
 439 052c 034084E0 		add	r4, r4, r3
 440 0530 0B00000A 		beq	.L77
 441 0534 010059E3 		cmp	r9, #1
 442 0538 00A0A0E3 		mov	r10, #0
 443 053c 20B080E2 		add	fp, r0, #32
 444 0540 0A00000A 		beq	.L78
 445              	.L76:
 446 0544 0400A0E1 		mov	r0, r4
 447 0548 01A08AE2 		add	r10, r10, #1
 448 054c 054044E0 		sub	r4, r4, r5
 449 0550 0320A0E3 		mov	r2, #3
 450 0554 0B10A0E1 		mov	r1, fp
 451 0558 FEFFFFEB 		bl	memcpy
 452 055c 0A0056E1 		cmp	r6, r10
 453 0560 F7FFFF1A 		bne	.L76
 454              	.L77:
 455 0564 968926E0 		mla	r6, r6, r9, r8
 456 0568 146087E5 		str	r6, [r7, #20]
ARM GAS  C:\Users\ldebo\AppData\Local\Temp\ccrazFu5.s 			page 9


 457 056c F88FBDE8 		pop	{r3, r4, r5, r6, r7, r8, r9, r10, fp, pc}
 458              	.L78:
 459 0570 0400A0E1 		mov	r0, r4
 460 0574 01A08AE2 		add	r10, r10, #1
 461 0578 054084E0 		add	r4, r4, r5
 462 057c 0320A0E3 		mov	r2, #3
 463 0580 0B10A0E1 		mov	r1, fp
 464 0584 FEFFFFEB 		bl	memcpy
 465 0588 0A0056E1 		cmp	r6, r10
 466 058c F7FFFF1A 		bne	.L78
 467 0590 F3FFFFEA 		b	.L77
 468              		.size	VertLine24, .-VertLine24
 469              		.align	2
 470              		.syntax unified
 471              		.arm
 472              		.fpu neon
 473              		.type	HorzLine24, %function
 474              	HorzLine24:
 475              		@ args = 0, pretend = 0, frame = 0
 476              		@ frame_needed = 0, uses_anonymous_args = 0
 477 0594 F84F2DE9 		push	{r3, r4, r5, r6, r7, r8, r9, r10, fp, lr}
 478 0598 03A0A0E3 		mov	r10, #3
 479 059c 044090E5 		ldr	r4, [r0, #4]
 480 05a0 0280A0E1 		mov	r8, r2
 481 05a4 107090E5 		ldr	r7, [r0, #16]
 482 05a8 005051E2 		subs	r5, r1, #0
 483 05ac 9A0404E0 		mul	r4, r10, r4
 484 05b0 142090E5 		ldr	r2, [r0, #20]
 485 05b4 0060A0E1 		mov	r6, r0
 486 05b8 9A0703E0 		mul	r3, r10, r7
 487 05bc 923424E0 		mla	r4, r2, r4, r3
 488 05c0 003090E5 		ldr	r3, [r0]
 489 05c4 0090A013 		movne	r9, #0
 490 05c8 9A080A10 		mulne	r10, r10, r8
 491 05cc 034084E0 		add	r4, r4, r3
 492 05d0 20B08012 		addne	fp, r0, #32
 493 05d4 0700000A 		beq	.L86
 494              	.L85:
 495 05d8 0400A0E1 		mov	r0, r4
 496 05dc 019089E2 		add	r9, r9, #1
 497 05e0 0A4084E0 		add	r4, r4, r10
 498 05e4 0320A0E3 		mov	r2, #3
 499 05e8 0B10A0E1 		mov	r1, fp
 500 05ec FEFFFFEB 		bl	memcpy
 501 05f0 090055E1 		cmp	r5, r9
 502 05f4 F7FFFF1A 		bne	.L85
 503              	.L86:
 504 05f8 957825E0 		mla	r5, r5, r8, r7
 505 05fc 105086E5 		str	r5, [r6, #16]
 506 0600 F88FBDE8 		pop	{r3, r4, r5, r6, r7, r8, r9, r10, fp, pc}
 507              		.size	HorzLine24, .-HorzLine24
 508              		.align	2
 509              		.syntax unified
 510              		.arm
 511              		.fpu neon
 512              		.type	DiagLine24, %function
 513              	DiagLine24:
ARM GAS  C:\Users\ldebo\AppData\Local\Temp\ccrazFu5.s 			page 10


 514              		@ args = 4, pretend = 0, frame = 16
 515              		@ frame_needed = 0, uses_anonymous_args = 0
 516 0604 F04F2DE9 		push	{r4, r5, r6, r7, r8, r9, r10, fp, lr}
 517 0608 00B0A0E1 		mov	fp, r0
 518 060c 040090E5 		ldr	r0, [r0, #4]
 519 0610 14D04DE2 		sub	sp, sp, #20
 520 0614 0160A0E1 		mov	r6, r1
 521 0618 0370A0E3 		mov	r7, #3
 522 061c 10109BE5 		ldr	r1, [fp, #16]
 523 0620 00308DE5 		str	r3, [sp]
 524 0624 14309BE5 		ldr	r3, [fp, #20]
 525 0628 970004E0 		mul	r4, r7, r0
 526 062c 020056E1 		cmp	r6, r2
 527 0630 03C0A0E1 		mov	ip, r3
 528 0634 08308DE5 		str	r3, [sp, #8]
 529 0638 0680A031 		movcc	r8, r6
 530 063c 970103E0 		mul	r3, r7, r1
 531 0640 9C3424E0 		mla	r4, ip, r4, r3
 532 0644 00309BE5 		ldr	r3, [fp]
 533 0648 0280A021 		movcs	r8, r2
 534 064c 04108DE5 		str	r1, [sp, #4]
 535 0650 000056E3 		cmp	r6, #0
 536 0654 034084E0 		add	r4, r4, r3
 537 0658 1800000A 		beq	.L94
 538 065c 38309DE5 		ldr	r3, [sp, #56]
 539 0660 00A0A0E3 		mov	r10, #0
 540 0664 0CB08DE5 		str	fp, [sp, #12]
 541 0668 20908BE2 		add	r9, fp, #32
 542 066c 970302E0 		mul	r2, r7, r3
 543 0670 06B0A0E1 		mov	fp, r6
 544 0674 0A50A0E1 		mov	r5, r10
 545 0678 900203E0 		mul	r3, r0, r2
 546 067c 00209DE5 		ldr	r2, [sp]
 547 0680 0360A0E1 		mov	r6, r3
 548 0684 970207E0 		mul	r7, r7, r2
 549              	.L93:
 550 0688 085085E0 		add	r5, r5, r8
 551 068c 0400A0E1 		mov	r0, r4
 552 0690 074084E0 		add	r4, r4, r7
 553 0694 0320A0E3 		mov	r2, #3
 554 0698 0910A0E1 		mov	r1, r9
 555 069c 01A08AE2 		add	r10, r10, #1
 556 06a0 FEFFFFEB 		bl	memcpy
 557 06a4 05005BE1 		cmp	fp, r5
 558 06a8 0B504590 		subls	r5, r5, fp
 559 06ac 06408490 		addls	r4, r4, r6
 560 06b0 0A005BE1 		cmp	fp, r10
 561 06b4 F3FFFF1A 		bne	.L93
 562 06b8 0B60A0E1 		mov	r6, fp
 563 06bc 0CB09DE5 		ldr	fp, [sp, #12]
 564              	.L94:
 565 06c0 00309DE5 		ldr	r3, [sp]
 566 06c4 04209DE5 		ldr	r2, [sp, #4]
 567 06c8 962326E0 		mla	r6, r6, r3, r2
 568 06cc 38309DE5 		ldr	r3, [sp, #56]
 569 06d0 08209DE5 		ldr	r2, [sp, #8]
 570 06d4 10608BE5 		str	r6, [fp, #16]
ARM GAS  C:\Users\ldebo\AppData\Local\Temp\ccrazFu5.s 			page 11


 571 06d8 982328E0 		mla	r8, r8, r3, r2
 572 06dc 14808BE5 		str	r8, [fp, #20]
 573 06e0 14D08DE2 		add	sp, sp, #20
 574              		@ sp needed
 575 06e4 F08FBDE8 		pop	{r4, r5, r6, r7, r8, r9, r10, fp, pc}
 576              		.size	DiagLine24, .-DiagLine24
 577              		.align	2
 578              		.syntax unified
 579              		.arm
 580              		.fpu neon
 581              		.type	WriteChar24, %function
 582              	WriteChar24:
 583              		@ args = 0, pretend = 0, frame = 8
 584              		@ frame_needed = 0, uses_anonymous_args = 0
 585 06e8 F04F2DE9 		push	{r4, r5, r6, r7, r8, r9, r10, fp, lr}
 586 06ec 0330A0E3 		mov	r3, #3
 587 06f0 049090E5 		ldr	r9, [r0, #4]
 588 06f4 0CD04DE2 		sub	sp, sp, #12
 589 06f8 102090E5 		ldr	r2, [r0, #16]
 590 06fc 00B000E3 		movw	fp, #:lower16:.LANCHOR0
 591 0700 930909E0 		mul	r9, r3, r9
 592 0704 144090E5 		ldr	r4, [r0, #20]
 593 0708 0380A0E1 		mov	r8, r3
 594 070c 04208DE5 		str	r2, [sp, #4]
 595 0710 930202E0 		mul	r2, r3, r2
 596 0714 942924E0 		mla	r4, r4, r9, r2
 597 0718 00B040E3 		movt	fp, #:upper16:.LANCHOR0
 598 071c 013183E0 		add	r3, r3, r1, lsl #2
 599 0720 002090E5 		ldr	r2, [r0]
 600 0724 01128BE0 		add	r1, fp, r1, lsl #4
 601 0728 024084E0 		add	r4, r4, r2
 602 072c 04A041E2 		sub	r10, r1, #4
 603 0730 03B18BE0 		add	fp, fp, r3, lsl #2
 604              	.L102:
 605 0734 0420BAE5 		ldr	r2, [r10, #4]!
 606 0738 0030A0E3 		mov	r3, #0
 607              	.L101:
 608 073c 2470D0E5 		ldrb	r7, [r0, #36]	@ zero_extendqisi2
 609 0740 000052E3 		cmp	r2, #0
 610 0744 2560D0E5 		ldrb	r6, [r0, #37]	@ zero_extendqisi2
 611 0748 07C003E2 		and	ip, r3, #7
 612 074c 2070D0B5 		ldrblt	r7, [r0, #32]	@ zero_extendqisi2
 613 0750 013083E2 		add	r3, r3, #1
 614 0754 980C0EE0 		mul	lr, r8, ip
 615 0758 2650D0E5 		ldrb	r5, [r0, #38]	@ zero_extendqisi2
 616 075c 2160D0B5 		ldrblt	r6, [r0, #33]	@ zero_extendqisi2
 617 0760 2250D0B5 		ldrblt	r5, [r0, #34]	@ zero_extendqisi2
 618 0764 07005CE3 		cmp	ip, #7
 619 0768 0E1084E0 		add	r1, r4, lr
 620 076c 0E70C4E7 		strb	r7, [r4, lr]
 621 0770 09408400 		addeq	r4, r4, r9
 622 0774 200053E3 		cmp	r3, #32
 623 0778 0160C1E5 		strb	r6, [r1, #1]
 624 077c 0250C1E5 		strb	r5, [r1, #2]
 625 0780 8220A0E1 		lsl	r2, r2, #1
 626 0784 ECFFFF1A 		bne	.L101
 627 0788 0B005AE1 		cmp	r10, fp
ARM GAS  C:\Users\ldebo\AppData\Local\Temp\ccrazFu5.s 			page 12


 628 078c E8FFFF1A 		bne	.L102
 629 0790 04309DE5 		ldr	r3, [sp, #4]
 630 0794 083083E2 		add	r3, r3, #8
 631 0798 103080E5 		str	r3, [r0, #16]
 632 079c 0CD08DE2 		add	sp, sp, #12
 633              		@ sp needed
 634 07a0 F08FBDE8 		pop	{r4, r5, r6, r7, r8, r9, r10, fp, pc}
 635              		.size	WriteChar24, .-WriteChar24
 636              		.align	2
 637              		.syntax unified
 638              		.arm
 639              		.fpu neon
 640              		.type	PutImage24, %function
 641              	PutImage24:
 642              		@ args = 4, pretend = 0, frame = 0
 643              		@ frame_needed = 0, uses_anonymous_args = 0
 644 07a4 F84F2DE9 		push	{r3, r4, r5, r6, r7, r8, r9, r10, fp, lr}
 645 07a8 0370A0E3 		mov	r7, #3
 646 07ac 048090E5 		ldr	r8, [r0, #4]
 647 07b0 00A052E2 		subs	r10, r2, #0
 648 07b4 14E090E5 		ldr	lr, [r0, #20]
 649 07b8 970808E0 		mul	r8, r7, r8
 650 07bc 10C090E5 		ldr	ip, [r0, #16]
 651 07c0 9E080EE0 		mul	lr, lr, r8
 652 07c4 97EC2CE0 		mla	ip, r7, ip, lr
 653 07c8 006090E5 		ldr	r6, [r0]
 654 07cc 2890DDE5 		ldrb	r9, [sp, #40]	@ zero_extendqisi2
 655 07d0 06608CE0 		add	r6, ip, r6
 656 07d4 1A00000A 		beq	.L118
 657 07d8 000051E3 		cmp	r1, #0
 658 07dc F88FBD08 		popeq	{r3, r4, r5, r6, r7, r8, r9, r10, fp, pc}
 659 07e0 0350A0E1 		mov	r5, r3
 660 07e4 00B0A0E3 		mov	fp, #0
 661 07e8 970107E0 		mul	r7, r7, r1
 662              	.L112:
 663 07ec 0040A0E3 		mov	r4, #0
 664              	.L109:
 665 07f0 041085E0 		add	r1, r5, r4
 666 07f4 0320A0E3 		mov	r2, #3
 667 07f8 040086E0 		add	r0, r6, r4
 668 07fc 024084E0 		add	r4, r4, r2
 669 0800 FEFFFFEB 		bl	memcpy
 670 0804 070054E1 		cmp	r4, r7
 671 0808 F8FFFF1A 		bne	.L109
 672 080c 000059E3 		cmp	r9, #0
 673 0810 0500000A 		beq	.L110
 674 0814 086046E0 		sub	r6, r6, r8
 675 0818 01B08BE2 		add	fp, fp, #1
 676 081c 0B005AE1 		cmp	r10, fp
 677 0820 075085E0 		add	r5, r5, r7
 678 0824 F0FFFF1A 		bne	.L112
 679 0828 F88FBDE8 		pop	{r3, r4, r5, r6, r7, r8, r9, r10, fp, pc}
 680              	.L110:
 681 082c 086086E0 		add	r6, r6, r8
 682 0830 01B08BE2 		add	fp, fp, #1
 683 0834 0B005AE1 		cmp	r10, fp
 684 0838 075085E0 		add	r5, r5, r7
ARM GAS  C:\Users\ldebo\AppData\Local\Temp\ccrazFu5.s 			page 13


 685 083c EAFFFF1A 		bne	.L112
 686 0840 F88FBDE8 		pop	{r3, r4, r5, r6, r7, r8, r9, r10, fp, pc}
 687              	.L118:
 688 0844 F88FBDE8 		pop	{r3, r4, r5, r6, r7, r8, r9, r10, fp, pc}
 689              		.size	PutImage24, .-PutImage24
 690              		.align	2
 691              		.syntax unified
 692              		.arm
 693              		.fpu neon
 694              		.type	ClearArea32, %function
 695              	ClearArea32:
 696              		@ args = 4, pretend = 0, frame = 0
 697              		@ frame_needed = 0, uses_anonymous_args = 0
 698 0848 10402DE9 		push	{r4, lr}
 699 084c 08409DE5 		ldr	r4, [sp, #8]
 700 0850 04C090E5 		ldr	ip, [r0, #4]
 701 0854 00E090E5 		ldr	lr, [r0]
 702 0858 024054E0 		subs	r4, r4, r2
 703 085c 01C08CE2 		add	ip, ip, #1
 704 0860 0221A0E1 		lsl	r2, r2, #2
 705 0864 92EC2CE0 		mla	ip, r2, ip, lr
 706 0868 1080BD08 		popeq	{r4, pc}
 707 086c 011053E0 		subs	r1, r3, r1
 708 0870 00E0A013 		movne	lr, #0
 709 0874 0B00000A 		beq	.L130
 710              	.L123:
 711 0878 0030A0E3 		mov	r3, #0
 712              	.L122:
 713 087c 282090E5 		ldr	r2, [r0, #40]
 714 0880 03218CE7 		str	r2, [ip, r3, lsl #2]
 715 0884 013083E2 		add	r3, r3, #1
 716 0888 030051E1 		cmp	r1, r3
 717 088c FAFFFF1A 		bne	.L122
 718 0890 043090E5 		ldr	r3, [r0, #4]
 719 0894 01E08EE2 		add	lr, lr, #1
 720 0898 04005EE1 		cmp	lr, r4
 721 089c 03C18CE0 		add	ip, ip, r3, lsl #2
 722 08a0 F4FFFF1A 		bne	.L123
 723 08a4 1080BDE8 		pop	{r4, pc}
 724              	.L130:
 725 08a8 1080BDE8 		pop	{r4, pc}
 726              		.size	ClearArea32, .-ClearArea32
 727              		.align	2
 728              		.syntax unified
 729              		.arm
 730              		.fpu neon
 731              		.type	VertLine32, %function
 732              	VertLine32:
 733              		@ args = 0, pretend = 0, frame = 0
 734              		@ frame_needed = 0, uses_anonymous_args = 0
 735 08ac 043090E5 		ldr	r3, [r0, #4]
 736 08b0 000051E3 		cmp	r1, #0
 737 08b4 10C090E5 		ldr	ip, [r0, #16]
 738 08b8 10402DE9 		push	{r4, lr}
 739 08bc 144090E5 		ldr	r4, [r0, #20]
 740 08c0 0CC1A0E1 		lsl	ip, ip, #2
 741 08c4 0331A0E1 		lsl	r3, r3, #2
ARM GAS  C:\Users\ldebo\AppData\Local\Temp\ccrazFu5.s 			page 14


 742 08c8 94C323E0 		mla	r3, r4, r3, ip
 743 08cc 00C090E5 		ldr	ip, [r0]
 744 08d0 0C3083E0 		add	r3, r3, ip
 745 08d4 0900000A 		beq	.L135
 746 08d8 010052E3 		cmp	r2, #1
 747 08dc 00C0A0E3 		mov	ip, #0
 748 08e0 0900000A 		beq	.L136
 749              	.L134:
 750 08e4 20E090E5 		ldr	lr, [r0, #32]
 751 08e8 01C08CE2 		add	ip, ip, #1
 752 08ec 0C0051E1 		cmp	r1, ip
 753 08f0 00E083E5 		str	lr, [r3]
 754 08f4 04E090E5 		ldr	lr, [r0, #4]
 755 08f8 0E3143E0 		sub	r3, r3, lr, lsl #2
 756 08fc F8FFFF1A 		bne	.L134
 757              	.L135:
 758 0900 914221E0 		mla	r1, r1, r2, r4
 759 0904 141080E5 		str	r1, [r0, #20]
 760 0908 1080BDE8 		pop	{r4, pc}
 761              	.L136:
 762 090c 20E090E5 		ldr	lr, [r0, #32]
 763 0910 01C08CE2 		add	ip, ip, #1
 764 0914 0C0051E1 		cmp	r1, ip
 765 0918 00E083E5 		str	lr, [r3]
 766 091c 04E090E5 		ldr	lr, [r0, #4]
 767 0920 0E3183E0 		add	r3, r3, lr, lsl #2
 768 0924 F8FFFF1A 		bne	.L136
 769 0928 F4FFFFEA 		b	.L135
 770              		.size	VertLine32, .-VertLine32
 771              		.align	2
 772              		.syntax unified
 773              		.arm
 774              		.fpu neon
 775              		.type	HorzLine32, %function
 776              	HorzLine32:
 777              		@ args = 0, pretend = 0, frame = 0
 778              		@ frame_needed = 0, uses_anonymous_args = 0
 779 092c 30402DE9 		push	{r4, r5, lr}
 780 0930 000051E3 		cmp	r1, #0
 781 0934 104090E5 		ldr	r4, [r0, #16]
 782 0938 04C090E5 		ldr	ip, [r0, #4]
 783 093c 14E090E5 		ldr	lr, [r0, #20]
 784 0940 0431A0E1 		lsl	r3, r4, #2
 785 0944 0CC1A0E1 		lsl	ip, ip, #2
 786 0948 9E3C2CE0 		mla	ip, lr, ip, r3
 787 094c 003090E5 		ldr	r3, [r0]
 788 0950 0251A011 		lslne	r5, r2, #2
 789 0954 03C08CE0 		add	ip, ip, r3
 790 0958 0030A013 		movne	r3, #0
 791 095c 0400000A 		beq	.L144
 792              	.L143:
 793 0960 20E090E5 		ldr	lr, [r0, #32]
 794 0964 013083E2 		add	r3, r3, #1
 795 0968 030051E1 		cmp	r1, r3
 796 096c 05E08CE6 		str	lr, [ip], r5
 797 0970 FAFFFF1A 		bne	.L143
 798              	.L144:
ARM GAS  C:\Users\ldebo\AppData\Local\Temp\ccrazFu5.s 			page 15


 799 0974 914221E0 		mla	r1, r1, r2, r4
 800 0978 101080E5 		str	r1, [r0, #16]
 801 097c 3080BDE8 		pop	{r4, r5, pc}
 802              		.size	HorzLine32, .-HorzLine32
 803              		.align	2
 804              		.syntax unified
 805              		.arm
 806              		.fpu neon
 807              		.type	DiagLine32, %function
 808              	DiagLine32:
 809              		@ args = 4, pretend = 0, frame = 0
 810              		@ frame_needed = 0, uses_anonymous_args = 0
 811 0980 F0472DE9 		push	{r4, r5, r6, r7, r8, r9, r10, lr}
 812 0984 04C090E5 		ldr	ip, [r0, #4]
 813 0988 107090E5 		ldr	r7, [r0, #16]
 814 098c 148090E5 		ldr	r8, [r0, #20]
 815 0990 020051E1 		cmp	r1, r2
 816 0994 07E1A0E1 		lsl	lr, r7, #2
 817 0998 0120A031 		movcc	r2, r1
 818 099c 0CC1A0E1 		lsl	ip, ip, #2
 819 09a0 000051E3 		cmp	r1, #0
 820 09a4 98EC2CE0 		mla	ip, r8, ip, lr
 821 09a8 20609DE5 		ldr	r6, [sp, #32]
 822 09ac 0040A013 		movne	r4, #0
 823 09b0 00E090E5 		ldr	lr, [r0]
 824 09b4 03A1A011 		lslne	r10, r3, #2
 825 09b8 0EE08CE0 		add	lr, ip, lr
 826 09bc 04C0A011 		movne	ip, r4
 827 09c0 0691A011 		lslne	r9, r6, #2
 828 09c4 0900000A 		beq	.L152
 829              	.L151:
 830 09c8 02C08CE0 		add	ip, ip, r2
 831 09cc 014084E2 		add	r4, r4, #1
 832 09d0 0C0051E1 		cmp	r1, ip
 833 09d4 205090E5 		ldr	r5, [r0, #32]
 834 09d8 01C04C90 		subls	ip, ip, r1
 835 09dc 0A508EE6 		str	r5, [lr], r10
 836 09e0 04509095 		ldrls	r5, [r0, #4]
 837 09e4 95E92E90 		mlals	lr, r5, r9, lr
 838 09e8 040051E1 		cmp	r1, r4
 839 09ec F5FFFF1A 		bne	.L151
 840              	.L152:
 841 09f0 917321E0 		mla	r1, r1, r3, r7
 842 09f4 928626E0 		mla	r6, r2, r6, r8
 843 09f8 101080E5 		str	r1, [r0, #16]
 844 09fc 146080E5 		str	r6, [r0, #20]
 845 0a00 F087BDE8 		pop	{r4, r5, r6, r7, r8, r9, r10, pc}
 846              		.size	DiagLine32, .-DiagLine32
 847              		.align	2
 848              		.syntax unified
 849              		.arm
 850              		.fpu neon
 851              		.type	WriteChar32, %function
 852              	WriteChar32:
 853              		@ args = 0, pretend = 0, frame = 8
 854              		@ frame_needed = 0, uses_anonymous_args = 0
 855 0a04 70402DE9 		push	{r4, r5, r6, lr}
ARM GAS  C:\Users\ldebo\AppData\Local\Temp\ccrazFu5.s 			page 16


 856 0a08 003000E3 		movw	r3, #:lower16:.LANCHOR0
 857 0a0c 105090E5 		ldr	r5, [r0, #16]
 858 0a10 08D04DE2 		sub	sp, sp, #8
 859 0a14 04E090E5 		ldr	lr, [r0, #4]
 860 0a18 14C090E5 		ldr	ip, [r0, #20]
 861 0a1c 0521A0E1 		lsl	r2, r5, #2
 862 0a20 003040E3 		movt	r3, #:upper16:.LANCHOR0
 863 0a24 0EE1A0E1 		lsl	lr, lr, #2
 864 0a28 9C2E2EE0 		mla	lr, ip, lr, r2
 865 0a2c 014283E0 		add	r4, r3, r1, lsl #4
 866 0a30 002090E5 		ldr	r2, [r0]
 867 0a34 0430A0E1 		mov	r3, r4
 868 0a38 0C6083E2 		add	r6, r3, #12
 869 0a3c 044044E2 		sub	r4, r4, #4
 870 0a40 02E08EE0 		add	lr, lr, r2
 871              	.L161:
 872 0a44 0420B4E5 		ldr	r2, [r4, #4]!
 873 0a48 0030A0E3 		mov	r3, #0
 874              	.L160:
 875 0a4c 000052E3 		cmp	r2, #0
 876 0a50 071003E2 		and	r1, r3, #7
 877 0a54 8220A0E1 		lsl	r2, r2, #1
 878 0a58 013083E2 		add	r3, r3, #1
 879 0a5c 24C090A5 		ldrge	ip, [r0, #36]
 880 0a60 20C090B5 		ldrlt	ip, [r0, #32]
 881 0a64 070051E3 		cmp	r1, #7
 882 0a68 01C18EE7 		str	ip, [lr, r1, lsl #2]
 883 0a6c 04109005 		ldreq	r1, [r0, #4]
 884 0a70 04C08DE5 		str	ip, [sp, #4]
 885 0a74 01E18E00 		addeq	lr, lr, r1, lsl #2
 886 0a78 200053E3 		cmp	r3, #32
 887 0a7c F2FFFF1A 		bne	.L160
 888 0a80 040056E1 		cmp	r6, r4
 889 0a84 EEFFFF1A 		bne	.L161
 890 0a88 085085E2 		add	r5, r5, #8
 891 0a8c 105080E5 		str	r5, [r0, #16]
 892 0a90 08D08DE2 		add	sp, sp, #8
 893              		@ sp needed
 894 0a94 7080BDE8 		pop	{r4, r5, r6, pc}
 895              		.size	WriteChar32, .-WriteChar32
 896              		.align	2
 897              		.syntax unified
 898              		.arm
 899              		.fpu neon
 900              		.type	PutImage32, %function
 901              	PutImage32:
 902              		@ args = 4, pretend = 0, frame = 0
 903              		@ frame_needed = 0, uses_anonymous_args = 0
 904 0a98 F0402DE9 		push	{r4, r5, r6, r7, lr}
 905 0a9c 000052E3 		cmp	r2, #0
 906 0aa0 04C090E5 		ldr	ip, [r0, #4]
 907 0aa4 10E090E5 		ldr	lr, [r0, #16]
 908 0aa8 146090E5 		ldr	r6, [r0, #20]
 909 0aac 0C41A0E1 		lsl	r4, ip, #2
 910 0ab0 0EE1A0E1 		lsl	lr, lr, #2
 911 0ab4 96E424E0 		mla	r4, r6, r4, lr
 912 0ab8 00C090E5 		ldr	ip, [r0]
ARM GAS  C:\Users\ldebo\AppData\Local\Temp\ccrazFu5.s 			page 17


 913 0abc 1450DDE5 		ldrb	r5, [sp, #20]	@ zero_extendqisi2
 914 0ac0 0C4084E0 		add	r4, r4, ip
 915 0ac4 F080BD08 		popeq	{r4, r5, r6, r7, pc}
 916 0ac8 000051E3 		cmp	r1, #0
 917 0acc F080BD08 		popeq	{r4, r5, r6, r7, pc}
 918 0ad0 0171A0E1 		lsl	r7, r1, #2
 919 0ad4 0060A0E3 		mov	r6, #0
 920              	.L167:
 921 0ad8 00C0A0E3 		mov	ip, #0
 922              	.L168:
 923 0adc 0CE193E7 		ldr	lr, [r3, ip, lsl #2]
 924 0ae0 0CE184E7 		str	lr, [r4, ip, lsl #2]
 925 0ae4 01C08CE2 		add	ip, ip, #1
 926 0ae8 0C0051E1 		cmp	r1, ip
 927 0aec FAFFFF1A 		bne	.L168
 928 0af0 04C090E5 		ldr	ip, [r0, #4]
 929 0af4 000055E3 		cmp	r5, #0
 930 0af8 016086E2 		add	r6, r6, #1
 931 0afc 0400000A 		beq	.L169
 932 0b00 060052E1 		cmp	r2, r6
 933 0b04 073083E0 		add	r3, r3, r7
 934 0b08 0C4144E0 		sub	r4, r4, ip, lsl #2
 935 0b0c F1FFFF1A 		bne	.L167
 936 0b10 F080BDE8 		pop	{r4, r5, r6, r7, pc}
 937              	.L169:
 938 0b14 060052E1 		cmp	r2, r6
 939 0b18 073083E0 		add	r3, r3, r7
 940 0b1c 0C4184E0 		add	r4, r4, ip, lsl #2
 941 0b20 ECFFFF1A 		bne	.L167
 942 0b24 F080BDE8 		pop	{r4, r5, r6, r7, pc}
 943              		.size	PutImage32, .-PutImage32
 944              		.align	2
 945              		.syntax unified
 946              		.arm
 947              		.fpu neon
 948              		.type	mailbox_tag_message.constprop.4, %function
 949              	mailbox_tag_message.constprop.4:
 950              		@ args = 4, pretend = 12, frame = 8
 951              		@ frame_needed = 1, uses_anonymous_args = 1
 952 0b28 0E002DE9 		push	{r1, r2, r3}
 953 0b2c 2010A0E3 		mov	r1, #32
 954 0b30 70482DE9 		push	{r4, r5, r6, fp, lr}
 955 0b34 10B08DE2 		add	fp, sp, #16
 956 0b38 08D04DE2 		sub	sp, sp, #8
 957 0b3c 08609BE5 		ldr	r6, [fp, #8]
 958 0b40 90D04DE2 		sub	sp, sp, #144
 959 0b44 0C509BE5 		ldr	r5, [fp, #12]
 960 0b48 0F408DE2 		add	r4, sp, #15
 961 0b4c 0F40C4E3 		bic	r4, r4, #15
 962 0b50 0020A0E3 		mov	r2, #0
 963 0b54 10E09BE5 		ldr	lr, [fp, #16]
 964 0b58 08308BE2 		add	r3, fp, #8
 965 0b5c 14C09BE5 		ldr	ip, [fp, #20]
 966 0b60 0400A0E1 		mov	r0, r4
 967 0b64 001084E5 		str	r1, [r4]
 968 0b68 18109BE5 		ldr	r1, [fp, #24]
 969 0b6c 1C2084E5 		str	r2, [r4, #28]
ARM GAS  C:\Users\ldebo\AppData\Local\Temp\ccrazFu5.s 			page 18


 970 0b70 181084E5 		str	r1, [r4, #24]
 971 0b74 042084E5 		str	r2, [r4, #4]
 972 0b78 086084E5 		str	r6, [r4, #8]
 973 0b7c 0C5084E5 		str	r5, [r4, #12]
 974 0b80 10E084E5 		str	lr, [r4, #16]
 975 0b84 14C084E5 		str	ip, [r4, #20]
 976 0b88 14300BE5 		str	r3, [fp, #-20]
 977 0b8c FEFFFFEB 		bl	ARMaddrToGPUaddr
 978 0b90 0F10C0E3 		bic	r1, r0, #15
 979 0b94 003000E3 		movw	r3, #:lower16:RPi_IO_Base_Addr
 980 0b98 003040E3 		movt	r3, #:upper16:RPi_IO_Base_Addr
 981 0b9c 081081E3 		orr	r1, r1, #8
 982 0ba0 002093E5 		ldr	r2, [r3]
 983 0ba4 2E2B82E2 		add	r2, r2, #47104
 984 0ba8 802082E2 		add	r2, r2, #128
 985              	.L180:
 986 0bac 383092E5 		ldr	r3, [r2, #56]
 987 0bb0 000053E3 		cmp	r3, #0
 988 0bb4 FCFFFFBA 		blt	.L180
 989 0bb8 201082E5 		str	r1, [r2, #32]
 990              	.L181:
 991 0bbc 183092E5 		ldr	r3, [r2, #24]
 992 0bc0 010113E3 		tst	r3, #1073741824
 993 0bc4 FCFFFF1A 		bne	.L181
 994 0bc8 003092E5 		ldr	r3, [r2]
 995 0bcc 0F3003E2 		and	r3, r3, #15
 996 0bd0 080053E3 		cmp	r3, #8
 997 0bd4 F8FFFF1A 		bne	.L181
 998 0bd8 040094E5 		ldr	r0, [r4, #4]
 999 0bdc 020140E2 		sub	r0, r0, #-2147483648
 1000 0be0 100F6FE1 		clz	r0, r0
 1001 0be4 A002A0E1 		lsr	r0, r0, #5
 1002 0be8 10D04BE2 		sub	sp, fp, #16
 1003              		@ sp needed
 1004 0bec 7048BDE8 		pop	{r4, r5, r6, fp, lr}
 1005 0bf0 0CD08DE2 		add	sp, sp, #12
 1006 0bf4 1EFF2FE1 		bx	lr
 1007              		.size	mailbox_tag_message.constprop.4, .-mailbox_tag_message.constprop.4
 1008              		.align	2
 1009              		.syntax unified
 1010              		.arm
 1011              		.fpu neon
 1012              		.type	mailbox_tag_message.constprop.5, %function
 1013              	mailbox_tag_message.constprop.5:
 1014              		@ args = 4, pretend = 12, frame = 8
 1015              		@ frame_needed = 1, uses_anonymous_args = 1
 1016 0bf8 0E002DE9 		push	{r1, r2, r3}
 1017 0bfc 0020A0E3 		mov	r2, #0
 1018 0c00 F0482DE9 		push	{r4, r5, r6, r7, fp, lr}
 1019 0c04 14B08DE2 		add	fp, sp, #20
 1020 0c08 0CD04DE2 		sub	sp, sp, #12
 1021 0c0c 08109BE5 		ldr	r1, [fp, #8]
 1022 0c10 90D04DE2 		sub	sp, sp, #144
 1023 0c14 0C609BE5 		ldr	r6, [fp, #12]
 1024 0c18 0F408DE2 		add	r4, sp, #15
 1025 0c1c 0F40C4E3 		bic	r4, r4, #15
 1026 0c20 2070A0E3 		mov	r7, #32
ARM GAS  C:\Users\ldebo\AppData\Local\Temp\ccrazFu5.s 			page 19


 1027 0c24 10E09BE5 		ldr	lr, [fp, #16]
 1028 0c28 08308BE2 		add	r3, fp, #8
 1029 0c2c 14C09BE5 		ldr	ip, [fp, #20]
 1030 0c30 0050A0E1 		mov	r5, r0
 1031 0c34 081084E5 		str	r1, [r4, #8]
 1032 0c38 0400A0E1 		mov	r0, r4
 1033 0c3c 18109BE5 		ldr	r1, [fp, #24]
 1034 0c40 007084E5 		str	r7, [r4]
 1035 0c44 181084E5 		str	r1, [r4, #24]
 1036 0c48 0C6084E5 		str	r6, [r4, #12]
 1037 0c4c 10E084E5 		str	lr, [r4, #16]
 1038 0c50 14C084E5 		str	ip, [r4, #20]
 1039 0c54 1C2084E5 		str	r2, [r4, #28]
 1040 0c58 042084E5 		str	r2, [r4, #4]
 1041 0c5c 1C300BE5 		str	r3, [fp, #-28]
 1042 0c60 FEFFFFEB 		bl	ARMaddrToGPUaddr
 1043 0c64 0F10C0E3 		bic	r1, r0, #15
 1044 0c68 003000E3 		movw	r3, #:lower16:RPi_IO_Base_Addr
 1045 0c6c 003040E3 		movt	r3, #:upper16:RPi_IO_Base_Addr
 1046 0c70 081081E3 		orr	r1, r1, #8
 1047 0c74 003093E5 		ldr	r3, [r3]
 1048 0c78 2E3B83E2 		add	r3, r3, #47104
 1049 0c7c 803083E2 		add	r3, r3, #128
 1050              	.L188:
 1051 0c80 382093E5 		ldr	r2, [r3, #56]
 1052 0c84 000052E3 		cmp	r2, #0
 1053 0c88 FCFFFFBA 		blt	.L188
 1054 0c8c 201083E5 		str	r1, [r3, #32]
 1055              	.L189:
 1056 0c90 180093E5 		ldr	r0, [r3, #24]
 1057 0c94 010110E2 		ands	r0, r0, #1073741824
 1058 0c98 FCFFFF1A 		bne	.L189
 1059 0c9c 002093E5 		ldr	r2, [r3]
 1060 0ca0 0F2002E2 		and	r2, r2, #15
 1061 0ca4 080052E3 		cmp	r2, #8
 1062 0ca8 F8FFFF1A 		bne	.L189
 1063 0cac 043094E5 		ldr	r3, [r4, #4]
 1064 0cb0 020153E3 		cmp	r3, #-2147483648
 1065 0cb4 0300000A 		beq	.L199
 1066 0cb8 14D04BE2 		sub	sp, fp, #20
 1067              		@ sp needed
 1068 0cbc F048BDE8 		pop	{r4, r5, r6, r7, fp, lr}
 1069 0cc0 0CD08DE2 		add	sp, sp, #12
 1070 0cc4 1EFF2FE1 		bx	lr
 1071              	.L199:
 1072 0cc8 000055E3 		cmp	r5, #0
 1073 0ccc 0400000A 		beq	.L193
 1074 0cd0 08C094E5 		ldr	ip, [r4, #8]
 1075 0cd4 0C0084E2 		add	r0, r4, #12
 1076 0cd8 0F0090E8 		ldm	r0, {r0, r1, r2, r3}
 1077 0cdc 00C085E5 		str	ip, [r5]
 1078 0ce0 0F0085E9 		stmib	r5, {r0, r1, r2, r3}
 1079              	.L193:
 1080 0ce4 0100A0E3 		mov	r0, #1
 1081 0ce8 14D04BE2 		sub	sp, fp, #20
 1082              		@ sp needed
 1083 0cec F048BDE8 		pop	{r4, r5, r6, r7, fp, lr}
ARM GAS  C:\Users\ldebo\AppData\Local\Temp\ccrazFu5.s 			page 20


 1084 0cf0 0CD08DE2 		add	sp, sp, #12
 1085 0cf4 1EFF2FE1 		bx	lr
 1086              		.size	mailbox_tag_message.constprop.5, .-mailbox_tag_message.constprop.5
 1087              		.align	2
 1088              		.syntax unified
 1089              		.arm
 1090              		.fpu neon
 1091              		.type	mailbox_tag_message.constprop.6, %function
 1092              	mailbox_tag_message.constprop.6:
 1093              		@ args = 4, pretend = 12, frame = 8
 1094              		@ frame_needed = 1, uses_anonymous_args = 1
 1095 0cf8 0E002DE9 		push	{r1, r2, r3}
 1096 0cfc 0020A0E3 		mov	r2, #0
 1097 0d00 F0482DE9 		push	{r4, r5, r6, r7, fp, lr}
 1098 0d04 14B08DE2 		add	fp, sp, #20
 1099 0d08 0CD04DE2 		sub	sp, sp, #12
 1100 0d0c 14109BE5 		ldr	r1, [fp, #20]
 1101 0d10 90D04DE2 		sub	sp, sp, #144
 1102 0d14 08609BE5 		ldr	r6, [fp, #8]
 1103 0d18 0F408DE2 		add	r4, sp, #15
 1104 0d1c 0F40C4E3 		bic	r4, r4, #15
 1105 0d20 1C70A0E3 		mov	r7, #28
 1106 0d24 0CE09BE5 		ldr	lr, [fp, #12]
 1107 0d28 08308BE2 		add	r3, fp, #8
 1108 0d2c 10C09BE5 		ldr	ip, [fp, #16]
 1109 0d30 0050A0E1 		mov	r5, r0
 1110 0d34 141084E5 		str	r1, [r4, #20]
 1111 0d38 0400A0E1 		mov	r0, r4
 1112 0d3c 007084E5 		str	r7, [r4]
 1113 0d40 086084E5 		str	r6, [r4, #8]
 1114 0d44 0CE084E5 		str	lr, [r4, #12]
 1115 0d48 10C084E5 		str	ip, [r4, #16]
 1116 0d4c 182084E5 		str	r2, [r4, #24]
 1117 0d50 042084E5 		str	r2, [r4, #4]
 1118 0d54 1C300BE5 		str	r3, [fp, #-28]
 1119 0d58 FEFFFFEB 		bl	ARMaddrToGPUaddr
 1120 0d5c 0F10C0E3 		bic	r1, r0, #15
 1121 0d60 003000E3 		movw	r3, #:lower16:RPi_IO_Base_Addr
 1122 0d64 003040E3 		movt	r3, #:upper16:RPi_IO_Base_Addr
 1123 0d68 081081E3 		orr	r1, r1, #8
 1124 0d6c 003093E5 		ldr	r3, [r3]
 1125 0d70 2E3B83E2 		add	r3, r3, #47104
 1126 0d74 803083E2 		add	r3, r3, #128
 1127              	.L201:
 1128 0d78 382093E5 		ldr	r2, [r3, #56]
 1129 0d7c 000052E3 		cmp	r2, #0
 1130 0d80 FCFFFFBA 		blt	.L201
 1131 0d84 201083E5 		str	r1, [r3, #32]
 1132              	.L202:
 1133 0d88 180093E5 		ldr	r0, [r3, #24]
 1134 0d8c 010110E2 		ands	r0, r0, #1073741824
 1135 0d90 FCFFFF1A 		bne	.L202
 1136 0d94 002093E5 		ldr	r2, [r3]
 1137 0d98 0F2002E2 		and	r2, r2, #15
 1138 0d9c 080052E3 		cmp	r2, #8
 1139 0da0 F8FFFF1A 		bne	.L202
 1140 0da4 043094E5 		ldr	r3, [r4, #4]
ARM GAS  C:\Users\ldebo\AppData\Local\Temp\ccrazFu5.s 			page 21


 1141 0da8 020153E3 		cmp	r3, #-2147483648
 1142 0dac 0300000A 		beq	.L212
 1143 0db0 14D04BE2 		sub	sp, fp, #20
 1144              		@ sp needed
 1145 0db4 F048BDE8 		pop	{r4, r5, r6, r7, fp, lr}
 1146 0db8 0CD08DE2 		add	sp, sp, #12
 1147 0dbc 1EFF2FE1 		bx	lr
 1148              	.L212:
 1149 0dc0 000055E3 		cmp	r5, #0
 1150 0dc4 08008412 		addne	r0, r4, #8
 1151 0dc8 0F009018 		ldmne	r0, {r0, r1, r2, r3}
 1152 0dcc 0F008518 		stmne	r5, {r0, r1, r2, r3}
 1153              	.L206:
 1154 0dd0 0100A0E3 		mov	r0, #1
 1155 0dd4 14D04BE2 		sub	sp, fp, #20
 1156              		@ sp needed
 1157 0dd8 F048BDE8 		pop	{r4, r5, r6, r7, fp, lr}
 1158 0ddc 0CD08DE2 		add	sp, sp, #12
 1159 0de0 1EFF2FE1 		bx	lr
 1160              		.size	mailbox_tag_message.constprop.6, .-mailbox_tag_message.constprop.6
 1161              		.align	2
 1162              		.syntax unified
 1163              		.arm
 1164              		.fpu neon
 1165              		.type	mailbox_tag_message.constprop.7, %function
 1166              	mailbox_tag_message.constprop.7:
 1167              		@ args = 4, pretend = 12, frame = 8
 1168              		@ frame_needed = 1, uses_anonymous_args = 1
 1169 0de4 0E002DE9 		push	{r1, r2, r3}
 1170 0de8 0020A0E3 		mov	r2, #0
 1171 0dec F0482DE9 		push	{r4, r5, r6, r7, fp, lr}
 1172 0df0 14B08DE2 		add	fp, sp, #20
 1173 0df4 0CD04DE2 		sub	sp, sp, #12
 1174 0df8 90D04DE2 		sub	sp, sp, #144
 1175 0dfc 0050A0E1 		mov	r5, r0
 1176 0e00 0F708DE2 		add	r7, sp, #15
 1177 0e04 04308BE2 		add	r3, fp, #4
 1178 0e08 0F70C7E3 		bic	r7, r7, #15
 1179 0e0c 0760A0E1 		mov	r6, r7
 1180 0e10 501087E2 		add	r1, r7, #80
 1181 0e14 542087E5 		str	r2, [r7, #84]
 1182 0e18 0420A6E5 		str	r2, [r6, #4]!
 1183 0e1c 5820A0E3 		mov	r2, #88
 1184 0e20 002087E5 		str	r2, [r7]
 1185 0e24 0640A0E1 		mov	r4, r6
 1186 0e28 08208BE2 		add	r2, fp, #8
 1187 0e2c 1C200BE5 		str	r2, [fp, #-28]
 1188              	.L214:
 1189 0e30 0420B3E5 		ldr	r2, [r3, #4]!
 1190 0e34 0420A4E5 		str	r2, [r4, #4]!
 1191 0e38 010054E1 		cmp	r4, r1
 1192 0e3c FBFFFF1A 		bne	.L214
 1193 0e40 0700A0E1 		mov	r0, r7
 1194 0e44 FEFFFFEB 		bl	ARMaddrToGPUaddr
 1195 0e48 0F10C0E3 		bic	r1, r0, #15
 1196 0e4c 003000E3 		movw	r3, #:lower16:RPi_IO_Base_Addr
 1197 0e50 003040E3 		movt	r3, #:upper16:RPi_IO_Base_Addr
ARM GAS  C:\Users\ldebo\AppData\Local\Temp\ccrazFu5.s 			page 22


 1198 0e54 081081E3 		orr	r1, r1, #8
 1199 0e58 003093E5 		ldr	r3, [r3]
 1200 0e5c 2E3B83E2 		add	r3, r3, #47104
 1201 0e60 803083E2 		add	r3, r3, #128
 1202              	.L215:
 1203 0e64 382093E5 		ldr	r2, [r3, #56]
 1204 0e68 000052E3 		cmp	r2, #0
 1205 0e6c FCFFFFBA 		blt	.L215
 1206 0e70 201083E5 		str	r1, [r3, #32]
 1207              	.L216:
 1208 0e74 180093E5 		ldr	r0, [r3, #24]
 1209 0e78 010110E2 		ands	r0, r0, #1073741824
 1210 0e7c FCFFFF1A 		bne	.L216
 1211 0e80 002093E5 		ldr	r2, [r3]
 1212 0e84 0F2002E2 		and	r2, r2, #15
 1213 0e88 080052E3 		cmp	r2, #8
 1214 0e8c F8FFFF1A 		bne	.L216
 1215 0e90 043097E5 		ldr	r3, [r7, #4]
 1216 0e94 020153E3 		cmp	r3, #-2147483648
 1217 0e98 0300000A 		beq	.L229
 1218 0e9c 14D04BE2 		sub	sp, fp, #20
 1219              		@ sp needed
 1220 0ea0 F048BDE8 		pop	{r4, r5, r6, r7, fp, lr}
 1221 0ea4 0CD08DE2 		add	sp, sp, #12
 1222 0ea8 1EFF2FE1 		bx	lr
 1223              	.L229:
 1224 0eac 000055E3 		cmp	r5, #0
 1225 0eb0 04504512 		subne	r5, r5, #4
 1226 0eb4 0300000A 		beq	.L221
 1227              	.L220:
 1228 0eb8 0430B6E5 		ldr	r3, [r6, #4]!
 1229 0ebc 040056E1 		cmp	r6, r4
 1230 0ec0 0430A5E5 		str	r3, [r5, #4]!
 1231 0ec4 FBFFFF1A 		bne	.L220
 1232              	.L221:
 1233 0ec8 0100A0E3 		mov	r0, #1
 1234 0ecc 14D04BE2 		sub	sp, fp, #20
 1235              		@ sp needed
 1236 0ed0 F048BDE8 		pop	{r4, r5, r6, r7, fp, lr}
 1237 0ed4 0CD08DE2 		add	sp, sp, #12
 1238 0ed8 1EFF2FE1 		bx	lr
 1239              		.size	mailbox_tag_message.constprop.7, .-mailbox_tag_message.constprop.7
 1240              		.align	2
 1241              		.global	gpio_setup
 1242              		.syntax unified
 1243              		.arm
 1244              		.fpu neon
 1245              		.type	gpio_setup, %function
 1246              	gpio_setup:
 1247              		@ args = 0, pretend = 0, frame = 0
 1248              		@ frame_needed = 0, uses_anonymous_args = 0
 1249 0edc 070051E3 		cmp	r1, #7
 1250 0ee0 36005093 		cmpls	r0, #54
 1251 0ee4 1500008A 		bhi	.L232
 1252 0ee8 CD3C0CE3 		movw	r3, #52429
 1253 0eec 002000E3 		movw	r2, #:lower16:RPi_IO_Base_Addr
 1254 0ef0 CC3C4CE3 		movt	r3, 52428
ARM GAS  C:\Users\ldebo\AppData\Local\Temp\ccrazFu5.s 			page 23


 1255 0ef4 002040E3 		movt	r2, #:upper16:RPi_IO_Base_Addr
 1256 0ef8 F0412DE9 		push	{r4, r5, r6, r7, r8, lr}
 1257 0efc 03E0A0E3 		mov	lr, #3
 1258 0f00 906387E0 		umull	r6, r7, r0, r3
 1259 0f04 93C083E0 		umull	ip, r3, r3, r0
 1260 0f08 00C092E5 		ldr	ip, [r2]
 1261 0f0c 0A80A0E3 		mov	r8, #10
 1262 0f10 374EA0E1 		lsr	r4, r7, lr
 1263 0f14 0750A0E3 		mov	r5, #7
 1264 0f18 332EA0E1 		lsr	r2, r3, lr
 1265 0f1c 02C68CE2 		add	ip, ip, #2097152
 1266 0f20 980464E0 		mls	r4, r8, r4, r0
 1267 0f24 02319CE7 		ldr	r3, [ip, r2, lsl #2]
 1268 0f28 0100A0E3 		mov	r0, #1
 1269 0f2c 9E040EE0 		mul	lr, lr, r4
 1270 0f30 153EC3E1 		bic	r3, r3, r5, lsl lr
 1271 0f34 111E83E1 		orr	r1, r3, r1, lsl lr
 1272 0f38 02118CE7 		str	r1, [ip, r2, lsl #2]
 1273 0f3c F081BDE8 		pop	{r4, r5, r6, r7, r8, pc}
 1274              	.L232:
 1275 0f40 0000A0E3 		mov	r0, #0
 1276 0f44 1EFF2FE1 		bx	lr
 1277              		.size	gpio_setup, .-gpio_setup
 1278              		.align	2
 1279              		.global	gpio_output
 1280              		.syntax unified
 1281              		.arm
 1282              		.fpu neon
 1283              		.type	gpio_output, %function
 1284              	gpio_output:
 1285              		@ args = 0, pretend = 0, frame = 0
 1286              		@ frame_needed = 0, uses_anonymous_args = 0
 1287              		@ link register save eliminated.
 1288 0f48 360050E3 		cmp	r0, #54
 1289 0f4c 0030A0E1 		mov	r3, r0
 1290 0f50 1400008A 		bhi	.L240
 1291 0f54 1F2000E2 		and	r2, r0, #31
 1292 0f58 000051E3 		cmp	r1, #0
 1293 0f5c 0100A0E3 		mov	r0, #1
 1294 0f60 10C2A0E1 		lsl	ip, r0, r2
 1295 0f64 002000E3 		movw	r2, #:lower16:RPi_IO_Base_Addr
 1296 0f68 0600001A 		bne	.L241
 1297 0f6c 002040E3 		movt	r2, #:upper16:RPi_IO_Base_Addr
 1298 0f70 A332A0E1 		lsr	r3, r3, #5
 1299 0f74 002092E5 		ldr	r2, [r2]
 1300 0f78 0A3083E2 		add	r3, r3, #10
 1301 0f7c 022682E2 		add	r2, r2, #2097152
 1302 0f80 03C182E7 		str	ip, [r2, r3, lsl #2]
 1303 0f84 1EFF2FE1 		bx	lr
 1304              	.L241:
 1305 0f88 002040E3 		movt	r2, #:upper16:RPi_IO_Base_Addr
 1306 0f8c 0100A0E1 		mov	r0, r1
 1307 0f90 A332A0E1 		lsr	r3, r3, #5
 1308 0f94 002092E5 		ldr	r2, [r2]
 1309 0f98 033182E0 		add	r3, r2, r3, lsl #2
 1310 0f9c 023683E2 		add	r3, r3, #2097152
 1311 0fa0 1CC083E5 		str	ip, [r3, #28]
ARM GAS  C:\Users\ldebo\AppData\Local\Temp\ccrazFu5.s 			page 24


 1312 0fa4 1EFF2FE1 		bx	lr
 1313              	.L240:
 1314 0fa8 0000A0E3 		mov	r0, #0
 1315 0fac 1EFF2FE1 		bx	lr
 1316              		.size	gpio_output, .-gpio_output
 1317              		.align	2
 1318              		.global	gpio_input
 1319              		.syntax unified
 1320              		.arm
 1321              		.fpu neon
 1322              		.type	gpio_input, %function
 1323              	gpio_input:
 1324              		@ args = 0, pretend = 0, frame = 0
 1325              		@ frame_needed = 0, uses_anonymous_args = 0
 1326              		@ link register save eliminated.
 1327 0fb0 360050E3 		cmp	r0, #54
 1328 0fb4 0D00008A 		bhi	.L244
 1329 0fb8 002000E3 		movw	r2, #:lower16:RPi_IO_Base_Addr
 1330 0fbc 1F1000E2 		and	r1, r0, #31
 1331 0fc0 002040E3 		movt	r2, #:upper16:RPi_IO_Base_Addr
 1332 0fc4 01C0A0E3 		mov	ip, #1
 1333 0fc8 A032A0E1 		lsr	r3, r0, #5
 1334 0fcc 000092E5 		ldr	r0, [r2]
 1335 0fd0 030180E0 		add	r0, r0, r3, lsl #2
 1336 0fd4 020680E2 		add	r0, r0, #2097152
 1337 0fd8 300080E2 		add	r0, r0, #48
 1338 0fdc 043090E5 		ldr	r3, [r0, #4]
 1339 0fe0 1C3113E0 		ands	r3, r3, ip, lsl r1
 1340 0fe4 0C00A011 		movne	r0, ip
 1341 0fe8 0000A003 		moveq	r0, #0
 1342 0fec 1EFF2FE1 		bx	lr
 1343              	.L244:
 1344 0ff0 0000A0E3 		mov	r0, #0
 1345 0ff4 1EFF2FE1 		bx	lr
 1346              		.size	gpio_input, .-gpio_input
 1347              		.align	2
 1348              		.global	gpio_checkEvent
 1349              		.syntax unified
 1350              		.arm
 1351              		.fpu neon
 1352              		.type	gpio_checkEvent, %function
 1353              	gpio_checkEvent:
 1354              		@ args = 0, pretend = 0, frame = 0
 1355              		@ frame_needed = 0, uses_anonymous_args = 0
 1356              		@ link register save eliminated.
 1357 0ff8 360050E3 		cmp	r0, #54
 1358 0ffc 0C00008A 		bhi	.L247
 1359 1000 003000E3 		movw	r3, #:lower16:RPi_IO_Base_Addr
 1360 1004 1F2000E2 		and	r2, r0, #31
 1361 1008 003040E3 		movt	r3, #:upper16:RPi_IO_Base_Addr
 1362 100c 0110A0E3 		mov	r1, #1
 1363 1010 A002A0E1 		lsr	r0, r0, #5
 1364 1014 003093E5 		ldr	r3, [r3]
 1365 1018 100080E2 		add	r0, r0, #16
 1366 101c 023683E2 		add	r3, r3, #2097152
 1367 1020 003193E7 		ldr	r3, [r3, r0, lsl #2]
 1368 1024 113213E0 		ands	r3, r3, r1, lsl r2
ARM GAS  C:\Users\ldebo\AppData\Local\Temp\ccrazFu5.s 			page 25


 1369 1028 0100A011 		movne	r0, r1
 1370 102c 0000A003 		moveq	r0, #0
 1371 1030 1EFF2FE1 		bx	lr
 1372              	.L247:
 1373 1034 0000A0E3 		mov	r0, #0
 1374 1038 1EFF2FE1 		bx	lr
 1375              		.size	gpio_checkEvent, .-gpio_checkEvent
 1376              		.align	2
 1377              		.global	gpio_clearEvent
 1378              		.syntax unified
 1379              		.arm
 1380              		.fpu neon
 1381              		.type	gpio_clearEvent, %function
 1382              	gpio_clearEvent:
 1383              		@ args = 0, pretend = 0, frame = 0
 1384              		@ frame_needed = 0, uses_anonymous_args = 0
 1385              		@ link register save eliminated.
 1386 103c 360050E3 		cmp	r0, #54
 1387 1040 0B00008A 		bhi	.L250
 1388 1044 001000E3 		movw	r1, #:lower16:RPi_IO_Base_Addr
 1389 1048 1FC000E2 		and	ip, r0, #31
 1390 104c 001040E3 		movt	r1, #:upper16:RPi_IO_Base_Addr
 1391 1050 0120A0E3 		mov	r2, #1
 1392 1054 A032A0E1 		lsr	r3, r0, #5
 1393 1058 0200A0E1 		mov	r0, r2
 1394 105c 001091E5 		ldr	r1, [r1]
 1395 1060 103083E2 		add	r3, r3, #16
 1396 1064 122CA0E1 		lsl	r2, r2, ip
 1397 1068 021681E2 		add	r1, r1, #2097152
 1398 106c 032181E7 		str	r2, [r1, r3, lsl #2]
 1399 1070 1EFF2FE1 		bx	lr
 1400              	.L250:
 1401 1074 0000A0E3 		mov	r0, #0
 1402 1078 1EFF2FE1 		bx	lr
 1403              		.size	gpio_clearEvent, .-gpio_clearEvent
 1404              		.align	2
 1405              		.global	gpio_edgeDetect
 1406              		.syntax unified
 1407              		.arm
 1408              		.fpu neon
 1409              		.type	gpio_edgeDetect, %function
 1410              	gpio_edgeDetect:
 1411              		@ args = 0, pretend = 0, frame = 0
 1412              		@ frame_needed = 0, uses_anonymous_args = 0
 1413              		@ link register save eliminated.
 1414 107c 360050E3 		cmp	r0, #54
 1415 1080 0030A0E1 		mov	r3, r0
 1416 1084 1900008A 		bhi	.L256
 1417 1088 1FC000E2 		and	ip, r0, #31
 1418 108c 000051E3 		cmp	r1, #0
 1419 1090 0100A0E3 		mov	r0, #1
 1420 1094 10CCA0E1 		lsl	ip, r0, ip
 1421 1098 0A00000A 		beq	.L253
 1422 109c 000052E3 		cmp	r2, #0
 1423 10a0 1400000A 		beq	.L254
 1424 10a4 001000E3 		movw	r1, #:lower16:RPi_IO_Base_Addr
 1425 10a8 0200A0E1 		mov	r0, r2
ARM GAS  C:\Users\ldebo\AppData\Local\Temp\ccrazFu5.s 			page 26


 1426 10ac 001040E3 		movt	r1, #:upper16:RPi_IO_Base_Addr
 1427 10b0 A332A0E1 		lsr	r3, r3, #5
 1428 10b4 002091E5 		ldr	r2, [r1]
 1429 10b8 033182E0 		add	r3, r2, r3, lsl #2
 1430 10bc 023683E2 		add	r3, r3, #2097152
 1431 10c0 7CC083E5 		str	ip, [r3, #124]
 1432 10c4 1EFF2FE1 		bx	lr
 1433              	.L253:
 1434 10c8 000052E3 		cmp	r2, #0
 1435 10cc 1200001A 		bne	.L257
 1436 10d0 A332A0E1 		lsr	r3, r3, #5
 1437 10d4 002000E3 		movw	r2, #:lower16:RPi_IO_Base_Addr
 1438 10d8 002040E3 		movt	r2, #:upper16:RPi_IO_Base_Addr
 1439 10dc 163083E2 		add	r3, r3, #22
 1440 10e0 002092E5 		ldr	r2, [r2]
 1441 10e4 022682E2 		add	r2, r2, #2097152
 1442 10e8 03C182E7 		str	ip, [r2, r3, lsl #2]
 1443 10ec 1EFF2FE1 		bx	lr
 1444              	.L256:
 1445 10f0 0000A0E3 		mov	r0, #0
 1446 10f4 1EFF2FE1 		bx	lr
 1447              	.L254:
 1448 10f8 002000E3 		movw	r2, #:lower16:RPi_IO_Base_Addr
 1449 10fc 0100A0E1 		mov	r0, r1
 1450 1100 002040E3 		movt	r2, #:upper16:RPi_IO_Base_Addr
 1451 1104 A332A0E1 		lsr	r3, r3, #5
 1452 1108 002092E5 		ldr	r2, [r2]
 1453 110c 033182E0 		add	r3, r2, r3, lsl #2
 1454 1110 023683E2 		add	r3, r3, #2097152
 1455 1114 4CC083E5 		str	ip, [r3, #76]
 1456 1118 1EFF2FE1 		bx	lr
 1457              	.L257:
 1458 111c 001000E3 		movw	r1, #:lower16:RPi_IO_Base_Addr
 1459 1120 0200A0E1 		mov	r0, r2
 1460 1124 001040E3 		movt	r1, #:upper16:RPi_IO_Base_Addr
 1461 1128 A332A0E1 		lsr	r3, r3, #5
 1462 112c 002091E5 		ldr	r2, [r1]
 1463 1130 223083E2 		add	r3, r3, #34
 1464 1134 022682E2 		add	r2, r2, #2097152
 1465 1138 03C182E7 		str	ip, [r2, r3, lsl #2]
 1466 113c 1EFF2FE1 		bx	lr
 1467              		.size	gpio_edgeDetect, .-gpio_edgeDetect
 1468              		.align	2
 1469              		.global	gpio_fixResistor
 1470              		.syntax unified
 1471              		.arm
 1472              		.fpu neon
 1473              		.type	gpio_fixResistor, %function
 1474              	gpio_fixResistor:
 1475              		@ args = 0, pretend = 0, frame = 0
 1476              		@ frame_needed = 0, uses_anonymous_args = 0
 1477 1140 360050E3 		cmp	r0, #54
 1478 1144 02005193 		cmpls	r1, #2
 1479 1148 4700008A 		bhi	.L266
 1480 114c 003000E3 		movw	r3, #:lower16:RPi_IO_Base_Addr
 1481 1150 003040E3 		movt	r3, #:upper16:RPi_IO_Base_Addr
 1482 1154 F0432DE9 		push	{r4, r5, r6, r7, r8, r9, lr}
ARM GAS  C:\Users\ldebo\AppData\Local\Temp\ccrazFu5.s 			page 27


 1483 1158 003093E5 		ldr	r3, [r3]
 1484 115c 022683E2 		add	r2, r3, #2097152
 1485 1160 033A83E2 		add	r3, r3, #12288
 1486 1164 941082E5 		str	r1, [r2, #148]
 1487              	.L260:
 1488 1168 084093E5 		ldr	r4, [r3, #8]
 1489 116c 0050A0E3 		mov	r5, #0
 1490 1170 041093E5 		ldr	r1, [r3, #4]
 1491 1174 0070A0E3 		mov	r7, #0
 1492 1178 086093E5 		ldr	r6, [r3, #8]
 1493 117c 070055E1 		cmp	r5, r7
 1494 1180 06005401 		cmpeq	r4, r6
 1495 1184 F7FFFF1A 		bne	.L260
 1496 1188 0490A0E1 		mov	r9, r4
 1497 118c 0080A0E3 		mov	r8, #0
 1498 1190 018088E1 		orr	r8, r8, r1
 1499 1194 028098E2 		adds	r8, r8, #2
 1500 1198 0090A9E2 		adc	r9, r9, #0
 1501              	.L261:
 1502 119c 084093E5 		ldr	r4, [r3, #8]
 1503 11a0 0050A0E3 		mov	r5, #0
 1504 11a4 041093E5 		ldr	r1, [r3, #4]
 1505 11a8 0070A0E3 		mov	r7, #0
 1506 11ac 086093E5 		ldr	r6, [r3, #8]
 1507 11b0 070055E1 		cmp	r5, r7
 1508 11b4 06005401 		cmpeq	r4, r6
 1509 11b8 F7FFFF1A 		bne	.L261
 1510 11bc 0450A0E1 		mov	r5, r4
 1511 11c0 0040A0E3 		mov	r4, #0
 1512 11c4 014084E1 		orr	r4, r4, r1
 1513 11c8 050059E1 		cmp	r9, r5
 1514 11cc 04005801 		cmpeq	r8, r4
 1515 11d0 F1FFFF8A 		bhi	.L261
 1516 11d4 A0E2A0E1 		lsr	lr, r0, #5
 1517 11d8 0110A0E3 		mov	r1, #1
 1518 11dc 1F0000E2 		and	r0, r0, #31
 1519 11e0 0EE182E0 		add	lr, r2, lr, lsl #2
 1520 11e4 1100A0E1 		lsl	r0, r1, r0
 1521 11e8 98008EE5 		str	r0, [lr, #152]
 1522              	.L263:
 1523 11ec 080093E5 		ldr	r0, [r3, #8]
 1524 11f0 0010A0E3 		mov	r1, #0
 1525 11f4 04C093E5 		ldr	ip, [r3, #4]
 1526 11f8 0050A0E3 		mov	r5, #0
 1527 11fc 084093E5 		ldr	r4, [r3, #8]
 1528 1200 050051E1 		cmp	r1, r5
 1529 1204 04005001 		cmpeq	r0, r4
 1530 1208 F7FFFF1A 		bne	.L263
 1531 120c 0050A0E1 		mov	r5, r0
 1532 1210 0040A0E3 		mov	r4, #0
 1533 1214 0C4084E1 		orr	r4, r4, ip
 1534 1218 024094E2 		adds	r4, r4, #2
 1535 121c 0050A5E2 		adc	r5, r5, #0
 1536              	.L264:
 1537 1220 080093E5 		ldr	r0, [r3, #8]
 1538 1224 0010A0E3 		mov	r1, #0
 1539 1228 04C093E5 		ldr	ip, [r3, #4]
ARM GAS  C:\Users\ldebo\AppData\Local\Temp\ccrazFu5.s 			page 28


 1540 122c 0070A0E3 		mov	r7, #0
 1541 1230 086093E5 		ldr	r6, [r3, #8]
 1542 1234 070051E1 		cmp	r1, r7
 1543 1238 06005001 		cmpeq	r0, r6
 1544 123c F7FFFF1A 		bne	.L264
 1545 1240 0010A0E1 		mov	r1, r0
 1546 1244 0000A0E3 		mov	r0, #0
 1547 1248 0C0080E1 		orr	r0, r0, ip
 1548 124c 010055E1 		cmp	r5, r1
 1549 1250 00005401 		cmpeq	r4, r0
 1550 1254 F1FFFF8A 		bhi	.L264
 1551 1258 0030A0E3 		mov	r3, #0
 1552 125c 0100A0E3 		mov	r0, #1
 1553 1260 943082E5 		str	r3, [r2, #148]
 1554 1264 98308EE5 		str	r3, [lr, #152]
 1555 1268 F083BDE8 		pop	{r4, r5, r6, r7, r8, r9, pc}
 1556              	.L266:
 1557 126c 0000A0E3 		mov	r0, #0
 1558 1270 1EFF2FE1 		bx	lr
 1559              		.size	gpio_fixResistor, .-gpio_fixResistor
 1560              		.align	2
 1561              		.global	timer_getTickCount
 1562              		.syntax unified
 1563              		.arm
 1564              		.fpu neon
 1565              		.type	timer_getTickCount, %function
 1566              	timer_getTickCount:
 1567              		@ args = 0, pretend = 0, frame = 0
 1568              		@ frame_needed = 0, uses_anonymous_args = 0
 1569              		@ link register save eliminated.
 1570 1274 003000E3 		movw	r3, #:lower16:RPi_IO_Base_Addr
 1571 1278 003040E3 		movt	r3, #:upper16:RPi_IO_Base_Addr
 1572 127c 30002DE9 		push	{r4, r5}
 1573 1280 001093E5 		ldr	r1, [r3]
 1574 1284 031A81E2 		add	r1, r1, #12288
 1575              	.L278:
 1576 1288 082091E5 		ldr	r2, [r1, #8]
 1577 128c 0030A0E3 		mov	r3, #0
 1578 1290 040091E5 		ldr	r0, [r1, #4]
 1579 1294 0050A0E3 		mov	r5, #0
 1580 1298 084091E5 		ldr	r4, [r1, #8]
 1581 129c 050053E1 		cmp	r3, r5
 1582 12a0 04005201 		cmpeq	r2, r4
 1583 12a4 F7FFFF1A 		bne	.L278
 1584 12a8 0230A0E1 		mov	r3, r2
 1585 12ac 0020A0E3 		mov	r2, #0
 1586 12b0 002082E1 		orr	r2, r2, r0
 1587 12b4 0200A0E1 		mov	r0, r2
 1588 12b8 0310A0E1 		mov	r1, r3
 1589 12bc 3000BDE8 		pop	{r4, r5}
 1590 12c0 1EFF2FE1 		bx	lr
 1591              		.size	timer_getTickCount, .-timer_getTickCount
 1592              		.align	2
 1593              		.global	timer_wait
 1594              		.syntax unified
 1595              		.arm
 1596              		.fpu neon
ARM GAS  C:\Users\ldebo\AppData\Local\Temp\ccrazFu5.s 			page 29


 1597              		.type	timer_wait, %function
 1598              	timer_wait:
 1599              		@ args = 0, pretend = 0, frame = 0
 1600              		@ frame_needed = 0, uses_anonymous_args = 0
 1601 12c4 003000E3 		movw	r3, #:lower16:RPi_IO_Base_Addr
 1602 12c8 003040E3 		movt	r3, #:upper16:RPi_IO_Base_Addr
 1603 12cc 30402DE9 		push	{r4, r5, lr}
 1604 12d0 00C093E5 		ldr	ip, [r3]
 1605 12d4 03CA8CE2 		add	ip, ip, #12288
 1606              	.L282:
 1607 12d8 08209CE5 		ldr	r2, [ip, #8]
 1608 12dc 0030A0E3 		mov	r3, #0
 1609 12e0 04E09CE5 		ldr	lr, [ip, #4]
 1610 12e4 0050A0E3 		mov	r5, #0
 1611 12e8 08409CE5 		ldr	r4, [ip, #8]
 1612 12ec 050053E1 		cmp	r3, r5
 1613 12f0 04005201 		cmpeq	r2, r4
 1614 12f4 F7FFFF1A 		bne	.L282
 1615 12f8 0250A0E1 		mov	r5, r2
 1616 12fc 0040A0E3 		mov	r4, #0
 1617 1300 0E4084E1 		orr	r4, r4, lr
 1618 1304 004094E0 		adds	r4, r4, r0
 1619 1308 0150A5E0 		adc	r5, r5, r1
 1620              	.L283:
 1621 130c 08209CE5 		ldr	r2, [ip, #8]
 1622 1310 0030A0E3 		mov	r3, #0
 1623 1314 04E09CE5 		ldr	lr, [ip, #4]
 1624 1318 0010A0E3 		mov	r1, #0
 1625 131c 08009CE5 		ldr	r0, [ip, #8]
 1626 1320 010053E1 		cmp	r3, r1
 1627 1324 00005201 		cmpeq	r2, r0
 1628 1328 F7FFFF1A 		bne	.L283
 1629 132c 0230A0E1 		mov	r3, r2
 1630 1330 0020A0E3 		mov	r2, #0
 1631 1334 0E2082E1 		orr	r2, r2, lr
 1632 1338 030055E1 		cmp	r5, r3
 1633 133c 02005401 		cmpeq	r4, r2
 1634 1340 F1FFFF8A 		bhi	.L283
 1635 1344 3080BDE8 		pop	{r4, r5, pc}
 1636              		.size	timer_wait, .-timer_wait
 1637              		.align	2
 1638              		.global	tick_difference
 1639              		.syntax unified
 1640              		.arm
 1641              		.fpu neon
 1642              		.type	tick_difference, %function
 1643              	tick_difference:
 1644              		@ args = 0, pretend = 0, frame = 0
 1645              		@ frame_needed = 0, uses_anonymous_args = 0
 1646              		@ link register save eliminated.
 1647 1348 000052E0 		subs	r0, r2, r0
 1648 134c 0110C3E0 		sbc	r1, r3, r1
 1649 1350 1EFF2FE1 		bx	lr
 1650              		.size	tick_difference, .-tick_difference
 1651              		.align	2
 1652              		.global	mailbox_write
 1653              		.syntax unified
ARM GAS  C:\Users\ldebo\AppData\Local\Temp\ccrazFu5.s 			page 30


 1654              		.arm
 1655              		.fpu neon
 1656              		.type	mailbox_write, %function
 1657              	mailbox_write:
 1658              		@ args = 0, pretend = 0, frame = 0
 1659              		@ frame_needed = 0, uses_anonymous_args = 0
 1660              		@ link register save eliminated.
 1661 1354 090050E3 		cmp	r0, #9
 1662 1358 0C00008A 		bhi	.L293
 1663 135c 0F10C1E3 		bic	r1, r1, #15
 1664 1360 003000E3 		movw	r3, #:lower16:RPi_IO_Base_Addr
 1665 1364 003040E3 		movt	r3, #:upper16:RPi_IO_Base_Addr
 1666 1368 010080E1 		orr	r0, r0, r1
 1667 136c 002093E5 		ldr	r2, [r3]
 1668 1370 2E2B82E2 		add	r2, r2, #47104
 1669 1374 802082E2 		add	r2, r2, #128
 1670              	.L292:
 1671 1378 383092E5 		ldr	r3, [r2, #56]
 1672 137c 000053E3 		cmp	r3, #0
 1673 1380 FCFFFFBA 		blt	.L292
 1674 1384 200082E5 		str	r0, [r2, #32]
 1675 1388 0100A0E3 		mov	r0, #1
 1676 138c 1EFF2FE1 		bx	lr
 1677              	.L293:
 1678 1390 0000A0E3 		mov	r0, #0
 1679 1394 1EFF2FE1 		bx	lr
 1680              		.size	mailbox_write, .-mailbox_write
 1681              		.align	2
 1682              		.global	mailbox_read
 1683              		.syntax unified
 1684              		.arm
 1685              		.fpu neon
 1686              		.type	mailbox_read, %function
 1687              	mailbox_read:
 1688              		@ args = 0, pretend = 0, frame = 0
 1689              		@ frame_needed = 0, uses_anonymous_args = 0
 1690              		@ link register save eliminated.
 1691 1398 090050E3 		cmp	r0, #9
 1692 139c 0200009A 		bls	.L302
 1693 13a0 AD0E0DE3 		movw	r0, #57005
 1694 13a4 ED0E4FE3 		movt	r0, 65261
 1695 13a8 1EFF2FE1 		bx	lr
 1696              	.L302:
 1697 13ac 003000E3 		movw	r3, #:lower16:RPi_IO_Base_Addr
 1698 13b0 003040E3 		movt	r3, #:upper16:RPi_IO_Base_Addr
 1699 13b4 002093E5 		ldr	r2, [r3]
 1700 13b8 2E2B82E2 		add	r2, r2, #47104
 1701 13bc 802082E2 		add	r2, r2, #128
 1702              	.L297:
 1703 13c0 183092E5 		ldr	r3, [r2, #24]
 1704 13c4 010113E3 		tst	r3, #1073741824
 1705 13c8 FCFFFF1A 		bne	.L297
 1706 13cc 003092E5 		ldr	r3, [r2]
 1707 13d0 0F1003E2 		and	r1, r3, #15
 1708 13d4 000051E1 		cmp	r1, r0
 1709 13d8 F8FFFF1A 		bne	.L297
 1710 13dc 0F00C3E3 		bic	r0, r3, #15
ARM GAS  C:\Users\ldebo\AppData\Local\Temp\ccrazFu5.s 			page 31


 1711 13e0 1EFF2FE1 		bx	lr
 1712              		.size	mailbox_read, .-mailbox_read
 1713              		.align	2
 1714              		.global	mailbox_tag_message
 1715              		.syntax unified
 1716              		.arm
 1717              		.fpu neon
 1718              		.type	mailbox_tag_message, %function
 1719              	mailbox_tag_message:
 1720              		@ args = 4, pretend = 12, frame = 8
 1721              		@ frame_needed = 1, uses_anonymous_args = 1
 1722 13e4 0E002DE9 		push	{r1, r2, r3}
 1723 13e8 0020A0E3 		mov	r2, #0
 1724 13ec 70482DE9 		push	{r4, r5, r6, fp, lr}
 1725 13f0 10B08DE2 		add	fp, sp, #16
 1726 13f4 08D04DE2 		sub	sp, sp, #8
 1727 13f8 0460DBE5 		ldrb	r6, [fp, #4]	@ zero_extendqisi2
 1728 13fc 90D04DE2 		sub	sp, sp, #144
 1729 1400 0F508DE2 		add	r5, sp, #15
 1730 1404 08108BE2 		add	r1, fp, #8
 1731 1408 0F50C5E3 		bic	r5, r5, #15
 1732 140c 033086E2 		add	r3, r6, #3
 1733 1410 020056E1 		cmp	r6, r2
 1734 1414 02C086E2 		add	ip, r6, #2
 1735 1418 0331A0E1 		lsl	r3, r3, #2
 1736 141c 0040A0E1 		mov	r4, r0
 1737 1420 003085E5 		str	r3, [r5]
 1738 1424 14100BE5 		str	r1, [fp, #-20]
 1739 1428 0C2185E7 		str	r2, [r5, ip, lsl #2]
 1740 142c 042085E5 		str	r2, [r5, #4]
 1741 1430 0700000A 		beq	.L307
 1742 1434 010086E2 		add	r0, r6, #1
 1743 1438 04208BE2 		add	r2, fp, #4
 1744 143c 043085E2 		add	r3, r5, #4
 1745 1440 000185E0 		add	r0, r5, r0, lsl #2
 1746              	.L306:
 1747 1444 0410B2E5 		ldr	r1, [r2, #4]!
 1748 1448 0410A3E5 		str	r1, [r3, #4]!
 1749 144c 000053E1 		cmp	r3, r0
 1750 1450 FBFFFF1A 		bne	.L306
 1751              	.L307:
 1752 1454 0500A0E1 		mov	r0, r5
 1753 1458 FEFFFFEB 		bl	ARMaddrToGPUaddr
 1754 145c 0F10C0E3 		bic	r1, r0, #15
 1755 1460 003000E3 		movw	r3, #:lower16:RPi_IO_Base_Addr
 1756 1464 003040E3 		movt	r3, #:upper16:RPi_IO_Base_Addr
 1757 1468 081081E3 		orr	r1, r1, #8
 1758 146c 003093E5 		ldr	r3, [r3]
 1759 1470 2E3B83E2 		add	r3, r3, #47104
 1760 1474 803083E2 		add	r3, r3, #128
 1761              	.L305:
 1762 1478 382093E5 		ldr	r2, [r3, #56]
 1763 147c 000052E3 		cmp	r2, #0
 1764 1480 FCFFFFBA 		blt	.L305
 1765 1484 201083E5 		str	r1, [r3, #32]
 1766              	.L308:
 1767 1488 180093E5 		ldr	r0, [r3, #24]
ARM GAS  C:\Users\ldebo\AppData\Local\Temp\ccrazFu5.s 			page 32


 1768 148c 010110E2 		ands	r0, r0, #1073741824
 1769 1490 FCFFFF1A 		bne	.L308
 1770 1494 002093E5 		ldr	r2, [r3]
 1771 1498 0F2002E2 		and	r2, r2, #15
 1772 149c 080052E3 		cmp	r2, #8
 1773 14a0 F8FFFF1A 		bne	.L308
 1774 14a4 043095E5 		ldr	r3, [r5, #4]
 1775 14a8 020153E3 		cmp	r3, #-2147483648
 1776 14ac 0300000A 		beq	.L324
 1777 14b0 10D04BE2 		sub	sp, fp, #16
 1778              		@ sp needed
 1779 14b4 7048BDE8 		pop	{r4, r5, r6, fp, lr}
 1780 14b8 0CD08DE2 		add	sp, sp, #12
 1781 14bc 1EFF2FE1 		bx	lr
 1782              	.L324:
 1783 14c0 000054E3 		cmp	r4, #0
 1784 14c4 0900000A 		beq	.L312
 1785 14c8 000056E3 		cmp	r6, #0
 1786 14cc 0700000A 		beq	.L312
 1787 14d0 016086E2 		add	r6, r6, #1
 1788 14d4 043085E2 		add	r3, r5, #4
 1789 14d8 044044E2 		sub	r4, r4, #4
 1790 14dc 065185E0 		add	r5, r5, r6, lsl #2
 1791              	.L313:
 1792 14e0 0420B3E5 		ldr	r2, [r3, #4]!
 1793 14e4 050053E1 		cmp	r3, r5
 1794 14e8 0420A4E5 		str	r2, [r4, #4]!
 1795 14ec FBFFFF1A 		bne	.L313
 1796              	.L312:
 1797 14f0 0100A0E3 		mov	r0, #1
 1798 14f4 10D04BE2 		sub	sp, fp, #16
 1799              		@ sp needed
 1800 14f8 7048BDE8 		pop	{r4, r5, r6, fp, lr}
 1801 14fc 0CD08DE2 		add	sp, sp, #12
 1802 1500 1EFF2FE1 		bx	lr
 1803              		.size	mailbox_tag_message, .-mailbox_tag_message
 1804              		.align	2
 1805              		.global	set_Activity_LED
 1806              		.syntax unified
 1807              		.arm
 1808              		.fpu neon
 1809              		.type	set_Activity_LED, %function
 1810              	set_Activity_LED:
 1811              		@ args = 0, pretend = 0, frame = 16
 1812              		@ frame_needed = 0, uses_anonymous_args = 0
 1813 1504 003000E3 		movw	r3, #:lower16:RPi_CpuId
 1814 1508 072C00E3 		movw	r2, #3079
 1815 150c 003040E3 		movt	r3, #:upper16:RPi_CpuId
 1816 1510 003093E5 		ldr	r3, [r3]
 1817 1514 5332EBE7 		ubfx	r3, r3, #4, #12
 1818 1518 020053E1 		cmp	r3, r2
 1819 151c 2F00000A 		beq	.L327
 1820 1520 032D00E3 		movw	r2, #3331
 1821 1524 020053E1 		cmp	r3, r2
 1822 1528 10402DE9 		push	{r4, lr}
 1823 152c 0040A0E1 		mov	r4, r0
 1824 1530 20D04DE2 		sub	sp, sp, #32
ARM GAS  C:\Users\ldebo\AppData\Local\Temp\ccrazFu5.s 			page 33


 1825 1534 1D00000A 		beq	.L328
 1826 1538 762B00E3 		movw	r2, #2934
 1827 153c 020053E1 		cmp	r3, r2
 1828 1540 0000A013 		movne	r0, #0
 1829 1544 0100000A 		beq	.L346
 1830              	.L326:
 1831 1548 20D08DE2 		add	sp, sp, #32
 1832              		@ sp needed
 1833 154c 1080BDE8 		pop	{r4, pc}
 1834              	.L346:
 1835 1550 00C000E3 		movw	ip, #:lower16:.LANCHOR1
 1836 1554 00C040E3 		movt	ip, #:upper16:.LANCHOR1
 1837 1558 0020DCE5 		ldrb	r2, [ip]	@ zero_extendqisi2
 1838 155c 000052E3 		cmp	r2, #0
 1839 1560 2A00000A 		beq	.L347
 1840              	.L345:
 1841 1564 003000E3 		movw	r3, #:lower16:.LANCHOR2
 1842 1568 003040E3 		movt	r3, #:upper16:.LANCHOR2
 1843 156c 003093E5 		ldr	r3, [r3]
 1844 1570 360053E3 		cmp	r3, #54
 1845 1574 0100A083 		movhi	r0, #1
 1846 1578 F2FFFF8A 		bhi	.L326
 1847              	.L340:
 1848 157c 1F2003E2 		and	r2, r3, #31
 1849 1580 0100A0E3 		mov	r0, #1
 1850 1584 000054E3 		cmp	r4, #0
 1851 1588 001000E3 		movw	r1, #:lower16:RPi_IO_Base_Addr
 1852 158c 1022A0E1 		lsl	r2, r0, r2
 1853 1590 3400001A 		bne	.L348
 1854 1594 001040E3 		movt	r1, #:upper16:RPi_IO_Base_Addr
 1855 1598 A332A0E1 		lsr	r3, r3, #5
 1856 159c 001091E5 		ldr	r1, [r1]
 1857 15a0 0A3083E2 		add	r3, r3, #10
 1858 15a4 021681E2 		add	r1, r1, #2097152
 1859 15a8 032181E7 		str	r2, [r1, r3, lsl #2]
 1860 15ac E5FFFFEA 		b	.L326
 1861              	.L328:
 1862 15b0 08008DE5 		str	r0, [sp, #8]
 1863 15b4 8230A0E3 		mov	r3, #130
 1864 15b8 04308DE5 		str	r3, [sp, #4]
 1865 15bc 412008E3 		movw	r2, #32833
 1866 15c0 032040E3 		movt	r2, 3
 1867 15c4 0830A0E3 		mov	r3, #8
 1868 15c8 00308DE5 		str	r3, [sp]
 1869 15cc 0510A0E3 		mov	r1, #5
 1870 15d0 0000A0E3 		mov	r0, #0
 1871 15d4 53FDFFEB 		bl	mailbox_tag_message.constprop.4
 1872 15d8 20D08DE2 		add	sp, sp, #32
 1873              		@ sp needed
 1874 15dc 1080BDE8 		pop	{r4, pc}
 1875              	.L327:
 1876 15e0 003000E3 		movw	r3, #:lower16:RPi_IO_Base_Addr
 1877 15e4 000050E3 		cmp	r0, #0
 1878 15e8 003040E3 		movt	r3, #:upper16:RPi_IO_Base_Addr
 1879 15ec 0229A0E3 		mov	r2, #32768
 1880 15f0 0100A003 		moveq	r0, #1
 1881 15f4 00309315 		ldrne	r3, [r3]
ARM GAS  C:\Users\ldebo\AppData\Local\Temp\ccrazFu5.s 			page 34


 1882 15f8 00309305 		ldreq	r3, [r3]
 1883 15fc 02368312 		addne	r3, r3, #2097152
 1884 1600 02368302 		addeq	r3, r3, #2097152
 1885 1604 20208315 		strne	r2, [r3, #32]
 1886 1608 2C208305 		streq	r2, [r3, #44]
 1887 160c 1EFF2FE1 		bx	lr
 1888              	.L347:
 1889 1610 04208DE5 		str	r2, [sp, #4]
 1890 1614 0430A0E3 		mov	r3, #4
 1891 1618 00208DE5 		str	r2, [sp]
 1892 161c 0220A0E3 		mov	r2, #2
 1893 1620 012040E3 		movt	r2, 1
 1894 1624 01E0A0E3 		mov	lr, #1
 1895 1628 00E0CCE5 		strb	lr, [ip]
 1896 162c 0310A0E1 		mov	r1, r3
 1897 1630 10008DE2 		add	r0, sp, #16
 1898 1634 AFFDFFEB 		bl	mailbox_tag_message.constprop.6
 1899 1638 000050E3 		cmp	r0, #0
 1900 163c C8FFFF0A 		beq	.L345
 1901 1640 1C309DE5 		ldr	r3, [sp, #28]
 1902 1644 002000E3 		movw	r2, #:lower16:.LANCHOR2
 1903 1648 002040E3 		movt	r2, #:upper16:.LANCHOR2
 1904 164c 023043E2 		sub	r3, r3, #2
 1905 1650 0D0053E3 		cmp	r3, #13
 1906 1654 1010A093 		movls	r1, #16
 1907 1658 2F10A083 		movhi	r1, #47
 1908 165c 001082E5 		str	r1, [r2]
 1909 1660 0130A0E1 		mov	r3, r1
 1910 1664 C4FFFFEA 		b	.L340
 1911              	.L348:
 1912 1668 001040E3 		movt	r1, #:upper16:RPi_IO_Base_Addr
 1913 166c 0400A0E1 		mov	r0, r4
 1914 1670 A332A0E1 		lsr	r3, r3, #5
 1915 1674 001091E5 		ldr	r1, [r1]
 1916 1678 033181E0 		add	r3, r1, r3, lsl #2
 1917 167c 023683E2 		add	r3, r3, #2097152
 1918 1680 1C2083E5 		str	r2, [r3, #28]
 1919 1684 AFFFFFEA 		b	.L326
 1920              		.size	set_Activity_LED, .-set_Activity_LED
 1921              		.align	2
 1922              		.global	ARM_setmaxspeed
 1923              		.syntax unified
 1924              		.arm
 1925              		.fpu neon
 1926              		.type	ARM_setmaxspeed, %function
 1927              	ARM_setmaxspeed:
 1928              		@ args = 0, pretend = 0, frame = 24
 1929              		@ frame_needed = 0, uses_anonymous_args = 0
 1930 1688 70402DE9 		push	{r4, r5, r6, lr}
 1931 168c 28D04DE2 		sub	sp, sp, #40
 1932 1690 0030A0E3 		mov	r3, #0
 1933 1694 0840A0E3 		mov	r4, #8
 1934 1698 08308DE5 		str	r3, [sp, #8]
 1935 169c 0350A0E3 		mov	r5, #3
 1936 16a0 0420A0E3 		mov	r2, #4
 1937 16a4 0060A0E1 		mov	r6, r0
 1938 16a8 30008DE8 		stm	sp, {r4, r5}
ARM GAS  C:\Users\ldebo\AppData\Local\Temp\ccrazFu5.s 			page 35


 1939 16ac 032040E3 		movt	r2, 3
 1940 16b0 0430A0E1 		mov	r3, r4
 1941 16b4 14008DE2 		add	r0, sp, #20
 1942 16b8 0510A0E3 		mov	r1, #5
 1943 16bc 4DFDFFEB 		bl	mailbox_tag_message.constprop.5
 1944 16c0 000050E3 		cmp	r0, #0
 1945 16c4 0300001A 		bne	.L350
 1946              	.L352:
 1947 16c8 0040A0E3 		mov	r4, #0
 1948              	.L351:
 1949 16cc 0400A0E1 		mov	r0, r4
 1950 16d0 28D08DE2 		add	sp, sp, #40
 1951              		@ sp needed
 1952 16d4 7080BDE8 		pop	{r4, r5, r6, pc}
 1953              	.L350:
 1954 16d8 24109DE5 		ldr	r1, [sp, #36]
 1955 16dc 022008E3 		movw	r2, #32770
 1956 16e0 00408DE5 		str	r4, [sp]
 1957 16e4 0430A0E1 		mov	r3, r4
 1958 16e8 08108DE5 		str	r1, [sp, #8]
 1959 16ec 14008DE2 		add	r0, sp, #20
 1960 16f0 04508DE5 		str	r5, [sp, #4]
 1961 16f4 0510A0E3 		mov	r1, #5
 1962 16f8 032040E3 		movt	r2, 3
 1963 16fc 3DFDFFEB 		bl	mailbox_tag_message.constprop.5
 1964 1700 004050E2 		subs	r4, r0, #0
 1965 1704 EFFFFF0A 		beq	.L352
 1966 1708 000056E3 		cmp	r6, #0
 1967 170c EEFFFF0A 		beq	.L351
 1968 1710 24109DE5 		ldr	r1, [sp, #36]
 1969 1714 000000E3 		movw	r0, #:lower16:.LC0
 1970 1718 000040E3 		movt	r0, #:upper16:.LC0
 1971 171c 36FF2FE1 		blx	r6
 1972 1720 0400A0E1 		mov	r0, r4
 1973 1724 28D08DE2 		add	sp, sp, #40
 1974              		@ sp needed
 1975 1728 7080BDE8 		pop	{r4, r5, r6, pc}
 1976              		.size	ARM_setmaxspeed, .-ARM_setmaxspeed
 1977              		.align	2
 1978              		.global	displaySmartStart
 1979              		.syntax unified
 1980              		.arm
 1981              		.fpu neon
 1982              		.type	displaySmartStart, %function
 1983              	displaySmartStart:
 1984              		@ args = 0, pretend = 0, frame = 0
 1985              		@ frame_needed = 0, uses_anonymous_args = 0
 1986 172c 10402DE9 		push	{r4, lr}
 1987 1730 004050E2 		subs	r4, r0, #0
 1988 1734 1080BD08 		popeq	{r4, pc}
 1989 1738 003000E3 		movw	r3, #:lower16:RPi_CompileMode
 1990 173c 000000E3 		movw	r0, #:lower16:.LC1
 1991 1740 003040E3 		movt	r3, #:upper16:RPi_CompileMode
 1992 1744 000040E3 		movt	r0, #:upper16:.LC1
 1993 1748 0010D3E5 		ldrb	r1, [r3]	@ zero_extendqisi2
 1994 174c 0020D3E5 		ldrb	r2, [r3]	@ zero_extendqisi2
 1995 1750 003093E5 		ldr	r3, [r3]
ARM GAS  C:\Users\ldebo\AppData\Local\Temp\ccrazFu5.s 			page 36


 1996 1754 0F1001E2 		and	r1, r1, #15
 1997 1758 5222E0E7 		ubfx	r2, r2, #4, #1
 1998 175c D332E2E7 		ubfx	r3, r3, #5, #3
 1999 1760 012082E2 		add	r2, r2, #1
 2000 1764 8222A0E1 		lsl	r2, r2, #5
 2001 1768 34FF2FE1 		blx	r4
 2002 176c FEFFFFEB 		bl	RPi_CpuIdString
 2003 1770 002000E3 		movw	r2, #:lower16:RPi_CpuId
 2004 1774 003000E3 		movw	r3, #:lower16:RPi_CoresReady
 2005 1778 002040E3 		movt	r2, #:upper16:RPi_CpuId
 2006 177c 0010A0E1 		mov	r1, r0
 2007 1780 003040E3 		movt	r3, #:upper16:RPi_CoresReady
 2008 1784 000000E3 		movw	r0, #:lower16:.LC2
 2009 1788 002092E5 		ldr	r2, [r2]
 2010 178c 04C0A0E1 		mov	ip, r4
 2011 1790 003093E5 		ldr	r3, [r3]
 2012 1794 5222EBE7 		ubfx	r2, r2, #4, #12
 2013 1798 000040E3 		movt	r0, #:upper16:.LC2
 2014 179c 1040BDE8 		pop	{r4, lr}
 2015 17a0 1CFF2FE1 		bx	ip
 2016              		.size	displaySmartStart, .-displaySmartStart
 2017              		.align	2
 2018              		.global	Embedded_Console_WriteChar
 2019              		.syntax unified
 2020              		.arm
 2021              		.fpu neon
 2022              		.type	Embedded_Console_WriteChar, %function
 2023              	Embedded_Console_WriteChar:
 2024              		@ args = 0, pretend = 0, frame = 0
 2025              		@ frame_needed = 0, uses_anonymous_args = 0
 2026 17a4 0A0050E3 		cmp	r0, #10
 2027 17a8 2400000A 		beq	.L365
 2028 17ac 0D0050E3 		cmp	r0, #13
 2029 17b0 1D00000A 		beq	.L366
 2030 17b4 090050E3 		cmp	r0, #9
 2031 17b8 1000000A 		beq	.L374
 2032 17bc 10402DE9 		push	{r4, lr}
 2033 17c0 004000E3 		movw	r4, #:lower16:.LANCHOR1
 2034 17c4 004040E3 		movt	r4, #:upper16:.LANCHOR1
 2035 17c8 0010A0E1 		mov	r1, r0
 2036 17cc 040084E2 		add	r0, r4, #4
 2037 17d0 1C2094E5 		ldr	r2, [r4, #28]
 2038 17d4 203094E5 		ldr	r3, [r4, #32]
 2039 17d8 8221A0E1 		lsl	r2, r2, #3
 2040 17dc 0332A0E1 		lsl	r3, r3, #4
 2041 17e0 183084E5 		str	r3, [r4, #24]
 2042 17e4 142084E5 		str	r2, [r4, #20]
 2043 17e8 403094E5 		ldr	r3, [r4, #64]
 2044 17ec 33FF2FE1 		blx	r3
 2045 17f0 1C3094E5 		ldr	r3, [r4, #28]
 2046 17f4 013083E2 		add	r3, r3, #1
 2047 17f8 1C3084E5 		str	r3, [r4, #28]
 2048 17fc 1080BDE8 		pop	{r4, pc}
 2049              	.L374:
 2050 1800 002000E3 		movw	r2, #:lower16:.LANCHOR1
 2051 1804 002040E3 		movt	r2, #:upper16:.LANCHOR1
 2052 1808 1C3092E5 		ldr	r3, [r2, #28]
ARM GAS  C:\Users\ldebo\AppData\Local\Temp\ccrazFu5.s 			page 37


 2053 180c 053083E2 		add	r3, r3, #5
 2054 1810 000073E2 		rsbs	r0, r3, #0
 2055 1814 031003E2 		and	r1, r3, #3
 2056 1818 030000E2 		and	r0, r0, #3
 2057 181c 00106052 		rsbpl	r1, r0, #0
 2058 1820 013043E0 		sub	r3, r3, r1
 2059 1824 1C3082E5 		str	r3, [r2, #28]
 2060 1828 1EFF2FE1 		bx	lr
 2061              	.L366:
 2062 182c 003000E3 		movw	r3, #:lower16:.LANCHOR1
 2063 1830 0020A0E3 		mov	r2, #0
 2064 1834 003040E3 		movt	r3, #:upper16:.LANCHOR1
 2065 1838 1C2083E5 		str	r2, [r3, #28]
 2066 183c 1EFF2FE1 		bx	lr
 2067              	.L365:
 2068 1840 003000E3 		movw	r3, #:lower16:.LANCHOR1
 2069 1844 0010A0E3 		mov	r1, #0
 2070 1848 003040E3 		movt	r3, #:upper16:.LANCHOR1
 2071 184c 202093E5 		ldr	r2, [r3, #32]
 2072 1850 1C1083E5 		str	r1, [r3, #28]
 2073 1854 012082E2 		add	r2, r2, #1
 2074 1858 202083E5 		str	r2, [r3, #32]
 2075 185c 1EFF2FE1 		bx	lr
 2076              		.size	Embedded_Console_WriteChar, .-Embedded_Console_WriteChar
 2077              		.align	2
 2078              		.global	WriteText
 2079              		.syntax unified
 2080              		.arm
 2081              		.fpu neon
 2082              		.type	WriteText, %function
 2083              	WriteText:
 2084              		@ args = 0, pretend = 0, frame = 0
 2085              		@ frame_needed = 0, uses_anonymous_args = 0
 2086 1860 F0412DE9 		push	{r4, r5, r6, r7, r8, lr}
 2087 1864 005052E2 		subs	r5, r2, #0
 2088 1868 F081BD08 		popeq	{r4, r5, r6, r7, r8, pc}
 2089 186c 004000E3 		movw	r4, #:lower16:.LANCHOR1
 2090 1870 0030A0E1 		mov	r3, r0
 2091 1874 004040E3 		movt	r4, #:upper16:.LANCHOR1
 2092 1878 0500A0E1 		mov	r0, r5
 2093 187c 1C3084E5 		str	r3, [r4, #28]
 2094 1880 201084E5 		str	r1, [r4, #32]
 2095 1884 FEFFFFEB 		bl	strlen
 2096 1888 000050E3 		cmp	r0, #0
 2097 188c F081BD08 		popeq	{r4, r5, r6, r7, r8, pc}
 2098 1890 006085E0 		add	r6, r5, r0
 2099 1894 0080A0E3 		mov	r8, #0
 2100 1898 047084E2 		add	r7, r4, #4
 2101 189c 130000EA 		b	.L383
 2102              	.L393:
 2103 18a0 0D0053E3 		cmp	r3, #13
 2104 18a4 0310A0E1 		mov	r1, r3
 2105 18a8 1C808405 		streq	r8, [r4, #28]
 2106 18ac 0700A0E1 		mov	r0, r7
 2107 18b0 0C00000A 		beq	.L382
 2108 18b4 090053E3 		cmp	r3, #9
 2109 18b8 1600000A 		beq	.L391
ARM GAS  C:\Users\ldebo\AppData\Local\Temp\ccrazFu5.s 			page 38


 2110 18bc 1C2094E5 		ldr	r2, [r4, #28]
 2111 18c0 203094E5 		ldr	r3, [r4, #32]
 2112 18c4 8221A0E1 		lsl	r2, r2, #3
 2113 18c8 0332A0E1 		lsl	r3, r3, #4
 2114 18cc 183084E5 		str	r3, [r4, #24]
 2115 18d0 142084E5 		str	r2, [r4, #20]
 2116 18d4 403094E5 		ldr	r3, [r4, #64]
 2117 18d8 33FF2FE1 		blx	r3
 2118 18dc 1C3094E5 		ldr	r3, [r4, #28]
 2119 18e0 013083E2 		add	r3, r3, #1
 2120 18e4 1C3084E5 		str	r3, [r4, #28]
 2121              	.L382:
 2122 18e8 060055E1 		cmp	r5, r6
 2123 18ec 0800000A 		beq	.L392
 2124              	.L383:
 2125 18f0 0130D5E4 		ldrb	r3, [r5], #1	@ zero_extendqisi2
 2126 18f4 0A0053E3 		cmp	r3, #10
 2127 18f8 E8FFFF1A 		bne	.L393
 2128 18fc 203094E5 		ldr	r3, [r4, #32]
 2129 1900 060055E1 		cmp	r5, r6
 2130 1904 1C8084E5 		str	r8, [r4, #28]
 2131 1908 013083E2 		add	r3, r3, #1
 2132 190c 203084E5 		str	r3, [r4, #32]
 2133 1910 F6FFFF1A 		bne	.L383
 2134              	.L392:
 2135 1914 F081BDE8 		pop	{r4, r5, r6, r7, r8, pc}
 2136              	.L391:
 2137 1918 1C3094E5 		ldr	r3, [r4, #28]
 2138 191c 053083E2 		add	r3, r3, #5
 2139 1920 001073E2 		rsbs	r1, r3, #0
 2140 1924 032003E2 		and	r2, r3, #3
 2141 1928 031001E2 		and	r1, r1, #3
 2142 192c 00206152 		rsbpl	r2, r1, #0
 2143 1930 023043E0 		sub	r3, r3, r2
 2144 1934 1C3084E5 		str	r3, [r4, #28]
 2145 1938 EAFFFFEA 		b	.L382
 2146              		.size	WriteText, .-WriteText
 2147              		.align	2
 2148              		.global	SetDCPenColor
 2149              		.syntax unified
 2150              		.arm
 2151              		.fpu neon
 2152              		.type	SetDCPenColor, %function
 2153              	SetDCPenColor:
 2154              		@ args = 0, pretend = 0, frame = 0
 2155              		@ frame_needed = 0, uses_anonymous_args = 0
 2156              		@ link register save eliminated.
 2157 193c 003050E2 		subs	r3, r0, #0
 2158 1940 20009315 		ldrne	r0, [r3, #32]
 2159 1944 0300A001 		moveq	r0, r3
 2160 1948 20108315 		strne	r1, [r3, #32]
 2161 194c 1EFF2FE1 		bx	lr
 2162              		.size	SetDCPenColor, .-SetDCPenColor
 2163              		.align	2
 2164              		.global	SetDCBrushColor
 2165              		.syntax unified
 2166              		.arm
ARM GAS  C:\Users\ldebo\AppData\Local\Temp\ccrazFu5.s 			page 39


 2167              		.fpu neon
 2168              		.type	SetDCBrushColor, %function
 2169              	SetDCBrushColor:
 2170              		@ args = 0, pretend = 0, frame = 0
 2171              		@ frame_needed = 0, uses_anonymous_args = 0
 2172              		@ link register save eliminated.
 2173 1950 003050E2 		subs	r3, r0, #0
 2174 1954 28009315 		ldrne	r0, [r3, #40]
 2175 1958 0300A001 		moveq	r0, r3
 2176 195c 28108315 		strne	r1, [r3, #40]
 2177 1960 1EFF2FE1 		bx	lr
 2178              		.size	SetDCBrushColor, .-SetDCBrushColor
 2179              		.align	2
 2180              		.global	MoveToEx
 2181              		.syntax unified
 2182              		.arm
 2183              		.fpu neon
 2184              		.type	MoveToEx, %function
 2185              	MoveToEx:
 2186              		@ args = 0, pretend = 0, frame = 0
 2187              		@ frame_needed = 0, uses_anonymous_args = 0
 2188 1964 00C050E2 		subs	ip, r0, #0
 2189 1968 0900000A 		beq	.L403
 2190 196c 000053E3 		cmp	r3, #0
 2191 1970 04E02DE5 		str	lr, [sp, #-4]!
 2192 1974 01E0A0E1 		mov	lr, r1
 2193 1978 10108C12 		addne	r1, ip, #16
 2194 197c 03009118 		ldmne	r1, {r0, r1}
 2195 1980 03008318 		stmne	r3, {r0, r1}
 2196 1984 10E08CE5 		str	lr, [ip, #16]
 2197 1988 0100A0E3 		mov	r0, #1
 2198 198c 14208CE5 		str	r2, [ip, #20]
 2199 1990 04F09DE4 		ldr	pc, [sp], #4
 2200              	.L403:
 2201 1994 0C00A0E1 		mov	r0, ip
 2202 1998 1EFF2FE1 		bx	lr
 2203              		.size	MoveToEx, .-MoveToEx
 2204              		.align	2
 2205              		.global	LineTo
 2206              		.syntax unified
 2207              		.arm
 2208              		.fpu neon
 2209              		.type	LineTo, %function
 2210              	LineTo:
 2211              		@ args = 0, pretend = 0, frame = 0
 2212              		@ frame_needed = 0, uses_anonymous_args = 0
 2213 199c 000050E3 		cmp	r0, #0
 2214 19a0 1EFF2F01 		bxeq	lr
 2215 19a4 103090E5 		ldr	r3, [r0, #16]
 2216 19a8 14C090E5 		ldr	ip, [r0, #20]
 2217 19ac 010053E1 		cmp	r3, r1
 2218 19b0 011043C0 		subgt	r1, r3, r1
 2219 19b4 0030E0C3 		mvngt	r3, #0
 2220 19b8 031041D0 		suble	r1, r1, r3
 2221 19bc 0130A0D3 		movle	r3, #1
 2222 19c0 02005CE1 		cmp	ip, r2
 2223 19c4 02C04CC0 		subgt	ip, ip, r2
ARM GAS  C:\Users\ldebo\AppData\Local\Temp\ccrazFu5.s 			page 40


 2224 19c8 0020E0C3 		mvngt	r2, #0
 2225 19cc 0CC042D0 		suble	ip, r2, ip
 2226 19d0 0120A0D3 		movle	r2, #1
 2227 19d4 000051E3 		cmp	r1, #0
 2228 19d8 10402DE9 		push	{r4, lr}
 2229 19dc 08D04DE2 		sub	sp, sp, #8
 2230 19e0 0E00000A 		beq	.L424
 2231 19e4 00005CE3 		cmp	ip, #0
 2232 19e8 0600000A 		beq	.L425
 2233 19ec 00208DE5 		str	r2, [sp]
 2234 19f0 0C20A0E1 		mov	r2, ip
 2235 19f4 384090E5 		ldr	r4, [r0, #56]
 2236 19f8 34FF2FE1 		blx	r4
 2237 19fc 0100A0E3 		mov	r0, #1
 2238 1a00 08D08DE2 		add	sp, sp, #8
 2239              		@ sp needed
 2240 1a04 1080BDE8 		pop	{r4, pc}
 2241              	.L425:
 2242 1a08 344090E5 		ldr	r4, [r0, #52]
 2243 1a0c 0320A0E1 		mov	r2, r3
 2244 1a10 34FF2FE1 		blx	r4
 2245 1a14 0100A0E3 		mov	r0, #1
 2246 1a18 08D08DE2 		add	sp, sp, #8
 2247              		@ sp needed
 2248 1a1c 1080BDE8 		pop	{r4, pc}
 2249              	.L424:
 2250 1a20 303090E5 		ldr	r3, [r0, #48]
 2251 1a24 0C10A0E1 		mov	r1, ip
 2252 1a28 33FF2FE1 		blx	r3
 2253 1a2c 0100A0E3 		mov	r0, #1
 2254 1a30 08D08DE2 		add	sp, sp, #8
 2255              		@ sp needed
 2256 1a34 1080BDE8 		pop	{r4, pc}
 2257              		.size	LineTo, .-LineTo
 2258              		.align	2
 2259              		.global	TextOut
 2260              		.syntax unified
 2261              		.arm
 2262              		.fpu neon
 2263              		.type	TextOut, %function
 2264              	TextOut:
 2265              		@ args = 4, pretend = 0, frame = 0
 2266              		@ frame_needed = 0, uses_anonymous_args = 0
 2267 1a38 F0472DE9 		push	{r4, r5, r6, r7, r8, r9, r10, lr}
 2268 1a3c 20709DE5 		ldr	r7, [sp, #32]
 2269 1a40 000057E3 		cmp	r7, #0
 2270 1a44 00005313 		cmpne	r3, #0
 2271 1a48 0100A013 		movne	r0, #1
 2272 1a4c 0000A003 		moveq	r0, #0
 2273 1a50 F087BD08 		popeq	{r4, r5, r6, r7, r8, r9, r10, pc}
 2274 1a54 000057E3 		cmp	r7, #0
 2275 1a58 0F0000DA 		ble	.L430
 2276 1a5c 077083E0 		add	r7, r3, r7
 2277 1a60 005000E3 		movw	r5, #:lower16:.LANCHOR1
 2278 1a64 005040E3 		movt	r5, #:upper16:.LANCHOR1
 2279 1a68 0160A0E1 		mov	r6, r1
 2280 1a6c 0280A0E1 		mov	r8, r2
ARM GAS  C:\Users\ldebo\AppData\Local\Temp\ccrazFu5.s 			page 41


 2281 1a70 0340A0E1 		mov	r4, r3
 2282 1a74 049085E2 		add	r9, r5, #4
 2283              	.L429:
 2284 1a78 146085E5 		str	r6, [r5, #20]
 2285 1a7c 0900A0E1 		mov	r0, r9
 2286 1a80 188085E5 		str	r8, [r5, #24]
 2287 1a84 086086E2 		add	r6, r6, #8
 2288 1a88 0110D4E4 		ldrb	r1, [r4], #1	@ zero_extendqisi2
 2289 1a8c 403095E5 		ldr	r3, [r5, #64]
 2290 1a90 33FF2FE1 		blx	r3
 2291 1a94 040057E1 		cmp	r7, r4
 2292 1a98 F6FFFF1A 		bne	.L429
 2293              	.L430:
 2294 1a9c 0100A0E3 		mov	r0, #1
 2295 1aa0 F087BDE8 		pop	{r4, r5, r6, r7, r8, r9, r10, pc}
 2296              		.size	TextOut, .-TextOut
 2297              		.align	2
 2298              		.global	BmpOut
 2299              		.syntax unified
 2300              		.arm
 2301              		.fpu neon
 2302              		.type	BmpOut, %function
 2303              	BmpOut:
 2304              		@ args = 8, pretend = 0, frame = 0
 2305              		@ frame_needed = 0, uses_anonymous_args = 0
 2306 1aa4 00C050E2 		subs	ip, r0, #0
 2307 1aa8 1000000A 		beq	.L436
 2308 1aac 30402DE9 		push	{r4, r5, lr}
 2309 1ab0 0CD04DE2 		sub	sp, sp, #12
 2310 1ab4 01E0A0E1 		mov	lr, r1
 2311 1ab8 0140A0E3 		mov	r4, #1
 2312 1abc 18109DE5 		ldr	r1, [sp, #24]
 2313 1ac0 10E08CE5 		str	lr, [ip, #16]
 2314 1ac4 012082E0 		add	r2, r2, r1
 2315 1ac8 0310A0E1 		mov	r1, r3
 2316 1acc 14208CE5 		str	r2, [ip, #20]
 2317 1ad0 1C309DE5 		ldr	r3, [sp, #28]
 2318 1ad4 00408DE5 		str	r4, [sp]
 2319 1ad8 18209DE5 		ldr	r2, [sp, #24]
 2320 1adc 40509CE5 		ldr	r5, [ip, #64]
 2321 1ae0 35FF2FE1 		blx	r5
 2322 1ae4 0400A0E1 		mov	r0, r4
 2323 1ae8 0CD08DE2 		add	sp, sp, #12
 2324              		@ sp needed
 2325 1aec 3080BDE8 		pop	{r4, r5, pc}
 2326              	.L436:
 2327 1af0 0C00A0E1 		mov	r0, ip
 2328 1af4 1EFF2FE1 		bx	lr
 2329              		.size	BmpOut, .-BmpOut
 2330              		.align	2
 2331              		.global	CvtBmpLine
 2332              		.syntax unified
 2333              		.arm
 2334              		.fpu neon
 2335              		.type	CvtBmpLine, %function
 2336              	CvtBmpLine:
 2337              		@ args = 8, pretend = 0, frame = 4096
ARM GAS  C:\Users\ldebo\AppData\Local\Temp\ccrazFu5.s 			page 42


 2338              		@ frame_needed = 0, uses_anonymous_args = 0
 2339 1af8 70402DE9 		push	{r4, r5, r6, lr}
 2340 1afc 01DA4DE2 		sub	sp, sp, #4096
 2341 1b00 08D04DE2 		sub	sp, sp, #8
 2342 1b04 000050E3 		cmp	r0, #0
 2343 1b08 01CA8DE2 		add	ip, sp, #4096
 2344 1b0c 18C08CE2 		add	ip, ip, #24
 2345 1b10 00E09CE5 		ldr	lr, [ip]
 2346 1b14 1200000A 		beq	.L441
 2347 1b18 0CC090E5 		ldr	ip, [r0, #12]
 2348 1b1c 101080E5 		str	r1, [r0, #16]
 2349 1b20 0E005CE1 		cmp	ip, lr
 2350 1b24 142080E5 		str	r2, [r0, #20]
 2351 1b28 0500000A 		beq	.L444
 2352 1b2c 18005CE3 		cmp	ip, #24
 2353 1b30 0E00000A 		beq	.L445
 2354 1b34 20005CE3 		cmp	ip, #32
 2355 1b38 3E00000A 		beq	.L446
 2356 1b3c 10005CE3 		cmp	ip, #16
 2357 1b40 1E00000A 		beq	.L478
 2358              	.L444:
 2359 1b44 0140A0E3 		mov	r4, #1
 2360 1b48 0310A0E1 		mov	r1, r3
 2361 1b4c 00408DE5 		str	r4, [sp]
 2362 1b50 08308DE2 		add	r3, sp, #8
 2363 1b54 405090E5 		ldr	r5, [r0, #64]
 2364 1b58 0420A0E1 		mov	r2, r4
 2365 1b5c 35FF2FE1 		blx	r5
 2366 1b60 0400A0E1 		mov	r0, r4
 2367              	.L441:
 2368 1b64 01DA8DE2 		add	sp, sp, #4096
 2369 1b68 08D08DE2 		add	sp, sp, #8
 2370              		@ sp needed
 2371 1b6c 7080BDE8 		pop	{r4, r5, r6, pc}
 2372              	.L445:
 2373 1b70 10005EE3 		cmp	lr, #16
 2374 1b74 4300000A 		beq	.L453
 2375 1b78 000053E3 		cmp	r3, #0
 2376 1b7c F0FFFF0A 		beq	.L444
 2377 1b80 012A8DE2 		add	r2, sp, #4096
 2378 1b84 0340A0E3 		mov	r4, #3
 2379 1b88 1C2082E2 		add	r2, r2, #28
 2380 1b8c 001092E5 		ldr	r1, [r2]
 2381 1b90 08208DE2 		add	r2, sp, #8
 2382 1b94 942324E0 		mla	r4, r4, r3, r2
 2383              	.L456:
 2384 1b98 00C0D1E5 		ldrb	ip, [r1]	@ zero_extendqisi2
 2385 1b9c 041081E2 		add	r1, r1, #4
 2386 1ba0 03E051E5 		ldrb	lr, [r1, #-3]	@ zero_extendqisi2
 2387 1ba4 03C0C2E4 		strb	ip, [r2], #3
 2388 1ba8 02C051E5 		ldrb	ip, [r1, #-2]	@ zero_extendqisi2
 2389 1bac 040052E1 		cmp	r2, r4
 2390 1bb0 02E042E5 		strb	lr, [r2, #-2]
 2391 1bb4 01C042E5 		strb	ip, [r2, #-1]
 2392 1bb8 F6FFFF1A 		bne	.L456
 2393 1bbc E0FFFFEA 		b	.L444
 2394              	.L478:
ARM GAS  C:\Users\ldebo\AppData\Local\Temp\ccrazFu5.s 			page 43


 2395 1bc0 18005EE3 		cmp	lr, #24
 2396 1bc4 5E00000A 		beq	.L448
 2397 1bc8 000053E3 		cmp	r3, #0
 2398 1bcc DCFFFF0A 		beq	.L444
 2399 1bd0 012A8DE2 		add	r2, sp, #4096
 2400 1bd4 0040A0E3 		mov	r4, #0
 2401 1bd8 1C2082E2 		add	r2, r2, #28
 2402 1bdc 001092E5 		ldr	r1, [r2]
 2403 1be0 08208DE2 		add	r2, sp, #8
 2404              	.L452:
 2405 1be4 00C0D1E5 		ldrb	ip, [r1]	@ zero_extendqisi2
 2406 1be8 041081E2 		add	r1, r1, #4
 2407 1bec 0050D2E5 		ldrb	r5, [r2]	@ zero_extendqisi2
 2408 1bf0 014084E2 		add	r4, r4, #1
 2409 1bf4 ACC1A0E1 		lsr	ip, ip, #3
 2410 1bf8 022082E2 		add	r2, r2, #2
 2411 1bfc 1C50C4E7 		bfi	r5, ip, #0, #5
 2412 1c00 03E051E5 		ldrb	lr, [r1, #-3]	@ zero_extendqisi2
 2413 1c04 025042E5 		strb	r5, [r2, #-2]
 2414 1c08 B2C052E1 		ldrh	ip, [r2, #-2]
 2415 1c0c 2EE1A0E1 		lsr	lr, lr, #2
 2416 1c10 9EC2CAE7 		bfi	ip, lr, #5, #6
 2417 1c14 02E051E5 		ldrb	lr, [r1, #-2]	@ zero_extendqisi2
 2418 1c18 2C54A0E1 		lsr	r5, ip, #8
 2419 1c1c AEE1A0E1 		lsr	lr, lr, #3
 2420 1c20 040053E1 		cmp	r3, r4
 2421 1c24 9E51C7E7 		bfi	r5, lr, #3, #5
 2422 1c28 B2C042E1 		strh	ip, [r2, #-2]	@ movhi
 2423 1c2c 015042E5 		strb	r5, [r2, #-1]
 2424 1c30 EBFFFF1A 		bne	.L452
 2425 1c34 C2FFFFEA 		b	.L444
 2426              	.L446:
 2427 1c38 10005EE3 		cmp	lr, #16
 2428 1c3c 2900000A 		beq	.L457
 2429 1c40 000053E3 		cmp	r3, #0
 2430 1c44 BEFFFF0A 		beq	.L444
 2431 1c48 012A8DE2 		add	r2, sp, #4096
 2432 1c4c 0350A0E3 		mov	r5, #3
 2433 1c50 1C2082E2 		add	r2, r2, #28
 2434 1c54 08108DE2 		add	r1, sp, #8
 2435 1c58 002092E5 		ldr	r2, [r2]
 2436 1c5c 952325E0 		mla	r5, r5, r3, r2
 2437              	.L460:
 2438 1c60 0040D2E5 		ldrb	r4, [r2]	@ zero_extendqisi2
 2439 1c64 032082E2 		add	r2, r2, #3
 2440 1c68 050052E1 		cmp	r2, r5
 2441 1c6c 02E052E5 		ldrb	lr, [r2, #-2]	@ zero_extendqisi2
 2442 1c70 01C052E5 		ldrb	ip, [r2, #-1]	@ zero_extendqisi2
 2443 1c74 0440C1E4 		strb	r4, [r1], #4
 2444 1c78 03E041E5 		strb	lr, [r1, #-3]
 2445 1c7c 02C041E5 		strb	ip, [r1, #-2]
 2446 1c80 F6FFFF1A 		bne	.L460
 2447 1c84 AEFFFFEA 		b	.L444
 2448              	.L453:
 2449 1c88 000053E3 		cmp	r3, #0
 2450 1c8c ACFFFF0A 		beq	.L444
 2451 1c90 012A8DE2 		add	r2, sp, #4096
ARM GAS  C:\Users\ldebo\AppData\Local\Temp\ccrazFu5.s 			page 44


 2452 1c94 0360A0E3 		mov	r6, #3
 2453 1c98 1C2082E2 		add	r2, r2, #28
 2454 1c9c 00E092E5 		ldr	lr, [r2]
 2455 1ca0 08208DE2 		add	r2, sp, #8
 2456 1ca4 962326E0 		mla	r6, r6, r3, r2
 2457 1ca8 0210A0E1 		mov	r1, r2
 2458              	.L455:
 2459 1cac 01C0DEE5 		ldrb	ip, [lr, #1]	@ zero_extendqisi2
 2460 1cb0 02E08EE2 		add	lr, lr, #2
 2461 1cb4 02405EE5 		ldrb	r4, [lr, #-2]	@ zero_extendqisi2
 2462 1cb8 07200CE2 		and	r2, ip, #7
 2463 1cbc F8C00CE2 		and	ip, ip, #248
 2464 1cc0 8451A0E1 		lsl	r5, r4, #3
 2465 1cc4 8221A0E1 		lsl	r2, r2, #3
 2466 1cc8 A42282E1 		orr	r2, r2, r4, lsr #5
 2467 1ccc 0350C1E4 		strb	r5, [r1], #3
 2468 1cd0 060051E1 		cmp	r1, r6
 2469 1cd4 0221A0E1 		lsl	r2, r2, #2
 2470 1cd8 01C041E5 		strb	ip, [r1, #-1]
 2471 1cdc 022041E5 		strb	r2, [r1, #-2]
 2472 1ce0 F1FFFF1A 		bne	.L455
 2473 1ce4 96FFFFEA 		b	.L444
 2474              	.L457:
 2475 1ce8 000053E3 		cmp	r3, #0
 2476 1cec 94FFFF0A 		beq	.L444
 2477 1cf0 012A8DE2 		add	r2, sp, #4096
 2478 1cf4 0050A0E3 		mov	r5, #0
 2479 1cf8 1C2082E2 		add	r2, r2, #28
 2480 1cfc 08E08DE2 		add	lr, sp, #8
 2481 1d00 004092E5 		ldr	r4, [r2]
 2482              	.L459:
 2483 1d04 0110D4E5 		ldrb	r1, [r4, #1]	@ zero_extendqisi2
 2484 1d08 015085E2 		add	r5, r5, #1
 2485 1d0c 00C0D4E5 		ldrb	ip, [r4]	@ zero_extendqisi2
 2486 1d10 024084E2 		add	r4, r4, #2
 2487 1d14 050053E1 		cmp	r3, r5
 2488 1d18 072001E2 		and	r2, r1, #7
 2489 1d1c F81001E2 		and	r1, r1, #248
 2490 1d20 8221A0E1 		lsl	r2, r2, #3
 2491 1d24 AC2282E1 		orr	r2, r2, ip, lsr #5
 2492 1d28 8CC1A0E1 		lsl	ip, ip, #3
 2493 1d2c 0221A0E1 		lsl	r2, r2, #2
 2494 1d30 04C0CEE4 		strb	ip, [lr], #4
 2495 1d34 02104EE5 		strb	r1, [lr, #-2]
 2496 1d38 03204EE5 		strb	r2, [lr, #-3]
 2497 1d3c F0FFFF1A 		bne	.L459
 2498 1d40 7FFFFFEA 		b	.L444
 2499              	.L448:
 2500 1d44 000053E3 		cmp	r3, #0
 2501 1d48 7DFFFF0A 		beq	.L444
 2502 1d4c 012A8DE2 		add	r2, sp, #4096
 2503 1d50 0350A0E3 		mov	r5, #3
 2504 1d54 1C2082E2 		add	r2, r2, #28
 2505 1d58 001092E5 		ldr	r1, [r2]
 2506 1d5c 08208DE2 		add	r2, sp, #8
 2507 1d60 951325E0 		mla	r5, r5, r3, r1
 2508              	.L451:
ARM GAS  C:\Users\ldebo\AppData\Local\Temp\ccrazFu5.s 			page 45


 2509 1d64 00C0D1E5 		ldrb	ip, [r1]	@ zero_extendqisi2
 2510 1d68 031081E2 		add	r1, r1, #3
 2511 1d6c 0040D2E5 		ldrb	r4, [r2]	@ zero_extendqisi2
 2512 1d70 022082E2 		add	r2, r2, #2
 2513 1d74 ACC1A0E1 		lsr	ip, ip, #3
 2514 1d78 1C40C4E7 		bfi	r4, ip, #0, #5
 2515 1d7c 02E051E5 		ldrb	lr, [r1, #-2]	@ zero_extendqisi2
 2516 1d80 024042E5 		strb	r4, [r2, #-2]
 2517 1d84 B2C052E1 		ldrh	ip, [r2, #-2]
 2518 1d88 2EE1A0E1 		lsr	lr, lr, #2
 2519 1d8c 9EC2CAE7 		bfi	ip, lr, #5, #6
 2520 1d90 01E051E5 		ldrb	lr, [r1, #-1]	@ zero_extendqisi2
 2521 1d94 2C44A0E1 		lsr	r4, ip, #8
 2522 1d98 AEE1A0E1 		lsr	lr, lr, #3
 2523 1d9c 050051E1 		cmp	r1, r5
 2524 1da0 9E41C7E7 		bfi	r4, lr, #3, #5
 2525 1da4 B2C042E1 		strh	ip, [r2, #-2]	@ movhi
 2526 1da8 014042E5 		strb	r4, [r2, #-1]
 2527 1dac ECFFFF1A 		bne	.L451
 2528 1db0 63FFFFEA 		b	.L444
 2529              		.size	CvtBmpLine, .-CvtBmpLine
 2530              		.align	2
 2531              		.global	Rectangle
 2532              		.syntax unified
 2533              		.arm
 2534              		.fpu neon
 2535              		.type	Rectangle, %function
 2536              	Rectangle:
 2537              		@ args = 4, pretend = 0, frame = 0
 2538              		@ frame_needed = 0, uses_anonymous_args = 0
 2539 1db4 00C050E2 		subs	ip, r0, #0
 2540 1db8 0800000A 		beq	.L481
 2541 1dbc 10402DE9 		push	{r4, lr}
 2542 1dc0 08D04DE2 		sub	sp, sp, #8
 2543 1dc4 10E09DE5 		ldr	lr, [sp, #16]
 2544 1dc8 00E08DE5 		str	lr, [sp]
 2545 1dcc 2C409CE5 		ldr	r4, [ip, #44]
 2546 1dd0 34FF2FE1 		blx	r4
 2547 1dd4 0100A0E3 		mov	r0, #1
 2548 1dd8 08D08DE2 		add	sp, sp, #8
 2549              		@ sp needed
 2550 1ddc 1080BDE8 		pop	{r4, pc}
 2551              	.L481:
 2552 1de0 0C00A0E1 		mov	r0, ip
 2553 1de4 1EFF2FE1 		bx	lr
 2554              		.size	Rectangle, .-Rectangle
 2555              		.align	2
 2556              		.global	PiConsole_Init
 2557              		.syntax unified
 2558              		.arm
 2559              		.fpu neon
 2560              		.type	PiConsole_Init, %function
 2561              	PiConsole_Init:
 2562              		@ args = 0, pretend = 0, frame = 80
 2563              		@ frame_needed = 0, uses_anonymous_args = 0
 2564 1de8 000051E3 		cmp	r1, #0
 2565 1dec 00005013 		cmpne	r0, #0
ARM GAS  C:\Users\ldebo\AppData\Local\Temp\ccrazFu5.s 			page 46


 2566 1df0 F0432DE9 		push	{r4, r5, r6, r7, r8, r9, lr}
 2567 1df4 9CD04DE2 		sub	sp, sp, #156
 2568 1df8 4C708DE2 		add	r7, sp, #76
 2569 1dfc 0240A0E1 		mov	r4, r2
 2570 1e00 0380A0E1 		mov	r8, r3
 2571 1e04 0050A0E1 		mov	r5, r0
 2572 1e08 0160A0E1 		mov	r6, r1
 2573 1e0c 6400000A 		beq	.L511
 2574              	.L487:
 2575 1e10 000054E3 		cmp	r4, #0
 2576 1e14 0A00001A 		bne	.L491
 2577 1e18 04408DE5 		str	r4, [sp, #4]
 2578 1e1c 0430A0E3 		mov	r3, #4
 2579 1e20 00308DE5 		str	r3, [sp]
 2580 1e24 0520A0E3 		mov	r2, #5
 2581 1e28 042040E3 		movt	r2, 4
 2582 1e2c 0310A0E1 		mov	r1, r3
 2583 1e30 0700A0E1 		mov	r0, r7
 2584 1e34 AFFBFFEB 		bl	mailbox_tag_message.constprop.6
 2585 1e38 000050E3 		cmp	r0, #0
 2586 1e3c 2300000A 		beq	.L492
 2587 1e40 58409DE5 		ldr	r4, [sp, #88]
 2588              	.L491:
 2589 1e44 2C408DE5 		str	r4, [sp, #44]
 2590 1e48 0190A0E3 		mov	r9, #1
 2591 1e4c 049040E3 		movt	r9, 4
 2592 1e50 053008E3 		movw	r3, #32773
 2593 1e54 043040E3 		movt	r3, 4
 2594 1e58 04E008E3 		movw	lr, #32772
 2595 1e5c 04E040E3 		movt	lr, 4
 2596 1e60 08C0A0E3 		mov	ip, #8
 2597 1e64 30908DE5 		str	r9, [sp, #48]
 2598 1e68 0410A0E3 		mov	r1, #4
 2599 1e6c 20308DE5 		str	r3, [sp, #32]
 2600 1e70 032008E3 		movw	r2, #32771
 2601 1e74 0CE08DE5 		str	lr, [sp, #12]
 2602 1e78 0700A0E1 		mov	r0, r7
 2603 1e7c 38108DE5 		str	r1, [sp, #56]
 2604 1e80 10E0A0E3 		mov	lr, #16
 2605 1e84 28108DE5 		str	r1, [sp, #40]
 2606 1e88 0C30A0E1 		mov	r3, ip
 2607 1e8c 24108DE5 		str	r1, [sp, #36]
 2608 1e90 0070A0E3 		mov	r7, #0
 2609 1e94 1C608DE5 		str	r6, [sp, #28]
 2610 1e98 1310A0E3 		mov	r1, #19
 2611 1e9c 18508DE5 		str	r5, [sp, #24]
 2612 1ea0 08608DE5 		str	r6, [sp, #8]
 2613 1ea4 04508DE5 		str	r5, [sp, #4]
 2614 1ea8 34C08DE5 		str	ip, [sp, #52]
 2615 1eac 14C08DE5 		str	ip, [sp, #20]
 2616 1eb0 10C08DE5 		str	ip, [sp, #16]
 2617 1eb4 00C08DE5 		str	ip, [sp]
 2618 1eb8 042040E3 		movt	r2, 4
 2619 1ebc 40708DE5 		str	r7, [sp, #64]
 2620 1ec0 3CE08DE5 		str	lr, [sp, #60]
 2621 1ec4 C6FBFFEB 		bl	mailbox_tag_message.constprop.7
 2622 1ec8 009050E2 		subs	r9, r0, #0
ARM GAS  C:\Users\ldebo\AppData\Local\Temp\ccrazFu5.s 			page 47


 2623 1ecc 0300001A 		bne	.L512
 2624              	.L492:
 2625 1ed0 0090A0E3 		mov	r9, #0
 2626              	.L489:
 2627 1ed4 0900A0E1 		mov	r0, r9
 2628 1ed8 9CD08DE2 		add	sp, sp, #156
 2629              		@ sp needed
 2630 1edc F083BDE8 		pop	{r4, r5, r6, r7, r8, r9, pc}
 2631              	.L512:
 2632 1ee0 90009DE5 		ldr	r0, [sp, #144]
 2633 1ee4 FEFFFFEB 		bl	GPUaddrToARMaddr
 2634 1ee8 003000E3 		movw	r3, #:lower16:.LANCHOR1
 2635 1eec FF2CA0E3 		mov	r2, #65280
 2636 1ef0 003040E3 		movt	r3, #:upper16:.LANCHOR1
 2637 1ef4 180054E3 		cmp	r4, #24
 2638 1ef8 002F4FE3 		movt	r2, 65280
 2639 1efc 0010E0E3 		mvn	r1, #0
 2640 1f00 040083E5 		str	r0, [r3, #4]
 2641 1f04 287083E5 		str	r7, [r3, #40]
 2642 1f08 085083E5 		str	r5, [r3, #8]
 2643 1f0c 0C6083E5 		str	r6, [r3, #12]
 2644 1f10 104083E5 		str	r4, [r3, #16]
 2645 1f14 241083E5 		str	r1, [r3, #36]
 2646 1f18 2C2083E5 		str	r2, [r3, #44]
 2647 1f1c 4600000A 		beq	.L494
 2648 1f20 200054E3 		cmp	r4, #32
 2649 1f24 3100000A 		beq	.L495
 2650 1f28 100054E3 		cmp	r4, #16
 2651 1f2c 1100001A 		bne	.L493
 2652 1f30 001000E3 		movw	r1, #:lower16:ClearArea16
 2653 1f34 002000E3 		movw	r2, #:lower16:VertLine16
 2654 1f38 001040E3 		movt	r1, #:upper16:ClearArea16
 2655 1f3c 00C000E3 		movw	ip, #:lower16:HorzLine16
 2656 1f40 002040E3 		movt	r2, #:upper16:VertLine16
 2657 1f44 000000E3 		movw	r0, #:lower16:DiagLine16
 2658 1f48 301083E5 		str	r1, [r3, #48]
 2659 1f4c 001000E3 		movw	r1, #:lower16:WriteChar16
 2660 1f50 342083E5 		str	r2, [r3, #52]
 2661 1f54 002000E3 		movw	r2, #:lower16:PutImage16
 2662 1f58 00C040E3 		movt	ip, #:upper16:HorzLine16
 2663 1f5c 000040E3 		movt	r0, #:upper16:DiagLine16
 2664 1f60 001040E3 		movt	r1, #:upper16:WriteChar16
 2665 1f64 002040E3 		movt	r2, #:upper16:PutImage16
 2666 1f68 38C083E5 		str	ip, [r3, #56]
 2667 1f6c 3C0083E5 		str	r0, [r3, #60]
 2668 1f70 401083E5 		str	r1, [r3, #64]
 2669 1f74 442083E5 		str	r2, [r3, #68]
 2670              	.L493:
 2671 1f78 000058E3 		cmp	r8, #0
 2672 1f7c D4FFFF0A 		beq	.L489
 2673 1f80 000000E3 		movw	r0, #:lower16:.LC3
 2674 1f84 0430A0E1 		mov	r3, r4
 2675 1f88 000040E3 		movt	r0, #:upper16:.LC3
 2676 1f8c 0620A0E1 		mov	r2, r6
 2677 1f90 0510A0E1 		mov	r1, r5
 2678 1f94 38FF2FE1 		blx	r8
 2679 1f98 0900A0E1 		mov	r0, r9
ARM GAS  C:\Users\ldebo\AppData\Local\Temp\ccrazFu5.s 			page 48


 2680 1f9c 9CD08DE2 		add	sp, sp, #156
 2681              		@ sp needed
 2682 1fa0 F083BDE8 		pop	{r4, r5, r6, r7, r8, r9, pc}
 2683              	.L511:
 2684 1fa4 0030A0E3 		mov	r3, #0
 2685 1fa8 0320A0E3 		mov	r2, #3
 2686 1fac 08308DE5 		str	r3, [sp, #8]
 2687 1fb0 0700A0E1 		mov	r0, r7
 2688 1fb4 04308DE5 		str	r3, [sp, #4]
 2689 1fb8 0510A0E3 		mov	r1, #5
 2690 1fbc 00308DE5 		str	r3, [sp]
 2691 1fc0 0830A0E3 		mov	r3, #8
 2692 1fc4 042040E3 		movt	r2, 4
 2693 1fc8 0AFBFFEB 		bl	mailbox_tag_message.constprop.5
 2694 1fcc 000050E3 		cmp	r0, #0
 2695 1fd0 BEFFFF0A 		beq	.L492
 2696 1fd4 000055E3 		cmp	r5, #0
 2697 1fd8 0200001A 		bne	.L490
 2698 1fdc 58509DE5 		ldr	r5, [sp, #88]
 2699 1fe0 000056E3 		cmp	r6, #0
 2700 1fe4 89FFFF1A 		bne	.L487
 2701              	.L490:
 2702 1fe8 5C609DE5 		ldr	r6, [sp, #92]
 2703 1fec 87FFFFEA 		b	.L487
 2704              	.L495:
 2705 1ff0 001000E3 		movw	r1, #:lower16:ClearArea32
 2706 1ff4 002000E3 		movw	r2, #:lower16:VertLine32
 2707 1ff8 001040E3 		movt	r1, #:upper16:ClearArea32
 2708 1ffc 00C000E3 		movw	ip, #:lower16:HorzLine32
 2709 2000 002040E3 		movt	r2, #:upper16:VertLine32
 2710 2004 000000E3 		movw	r0, #:lower16:DiagLine32
 2711 2008 301083E5 		str	r1, [r3, #48]
 2712 200c 001000E3 		movw	r1, #:lower16:WriteChar32
 2713 2010 342083E5 		str	r2, [r3, #52]
 2714 2014 002000E3 		movw	r2, #:lower16:PutImage32
 2715 2018 00C040E3 		movt	ip, #:upper16:HorzLine32
 2716 201c 000040E3 		movt	r0, #:upper16:DiagLine32
 2717 2020 001040E3 		movt	r1, #:upper16:WriteChar32
 2718 2024 002040E3 		movt	r2, #:upper16:PutImage32
 2719 2028 38C083E5 		str	ip, [r3, #56]
 2720 202c 3C0083E5 		str	r0, [r3, #60]
 2721 2030 401083E5 		str	r1, [r3, #64]
 2722 2034 442083E5 		str	r2, [r3, #68]
 2723 2038 CEFFFFEA 		b	.L493
 2724              	.L494:
 2725 203c 001000E3 		movw	r1, #:lower16:ClearArea24
 2726 2040 002000E3 		movw	r2, #:lower16:VertLine24
 2727 2044 001040E3 		movt	r1, #:upper16:ClearArea24
 2728 2048 00C000E3 		movw	ip, #:lower16:HorzLine24
 2729 204c 002040E3 		movt	r2, #:upper16:VertLine24
 2730 2050 000000E3 		movw	r0, #:lower16:DiagLine24
 2731 2054 301083E5 		str	r1, [r3, #48]
 2732 2058 001000E3 		movw	r1, #:lower16:WriteChar24
 2733 205c 342083E5 		str	r2, [r3, #52]
 2734 2060 002000E3 		movw	r2, #:lower16:PutImage24
 2735 2064 00C040E3 		movt	ip, #:upper16:HorzLine24
 2736 2068 000040E3 		movt	r0, #:upper16:DiagLine24
ARM GAS  C:\Users\ldebo\AppData\Local\Temp\ccrazFu5.s 			page 49


 2737 206c 001040E3 		movt	r1, #:upper16:WriteChar24
 2738 2070 002040E3 		movt	r2, #:upper16:PutImage24
 2739 2074 38C083E5 		str	ip, [r3, #56]
 2740 2078 3C0083E5 		str	r0, [r3, #60]
 2741 207c 401083E5 		str	r1, [r3, #64]
 2742 2080 442083E5 		str	r2, [r3, #68]
 2743 2084 BBFFFFEA 		b	.L493
 2744              		.size	PiConsole_Init, .-PiConsole_Init
 2745              		.align	2
 2746              		.global	GetConsoleDC
 2747              		.syntax unified
 2748              		.arm
 2749              		.fpu neon
 2750              		.type	GetConsoleDC, %function
 2751              	GetConsoleDC:
 2752              		@ args = 0, pretend = 0, frame = 0
 2753              		@ frame_needed = 0, uses_anonymous_args = 0
 2754              		@ link register save eliminated.
 2755 2088 00009FE5 		ldr	r0, .L514
 2756 208c 1EFF2FE1 		bx	lr
 2757              	.L515:
 2758              		.align	2
 2759              	.L514:
 2760 2090 04000000 		.word	.LANCHOR1+4
 2761              		.size	GetConsoleDC, .-GetConsoleDC
 2762              		.align	2
 2763              		.global	GetConsole_FrameBuffer
 2764              		.syntax unified
 2765              		.arm
 2766              		.fpu neon
 2767              		.type	GetConsole_FrameBuffer, %function
 2768              	GetConsole_FrameBuffer:
 2769              		@ args = 0, pretend = 0, frame = 0
 2770              		@ frame_needed = 0, uses_anonymous_args = 0
 2771              		@ link register save eliminated.
 2772 2094 003000E3 		movw	r3, #:lower16:.LANCHOR1
 2773 2098 003040E3 		movt	r3, #:upper16:.LANCHOR1
 2774 209c 040093E5 		ldr	r0, [r3, #4]
 2775 20a0 1EFF2FE1 		bx	lr
 2776              		.size	GetConsole_FrameBuffer, .-GetConsole_FrameBuffer
 2777              		.align	2
 2778              		.global	GetConsole_Width
 2779              		.syntax unified
 2780              		.arm
 2781              		.fpu neon
 2782              		.type	GetConsole_Width, %function
 2783              	GetConsole_Width:
 2784              		@ args = 0, pretend = 0, frame = 0
 2785              		@ frame_needed = 0, uses_anonymous_args = 0
 2786              		@ link register save eliminated.
 2787 20a4 003000E3 		movw	r3, #:lower16:.LANCHOR1
 2788 20a8 003040E3 		movt	r3, #:upper16:.LANCHOR1
 2789 20ac 080093E5 		ldr	r0, [r3, #8]
 2790 20b0 1EFF2FE1 		bx	lr
 2791              		.size	GetConsole_Width, .-GetConsole_Width
 2792              		.align	2
 2793              		.global	GetConsole_Height
ARM GAS  C:\Users\ldebo\AppData\Local\Temp\ccrazFu5.s 			page 50


 2794              		.syntax unified
 2795              		.arm
 2796              		.fpu neon
 2797              		.type	GetConsole_Height, %function
 2798              	GetConsole_Height:
 2799              		@ args = 0, pretend = 0, frame = 0
 2800              		@ frame_needed = 0, uses_anonymous_args = 0
 2801              		@ link register save eliminated.
 2802 20b4 003000E3 		movw	r3, #:lower16:.LANCHOR1
 2803 20b8 003040E3 		movt	r3, #:upper16:.LANCHOR1
 2804 20bc 0C0093E5 		ldr	r0, [r3, #12]
 2805 20c0 1EFF2FE1 		bx	lr
 2806              		.size	GetConsole_Height, .-GetConsole_Height
 2807              		.align	2
 2808              		.weak	_sbrk
 2809              		.syntax unified
 2810              		.arm
 2811              		.fpu neon
 2812              		.type	_sbrk, %function
 2813              	_sbrk:
 2814              		@ args = 0, pretend = 0, frame = 0
 2815              		@ frame_needed = 0, uses_anonymous_args = 0
 2816              		@ link register save eliminated.
 2817 20c4 002000E3 		movw	r2, #:lower16:.LANCHOR1
 2818 20c8 001000E3 		movw	r1, #:lower16:_end
 2819 20cc 002040E3 		movt	r2, #:upper16:.LANCHOR1
 2820 20d0 001040E3 		movt	r1, #:upper16:_end
 2821 20d4 483092E5 		ldr	r3, [r2, #72]
 2822 20d8 000053E3 		cmp	r3, #0
 2823 20dc 0130A001 		moveq	r3, r1
 2824 20e0 001083E0 		add	r1, r3, r0
 2825 20e4 0300A0E1 		mov	r0, r3
 2826 20e8 481082E5 		str	r1, [r2, #72]
 2827 20ec 1EFF2FE1 		bx	lr
 2828              		.size	_sbrk, .-_sbrk
 2829              		.align	2
 2830              		.weak	_kill
 2831              		.syntax unified
 2832              		.arm
 2833              		.fpu neon
 2834              		.type	_kill, %function
 2835              	_kill:
 2836              		@ args = 0, pretend = 0, frame = 0
 2837              		@ frame_needed = 0, uses_anonymous_args = 0
 2838              		@ link register save eliminated.
 2839 20f0 003000E3 		movw	r3, #:lower16:errno
 2840 20f4 1620A0E3 		mov	r2, #22
 2841 20f8 003040E3 		movt	r3, #:upper16:errno
 2842 20fc 0000E0E3 		mvn	r0, #0
 2843 2100 002083E5 		str	r2, [r3]
 2844 2104 1EFF2FE1 		bx	lr
 2845              		.size	_kill, .-_kill
 2846              		.align	2
 2847              		.weak	_getpid
 2848              		.syntax unified
 2849              		.arm
 2850              		.fpu neon
ARM GAS  C:\Users\ldebo\AppData\Local\Temp\ccrazFu5.s 			page 51


 2851              		.type	_getpid, %function
 2852              	_getpid:
 2853              		@ args = 0, pretend = 0, frame = 0
 2854              		@ frame_needed = 0, uses_anonymous_args = 0
 2855              		@ link register save eliminated.
 2856 2108 0100A0E3 		mov	r0, #1
 2857 210c 1EFF2FE1 		bx	lr
 2858              		.size	_getpid, .-_getpid
 2859              		.align	2
 2860              		.weak	_read
 2861              		.syntax unified
 2862              		.arm
 2863              		.fpu neon
 2864              		.type	_read, %function
 2865              	_read:
 2866              		@ args = 0, pretend = 0, frame = 0
 2867              		@ frame_needed = 0, uses_anonymous_args = 0
 2868              		@ link register save eliminated.
 2869 2110 0000A0E3 		mov	r0, #0
 2870 2114 1EFF2FE1 		bx	lr
 2871              		.size	_read, .-_read
 2872              		.align	2
 2873              		.weak	_close
 2874              		.syntax unified
 2875              		.arm
 2876              		.fpu neon
 2877              		.type	_close, %function
 2878              	_close:
 2879              		@ args = 0, pretend = 0, frame = 0
 2880              		@ frame_needed = 0, uses_anonymous_args = 0
 2881              		@ link register save eliminated.
 2882 2118 0000E0E3 		mvn	r0, #0
 2883 211c 1EFF2FE1 		bx	lr
 2884              		.size	_close, .-_close
 2885              		.align	2
 2886              		.weak	_lseek
 2887              		.syntax unified
 2888              		.arm
 2889              		.fpu neon
 2890              		.type	_lseek, %function
 2891              	_lseek:
 2892              		@ args = 0, pretend = 0, frame = 0
 2893              		@ frame_needed = 0, uses_anonymous_args = 0
 2894              		@ link register save eliminated.
 2895 2120 0000A0E3 		mov	r0, #0
 2896 2124 1EFF2FE1 		bx	lr
 2897              		.size	_lseek, .-_lseek
 2898              		.align	2
 2899              		.weak	_isatty
 2900              		.syntax unified
 2901              		.arm
 2902              		.fpu neon
 2903              		.type	_isatty, %function
 2904              	_isatty:
 2905              		@ args = 0, pretend = 0, frame = 0
 2906              		@ frame_needed = 0, uses_anonymous_args = 0
 2907              		@ link register save eliminated.
ARM GAS  C:\Users\ldebo\AppData\Local\Temp\ccrazFu5.s 			page 52


 2908 2128 0100A0E3 		mov	r0, #1
 2909 212c 1EFF2FE1 		bx	lr
 2910              		.size	_isatty, .-_isatty
 2911              		.align	2
 2912              		.weak	_fstat
 2913              		.syntax unified
 2914              		.arm
 2915              		.fpu neon
 2916              		.type	_fstat, %function
 2917              	_fstat:
 2918              		@ args = 0, pretend = 0, frame = 0
 2919              		@ frame_needed = 0, uses_anonymous_args = 0
 2920              		@ link register save eliminated.
 2921 2130 023AA0E3 		mov	r3, #8192
 2922 2134 0000A0E3 		mov	r0, #0
 2923 2138 043081E5 		str	r3, [r1, #4]
 2924 213c 1EFF2FE1 		bx	lr
 2925              		.size	_fstat, .-_fstat
 2926              		.align	2
 2927              		.weak	_exit
 2928              		.syntax unified
 2929              		.arm
 2930              		.fpu neon
 2931              		.type	_exit, %function
 2932              	_exit:
 2933              		@ args = 0, pretend = 0, frame = 0
 2934              		@ frame_needed = 0, uses_anonymous_args = 0
 2935              		@ link register save eliminated.
 2936              	.L530:
 2937 2140 FEFFFFEA 		b	.L530
 2938              		.size	_exit, .-_exit
 2939              		.align	2
 2940              		.global	_write
 2941              		.syntax unified
 2942              		.arm
 2943              		.fpu neon
 2944              		.type	_write, %function
 2945              	_write:
 2946              		@ args = 0, pretend = 0, frame = 0
 2947              		@ frame_needed = 0, uses_anonymous_args = 0
 2948 2144 F0472DE9 		push	{r4, r5, r6, r7, r8, r9, r10, lr}
 2949 2148 007052E2 		subs	r7, r2, #0
 2950 214c 230000DA 		ble	.L541
 2951 2150 076081E0 		add	r6, r1, r7
 2952 2154 004000E3 		movw	r4, #:lower16:.LANCHOR1
 2953 2158 004040E3 		movt	r4, #:upper16:.LANCHOR1
 2954 215c 0150A0E1 		mov	r5, r1
 2955 2160 0090A0E3 		mov	r9, #0
 2956 2164 048084E2 		add	r8, r4, #4
 2957 2168 130000EA 		b	.L538
 2958              	.L546:
 2959 216c 0D0053E3 		cmp	r3, #13
 2960 2170 0310A0E1 		mov	r1, r3
 2961 2174 1C908405 		streq	r9, [r4, #28]
 2962 2178 0800A0E1 		mov	r0, r8
 2963 217c 0C00000A 		beq	.L537
 2964 2180 090053E3 		cmp	r3, #9
ARM GAS  C:\Users\ldebo\AppData\Local\Temp\ccrazFu5.s 			page 53


 2965 2184 1700000A 		beq	.L545
 2966 2188 1C2094E5 		ldr	r2, [r4, #28]
 2967 218c 203094E5 		ldr	r3, [r4, #32]
 2968 2190 8221A0E1 		lsl	r2, r2, #3
 2969 2194 0332A0E1 		lsl	r3, r3, #4
 2970 2198 183084E5 		str	r3, [r4, #24]
 2971 219c 142084E5 		str	r2, [r4, #20]
 2972 21a0 403094E5 		ldr	r3, [r4, #64]
 2973 21a4 33FF2FE1 		blx	r3
 2974 21a8 1C3094E5 		ldr	r3, [r4, #28]
 2975 21ac 013083E2 		add	r3, r3, #1
 2976 21b0 1C3084E5 		str	r3, [r4, #28]
 2977              	.L537:
 2978 21b4 060055E1 		cmp	r5, r6
 2979 21b8 0800000A 		beq	.L541
 2980              	.L538:
 2981 21bc 0130D5E4 		ldrb	r3, [r5], #1	@ zero_extendqisi2
 2982 21c0 0A0053E3 		cmp	r3, #10
 2983 21c4 E8FFFF1A 		bne	.L546
 2984 21c8 203094E5 		ldr	r3, [r4, #32]
 2985 21cc 060055E1 		cmp	r5, r6
 2986 21d0 1C9084E5 		str	r9, [r4, #28]
 2987 21d4 013083E2 		add	r3, r3, #1
 2988 21d8 203084E5 		str	r3, [r4, #32]
 2989 21dc F6FFFF1A 		bne	.L538
 2990              	.L541:
 2991 21e0 0700A0E1 		mov	r0, r7
 2992 21e4 F087BDE8 		pop	{r4, r5, r6, r7, r8, r9, r10, pc}
 2993              	.L545:
 2994 21e8 1C3094E5 		ldr	r3, [r4, #28]
 2995 21ec 053083E2 		add	r3, r3, #5
 2996 21f0 001073E2 		rsbs	r1, r3, #0
 2997 21f4 032003E2 		and	r2, r3, #3
 2998 21f8 031001E2 		and	r1, r1, #3
 2999 21fc 00206152 		rsbpl	r2, r1, #0
 3000 2200 023043E0 		sub	r3, r3, r2
 3001 2204 1C3084E5 		str	r3, [r4, #28]
 3002 2208 E9FFFFEA 		b	.L537
 3003              		.size	_write, .-_write
 3004              		.global	console
 3005              		.global	BitFontEnd
 3006              		.section	.rodata
 3007              		.align	2
 3008              		.set	.LANCHOR0,. + 0
 3009              		.type	BitFont, %object
 3010              		.size	BitFont, 4096
 3011              	BitFont:
 3012 0000 00000000 		.word	0
 3013 0004 00000000 		.word	0
 3014 0008 00000000 		.word	0
 3015 000c 00000000 		.word	0
 3016 0010 817E0000 		.word	32385
 3017 0014 BD8181A5 		.word	-1518239299
 3018 0018 7E818199 		.word	-1719565954
 3019 001c 00000000 		.word	0
 3020 0020 FF7E0000 		.word	32511
 3021 0024 C3FFFFDB 		.word	-603979837
ARM GAS  C:\Users\ldebo\AppData\Local\Temp\ccrazFu5.s 			page 54


 3022 0028 7EFFFFE7 		.word	-402653314
 3023 002c 00000000 		.word	0
 3024 0030 00000000 		.word	0
 3025 0034 FEFEFE6C 		.word	1828650750
 3026 0038 10387CFE 		.word	-25413616
 3027 003c 00000000 		.word	0
 3028 0040 00000000 		.word	0
 3029 0044 FE7C3810 		.word	272137470
 3030 0048 0010387C 		.word	2084048896
 3031 004c 00000000 		.word	0
 3032 0050 18000000 		.word	24
 3033 0054 E7E73C3C 		.word	1010624487
 3034 0058 3C1818E7 		.word	-417851332
 3035 005c 00000000 		.word	0
 3036 0060 18000000 		.word	24
 3037 0064 FFFF7E3C 		.word	1014956031
 3038 0068 3C18187E 		.word	2115508284
 3039 006c 00000000 		.word	0
 3040 0070 00000000 		.word	0
 3041 0074 3C180000 		.word	6204
 3042 0078 0000183C 		.word	1008205824
 3043 007c 00000000 		.word	0
 3044 0080 FFFFFFFF 		.word	-1
 3045 0084 C3E7FFFF 		.word	-6205
 3046 0088 FFFFE7C3 		.word	-1008205825
 3047 008c FFFFFFFF 		.word	-1
 3048 0090 00000000 		.word	0
 3049 0094 42663C00 		.word	3958338
 3050 0098 003C6642 		.word	1113996288
 3051 009c 00000000 		.word	0
 3052 00a0 FFFFFFFF 		.word	-1
 3053 00a4 BD99C3FF 		.word	-3958339
 3054 00a8 FFC399BD 		.word	-1113996289
 3055 00ac FFFFFFFF 		.word	-1
 3056 00b0 0E1E0000 		.word	7694
 3057 00b4 CC78321A 		.word	439515340
 3058 00b8 78CCCCCC 		.word	-858993544
 3059 00bc 00000000 		.word	0
 3060 00c0 663C0000 		.word	15462
 3061 00c4 3C666666 		.word	1717986876
 3062 00c8 18187E18 		.word	410916888
 3063 00cc 00000000 		.word	0
 3064 00d0 333F0000 		.word	16179
 3065 00d4 3030303F 		.word	1060122672
 3066 00d8 E0F07030 		.word	812708064
 3067 00dc 00000000 		.word	0
 3068 00e0 637F0000 		.word	32611
 3069 00e4 6363637F 		.word	2137219939
 3070 00e8 E6E76763 		.word	1667753958
 3071 00ec 000000C0 		.word	-1073741824
 3072 00f0 18000000 		.word	24
 3073 00f4 E73CDB18 		.word	417021159
 3074 00f8 1818DB3C 		.word	1020991512
 3075 00fc 00000000 		.word	0
 3076 0100 E0C08000 		.word	8437984
 3077 0104 F8FEF8F0 		.word	-252117256
 3078 0108 80C0E0F0 		.word	-253706112
ARM GAS  C:\Users\ldebo\AppData\Local\Temp\ccrazFu5.s 			page 55


 3079 010c 00000000 		.word	0
 3080 0110 0E060200 		.word	132622
 3081 0114 3EFE3E1E 		.word	507444798
 3082 0118 02060E1E 		.word	504235522
 3083 011c 00000000 		.word	0
 3084 0120 3C180000 		.word	6204
 3085 0124 1818187E 		.word	2115508248
 3086 0128 00183C7E 		.word	2117867520
 3087 012c 00000000 		.word	0
 3088 0130 66660000 		.word	26214
 3089 0134 66666666 		.word	1717986918
 3090 0138 66660066 		.word	1711302246
 3091 013c 00000000 		.word	0
 3092 0140 DB7F0000 		.word	32731
 3093 0144 1B7BDBDB 		.word	-606373093
 3094 0148 1B1B1B1B 		.word	454761243
 3095 014c 00000000 		.word	0
 3096 0150 60C67C00 		.word	8177248
 3097 0154 C6C66C38 		.word	946652870
 3098 0158 C60C386C 		.word	1815612614
 3099 015c 0000007C 		.word	2080374784
 3100 0160 00000000 		.word	0
 3101 0164 00000000 		.word	0
 3102 0168 FEFEFEFE 		.word	-16843010
 3103 016c 00000000 		.word	0
 3104 0170 3C180000 		.word	6204
 3105 0174 1818187E 		.word	2115508248
 3106 0178 7E183C7E 		.word	2117867646
 3107 017c 00000000 		.word	0
 3108 0180 3C180000 		.word	6204
 3109 0184 1818187E 		.word	2115508248
 3110 0188 18181818 		.word	404232216
 3111 018c 00000000 		.word	0
 3112 0190 18180000 		.word	6168
 3113 0194 18181818 		.word	404232216
 3114 0198 183C7E18 		.word	410926104
 3115 019c 00000000 		.word	0
 3116 01a0 00000000 		.word	0
 3117 01a4 FE0C1800 		.word	1576190
 3118 01a8 0000180C 		.word	202899456
 3119 01ac 00000000 		.word	0
 3120 01b0 00000000 		.word	0
 3121 01b4 FE603000 		.word	3170558
 3122 01b8 00003060 		.word	1613758464
 3123 01bc 00000000 		.word	0
 3124 01c0 00000000 		.word	0
 3125 01c4 C0C00000 		.word	49344
 3126 01c8 0000FEC0 		.word	-1057095680
 3127 01cc 00000000 		.word	0
 3128 01d0 00000000 		.word	0
 3129 01d4 FE6C2800 		.word	2649342
 3130 01d8 0000286C 		.word	1814560768
 3131 01dc 00000000 		.word	0
 3132 01e0 00000000 		.word	0
 3133 01e4 7C383810 		.word	272119932
 3134 01e8 00FEFE7C 		.word	2097085952
 3135 01ec 00000000 		.word	0
ARM GAS  C:\Users\ldebo\AppData\Local\Temp\ccrazFu5.s 			page 56


 3136 01f0 00000000 		.word	0
 3137 01f4 7C7CFEFE 		.word	-16876420
 3138 01f8 00103838 		.word	943198208
 3139 01fc 00000000 		.word	0
 3140 0200 00000000 		.word	0
 3141 0204 00000000 		.word	0
 3142 0208 00000000 		.word	0
 3143 020c 00000000 		.word	0
 3144 0210 3C180000 		.word	6204
 3145 0214 18183C3C 		.word	1010571288
 3146 0218 18180018 		.word	402659352
 3147 021c 00000000 		.word	0
 3148 0220 66666600 		.word	6710886
 3149 0224 00000024 		.word	603979776
 3150 0228 00000000 		.word	0
 3151 022c 00000000 		.word	0
 3152 0230 6C000000 		.word	108
 3153 0234 6C6CFE6C 		.word	1828613228
 3154 0238 6C6CFE6C 		.word	1828613228
 3155 023c 00000000 		.word	0
 3156 0240 C67C1818 		.word	404257990
 3157 0244 067CC0C2 		.word	-1027572730
 3158 0248 7CC68606 		.word	109495932
 3159 024c 00001818 		.word	404226048
 3160 0250 00000000 		.word	0
 3161 0254 180CC6C2 		.word	-1027208168
 3162 0258 86C66030 		.word	811648646
 3163 025c 00000000 		.word	0
 3164 0260 6C380000 		.word	14444
 3165 0264 DC76386C 		.word	1815639772
 3166 0268 76CCCCCC 		.word	-858993546
 3167 026c 00000000 		.word	0
 3168 0270 30303000 		.word	3158064
 3169 0274 00000060 		.word	1610612736
 3170 0278 00000000 		.word	0
 3171 027c 00000000 		.word	0
 3172 0280 180C0000 		.word	3096
 3173 0284 30303030 		.word	808464432
 3174 0288 0C183030 		.word	808458252
 3175 028c 00000000 		.word	0
 3176 0290 18300000 		.word	12312
 3177 0294 0C0C0C0C 		.word	202116108
 3178 0298 30180C0C 		.word	202119216
 3179 029c 00000000 		.word	0
 3180 02a0 00000000 		.word	0
 3181 02a4 FF3C6600 		.word	6700287
 3182 02a8 0000663C 		.word	1013317632
 3183 02ac 00000000 		.word	0
 3184 02b0 00000000 		.word	0
 3185 02b4 7E181800 		.word	1579134
 3186 02b8 00001818 		.word	404226048
 3187 02bc 00000000 		.word	0
 3188 02c0 00000000 		.word	0
 3189 02c4 00000000 		.word	0
 3190 02c8 18181800 		.word	1579032
 3191 02cc 00000030 		.word	805306368
 3192 02d0 00000000 		.word	0
ARM GAS  C:\Users\ldebo\AppData\Local\Temp\ccrazFu5.s 			page 57


 3193 02d4 FE000000 		.word	254
 3194 02d8 00000000 		.word	0
 3195 02dc 00000000 		.word	0
 3196 02e0 00000000 		.word	0
 3197 02e4 00000000 		.word	0
 3198 02e8 18180000 		.word	6168
 3199 02ec 00000000 		.word	0
 3200 02f0 00000000 		.word	0
 3201 02f4 180C0602 		.word	33950744
 3202 02f8 80C06030 		.word	811647104
 3203 02fc 00000000 		.word	0
 3204 0300 6C380000 		.word	14444
 3205 0304 D6D6C6C6 		.word	-960047402
 3206 0308 386CC6C6 		.word	-960074696
 3207 030c 00000000 		.word	0
 3208 0310 38180000 		.word	6200
 3209 0314 18181878 		.word	2014844952
 3210 0318 7E181818 		.word	404232318
 3211 031c 00000000 		.word	0
 3212 0320 C67C0000 		.word	31942
 3213 0324 30180C06 		.word	101455920
 3214 0328 FEC6C060 		.word	1623246590
 3215 032c 00000000 		.word	0
 3216 0330 C67C0000 		.word	31942
 3217 0334 063C0606 		.word	101071878
 3218 0338 7CC60606 		.word	101107324
 3219 033c 00000000 		.word	0
 3220 0340 1C0C0000 		.word	3100
 3221 0344 FECC6C3C 		.word	1013763326
 3222 0348 1E0C0C0C 		.word	202116126
 3223 034c 00000000 		.word	0
 3224 0350 C0FE0000 		.word	65216
 3225 0354 06FCC0C0 		.word	-1061094394
 3226 0358 7CC60606 		.word	101107324
 3227 035c 00000000 		.word	0
 3228 0360 60380000 		.word	14432
 3229 0364 C6FCC0C0 		.word	-1061094202
 3230 0368 7CC6C6C6 		.word	-960051588
 3231 036c 00000000 		.word	0
 3232 0370 C6FE0000 		.word	65222
 3233 0374 180C0606 		.word	101059608
 3234 0378 30303030 		.word	808464432
 3235 037c 00000000 		.word	0
 3236 0380 C67C0000 		.word	31942
 3237 0384 C67CC6C6 		.word	-960070458
 3238 0388 7CC6C6C6 		.word	-960051588
 3239 038c 00000000 		.word	0
 3240 0390 C67C0000 		.word	31942
 3241 0394 067EC6C6 		.word	-960070138
 3242 0398 780C0606 		.word	101059704
 3243 039c 00000000 		.word	0
 3244 03a0 00000000 		.word	0
 3245 03a4 00001818 		.word	404226048
 3246 03a8 00181800 		.word	1579008
 3247 03ac 00000000 		.word	0
 3248 03b0 00000000 		.word	0
 3249 03b4 00001818 		.word	404226048
ARM GAS  C:\Users\ldebo\AppData\Local\Temp\ccrazFu5.s 			page 58


 3250 03b8 30181800 		.word	1579056
 3251 03bc 00000000 		.word	0
 3252 03c0 06000000 		.word	6
 3253 03c4 6030180C 		.word	202911840
 3254 03c8 060C1830 		.word	806882310
 3255 03cc 00000000 		.word	0
 3256 03d0 00000000 		.word	0
 3257 03d4 00007E00 		.word	8257536
 3258 03d8 0000007E 		.word	2113929216
 3259 03dc 00000000 		.word	0
 3260 03e0 60000000 		.word	96
 3261 03e4 060C1830 		.word	806882310
 3262 03e8 6030180C 		.word	202911840
 3263 03ec 00000000 		.word	0
 3264 03f0 C67C0000 		.word	31942
 3265 03f4 18180CC6 		.word	-972285928
 3266 03f8 18180018 		.word	402659352
 3267 03fc 00000000 		.word	0
 3268 0400 7C000000 		.word	124
 3269 0404 DEDEC6C6 		.word	-960045346
 3270 0408 7CC0DCDE 		.word	-555958148
 3271 040c 00000000 		.word	0
 3272 0410 38100000 		.word	4152
 3273 0414 FEC6C66C 		.word	1824966398
 3274 0418 C6C6C6C6 		.word	-960051514
 3275 041c 00000000 		.word	0
 3276 0420 66FC0000 		.word	64614
 3277 0424 667C6666 		.word	1717992550
 3278 0428 FC666666 		.word	1717987068
 3279 042c 00000000 		.word	0
 3280 0430 663C0000 		.word	15462
 3281 0434 C0C0C0C2 		.word	-1027555136
 3282 0438 3C66C2C0 		.word	-1061001668
 3283 043c 00000000 		.word	0
 3284 0440 6CF80000 		.word	63596
 3285 0444 66666666 		.word	1717986918
 3286 0448 F86C6666 		.word	1717988600
 3287 044c 00000000 		.word	0
 3288 0450 66FE0000 		.word	65126
 3289 0454 68786862 		.word	1651013736
 3290 0458 FE666260 		.word	1617061630
 3291 045c 00000000 		.word	0
 3292 0460 66FE0000 		.word	65126
 3293 0464 68786862 		.word	1651013736
 3294 0468 F0606060 		.word	1616929008
 3295 046c 00000000 		.word	0
 3296 0470 663C0000 		.word	15462
 3297 0474 DEC0C0C2 		.word	-1027555106
 3298 0478 3A66C6C6 		.word	-960076230
 3299 047c 00000000 		.word	0
 3300 0480 C6C60000 		.word	50886
 3301 0484 C6FEC6C6 		.word	-960037178
 3302 0488 C6C6C6C6 		.word	-960051514
 3303 048c 00000000 		.word	0
 3304 0490 183C0000 		.word	15384
 3305 0494 18181818 		.word	404232216
 3306 0498 3C181818 		.word	404232252
ARM GAS  C:\Users\ldebo\AppData\Local\Temp\ccrazFu5.s 			page 59


 3307 049c 00000000 		.word	0
 3308 04a0 0C1E0000 		.word	7692
 3309 04a4 0C0C0C0C 		.word	202116108
 3310 04a8 78CCCCCC 		.word	-858993544
 3311 04ac 00000000 		.word	0
 3312 04b0 66E60000 		.word	58982
 3313 04b4 78786C66 		.word	1718384760
 3314 04b8 E666666C 		.word	1818650342
 3315 04bc 00000000 		.word	0
 3316 04c0 60F00000 		.word	61536
 3317 04c4 60606060 		.word	1616928864
 3318 04c8 FE666260 		.word	1617061630
 3319 04cc 00000000 		.word	0
 3320 04d0 EEC60000 		.word	50926
 3321 04d4 C6D6FEFE 		.word	-16853306
 3322 04d8 C6C6C6C6 		.word	-960051514
 3323 04dc 00000000 		.word	0
 3324 04e0 E6C60000 		.word	50918
 3325 04e4 CEDEFEF6 		.word	-151068978
 3326 04e8 C6C6C6C6 		.word	-960051514
 3327 04ec 00000000 		.word	0
 3328 04f0 C67C0000 		.word	31942
 3329 04f4 C6C6C6C6 		.word	-960051514
 3330 04f8 7CC6C6C6 		.word	-960051588
 3331 04fc 00000000 		.word	0
 3332 0500 66FC0000 		.word	64614
 3333 0504 607C6666 		.word	1717992544
 3334 0508 F0606060 		.word	1616929008
 3335 050c 00000000 		.word	0
 3336 0510 C67C0000 		.word	31942
 3337 0514 C6C6C6C6 		.word	-960051514
 3338 0518 7CDED6C6 		.word	-958996868
 3339 051c 00000E0C 		.word	202244096
 3340 0520 66FC0000 		.word	64614
 3341 0524 6C7C6666 		.word	1717992556
 3342 0528 E6666666 		.word	1717987046
 3343 052c 00000000 		.word	0
 3344 0530 C67C0000 		.word	31942
 3345 0534 0C3860C6 		.word	-966772724
 3346 0538 7CC6C606 		.word	113690236
 3347 053c 00000000 		.word	0
 3348 0540 7E7E0000 		.word	32382
 3349 0544 1818185A 		.word	1511528472
 3350 0548 3C181818 		.word	404232252
 3351 054c 00000000 		.word	0
 3352 0550 C6C60000 		.word	50886
 3353 0554 C6C6C6C6 		.word	-960051514
 3354 0558 7CC6C6C6 		.word	-960051588
 3355 055c 00000000 		.word	0
 3356 0560 C6C60000 		.word	50886
 3357 0564 C6C6C6C6 		.word	-960051514
 3358 0568 10386CC6 		.word	-965986288
 3359 056c 00000000 		.word	0
 3360 0570 C6C60000 		.word	50886
 3361 0574 D6D6C6C6 		.word	-960047402
 3362 0578 6CEEFED6 		.word	-687935892
 3363 057c 00000000 		.word	0
ARM GAS  C:\Users\ldebo\AppData\Local\Temp\ccrazFu5.s 			page 60


 3364 0580 C6C60000 		.word	50886
 3365 0584 38387C6C 		.word	1820080184
 3366 0588 C6C66C7C 		.word	2087503558
 3367 058c 00000000 		.word	0
 3368 0590 66660000 		.word	26214
 3369 0594 183C6666 		.word	1717976088
 3370 0598 3C181818 		.word	404232252
 3371 059c 00000000 		.word	0
 3372 05a0 C6FE0000 		.word	65222
 3373 05a4 30180C86 		.word	-2046027728
 3374 05a8 FEC6C260 		.word	1623377662
 3375 05ac 00000000 		.word	0
 3376 05b0 303C0000 		.word	15408
 3377 05b4 30303030 		.word	808464432
 3378 05b8 3C303030 		.word	808464444
 3379 05bc 00000000 		.word	0
 3380 05c0 80000000 		.word	128
 3381 05c4 3870E0C0 		.word	-1059033032
 3382 05c8 02060E1C 		.word	470681090
 3383 05cc 00000000 		.word	0
 3384 05d0 0C3C0000 		.word	15372
 3385 05d4 0C0C0C0C 		.word	202116108
 3386 05d8 3C0C0C0C 		.word	202116156
 3387 05dc 00000000 		.word	0
 3388 05e0 C66C3810 		.word	272133318
 3389 05e4 00000000 		.word	0
 3390 05e8 00000000 		.word	0
 3391 05ec 00000000 		.word	0
 3392 05f0 00000000 		.word	0
 3393 05f4 00000000 		.word	0
 3394 05f8 00000000 		.word	0
 3395 05fc 0000FF00 		.word	16711680
 3396 0600 00183030 		.word	808458240
 3397 0604 00000000 		.word	0
 3398 0608 00000000 		.word	0
 3399 060c 00000000 		.word	0
 3400 0610 00000000 		.word	0
 3401 0614 7C0C7800 		.word	7867516
 3402 0618 76CCCCCC 		.word	-858993546
 3403 061c 00000000 		.word	0
 3404 0620 60E00000 		.word	57440
 3405 0624 666C7860 		.word	1618504806
 3406 0628 7C666666 		.word	1717986940
 3407 062c 00000000 		.word	0
 3408 0630 00000000 		.word	0
 3409 0634 C0C67C00 		.word	8177344
 3410 0638 7CC6C0C0 		.word	-1061108100
 3411 063c 00000000 		.word	0
 3412 0640 0C1C0000 		.word	7180
 3413 0644 CC6C3C0C 		.word	205286604
 3414 0648 76CCCCCC 		.word	-858993546
 3415 064c 00000000 		.word	0
 3416 0650 00000000 		.word	0
 3417 0654 FEC67C00 		.word	8177406
 3418 0658 7CC6C0C0 		.word	-1061108100
 3419 065c 00000000 		.word	0
 3420 0660 6C380000 		.word	14444
ARM GAS  C:\Users\ldebo\AppData\Local\Temp\ccrazFu5.s 			page 61


 3421 0664 60F06064 		.word	1684074592
 3422 0668 F0606060 		.word	1616929008
 3423 066c 00000000 		.word	0
 3424 0670 00000000 		.word	0
 3425 0674 CCCC7600 		.word	7785676
 3426 0678 7CCCCCCC 		.word	-858993540
 3427 067c 0078CC0C 		.word	214726656
 3428 0680 60E00000 		.word	57440
 3429 0684 66766C60 		.word	1617720934
 3430 0688 E6666666 		.word	1717987046
 3431 068c 00000000 		.word	0
 3432 0690 18180000 		.word	6168
 3433 0694 18183800 		.word	3676184
 3434 0698 3C181818 		.word	404232252
 3435 069c 00000000 		.word	0
 3436 06a0 06060000 		.word	1542
 3437 06a4 06060E00 		.word	919046
 3438 06a8 06060606 		.word	101058054
 3439 06ac 003C6666 		.word	1717976064
 3440 06b0 60E00000 		.word	57440
 3441 06b4 786C6660 		.word	1617325176
 3442 06b8 E6666C78 		.word	2020370150
 3443 06bc 00000000 		.word	0
 3444 06c0 18380000 		.word	14360
 3445 06c4 18181818 		.word	404232216
 3446 06c8 3C181818 		.word	404232252
 3447 06cc 00000000 		.word	0
 3448 06d0 00000000 		.word	0
 3449 06d4 D6FEEC00 		.word	15531734
 3450 06d8 C6D6D6D6 		.word	-690563386
 3451 06dc 00000000 		.word	0
 3452 06e0 00000000 		.word	0
 3453 06e4 6666DC00 		.word	14444134
 3454 06e8 66666666 		.word	1717986918
 3455 06ec 00000000 		.word	0
 3456 06f0 00000000 		.word	0
 3457 06f4 C6C67C00 		.word	8177350
 3458 06f8 7CC6C6C6 		.word	-960051588
 3459 06fc 00000000 		.word	0
 3460 0700 00000000 		.word	0
 3461 0704 6666DC00 		.word	14444134
 3462 0708 7C666666 		.word	1717986940
 3463 070c 00F06060 		.word	1616965632
 3464 0710 00000000 		.word	0
 3465 0714 CCCC7600 		.word	7785676
 3466 0718 7CCCCCCC 		.word	-858993540
 3467 071c 001E0C0C 		.word	202120704
 3468 0720 00000000 		.word	0
 3469 0724 6676DC00 		.word	14448230
 3470 0728 F0606060 		.word	1616929008
 3471 072c 00000000 		.word	0
 3472 0730 00000000 		.word	0
 3473 0734 60C67C00 		.word	8177248
 3474 0738 7CC60C38 		.word	940361340
 3475 073c 00000000 		.word	0
 3476 0740 30100000 		.word	4144
 3477 0744 3030FC30 		.word	821833776
ARM GAS  C:\Users\ldebo\AppData\Local\Temp\ccrazFu5.s 			page 62


 3478 0748 1C363030 		.word	808465948
 3479 074c 00000000 		.word	0
 3480 0750 00000000 		.word	0
 3481 0754 CCCCCC00 		.word	13421772
 3482 0758 76CCCCCC 		.word	-858993546
 3483 075c 00000000 		.word	0
 3484 0760 00000000 		.word	0
 3485 0764 66666600 		.word	6710886
 3486 0768 183C6666 		.word	1717976088
 3487 076c 00000000 		.word	0
 3488 0770 00000000 		.word	0
 3489 0774 D6C6C600 		.word	13027030
 3490 0778 6CFED6D6 		.word	-690553236
 3491 077c 00000000 		.word	0
 3492 0780 00000000 		.word	0
 3493 0784 386CC600 		.word	13003832
 3494 0788 C66C3838 		.word	943221958
 3495 078c 00000000 		.word	0
 3496 0790 00000000 		.word	0
 3497 0794 C6C6C600 		.word	13027014
 3498 0798 7EC6C6C6 		.word	-960051586
 3499 079c 00F80C06 		.word	101513216
 3500 07a0 00000000 		.word	0
 3501 07a4 18CCFE00 		.word	16698392
 3502 07a8 FEC66030 		.word	811648766
 3503 07ac 00000000 		.word	0
 3504 07b0 180E0000 		.word	3608
 3505 07b4 18701818 		.word	404254744
 3506 07b8 0E181818 		.word	404232206
 3507 07bc 00000000 		.word	0
 3508 07c0 18180000 		.word	6168
 3509 07c4 18001818 		.word	404226072
 3510 07c8 18181818 		.word	404232216
 3511 07cc 00000000 		.word	0
 3512 07d0 18700000 		.word	28696
 3513 07d4 180E1818 		.word	404229656
 3514 07d8 70181818 		.word	404232304
 3515 07dc 00000000 		.word	0
 3516 07e0 DC760000 		.word	30428
 3517 07e4 00000000 		.word	0
 3518 07e8 00000000 		.word	0
 3519 07ec 00000000 		.word	0
 3520 07f0 00000000 		.word	0
 3521 07f4 C66C3810 		.word	272133318
 3522 07f8 00FEC6C6 		.word	-960037376
 3523 07fc 00000000 		.word	0
 3524 0800 663C0000 		.word	15462
 3525 0804 C0C0C0C2 		.word	-1027555136
 3526 0808 0C3C66C2 		.word	-1033487348
 3527 080c 00007C06 		.word	108789760
 3528 0810 00CC0000 		.word	52224
 3529 0814 CCCCCC00 		.word	13421772
 3530 0818 76CCCCCC 		.word	-858993546
 3531 081c 00000000 		.word	0
 3532 0820 30180C00 		.word	792624
 3533 0824 FEC67C00 		.word	8177406
 3534 0828 7CC6C0C0 		.word	-1061108100
ARM GAS  C:\Users\ldebo\AppData\Local\Temp\ccrazFu5.s 			page 63


 3535 082c 00000000 		.word	0
 3536 0830 6C381000 		.word	1063020
 3537 0834 7C0C7800 		.word	7867516
 3538 0838 76CCCCCC 		.word	-858993546
 3539 083c 00000000 		.word	0
 3540 0840 00CC0000 		.word	52224
 3541 0844 7C0C7800 		.word	7867516
 3542 0848 76CCCCCC 		.word	-858993546
 3543 084c 00000000 		.word	0
 3544 0850 18306000 		.word	6303768
 3545 0854 7C0C7800 		.word	7867516
 3546 0858 76CCCCCC 		.word	-858993546
 3547 085c 00000000 		.word	0
 3548 0860 386C3800 		.word	3697720
 3549 0864 7C0C7800 		.word	7867516
 3550 0868 76CCCCCC 		.word	-858993546
 3551 086c 00000000 		.word	0
 3552 0870 00000000 		.word	0
 3553 0874 6060663C 		.word	1013342304
 3554 0878 060C3C66 		.word	1715211270
 3555 087c 0000003C 		.word	1006632960
 3556 0880 6C381000 		.word	1063020
 3557 0884 FEC67C00 		.word	8177406
 3558 0888 7CC6C0C0 		.word	-1061108100
 3559 088c 00000000 		.word	0
 3560 0890 00C60000 		.word	50688
 3561 0894 FEC67C00 		.word	8177406
 3562 0898 7CC6C0C0 		.word	-1061108100
 3563 089c 00000000 		.word	0
 3564 08a0 18306000 		.word	6303768
 3565 08a4 FEC67C00 		.word	8177406
 3566 08a8 7CC6C0C0 		.word	-1061108100
 3567 08ac 00000000 		.word	0
 3568 08b0 00660000 		.word	26112
 3569 08b4 18183800 		.word	3676184
 3570 08b8 3C181818 		.word	404232252
 3571 08bc 00000000 		.word	0
 3572 08c0 663C1800 		.word	1588326
 3573 08c4 18183800 		.word	3676184
 3574 08c8 3C181818 		.word	404232252
 3575 08cc 00000000 		.word	0
 3576 08d0 18306000 		.word	6303768
 3577 08d4 18183800 		.word	3676184
 3578 08d8 3C181818 		.word	404232252
 3579 08dc 00000000 		.word	0
 3580 08e0 1000C600 		.word	12976144
 3581 08e4 C6C66C38 		.word	946652870
 3582 08e8 C6C6C6FE 		.word	-20527418
 3583 08ec 00000000 		.word	0
 3584 08f0 00386C38 		.word	946616320
 3585 08f4 C6C66C38 		.word	946652870
 3586 08f8 C6C6C6FE 		.word	-20527418
 3587 08fc 00000000 		.word	0
 3588 0900 00603018 		.word	405823488
 3589 0904 7C6066FE 		.word	-26845060
 3590 0908 FE666060 		.word	1616930558
 3591 090c 00000000 		.word	0
ARM GAS  C:\Users\ldebo\AppData\Local\Temp\ccrazFu5.s 			page 64


 3592 0910 00000000 		.word	0
 3593 0914 3676CC00 		.word	13399606
 3594 0918 6ED8D87E 		.word	2128140398
 3595 091c 00000000 		.word	0
 3596 0920 6C3E0000 		.word	15980
 3597 0924 CCFECCCC 		.word	-858980660
 3598 0928 CECCCCCC 		.word	-858993458
 3599 092c 00000000 		.word	0
 3600 0930 6C381000 		.word	1063020
 3601 0934 C6C67C00 		.word	8177350
 3602 0938 7CC6C6C6 		.word	-960051588
 3603 093c 00000000 		.word	0
 3604 0940 00C60000 		.word	50688
 3605 0944 C6C67C00 		.word	8177350
 3606 0948 7CC6C6C6 		.word	-960051588
 3607 094c 00000000 		.word	0
 3608 0950 18306000 		.word	6303768
 3609 0954 C6C67C00 		.word	8177350
 3610 0958 7CC6C6C6 		.word	-960051588
 3611 095c 00000000 		.word	0
 3612 0960 CC783000 		.word	3176652
 3613 0964 CCCCCC00 		.word	13421772
 3614 0968 76CCCCCC 		.word	-858993546
 3615 096c 00000000 		.word	0
 3616 0970 18306000 		.word	6303768
 3617 0974 CCCCCC00 		.word	13421772
 3618 0978 76CCCCCC 		.word	-858993546
 3619 097c 00000000 		.word	0
 3620 0980 00C60000 		.word	50688
 3621 0984 C6C6C600 		.word	13027014
 3622 0988 7EC6C6C6 		.word	-960051586
 3623 098c 00780C06 		.word	101480448
 3624 0990 7C00C600 		.word	12976252
 3625 0994 C6C6C6C6 		.word	-960051514
 3626 0998 7CC6C6C6 		.word	-960051588
 3627 099c 00000000 		.word	0
 3628 09a0 C600C600 		.word	12976326
 3629 09a4 C6C6C6C6 		.word	-960051514
 3630 09a8 7CC6C6C6 		.word	-960051588
 3631 09ac 00000000 		.word	0
 3632 09b0 3C181800 		.word	1579068
 3633 09b4 60606066 		.word	1717592160
 3634 09b8 18183C66 		.word	1715214360
 3635 09bc 00000000 		.word	0
 3636 09c0 646C3800 		.word	3697764
 3637 09c4 6060F060 		.word	1626366048
 3638 09c8 FCE66060 		.word	1616963324
 3639 09cc 00000000 		.word	0
 3640 09d0 66660000 		.word	26214
 3641 09d4 187E183C 		.word	1008238104
 3642 09d8 1818187E 		.word	2115508248
 3643 09dc 00000000 		.word	0
 3644 09e0 CCCCF800 		.word	16305356
 3645 09e4 DECCC4F8 		.word	-121320226
 3646 09e8 C6CCCCCC 		.word	-858993466
 3647 09ec 00000000 		.word	0
 3648 09f0 181B0E00 		.word	924440
ARM GAS  C:\Users\ldebo\AppData\Local\Temp\ccrazFu5.s 			page 65


 3649 09f4 187E1818 		.word	404258328
 3650 09f8 18181818 		.word	404232216
 3651 09fc 000070D8 		.word	-663748608
 3652 0a00 60301800 		.word	1585248
 3653 0a04 7C0C7800 		.word	7867516
 3654 0a08 76CCCCCC 		.word	-858993546
 3655 0a0c 00000000 		.word	0
 3656 0a10 30180C00 		.word	792624
 3657 0a14 18183800 		.word	3676184
 3658 0a18 3C181818 		.word	404232252
 3659 0a1c 00000000 		.word	0
 3660 0a20 60301800 		.word	1585248
 3661 0a24 C6C67C00 		.word	8177350
 3662 0a28 7CC6C6C6 		.word	-960051588
 3663 0a2c 00000000 		.word	0
 3664 0a30 60301800 		.word	1585248
 3665 0a34 CCCCCC00 		.word	13421772
 3666 0a38 76CCCCCC 		.word	-858993546
 3667 0a3c 00000000 		.word	0
 3668 0a40 DC760000 		.word	30428
 3669 0a44 6666DC00 		.word	14444134
 3670 0a48 66666666 		.word	1717986918
 3671 0a4c 00000000 		.word	0
 3672 0a50 C600DC76 		.word	1994129606
 3673 0a54 DEFEF6E6 		.word	-420020514
 3674 0a58 C6C6C6CE 		.word	-825833786
 3675 0a5c 00000000 		.word	0
 3676 0a60 6C6C3C00 		.word	3959916
 3677 0a64 007E003E 		.word	1040219648
 3678 0a68 00000000 		.word	0
 3679 0a6c 00000000 		.word	0
 3680 0a70 6C6C3800 		.word	3697772
 3681 0a74 007C0038 		.word	939555840
 3682 0a78 00000000 		.word	0
 3683 0a7c 00000000 		.word	0
 3684 0a80 30300000 		.word	12336
 3685 0a84 60303000 		.word	3158112
 3686 0a88 7CC6C6C0 		.word	-1060714884
 3687 0a8c 00000000 		.word	0
 3688 0a90 00000000 		.word	0
 3689 0a94 C0FE0000 		.word	65216
 3690 0a98 00C0C0C0 		.word	-1061109760
 3691 0a9c 00000000 		.word	0
 3692 0aa0 00000000 		.word	0
 3693 0aa4 06FE0000 		.word	65030
 3694 0aa8 00060606 		.word	101058048
 3695 0aac 00000000 		.word	0
 3696 0ab0 C2C0C000 		.word	12632258
 3697 0ab4 3018CCC6 		.word	-959702992
 3698 0ab8 0C86DC60 		.word	1625064972
 3699 0abc 00003E18 		.word	406716416
 3700 0ac0 C2C0C000 		.word	12632258
 3701 0ac4 3018CCC6 		.word	-959702992
 3702 0ac8 3E9ECE66 		.word	1724816958
 3703 0acc 00000606 		.word	101056512
 3704 0ad0 18180000 		.word	6168
 3705 0ad4 18181800 		.word	1579032
ARM GAS  C:\Users\ldebo\AppData\Local\Temp\ccrazFu5.s 			page 66


 3706 0ad8 183C3C3C 		.word	1010580504
 3707 0adc 00000000 		.word	0
 3708 0ae0 00000000 		.word	0
 3709 0ae4 D86C3600 		.word	3566808
 3710 0ae8 0000366C 		.word	1815478272
 3711 0aec 00000000 		.word	0
 3712 0af0 00000000 		.word	0
 3713 0af4 366CD800 		.word	14183478
 3714 0af8 0000D86C 		.word	1826095104
 3715 0afc 00000000 		.word	0
 3716 0b00 44114411 		.word	289673540
 3717 0b04 44114411 		.word	289673540
 3718 0b08 44114411 		.word	289673540
 3719 0b0c 44114411 		.word	289673540
 3720 0b10 AA55AA55 		.word	1437226410
 3721 0b14 AA55AA55 		.word	1437226410
 3722 0b18 AA55AA55 		.word	1437226410
 3723 0b1c AA55AA55 		.word	1437226410
 3724 0b20 77DD77DD 		.word	-579347081
 3725 0b24 77DD77DD 		.word	-579347081
 3726 0b28 77DD77DD 		.word	-579347081
 3727 0b2c 77DD77DD 		.word	-579347081
 3728 0b30 18181818 		.word	404232216
 3729 0b34 18181818 		.word	404232216
 3730 0b38 18181818 		.word	404232216
 3731 0b3c 18181818 		.word	404232216
 3732 0b40 18181818 		.word	404232216
 3733 0b44 F8181818 		.word	404232440
 3734 0b48 18181818 		.word	404232216
 3735 0b4c 18181818 		.word	404232216
 3736 0b50 18181818 		.word	404232216
 3737 0b54 F818F818 		.word	418912504
 3738 0b58 18181818 		.word	404232216
 3739 0b5c 18181818 		.word	404232216
 3740 0b60 36363636 		.word	909522486
 3741 0b64 F6363636 		.word	909522678
 3742 0b68 36363636 		.word	909522486
 3743 0b6c 36363636 		.word	909522486
 3744 0b70 00000000 		.word	0
 3745 0b74 FE000000 		.word	254
 3746 0b78 36363636 		.word	909522486
 3747 0b7c 36363636 		.word	909522486
 3748 0b80 00000000 		.word	0
 3749 0b84 F818F800 		.word	16259320
 3750 0b88 18181818 		.word	404232216
 3751 0b8c 18181818 		.word	404232216
 3752 0b90 36363636 		.word	909522486
 3753 0b94 F606F636 		.word	922093302
 3754 0b98 36363636 		.word	909522486
 3755 0b9c 36363636 		.word	909522486
 3756 0ba0 36363636 		.word	909522486
 3757 0ba4 36363636 		.word	909522486
 3758 0ba8 36363636 		.word	909522486
 3759 0bac 36363636 		.word	909522486
 3760 0bb0 00000000 		.word	0
 3761 0bb4 F606FE00 		.word	16647926
 3762 0bb8 36363636 		.word	909522486
ARM GAS  C:\Users\ldebo\AppData\Local\Temp\ccrazFu5.s 			page 67


 3763 0bbc 36363636 		.word	909522486
 3764 0bc0 36363636 		.word	909522486
 3765 0bc4 FE06F636 		.word	922093310
 3766 0bc8 00000000 		.word	0
 3767 0bcc 00000000 		.word	0
 3768 0bd0 36363636 		.word	909522486
 3769 0bd4 FE363636 		.word	909522686
 3770 0bd8 00000000 		.word	0
 3771 0bdc 00000000 		.word	0
 3772 0be0 18181818 		.word	404232216
 3773 0be4 F818F818 		.word	418912504
 3774 0be8 00000000 		.word	0
 3775 0bec 00000000 		.word	0
 3776 0bf0 00000000 		.word	0
 3777 0bf4 F8000000 		.word	248
 3778 0bf8 18181818 		.word	404232216
 3779 0bfc 18181818 		.word	404232216
 3780 0c00 18181818 		.word	404232216
 3781 0c04 1F181818 		.word	404232223
 3782 0c08 00000000 		.word	0
 3783 0c0c 00000000 		.word	0
 3784 0c10 18181818 		.word	404232216
 3785 0c14 FF181818 		.word	404232447
 3786 0c18 00000000 		.word	0
 3787 0c1c 00000000 		.word	0
 3788 0c20 00000000 		.word	0
 3789 0c24 FF000000 		.word	255
 3790 0c28 18181818 		.word	404232216
 3791 0c2c 18181818 		.word	404232216
 3792 0c30 18181818 		.word	404232216
 3793 0c34 1F181818 		.word	404232223
 3794 0c38 18181818 		.word	404232216
 3795 0c3c 18181818 		.word	404232216
 3796 0c40 00000000 		.word	0
 3797 0c44 FF000000 		.word	255
 3798 0c48 00000000 		.word	0
 3799 0c4c 00000000 		.word	0
 3800 0c50 18181818 		.word	404232216
 3801 0c54 FF181818 		.word	404232447
 3802 0c58 18181818 		.word	404232216
 3803 0c5c 18181818 		.word	404232216
 3804 0c60 18181818 		.word	404232216
 3805 0c64 1F181F18 		.word	404690975
 3806 0c68 18181818 		.word	404232216
 3807 0c6c 18181818 		.word	404232216
 3808 0c70 36363636 		.word	909522486
 3809 0c74 37363636 		.word	909522487
 3810 0c78 36363636 		.word	909522486
 3811 0c7c 36363636 		.word	909522486
 3812 0c80 36363636 		.word	909522486
 3813 0c84 3F303736 		.word	909586495
 3814 0c88 00000000 		.word	0
 3815 0c8c 00000000 		.word	0
 3816 0c90 00000000 		.word	0
 3817 0c94 37303F00 		.word	4141111
 3818 0c98 36363636 		.word	909522486
 3819 0c9c 36363636 		.word	909522486
ARM GAS  C:\Users\ldebo\AppData\Local\Temp\ccrazFu5.s 			page 68


 3820 0ca0 36363636 		.word	909522486
 3821 0ca4 FF00F736 		.word	922157311
 3822 0ca8 00000000 		.word	0
 3823 0cac 00000000 		.word	0
 3824 0cb0 00000000 		.word	0
 3825 0cb4 F700FF00 		.word	16711927
 3826 0cb8 36363636 		.word	909522486
 3827 0cbc 36363636 		.word	909522486
 3828 0cc0 36363636 		.word	909522486
 3829 0cc4 37303736 		.word	909586487
 3830 0cc8 36363636 		.word	909522486
 3831 0ccc 36363636 		.word	909522486
 3832 0cd0 00000000 		.word	0
 3833 0cd4 FF00FF00 		.word	16711935
 3834 0cd8 00000000 		.word	0
 3835 0cdc 00000000 		.word	0
 3836 0ce0 36363636 		.word	909522486
 3837 0ce4 F700F736 		.word	922157303
 3838 0ce8 36363636 		.word	909522486
 3839 0cec 36363636 		.word	909522486
 3840 0cf0 18181818 		.word	404232216
 3841 0cf4 FF00FF18 		.word	419365119
 3842 0cf8 00000000 		.word	0
 3843 0cfc 00000000 		.word	0
 3844 0d00 36363636 		.word	909522486
 3845 0d04 FF363636 		.word	909522687
 3846 0d08 00000000 		.word	0
 3847 0d0c 00000000 		.word	0
 3848 0d10 00000000 		.word	0
 3849 0d14 FF00FF00 		.word	16711935
 3850 0d18 18181818 		.word	404232216
 3851 0d1c 18181818 		.word	404232216
 3852 0d20 00000000 		.word	0
 3853 0d24 FF000000 		.word	255
 3854 0d28 36363636 		.word	909522486
 3855 0d2c 36363636 		.word	909522486
 3856 0d30 36363636 		.word	909522486
 3857 0d34 3F363636 		.word	909522495
 3858 0d38 00000000 		.word	0
 3859 0d3c 00000000 		.word	0
 3860 0d40 18181818 		.word	404232216
 3861 0d44 1F181F18 		.word	404690975
 3862 0d48 00000000 		.word	0
 3863 0d4c 00000000 		.word	0
 3864 0d50 00000000 		.word	0
 3865 0d54 1F181F00 		.word	2037791
 3866 0d58 18181818 		.word	404232216
 3867 0d5c 18181818 		.word	404232216
 3868 0d60 00000000 		.word	0
 3869 0d64 3F000000 		.word	63
 3870 0d68 36363636 		.word	909522486
 3871 0d6c 36363636 		.word	909522486
 3872 0d70 36363636 		.word	909522486
 3873 0d74 FF363636 		.word	909522687
 3874 0d78 36363636 		.word	909522486
 3875 0d7c 36363636 		.word	909522486
 3876 0d80 18181818 		.word	404232216
ARM GAS  C:\Users\ldebo\AppData\Local\Temp\ccrazFu5.s 			page 69


 3877 0d84 FF18FF18 		.word	419371263
 3878 0d88 18181818 		.word	404232216
 3879 0d8c 18181818 		.word	404232216
 3880 0d90 18181818 		.word	404232216
 3881 0d94 F8181818 		.word	404232440
 3882 0d98 00000000 		.word	0
 3883 0d9c 00000000 		.word	0
 3884 0da0 00000000 		.word	0
 3885 0da4 1F000000 		.word	31
 3886 0da8 18181818 		.word	404232216
 3887 0dac 18181818 		.word	404232216
 3888 0db0 FFFFFFFF 		.word	-1
 3889 0db4 FFFFFFFF 		.word	-1
 3890 0db8 FFFFFFFF 		.word	-1
 3891 0dbc FFFFFFFF 		.word	-1
 3892 0dc0 00000000 		.word	0
 3893 0dc4 FF000000 		.word	255
 3894 0dc8 FFFFFFFF 		.word	-1
 3895 0dcc FFFFFFFF 		.word	-1
 3896 0dd0 F0F0F0F0 		.word	-252645136
 3897 0dd4 F0F0F0F0 		.word	-252645136
 3898 0dd8 F0F0F0F0 		.word	-252645136
 3899 0ddc F0F0F0F0 		.word	-252645136
 3900 0de0 0F0F0F0F 		.word	252645135
 3901 0de4 0F0F0F0F 		.word	252645135
 3902 0de8 0F0F0F0F 		.word	252645135
 3903 0dec 0F0F0F0F 		.word	252645135
 3904 0df0 FFFFFFFF 		.word	-1
 3905 0df4 00FFFFFF 		.word	-256
 3906 0df8 00000000 		.word	0
 3907 0dfc 00000000 		.word	0
 3908 0e00 00000000 		.word	0
 3909 0e04 D8DC7600 		.word	7789784
 3910 0e08 76DCD8D8 		.word	-656876426
 3911 0e0c 00000000 		.word	0
 3912 0e10 CC780000 		.word	30924
 3913 0e14 CCD8CCCC 		.word	-858990388
 3914 0e18 CCC6C6C6 		.word	-960051508
 3915 0e1c 00000000 		.word	0
 3916 0e20 C6FE0000 		.word	65222
 3917 0e24 C0C0C0C6 		.word	-960446272
 3918 0e28 C0C0C0C0 		.word	-1061109568
 3919 0e2c 00000000 		.word	0
 3920 0e30 00000000 		.word	0
 3921 0e34 6C6C6CFE 		.word	-26448788
 3922 0e38 6C6C6C6C 		.word	1819044972
 3923 0e3c 00000000 		.word	0
 3924 0e40 FE000000 		.word	254
 3925 0e44 183060C6 		.word	-966774760
 3926 0e48 FEC66030 		.word	811648766
 3927 0e4c 00000000 		.word	0
 3928 0e50 00000000 		.word	0
 3929 0e54 D8D87E00 		.word	8313048
 3930 0e58 70D8D8D8 		.word	-656877456
 3931 0e5c 00000000 		.word	0
 3932 0e60 00000000 		.word	0
 3933 0e64 66666666 		.word	1717986918
ARM GAS  C:\Users\ldebo\AppData\Local\Temp\ccrazFu5.s 			page 70


 3934 0e68 60607C66 		.word	1719427168
 3935 0e6c 000000C0 		.word	-1073741824
 3936 0e70 00000000 		.word	0
 3937 0e74 1818DC76 		.word	1994135576
 3938 0e78 18181818 		.word	404232216
 3939 0e7c 00000000 		.word	0
 3940 0e80 7E000000 		.word	126
 3941 0e84 66663C18 		.word	406611558
 3942 0e88 7E183C66 		.word	1715214462
 3943 0e8c 00000000 		.word	0
 3944 0e90 38000000 		.word	56
 3945 0e94 FEC6C66C 		.word	1824966398
 3946 0e98 386CC6C6 		.word	-960074696
 3947 0e9c 00000000 		.word	0
 3948 0ea0 6C380000 		.word	14444
 3949 0ea4 6CC6C6C6 		.word	-960051604
 3950 0ea8 EE6C6C6C 		.word	1819045102
 3951 0eac 00000000 		.word	0
 3952 0eb0 301E0000 		.word	7728
 3953 0eb4 663E0C18 		.word	403455590
 3954 0eb8 3C666666 		.word	1717986876
 3955 0ebc 00000000 		.word	0
 3956 0ec0 00000000 		.word	0
 3957 0ec4 DBDB7E00 		.word	8313819
 3958 0ec8 00007EDB 		.word	-612499456
 3959 0ecc 00000000 		.word	0
 3960 0ed0 03000000 		.word	3
 3961 0ed4 DBDB7E06 		.word	108977115
 3962 0ed8 C0607EF3 		.word	-209821504
 3963 0edc 00000000 		.word	0
 3964 0ee0 301C0000 		.word	7216
 3965 0ee4 607C6060 		.word	1616936032
 3966 0ee8 1C306060 		.word	1616916508
 3967 0eec 00000000 		.word	0
 3968 0ef0 7C000000 		.word	124
 3969 0ef4 C6C6C6C6 		.word	-960051514
 3970 0ef8 C6C6C6C6 		.word	-960051514
 3971 0efc 00000000 		.word	0
 3972 0f00 00000000 		.word	0
 3973 0f04 FE0000FE 		.word	-33554178
 3974 0f08 00FE0000 		.word	65024
 3975 0f0c 00000000 		.word	0
 3976 0f10 00000000 		.word	0
 3977 0f14 187E1818 		.word	404258328
 3978 0f18 FF000018 		.word	402653439
 3979 0f1c 00000000 		.word	0
 3980 0f20 30000000 		.word	48
 3981 0f24 0C060C18 		.word	403441164
 3982 0f28 7E003018 		.word	405799038
 3983 0f2c 00000000 		.word	0
 3984 0f30 0C000000 		.word	12
 3985 0f34 30603018 		.word	405823536
 3986 0f38 7E000C18 		.word	403439742
 3987 0f3c 00000000 		.word	0
 3988 0f40 1B0E0000 		.word	3611
 3989 0f44 1818181B 		.word	454563864
 3990 0f48 18181818 		.word	404232216
ARM GAS  C:\Users\ldebo\AppData\Local\Temp\ccrazFu5.s 			page 71


 3991 0f4c 18181818 		.word	404232216
 3992 0f50 18181818 		.word	404232216
 3993 0f54 18181818 		.word	404232216
 3994 0f58 70D8D8D8 		.word	-656877456
 3995 0f5c 00000000 		.word	0
 3996 0f60 00000000 		.word	0
 3997 0f64 7E001818 		.word	404226174
 3998 0f68 00181800 		.word	1579008
 3999 0f6c 00000000 		.word	0
 4000 0f70 00000000 		.word	0
 4001 0f74 00DC7600 		.word	7789568
 4002 0f78 0000DC76 		.word	1994129408
 4003 0f7c 00000000 		.word	0
 4004 0f80 6C6C3800 		.word	3697772
 4005 0f84 00000038 		.word	939524096
 4006 0f88 00000000 		.word	0
 4007 0f8c 00000000 		.word	0
 4008 0f90 00000000 		.word	0
 4009 0f94 18000000 		.word	24
 4010 0f98 00000018 		.word	402653184
 4011 0f9c 00000000 		.word	0
 4012 0fa0 00000000 		.word	0
 4013 0fa4 00000000 		.word	0
 4014 0fa8 00000018 		.word	402653184
 4015 0fac 00000000 		.word	0
 4016 0fb0 0C0C0F00 		.word	986124
 4017 0fb4 EC0C0C0C 		.word	202116332
 4018 0fb8 1C3C6C6C 		.word	1819032604
 4019 0fbc 00000000 		.word	0
 4020 0fc0 6C6CD800 		.word	14183532
 4021 0fc4 006C6C6C 		.word	1819044864
 4022 0fc8 00000000 		.word	0
 4023 0fcc 00000000 		.word	0
 4024 0fd0 30D87000 		.word	7395376
 4025 0fd4 00F8C860 		.word	1623783424
 4026 0fd8 00000000 		.word	0
 4027 0fdc 00000000 		.word	0
 4028 0fe0 00000000 		.word	0
 4029 0fe4 7C7C7C7C 		.word	2088533116
 4030 0fe8 007C7C7C 		.word	2088532992
 4031 0fec 00000000 		.word	0
 4032 0ff0 00000000 		.word	0
 4033 0ff4 00000000 		.word	0
 4034 0ff8 00000000 		.word	0
 4035 0ffc 00000000 		.word	0
 4036              		.data
 4037              		.align	2
 4038              		.set	.LANCHOR2,. + 0
 4039              		.type	ActivityGPIOPort, %object
 4040              		.size	ActivityGPIOPort, 4
 4041              	ActivityGPIOPort:
 4042 0000 2F000000 		.word	47
 4043              		.bss
 4044              		.align	2
 4045              		.set	.LANCHOR1,. + 0
 4046              		.type	ModelCheckHasRun, %object
 4047              		.size	ModelCheckHasRun, 1
ARM GAS  C:\Users\ldebo\AppData\Local\Temp\ccrazFu5.s 			page 72


 4048              	ModelCheckHasRun:
 4049 0000 00       		.space	1
 4050 0001 000000   		.space	3
 4051              		.type	console, %object
 4052              		.size	console, 68
 4053              	console:
 4054 0004 00000000 		.space	68
 4054      00000000 
 4054      00000000 
 4054      00000000 
 4054      00000000 
 4055              		.type	heap_end.6523, %object
 4056              		.size	heap_end.6523, 4
 4057              	heap_end.6523:
 4058 0048 00000000 		.space	4
 4059              		.section	.rodata,"a",%progbits; //,"a",%progbits
 4060              		.align	2
 4061              		.type	BitFontEnd, %object
 4062              		.size	BitFontEnd, 4
 4063              	BitFontEnd:
 4064 1000 00000000 		.space	4
 4065              		.section	.rodata.str1.4,"aMS",%progbits,1
 4066              		.align	2
 4067              	.LC0:
 4068 0000 43505520 		.ascii	"CPU frequency set to %u Hz\012\000"
 4068      66726571 
 4068      75656E63 
 4068      79207365 
 4068      7420746F 
 4069              	.LC1:
 4070 001c 536D6172 		.ascii	"SmartStart v2.02 compiled for Arm%d, AARCH%d with %"
 4070      74537461 
 4070      72742076 
 4070      322E3032 
 4070      20636F6D 
 4071 004f 7520636F 		.ascii	"u core s/w support\012\000"
 4071      72652073 
 4071      2F772073 
 4071      7570706F 
 4071      72740A00 
 4072 0063 00       		.space	1
 4073              	.LC2:
 4074 0064 44657465 		.ascii	"Detected %s CPU, part id: 0x%03X, Cores made ready "
 4074      63746564 
 4074      20257320 
 4074      4350552C 
 4074      20706172 
 4075 0097 666F7220 		.ascii	"for use: %u\012\000"
 4075      7573653A 
 4075      2025750A 
 4075      00
 4076              	.LC3:
 4077 00a4 53637265 		.ascii	"Screen resolution %i x %i Colour Depth: %i\012\000"
 4077      656E2072 
 4077      65736F6C 
 4077      7574696F 
 4077      6E202569 
ARM GAS  C:\Users\ldebo\AppData\Local\Temp\ccrazFu5.s 			page 73


 4078              		.ident	"GCC: (GNU Tools for ARM Embedded Processors 6-2017-q2-update) 6.3.1 20170620 (release) [AR
ARM GAS  C:\Users\ldebo\AppData\Local\Temp\ccrazFu5.s 			page 74


DEFINED SYMBOLS
                            *ABS*:00000000 rpi-SmartStart.c
C:\Users\ldebo\AppData\Local\Temp\ccrazFu5.s:18     .text:00000000 $a
C:\Users\ldebo\AppData\Local\Temp\ccrazFu5.s:23     .text:00000000 ClearArea16
C:\Users\ldebo\AppData\Local\Temp\ccrazFu5.s:72     .text:00000098 VertLine16
C:\Users\ldebo\AppData\Local\Temp\ccrazFu5.s:133    .text:0000015c HorzLine16
C:\Users\ldebo\AppData\Local\Temp\ccrazFu5.s:180    .text:000001ec DiagLine16
C:\Users\ldebo\AppData\Local\Temp\ccrazFu5.s:250    .text:000002d4 WriteChar16
C:\Users\ldebo\AppData\Local\Temp\ccrazFu5.s:3008   .rodata:00000000 .LANCHOR0
C:\Users\ldebo\AppData\Local\Temp\ccrazFu5.s:333    .text:000003f0 PutImage16
C:\Users\ldebo\AppData\Local\Temp\ccrazFu5.s:385    .text:0000048c ClearArea24
C:\Users\ldebo\AppData\Local\Temp\ccrazFu5.s:424    .text:000004fc VertLine24
C:\Users\ldebo\AppData\Local\Temp\ccrazFu5.s:474    .text:00000594 HorzLine24
C:\Users\ldebo\AppData\Local\Temp\ccrazFu5.s:513    .text:00000604 DiagLine24
C:\Users\ldebo\AppData\Local\Temp\ccrazFu5.s:582    .text:000006e8 WriteChar24
C:\Users\ldebo\AppData\Local\Temp\ccrazFu5.s:641    .text:000007a4 PutImage24
C:\Users\ldebo\AppData\Local\Temp\ccrazFu5.s:695    .text:00000848 ClearArea32
C:\Users\ldebo\AppData\Local\Temp\ccrazFu5.s:732    .text:000008ac VertLine32
C:\Users\ldebo\AppData\Local\Temp\ccrazFu5.s:776    .text:0000092c HorzLine32
C:\Users\ldebo\AppData\Local\Temp\ccrazFu5.s:808    .text:00000980 DiagLine32
C:\Users\ldebo\AppData\Local\Temp\ccrazFu5.s:852    .text:00000a04 WriteChar32
C:\Users\ldebo\AppData\Local\Temp\ccrazFu5.s:901    .text:00000a98 PutImage32
C:\Users\ldebo\AppData\Local\Temp\ccrazFu5.s:949    .text:00000b28 mailbox_tag_message.constprop.4
C:\Users\ldebo\AppData\Local\Temp\ccrazFu5.s:1013   .text:00000bf8 mailbox_tag_message.constprop.5
C:\Users\ldebo\AppData\Local\Temp\ccrazFu5.s:1092   .text:00000cf8 mailbox_tag_message.constprop.6
C:\Users\ldebo\AppData\Local\Temp\ccrazFu5.s:1166   .text:00000de4 mailbox_tag_message.constprop.7
C:\Users\ldebo\AppData\Local\Temp\ccrazFu5.s:1246   .text:00000edc gpio_setup
C:\Users\ldebo\AppData\Local\Temp\ccrazFu5.s:1284   .text:00000f48 gpio_output
C:\Users\ldebo\AppData\Local\Temp\ccrazFu5.s:1323   .text:00000fb0 gpio_input
C:\Users\ldebo\AppData\Local\Temp\ccrazFu5.s:1353   .text:00000ff8 gpio_checkEvent
C:\Users\ldebo\AppData\Local\Temp\ccrazFu5.s:1382   .text:0000103c gpio_clearEvent
C:\Users\ldebo\AppData\Local\Temp\ccrazFu5.s:1410   .text:0000107c gpio_edgeDetect
C:\Users\ldebo\AppData\Local\Temp\ccrazFu5.s:1474   .text:00001140 gpio_fixResistor
C:\Users\ldebo\AppData\Local\Temp\ccrazFu5.s:1566   .text:00001274 timer_getTickCount
C:\Users\ldebo\AppData\Local\Temp\ccrazFu5.s:1598   .text:000012c4 timer_wait
C:\Users\ldebo\AppData\Local\Temp\ccrazFu5.s:1643   .text:00001348 tick_difference
C:\Users\ldebo\AppData\Local\Temp\ccrazFu5.s:1657   .text:00001354 mailbox_write
C:\Users\ldebo\AppData\Local\Temp\ccrazFu5.s:1687   .text:00001398 mailbox_read
C:\Users\ldebo\AppData\Local\Temp\ccrazFu5.s:1719   .text:000013e4 mailbox_tag_message
C:\Users\ldebo\AppData\Local\Temp\ccrazFu5.s:1810   .text:00001504 set_Activity_LED
C:\Users\ldebo\AppData\Local\Temp\ccrazFu5.s:4045   .bss:00000000 .LANCHOR1
C:\Users\ldebo\AppData\Local\Temp\ccrazFu5.s:4038   .data:00000000 .LANCHOR2
C:\Users\ldebo\AppData\Local\Temp\ccrazFu5.s:1927   .text:00001688 ARM_setmaxspeed
C:\Users\ldebo\AppData\Local\Temp\ccrazFu5.s:4067   .rodata.str1.4:00000000 .LC0
C:\Users\ldebo\AppData\Local\Temp\ccrazFu5.s:1983   .text:0000172c displaySmartStart
C:\Users\ldebo\AppData\Local\Temp\ccrazFu5.s:4069   .rodata.str1.4:0000001c .LC1
C:\Users\ldebo\AppData\Local\Temp\ccrazFu5.s:4073   .rodata.str1.4:00000064 .LC2
C:\Users\ldebo\AppData\Local\Temp\ccrazFu5.s:2023   .text:000017a4 Embedded_Console_WriteChar
C:\Users\ldebo\AppData\Local\Temp\ccrazFu5.s:2083   .text:00001860 WriteText
C:\Users\ldebo\AppData\Local\Temp\ccrazFu5.s:2153   .text:0000193c SetDCPenColor
C:\Users\ldebo\AppData\Local\Temp\ccrazFu5.s:2169   .text:00001950 SetDCBrushColor
C:\Users\ldebo\AppData\Local\Temp\ccrazFu5.s:2185   .text:00001964 MoveToEx
C:\Users\ldebo\AppData\Local\Temp\ccrazFu5.s:2210   .text:0000199c LineTo
C:\Users\ldebo\AppData\Local\Temp\ccrazFu5.s:2264   .text:00001a38 TextOut
C:\Users\ldebo\AppData\Local\Temp\ccrazFu5.s:2303   .text:00001aa4 BmpOut
C:\Users\ldebo\AppData\Local\Temp\ccrazFu5.s:2336   .text:00001af8 CvtBmpLine
C:\Users\ldebo\AppData\Local\Temp\ccrazFu5.s:2536   .text:00001db4 Rectangle
ARM GAS  C:\Users\ldebo\AppData\Local\Temp\ccrazFu5.s 			page 75


C:\Users\ldebo\AppData\Local\Temp\ccrazFu5.s:2561   .text:00001de8 PiConsole_Init
C:\Users\ldebo\AppData\Local\Temp\ccrazFu5.s:4076   .rodata.str1.4:000000a4 .LC3
C:\Users\ldebo\AppData\Local\Temp\ccrazFu5.s:2751   .text:00002088 GetConsoleDC
C:\Users\ldebo\AppData\Local\Temp\ccrazFu5.s:2760   .text:00002090 $d
C:\Users\ldebo\AppData\Local\Temp\ccrazFu5.s:2762   .text:00002094 $a
C:\Users\ldebo\AppData\Local\Temp\ccrazFu5.s:2768   .text:00002094 GetConsole_FrameBuffer
C:\Users\ldebo\AppData\Local\Temp\ccrazFu5.s:2783   .text:000020a4 GetConsole_Width
C:\Users\ldebo\AppData\Local\Temp\ccrazFu5.s:2798   .text:000020b4 GetConsole_Height
C:\Users\ldebo\AppData\Local\Temp\ccrazFu5.s:2813   .text:000020c4 _sbrk
C:\Users\ldebo\AppData\Local\Temp\ccrazFu5.s:2835   .text:000020f0 _kill
C:\Users\ldebo\AppData\Local\Temp\ccrazFu5.s:2852   .text:00002108 _getpid
C:\Users\ldebo\AppData\Local\Temp\ccrazFu5.s:2865   .text:00002110 _read
C:\Users\ldebo\AppData\Local\Temp\ccrazFu5.s:2878   .text:00002118 _close
C:\Users\ldebo\AppData\Local\Temp\ccrazFu5.s:2891   .text:00002120 _lseek
C:\Users\ldebo\AppData\Local\Temp\ccrazFu5.s:2904   .text:00002128 _isatty
C:\Users\ldebo\AppData\Local\Temp\ccrazFu5.s:2917   .text:00002130 _fstat
C:\Users\ldebo\AppData\Local\Temp\ccrazFu5.s:2932   .text:00002140 _exit
C:\Users\ldebo\AppData\Local\Temp\ccrazFu5.s:2945   .text:00002144 _write
C:\Users\ldebo\AppData\Local\Temp\ccrazFu5.s:4053   .bss:00000004 console
C:\Users\ldebo\AppData\Local\Temp\ccrazFu5.s:4063   .rodata:00001000 BitFontEnd
C:\Users\ldebo\AppData\Local\Temp\ccrazFu5.s:3007   .rodata:00000000 $d
C:\Users\ldebo\AppData\Local\Temp\ccrazFu5.s:3011   .rodata:00000000 BitFont
C:\Users\ldebo\AppData\Local\Temp\ccrazFu5.s:4037   .data:00000000 $d
C:\Users\ldebo\AppData\Local\Temp\ccrazFu5.s:4041   .data:00000000 ActivityGPIOPort
C:\Users\ldebo\AppData\Local\Temp\ccrazFu5.s:4044   .bss:00000000 $d
C:\Users\ldebo\AppData\Local\Temp\ccrazFu5.s:4048   .bss:00000000 ModelCheckHasRun
C:\Users\ldebo\AppData\Local\Temp\ccrazFu5.s:4057   .bss:00000048 heap_end.6523
C:\Users\ldebo\AppData\Local\Temp\ccrazFu5.s:4066   .rodata.str1.4:00000000 $d

UNDEFINED SYMBOLS
memcpy
ARMaddrToGPUaddr
RPi_IO_Base_Addr
RPi_CpuId
RPi_CompileMode
RPi_CpuIdString
RPi_CoresReady
strlen
GPUaddrToARMaddr
_end
errno
ARM GAS  C:\Users\ldebo\AppData\Local\Temp\ccrazFu5.s 			page 1


   1              		.arch armv7-a
   2              		.arch_extension virt
   3              		.arch_extension idiv
   4              		.arch_extension sec
   5              		.arch_extension mp
   6              		.eabi_attribute 28, 1
   7              		.eabi_attribute 20, 1
   8              		.eabi_attribute 21, 1
   9              		.eabi_attribute 23, 3
  10              		.eabi_attribute 24, 1
  11              		.eabi_attribute 25, 1
  12              		.eabi_attribute 26, 1
  13              		.eabi_attribute 30, 2
  14              		.eabi_attribute 34, 0
  15              		.eabi_attribute 18, 4
  16              		.file	"emb-stdio.c"
  17              		.text
  18              		.align	2
  19              		.syntax unified
  20              		.arm
  21              		.fpu neon
  22              		.type	number, %function
  23              	number:
  24              		@ args = 8, pretend = 0, frame = 72
  25              		@ frame_needed = 0, uses_anonymous_args = 0
  26 0000 F04F2DE9 		push	{r4, r5, r6, r7, r8, r9, r10, fp, lr}
  27 0004 4CD04DE2 		sub	sp, sp, #76
  28 0008 02C042E2 		sub	ip, r2, #2
  29 000c 74809DE5 		ldr	r8, [sp, #116]
  30 0010 100018E3 		tst	r8, #16
  31 0014 207008E2 		and	r7, r8, #32
  32 0018 0180C813 		bicne	r8, r8, #1
  33 001c 0E005CE3 		cmp	ip, #14
  34 0020 6C00008A 		bhi	.L24
  35 0024 010018E3 		tst	r8, #1
  36 0028 2090A003 		moveq	r9, #32
  37 002c 3090A013 		movne	r9, #48
  38 0030 02A018E2 		ands	r10, r8, #2
  39 0034 0B00000A 		beq	.L5
  40 0038 000051E3 		cmp	r1, #0
  41 003c 001061B2 		rsblt	r1, r1, #0
  42 0040 013043B2 		sublt	r3, r3, #1
  43 0044 2DA0A0B3 		movlt	r10, #45
  44 0048 060000BA 		blt	.L5
  45 004c 040018E3 		tst	r8, #4
  46 0050 01304312 		subne	r3, r3, #1
  47 0054 2BA0A013 		movne	r10, #43
  48 0058 0200001A 		bne	.L5
  49 005c 08A018E2 		ands	r10, r8, #8
  50 0060 01304312 		subne	r3, r3, #1
  51 0064 20A0A013 		movne	r10, #32
  52              	.L5:
  53 0068 40B018E2 		ands	fp, r8, #64
  54 006c 0400000A 		beq	.L8
  55 0070 100052E3 		cmp	r2, #16
  56 0074 02304302 		subeq	r3, r3, #2
  57 0078 0100000A 		beq	.L8
ARM GAS  C:\Users\ldebo\AppData\Local\Temp\ccrazFu5.s 			page 2


  58 007c 080052E3 		cmp	r2, #8
  59 0080 01304302 		subeq	r3, r3, #1
  60              	.L8:
  61 0084 000051E3 		cmp	r1, #0
  62 0088 4200001A 		bne	.L10
  63 008c 01C0A0E3 		mov	ip, #1
  64 0090 3010A0E3 		mov	r1, #48
  65 0094 0410CDE5 		strb	r1, [sp, #4]
  66 0098 0CE0A0E1 		mov	lr, ip
  67              	.L11:
  68 009c 70109DE5 		ldr	r1, [sp, #112]
  69 00a0 01005CE1 		cmp	ip, r1
  70 00a4 0C10A0A1 		movge	r1, ip
  71 00a8 110018E3 		tst	r8, #17
  72 00ac 013043E0 		sub	r3, r3, r1
  73 00b0 0800001A 		bne	.L13
  74 00b4 000053E3 		cmp	r3, #0
  75 00b8 014043E2 		sub	r4, r3, #1
  76 00bc 4F0000DA 		ble	.L29
  77 00c0 033080E0 		add	r3, r0, r3
  78 00c4 2040A0E3 		mov	r4, #32
  79              	.L14:
  80 00c8 0140C0E4 		strb	r4, [r0], #1
  81 00cc 000053E1 		cmp	r3, r0
  82 00d0 FCFFFF1A 		bne	.L14
  83 00d4 0030E0E3 		mvn	r3, #0
  84              	.L13:
  85 00d8 00005AE3 		cmp	r10, #0
  86 00dc 00A0C015 		strbne	r10, [r0]
  87 00e0 01008012 		addne	r0, r0, #1
  88 00e4 00005BE3 		cmp	fp, #0
  89 00e8 0600000A 		beq	.L16
  90 00ec 080052E3 		cmp	r2, #8
  91 00f0 3020A003 		moveq	r2, #48
  92 00f4 0020C005 		strbeq	r2, [r0]
  93 00f8 01008002 		addeq	r0, r0, #1
  94 00fc 0100000A 		beq	.L16
  95 0100 100052E3 		cmp	r2, #16
  96 0104 3600000A 		beq	.L50
  97              	.L16:
  98 0108 100018E3 		tst	r8, #16
  99 010c 0700001A 		bne	.L18
 100 0110 000053E3 		cmp	r3, #0
 101 0114 012043E2 		sub	r2, r3, #1
 102 0118 3A0000DA 		ble	.L30
 103 011c 033080E0 		add	r3, r0, r3
 104              	.L19:
 105 0120 0190C0E4 		strb	r9, [r0], #1
 106 0124 000053E1 		cmp	r3, r0
 107 0128 FCFFFF1A 		bne	.L19
 108 012c 0030E0E3 		mvn	r3, #0
 109              	.L18:
 110 0130 01005CE1 		cmp	ip, r1
 111 0134 050000AA 		bge	.L20
 112 0138 0C2041E0 		sub	r2, r1, ip
 113 013c 3010A0E3 		mov	r1, #48
 114 0140 022080E0 		add	r2, r0, r2
ARM GAS  C:\Users\ldebo\AppData\Local\Temp\ccrazFu5.s 			page 3


 115              	.L21:
 116 0144 0110C0E4 		strb	r1, [r0], #1
 117 0148 000052E1 		cmp	r2, r0
 118 014c FCFFFF1A 		bne	.L21
 119              	.L20:
 120 0150 04508DE2 		add	r5, sp, #4
 121 0154 011040E2 		sub	r1, r0, #1
 122 0158 0E2085E0 		add	r2, r5, lr
 123              	.L22:
 124 015c 014072E5 		ldrb	r4, [r2, #-1]!	@ zero_extendqisi2
 125 0160 05C042E0 		sub	ip, r2, r5
 126 0164 0140E1E5 		strb	r4, [r1, #1]!
 127 0168 00005CE3 		cmp	ip, #0
 128 016c FAFFFFCA 		bgt	.L22
 129 0170 0E0080E0 		add	r0, r0, lr
 130 0174 000053E3 		cmp	r3, #0
 131 0178 040000DA 		ble	.L1
 132 017c 033080E0 		add	r3, r0, r3
 133 0180 2020A0E3 		mov	r2, #32
 134              	.L23:
 135 0184 0120C0E4 		strb	r2, [r0], #1
 136 0188 000053E1 		cmp	r3, r0
 137 018c FCFFFF1A 		bne	.L23
 138              	.L1:
 139 0190 4CD08DE2 		add	sp, sp, #76
 140              		@ sp needed
 141 0194 F08FBDE8 		pop	{r4, r5, r6, r7, r8, r9, r10, fp, pc}
 142              	.L10:
 143 0198 006000E3 		movw	r6, #:lower16:.LANCHOR0
 144 019c 03508DE2 		add	r5, sp, #3
 145 01a0 006040E3 		movt	r6, #:upper16:.LANCHOR0
 146 01a4 0040A0E3 		mov	r4, #0
 147              	.L12:
 148 01a8 01C0A0E1 		mov	ip, r1
 149 01ac 01E084E2 		add	lr, r4, #1
 150 01b0 11F231E7 		udiv	r1, r1, r2
 151 01b4 92C16CE0 		mls	ip, r2, r1, ip
 152 01b8 000051E3 		cmp	r1, #0
 153 01bc 0E40A0E1 		mov	r4, lr
 154 01c0 0CC0D6E7 		ldrb	ip, [r6, ip]	@ zero_extendqisi2
 155 01c4 0CC087E1 		orr	ip, r7, ip
 156 01c8 01C0E5E5 		strb	ip, [r5, #1]!
 157 01cc 0EC0A0E1 		mov	ip, lr
 158 01d0 F4FFFF1A 		bne	.L12
 159 01d4 B0FFFFEA 		b	.L11
 160              	.L24:
 161 01d8 0000A0E3 		mov	r0, #0
 162 01dc 4CD08DE2 		add	sp, sp, #76
 163              		@ sp needed
 164 01e0 F08FBDE8 		pop	{r4, r5, r6, r7, r8, r9, r10, fp, pc}
 165              	.L50:
 166 01e4 0020A0E1 		mov	r2, r0
 167 01e8 587087E3 		orr	r7, r7, #88
 168 01ec 3040A0E3 		mov	r4, #48
 169 01f0 0240C2E4 		strb	r4, [r2], #2
 170 01f4 0170C0E5 		strb	r7, [r0, #1]
 171 01f8 0200A0E1 		mov	r0, r2
ARM GAS  C:\Users\ldebo\AppData\Local\Temp\ccrazFu5.s 			page 4


 172 01fc C1FFFFEA 		b	.L16
 173              	.L29:
 174 0200 0430A0E1 		mov	r3, r4
 175 0204 B3FFFFEA 		b	.L13
 176              	.L30:
 177 0208 0230A0E1 		mov	r3, r2
 178 020c C7FFFFEA 		b	.L18
 179              		.size	number, .-number
 180              		.align	2
 181              		.weak	strnlen
 182              		.syntax unified
 183              		.arm
 184              		.fpu neon
 185              		.type	strnlen, %function
 186              	strnlen:
 187              		@ args = 0, pretend = 0, frame = 0
 188              		@ frame_needed = 0, uses_anonymous_args = 0
 189              		@ link register save eliminated.
 190 0210 000051E3 		cmp	r1, #0
 191 0214 0B00000A 		beq	.L54
 192 0218 0030D0E5 		ldrb	r3, [r0]	@ zero_extendqisi2
 193 021c 000053E3 		cmp	r3, #0
 194 0220 0A00000A 		beq	.L55
 195 0224 0030A0E1 		mov	r3, r0
 196 0228 0000A0E3 		mov	r0, #0
 197              	.L53:
 198 022c 010080E2 		add	r0, r0, #1
 199 0230 000051E1 		cmp	r1, r0
 200 0234 1EFF2F01 		bxeq	lr
 201 0238 0120F3E5 		ldrb	r2, [r3, #1]!	@ zero_extendqisi2
 202 023c 000052E3 		cmp	r2, #0
 203 0240 F9FFFF1A 		bne	.L53
 204 0244 1EFF2FE1 		bx	lr
 205              	.L54:
 206 0248 0100A0E1 		mov	r0, r1
 207 024c 1EFF2FE1 		bx	lr
 208              	.L55:
 209 0250 0300A0E1 		mov	r0, r3
 210 0254 1EFF2FE1 		bx	lr
 211              		.size	strnlen, .-strnlen
 212              		.align	2
 213              		.global	emb_vsprintf
 214              		.syntax unified
 215              		.arm
 216              		.fpu neon
 217              		.type	emb_vsprintf, %function
 218              	emb_vsprintf:
 219              		@ args = 0, pretend = 0, frame = 8
 220              		@ frame_needed = 0, uses_anonymous_args = 0
 221 0258 F0472DE9 		push	{r4, r5, r6, r7, r8, r9, r10, lr}
 222 025c 0050A0E1 		mov	r5, r0
 223 0260 0000D1E5 		ldrb	r0, [r1]	@ zero_extendqisi2
 224 0264 10D04DE2 		sub	sp, sp, #16
 225 0268 000050E3 		cmp	r0, #0
 226 026c 1701000A 		beq	.L59
 227 0270 0140A0E1 		mov	r4, r1
 228 0274 0270A0E1 		mov	r7, r2
ARM GAS  C:\Users\ldebo\AppData\Local\Temp\ccrazFu5.s 			page 5


 229 0278 0580A0E1 		mov	r8, r5
 230 027c 0A90A0E3 		mov	r9, #10
 231 0280 050000EA 		b	.L110
 232              	.L155:
 233 0284 0000C5E5 		strb	r0, [r5]
 234 0288 015085E2 		add	r5, r5, #1
 235 028c 0100D4E5 		ldrb	r0, [r4, #1]	@ zero_extendqisi2
 236              	.L62:
 237 0290 000050E3 		cmp	r0, #0
 238 0294 014084E2 		add	r4, r4, #1
 239 0298 0B01000A 		beq	.L104
 240              	.L110:
 241 029c 250050E3 		cmp	r0, #37
 242 02a0 00A0A003 		moveq	r10, #0
 243 02a4 F6FFFF1A 		bne	.L155
 244              	.L61:
 245 02a8 01C0D4E5 		ldrb	ip, [r4, #1]	@ zero_extendqisi2
 246 02ac 016084E2 		add	r6, r4, #1
 247 02b0 20304CE2 		sub	r3, ip, #32
 248 02b4 100053E3 		cmp	r3, #16
 249 02b8 03F19F97 		ldrls	pc, [pc, r3, asl #2]
 250 02bc 1B0000EA 		b	.L63
 251              	.L65:
 252 02c0 28030000 		.word	.L64
 253 02c4 30030000 		.word	.L63
 254 02c8 30030000 		.word	.L63
 255 02cc 20030000 		.word	.L66
 256 02d0 30030000 		.word	.L63
 257 02d4 30030000 		.word	.L63
 258 02d8 30030000 		.word	.L63
 259 02dc 30030000 		.word	.L63
 260 02e0 30030000 		.word	.L63
 261 02e4 30030000 		.word	.L63
 262 02e8 30030000 		.word	.L63
 263 02ec 18030000 		.word	.L67
 264 02f0 30030000 		.word	.L63
 265 02f4 10030000 		.word	.L68
 266 02f8 30030000 		.word	.L63
 267 02fc 30030000 		.word	.L63
 268 0300 04030000 		.word	.L69
 269              	.L69:
 270 0304 01A08AE3 		orr	r10, r10, #1
 271              	.L70:
 272 0308 0640A0E1 		mov	r4, r6
 273 030c E5FFFFEA 		b	.L61
 274              	.L68:
 275 0310 10A08AE3 		orr	r10, r10, #16
 276 0314 FBFFFFEA 		b	.L70
 277              	.L67:
 278 0318 04A08AE3 		orr	r10, r10, #4
 279 031c F9FFFFEA 		b	.L70
 280              	.L66:
 281 0320 40A08AE3 		orr	r10, r10, #64
 282 0324 F7FFFFEA 		b	.L70
 283              	.L64:
 284 0328 08A08AE3 		orr	r10, r10, #8
 285 032c F5FFFFEA 		b	.L70
ARM GAS  C:\Users\ldebo\AppData\Local\Temp\ccrazFu5.s 			page 6


 286              	.L63:
 287 0330 30304CE2 		sub	r3, ip, #48
 288 0334 090053E3 		cmp	r3, #9
 289 0338 6500008A 		bhi	.L156
 290 033c 0030A0E3 		mov	r3, #0
 291              	.L112:
 292 0340 99C323E0 		mla	r3, r9, r3, ip
 293 0344 01C0F6E5 		ldrb	ip, [r6, #1]!	@ zero_extendqisi2
 294 0348 303043E2 		sub	r3, r3, #48
 295 034c 30204CE2 		sub	r2, ip, #48
 296 0350 090052E3 		cmp	r2, #9
 297 0354 F9FFFF9A 		bls	.L112
 298              	.L74:
 299 0358 2E005CE3 		cmp	ip, #46
 300 035c 00E0E013 		mvnne	lr, #0
 301 0360 6800000A 		beq	.L157
 302              	.L75:
 303 0364 DF200CE2 		and	r2, ip, #223
 304 0368 68005CE3 		cmp	ip, #104
 305 036c 4C005213 		cmpne	r2, #76
 306 0370 7300000A 		beq	.L158
 307 0374 25C04CE2 		sub	ip, ip, #37
 308 0378 53005CE3 		cmp	ip, #83
 309 037c 0CF19F97 		ldrls	pc, [pc, ip, asl #2]
 310 0380 CB0000EA 		b	.L79
 311              	.L116:
 312 0384 38080000 		.word	.L80
 313 0388 B4060000 		.word	.L79
 314 038c B4060000 		.word	.L79
 315 0390 B4060000 		.word	.L79
 316 0394 B4060000 		.word	.L79
 317 0398 B4060000 		.word	.L79
 318 039c B4060000 		.word	.L79
 319 03a0 B4060000 		.word	.L79
 320 03a4 B4060000 		.word	.L79
 321 03a8 B4060000 		.word	.L79
 322 03ac B4060000 		.word	.L79
 323 03b0 B4060000 		.word	.L79
 324 03b4 B4060000 		.word	.L79
 325 03b8 B4060000 		.word	.L79
 326 03bc B4060000 		.word	.L79
 327 03c0 B4060000 		.word	.L79
 328 03c4 B4060000 		.word	.L79
 329 03c8 B4060000 		.word	.L79
 330 03cc B4060000 		.word	.L79
 331 03d0 B4060000 		.word	.L79
 332 03d4 B4060000 		.word	.L79
 333 03d8 B4060000 		.word	.L79
 334 03dc B4060000 		.word	.L79
 335 03e0 B4060000 		.word	.L79
 336 03e4 B4060000 		.word	.L79
 337 03e8 B4060000 		.word	.L79
 338 03ec B4060000 		.word	.L79
 339 03f0 B4060000 		.word	.L79
 340 03f4 B4060000 		.word	.L79
 341 03f8 B4060000 		.word	.L79
 342 03fc B4060000 		.word	.L79
ARM GAS  C:\Users\ldebo\AppData\Local\Temp\ccrazFu5.s 			page 7


 343 0400 B4060000 		.word	.L79
 344 0404 B4060000 		.word	.L79
 345 0408 B4060000 		.word	.L79
 346 040c B4060000 		.word	.L79
 347 0410 B4060000 		.word	.L79
 348 0414 B4060000 		.word	.L79
 349 0418 B4060000 		.word	.L79
 350 041c B4060000 		.word	.L79
 351 0420 B4060000 		.word	.L79
 352 0424 B4060000 		.word	.L79
 353 0428 B4060000 		.word	.L79
 354 042c B4060000 		.word	.L79
 355 0430 B4060000 		.word	.L79
 356 0434 B4060000 		.word	.L79
 357 0438 B4060000 		.word	.L79
 358 043c B4060000 		.word	.L79
 359 0440 B4060000 		.word	.L79
 360 0444 B4060000 		.word	.L79
 361 0448 B4060000 		.word	.L79
 362 044c B4060000 		.word	.L79
 363 0450 9C080000 		.word	.L131
 364 0454 B4060000 		.word	.L79
 365 0458 B4060000 		.word	.L79
 366 045c B4060000 		.word	.L79
 367 0460 B4060000 		.word	.L79
 368 0464 B4060000 		.word	.L79
 369 0468 B4060000 		.word	.L79
 370 046c B4060000 		.word	.L79
 371 0470 B4060000 		.word	.L79
 372 0474 B4060000 		.word	.L79
 373 0478 B4060000 		.word	.L79
 374 047c CC070000 		.word	.L83
 375 0480 50080000 		.word	.L132
 376 0484 B4060000 		.word	.L79
 377 0488 B4060000 		.word	.L79
 378 048c B4060000 		.word	.L79
 379 0490 B4060000 		.word	.L79
 380 0494 50080000 		.word	.L132
 381 0498 B4060000 		.word	.L79
 382 049c B4060000 		.word	.L79
 383 04a0 B4060000 		.word	.L79
 384 04a4 B4060000 		.word	.L79
 385 04a8 D4080000 		.word	.L102
 386 04ac AC080000 		.word	.L133
 387 04b0 90070000 		.word	.L87
 388 04b4 B4060000 		.word	.L79
 389 04b8 B4060000 		.word	.L79
 390 04bc F8060000 		.word	.L88
 391 04c0 B4060000 		.word	.L79
 392 04c4 B8080000 		.word	.L134
 393 04c8 B4060000 		.word	.L79
 394 04cc B4060000 		.word	.L79
 395 04d0 C4080000 		.word	.L135
 396              	.L156:
 397 04d4 2A005CE3 		cmp	ip, #42
 398 04d8 0030E013 		mvnne	r3, #0
 399 04dc 9DFFFF1A 		bne	.L74
ARM GAS  C:\Users\ldebo\AppData\Local\Temp\ccrazFu5.s 			page 8


 400 04e0 003097E5 		ldr	r3, [r7]
 401 04e4 026084E2 		add	r6, r4, #2
 402 04e8 02C0D4E5 		ldrb	ip, [r4, #2]	@ zero_extendqisi2
 403 04ec 047087E2 		add	r7, r7, #4
 404 04f0 000053E3 		cmp	r3, #0
 405 04f4 003063B2 		rsblt	r3, r3, #0
 406 04f8 10A08AB3 		orrlt	r10, r10, #16
 407 04fc 2E005CE3 		cmp	ip, #46
 408 0500 00E0E013 		mvnne	lr, #0
 409 0504 96FFFF1A 		bne	.L75
 410              	.L157:
 411 0508 01C0D6E5 		ldrb	ip, [r6, #1]	@ zero_extendqisi2
 412 050c 012086E2 		add	r2, r6, #1
 413 0510 30104CE2 		sub	r1, ip, #48
 414 0514 090051E3 		cmp	r1, #9
 415 0518 7000008A 		bhi	.L159
 416 051c 00E0A0E3 		mov	lr, #0
 417              	.L114:
 418 0520 99CE2EE0 		mla	lr, r9, lr, ip
 419 0524 01C0D2E5 		ldrb	ip, [r2, #1]	@ zero_extendqisi2
 420 0528 016082E2 		add	r6, r2, #1
 421 052c 30E04EE2 		sub	lr, lr, #48
 422 0530 0620A0E1 		mov	r2, r6
 423 0534 30104CE2 		sub	r1, ip, #48
 424 0538 090051E3 		cmp	r1, #9
 425 053c F7FFFF9A 		bls	.L114
 426 0540 87FFFFEA 		b	.L75
 427              	.L158:
 428 0544 0120D6E5 		ldrb	r2, [r6, #1]	@ zero_extendqisi2
 429 0548 0C10A0E1 		mov	r1, ip
 430 054c 014086E2 		add	r4, r6, #1
 431 0550 252042E2 		sub	r2, r2, #37
 432 0554 530052E3 		cmp	r2, #83
 433 0558 02F19F97 		ldrls	pc, [pc, r2, asl #2]
 434 055c 530000EA 		b	.L119
 435              	.L81:
 436 0560 34080000 		.word	.L120
 437 0564 B0060000 		.word	.L119
 438 0568 B0060000 		.word	.L119
 439 056c B0060000 		.word	.L119
 440 0570 B0060000 		.word	.L119
 441 0574 B0060000 		.word	.L119
 442 0578 B0060000 		.word	.L119
 443 057c B0060000 		.word	.L119
 444 0580 B0060000 		.word	.L119
 445 0584 B0060000 		.word	.L119
 446 0588 B0060000 		.word	.L119
 447 058c B0060000 		.word	.L119
 448 0590 B0060000 		.word	.L119
 449 0594 B0060000 		.word	.L119
 450 0598 B0060000 		.word	.L119
 451 059c B0060000 		.word	.L119
 452 05a0 B0060000 		.word	.L119
 453 05a4 B0060000 		.word	.L119
 454 05a8 B0060000 		.word	.L119
 455 05ac B0060000 		.word	.L119
 456 05b0 B0060000 		.word	.L119
ARM GAS  C:\Users\ldebo\AppData\Local\Temp\ccrazFu5.s 			page 9


 457 05b4 B0060000 		.word	.L119
 458 05b8 B0060000 		.word	.L119
 459 05bc B0060000 		.word	.L119
 460 05c0 B0060000 		.word	.L119
 461 05c4 B0060000 		.word	.L119
 462 05c8 B0060000 		.word	.L119
 463 05cc B0060000 		.word	.L119
 464 05d0 B0060000 		.word	.L119
 465 05d4 B0060000 		.word	.L119
 466 05d8 B0060000 		.word	.L119
 467 05dc B0060000 		.word	.L119
 468 05e0 B0060000 		.word	.L119
 469 05e4 B0060000 		.word	.L119
 470 05e8 B0060000 		.word	.L119
 471 05ec B0060000 		.word	.L119
 472 05f0 B0060000 		.word	.L119
 473 05f4 B0060000 		.word	.L119
 474 05f8 B0060000 		.word	.L119
 475 05fc B0060000 		.word	.L119
 476 0600 B0060000 		.word	.L119
 477 0604 B0060000 		.word	.L119
 478 0608 B0060000 		.word	.L119
 479 060c B0060000 		.word	.L119
 480 0610 B0060000 		.word	.L119
 481 0614 B0060000 		.word	.L119
 482 0618 B0060000 		.word	.L119
 483 061c B0060000 		.word	.L119
 484 0620 B0060000 		.word	.L119
 485 0624 B0060000 		.word	.L119
 486 0628 B0060000 		.word	.L119
 487 062c F0080000 		.word	.L121
 488 0630 B0060000 		.word	.L119
 489 0634 B0060000 		.word	.L119
 490 0638 B0060000 		.word	.L119
 491 063c B0060000 		.word	.L119
 492 0640 B0060000 		.word	.L119
 493 0644 B0060000 		.word	.L119
 494 0648 B0060000 		.word	.L119
 495 064c B0060000 		.word	.L119
 496 0650 B0060000 		.word	.L119
 497 0654 B0060000 		.word	.L119
 498 0658 C8070000 		.word	.L122
 499 065c 00090000 		.word	.L123
 500 0660 B0060000 		.word	.L119
 501 0664 B0060000 		.word	.L119
 502 0668 B0060000 		.word	.L119
 503 066c B0060000 		.word	.L119
 504 0670 00090000 		.word	.L123
 505 0674 B0060000 		.word	.L119
 506 0678 B0060000 		.word	.L119
 507 067c B0060000 		.word	.L119
 508 0680 B0060000 		.word	.L119
 509 0684 18090000 		.word	.L85
 510 0688 08090000 		.word	.L124
 511 068c 8C070000 		.word	.L125
 512 0690 B0060000 		.word	.L119
 513 0694 B0060000 		.word	.L119
ARM GAS  C:\Users\ldebo\AppData\Local\Temp\ccrazFu5.s 			page 10


 514 0698 F4060000 		.word	.L126
 515 069c B0060000 		.word	.L119
 516 06a0 10090000 		.word	.L89
 517 06a4 B0060000 		.word	.L119
 518 06a8 B0060000 		.word	.L119
 519 06ac F8080000 		.word	.L127
 520              	.L119:
 521 06b0 0460A0E1 		mov	r6, r4
 522              	.L79:
 523 06b4 2530A0E3 		mov	r3, #37
 524 06b8 0030C5E5 		strb	r3, [r5]
 525 06bc 0030D6E5 		ldrb	r3, [r6]	@ zero_extendqisi2
 526 06c0 000053E3 		cmp	r3, #0
 527 06c4 9B00001A 		bne	.L160
 528 06c8 015085E2 		add	r5, r5, #1
 529              	.L104:
 530 06cc 080045E0 		sub	r0, r5, r8
 531              	.L59:
 532 06d0 0030A0E3 		mov	r3, #0
 533 06d4 0030C5E5 		strb	r3, [r5]
 534 06d8 10D08DE2 		add	sp, sp, #16
 535              		@ sp needed
 536 06dc F087BDE8 		pop	{r4, r5, r6, r7, r8, r9, r10, pc}
 537              	.L159:
 538 06e0 2A005CE3 		cmp	ip, #42
 539 06e4 9E00000A 		beq	.L113
 540 06e8 0260A0E1 		mov	r6, r2
 541 06ec 00E0A0E3 		mov	lr, #0
 542 06f0 1BFFFFEA 		b	.L75
 543              	.L126:
 544 06f4 0460A0E1 		mov	r6, r4
 545              	.L88:
 546 06f8 004097E5 		ldr	r4, [r7]
 547 06fc 0E10A0E1 		mov	r1, lr
 548 0700 0C308DE5 		str	r3, [sp, #12]
 549 0704 047087E2 		add	r7, r7, #4
 550 0708 0400A0E1 		mov	r0, r4
 551 070c FEFFFFEB 		bl	strnlen
 552 0710 0C309DE5 		ldr	r3, [sp, #12]
 553 0714 10001AE3 		tst	r10, #16
 554 0718 0900001A 		bne	.L95
 555 071c 000053E1 		cmp	r3, r0
 556 0720 012043E2 		sub	r2, r3, #1
 557 0724 940000DA 		ble	.L129
 558 0728 003043E0 		sub	r3, r3, r0
 559 072c 2020A0E3 		mov	r2, #32
 560 0730 033085E0 		add	r3, r5, r3
 561              	.L96:
 562 0734 0120C5E4 		strb	r2, [r5], #1
 563 0738 030055E1 		cmp	r5, r3
 564 073c FCFFFF1A 		bne	.L96
 565 0740 013040E2 		sub	r3, r0, #1
 566              	.L95:
 567 0744 000050E3 		cmp	r0, #0
 568 0748 060000DA 		ble	.L97
 569 074c 00C084E0 		add	ip, r4, r0
 570 0750 012045E2 		sub	r2, r5, #1
ARM GAS  C:\Users\ldebo\AppData\Local\Temp\ccrazFu5.s 			page 11


 571              	.L98:
 572 0754 0110D4E4 		ldrb	r1, [r4], #1	@ zero_extendqisi2
 573 0758 0C0054E1 		cmp	r4, ip
 574 075c 0110E2E5 		strb	r1, [r2, #1]!
 575 0760 FBFFFF1A 		bne	.L98
 576 0764 005085E0 		add	r5, r5, r0
 577              	.L97:
 578 0768 000053E1 		cmp	r3, r0
 579 076c 120000DA 		ble	.L152
 580 0770 003043E0 		sub	r3, r3, r0
 581 0774 2020A0E3 		mov	r2, #32
 582 0778 033085E0 		add	r3, r5, r3
 583              	.L100:
 584 077c 0120C5E4 		strb	r2, [r5], #1
 585 0780 030055E1 		cmp	r5, r3
 586 0784 FCFFFF1A 		bne	.L100
 587 0788 0B0000EA 		b	.L152
 588              	.L125:
 589 078c 0460A0E1 		mov	r6, r4
 590              	.L87:
 591 0790 001097E5 		ldr	r1, [r7]
 592 0794 010073E3 		cmn	r3, #1
 593 0798 00E08DE5 		str	lr, [sp]
 594 079c 01A08A03 		orreq	r10, r10, #1
 595 07a0 04A08DE5 		str	r10, [sp, #4]
 596 07a4 0500A0E1 		mov	r0, r5
 597 07a8 0830A003 		moveq	r3, #8
 598 07ac 1020A0E3 		mov	r2, #16
 599 07b0 047087E2 		add	r7, r7, #4
 600 07b4 11FEFFEB 		bl	number
 601 07b8 0050A0E1 		mov	r5, r0
 602              	.L152:
 603 07bc 0100D6E5 		ldrb	r0, [r6, #1]	@ zero_extendqisi2
 604 07c0 0640A0E1 		mov	r4, r6
 605 07c4 B1FEFFEA 		b	.L62
 606              	.L122:
 607 07c8 0460A0E1 		mov	r6, r4
 608              	.L83:
 609 07cc 10001AE3 		tst	r10, #16
 610 07d0 0800001A 		bne	.L91
 611 07d4 013043E2 		sub	r3, r3, #1
 612 07d8 000053E3 		cmp	r3, #0
 613 07dc 050000DA 		ble	.L91
 614 07e0 033085E0 		add	r3, r5, r3
 615 07e4 2020A0E3 		mov	r2, #32
 616              	.L92:
 617 07e8 0120C5E4 		strb	r2, [r5], #1
 618 07ec 030055E1 		cmp	r5, r3
 619 07f0 FCFFFF1A 		bne	.L92
 620 07f4 0030A0E3 		mov	r3, #0
 621              	.L91:
 622 07f8 002097E5 		ldr	r2, [r7]
 623 07fc 010053E3 		cmp	r3, #1
 624 0800 047087E2 		add	r7, r7, #4
 625 0804 0020C5E5 		strb	r2, [r5]
 626 0808 012085E2 		add	r2, r5, #1
 627 080c 040000DA 		ble	.L150
ARM GAS  C:\Users\ldebo\AppData\Local\Temp\ccrazFu5.s 			page 12


 628 0810 033085E0 		add	r3, r5, r3
 629 0814 2010A0E3 		mov	r1, #32
 630              	.L94:
 631 0818 0110C2E4 		strb	r1, [r2], #1
 632 081c 030052E1 		cmp	r2, r3
 633 0820 FCFFFF1A 		bne	.L94
 634              	.L150:
 635 0824 0100D6E5 		ldrb	r0, [r6, #1]	@ zero_extendqisi2
 636 0828 0250A0E1 		mov	r5, r2
 637 082c 0640A0E1 		mov	r4, r6
 638 0830 96FEFFEA 		b	.L62
 639              	.L120:
 640 0834 0460A0E1 		mov	r6, r4
 641              	.L80:
 642 0838 2530A0E3 		mov	r3, #37
 643 083c 0640A0E1 		mov	r4, r6
 644 0840 0030C5E5 		strb	r3, [r5]
 645 0844 015085E2 		add	r5, r5, #1
 646 0848 0100D6E5 		ldrb	r0, [r6, #1]	@ zero_extendqisi2
 647 084c 8FFEFFEA 		b	.L62
 648              	.L132:
 649 0850 0010E0E3 		mvn	r1, #0
 650              	.L84:
 651 0854 02A08AE3 		orr	r10, r10, #2
 652 0858 0640A0E1 		mov	r4, r6
 653 085c 0A20A0E3 		mov	r2, #10
 654              	.L86:
 655 0860 6C0051E3 		cmp	r1, #108
 656 0864 00109705 		ldreq	r1, [r7]
 657 0868 04708702 		addeq	r7, r7, #4
 658 086c 0300000A 		beq	.L106
 659 0870 680051E3 		cmp	r1, #104
 660 0874 3400000A 		beq	.L161
 661              	.L107:
 662 0878 001097E5 		ldr	r1, [r7]
 663 087c 047087E2 		add	r7, r7, #4
 664              	.L106:
 665 0880 04A08DE5 		str	r10, [sp, #4]
 666 0884 0500A0E1 		mov	r0, r5
 667 0888 00E08DE5 		str	lr, [sp]
 668 088c DBFDFFEB 		bl	number
 669 0890 0050A0E1 		mov	r5, r0
 670 0894 0100D4E5 		ldrb	r0, [r4, #1]	@ zero_extendqisi2
 671 0898 7CFEFFEA 		b	.L62
 672              	.L131:
 673 089c 0010E0E3 		mvn	r1, #0
 674              	.L149:
 675 08a0 0640A0E1 		mov	r4, r6
 676 08a4 1020A0E3 		mov	r2, #16
 677 08a8 ECFFFFEA 		b	.L86
 678              	.L133:
 679 08ac 0640A0E1 		mov	r4, r6
 680 08b0 0820A0E3 		mov	r2, #8
 681 08b4 EFFFFFEA 		b	.L107
 682              	.L134:
 683 08b8 0640A0E1 		mov	r4, r6
 684 08bc 0A20A0E3 		mov	r2, #10
ARM GAS  C:\Users\ldebo\AppData\Local\Temp\ccrazFu5.s 			page 13


 685 08c0 ECFFFFEA 		b	.L107
 686              	.L135:
 687 08c4 0010E0E3 		mvn	r1, #0
 688              	.L90:
 689 08c8 20A08AE3 		orr	r10, r10, #32
 690 08cc F3FFFFEA 		b	.L149
 691              	.L130:
 692 08d0 0460A0E1 		mov	r6, r4
 693              	.L102:
 694 08d4 003097E5 		ldr	r3, [r7]
 695 08d8 0640A0E1 		mov	r4, r6
 696 08dc 082045E0 		sub	r2, r5, r8
 697 08e0 047087E2 		add	r7, r7, #4
 698 08e4 002083E5 		str	r2, [r3]
 699 08e8 0100D6E5 		ldrb	r0, [r6, #1]	@ zero_extendqisi2
 700 08ec 67FEFFEA 		b	.L62
 701              	.L121:
 702 08f0 0460A0E1 		mov	r6, r4
 703 08f4 E9FFFFEA 		b	.L149
 704              	.L127:
 705 08f8 0460A0E1 		mov	r6, r4
 706 08fc F1FFFFEA 		b	.L90
 707              	.L123:
 708 0900 0460A0E1 		mov	r6, r4
 709 0904 D2FFFFEA 		b	.L84
 710              	.L124:
 711 0908 0820A0E3 		mov	r2, #8
 712 090c D3FFFFEA 		b	.L86
 713              	.L89:
 714 0910 0A20A0E3 		mov	r2, #10
 715 0914 D1FFFFEA 		b	.L86
 716              	.L85:
 717 0918 6C005CE3 		cmp	ip, #108
 718 091c EBFFFF1A 		bne	.L130
 719 0920 003097E5 		ldr	r3, [r7]
 720 0924 047087E2 		add	r7, r7, #4
 721 0928 082045E0 		sub	r2, r5, r8
 722 092c 002083E5 		str	r2, [r3]
 723 0930 0200D6E5 		ldrb	r0, [r6, #2]	@ zero_extendqisi2
 724 0934 55FEFFEA 		b	.L62
 725              	.L160:
 726 0938 0130C5E5 		strb	r3, [r5, #1]
 727 093c 0640A0E1 		mov	r4, r6
 728 0940 0100D6E5 		ldrb	r0, [r6, #1]	@ zero_extendqisi2
 729 0944 025085E2 		add	r5, r5, #2
 730 0948 50FEFFEA 		b	.L62
 731              	.L161:
 732 094c 001097E5 		ldr	r1, [r7]
 733 0950 02001AE3 		tst	r10, #2
 734 0954 047087E2 		add	r7, r7, #4
 735 0958 7110FF06 		uxtheq	r1, r1
 736 095c 7110BF16 		sxthne	r1, r1
 737 0960 C6FFFFEA 		b	.L106
 738              	.L113:
 739 0964 00E097E5 		ldr	lr, [r7]
 740 0968 026086E2 		add	r6, r6, #2
 741 096c 00C0D6E5 		ldrb	ip, [r6]	@ zero_extendqisi2
ARM GAS  C:\Users\ldebo\AppData\Local\Temp\ccrazFu5.s 			page 14


 742 0970 047087E2 		add	r7, r7, #4
 743 0974 CEEFCEE1 		bic	lr, lr, lr, asr #31
 744 0978 79FEFFEA 		b	.L75
 745              	.L129:
 746 097c 0230A0E1 		mov	r3, r2
 747 0980 6FFFFFEA 		b	.L95
 748              		.size	emb_vsprintf, .-emb_vsprintf
 749              		.align	2
 750              		.global	emb_sprintf
 751              		.syntax unified
 752              		.arm
 753              		.fpu neon
 754              		.type	emb_sprintf, %function
 755              	emb_sprintf:
 756              		@ args = 4, pretend = 12, frame = 8
 757              		@ frame_needed = 0, uses_anonymous_args = 1
 758 0984 0E002DE9 		push	{r1, r2, r3}
 759 0988 04E02DE5 		str	lr, [sp, #-4]!
 760 098c 08D04DE2 		sub	sp, sp, #8
 761 0990 10208DE2 		add	r2, sp, #16
 762 0994 0C109DE5 		ldr	r1, [sp, #12]
 763 0998 04208DE5 		str	r2, [sp, #4]
 764 099c FEFFFFEB 		bl	emb_vsprintf
 765 09a0 08D08DE2 		add	sp, sp, #8
 766              		@ sp needed
 767 09a4 04E09DE4 		ldr	lr, [sp], #4
 768 09a8 0CD08DE2 		add	sp, sp, #12
 769 09ac 1EFF2FE1 		bx	lr
 770              		.size	emb_sprintf, .-emb_sprintf
 771              		.align	2
 772              		.global	printf
 773              		.syntax unified
 774              		.arm
 775              		.fpu neon
 776              		.type	printf, %function
 777              	printf:
 778              		@ args = 4, pretend = 16, frame = 520
 779              		@ frame_needed = 0, uses_anonymous_args = 1
 780 09b0 0F002DE9 		push	{r0, r1, r2, r3}
 781 09b4 70402DE9 		push	{r4, r5, r6, lr}
 782 09b8 82DF4DE2 		sub	sp, sp, #520
 783 09bc 872F8DE2 		add	r2, sp, #540
 784 09c0 08008DE2 		add	r0, sp, #8
 785 09c4 18129DE5 		ldr	r1, [sp, #536]
 786 09c8 04208DE5 		str	r2, [sp, #4]
 787 09cc FEFFFFEB 		bl	emb_vsprintf
 788 09d0 006050E2 		subs	r6, r0, #0
 789 09d4 070000DA 		ble	.L164
 790 09d8 015046E2 		sub	r5, r6, #1
 791 09dc 08308DE2 		add	r3, sp, #8
 792 09e0 055083E0 		add	r5, r3, r5
 793 09e4 07408DE2 		add	r4, sp, #7
 794              	.L166:
 795 09e8 0100F4E5 		ldrb	r0, [r4, #1]!	@ zero_extendqisi2
 796 09ec FEFFFFEB 		bl	Embedded_Console_WriteChar
 797 09f0 050054E1 		cmp	r4, r5
 798 09f4 FBFFFF1A 		bne	.L166
ARM GAS  C:\Users\ldebo\AppData\Local\Temp\ccrazFu5.s 			page 15


 799              	.L164:
 800 09f8 0600A0E1 		mov	r0, r6
 801 09fc 82DF8DE2 		add	sp, sp, #520
 802              		@ sp needed
 803 0a00 7040BDE8 		pop	{r4, r5, r6, lr}
 804 0a04 10D08DE2 		add	sp, sp, #16
 805 0a08 1EFF2FE1 		bx	lr
 806              		.size	printf, .-printf
 807              		.comm	__errno,4,4
 808              		.section	.rodata
 809              		.align	2
 810              		.set	.LANCHOR0,. + 0
 811              		.type	digits.5815, %object
 812              		.size	digits.5815, 16
 813              	digits.5815:
 814 0000 30313233 		.ascii	"0123456789ABCDEF"
 814      34353637 
 814      38394142 
 814      43444546 
 815              		.ident	"GCC: (GNU Tools for ARM Embedded Processors 6-2017-q2-update) 6.3.1 20170620 (release) [AR
ARM GAS  C:\Users\ldebo\AppData\Local\Temp\ccrazFu5.s 			page 16


DEFINED SYMBOLS
                            *ABS*:00000000 emb-stdio.c
C:\Users\ldebo\AppData\Local\Temp\ccrazFu5.s:18     .text:00000000 $a
C:\Users\ldebo\AppData\Local\Temp\ccrazFu5.s:23     .text:00000000 number
C:\Users\ldebo\AppData\Local\Temp\ccrazFu5.s:810    .rodata:00000000 .LANCHOR0
C:\Users\ldebo\AppData\Local\Temp\ccrazFu5.s:186    .text:00000210 strnlen
C:\Users\ldebo\AppData\Local\Temp\ccrazFu5.s:218    .text:00000258 emb_vsprintf
C:\Users\ldebo\AppData\Local\Temp\ccrazFu5.s:252    .text:000002c0 $d
C:\Users\ldebo\AppData\Local\Temp\ccrazFu5.s:270    .text:00000304 $a
C:\Users\ldebo\AppData\Local\Temp\ccrazFu5.s:312    .text:00000384 $d
C:\Users\ldebo\AppData\Local\Temp\ccrazFu5.s:397    .text:000004d4 $a
C:\Users\ldebo\AppData\Local\Temp\ccrazFu5.s:436    .text:00000560 $d
C:\Users\ldebo\AppData\Local\Temp\ccrazFu5.s:521    .text:000006b0 $a
C:\Users\ldebo\AppData\Local\Temp\ccrazFu5.s:755    .text:00000984 emb_sprintf
C:\Users\ldebo\AppData\Local\Temp\ccrazFu5.s:777    .text:000009b0 printf
                            *COM*:00000004 __errno
C:\Users\ldebo\AppData\Local\Temp\ccrazFu5.s:809    .rodata:00000000 $d
C:\Users\ldebo\AppData\Local\Temp\ccrazFu5.s:813    .rodata:00000000 digits.5815

UNDEFINED SYMBOLS
Embedded_Console_WriteChar
ARM GAS  C:\Users\ldebo\AppData\Local\Temp\ccrazFu5.s 			page 1


   1              		.arch armv7-a
   2              		.arch_extension virt
   3              		.arch_extension idiv
   4              		.arch_extension sec
   5              		.arch_extension mp
   6              		.eabi_attribute 28, 1
   7              		.eabi_attribute 20, 1
   8              		.eabi_attribute 21, 1
   9              		.eabi_attribute 23, 3
  10              		.eabi_attribute 24, 1
  11              		.eabi_attribute 25, 1
  12              		.eabi_attribute 26, 1
  13              		.eabi_attribute 30, 2
  14              		.eabi_attribute 34, 0
  15              		.eabi_attribute 18, 4
  16              		.file	"rpi-GLES.c"
  17              		.text
  18              		.align	2
  19              		.syntax unified
  20              		.arm
  21              		.fpu neon
  22              		.type	ParseWaveFrontMesh, %function
  23              	ParseWaveFrontMesh:
  24              		@ args = 0, pretend = 0, frame = 864
  25              		@ frame_needed = 0, uses_anonymous_args = 0
  26 0000 F04F2DE9 		push	{r4, r5, r6, r7, r8, r9, r10, fp, lr}
  27 0004 DDDF4DE2 		sub	sp, sp, #884
  28 0008 0050A0E3 		mov	r5, #0
  29 000c 8030A0E3 		mov	r3, #128
  30 0010 28008DE9 		stmib	sp, {r3, r5}
  31 0014 10208DE5 		str	r2, [sp, #16]
  32 0018 0330A0E3 		mov	r3, #3
  33 001c 00308DE5 		str	r3, [sp]
  34 0020 01A0A0E1 		mov	r10, r1
  35 0024 1C3091E5 		ldr	r3, [r1, #28]
  36 0028 182091E5 		ldr	r2, [r1, #24]
  37 002c 18308DE5 		str	r3, [sp, #24]
  38 0030 0530A0E1 		mov	r3, r5
  39 0034 1C208DE5 		str	r2, [sp, #28]
  40 0038 0520A0E1 		mov	r2, r5
  41 003c 084091E5 		ldr	r4, [r1, #8]
  42 0040 0211A0E3 		mov	r1, #-2147483648
  43 0044 FEFFFFEB 		bl	sdCreateFile
  44 0048 003050E2 		subs	r3, r0, #0
  45 004c 14308DE5 		str	r3, [sp, #20]
  46 0050 0300001A 		bne	.L2
  47              	.L6:
  48 0054 0050A0E3 		mov	r5, #0
  49              	.L88:
  50 0058 0500A0E1 		mov	r0, r5
  51 005c DDDF8DE2 		add	sp, sp, #884
  52              		@ sp needed
  53 0060 F08FBDE8 		pop	{r4, r5, r6, r7, r8, r9, r10, fp, pc}
  54              	.L2:
  55 0064 30408DE5 		str	r4, [sp, #48]
  56 0068 0510A0E1 		mov	r1, r5
  57 006c 05B0A0E1 		mov	fp, r5
ARM GAS  C:\Users\ldebo\AppData\Local\Temp\ccrazFu5.s 			page 2


  58 0070 FEFFFFEB 		bl	sdGetFileSize
  59 0074 14609DE5 		ldr	r6, [sp, #20]
  60 0078 0090A0E1 		mov	r9, r0
  61 007c 24A08DE5 		str	r10, [sp, #36]
  62 0080 0580A0E1 		mov	r8, r5
  63              	.L46:
  64 0084 0040A0E3 		mov	r4, #0
  65 0088 6F708DE2 		add	r7, sp, #111
  66 008c 04A0A0E1 		mov	r10, r4
  67 0090 0B0000EA 		b	.L7
  68              	.L4:
  69 0094 0030D8E5 		ldrb	r3, [r8]	@ zero_extendqisi2
  70 0098 014084E2 		add	r4, r4, #1
  71 009c FF0054E3 		cmp	r4, #255
  72 00a0 019049E2 		sub	r9, r9, #1
  73 00a4 0130E7E5 		strb	r3, [r7, #1]!
  74 00a8 0050A083 		movhi	r5, #0
  75 00ac 0150A093 		movls	r5, #1
  76 00b0 0A0053E3 		cmp	r3, #10
  77 00b4 0050A003 		moveq	r5, #0
  78 00b8 018088E2 		add	r8, r8, #1
  79 00bc 000055E3 		cmp	r5, #0
  80 00c0 1200000A 		beq	.L91
  81              	.L7:
  82 00c4 0B0058E1 		cmp	r8, fp
  83 00c8 F1FFFF1A 		bne	.L4
  84 00cc 00A08DE5 		str	r10, [sp]
  85 00d0 020C59E3 		cmp	r9, #512
  86 00d4 0950A031 		movcc	r5, r9
  87 00d8 025CA023 		movcs	r5, #512
  88 00dc 5C308DE2 		add	r3, sp, #92
  89 00e0 171E8DE2 		add	r1, sp, #368
  90 00e4 0600A0E1 		mov	r0, r6
  91 00e8 0520A0E1 		mov	r2, r5
  92 00ec 178E8DE2 		add	r8, sp, #368
  93 00f0 FEFFFFEB 		bl	sdReadFile
  94 00f4 000050E3 		cmp	r0, #0
  95 00f8 D5FFFF0A 		beq	.L6
  96 00fc 5CB09DE5 		ldr	fp, [sp, #92]
  97 0100 05005BE1 		cmp	fp, r5
  98 0104 0BB088E0 		add	fp, r8, fp
  99 0108 E1FFFF0A 		beq	.L4
 100 010c D0FFFFEA 		b	.L6
 101              	.L91:
 102 0110 373E8DE2 		add	r3, sp, #880
 103 0114 044083E0 		add	r4, r3, r4
 104 0118 005344E5 		strb	r5, [r4, #-768]
 105 011c 7030DDE5 		ldrb	r3, [sp, #112]	@ zero_extendqisi2
 106 0120 660053E3 		cmp	r3, #102
 107 0124 5100000A 		beq	.L9
 108 0128 760053E3 		cmp	r3, #118
 109 012c 0C00001A 		bne	.L8
 110 0130 7130DDE5 		ldrb	r3, [sp, #113]	@ zero_extendqisi2
 111 0134 200053E3 		cmp	r3, #32
 112 0138 2701000A 		beq	.L92
 113 013c 740053E3 		cmp	r3, #116
 114 0140 1E01000A 		beq	.L93
ARM GAS  C:\Users\ldebo\AppData\Local\Temp\ccrazFu5.s 			page 3


 115 0144 6E0053E3 		cmp	r3, #110
 116 0148 F700001A 		bne	.L17
 117 014c 10309DE5 		ldr	r3, [sp, #16]
 118 0150 000053E3 		cmp	r3, #0
 119 0154 24209D05 		ldreq	r2, [sp, #36]
 120 0158 68309205 		ldreq	r3, [r2, #104]
 121 015c 01308302 		addeq	r3, r3, #1
 122 0160 68308205 		streq	r3, [r2, #104]
 123              	.L8:
 124 0164 000059E3 		cmp	r9, #0
 125 0168 C5FFFF1A 		bne	.L46
 126              	.L99:
 127 016c 14009DE5 		ldr	r0, [sp, #20]
 128 0170 24A09DE5 		ldr	r10, [sp, #36]
 129 0174 FEFFFFEB 		bl	sdCloseHandle
 130 0178 10309DE5 		ldr	r3, [sp, #16]
 131 017c 000053E3 		cmp	r3, #0
 132 0180 0350A011 		movne	r5, r3
 133 0184 B3FFFF1A 		bne	.L88
 134 0188 70309AE5 		ldr	r3, [r10, #112]
 135 018c 000053E3 		cmp	r3, #0
 136 0190 0200000A 		beq	.L47
 137 0194 64309AE5 		ldr	r3, [r10, #100]
 138 0198 000053E3 		cmp	r3, #0
 139 019c 8001000A 		beq	.L48
 140              	.L47:
 141 01a0 74309AE5 		ldr	r3, [r10, #116]
 142 01a4 000053E3 		cmp	r3, #0
 143 01a8 0200000A 		beq	.L49
 144 01ac 68309AE5 		ldr	r3, [r10, #104]
 145 01b0 000053E3 		cmp	r3, #0
 146 01b4 7A01000A 		beq	.L48
 147              	.L49:
 148 01b8 60509AE5 		ldr	r5, [r10, #96]
 149 01bc 000055E3 		cmp	r5, #0
 150 01c0 8401000A 		beq	.L94
 151 01c4 000000E3 		movw	r0, #:lower16:.LC16
 152 01c8 006000E3 		movw	r6, #:lower16:.LC1
 153 01cc 000040E3 		movt	r0, #:upper16:.LC16
 154 01d0 004000E3 		movw	r4, #:lower16:.LC0
 155 01d4 006040E3 		movt	r6, #:upper16:.LC1
 156 01d8 FEFFFFEB 		bl	printf
 157 01dc 60109AE5 		ldr	r1, [r10, #96]
 158 01e0 000000E3 		movw	r0, #:lower16:.LC17
 159 01e4 000040E3 		movt	r0, #:upper16:.LC17
 160 01e8 0150A0E3 		mov	r5, #1
 161 01ec 004040E3 		movt	r4, #:upper16:.LC0
 162 01f0 FEFFFFEB 		bl	printf
 163 01f4 64109AE5 		ldr	r1, [r10, #100]
 164 01f8 000000E3 		movw	r0, #:lower16:.LC13
 165 01fc 000040E3 		movt	r0, #:upper16:.LC13
 166 0200 FEFFFFEB 		bl	printf
 167 0204 68109AE5 		ldr	r1, [r10, #104]
 168 0208 000000E3 		movw	r0, #:lower16:.LC14
 169 020c 000040E3 		movt	r0, #:upper16:.LC14
 170 0210 FEFFFFEB 		bl	printf
 171 0214 80009AE5 		ldr	r0, [r10, #128]
ARM GAS  C:\Users\ldebo\AppData\Local\Temp\ccrazFu5.s 			page 4


 172 0218 7C309AE5 		ldr	r3, [r10, #124]
 173 021c 78209AE5 		ldr	r2, [r10, #120]
 174 0220 6C109AE5 		ldr	r1, [r10, #108]
 175 0224 00008DE5 		str	r0, [sp]
 176 0228 000000E3 		movw	r0, #:lower16:.LC18
 177 022c 000040E3 		movt	r0, #:upper16:.LC18
 178 0230 FEFFFFEB 		bl	printf
 179 0234 70109AE5 		ldr	r1, [r10, #112]
 180 0238 000000E3 		movw	r0, #:lower16:.LC19
 181 023c 000040E3 		movt	r0, #:upper16:.LC19
 182 0240 000051E3 		cmp	r1, #0
 183 0244 0610A001 		moveq	r1, r6
 184 0248 0410A011 		movne	r1, r4
 185 024c FEFFFFEB 		bl	printf
 186 0250 74109AE5 		ldr	r1, [r10, #116]
 187 0254 000000E3 		movw	r0, #:lower16:.LC20
 188 0258 000040E3 		movt	r0, #:upper16:.LC20
 189 025c 000051E3 		cmp	r1, #0
 190 0260 0610A001 		moveq	r1, r6
 191 0264 0410A011 		movne	r1, r4
 192 0268 FEFFFFEB 		bl	printf
 193 026c 79FFFFEA 		b	.L88
 194              	.L9:
 195 0270 72408DE2 		add	r4, sp, #114
 196 0274 54708DE2 		add	r7, sp, #84
 197 0278 00708DE5 		str	r7, [sp]
 198 027c 001000E3 		movw	r1, #:lower16:.LC6
 199 0280 001040E3 		movt	r1, #:upper16:.LC6
 200 0284 58308DE2 		add	r3, sp, #88
 201 0288 50208DE2 		add	r2, sp, #80
 202 028c 0400A0E1 		mov	r0, r4
 203 0290 FEFFFFEB 		bl	sscanf
 204 0294 030050E3 		cmp	r0, #3
 205 0298 1200000A 		beq	.L95
 206 029c 001000E3 		movw	r1, #:lower16:.LC7
 207 02a0 58308DE2 		add	r3, sp, #88
 208 02a4 001040E3 		movt	r1, #:upper16:.LC7
 209 02a8 50208DE2 		add	r2, sp, #80
 210 02ac 0400A0E1 		mov	r0, r4
 211 02b0 FEFFFFEB 		bl	sscanf
 212 02b4 020050E3 		cmp	r0, #2
 213 02b8 A700001A 		bne	.L21
 214 02bc 10009DE5 		ldr	r0, [sp, #16]
 215 02c0 000050E3 		cmp	r0, #0
 216 02c4 1100001A 		bne	.L20
 217 02c8 24109DE5 		ldr	r1, [sp, #36]
 218 02cc 0120A0E3 		mov	r2, #1
 219 02d0 6C3091E5 		ldr	r3, [r1, #108]
 220 02d4 700081E5 		str	r0, [r1, #112]
 221 02d8 023083E0 		add	r3, r3, r2
 222 02dc 742081E5 		str	r2, [r1, #116]
 223 02e0 6C3081E5 		str	r3, [r1, #108]
 224 02e4 090000EA 		b	.L20
 225              	.L95:
 226 02e8 10309DE5 		ldr	r3, [sp, #16]
 227 02ec 000053E3 		cmp	r3, #0
 228 02f0 0600001A 		bne	.L20
ARM GAS  C:\Users\ldebo\AppData\Local\Temp\ccrazFu5.s 			page 5


 229 02f4 24109DE5 		ldr	r1, [sp, #36]
 230 02f8 0120A0E3 		mov	r2, #1
 231 02fc 6C3091E5 		ldr	r3, [r1, #108]
 232 0300 702081E5 		str	r2, [r1, #112]
 233 0304 023083E0 		add	r3, r3, r2
 234 0308 742081E5 		str	r2, [r1, #116]
 235 030c 6C3081E5 		str	r3, [r1, #108]
 236              	.L20:
 237 0310 7040DDE5 		ldrb	r4, [sp, #112]	@ zero_extendqisi2
 238 0314 000054E3 		cmp	r4, #0
 239 0318 3201000A 		beq	.L54
 240 031c 0070A0E3 		mov	r7, #0
 241 0320 70308DE2 		add	r3, sp, #112
 242              	.L25:
 243 0324 200054E3 		cmp	r4, #32
 244 0328 0140F3E5 		ldrb	r4, [r3, #1]!	@ zero_extendqisi2
 245 032c 01708702 		addeq	r7, r7, #1
 246 0330 000054E3 		cmp	r4, #0
 247 0334 FAFFFF1A 		bne	.L25
 248 0338 033047E2 		sub	r3, r7, #3
 249 033c 020053E3 		cmp	r3, #2
 250 0340 2801008A 		bhi	.L54
 251 0344 10309DE5 		ldr	r3, [sp, #16]
 252 0348 030057E3 		cmp	r7, #3
 253 034c 7B00000A 		beq	.L96
 254 0350 040057E3 		cmp	r7, #4
 255 0354 D200000A 		beq	.L97
 256 0358 000053E3 		cmp	r3, #0
 257 035c CB00000A 		beq	.L98
 258              	.L59:
 259 0360 40B08DE5 		str	fp, [sp, #64]
 260 0364 003000E3 		movw	r3, #:lower16:.LC6
 261 0368 003040E3 		movt	r3, #:upper16:.LC6
 262 036c 002000E3 		movw	r2, #:lower16:.LC7
 263 0370 20308DE5 		str	r3, [sp, #32]
 264 0374 003000E3 		movw	r3, #:lower16:.LC8
 265 0378 002040E3 		movt	r2, #:upper16:.LC7
 266 037c 70508DE2 		add	r5, sp, #112
 267 0380 003040E3 		movt	r3, #:upper16:.LC8
 268 0384 64A08DE2 		add	r10, sp, #100
 269 0388 28208DE5 		str	r2, [sp, #40]
 270 038c 68208DE2 		add	r2, sp, #104
 271 0390 3C308DE5 		str	r3, [sp, #60]
 272 0394 6C308DE2 		add	r3, sp, #108
 273 0398 44808DE5 		str	r8, [sp, #68]
 274 039c 02B0A0E1 		mov	fp, r2
 275 03a0 48908DE5 		str	r9, [sp, #72]
 276 03a4 0380A0E1 		mov	r8, r3
 277 03a8 4C608DE5 		str	r6, [sp, #76]
 278 03ac 24909DE5 		ldr	r9, [sp, #36]
 279 03b0 30609DE5 		ldr	r6, [sp, #48]
 280              	.L45:
 281 03b4 0500A0E1 		mov	r0, r5
 282 03b8 2010A0E3 		mov	r1, #32
 283 03bc FEFFFFEB 		bl	strchr
 284 03c0 00808DE5 		str	r8, [sp]
 285 03c4 015080E2 		add	r5, r0, #1
ARM GAS  C:\Users\ldebo\AppData\Local\Temp\ccrazFu5.s 			page 6


 286 03c8 20109DE5 		ldr	r1, [sp, #32]
 287 03cc 0500A0E1 		mov	r0, r5
 288 03d0 0B30A0E1 		mov	r3, fp
 289 03d4 0A20A0E1 		mov	r2, r10
 290 03d8 FEFFFFEB 		bl	sscanf
 291 03dc 030050E3 		cmp	r0, #3
 292 03e0 1200000A 		beq	.L31
 293 03e4 28109DE5 		ldr	r1, [sp, #40]
 294 03e8 0830A0E1 		mov	r3, r8
 295 03ec 0A20A0E1 		mov	r2, r10
 296 03f0 0500A0E1 		mov	r0, r5
 297 03f4 FEFFFFEB 		bl	sscanf
 298 03f8 020050E3 		cmp	r0, #2
 299 03fc 0B00000A 		beq	.L31
 300 0400 3C109DE5 		ldr	r1, [sp, #60]
 301 0404 0B30A0E1 		mov	r3, fp
 302 0408 0A20A0E1 		mov	r2, r10
 303 040c 0500A0E1 		mov	r0, r5
 304 0410 FEFFFFEB 		bl	sscanf
 305 0414 020050E3 		cmp	r0, #2
 306 0418 0400000A 		beq	.L31
 307 041c 001000E3 		movw	r1, #:lower16:.LC9
 308 0420 0A20A0E1 		mov	r2, r10
 309 0424 001040E3 		movt	r1, #:upper16:.LC9
 310 0428 0500A0E1 		mov	r0, r5
 311 042c FEFFFFEB 		bl	sscanf
 312              	.L31:
 313 0430 64309DE5 		ldr	r3, [sp, #100]
 314 0434 012044E2 		sub	r2, r4, #1
 315 0438 013043E2 		sub	r3, r3, #1
 316 043c 64308DE5 		str	r3, [sp, #100]
 317 0440 030052E3 		cmp	r2, #3
 318 0444 02F19F97 		ldrls	pc, [pc, r2, asl #2]
 319 0448 1F0000EA 		b	.L33
 320              	.L35:
 321 044c E8040000 		.word	.L34
 322 0450 B0040000 		.word	.L36
 323 0454 5C040000 		.word	.L37
 324 0458 00050000 		.word	.L38
 325              	.L37:
 326 045c 102099E5 		ldr	r2, [r9, #16]
 327 0460 036086E2 		add	r6, r6, #3
 328 0464 38308DE5 		str	r3, [sp, #56]
 329 0468 030052E1 		cmp	r2, r3
 330 046c 2C20DDE5 		ldrb	r2, [sp, #44]	@ zero_extendqisi2
 331 0470 10308935 		strcc	r3, [r9, #16]
 332 0474 032046E5 		strb	r2, [r6, #-3]
 333 0478 3420DDE5 		ldrb	r2, [sp, #52]	@ zero_extendqisi2
 334 047c 013046E5 		strb	r3, [r6, #-1]
 335 0480 022046E5 		strb	r2, [r6, #-2]
 336              	.L40:
 337 0484 014084E2 		add	r4, r4, #1
 338 0488 040057E1 		cmp	r7, r4
 339 048c C8FFFF1A 		bne	.L45
 340 0490 48909DE5 		ldr	r9, [sp, #72]
 341 0494 30608DE5 		str	r6, [sp, #48]
 342 0498 40B09DE5 		ldr	fp, [sp, #64]
ARM GAS  C:\Users\ldebo\AppData\Local\Temp\ccrazFu5.s 			page 7


 343 049c 000059E3 		cmp	r9, #0
 344 04a0 44809DE5 		ldr	r8, [sp, #68]
 345 04a4 4C609DE5 		ldr	r6, [sp, #76]
 346 04a8 F5FEFF1A 		bne	.L46
 347 04ac 2EFFFFEA 		b	.L99
 348              	.L36:
 349 04b0 102099E5 		ldr	r2, [r9, #16]
 350 04b4 016086E2 		add	r6, r6, #1
 351 04b8 34308DE5 		str	r3, [sp, #52]
 352 04bc 030052E1 		cmp	r2, r3
 353 04c0 10308935 		strcc	r3, [r9, #16]
 354 04c4 013046E5 		strb	r3, [r6, #-1]
 355 04c8 EDFFFFEA 		b	.L40
 356              	.L33:
 357 04cc 102099E5 		ldr	r2, [r9, #16]
 358 04d0 016086E2 		add	r6, r6, #1
 359 04d4 2C308DE5 		str	r3, [sp, #44]
 360 04d8 030052E1 		cmp	r2, r3
 361 04dc 10308935 		strcc	r3, [r9, #16]
 362 04e0 013046E5 		strb	r3, [r6, #-1]
 363 04e4 E6FFFFEA 		b	.L40
 364              	.L34:
 365 04e8 102099E5 		ldr	r2, [r9, #16]
 366 04ec 016086E2 		add	r6, r6, #1
 367 04f0 030052E1 		cmp	r2, r3
 368 04f4 10308935 		strcc	r3, [r9, #16]
 369 04f8 013046E5 		strb	r3, [r6, #-1]
 370 04fc E0FFFFEA 		b	.L40
 371              	.L38:
 372 0500 102099E5 		ldr	r2, [r9, #16]
 373 0504 036086E2 		add	r6, r6, #3
 374 0508 030052E1 		cmp	r2, r3
 375 050c 10308935 		strcc	r3, [r9, #16]
 376 0510 2C30DDE5 		ldrb	r3, [sp, #44]	@ zero_extendqisi2
 377 0514 033046E5 		strb	r3, [r6, #-3]
 378 0518 3830DDE5 		ldrb	r3, [sp, #56]	@ zero_extendqisi2
 379 051c 023046E5 		strb	r3, [r6, #-2]
 380 0520 64309DE5 		ldr	r3, [sp, #100]
 381 0524 013046E5 		strb	r3, [r6, #-1]
 382 0528 D5FFFFEA 		b	.L40
 383              	.L17:
 384 052c 000000E3 		movw	r0, #:lower16:.LC5
 385 0530 70108DE2 		add	r1, sp, #112
 386 0534 000040E3 		movt	r0, #:upper16:.LC5
 387 0538 FEFFFFEB 		bl	printf
 388 053c 08FFFFEA 		b	.L8
 389              	.L96:
 390 0540 000053E3 		cmp	r3, #0
 391 0544 85FFFF1A 		bne	.L59
 392 0548 24209DE5 		ldr	r2, [sp, #36]
 393 054c 783092E5 		ldr	r3, [r2, #120]
 394 0550 013083E2 		add	r3, r3, #1
 395 0554 783082E5 		str	r3, [r2, #120]
 396 0558 01FFFFEA 		b	.L8
 397              	.L21:
 398 055c 001000E3 		movw	r1, #:lower16:.LC8
 399 0560 0730A0E1 		mov	r3, r7
ARM GAS  C:\Users\ldebo\AppData\Local\Temp\ccrazFu5.s 			page 8


 400 0564 001040E3 		movt	r1, #:upper16:.LC8
 401 0568 50208DE2 		add	r2, sp, #80
 402 056c 0400A0E1 		mov	r0, r4
 403 0570 FEFFFFEB 		bl	sscanf
 404 0574 020050E3 		cmp	r0, #2
 405 0578 3900000A 		beq	.L100
 406 057c 001000E3 		movw	r1, #:lower16:.LC9
 407 0580 50208DE2 		add	r2, sp, #80
 408 0584 001040E3 		movt	r1, #:upper16:.LC9
 409 0588 0400A0E1 		mov	r0, r4
 410 058c FEFFFFEB 		bl	sscanf
 411 0590 010050E3 		cmp	r0, #1
 412 0594 4900001A 		bne	.L23
 413 0598 10109DE5 		ldr	r1, [sp, #16]
 414 059c 000051E3 		cmp	r1, #0
 415 05a0 5AFFFF1A 		bne	.L20
 416 05a4 24209DE5 		ldr	r2, [sp, #36]
 417 05a8 6C3092E5 		ldr	r3, [r2, #108]
 418 05ac 701082E5 		str	r1, [r2, #112]
 419 05b0 741082E5 		str	r1, [r2, #116]
 420 05b4 013083E2 		add	r3, r3, #1
 421 05b8 6C3082E5 		str	r3, [r2, #108]
 422 05bc 53FFFFEA 		b	.L20
 423              	.L93:
 424 05c0 10309DE5 		ldr	r3, [sp, #16]
 425 05c4 000053E3 		cmp	r3, #0
 426 05c8 24209D05 		ldreq	r2, [sp, #36]
 427 05cc 64309205 		ldreq	r3, [r2, #100]
 428 05d0 01308302 		addeq	r3, r3, #1
 429 05d4 64308205 		streq	r3, [r2, #100]
 430 05d8 E1FEFFEA 		b	.L8
 431              	.L92:
 432 05dc 6C308DE2 		add	r3, sp, #108
 433 05e0 64A08DE2 		add	r10, sp, #100
 434 05e4 04308DE5 		str	r3, [sp, #4]
 435 05e8 72408DE2 		add	r4, sp, #114
 436 05ec 68308DE2 		add	r3, sp, #104
 437 05f0 001000E3 		movw	r1, #:lower16:.LC2
 438 05f4 00308DE5 		str	r3, [sp]
 439 05f8 0370A0E1 		mov	r7, r3
 440 05fc 001040E3 		movt	r1, #:upper16:.LC2
 441 0600 0A30A0E1 		mov	r3, r10
 442 0604 60208DE2 		add	r2, sp, #96
 443 0608 0400A0E1 		mov	r0, r4
 444 060c FEFFFFEB 		bl	sscanf
 445 0610 040050E3 		cmp	r0, #4
 446 0614 0A00000A 		beq	.L12
 447 0618 00708DE5 		str	r7, [sp]
 448 061c 001000E3 		movw	r1, #:lower16:.LC3
 449 0620 001040E3 		movt	r1, #:upper16:.LC3
 450 0624 0A30A0E1 		mov	r3, r10
 451 0628 60208DE2 		add	r2, sp, #96
 452 062c 0400A0E1 		mov	r0, r4
 453 0630 FEFFFFEB 		bl	sscanf
 454 0634 030050E3 		cmp	r0, #3
 455 0638 7200001A 		bne	.L101
 456 063c 007AF7EE 		vmov.f32	s15, #1.0e+0
ARM GAS  C:\Users\ldebo\AppData\Local\Temp\ccrazFu5.s 			page 9


 457 0640 1B7ACDED 		vstr.32	s15, [sp, #108]
 458              	.L12:
 459 0644 10309DE5 		ldr	r3, [sp, #16]
 460 0648 000053E3 		cmp	r3, #0
 461 064c 1F00001A 		bne	.L14
 462 0650 24209DE5 		ldr	r2, [sp, #36]
 463 0654 603092E5 		ldr	r3, [r2, #96]
 464 0658 013083E2 		add	r3, r3, #1
 465 065c 603082E5 		str	r3, [r2, #96]
 466 0660 BFFEFFEA 		b	.L8
 467              	.L100:
 468 0664 10009DE5 		ldr	r0, [sp, #16]
 469 0668 000050E3 		cmp	r0, #0
 470 066c 27FFFF1A 		bne	.L20
 471 0670 24109DE5 		ldr	r1, [sp, #36]
 472 0674 0120A0E3 		mov	r2, #1
 473 0678 6C3091E5 		ldr	r3, [r1, #108]
 474 067c 740081E5 		str	r0, [r1, #116]
 475 0680 023083E0 		add	r3, r3, r2
 476 0684 702081E5 		str	r2, [r1, #112]
 477 0688 6C3081E5 		str	r3, [r1, #108]
 478 068c 1FFFFFEA 		b	.L20
 479              	.L98:
 480 0690 24209DE5 		ldr	r2, [sp, #36]
 481 0694 803092E5 		ldr	r3, [r2, #128]
 482 0698 013083E2 		add	r3, r3, #1
 483 069c 803082E5 		str	r3, [r2, #128]
 484 06a0 AFFEFFEA 		b	.L8
 485              	.L97:
 486 06a4 000053E3 		cmp	r3, #0
 487 06a8 2CFFFF1A 		bne	.L59
 488 06ac 24209DE5 		ldr	r2, [sp, #36]
 489 06b0 7C3092E5 		ldr	r3, [r2, #124]
 490 06b4 013083E2 		add	r3, r3, #1
 491 06b8 7C3082E5 		str	r3, [r2, #124]
 492 06bc A8FEFFEA 		b	.L8
 493              	.L23:
 494 06c0 000000E3 		movw	r0, #:lower16:.LC10
 495 06c4 000040E3 		movt	r0, #:upper16:.LC10
 496 06c8 FEFFFFEB 		bl	printf
 497 06cc 0FFFFFEA 		b	.L20
 498              	.L14:
 499 06d0 60209DE5 		ldr	r2, [sp, #96]	@ float
 500 06d4 0030A0E3 		mov	r3, #0
 501 06d8 18C09DE5 		ldr	ip, [sp, #24]
 502 06dc 5214E7E7 		ubfx	r1, r2, #8, #8
 503 06e0 0020CCE5 		strb	r2, [ip]
 504 06e4 0110CCE5 		strb	r1, [ip, #1]
 505 06e8 5218E7E7 		ubfx	r1, r2, #16, #8
 506 06ec 222CA0E1 		lsr	r2, r2, #24
 507 06f0 0210CCE5 		strb	r1, [ip, #2]
 508 06f4 3F10A0E3 		mov	r1, #63
 509 06f8 0320CCE5 		strb	r2, [ip, #3]
 510 06fc 64209DE5 		ldr	r2, [sp, #100]	@ float
 511 0700 5204E7E7 		ubfx	r0, r2, #8, #8
 512 0704 0420CCE5 		strb	r2, [ip, #4]
 513 0708 0500CCE5 		strb	r0, [ip, #5]
ARM GAS  C:\Users\ldebo\AppData\Local\Temp\ccrazFu5.s 			page 10


 514 070c 5208E7E7 		ubfx	r0, r2, #16, #8
 515 0710 222CA0E1 		lsr	r2, r2, #24
 516 0714 0600CCE5 		strb	r0, [ip, #6]
 517 0718 0720CCE5 		strb	r2, [ip, #7]
 518 071c 68209DE5 		ldr	r2, [sp, #104]	@ float
 519 0720 5204E7E7 		ubfx	r0, r2, #8, #8
 520 0724 0820CCE5 		strb	r2, [ip, #8]
 521 0728 0900CCE5 		strb	r0, [ip, #9]
 522 072c 5208E7E7 		ubfx	r0, r2, #16, #8
 523 0730 222CA0E1 		lsr	r2, r2, #24
 524 0734 0A00CCE5 		strb	r0, [ip, #10]
 525 0738 0B20CCE5 		strb	r2, [ip, #11]
 526 073c 0C208CE2 		add	r2, ip, #12
 527 0740 18208DE5 		str	r2, [sp, #24]
 528 0744 6C209DE5 		ldr	r2, [sp, #108]	@ float
 529 0748 1CC09DE5 		ldr	ip, [sp, #28]
 530 074c 5204E7E7 		ubfx	r0, r2, #8, #8
 531 0750 0C30CCE5 		strb	r3, [ip, #12]
 532 0754 0820CCE5 		strb	r2, [ip, #8]
 533 0758 0900CCE5 		strb	r0, [ip, #9]
 534 075c 0D30CCE5 		strb	r3, [ip, #13]
 535 0760 5208E7E7 		ubfx	r0, r2, #16, #8
 536 0764 0E30CCE5 		strb	r3, [ip, #14]
 537 0768 1030CCE5 		strb	r3, [ip, #16]
 538 076c 1130CCE5 		strb	r3, [ip, #17]
 539 0770 1230CCE5 		strb	r3, [ip, #18]
 540 0774 1430CCE5 		strb	r3, [ip, #20]
 541 0778 1530CCE5 		strb	r3, [ip, #21]
 542 077c 1630CCE5 		strb	r3, [ip, #22]
 543 0780 18308CE2 		add	r3, ip, #24
 544 0784 222CA0E1 		lsr	r2, r2, #24
 545 0788 0A00CCE5 		strb	r0, [ip, #10]
 546 078c 0B20CCE5 		strb	r2, [ip, #11]
 547 0790 0F10CCE5 		strb	r1, [ip, #15]
 548 0794 1310CCE5 		strb	r1, [ip, #19]
 549 0798 1710CCE5 		strb	r1, [ip, #23]
 550 079c 1C308DE5 		str	r3, [sp, #28]
 551 07a0 6FFEFFEA 		b	.L8
 552              	.L48:
 553 07a4 000000E3 		movw	r0, #:lower16:.LC12
 554 07a8 0050A0E3 		mov	r5, #0
 555 07ac 000040E3 		movt	r0, #:upper16:.LC12
 556 07b0 FEFFFFEB 		bl	printf
 557 07b4 64109AE5 		ldr	r1, [r10, #100]
 558 07b8 000000E3 		movw	r0, #:lower16:.LC13
 559 07bc 000040E3 		movt	r0, #:upper16:.LC13
 560 07c0 FEFFFFEB 		bl	printf
 561 07c4 68109AE5 		ldr	r1, [r10, #104]
 562 07c8 000000E3 		movw	r0, #:lower16:.LC14
 563 07cc 000040E3 		movt	r0, #:upper16:.LC14
 564 07d0 FEFFFFEB 		bl	printf
 565 07d4 1FFEFFEA 		b	.L88
 566              	.L94:
 567 07d8 000000E3 		movw	r0, #:lower16:.LC15
 568 07dc 000040E3 		movt	r0, #:upper16:.LC15
 569 07e0 FEFFFFEB 		bl	printf
 570 07e4 1BFEFFEA 		b	.L88
ARM GAS  C:\Users\ldebo\AppData\Local\Temp\ccrazFu5.s 			page 11


 571              	.L54:
 572 07e8 003000E3 		movw	r3, #:lower16:_impure_ptr
 573 07ec 001000E3 		movw	r1, #:lower16:.LC11
 574 07f0 003040E3 		movt	r3, #:upper16:_impure_ptr
 575 07f4 001040E3 		movt	r1, #:upper16:.LC11
 576 07f8 003093E5 		ldr	r3, [r3]
 577 07fc 0C0093E5 		ldr	r0, [r3, #12]
 578 0800 FEFFFFEB 		bl	fprintf
 579 0804 13FEFFEA 		b	.L88
 580              	.L101:
 581 0808 003000E3 		movw	r3, #:lower16:_impure_ptr
 582 080c 001000E3 		movw	r1, #:lower16:.LC4
 583 0810 003040E3 		movt	r3, #:upper16:_impure_ptr
 584 0814 001040E3 		movt	r1, #:upper16:.LC4
 585 0818 003093E5 		ldr	r3, [r3]
 586 081c 0C0093E5 		ldr	r0, [r3, #12]
 587 0820 FEFFFFEB 		bl	fprintf
 588 0824 0BFEFFEA 		b	.L88
 589              		.size	ParseWaveFrontMesh, .-ParseWaveFrontMesh
 590              		.align	2
 591              		.global	XRotationMatrix3D
 592              		.syntax unified
 593              		.arm
 594              		.fpu neon
 595              		.type	XRotationMatrix3D, %function
 596              	XRotationMatrix3D:
 597              		@ args = 0, pretend = 0, frame = 0
 598              		@ frame_needed = 0, uses_anonymous_args = 0
 599 0828 10402DE9 		push	{r4, lr}
 600 082c 0040A0E1 		mov	r4, r0
 601 0830 028B2DED 		vpush.64	{d8}
 602 0834 408AF0EE 		vmov.f32	s17, s0
 603 0838 FEFFFFEB 		bl	sinf
 604 083c 408AB0EE 		vmov.f32	s16, s0
 605 0840 680AB0EE 		vmov.f32	s0, s17
 606 0844 FEFFFFEB 		bl	cosf
 607 0848 487AF1EE 		vneg.f32	s15, s16
 608 084c 00C000E3 		movw	ip, #:lower16:.LANCHOR0
 609 0850 00C040E3 		movt	ip, #:upper16:.LANCHOR0
 610 0854 04E0A0E1 		mov	lr, r4
 611 0858 0F00BCE8 		ldmia	ip!, {r0, r1, r2, r3}
 612 085c 0F00AEE8 		stmia	lr!, {r0, r1, r2, r3}
 613 0860 0F00BCE8 		ldmia	ip!, {r0, r1, r2, r3}
 614 0864 0F00AEE8 		stmia	lr!, {r0, r1, r2, r3}
 615 0868 0F00BCE8 		ldmia	ip!, {r0, r1, r2, r3}
 616 086c 0F00AEE8 		stmia	lr!, {r0, r1, r2, r3}
 617 0870 0F009CE8 		ldm	ip, {r0, r1, r2, r3}
 618 0874 0F008EE8 		stm	lr, {r0, r1, r2, r3}
 619 0878 0400A0E1 		mov	r0, r4
 620 087c 050A84ED 		vstr.32	s0, [r4, #20]
 621 0880 098A84ED 		vstr.32	s16, [r4, #36]
 622 0884 028BBDEC 		vldm	sp!, {d8}
 623 0888 067AC4ED 		vstr.32	s15, [r4, #24]
 624 088c 0A0A84ED 		vstr.32	s0, [r4, #40]
 625 0890 1080BDE8 		pop	{r4, pc}
 626              		.size	XRotationMatrix3D, .-XRotationMatrix3D
 627              		.align	2
ARM GAS  C:\Users\ldebo\AppData\Local\Temp\ccrazFu5.s 			page 12


 628              		.global	YRotationMatrix3D
 629              		.syntax unified
 630              		.arm
 631              		.fpu neon
 632              		.type	YRotationMatrix3D, %function
 633              	YRotationMatrix3D:
 634              		@ args = 0, pretend = 0, frame = 0
 635              		@ frame_needed = 0, uses_anonymous_args = 0
 636 0894 10402DE9 		push	{r4, lr}
 637 0898 0040A0E1 		mov	r4, r0
 638 089c 028B2DED 		vpush.64	{d8}
 639 08a0 408AF0EE 		vmov.f32	s17, s0
 640 08a4 FEFFFFEB 		bl	sinf
 641 08a8 408AB0EE 		vmov.f32	s16, s0
 642 08ac 680AB0EE 		vmov.f32	s0, s17
 643 08b0 FEFFFFEB 		bl	cosf
 644 08b4 487AF1EE 		vneg.f32	s15, s16
 645 08b8 00C000E3 		movw	ip, #:lower16:.LANCHOR0
 646 08bc 00C040E3 		movt	ip, #:upper16:.LANCHOR0
 647 08c0 04E0A0E1 		mov	lr, r4
 648 08c4 0F00BCE8 		ldmia	ip!, {r0, r1, r2, r3}
 649 08c8 0F00AEE8 		stmia	lr!, {r0, r1, r2, r3}
 650 08cc 0F00BCE8 		ldmia	ip!, {r0, r1, r2, r3}
 651 08d0 0F00AEE8 		stmia	lr!, {r0, r1, r2, r3}
 652 08d4 0F00BCE8 		ldmia	ip!, {r0, r1, r2, r3}
 653 08d8 0F00AEE8 		stmia	lr!, {r0, r1, r2, r3}
 654 08dc 0F009CE8 		ldm	ip, {r0, r1, r2, r3}
 655 08e0 0F008EE8 		stm	lr, {r0, r1, r2, r3}
 656 08e4 0400A0E1 		mov	r0, r4
 657 08e8 000A84ED 		vstr.32	s0, [r4]
 658 08ec 088A84ED 		vstr.32	s16, [r4, #32]
 659 08f0 028BBDEC 		vldm	sp!, {d8}
 660 08f4 027AC4ED 		vstr.32	s15, [r4, #8]
 661 08f8 0A0A84ED 		vstr.32	s0, [r4, #40]
 662 08fc 1080BDE8 		pop	{r4, pc}
 663              		.size	YRotationMatrix3D, .-YRotationMatrix3D
 664              		.align	2
 665              		.global	ZRotationMatrix3D
 666              		.syntax unified
 667              		.arm
 668              		.fpu neon
 669              		.type	ZRotationMatrix3D, %function
 670              	ZRotationMatrix3D:
 671              		@ args = 0, pretend = 0, frame = 0
 672              		@ frame_needed = 0, uses_anonymous_args = 0
 673 0900 10402DE9 		push	{r4, lr}
 674 0904 0040A0E1 		mov	r4, r0
 675 0908 028B2DED 		vpush.64	{d8}
 676 090c 408AF0EE 		vmov.f32	s17, s0
 677 0910 FEFFFFEB 		bl	sinf
 678 0914 408AB0EE 		vmov.f32	s16, s0
 679 0918 680AB0EE 		vmov.f32	s0, s17
 680 091c FEFFFFEB 		bl	cosf
 681 0920 487AF1EE 		vneg.f32	s15, s16
 682 0924 00C000E3 		movw	ip, #:lower16:.LANCHOR0
 683 0928 00C040E3 		movt	ip, #:upper16:.LANCHOR0
 684 092c 04E0A0E1 		mov	lr, r4
ARM GAS  C:\Users\ldebo\AppData\Local\Temp\ccrazFu5.s 			page 13


 685 0930 0F00BCE8 		ldmia	ip!, {r0, r1, r2, r3}
 686 0934 0F00AEE8 		stmia	lr!, {r0, r1, r2, r3}
 687 0938 0F00BCE8 		ldmia	ip!, {r0, r1, r2, r3}
 688 093c 0F00AEE8 		stmia	lr!, {r0, r1, r2, r3}
 689 0940 0F00BCE8 		ldmia	ip!, {r0, r1, r2, r3}
 690 0944 0F00AEE8 		stmia	lr!, {r0, r1, r2, r3}
 691 0948 0F009CE8 		ldm	ip, {r0, r1, r2, r3}
 692 094c 0F008EE8 		stm	lr, {r0, r1, r2, r3}
 693 0950 0400A0E1 		mov	r0, r4
 694 0954 000A84ED 		vstr.32	s0, [r4]
 695 0958 048A84ED 		vstr.32	s16, [r4, #16]
 696 095c 028BBDEC 		vldm	sp!, {d8}
 697 0960 017AC4ED 		vstr.32	s15, [r4, #4]
 698 0964 050A84ED 		vstr.32	s0, [r4, #20]
 699 0968 1080BDE8 		pop	{r4, pc}
 700              		.size	ZRotationMatrix3D, .-ZRotationMatrix3D
 701              		.align	2
 702              		.global	MultiplyMatrix3D
 703              		.syntax unified
 704              		.arm
 705              		.fpu neon
 706              		.type	MultiplyMatrix3D, %function
 707              	MultiplyMatrix3D:
 708              		@ args = 132, pretend = 16, frame = 0
 709              		@ frame_needed = 0, uses_anonymous_args = 0
 710 096c 10D04DE2 		sub	sp, sp, #16
 711 0970 00C000E3 		movw	ip, #:lower16:.LANCHOR0
 712 0974 00C040E3 		movt	ip, #:upper16:.LANCHOR0
 713 0978 10402DE9 		push	{r4, lr}
 714 097c 0040A0E1 		mov	r4, r0
 715 0980 0C8B2DED 		vpush.64	{d8, d9, d10, d11, d12, d13}
 716 0984 3CE08DE2 		add	lr, sp, #60
 717 0988 0E008EE8 		stm	lr, {r1, r2, r3}
 718 098c 0F00BCE8 		ldmia	ip!, {r0, r1, r2, r3}
 719 0990 04E0A0E1 		mov	lr, r4
 720 0994 0F00AEE8 		stmia	lr!, {r0, r1, r2, r3}
 721 0998 0F00BCE8 		ldmia	ip!, {r0, r1, r2, r3}
 722 099c 0F00AEE8 		stmia	lr!, {r0, r1, r2, r3}
 723 09a0 0F00BCE8 		ldmia	ip!, {r0, r1, r2, r3}
 724 09a4 0F00AEE8 		stmia	lr!, {r0, r1, r2, r3}
 725 09a8 0F009CE8 		ldm	ip, {r0, r1, r2, r3}
 726 09ac 235ADDED 		vldr.32	s11, [sp, #140]
 727 09b0 106ADDED 		vldr.32	s13, [sp, #64]
 728 09b4 248ADDED 		vldr.32	s17, [sp, #144]
 729 09b8 261ADDED 		vldr.32	s3, [sp, #152]
 730 09bc 257A9DED 		vldr.32	s14, [sp, #148]
 731 09c0 143ADDED 		vldr.32	s7, [sp, #80]
 732 09c4 A66A25EE 		vmul.f32	s12, s11, s13
 733 09c8 0F7ADDED 		vldr.32	s15, [sp, #60]
 734 09cc 1FBADDED 		vldr.32	s23, [sp, #124]
 735 09d0 A65A28EE 		vmul.f32	s10, s17, s13
 736 09d4 26DA67EE 		vmul.f32	s27, s14, s13
 737 09d8 87CA63EE 		vmul.f32	s25, s7, s14
 738 09dc A66A61EE 		vmul.f32	s13, s3, s13
 739 09e0 134ADDED 		vldr.32	s9, [sp, #76]
 740 09e4 20BA9DED 		vldr.32	s22, [sp, #128]
 741 09e8 21AADDED 		vldr.32	s21, [sp, #132]
ARM GAS  C:\Users\ldebo\AppData\Local\Temp\ccrazFu5.s 			page 14


 742 09ec 22AA9DED 		vldr.32	s20, [sp, #136]
 743 09f0 A8DA23EE 		vmul.f32	s26, s7, s17
 744 09f4 A76A0BEE 		vmla.f32	s12, s23, s15
 745 09f8 279ADDED 		vldr.32	s19, [sp, #156]
 746 09fc 275A0BEE 		vmla.f32	s10, s22, s15
 747 0a00 A7DA4AEE 		vmla.f32	s27, s21, s15
 748 0a04 276A4AEE 		vmla.f32	s13, s20, s15
 749 0a08 AACA44EE 		vmla.f32	s25, s9, s21
 750 0a0c 117ADDED 		vldr.32	s15, [sp, #68]
 751 0a10 2A2ADDED 		vldr.32	s5, [sp, #168]
 752 0a14 289A9DED 		vldr.32	s18, [sp, #160]
 753 0a18 298A9DED 		vldr.32	s16, [sp, #164]
 754 0a1c 15CA9DED 		vldr.32	s24, [sp, #84]
 755 0a20 8BDA04EE 		vmla.f32	s26, s9, s22
 756 0a24 A76A09EE 		vmla.f32	s12, s19, s15
 757 0a28 2B0ADDED 		vldr.32	s1, [sp, #172]
 758 0a2c 275A09EE 		vmla.f32	s10, s18, s15
 759 0a30 27DA48EE 		vmla.f32	s27, s16, s15
 760 0a34 A76A42EE 		vmla.f32	s13, s5, s15
 761 0a38 08CA4CEE 		vmla.f32	s25, s24, s16
 762 0a3c 127ADDED 		vldr.32	s15, [sp, #72]
 763 0a40 A54A23EE 		vmul.f32	s8, s7, s11
 764 0a44 A76A00EE 		vmla.f32	s12, s1, s15
 765 0a48 09DA0CEE 		vmla.f32	s26, s24, s18
 766 0a4c 2C1A9DED 		vldr.32	s2, [sp, #176]
 767 0a50 2D2A9DED 		vldr.32	s4, [sp, #180]
 768 0a54 2E3A9DED 		vldr.32	s6, [sp, #184]
 769 0a58 AB4A04EE 		vmla.f32	s8, s9, s23
 770 0a5c 275A01EE 		vmla.f32	s10, s2, s15
 771 0a60 27DA42EE 		vmla.f32	s27, s4, s15
 772 0a64 276A43EE 		vmla.f32	s13, s6, s15
 773 0a68 6C7AF0EE 		vmov.f32	s15, s25
 774 0a6c 160A9DED 		vldr.32	s0, [sp, #88]
 775 0a70 006A84ED 		vstr.32	s12, [r4]
 776 0a74 294A0CEE 		vmla.f32	s8, s24, s19
 777 0a78 4D6AB0EE 		vmov.f32	s12, s26
 778 0a7c 027A40EE 		vmla.f32	s15, s0, s4
 779 0a80 A13A63EE 		vmul.f32	s7, s7, s3
 780 0a84 204A00EE 		vmla.f32	s8, s0, s1
 781 0a88 016A00EE 		vmla.f32	s12, s0, s2
 782 0a8c 0F008EE8 		stm	lr, {r0, r1, r2, r3}
 783 0a90 0400A0E1 		mov	r0, r4
 784 0a94 015A84ED 		vstr.32	s10, [r4, #4]
 785 0a98 02DAC4ED 		vstr.32	s27, [r4, #8]
 786 0a9c 036AC4ED 		vstr.32	s13, [r4, #12]
 787 0aa0 186ADDED 		vldr.32	s13, [sp, #96]
 788 0aa4 067AC4ED 		vstr.32	s15, [r4, #24]
 789 0aa8 1C7ADDED 		vldr.32	s15, [sp, #112]
 790 0aac 8A3A44EE 		vmla.f32	s7, s9, s20
 791 0ab0 044A84ED 		vstr.32	s8, [r4, #16]
 792 0ab4 056A84ED 		vstr.32	s12, [r4, #20]
 793 0ab8 A64A25EE 		vmul.f32	s8, s11, s13
 794 0abc A84A66EE 		vmul.f32	s9, s13, s17
 795 0ac0 A86A27EE 		vmul.f32	s12, s15, s17
 796 0ac4 875A26EE 		vmul.f32	s10, s13, s14
 797 0ac8 A55A67EE 		vmul.f32	s11, s15, s11
 798 0acc A16A66EE 		vmul.f32	s13, s13, s3
ARM GAS  C:\Users\ldebo\AppData\Local\Temp\ccrazFu5.s 			page 15


 799 0ad0 877A27EE 		vmul.f32	s14, s15, s14
 800 0ad4 A17A67EE 		vmul.f32	s15, s15, s3
 801 0ad8 178ADDED 		vldr.32	s17, [sp, #92]
 802 0adc 1B1ADDED 		vldr.32	s3, [sp, #108]
 803 0ae0 A84A0BEE 		vmla.f32	s8, s23, s17
 804 0ae4 AB5A41EE 		vmla.f32	s11, s3, s23
 805 0ae8 8B4A48EE 		vmla.f32	s9, s17, s22
 806 0aec 8B6A01EE 		vmla.f32	s12, s3, s22
 807 0af0 AA5A08EE 		vmla.f32	s10, s17, s21
 808 0af4 8A6A48EE 		vmla.f32	s13, s17, s20
 809 0af8 AA7A01EE 		vmla.f32	s14, s3, s21
 810 0afc 8A7A41EE 		vmla.f32	s15, s3, s20
 811 0b00 198ADDED 		vldr.32	s17, [sp, #100]
 812 0b04 1D1ADDED 		vldr.32	s3, [sp, #116]
 813 0b08 223A4CEE 		vmla.f32	s7, s24, s5
 814 0b0c A95A41EE 		vmla.f32	s11, s3, s19
 815 0b10 896A01EE 		vmla.f32	s12, s3, s18
 816 0b14 A26A48EE 		vmla.f32	s13, s17, s5
 817 0b18 887A01EE 		vmla.f32	s14, s3, s16
 818 0b1c A27A41EE 		vmla.f32	s15, s3, s5
 819 0b20 A84A09EE 		vmla.f32	s8, s19, s17
 820 0b24 284A49EE 		vmla.f32	s9, s18, s17
 821 0b28 885A08EE 		vmla.f32	s10, s17, s16
 822 0b2c 1A1ADDED 		vldr.32	s3, [sp, #104]
 823 0b30 1E2ADDED 		vldr.32	s5, [sp, #120]
 824 0b34 033A40EE 		vmla.f32	s7, s0, s6
 825 0b38 A14A00EE 		vmla.f32	s8, s1, s3
 826 0b3c A05A42EE 		vmla.f32	s11, s5, s1
 827 0b40 214A41EE 		vmla.f32	s9, s2, s3
 828 0b44 816A02EE 		vmla.f32	s12, s5, s2
 829 0b48 825A01EE 		vmla.f32	s10, s3, s4
 830 0b4c 836A41EE 		vmla.f32	s13, s3, s6
 831 0b50 827A02EE 		vmla.f32	s14, s5, s4
 832 0b54 837A42EE 		vmla.f32	s15, s5, s6
 833 0b58 073AC4ED 		vstr.32	s7, [r4, #28]
 834 0b5c 084A84ED 		vstr.32	s8, [r4, #32]
 835 0b60 0C5AC4ED 		vstr.32	s11, [r4, #48]
 836 0b64 094AC4ED 		vstr.32	s9, [r4, #36]
 837 0b68 0D6A84ED 		vstr.32	s12, [r4, #52]
 838 0b6c 0A5A84ED 		vstr.32	s10, [r4, #40]
 839 0b70 0B6AC4ED 		vstr.32	s13, [r4, #44]
 840 0b74 0E7A84ED 		vstr.32	s14, [r4, #56]
 841 0b78 0F7AC4ED 		vstr.32	s15, [r4, #60]
 842 0b7c 0C8BBDEC 		vldm	sp!, {d8-d13}
 843 0b80 1040BDE8 		pop	{r4, lr}
 844 0b84 10D08DE2 		add	sp, sp, #16
 845 0b88 1EFF2FE1 		bx	lr
 846              		.size	MultiplyMatrix3D, .-MultiplyMatrix3D
 847              		.align	2
 848              		.global	TransformPoint3D
 849              		.syntax unified
 850              		.arm
 851              		.fpu neon
 852              		.type	TransformPoint3D, %function
 853              	TransformPoint3D:
 854              		@ args = 76, pretend = 16, frame = 0
 855              		@ frame_needed = 0, uses_anonymous_args = 0
ARM GAS  C:\Users\ldebo\AppData\Local\Temp\ccrazFu5.s 			page 16


 856              		@ link register save eliminated.
 857 0b8c 10D04DE2 		sub	sp, sp, #16
 858 0b90 04C04DE2 		sub	ip, sp, #4
 859 0b94 0D7ADDED 		vldr.32	s15, [sp, #52]
 860 0b98 0C6ADDED 		vldr.32	s13, [sp, #48]
 861 0b9c A77A60EE 		vmul.f32	s15, s1, s15
 862 0ba0 0E7A9DED 		vldr.32	s14, [sp, #56]
 863 0ba4 0F008CE9 		stmib	ip, {r0, r1, r2, r3}
 864 0ba8 40108DE2 		add	r1, sp, #64
 865 0bac 267A40EE 		vmla.f32	s15, s0, s13
 866 0bb0 016ADDED 		vldr.32	s13, [sp, #4]
 867 0bb4 0F5ADDED 		vldr.32	s11, [sp, #60]
 868 0bb8 A66A60EE 		vmul.f32	s13, s1, s13
 869 0bbc 077A41EE 		vmla.f32	s15, s2, s14
 870 0bc0 057A9DED 		vldr.32	s14, [sp, #20]
 871 0bc4 096A9DED 		vldr.32	s12, [sp, #36]
 872 0bc8 877A20EE 		vmul.f32	s14, s1, s14
 873 0bcc 004ADDED 		vldr.32	s9, [sp]
 874 0bd0 045A9DED 		vldr.32	s10, [sp, #16]
 875 0bd4 860A60EE 		vmul.f32	s1, s1, s12
 876 0bd8 246A40EE 		vmla.f32	s13, s0, s9
 877 0bdc A57A77EE 		vadd.f32	s15, s15, s11
 878 0be0 006AB7EE 		vmov.f32	s12, #1.0e+0
 879 0be4 085ADDED 		vldr.32	s11, [sp, #32]
 880 0be8 057A00EE 		vmla.f32	s14, s0, s10
 881 0bec 407AF5EE 		vcmp.f32	s15, #0
 882 0bf0 025A9DED 		vldr.32	s10, [sp, #8]
 883 0bf4 250A40EE 		vmla.f32	s1, s0, s11
 884 0bf8 056A41EE 		vmla.f32	s13, s2, s10
 885 0bfc 065ADDED 		vldr.32	s11, [sp, #24]
 886 0c00 10FAF1EE 		vmrs	APSR_nzcv, FPSCR
 887 0c04 467AF4EE 		vcmp.f32	s15, s12
 888 0c08 257A01EE 		vmla.f32	s14, s2, s11
 889 0c0c 0A6A9DED 		vldr.32	s12, [sp, #40]
 890 0c10 035A9DED 		vldr.32	s10, [sp, #12]
 891 0c14 0130A013 		movne	r3, #1
 892 0c18 060A41EE 		vmla.f32	s1, s2, s12
 893 0c1c 0030A003 		moveq	r3, #0
 894 0c20 10FAF1EE 		vmrs	APSR_nzcv, FPSCR
 895 0c24 075ADDED 		vldr.32	s11, [sp, #28]
 896 0c28 856A76EE 		vadd.f32	s13, s13, s10
 897 0c2c 0B6A9DED 		vldr.32	s12, [sp, #44]
 898 0c30 10D08DE2 		add	sp, sp, #16
 899 0c34 257A37EE 		vadd.f32	s14, s14, s11
 900 0c38 0030A003 		moveq	r3, #0
 901 0c3c 01300312 		andne	r3, r3, #1
 902 0c40 000053E3 		cmp	r3, #0
 903 0c44 860A70EE 		vadd.f32	s1, s1, s12
 904 0c48 A76AC61E 		vdivne.f32	s13, s13, s15
 905 0c4c 0E0091E8 		ldm	r1, {r1, r2, r3}
 906 0c50 277A871E 		vdivne.f32	s14, s14, s15
 907 0c54 A70AC01E 		vdivne.f32	s1, s1, s15
 908 0c58 000051E3 		cmp	r1, #0
 909 0c5c 006AC11D 		vstrne.32	s13, [r1]
 910 0c60 000052E3 		cmp	r2, #0
 911 0c64 007A821D 		vstrne.32	s14, [r2]
 912 0c68 000053E3 		cmp	r3, #0
ARM GAS  C:\Users\ldebo\AppData\Local\Temp\ccrazFu5.s 			page 17


 913 0c6c 000AC31D 		vstrne.32	s1, [r3]
 914 0c70 1EFF2FE1 		bx	lr
 915              		.size	TransformPoint3D, .-TransformPoint3D
 916              		.align	2
 917              		.global	InitV3D
 918              		.syntax unified
 919              		.arm
 920              		.fpu neon
 921              		.type	InitV3D, %function
 922              	InitV3D:
 923              		@ args = 0, pretend = 0, frame = 0
 924              		@ frame_needed = 0, uses_anonymous_args = 0
 925 0c74 04E02DE5 		str	lr, [sp, #-4]!
 926 0c78 1220A0E3 		mov	r2, #18
 927 0c7c 032040E3 		movt	r2, 3
 928 0c80 24D04DE2 		sub	sp, sp, #36
 929 0c84 80320BE3 		movw	r3, #45696
 930 0c88 0410A0E3 		mov	r1, #4
 931 0c8c E63E40E3 		movt	r3, 3814
 932 0c90 08C0A0E3 		mov	ip, #8
 933 0c94 0C208DE5 		str	r2, [sp, #12]
 934 0c98 01E0A0E3 		mov	lr, #1
 935 0c9c 08308DE5 		str	r3, [sp, #8]
 936 0ca0 0500A0E3 		mov	r0, #5
 937 0ca4 14108DE5 		str	r1, [sp, #20]
 938 0ca8 022008E3 		movw	r2, #32770
 939 0cac 10108DE5 		str	r1, [sp, #16]
 940 0cb0 0C30A0E1 		mov	r3, ip
 941 0cb4 04008DE5 		str	r0, [sp, #4]
 942 0cb8 0910A0E3 		mov	r1, #9
 943 0cbc 18E08DE5 		str	lr, [sp, #24]
 944 0cc0 0000A0E3 		mov	r0, #0
 945 0cc4 00C08DE5 		str	ip, [sp]
 946 0cc8 032040E3 		movt	r2, 3
 947 0ccc FEFFFFEB 		bl	mailbox_tag_message
 948 0cd0 000050E3 		cmp	r0, #0
 949 0cd4 0900000A 		beq	.L129
 950 0cd8 003000E3 		movw	r3, #:lower16:RPi_IO_Base_Addr
 951 0cdc 562303E3 		movw	r2, #13142
 952 0ce0 003040E3 		movt	r3, #:upper16:RPi_IO_Base_Addr
 953 0ce4 442240E3 		movt	r2, 580
 954 0ce8 003093E5 		ldr	r3, [r3]
 955 0cec 033583E2 		add	r3, r3, #12582912
 956 0cf0 000093E5 		ldr	r0, [r3]
 957 0cf4 020040E0 		sub	r0, r0, r2
 958 0cf8 100F6FE1 		clz	r0, r0
 959 0cfc A002A0E1 		lsr	r0, r0, #5
 960              	.L129:
 961 0d00 24D08DE2 		add	sp, sp, #36
 962              		@ sp needed
 963 0d04 04F09DE4 		ldr	pc, [sp], #4
 964              		.size	InitV3D, .-InitV3D
 965              		.align	2
 966              		.global	V3D_mem_alloc
 967              		.syntax unified
 968              		.arm
 969              		.fpu neon
ARM GAS  C:\Users\ldebo\AppData\Local\Temp\ccrazFu5.s 			page 18


 970              		.type	V3D_mem_alloc, %function
 971              	V3D_mem_alloc:
 972              		@ args = 0, pretend = 0, frame = 24
 973              		@ frame_needed = 0, uses_anonymous_args = 0
 974 0d08 04E02DE5 		str	lr, [sp, #-4]!
 975 0d0c 2CD04DE2 		sub	sp, sp, #44
 976 0d10 0CC0A0E3 		mov	ip, #12
 977 0d14 0C208DE5 		str	r2, [sp, #12]
 978 0d18 0C20A0E1 		mov	r2, ip
 979 0d1c 08108DE5 		str	r1, [sp, #8]
 980 0d20 0C30A0E1 		mov	r3, ip
 981 0d24 04008DE5 		str	r0, [sp, #4]
 982 0d28 0610A0E3 		mov	r1, #6
 983 0d2c 00C08DE5 		str	ip, [sp]
 984 0d30 10008DE2 		add	r0, sp, #16
 985 0d34 032040E3 		movt	r2, 3
 986 0d38 FEFFFFEB 		bl	mailbox_tag_message
 987 0d3c 000050E3 		cmp	r0, #0
 988 0d40 1C009D15 		ldrne	r0, [sp, #28]
 989 0d44 2CD08DE2 		add	sp, sp, #44
 990              		@ sp needed
 991 0d48 04F09DE4 		ldr	pc, [sp], #4
 992              		.size	V3D_mem_alloc, .-V3D_mem_alloc
 993              		.align	2
 994              		.global	V3D_mem_free
 995              		.syntax unified
 996              		.arm
 997              		.fpu neon
 998              		.type	V3D_mem_free, %function
 999              	V3D_mem_free:
 1000              		@ args = 0, pretend = 0, frame = 0
 1001              		@ frame_needed = 0, uses_anonymous_args = 0
 1002 0d4c 04E02DE5 		str	lr, [sp, #-4]!
 1003 0d50 0CD04DE2 		sub	sp, sp, #12
 1004 0d54 0430A0E3 		mov	r3, #4
 1005 0d58 0F20A0E3 		mov	r2, #15
 1006 0d5c 04008DE5 		str	r0, [sp, #4]
 1007 0d60 0310A0E1 		mov	r1, r3
 1008 0d64 00308DE5 		str	r3, [sp]
 1009 0d68 0000A0E3 		mov	r0, #0
 1010 0d6c 032040E3 		movt	r2, 3
 1011 0d70 FEFFFFEB 		bl	mailbox_tag_message
 1012 0d74 0CD08DE2 		add	sp, sp, #12
 1013              		@ sp needed
 1014 0d78 04F09DE4 		ldr	pc, [sp], #4
 1015              		.size	V3D_mem_free, .-V3D_mem_free
 1016              		.align	2
 1017              		.global	V3D_mem_lock
 1018              		.syntax unified
 1019              		.arm
 1020              		.fpu neon
 1021              		.type	V3D_mem_lock, %function
 1022              	V3D_mem_lock:
 1023              		@ args = 0, pretend = 0, frame = 16
 1024              		@ frame_needed = 0, uses_anonymous_args = 0
 1025 0d7c 04E02DE5 		str	lr, [sp, #-4]!
 1026 0d80 1CD04DE2 		sub	sp, sp, #28
ARM GAS  C:\Users\ldebo\AppData\Local\Temp\ccrazFu5.s 			page 19


 1027 0d84 0430A0E3 		mov	r3, #4
 1028 0d88 0D20A0E3 		mov	r2, #13
 1029 0d8c 04008DE5 		str	r0, [sp, #4]
 1030 0d90 0310A0E1 		mov	r1, r3
 1031 0d94 00308DE5 		str	r3, [sp]
 1032 0d98 08008DE2 		add	r0, sp, #8
 1033 0d9c 032040E3 		movt	r2, 3
 1034 0da0 FEFFFFEB 		bl	mailbox_tag_message
 1035 0da4 000050E3 		cmp	r0, #0
 1036 0da8 14009D15 		ldrne	r0, [sp, #20]
 1037 0dac 1CD08DE2 		add	sp, sp, #28
 1038              		@ sp needed
 1039 0db0 04F09DE4 		ldr	pc, [sp], #4
 1040              		.size	V3D_mem_lock, .-V3D_mem_lock
 1041              		.align	2
 1042              		.global	V3D_mem_unlock
 1043              		.syntax unified
 1044              		.arm
 1045              		.fpu neon
 1046              		.type	V3D_mem_unlock, %function
 1047              	V3D_mem_unlock:
 1048              		@ args = 0, pretend = 0, frame = 0
 1049              		@ frame_needed = 0, uses_anonymous_args = 0
 1050 0db4 04E02DE5 		str	lr, [sp, #-4]!
 1051 0db8 0CD04DE2 		sub	sp, sp, #12
 1052 0dbc 0430A0E3 		mov	r3, #4
 1053 0dc0 0E20A0E3 		mov	r2, #14
 1054 0dc4 04008DE5 		str	r0, [sp, #4]
 1055 0dc8 0310A0E1 		mov	r1, r3
 1056 0dcc 00308DE5 		str	r3, [sp]
 1057 0dd0 0000A0E3 		mov	r0, #0
 1058 0dd4 032040E3 		movt	r2, 3
 1059 0dd8 FEFFFFEB 		bl	mailbox_tag_message
 1060 0ddc 0CD08DE2 		add	sp, sp, #12
 1061              		@ sp needed
 1062 0de0 04F09DE4 		ldr	pc, [sp], #4
 1063              		.size	V3D_mem_unlock, .-V3D_mem_unlock
 1064              		.align	2
 1065              		.global	V3D_execute_code
 1066              		.syntax unified
 1067              		.arm
 1068              		.fpu neon
 1069              		.type	V3D_execute_code, %function
 1070              	V3D_execute_code:
 1071              		@ args = 12, pretend = 0, frame = 0
 1072              		@ frame_needed = 0, uses_anonymous_args = 0
 1073 0de4 30402DE9 		push	{r4, r5, lr}
 1074 0de8 24D04DE2 		sub	sp, sp, #36
 1075 0dec 1CC0A0E3 		mov	ip, #28
 1076 0df0 30509DE5 		ldr	r5, [sp, #48]
 1077 0df4 34409DE5 		ldr	r4, [sp, #52]
 1078 0df8 38E09DE5 		ldr	lr, [sp, #56]
 1079 0dfc 0C208DE5 		str	r2, [sp, #12]
 1080 0e00 1020A0E3 		mov	r2, #16
 1081 0e04 10308DE5 		str	r3, [sp, #16]
 1082 0e08 0C30A0E1 		mov	r3, ip
 1083 0e0c 08108DE5 		str	r1, [sp, #8]
ARM GAS  C:\Users\ldebo\AppData\Local\Temp\ccrazFu5.s 			page 20


 1084 0e10 0A10A0E3 		mov	r1, #10
 1085 0e14 04008DE5 		str	r0, [sp, #4]
 1086 0e18 0000A0E3 		mov	r0, #0
 1087 0e1c 14508DE5 		str	r5, [sp, #20]
 1088 0e20 18408DE5 		str	r4, [sp, #24]
 1089 0e24 1CE08DE5 		str	lr, [sp, #28]
 1090 0e28 00C08DE5 		str	ip, [sp]
 1091 0e2c 032040E3 		movt	r2, 3
 1092 0e30 FEFFFFEB 		bl	mailbox_tag_message
 1093 0e34 24D08DE2 		add	sp, sp, #36
 1094              		@ sp needed
 1095 0e38 3080BDE8 		pop	{r4, r5, pc}
 1096              		.size	V3D_execute_code, .-V3D_execute_code
 1097              		.align	2
 1098              		.global	V3D_execute_qpu
 1099              		.syntax unified
 1100              		.arm
 1101              		.fpu neon
 1102              		.type	V3D_execute_qpu, %function
 1103              	V3D_execute_qpu:
 1104              		@ args = 0, pretend = 0, frame = 0
 1105              		@ frame_needed = 0, uses_anonymous_args = 0
 1106 0e3c 04E02DE5 		str	lr, [sp, #-4]!
 1107 0e40 1CD04DE2 		sub	sp, sp, #28
 1108 0e44 10C0A0E3 		mov	ip, #16
 1109 0e48 0C208DE5 		str	r2, [sp, #12]
 1110 0e4c 1120A0E3 		mov	r2, #17
 1111 0e50 10308DE5 		str	r3, [sp, #16]
 1112 0e54 0C30A0E1 		mov	r3, ip
 1113 0e58 08108DE5 		str	r1, [sp, #8]
 1114 0e5c 0710A0E3 		mov	r1, #7
 1115 0e60 04008DE5 		str	r0, [sp, #4]
 1116 0e64 0000A0E3 		mov	r0, #0
 1117 0e68 00C08DE5 		str	ip, [sp]
 1118 0e6c 032040E3 		movt	r2, 3
 1119 0e70 FEFFFFEB 		bl	mailbox_tag_message
 1120 0e74 1CD08DE2 		add	sp, sp, #28
 1121              		@ sp needed
 1122 0e78 04F09DE4 		ldr	pc, [sp], #4
 1123              		.size	V3D_execute_qpu, .-V3D_execute_qpu
 1124              		.align	2
 1125              		.global	DoRotate
 1126              		.syntax unified
 1127              		.arm
 1128              		.fpu neon
 1129              		.type	DoRotate, %function
 1130              	DoRotate:
 1131              		@ args = 0, pretend = 0, frame = 128
 1132              		@ frame_needed = 0, uses_anonymous_args = 0
 1133 0e7c 003000E3 		movw	r3, #:lower16:.LANCHOR1
 1134 0e80 003040E3 		movt	r3, #:upper16:.LANCHOR1
 1135 0e84 70402DE9 		push	{r4, r5, r6, lr}
 1136 0e88 004000E3 		movw	r4, #:lower16:.LANCHOR0
 1137 0e8c 028B2DED 		vpush.64	{d8}
 1138 0e90 008A93ED 		vldr.32	s16, [r3]
 1139 0e94 80D04DE2 		sub	sp, sp, #128
 1140 0e98 321BDFED 		vldr.64	d17, .L155
ARM GAS  C:\Users\ldebo\AppData\Local\Temp\ccrazFu5.s 			page 21


 1141 0e9c 088A30EE 		vadd.f32	s16, s0, s16
 1142 0ea0 0D60A0E1 		mov	r6, sp
 1143 0ea4 004040E3 		movt	r4, #:upper16:.LANCHOR0
 1144 0ea8 C80AF7EE 		vcvt.f64.f32	d16, s16
 1145 0eac E10BF4EE 		vcmpe.f64	d16, d17
 1146 0eb0 10FAF1EE 		vmrs	APSR_nzcv, FPSCR
 1147 0eb4 E18B30AE 		vsubge.f64	d8, d16, d17
 1148 0eb8 C88BB7AE 		vcvtge.f32.f64	s16, d8
 1149 0ebc 480AB0EE 		vmov.f32	s0, s16
 1150 0ec0 008A83ED 		vstr.32	s16, [r3]
 1151 0ec4 FEFFFFEB 		bl	sinf
 1152 0ec8 408AF0EE 		vmov.f32	s17, s0
 1153 0ecc 480AB0EE 		vmov.f32	s0, s16
 1154 0ed0 FEFFFFEB 		bl	cosf
 1155 0ed4 0F00B4E8 		ldmia	r4!, {r0, r1, r2, r3}
 1156 0ed8 687AF1EE 		vneg.f32	s15, s17
 1157 0edc 0DE0A0E1 		mov	lr, sp
 1158 0ee0 40C08DE2 		add	ip, sp, #64
 1159 0ee4 0F00AEE8 		stmia	lr!, {r0, r1, r2, r3}
 1160 0ee8 0C50A0E1 		mov	r5, ip
 1161 0eec 0F00B4E8 		ldmia	r4!, {r0, r1, r2, r3}
 1162 0ef0 0F00AEE8 		stmia	lr!, {r0, r1, r2, r3}
 1163 0ef4 0F00B4E8 		ldmia	r4!, {r0, r1, r2, r3}
 1164 0ef8 0F00AEE8 		stmia	lr!, {r0, r1, r2, r3}
 1165 0efc 0F0094E8 		ldm	r4, {r0, r1, r2, r3}
 1166 0f00 004000E3 		movw	r4, #:lower16:rotMat
 1167 0f04 0F008EE8 		stm	lr, {r0, r1, r2, r3}
 1168 0f08 000A8DED 		vstr.32	s0, [sp]
 1169 0f0c 048ACDED 		vstr.32	s17, [sp, #16]
 1170 0f10 050A8DED 		vstr.32	s0, [sp, #20]
 1171 0f14 017ACDED 		vstr.32	s15, [sp, #4]
 1172 0f18 0F00B6E8 		ldmia	r6!, {r0, r1, r2, r3}
 1173 0f1c 004040E3 		movt	r4, #:upper16:rotMat
 1174 0f20 0F00ACE8 		stmia	ip!, {r0, r1, r2, r3}
 1175 0f24 0F00B6E8 		ldmia	r6!, {r0, r1, r2, r3}
 1176 0f28 0F00ACE8 		stmia	ip!, {r0, r1, r2, r3}
 1177 0f2c 0F00B6E8 		ldmia	r6!, {r0, r1, r2, r3}
 1178 0f30 0F00ACE8 		stmia	ip!, {r0, r1, r2, r3}
 1179 0f34 0F009EE8 		ldm	lr, {r0, r1, r2, r3}
 1180 0f38 0F008CE8 		stm	ip, {r0, r1, r2, r3}
 1181 0f3c 0F00B5E8 		ldmia	r5!, {r0, r1, r2, r3}
 1182 0f40 0F00A4E8 		stmia	r4!, {r0, r1, r2, r3}
 1183 0f44 0F00B5E8 		ldmia	r5!, {r0, r1, r2, r3}
 1184 0f48 0F00A4E8 		stmia	r4!, {r0, r1, r2, r3}
 1185 0f4c 0F00B5E8 		ldmia	r5!, {r0, r1, r2, r3}
 1186 0f50 0F00A4E8 		stmia	r4!, {r0, r1, r2, r3}
 1187 0f54 0F009CE8 		ldm	ip, {r0, r1, r2, r3}
 1188 0f58 0F0084E8 		stm	r4, {r0, r1, r2, r3}
 1189 0f5c 80D08DE2 		add	sp, sp, #128
 1190              		@ sp needed
 1191 0f60 028BBDEC 		vldm	sp!, {d8}
 1192 0f64 7080BDE8 		pop	{r4, r5, r6, pc}
 1193              	.L156:
 1194              		.align	3
 1195              	.L155:
 1196 0f68 4AD8124D 		.word	1293080650
 1197 0f6c FB211940 		.word	1075388923
ARM GAS  C:\Users\ldebo\AppData\Local\Temp\ccrazFu5.s 			page 22


 1198              		.size	DoRotate, .-DoRotate
 1199              		.align	2
 1200              		.global	RenderModel
 1201              		.syntax unified
 1202              		.arm
 1203              		.fpu neon
 1204              		.type	RenderModel, %function
 1205              	RenderModel:
 1206              		@ args = 4, pretend = 0, frame = 240
 1207              		@ frame_needed = 0, uses_anonymous_args = 0
 1208 0f70 F04F2DE9 		push	{r4, r5, r6, r7, r8, r9, r10, fp, lr}
 1209 0f74 006053E2 		subs	r6, r3, #0
 1210 0f78 0E8B2DED 		vpush.64	{d8, d9, d10, d11, d12, d13, d14}
 1211 0f7c 41DF4DE2 		sub	sp, sp, #260
 1212 0f80 9502000A 		beq	.L157
 1213 0f84 18208DE5 		str	r2, [sp, #24]
 1214 0f88 0235A0E3 		mov	r3, #8388608
 1215 0f8c 01CAA0E3 		mov	ip, #4096
 1216 0f90 18E0A0E3 		mov	lr, #24
 1217 0f94 08508DE9 		stmib	sp, {r3, ip, lr}
 1218 0f98 0C30A0E3 		mov	r3, #12
 1219 0f9c 01B0A0E1 		mov	fp, r1
 1220 0fa0 00308DE5 		str	r3, [sp]
 1221 0fa4 0320A0E1 		mov	r2, r3
 1222 0fa8 032040E3 		movt	r2, 3
 1223 0fac 00A0A0E1 		mov	r10, r0
 1224 0fb0 0610A0E3 		mov	r1, #6
 1225 0fb4 C0008DE2 		add	r0, sp, #192
 1226 0fb8 FEFFFFEB 		bl	mailbox_tag_message
 1227 0fbc 000050E3 		cmp	r0, #0
 1228 0fc0 7F02000A 		beq	.L183
 1229 0fc4 CC309DE5 		ldr	r3, [sp, #204]
 1230 0fc8 20308DE5 		str	r3, [sp, #32]
 1231 0fcc 000053E3 		cmp	r3, #0
 1232 0fd0 7B02000A 		beq	.L183
 1233 0fd4 04308DE5 		str	r3, [sp, #4]
 1234 0fd8 0D20A0E3 		mov	r2, #13
 1235 0fdc 032040E3 		movt	r2, 3
 1236 0fe0 0430A0E3 		mov	r3, #4
 1237 0fe4 00308DE5 		str	r3, [sp]
 1238 0fe8 0310A0E1 		mov	r1, r3
 1239 0fec C0008DE2 		add	r0, sp, #192
 1240 0ff0 FEFFFFEB 		bl	mailbox_tag_message
 1241 0ff4 000050E3 		cmp	r0, #0
 1242 0ff8 E102000A 		beq	.L184
 1243 0ffc CC309DE5 		ldr	r3, [sp, #204]
 1244 1000 24308DE5 		str	r3, [sp, #36]
 1245 1004 062A83E2 		add	r2, r3, #24576
 1246 1008 24009DE5 		ldr	r0, [sp, #36]
 1247 100c 027C83E2 		add	r7, r3, #512
 1248 1010 10208DE5 		str	r2, [sp, #16]
 1249 1014 FE9C83E2 		add	r9, r3, #65024
 1250 1018 802083E2 		add	r2, r3, #128
 1251 101c FF8C83E2 		add	r8, r3, #65280
 1252 1020 2C208DE5 		str	r2, [sp, #44]
 1253 1024 E23C83E2 		add	r3, r3, #57856
 1254 1028 30308DE5 		str	r3, [sp, #48]
ARM GAS  C:\Users\ldebo\AppData\Local\Temp\ccrazFu5.s 			page 23


 1255              	.L162:
 1256 102c FEFFFFEB 		bl	GPUaddrToARMaddr
 1257 1030 10E09DE5 		ldr	lr, [sp, #16]
 1258 1034 0040A0E1 		mov	r4, r0
 1259 1038 8A00A0E1 		lsl	r0, r10, #1
 1260 103c 7010A0E3 		mov	r1, #112
 1261 1040 01E0C4E5 		strb	lr, [r4, #1]
 1262 1044 7030FFE6 		uxth	r3, r0
 1263 1048 1C308DE5 		str	r3, [sp, #28]
 1264 104c 3F0080E2 		add	r0, r0, #63
 1265 1050 5E38E7E7 		ubfx	r3, lr, #16, #8
 1266 1054 4003A0E1 		asr	r0, r0, #6
 1267 1058 0330C4E5 		strb	r3, [r4, #3]
 1268 105c 10309DE5 		ldr	r3, [sp, #16]
 1269 1060 14008DE5 		str	r0, [sp, #20]
 1270 1064 0600A0E3 		mov	r0, #6
 1271 1068 5E24E7E7 		ubfx	r2, lr, #8, #8
 1272 106c 40E0A0E3 		mov	lr, #64
 1273 1070 8BC0A0E1 		lsl	ip, fp, #1
 1274 1074 533CE7E7 		ubfx	r3, r3, #24, #8
 1275 1078 7C50FFE6 		uxth	r5, ip
 1276 107c 1000C4E5 		strb	r0, [r4, #16]
 1277 1080 3FC08CE2 		add	ip, ip, #63
 1278 1084 1C009DE5 		ldr	r0, [sp, #28]
 1279 1088 0430C4E5 		strb	r3, [r4, #4]
 1280 108c 6630A0E3 		mov	r3, #102
 1281 1090 06E0C4E5 		strb	lr, [r4, #6]
 1282 1094 57E4E7E7 		ubfx	lr, r7, #8, #8
 1283 1098 0AE0C4E5 		strb	lr, [r4, #10]
 1284 109c 1330C4E5 		strb	r3, [r4, #19]
 1285 10a0 57E8E7E7 		ubfx	lr, r7, #16, #8
 1286 10a4 2034A0E1 		lsr	r3, r0, #8
 1287 10a8 0970C4E5 		strb	r7, [r4, #9]
 1288 10ac 0BE0C4E5 		strb	lr, [r4, #11]
 1289 10b0 577CE7E7 		ubfx	r7, r7, #24, #8
 1290 10b4 14E0DDE5 		ldrb	lr, [sp, #20]	@ zero_extendqisi2
 1291 10b8 1930C4E5 		strb	r3, [r4, #25]
 1292 10bc 2534A0E1 		lsr	r3, r5, #8
 1293 10c0 0010C4E5 		strb	r1, [r4]
 1294 10c4 3810A0E3 		mov	r1, #56
 1295 10c8 28508DE5 		str	r5, [sp, #40]
 1296 10cc 0220C4E5 		strb	r2, [r4, #2]
 1297 10d0 3220A0E3 		mov	r2, #50
 1298 10d4 0C70C4E5 		strb	r7, [r4, #12]
 1299 10d8 0179A0E3 		mov	r7, #16384
 1300 10dc BA53CDE1 		strh	r5, [sp, #58]	@ movhi
 1301 10e0 1A50C4E5 		strb	r5, [r4, #26]
 1302 10e4 0050A0E3 		mov	r5, #0
 1303 10e8 1B30C4E5 		strb	r3, [r4, #27]
 1304 10ec 6030A0E3 		mov	r3, #96
 1305 10f0 4CC3A0E1 		asr	ip, ip, #6
 1306 10f4 1110C4E5 		strb	r1, [r4, #17]
 1307 10f8 0410A0E3 		mov	r1, #4
 1308 10fc 1220C4E5 		strb	r2, [r4, #18]
 1309 1100 0320A0E3 		mov	r2, #3
 1310 1104 0DE0C4E5 		strb	lr, [r4, #13]
 1311 1108 67E0A0E3 		mov	lr, #103
ARM GAS  C:\Users\ldebo\AppData\Local\Temp\ccrazFu5.s 			page 24


 1312 110c BC03CDE1 		strh	r0, [sp, #60]	@ movhi
 1313 1110 1800C4E5 		strb	r0, [r4, #24]
 1314 1114 0200A0E3 		mov	r0, #2
 1315 1118 1C30C4E5 		strb	r3, [r4, #28]
 1316 111c 4130A0E3 		mov	r3, #65
 1317 1120 0570C4E5 		strb	r7, [r4, #5]
 1318 1124 1470C4E5 		strb	r7, [r4, #20]
 1319 1128 0EC0C4E5 		strb	ip, [r4, #14]
 1320 112c 1570C4E5 		strb	r7, [r4, #21]
 1321 1130 0750C4E5 		strb	r5, [r4, #7]
 1322 1134 0850C4E5 		strb	r5, [r4, #8]
 1323 1138 2C509DE5 		ldr	r5, [sp, #44]
 1324 113c 2530C4E5 		strb	r3, [r4, #37]
 1325 1140 5534E7E7 		ubfx	r3, r5, #8, #8
 1326 1144 0F10C4E5 		strb	r1, [r4, #15]
 1327 1148 2650C4E5 		strb	r5, [r4, #38]
 1328 114c 2B10C4E5 		strb	r1, [r4, #43]
 1329 1150 2010A0E3 		mov	r1, #32
 1330 1154 2730C4E5 		strb	r3, [r4, #39]
 1331 1158 5538E7E7 		ubfx	r3, r5, #16, #8
 1332 115c 555CE7E7 		ubfx	r5, r5, #24, #8
 1333 1160 1670C4E5 		strb	r7, [r4, #22]
 1334 1164 1770C4E5 		strb	r7, [r4, #23]
 1335 1168 1D20C4E5 		strb	r2, [r4, #29]
 1336 116c 1E70C4E5 		strb	r7, [r4, #30]
 1337 1170 2170C4E5 		strb	r7, [r4, #33]
 1338 1174 2270C4E5 		strb	r7, [r4, #34]
 1339 1178 2370C4E5 		strb	r7, [r4, #35]
 1340 117c 2470C4E5 		strb	r7, [r4, #36]
 1341 1180 1F00C4E5 		strb	r0, [r4, #31]
 1342 1184 0100A0E3 		mov	r0, #1
 1343 1188 20E0C4E5 		strb	lr, [r4, #32]
 1344 118c 2830C4E5 		strb	r3, [r4, #40]
 1345 1190 0530A0E3 		mov	r3, #5
 1346 1194 2950C4E5 		strb	r5, [r4, #41]
 1347 1198 2A10C4E5 		strb	r1, [r4, #42]
 1348 119c 0C1096E5 		ldr	r1, [r6, #12]
 1349 11a0 51E4E7E7 		ubfx	lr, r1, #8, #8
 1350 11a4 2C10C4E5 		strb	r1, [r4, #44]
 1351 11a8 2DE0C4E5 		strb	lr, [r4, #45]
 1352 11ac 51E8E7E7 		ubfx	lr, r1, #16, #8
 1353 11b0 511CE7E7 		ubfx	r1, r1, #24, #8
 1354 11b4 2EE0C4E5 		strb	lr, [r4, #46]
 1355 11b8 2F10C4E5 		strb	r1, [r4, #47]
 1356 11bc 041096E5 		ldr	r1, [r6, #4]
 1357 11c0 51E4E7E7 		ubfx	lr, r1, #8, #8
 1358 11c4 3010C4E5 		strb	r1, [r4, #48]
 1359 11c8 31E0C4E5 		strb	lr, [r4, #49]
 1360 11cc 51E8E7E7 		ubfx	lr, r1, #16, #8
 1361 11d0 511CE7E7 		ubfx	r1, r1, #24, #8
 1362 11d4 3310C4E5 		strb	r1, [r4, #51]
 1363 11d8 1810A0E3 		mov	r1, #24
 1364 11dc 32E0C4E5 		strb	lr, [r4, #50]
 1365 11e0 10E096E5 		ldr	lr, [r6, #16]
 1366 11e4 3A70C4E5 		strb	r7, [r4, #58]
 1367 11e8 007000E3 		movw	r7, #:lower16:rotMat
 1368 11ec 3830C4E5 		strb	r3, [r4, #56]
ARM GAS  C:\Users\ldebo\AppData\Local\Temp\ccrazFu5.s 			page 25


 1369 11f0 02E08EE2 		add	lr, lr, #2
 1370 11f4 8320C4E5 		strb	r2, [r4, #131]
 1371 11f8 3330E0E3 		mvn	r3, #51
 1372 11fc 8230C4E5 		strb	r3, [r4, #130]
 1373 1200 5E54E7E7 		ubfx	r5, lr, #8, #8
 1374 1204 5924E7E7 		ubfx	r2, r9, #8, #8
 1375 1208 5938E7E7 		ubfx	r3, r9, #16, #8
 1376 120c 34E0C4E5 		strb	lr, [r4, #52]
 1377 1210 3550C4E5 		strb	r5, [r4, #53]
 1378 1214 8490C4E5 		strb	r9, [r4, #132]
 1379 1218 8880C4E5 		strb	r8, [r4, #136]
 1380 121c 8520C4E5 		strb	r2, [r4, #133]
 1381 1220 8630C4E5 		strb	r3, [r4, #134]
 1382 1224 5E58E7E7 		ubfx	r5, lr, #16, #8
 1383 1228 5824E7E7 		ubfx	r2, r8, #8, #8
 1384 122c 5838E7E7 		ubfx	r3, r8, #16, #8
 1385 1230 5EECE7E7 		ubfx	lr, lr, #24, #8
 1386 1234 599CE7E7 		ubfx	r9, r9, #24, #8
 1387 1238 588CE7E7 		ubfx	r8, r8, #24, #8
 1388 123c 3650C4E5 		strb	r5, [r4, #54]
 1389 1240 205086E2 		add	r5, r6, #32
 1390 1244 37E0C4E5 		strb	lr, [r4, #55]
 1391 1248 80E08DE2 		add	lr, sp, #128
 1392 124c 3900C4E5 		strb	r0, [r4, #57]
 1393 1250 8000C4E5 		strb	r0, [r4, #128]
 1394 1254 8110C4E5 		strb	r1, [r4, #129]
 1395 1258 8790C4E5 		strb	r9, [r4, #135]
 1396 125c 8920C4E5 		strb	r2, [r4, #137]
 1397 1260 8B80C4E5 		strb	r8, [r4, #139]
 1398 1264 008000E3 		movw	r8, #:lower16:.LANCHOR0
 1399 1268 8A30C4E5 		strb	r3, [r4, #138]
 1400 126c 143096E5 		ldr	r3, [r6, #20]
 1401 1270 007040E3 		movt	r7, #:upper16:rotMat
 1402 1274 5304E7E7 		ubfx	r0, r3, #8, #8
 1403 1278 5318E7E7 		ubfx	r1, r3, #16, #8
 1404 127c 532CE7E7 		ubfx	r2, r3, #24, #8
 1405 1280 8C30C4E5 		strb	r3, [r4, #140]
 1406 1284 8D00C4E5 		strb	r0, [r4, #141]
 1407 1288 8E10C4E5 		strb	r1, [r4, #142]
 1408 128c 8F20C4E5 		strb	r2, [r4, #143]
 1409 1290 0F00B5E8 		ldmia	r5!, {r0, r1, r2, r3}
 1410 1294 008040E3 		movt	r8, #:upper16:.LANCHOR0
 1411 1298 0F00AEE8 		stmia	lr!, {r0, r1, r2, r3}
 1412 129c 0F00B5E8 		ldmia	r5!, {r0, r1, r2, r3}
 1413 12a0 03BA97ED 		vldr.32	s22, [r7, #12]
 1414 12a4 0F00AEE8 		stmia	lr!, {r0, r1, r2, r3}
 1415 12a8 0F00B5E8 		ldmia	r5!, {r0, r1, r2, r3}
 1416 12ac 07EAD7ED 		vldr.32	s29, [r7, #28]
 1417 12b0 0F00AEE8 		stmia	lr!, {r0, r1, r2, r3}
 1418 12b4 0F0095E8 		ldm	r5, {r0, r1, r2, r3}
 1419 12b8 00CAD7ED 		vldr.32	s25, [r7]
 1420 12bc C0508DE2 		add	r5, sp, #192
 1421 12c0 01CA97ED 		vldr.32	s24, [r7, #4]
 1422 12c4 0590A0E1 		mov	r9, r5
 1423 12c8 02BAD7ED 		vldr.32	s23, [r7, #8]
 1424 12cc 045AD7ED 		vldr.32	s11, [r7, #16]
 1425 12d0 056A97ED 		vldr.32	s12, [r7, #20]
ARM GAS  C:\Users\ldebo\AppData\Local\Temp\ccrazFu5.s 			page 26


 1426 12d4 067A97ED 		vldr.32	s14, [r7, #24]
 1427 12d8 08AAD7ED 		vldr.32	s21, [r7, #32]
 1428 12dc 0F008EE8 		stm	lr, {r0, r1, r2, r3}
 1429 12e0 09AA97ED 		vldr.32	s20, [r7, #36]
 1430 12e4 0F00B8E8 		ldmia	r8!, {r0, r1, r2, r3}
 1431 12e8 0A9AD7ED 		vldr.32	s19, [r7, #40]
 1432 12ec 0F00A5E8 		stmia	r5!, {r0, r1, r2, r3}
 1433 12f0 0F00B8E8 		ldmia	r8!, {r0, r1, r2, r3}
 1434 12f4 0B9A97ED 		vldr.32	s18, [r7, #44]
 1435 12f8 0F00A5E8 		stmia	r5!, {r0, r1, r2, r3}
 1436 12fc 0F00B8E8 		ldmia	r8!, {r0, r1, r2, r3}
 1437 1300 0C8AD7ED 		vldr.32	s17, [r7, #48]
 1438 1304 0D8A97ED 		vldr.32	s16, [r7, #52]
 1439 1308 0E0A97ED 		vldr.32	s0, [r7, #56]
 1440 130c 0F0AD7ED 		vldr.32	s1, [r7, #60]
 1441 1310 40708DE2 		add	r7, sp, #64
 1442 1314 203ADDED 		vldr.32	s7, [sp, #128]
 1443 1318 0F00A5E8 		stmia	r5!, {r0, r1, r2, r3}
 1444 131c 0F0098E8 		ldm	r8, {r0, r1, r2, r3}
 1445 1320 215A9DED 		vldr.32	s10, [sp, #132]
 1446 1324 254A9DED 		vldr.32	s8, [sp, #148]
 1447 1328 85DA65EE 		vmul.f32	s27, s11, s10
 1448 132c 05DA26EE 		vmul.f32	s26, s12, s10
 1449 1330 051A27EE 		vmul.f32	s2, s14, s10
 1450 1334 854A6EEE 		vmul.f32	s9, s29, s10
 1451 1338 296ADDED 		vldr.32	s13, [sp, #164]
 1452 133c 2D7ADDED 		vldr.32	s15, [sp, #180]
 1453 1340 841A65EE 		vmul.f32	s3, s11, s8
 1454 1344 042A26EE 		vmul.f32	s4, s12, s8
 1455 1348 042A67EE 		vmul.f32	s5, s14, s8
 1456 134c 845A2EEE 		vmul.f32	s10, s29, s8
 1457 1350 234A4BEE 		vmla.f32	s9, s22, s7
 1458 1354 A63A25EE 		vmul.f32	s6, s11, s13
 1459 1358 264A27EE 		vmul.f32	s8, s14, s13
 1460 135c A3DA4CEE 		vmla.f32	s27, s25, s7
 1461 1360 23DA0CEE 		vmla.f32	s26, s24, s7
 1462 1364 A31A0BEE 		vmla.f32	s2, s23, s7
 1463 1368 A55A67EE 		vmul.f32	s11, s15, s11
 1464 136c 263A66EE 		vmul.f32	s7, s12, s13
 1465 1370 877A27EE 		vmul.f32	s14, s15, s14
 1466 1374 866A27EE 		vmul.f32	s12, s15, s12
 1467 1378 A66A6EEE 		vmul.f32	s13, s29, s13
 1468 137c A77A6EEE 		vmul.f32	s15, s29, s15
 1469 1380 24EADDED 		vldr.32	s29, [sp, #144]
 1470 1384 22EA9DED 		vldr.32	s28, [sp, #136]
 1471 1388 2E5A0BEE 		vmla.f32	s10, s22, s29
 1472 138c AE1A4CEE 		vmla.f32	s3, s25, s29
 1473 1390 2E2A0CEE 		vmla.f32	s4, s24, s29
 1474 1394 AE2A4BEE 		vmla.f32	s5, s23, s29
 1475 1398 28EADDED 		vldr.32	s29, [sp, #160]
 1476 139c 0EDA0AEE 		vmla.f32	s26, s20, s28
 1477 13a0 2E6A4BEE 		vmla.f32	s13, s22, s29
 1478 13a4 AE3A0CEE 		vmla.f32	s6, s25, s29
 1479 13a8 2E3A4CEE 		vmla.f32	s7, s24, s29
 1480 13ac AE4A0BEE 		vmla.f32	s8, s23, s29
 1481 13b0 2CEADDED 		vldr.32	s29, [sp, #176]
 1482 13b4 8E1A09EE 		vmla.f32	s2, s19, s28
ARM GAS  C:\Users\ldebo\AppData\Local\Temp\ccrazFu5.s 			page 27


 1483 13b8 2E7A4BEE 		vmla.f32	s15, s22, s29
 1484 13bc 26BA9DED 		vldr.32	s22, [sp, #152]
 1485 13c0 AE5A4CEE 		vmla.f32	s11, s25, s29
 1486 13c4 0B2A0AEE 		vmla.f32	s4, s20, s22
 1487 13c8 8B2A49EE 		vmla.f32	s5, s19, s22
 1488 13cc 0B5A09EE 		vmla.f32	s10, s18, s22
 1489 13d0 8B1A4AEE 		vmla.f32	s3, s21, s22
 1490 13d4 2ABA9DED 		vldr.32	s22, [sp, #168]
 1491 13d8 2E6A0CEE 		vmla.f32	s12, s24, s29
 1492 13dc 0B3A4AEE 		vmla.f32	s7, s20, s22
 1493 13e0 8B4A09EE 		vmla.f32	s8, s19, s22
 1494 13e4 0B6A49EE 		vmla.f32	s13, s18, s22
 1495 13e8 8B3A0AEE 		vmla.f32	s6, s21, s22
 1496 13ec AE7A0BEE 		vmla.f32	s14, s23, s29
 1497 13f0 2EBA9DED 		vldr.32	s22, [sp, #184]
 1498 13f4 0E4A49EE 		vmla.f32	s9, s18, s28
 1499 13f8 8EDA4AEE 		vmla.f32	s27, s21, s28
 1500 13fc 8B5A4AEE 		vmla.f32	s11, s21, s22
 1501 1400 23EA9DED 		vldr.32	s28, [sp, #140]
 1502 1404 0A6A0BEE 		vmla.f32	s12, s22, s20
 1503 1408 297A0BEE 		vmla.f32	s14, s22, s19
 1504 140c 27AA9DED 		vldr.32	s20, [sp, #156]
 1505 1410 2B9ADDED 		vldr.32	s19, [sp, #172]
 1506 1414 097A4BEE 		vmla.f32	s15, s22, s18
 1507 1418 2F9A9DED 		vldr.32	s18, [sp, #188]
 1508 141c 8EDA48EE 		vmla.f32	s27, s17, s28
 1509 1420 0EDA08EE 		vmla.f32	s26, s16, s28
 1510 1424 0E1A00EE 		vmla.f32	s2, s0, s28
 1511 1428 8E4A40EE 		vmla.f32	s9, s1, s28
 1512 142c 8A1A48EE 		vmla.f32	s3, s17, s20
 1513 1430 0A2A08EE 		vmla.f32	s4, s16, s20
 1514 1434 0A2A40EE 		vmla.f32	s5, s0, s20
 1515 1438 8A5A00EE 		vmla.f32	s10, s1, s20
 1516 143c A93A08EE 		vmla.f32	s6, s17, s19
 1517 1440 895A48EE 		vmla.f32	s11, s17, s18
 1518 1444 293A48EE 		vmla.f32	s7, s16, s19
 1519 1448 294A00EE 		vmla.f32	s8, s0, s19
 1520 144c A96A40EE 		vmla.f32	s13, s1, s19
 1521 1450 0F0085E8 		stm	r5, {r0, r1, r2, r3}
 1522 1454 30DACDED 		vstr.32	s27, [sp, #192]
 1523 1458 31DA8DED 		vstr.32	s26, [sp, #196]
 1524 145c 321A8DED 		vstr.32	s2, [sp, #200]
 1525 1460 334ACDED 		vstr.32	s9, [sp, #204]
 1526 1464 341ACDED 		vstr.32	s3, [sp, #208]
 1527 1468 352A8DED 		vstr.32	s4, [sp, #212]
 1528 146c 362ACDED 		vstr.32	s5, [sp, #216]
 1529 1470 375A8DED 		vstr.32	s10, [sp, #220]
 1530 1474 383A8DED 		vstr.32	s6, [sp, #224]
 1531 1478 3C5ACDED 		vstr.32	s11, [sp, #240]
 1532 147c 0F00B9E8 		ldmia	r9!, {r0, r1, r2, r3}
 1533 1480 096A08EE 		vmla.f32	s12, s16, s18
 1534 1484 097A00EE 		vmla.f32	s14, s0, s18
 1535 1488 897A40EE 		vmla.f32	s15, s1, s18
 1536 148c 0F00A7E8 		stmia	r7!, {r0, r1, r2, r3}
 1537 1490 0F00B9E8 		ldmia	r9!, {r0, r1, r2, r3}
 1538 1494 393ACDED 		vstr.32	s7, [sp, #228]
 1539 1498 0F00A7E8 		stmia	r7!, {r0, r1, r2, r3}
ARM GAS  C:\Users\ldebo\AppData\Local\Temp\ccrazFu5.s 			page 28


 1540 149c 3A4A8DED 		vstr.32	s8, [sp, #232]
 1541 14a0 3B6ACDED 		vstr.32	s13, [sp, #236]
 1542 14a4 0F00B9E8 		ldmia	r9!, {r0, r1, r2, r3}
 1543 14a8 3D6A8DED 		vstr.32	s12, [sp, #244]
 1544 14ac 0F00A7E8 		stmia	r7!, {r0, r1, r2, r3}
 1545 14b0 3E7A8DED 		vstr.32	s14, [sp, #248]
 1546 14b4 3F7ACDED 		vstr.32	s15, [sp, #252]
 1547 14b8 18E096E5 		ldr	lr, [r6, #24]
 1548 14bc 0F0095E8 		ldm	r5, {r0, r1, r2, r3}
 1549 14c0 0F0087E8 		stm	r7, {r0, r1, r2, r3}
 1550 14c4 607096E5 		ldr	r7, [r6, #96]
 1551 14c8 1C0096E5 		ldr	r0, [r6, #28]
 1552 14cc 000057E3 		cmp	r7, #0
 1553 14d0 5C00000A 		beq	.L168
 1554 14d4 90AA07EE 		vmov	s15, r10	@ int
 1555 14d8 110ADDED 		vldr.32	s1, [sp, #68]
 1556 14dc 0050A0E3 		mov	r5, #0
 1557 14e0 121A9DED 		vldr.32	s2, [sp, #72]
 1558 14e4 0560A0E1 		mov	r6, r5
 1559 14e8 1F1ADDED 		vldr.32	s3, [sp, #124]
 1560 14ec 8090A0E3 		mov	r9, #128
 1561 14f0 E78AF8EE 		vcvt.f32.s32	s17, s15
 1562 14f4 3F80A0E3 		mov	r8, #63
 1563 14f8 90BA07EE 		vmov	s15, fp	@ int
 1564 14fc 132A9DED 		vldr.32	s4, [sp, #76]
 1565 1500 102ADDED 		vldr.32	s5, [sp, #64]
 1566 1504 153A9DED 		vldr.32	s6, [sp, #84]
 1567 1508 E78AB8EE 		vcvt.f32.s32	s16, s15
 1568 150c 1D3ADDED 		vldr.32	s7, [sp, #116]
 1569 1510 144A9DED 		vldr.32	s8, [sp, #80]
 1570 1514 174ADDED 		vldr.32	s9, [sp, #92]
 1571 1518 1C5A9DED 		vldr.32	s10, [sp, #112]
 1572 151c 1E5ADDED 		vldr.32	s11, [sp, #120]
 1573 1520 166A9DED 		vldr.32	s12, [sp, #88]
 1574 1524 000AB7EE 		vmov.f32	s0, #1.0e+0
 1575              	.L167:
 1576 1528 0520D0E5 		ldrb	r2, [r0, #5]	@ zero_extendqisi2
 1577 152c 015085E2 		add	r5, r5, #1
 1578 1530 0430D0E5 		ldrb	r3, [r0, #4]	@ zero_extendqisi2
 1579 1534 18E08EE2 		add	lr, lr, #24
 1580 1538 0610D0E5 		ldrb	r1, [r0, #6]	@ zero_extendqisi2
 1581 153c 0C0080E2 		add	r0, r0, #12
 1582 1540 023483E1 		orr	r3, r3, r2, lsl #8
 1583 1544 052050E5 		ldrb	r2, [r0, #-5]	@ zero_extendqisi2
 1584 1548 013883E1 		orr	r3, r3, r1, lsl #16
 1585 154c 023C83E1 		orr	r3, r3, r2, lsl #24
 1586 1550 0B2050E5 		ldrb	r2, [r0, #-11]	@ zero_extendqisi2
 1587 1554 903A07EE 		vmov	s15, r3	@ int
 1588 1558 0C3050E5 		ldrb	r3, [r0, #-12]	@ zero_extendqisi2
 1589 155c 0A1050E5 		ldrb	r1, [r0, #-10]	@ zero_extendqisi2
 1590 1560 023483E1 		orr	r3, r3, r2, lsl #8
 1591 1564 092050E5 		ldrb	r2, [r0, #-9]	@ zero_extendqisi2
 1592 1568 013883E1 		orr	r3, r3, r1, lsl #16
 1593 156c 023C83E1 		orr	r3, r3, r2, lsl #24
 1594 1570 032050E5 		ldrb	r2, [r0, #-3]	@ zero_extendqisi2
 1595 1574 903A09EE 		vmov	s19, r3	@ int
 1596 1578 043050E5 		ldrb	r3, [r0, #-4]	@ zero_extendqisi2
ARM GAS  C:\Users\ldebo\AppData\Local\Temp\ccrazFu5.s 			page 29


 1597 157c 021050E5 		ldrb	r1, [r0, #-2]	@ zero_extendqisi2
 1598 1580 A36A67EE 		vmul.f32	s13, s15, s7
 1599 1584 023483E1 		orr	r3, r3, r2, lsl #8
 1600 1588 012050E5 		ldrb	r2, [r0, #-1]	@ zero_extendqisi2
 1601 158c 013883E1 		orr	r3, r3, r1, lsl #16
 1602 1590 023C83E1 		orr	r3, r3, r2, lsl #24
 1603 1594 856A49EE 		vmla.f32	s13, s19, s10
 1604 1598 103A09EE 		vmov	s18, r3	@ int
 1605 159c A07A27EE 		vmul.f32	s14, s15, s1
 1606 15a0 837A67EE 		vmul.f32	s15, s15, s6
 1607 15a4 14604EE5 		strb	r6, [lr, #-20]
 1608 15a8 256A49EE 		vmla.f32	s13, s18, s11
 1609 15ac A27A09EE 		vmla.f32	s14, s19, s5
 1610 15b0 847A49EE 		vmla.f32	s15, s19, s8
 1611 15b4 13604EE5 		strb	r6, [lr, #-19]
 1612 15b8 12904EE5 		strb	r9, [lr, #-18]
 1613 15bc 017A09EE 		vmla.f32	s14, s18, s2
 1614 15c0 067A49EE 		vmla.f32	s15, s18, s12
 1615 15c4 11804EE5 		strb	r8, [lr, #-17]
 1616 15c8 A16A76EE 		vadd.f32	s13, s13, s3
 1617 15cc 406AF5EE 		vcmp.f32	s13, #0
 1618 15d0 027A37EE 		vadd.f32	s14, s14, s4
 1619 15d4 A47A77EE 		vadd.f32	s15, s15, s9
 1620 15d8 10FAF1EE 		vmrs	APSR_nzcv, FPSCR
 1621 15dc 406AF4EE 		vcmp.f32	s13, s0
 1622 15e0 0130A013 		movne	r3, #1
 1623 15e4 0030A003 		moveq	r3, #0
 1624 15e8 10FAF1EE 		vmrs	APSR_nzcv, FPSCR
 1625 15ec 0030A003 		moveq	r3, #0
 1626 15f0 01300312 		andne	r3, r3, #1
 1627 15f4 000053E3 		cmp	r3, #0
 1628 15f8 267A871E 		vdivne.f32	s14, s14, s13
 1629 15fc A67AC71E 		vdivne.f32	s15, s15, s13
 1630 1600 070055E1 		cmp	r5, r7
 1631 1604 287A37EE 		vadd.f32	s14, s14, s17
 1632 1608 C77ABCEE 		vcvt.u32.f32	s14, s14
 1633 160c 103A17EE 		vmov	r3, s14	@ int
 1634 1610 0332A0E1 		lsl	r3, r3, #4
 1635 1614 7330FFE6 		uxth	r3, r3
 1636 1618 18304EE5 		strb	r3, [lr, #-24]
 1637 161c 2334A0E1 		lsr	r3, r3, #8
 1638 1620 887A77EE 		vadd.f32	s15, s15, s16
 1639 1624 17304EE5 		strb	r3, [lr, #-23]
 1640 1628 E77AFCEE 		vcvt.u32.f32	s15, s15
 1641 162c 903A17EE 		vmov	r3, s15	@ int
 1642 1630 0332A0E1 		lsl	r3, r3, #4
 1643 1634 7330FFE6 		uxth	r3, r3
 1644 1638 16304EE5 		strb	r3, [lr, #-22]
 1645 163c 2334A0E1 		lsr	r3, r3, #8
 1646 1640 15304EE5 		strb	r3, [lr, #-21]
 1647 1644 B7FFFF1A 		bne	.L167
 1648              	.L168:
 1649 1648 18309DE5 		ldr	r3, [sp, #24]
 1650 164c 629804E3 		movw	r9, #18530
 1651 1650 029041E3 		movt	r9, 4098
 1652 1654 0DE0A0E3 		mov	lr, #13
 1653 1658 5324E7E7 		ubfx	r2, r3, #8, #8
ARM GAS  C:\Users\ldebo\AppData\Local\Temp\ccrazFu5.s 			page 30


 1654 165c 0F3A84E2 		add	r3, r4, #61440
 1655 1660 34208DE5 		str	r2, [sp, #52]
 1656 1664 BF2D00E3 		movw	r2, #3519
 1657 1668 01EEC3E5 		strb	lr, [r3, #3585]
 1658 166c 235804E3 		movw	r5, #18467
 1659 1670 149EC3E5 		strb	r9, [r3, #3604]
 1660 1674 95E0A0E3 		mov	lr, #149
 1661 1678 8E2549E3 		movt	r2, 38286
 1662 167c 4890A0E3 		mov	r9, #72
 1663 1680 002EC3E5 		strb	r2, [r3, #3584]
 1664 1684 216804E3 		movw	r6, #18465
 1665 1688 03EEC3E5 		strb	lr, [r3, #3587]
 1666 168c A32804E3 		movw	r2, #18595
 1667 1690 059EC3E5 		strb	r9, [r3, #3589]
 1668 1694 D1E0A0E3 		mov	lr, #209
 1669 1698 0D9EC3E5 		strb	r9, [r3, #3597]
 1670 169c 400507E3 		movw	r0, #30016
 1671 16a0 159EC3E5 		strb	r9, [r3, #3605]
 1672 16a4 761107E3 		movw	r1, #29046
 1673 16a8 1D9EC3E5 		strb	r9, [r3, #3613]
 1674 16ac 7290A0E3 		mov	r9, #114
 1675 16b0 72514DE3 		movt	r5, 53618
 1676 16b4 128007E3 		movw	r8, #28690
 1677 16b8 045EC3E5 		strb	r5, [r3, #3588]
 1678 16bc 4050A0E3 		mov	r5, #64
 1679 16c0 07EEC3E5 		strb	lr, [r3, #3591]
 1680 16c4 75E0A0E3 		mov	lr, #117
 1681 16c8 069EC3E5 		strb	r9, [r3, #3590]
 1682 16cc 7190A0E3 		mov	r9, #113
 1683 16d0 026044E3 		movt	r6, 16386
 1684 16d4 73B0A0E3 		mov	fp, #115
 1685 16d8 422141E3 		movt	r2, 4418
 1686 16dc C07607E3 		movw	r7, #30400
 1687 16e0 8E1148E3 		movt	r1, 33166
 1688 16e4 09A007E3 		movw	r10, #28681
 1689 16e8 0C6EC3E5 		strb	r6, [r3, #3596]
 1690 16ec 4260A0E3 		mov	r6, #66
 1691 16f0 0F5EC3E5 		strb	r5, [r3, #3599]
 1692 16f4 8E50A0E3 		mov	r5, #142
 1693 16f8 19EEC3E5 		strb	lr, [r3, #3609]
 1694 16fc 81E0A0E3 		mov	lr, #129
 1695 1700 1C2EC3E5 		strb	r2, [r3, #3612]
 1696 1704 0220A0E3 		mov	r2, #2
 1697 1708 099EC3E5 		strb	r9, [r3, #3593]
 1698 170c 1090A0E3 		mov	r9, #16
 1699 1710 9E0148E3 		movt	r0, 33182
 1700 1714 9E8048E3 		movt	r8, 32926
 1701 1718 180EC3E5 		strb	r0, [r3, #3608]
 1702 171c A70B00E3 		movw	r0, #2983
 1703 1720 1E6EC3E5 		strb	r6, [r3, #3614]
 1704 1724 025EC3E5 		strb	r5, [r3, #3586]
 1705 1728 14609DE5 		ldr	r6, [sp, #20]
 1706 172c 0A5EC3E5 		strb	r5, [r3, #3594]
 1707 1730 125EC3E5 		strb	r5, [r3, #3602]
 1708 1734 000056E3 		cmp	r6, #0
 1709 1738 081EC3E5 		strb	r1, [r3, #3592]
 1710 173c E36904E3 		movw	r6, #18915
ARM GAS  C:\Users\ldebo\AppData\Local\Temp\ccrazFu5.s 			page 31


 1711 1740 101EC3E5 		strb	r1, [r3, #3600]
 1712 1744 E75900E3 		movw	r5, #2535
 1713 1748 0BEEC3E5 		strb	lr, [r3, #3595]
 1714 174c 9E10A0E3 		mov	r1, #158
 1715 1750 13EEC3E5 		strb	lr, [r3, #3603]
 1716 1754 1BEEC3E5 		strb	lr, [r3, #3611]
 1717 1758 11E0A0E3 		mov	lr, #17
 1718 175c 0E2EC3E5 		strb	r2, [r3, #3598]
 1719 1760 162EC3E5 		strb	r2, [r3, #3606]
 1720 1764 9E7541E3 		movt	r7, 5534
 1721 1768 11BEC3E5 		strb	fp, [r3, #3601]
 1722 176c 179EC3E5 		strb	r9, [r3, #3607]
 1723 1770 288EC3E5 		strb	r8, [r3, #3624]
 1724 1774 6080A0E3 		mov	r8, #96
 1725 1778 2E8EC3E5 		strb	r8, [r3, #3630]
 1726 177c 1580A0E3 		mov	r8, #21
 1727 1780 307EC3E5 		strb	r7, [r3, #3632]
 1728 1784 0B70A0E3 		mov	r7, #11
 1729 1788 3F9EC3E5 		strb	r9, [r3, #3647]
 1730 178c 7690A0E3 		mov	r9, #118
 1731 1790 338EC3E5 		strb	r8, [r3, #3635]
 1732 1794 3080A0E3 		mov	r8, #48
 1733 1798 357EC3E5 		strb	r7, [r3, #3637]
 1734 179c 8070A0E3 		mov	r7, #128
 1735 17a0 020043E3 		movt	r0, 12290
 1736 17a4 506141E3 		movt	r6, 4432
 1737 17a8 005041E3 		movt	r5, 4096
 1738 17ac 362EC3E5 		strb	r2, [r3, #3638]
 1739 17b0 0E2A84E2 		add	r2, r4, #57344
 1740 17b4 319EC3E5 		strb	r9, [r3, #3633]
 1741 17b8 4990A0E3 		mov	r9, #73
 1742 17bc 340EC3E5 		strb	r0, [r3, #3636]
 1743 17c0 7000A0E3 		mov	r0, #112
 1744 17c4 378EC3E5 		strb	r8, [r3, #3639]
 1745 17c8 5080A0E3 		mov	r8, #80
 1746 17cc 237EC3E5 		strb	r7, [r3, #3619]
 1747 17d0 2B7EC3E5 		strb	r7, [r3, #3627]
 1748 17d4 0070A0E3 		mov	r7, #0
 1749 17d8 9EA048E3 		movt	r10, 32926
 1750 17dc 1A1EC3E5 		strb	r1, [r3, #3610]
 1751 17e0 221EC3E5 		strb	r1, [r3, #3618]
 1752 17e4 2A1EC3E5 		strb	r1, [r3, #3626]
 1753 17e8 321EC3E5 		strb	r1, [r3, #3634]
 1754 17ec 3A1EC3E5 		strb	r1, [r3, #3642]
 1755 17f0 210EC3E5 		strb	r0, [r3, #3617]
 1756 17f4 290EC3E5 		strb	r0, [r3, #3625]
 1757 17f8 390EC3E5 		strb	r0, [r3, #3641]
 1758 17fc 246EC3E5 		strb	r6, [r3, #3620]
 1759 1800 2C6EC3E5 		strb	r6, [r3, #3628]
 1760 1804 0960A0E3 		mov	r6, #9
 1761 1808 259EC3E5 		strb	r9, [r3, #3621]
 1762 180c 2D9EC3E5 		strb	r9, [r3, #3629]
 1763 1810 FF90A0E3 		mov	r9, #255
 1764 1814 268EC3E5 		strb	r8, [r3, #3622]
 1765 1818 1FEEC3E5 		strb	lr, [r3, #3615]
 1766 181c 20AEC3E5 		strb	r10, [r3, #3616]
 1767 1820 27EEC3E5 		strb	lr, [r3, #3623]
ARM GAS  C:\Users\ldebo\AppData\Local\Temp\ccrazFu5.s 			page 32


 1768 1824 2FEEC3E5 		strb	lr, [r3, #3631]
 1769 1828 387EC3E5 		strb	r7, [r3, #3640]
 1770 182c 3B7EC3E5 		strb	r7, [r3, #3643]
 1771 1830 3E7EC3E5 		strb	r7, [r3, #3646]
 1772 1834 407EC3E5 		strb	r7, [r3, #3648]
 1773 1838 3C5EC3E5 		strb	r5, [r3, #3644]
 1774 183c 445EC3E5 		strb	r5, [r3, #3652]
 1775 1840 478EC3E5 		strb	r8, [r3, #3655]
 1776 1844 7280A0E3 		mov	r8, #114
 1777 1848 18509DE5 		ldr	r5, [sp, #24]
 1778 184c 410EC3E5 		strb	r0, [r3, #3649]
 1779 1850 421EC3E5 		strb	r1, [r3, #3650]
 1780 1854 0410A0E3 		mov	r1, #4
 1781 1858 3D6EC3E5 		strb	r6, [r3, #3645]
 1782 185c 437EC3E5 		strb	r7, [r3, #3651]
 1783 1860 456EC3E5 		strb	r6, [r3, #3653]
 1784 1864 467EC3E5 		strb	r7, [r3, #3654]
 1785 1868 1C30A0E3 		mov	r3, #28
 1786 186c 0082C2E5 		strb	r8, [r2, #512]
 1787 1870 E28C84E2 		add	r8, r4, #57856
 1788 1874 5508E7E7 		ubfx	r0, r5, #16, #8
 1789 1878 E24C84E2 		add	r4, r4, #57856
 1790 187c 2C408DE5 		str	r4, [sp, #44]
 1791 1880 7140A0E3 		mov	r4, #113
 1792 1884 0E42C2E5 		strb	r4, [r2, #526]
 1793 1888 238088E2 		add	r8, r8, #35
 1794 188c 554CE7E7 		ubfx	r4, r5, #24, #8
 1795 1890 0F52C2E5 		strb	r5, [r2, #527]
 1796 1894 1102C2E5 		strb	r0, [r2, #529]
 1797 1898 3450DDE5 		ldrb	r5, [sp, #52]	@ zero_extendqisi2
 1798 189c 1C009DE5 		ldr	r0, [sp, #28]
 1799 18a0 1052C2E5 		strb	r5, [r2, #528]
 1800 18a4 1242C2E5 		strb	r4, [r2, #530]
 1801 18a8 0172C2E5 		strb	r7, [r2, #513]
 1802 18ac 0272C2E5 		strb	r7, [r2, #514]
 1803 18b0 0372C2E5 		strb	r7, [r2, #515]
 1804 18b4 0572C2E5 		strb	r7, [r2, #517]
 1805 18b8 0672C2E5 		strb	r7, [r2, #518]
 1806 18bc 0772C2E5 		strb	r7, [r2, #519]
 1807 18c0 0972C2E5 		strb	r7, [r2, #521]
 1808 18c4 0A72C2E5 		strb	r7, [r2, #522]
 1809 18c8 0B72C2E5 		strb	r7, [r2, #523]
 1810 18cc 0C72C2E5 		strb	r7, [r2, #524]
 1811 18d0 0D72C2E5 		strb	r7, [r2, #525]
 1812 18d4 0492C2E5 		strb	r9, [r2, #516]
 1813 18d8 0892C2E5 		strb	r9, [r2, #520]
 1814 18dc B00CCDE1 		strh	r0, [sp, #192]	@ movhi
 1815 18e0 28509DE5 		ldr	r5, [sp, #40]
 1816 18e4 1302C2E5 		strb	r0, [r2, #531]
 1817 18e8 C140DDE5 		ldrb	r4, [sp, #193]	@ zero_extendqisi2
 1818 18ec 2504A0E1 		lsr	r0, r5, #8
 1819 18f0 BE53CDE1 		strh	r5, [sp, #62]	@ movhi
 1820 18f4 1442C2E5 		strb	r4, [r2, #532]
 1821 18f8 1552C2E5 		strb	r5, [r2, #533]
 1822 18fc 1602C2E5 		strb	r0, [r2, #534]
 1823 1900 1712C2E5 		strb	r1, [r2, #535]
 1824 1904 1872C2E5 		strb	r7, [r2, #536]
ARM GAS  C:\Users\ldebo\AppData\Local\Temp\ccrazFu5.s 			page 33


 1825 1908 19B2C2E5 		strb	fp, [r2, #537]
 1826 190c 1A72C2E5 		strb	r7, [r2, #538]
 1827 1910 1B72C2E5 		strb	r7, [r2, #539]
 1828 1914 1D72C2E5 		strb	r7, [r2, #541]
 1829 1918 1E72C2E5 		strb	r7, [r2, #542]
 1830 191c 1F72C2E5 		strb	r7, [r2, #543]
 1831 1920 2072C2E5 		strb	r7, [r2, #544]
 1832 1924 2172C2E5 		strb	r7, [r2, #545]
 1833 1928 2272C2E5 		strb	r7, [r2, #546]
 1834 192c 1C32C2E5 		strb	r3, [r2, #540]
 1835 1930 4A00000A 		beq	.L165
 1836 1934 960C03E0 		mul	r3, r6, ip
 1837 1938 0B40A0E1 		mov	r4, fp
 1838 193c 1850A0E3 		mov	r5, #24
 1839 1940 18308DE5 		str	r3, [sp, #24]
 1840 1944 01904CE2 		sub	r9, ip, #1
 1841 1948 14309DE5 		ldr	r3, [sp, #20]
 1842 194c 8362A0E1 		lsl	r6, r3, #5
 1843 1950 012043E2 		sub	r2, r3, #1
 1844 1954 1C208DE5 		str	r2, [sp, #28]
 1845              	.L172:
 1846 1958 00005CE3 		cmp	ip, #0
 1847 195c 3800000A 		beq	.L173
 1848 1960 1C309DE5 		ldr	r3, [sp, #28]
 1849 1964 7700EFE6 		uxtb	r0, r7
 1850 1968 10209DE5 		ldr	r2, [sp, #16]
 1851 196c 0010A0E3 		mov	r1, #0
 1852 1970 030057E1 		cmp	r7, r3
 1853 1974 093088E2 		add	r3, r8, #9
 1854 1978 1F00000A 		beq	.L175
 1855              	.L176:
 1856 197c 071043E5 		strb	r1, [r3, #-7]
 1857 1980 011081E2 		add	r1, r1, #1
 1858 1984 52A4E7E7 		ubfx	r10, r2, #8, #8
 1859 1988 093083E2 		add	r3, r3, #9
 1860 198c 01005CE1 		cmp	ip, r1
 1861 1990 52B8E7E7 		ubfx	fp, r2, #16, #8
 1862 1994 0DA043E5 		strb	r10, [r3, #-13]
 1863 1998 52ACE7E7 		ubfx	r10, r2, #24, #8
 1864 199c 0E2043E5 		strb	r2, [r3, #-14]
 1865 19a0 124043E5 		strb	r4, [r3, #-18]
 1866 19a4 110043E5 		strb	r0, [r3, #-17]
 1867 19a8 0FE043E5 		strb	lr, [r3, #-15]
 1868 19ac 0A5043E5 		strb	r5, [r3, #-10]
 1869 19b0 0CB043E5 		strb	fp, [r3, #-12]
 1870 19b4 0BA043E5 		strb	r10, [r3, #-11]
 1871 19b8 062082E0 		add	r2, r2, r6
 1872 19bc EEFFFF1A 		bne	.L176
 1873 19c0 1D0000EA 		b	.L171
 1874              	.L183:
 1875 19c4 60319DE5 		ldr	r3, [sp, #352]
 1876 19c8 000053E3 		cmp	r3, #0
 1877 19cc 0200000A 		beq	.L157
 1878 19d0 000000E3 		movw	r0, #:lower16:.LC21
 1879 19d4 000040E3 		movt	r0, #:upper16:.LC21
 1880 19d8 33FF2FE1 		blx	r3
 1881              	.L157:
ARM GAS  C:\Users\ldebo\AppData\Local\Temp\ccrazFu5.s 			page 34


 1882 19dc 41DF8DE2 		add	sp, sp, #260
 1883              		@ sp needed
 1884 19e0 0E8BBDEC 		vldm	sp!, {d8-d14}
 1885 19e4 F08FBDE8 		pop	{r4, r5, r6, r7, r8, r9, r10, fp, pc}
 1886              	.L169:
 1887 19e8 01005CE1 		cmp	ip, r1
 1888 19ec 093083E2 		add	r3, r3, #9
 1889 19f0 0A5043E5 		strb	r5, [r3, #-10]
 1890 19f4 062082E0 		add	r2, r2, r6
 1891 19f8 0F00000A 		beq	.L171
 1892              	.L175:
 1893 19fc 52A4E7E7 		ubfx	r10, r2, #8, #8
 1894 1a00 010059E1 		cmp	r9, r1
 1895 1a04 52B8E7E7 		ubfx	fp, r2, #16, #8
 1896 1a08 04A043E5 		strb	r10, [r3, #-4]
 1897 1a0c 52ACE7E7 		ubfx	r10, r2, #24, #8
 1898 1a10 071043E5 		strb	r1, [r3, #-7]
 1899 1a14 011081E2 		add	r1, r1, #1
 1900 1a18 094043E5 		strb	r4, [r3, #-9]
 1901 1a1c 080043E5 		strb	r0, [r3, #-8]
 1902 1a20 06E043E5 		strb	lr, [r3, #-6]
 1903 1a24 052043E5 		strb	r2, [r3, #-5]
 1904 1a28 03B043E5 		strb	fp, [r3, #-3]
 1905 1a2c 02A043E5 		strb	r10, [r3, #-2]
 1906 1a30 ECFFFF1A 		bne	.L169
 1907 1a34 1920A0E3 		mov	r2, #25
 1908 1a38 012043E5 		strb	r2, [r3, #-1]
 1909              	.L171:
 1910 1a3c 18309DE5 		ldr	r3, [sp, #24]
 1911 1a40 038088E0 		add	r8, r8, r3
 1912              	.L173:
 1913 1a44 10309DE5 		ldr	r3, [sp, #16]
 1914 1a48 017087E2 		add	r7, r7, #1
 1915 1a4c 203083E2 		add	r3, r3, #32
 1916 1a50 10308DE5 		str	r3, [sp, #16]
 1917 1a54 14309DE5 		ldr	r3, [sp, #20]
 1918 1a58 070053E1 		cmp	r3, r7
 1919 1a5c BDFFFF1A 		bne	.L172
 1920              	.L165:
 1921 1a60 2C309DE5 		ldr	r3, [sp, #44]
 1922 1a64 001000E3 		movw	r1, #:lower16:RPi_IO_Base_Addr
 1923 1a68 001040E3 		movt	r1, #:upper16:RPi_IO_Base_Addr
 1924 1a6c 0100A0E3 		mov	r0, #1
 1925 1a70 034048E0 		sub	r4, r8, r3
 1926 1a74 003091E5 		ldr	r3, [r1]
 1927 1a78 24C09DE5 		ldr	ip, [sp, #36]
 1928 1a7c 033583E2 		add	r3, r3, #12582912
 1929 1a80 3B208CE2 		add	r2, ip, #59
 1930 1a84 340183E5 		str	r0, [r3, #308]
 1931 1a88 003091E5 		ldr	r3, [r1]
 1932 1a8c 033583E2 		add	r3, r3, #12582912
 1933 1a90 10C183E5 		str	ip, [r3, #272]
 1934 1a94 003091E5 		ldr	r3, [r1]
 1935 1a98 033583E2 		add	r3, r3, #12582912
 1936 1a9c 082183E5 		str	r2, [r3, #264]
 1937 1aa0 000091E5 		ldr	r0, [r1]
 1938 1aa4 030580E2 		add	r0, r0, #12582912
ARM GAS  C:\Users\ldebo\AppData\Local\Temp\ccrazFu5.s 			page 35


 1939 1aa8 012C80E2 		add	r2, r0, #256
 1940              	.L178:
 1941 1aac 003092E5 		ldr	r3, [r2]
 1942 1ab0 200013E3 		tst	r3, #32
 1943 1ab4 FCFFFF1A 		bne	.L178
 1944 1ab8 4D2F80E2 		add	r2, r0, #308
 1945              	.L179:
 1946 1abc 003092E5 		ldr	r3, [r2]
 1947 1ac0 000053E3 		cmp	r3, #0
 1948 1ac4 FCFFFF0A 		beq	.L179
 1949 1ac8 30C09DE5 		ldr	ip, [sp, #48]
 1950 1acc 2030A0E3 		mov	r3, #32
 1951 1ad0 003180E5 		str	r3, [r0, #256]
 1952 1ad4 0100A0E3 		mov	r0, #1
 1953 1ad8 003091E5 		ldr	r3, [r1]
 1954 1adc 0C2084E0 		add	r2, r4, ip
 1955 1ae0 033583E2 		add	r3, r3, #12582912
 1956 1ae4 380183E5 		str	r0, [r3, #312]
 1957 1ae8 003091E5 		ldr	r3, [r1]
 1958 1aec 033583E2 		add	r3, r3, #12582912
 1959 1af0 14C183E5 		str	ip, [r3, #276]
 1960 1af4 003091E5 		ldr	r3, [r1]
 1961 1af8 033583E2 		add	r3, r3, #12582912
 1962 1afc 0C2183E5 		str	r2, [r3, #268]
 1963 1b00 001091E5 		ldr	r1, [r1]
 1964 1b04 031581E2 		add	r1, r1, #12582912
 1965 1b08 412F81E2 		add	r2, r1, #260
 1966              	.L180:
 1967 1b0c 003092E5 		ldr	r3, [r2]
 1968 1b10 200013E3 		tst	r3, #32
 1969 1b14 FCFFFF1A 		bne	.L180
 1970 1b18 4E2F81E2 		add	r2, r1, #312
 1971              	.L181:
 1972 1b1c 003092E5 		ldr	r3, [r2]
 1973 1b20 000053E3 		cmp	r3, #0
 1974 1b24 FCFFFF0A 		beq	.L181
 1975 1b28 20509DE5 		ldr	r5, [sp, #32]
 1976 1b2c 0440A0E3 		mov	r4, #4
 1977 1b30 2030A0E3 		mov	r3, #32
 1978 1b34 0E20A0E3 		mov	r2, #14
 1979 1b38 043181E5 		str	r3, [r1, #260]
 1980 1b3c 0000A0E3 		mov	r0, #0
 1981 1b40 04508DE5 		str	r5, [sp, #4]
 1982 1b44 0430A0E1 		mov	r3, r4
 1983 1b48 00408DE5 		str	r4, [sp]
 1984 1b4c 0410A0E1 		mov	r1, r4
 1985 1b50 032040E3 		movt	r2, 3
 1986 1b54 FEFFFFEB 		bl	mailbox_tag_message
 1987 1b58 00408DE5 		str	r4, [sp]
 1988 1b5c 0F20A0E3 		mov	r2, #15
 1989 1b60 04508DE5 		str	r5, [sp, #4]
 1990 1b64 0430A0E1 		mov	r3, r4
 1991 1b68 032040E3 		movt	r2, 3
 1992 1b6c 0410A0E1 		mov	r1, r4
 1993 1b70 0000A0E3 		mov	r0, #0
 1994 1b74 FEFFFFEB 		bl	mailbox_tag_message
 1995 1b78 41DF8DE2 		add	sp, sp, #260
ARM GAS  C:\Users\ldebo\AppData\Local\Temp\ccrazFu5.s 			page 36


 1996              		@ sp needed
 1997 1b7c 0E8BBDEC 		vldm	sp!, {d8-d14}
 1998 1b80 F08FBDE8 		pop	{r4, r5, r6, r7, r8, r9, r10, fp, pc}
 1999              	.L184:
 2000 1b84 24008DE5 		str	r0, [sp, #36]
 2001 1b88 E23CA0E3 		mov	r3, #57856
 2002 1b8c 30308DE5 		str	r3, [sp, #48]
 2003 1b90 8030A0E3 		mov	r3, #128
 2004 1b94 2C308DE5 		str	r3, [sp, #44]
 2005 1b98 063AA0E3 		mov	r3, #24576
 2006 1b9c 10308DE5 		str	r3, [sp, #16]
 2007 1ba0 FF8CA0E3 		mov	r8, #65280
 2008 1ba4 FE9CA0E3 		mov	r9, #65024
 2009 1ba8 027CA0E3 		mov	r7, #512
 2010 1bac 1EFDFFEA 		b	.L162
 2011              		.size	RenderModel, .-RenderModel
 2012              		.align	2
 2013              		.global	CreateVertexData
 2014              		.syntax unified
 2015              		.arm
 2016              		.fpu neon
 2017              		.type	CreateVertexData, %function
 2018              	CreateVertexData:
 2019              		@ args = 0, pretend = 0, frame = 256
 2020              		@ frame_needed = 0, uses_anonymous_args = 0
 2021 1bb0 F0472DE9 		push	{r4, r5, r6, r7, r8, r9, r10, lr}
 2022 1bb4 004000E3 		movw	r4, #:lower16:.LANCHOR0
 2023 1bb8 0A8B2DED 		vpush.64	{d8, d9, d10, d11, d12}
 2024 1bbc F10A9FED 		vldr.32	s0, .L228
 2025 1bc0 11DE4DE2 		sub	sp, sp, #272
 2026 1bc4 004040E3 		movt	r4, #:upper16:.LANCHOR0
 2027 1bc8 0150A0E1 		mov	r5, r1
 2028 1bcc 0070A0E1 		mov	r7, r0
 2029 1bd0 0260A0E1 		mov	r6, r2
 2030 1bd4 FEFFFFEB 		bl	sinf
 2031 1bd8 408AB0EE 		vmov.f32	s16, s0
 2032 1bdc E90A9FED 		vldr.32	s0, .L228
 2033 1be0 FEFFFFEB 		bl	cosf
 2034 1be4 0F00B4E8 		ldmia	r4!, {r0, r1, r2, r3}
 2035 1be8 407AF0EE 		vmov.f32	s15, s0
 2036 1bec D0C08DE2 		add	ip, sp, #208
 2037 1bf0 487AB1EE 		vneg.f32	s14, s16
 2038 1bf4 0C80A0E1 		mov	r8, ip
 2039 1bf8 0F00ACE8 		stmia	ip!, {r0, r1, r2, r3}
 2040 1bfc 10E08DE2 		add	lr, sp, #16
 2041 1c00 0F00B4E8 		ldmia	r4!, {r0, r1, r2, r3}
 2042 1c04 DF0A9FED 		vldr.32	s0, .L228
 2043 1c08 0F00ACE8 		stmia	ip!, {r0, r1, r2, r3}
 2044 1c0c 0F00B4E8 		ldmia	r4!, {r0, r1, r2, r3}
 2045 1c10 0F00ACE8 		stmia	ip!, {r0, r1, r2, r3}
 2046 1c14 0F0094E8 		ldm	r4, {r0, r1, r2, r3}
 2047 1c18 0F008CE8 		stm	ip, {r0, r1, r2, r3}
 2048 1c1c 397ACDED 		vstr.32	s15, [sp, #228]
 2049 1c20 3E7ACDED 		vstr.32	s15, [sp, #248]
 2050 1c24 3A7A8DED 		vstr.32	s14, [sp, #232]
 2051 1c28 3D8A8DED 		vstr.32	s16, [sp, #244]
 2052 1c2c 0F00B8E8 		ldmia	r8!, {r0, r1, r2, r3}
ARM GAS  C:\Users\ldebo\AppData\Local\Temp\ccrazFu5.s 			page 37


 2053 1c30 0F00AEE8 		stmia	lr!, {r0, r1, r2, r3}
 2054 1c34 0F00B8E8 		ldmia	r8!, {r0, r1, r2, r3}
 2055 1c38 0F00AEE8 		stmia	lr!, {r0, r1, r2, r3}
 2056 1c3c 0F00B8E8 		ldmia	r8!, {r0, r1, r2, r3}
 2057 1c40 0F00AEE8 		stmia	lr!, {r0, r1, r2, r3}
 2058 1c44 0F009CE8 		ldm	ip, {r0, r1, r2, r3}
 2059 1c48 0F008EE8 		stm	lr, {r0, r1, r2, r3}
 2060 1c4c FEFFFFEB 		bl	sinf
 2061 1c50 40BAB0EE 		vmov.f32	s22, s0
 2062 1c54 CB0A9FED 		vldr.32	s0, .L228
 2063 1c58 FEFFFFEB 		bl	cosf
 2064 1c5c 000055E3 		cmp	r5, #0
 2065 1c60 C300000A 		beq	.L216
 2066 1c64 C87ADFED 		vldr.32	s15, .L228+4
 2067 1c68 10C08DE2 		add	ip, sp, #16
 2068 1c6c 4B4AB1EE 		vneg.f32	s8, s22
 2069 1c70 50808DE2 		add	r8, sp, #80
 2070 1c74 0F00BCE8 		ldmia	ip!, {r0, r1, r2, r3}
 2071 1c78 309044E2 		sub	r9, r4, #48
 2072 1c7c 90E08DE2 		add	lr, sp, #144
 2073 1c80 0F00A8E8 		stmia	r8!, {r0, r1, r2, r3}
 2074 1c84 0EA0A0E1 		mov	r10, lr
 2075 1c88 0F00BCE8 		ldmia	ip!, {r0, r1, r2, r3}
 2076 1c8c 0F00A8E8 		stmia	r8!, {r0, r1, r2, r3}
 2077 1c90 0F00BCE8 		ldmia	ip!, {r0, r1, r2, r3}
 2078 1c94 0F00A8E8 		stmia	r8!, {r0, r1, r2, r3}
 2079 1c98 0F009CE8 		ldm	ip, {r0, r1, r2, r3}
 2080 1c9c D0C08DE2 		add	ip, sp, #208
 2081 1ca0 0F0088E8 		stm	r8, {r0, r1, r2, r3}
 2082 1ca4 208085E2 		add	r8, r5, #32
 2083 1ca8 0F00B9E8 		ldmia	r9!, {r0, r1, r2, r3}
 2084 1cac 0F00AEE8 		stmia	lr!, {r0, r1, r2, r3}
 2085 1cb0 0F00B9E8 		ldmia	r9!, {r0, r1, r2, r3}
 2086 1cb4 0F00AEE8 		stmia	lr!, {r0, r1, r2, r3}
 2087 1cb8 0F00B9E8 		ldmia	r9!, {r0, r1, r2, r3}
 2088 1cbc 0C90A0E1 		mov	r9, ip
 2089 1cc0 0F00AEE8 		stmia	lr!, {r0, r1, r2, r3}
 2090 1cc4 0F0094E8 		ldm	r4, {r0, r1, r2, r3}
 2091 1cc8 0F008EE8 		stm	lr, {r0, r1, r2, r3}
 2092 1ccc 148ADDED 		vldr.32	s17, [sp, #80]
 2093 1cd0 181ADDED 		vldr.32	s3, [sp, #96]
 2094 1cd4 191A9DED 		vldr.32	s2, [sp, #100]
 2095 1cd8 1DCA9DED 		vldr.32	s24, [sp, #116]
 2096 1cdc 276A61EE 		vmul.f32	s13, s2, s15
 2097 1ce0 272A6CEE 		vmul.f32	s5, s24, s15
 2098 1ce4 A75A61EE 		vmul.f32	s11, s3, s15
 2099 1ce8 153ADDED 		vldr.32	s7, [sp, #84]
 2100 1cec A74A68EE 		vmul.f32	s9, s17, s15
 2101 1cf0 A75A23EE 		vmul.f32	s10, s7, s15
 2102 1cf4 669AF0EE 		vmov.f32	s19, s13
 2103 1cf8 660AF0EE 		vmov.f32	s1, s13
 2104 1cfc A66A75EE 		vadd.f32	s13, s11, s13
 2105 1d00 815A75EE 		vadd.f32	s11, s11, s2
 2106 1d04 621AB0EE 		vmov.f32	s2, s5
 2107 1d08 1C2A9DED 		vldr.32	s4, [sp, #112]
 2108 1d0c 16BADDED 		vldr.32	s23, [sp, #88]
 2109 1d10 219A40EE 		vmla.f32	s19, s0, s3
ARM GAS  C:\Users\ldebo\AppData\Local\Temp\ccrazFu5.s 			page 38


 2110 1d14 A78A2BEE 		vmul.f32	s16, s23, s15
 2111 1d18 A33A74EE 		vadd.f32	s7, s9, s7
 2112 1d1c 210A44EE 		vmla.f32	s1, s8, s3
 2113 1d20 854A74EE 		vadd.f32	s9, s9, s10
 2114 1d24 041A02EE 		vmla.f32	s2, s4, s8
 2115 1d28 219A9DED 		vldr.32	s18, [sp, #132]
 2116 1d2c 1A7A9DED 		vldr.32	s14, [sp, #104]
 2117 1d30 276A29EE 		vmul.f32	s12, s18, s15
 2118 1d34 23AA78EE 		vadd.f32	s21, s16, s7
 2119 1d38 070A40EE 		vmla.f32	s1, s0, s14
 2120 1d3c 883A74EE 		vadd.f32	s7, s9, s16
 2121 1d40 079A4BEE 		vmla.f32	s19, s22, s14
 2122 1d44 274A62EE 		vmul.f32	s9, s4, s15
 2123 1d48 277A27EE 		vmul.f32	s14, s14, s15
 2124 1d4c 621AF0EE 		vmov.f32	s3, s5
 2125 1d50 203A9DED 		vldr.32	s6, [sp, #128]
 2126 1d54 17AA9DED 		vldr.32	s20, [sp, #92]
 2127 1d58 268A37EE 		vadd.f32	s16, s14, s13
 2128 1d5c 001A42EE 		vmla.f32	s3, s4, s0
 2129 1d60 246A7CEE 		vadd.f32	s13, s24, s9
 2130 1d64 412AB0EE 		vmov.f32	s4, s2
 2131 1d68 251A37EE 		vadd.f32	s2, s14, s11
 2132 1d6c A47A32EE 		vadd.f32	s14, s5, s9
 2133 1d70 464AF0EE 		vmov.f32	s9, s12
 2134 1d74 462AF0EE 		vmov.f32	s5, s12
 2135 1d78 275A63EE 		vmul.f32	s11, s6, s15
 2136 1d7c 044A43EE 		vmla.f32	s9, s6, s8
 2137 1d80 002A43EE 		vmla.f32	s5, s6, s0
 2138 1d84 256A36EE 		vadd.f32	s12, s12, s11
 2139 1d88 255A79EE 		vadd.f32	s11, s18, s11
 2140 1d8c 643AB0EE 		vmov.f32	s6, s9
 2141 1d90 454AF0EE 		vmov.f32	s9, s10
 2142 1d94 285A00EE 		vmla.f32	s10, s0, s17
 2143 1d98 284A44EE 		vmla.f32	s9, s8, s17
 2144 1d9c 2B5A0BEE 		vmla.f32	s10, s22, s23
 2145 1da0 8A8A73EE 		vadd.f32	s17, s7, s20
 2146 1da4 27AA2AEE 		vmul.f32	s20, s20, s15
 2147 1da8 278ACDED 		vstr.32	s17, [sp, #156]
 2148 1dac 8A3A7AEE 		vadd.f32	s7, s21, s20
 2149 1db0 644AB0EE 		vmov.f32	s8, s9
 2150 1db4 1E4ADDED 		vldr.32	s9, [sp, #120]
 2151 1db8 459AB0EE 		vmov.f32	s18, s10
 2152 1dbc 242A00EE 		vmla.f32	s4, s0, s9
 2153 1dc0 225A9DED 		vldr.32	s10, [sp, #136]
 2154 1dc4 241A4BEE 		vmla.f32	s3, s22, s9
 2155 1dc8 A74A64EE 		vmul.f32	s9, s9, s15
 2156 1dcc 053A00EE 		vmla.f32	s6, s0, s10
 2157 1dd0 052A4BEE 		vmla.f32	s5, s22, s10
 2158 1dd4 275A25EE 		vmul.f32	s10, s10, s15
 2159 1dd8 2B4A00EE 		vmla.f32	s8, s0, s23
 2160 1ddc 877A34EE 		vadd.f32	s14, s9, s14
 2161 1de0 23AADDED 		vldr.32	s21, [sp, #140]
 2162 1de4 A44A76EE 		vadd.f32	s9, s13, s9
 2163 1de8 066A35EE 		vadd.f32	s12, s10, s12
 2164 1dec 1F6ADDED 		vldr.32	s13, [sp, #124]
 2165 1df0 855A35EE 		vadd.f32	s10, s11, s10
 2166 1df4 1B5ADDED 		vldr.32	s11, [sp, #108]
ARM GAS  C:\Users\ldebo\AppData\Local\Temp\ccrazFu5.s 			page 39


 2167 1df8 877A36EE 		vadd.f32	s14, s13, s14
 2168 1dfc 888A35EE 		vadd.f32	s16, s11, s16
 2169 1e00 A76A66EE 		vmul.f32	s13, s13, s15
 2170 1e04 A75A65EE 		vmul.f32	s11, s11, s15
 2171 1e08 A77A6AEE 		vmul.f32	s15, s21, s15
 2172 1e0c 866A3AEE 		vadd.f32	s12, s21, s12
 2173 1e10 A61A71EE 		vadd.f32	s3, s3, s13
 2174 1e14 A90A35EE 		vadd.f32	s0, s11, s19
 2175 1e18 A50A70EE 		vadd.f32	s1, s1, s11
 2176 1e1c 822A36EE 		vadd.f32	s4, s13, s4
 2177 1e20 A72A72EE 		vadd.f32	s5, s5, s15
 2178 1e24 833A37EE 		vadd.f32	s6, s15, s6
 2179 1e28 255A71EE 		vadd.f32	s11, s2, s11
 2180 1e2c 857A77EE 		vadd.f32	s15, s15, s10
 2181 1e30 A46A76EE 		vadd.f32	s13, s13, s9
 2182 1e34 0A4A34EE 		vadd.f32	s8, s8, s20
 2183 1e38 095A3AEE 		vadd.f32	s10, s20, s18
 2184 1e3c 253ACDED 		vstr.32	s7, [sp, #148]
 2185 1e40 280A8DED 		vstr.32	s0, [sp, #160]
 2186 1e44 2A0ACDED 		vstr.32	s1, [sp, #168]
 2187 1e48 295ACDED 		vstr.32	s11, [sp, #164]
 2188 1e4c 2C1ACDED 		vstr.32	s3, [sp, #176]
 2189 1e50 2F7A8DED 		vstr.32	s14, [sp, #188]
 2190 1e54 2E2A8DED 		vstr.32	s4, [sp, #184]
 2191 1e58 2D6ACDED 		vstr.32	s13, [sp, #180]
 2192 1e5c 302ACDED 		vstr.32	s5, [sp, #192]
 2193 1e60 336A8DED 		vstr.32	s12, [sp, #204]
 2194 1e64 323A8DED 		vstr.32	s6, [sp, #200]
 2195 1e68 317ACDED 		vstr.32	s15, [sp, #196]
 2196 1e6c 264A8DED 		vstr.32	s8, [sp, #152]
 2197 1e70 245A8DED 		vstr.32	s10, [sp, #144]
 2198 1e74 2B8A8DED 		vstr.32	s16, [sp, #172]
 2199 1e78 0F00BAE8 		ldmia	r10!, {r0, r1, r2, r3}
 2200 1e7c 0F00ACE8 		stmia	ip!, {r0, r1, r2, r3}
 2201 1e80 0F00BAE8 		ldmia	r10!, {r0, r1, r2, r3}
 2202 1e84 0F00ACE8 		stmia	ip!, {r0, r1, r2, r3}
 2203 1e88 0F00BAE8 		ldmia	r10!, {r0, r1, r2, r3}
 2204 1e8c 0F00ACE8 		stmia	ip!, {r0, r1, r2, r3}
 2205 1e90 0F009EE8 		ldm	lr, {r0, r1, r2, r3}
 2206 1e94 0F008CE8 		stm	ip, {r0, r1, r2, r3}
 2207 1e98 0F00B9E8 		ldmia	r9!, {r0, r1, r2, r3}
 2208 1e9c 0F00A8E8 		stmia	r8!, {r0, r1, r2, r3}
 2209 1ea0 0F00B9E8 		ldmia	r9!, {r0, r1, r2, r3}
 2210 1ea4 0F00A8E8 		stmia	r8!, {r0, r1, r2, r3}
 2211 1ea8 0F00B9E8 		ldmia	r9!, {r0, r1, r2, r3}
 2212 1eac 0F00A8E8 		stmia	r8!, {r0, r1, r2, r3}
 2213 1eb0 0F009CE8 		ldm	ip, {r0, r1, r2, r3}
 2214 1eb4 0F0088E8 		stm	r8, {r0, r1, r2, r3}
 2215 1eb8 0020A0E3 		mov	r2, #0
 2216 1ebc 0510A0E1 		mov	r1, r5
 2217 1ec0 0700A0E1 		mov	r0, r7
 2218 1ec4 4DF8FFEB 		bl	ParseWaveFrontMesh
 2219 1ec8 7C2095E5 		ldr	r2, [r5, #124]
 2220 1ecc 0610A0E3 		mov	r1, #6
 2221 1ed0 780095E5 		ldr	r0, [r5, #120]
 2222 1ed4 03C0A0E3 		mov	ip, #3
 2223 1ed8 803095E5 		ldr	r3, [r5, #128]
ARM GAS  C:\Users\ldebo\AppData\Local\Temp\ccrazFu5.s 			page 40


 2224 1edc 09E0A0E3 		mov	lr, #9
 2225 1ee0 910202E0 		mul	r2, r1, r2
 2226 1ee4 9C2020E0 		mla	r0, ip, r0, r2
 2227 1ee8 602095E5 		ldr	r2, [r5, #96]
 2228 1eec 24C0A0E3 		mov	ip, #36
 2229 1ef0 9E0323E0 		mla	r3, lr, r3, r0
 2230 1ef4 9C3222E0 		mla	r2, ip, r2, r3
 2231 1ef8 0C3085E5 		str	r3, [r5, #12]
 2232 1efc 1830A0E3 		mov	r3, #24
 2233 1f00 04208DE5 		str	r2, [sp, #4]
 2234 1f04 012AA0E3 		mov	r2, #4096
 2235 1f08 0C308DE5 		str	r3, [sp, #12]
 2236 1f0c 0C30A0E3 		mov	r3, #12
 2237 1f10 08208DE5 		str	r2, [sp, #8]
 2238 1f14 0320A0E1 		mov	r2, r3
 2239 1f18 00308DE5 		str	r3, [sp]
 2240 1f1c 90008DE2 		add	r0, sp, #144
 2241 1f20 032040E3 		movt	r2, 3
 2242 1f24 FEFFFFEB 		bl	mailbox_tag_message
 2243 1f28 004050E2 		subs	r4, r0, #0
 2244 1f2c 0D00000A 		beq	.L213
 2245 1f30 9C309DE5 		ldr	r3, [sp, #156]
 2246 1f34 003085E5 		str	r3, [r5]
 2247 1f38 000053E3 		cmp	r3, #0
 2248 1f3c 1300001A 		bne	.L226
 2249 1f40 000056E3 		cmp	r6, #0
 2250 1f44 0A00000A 		beq	.L216
 2251              	.L227:
 2252 1f48 000000E3 		movw	r0, #:lower16:.LC22
 2253 1f4c 0040A0E3 		mov	r4, #0
 2254 1f50 000040E3 		movt	r0, #:upper16:.LC22
 2255 1f54 36FF2FE1 		blx	r6
 2256 1f58 0400A0E1 		mov	r0, r4
 2257 1f5c 11DE8DE2 		add	sp, sp, #272
 2258              		@ sp needed
 2259 1f60 0A8BBDEC 		vldm	sp!, {d8-d12}
 2260 1f64 F087BDE8 		pop	{r4, r5, r6, r7, r8, r9, r10, pc}
 2261              	.L213:
 2262 1f68 004085E5 		str	r4, [r5]
 2263 1f6c 000056E3 		cmp	r6, #0
 2264 1f70 F4FFFF1A 		bne	.L227
 2265              	.L216:
 2266 1f74 0040A0E3 		mov	r4, #0
 2267 1f78 0400A0E1 		mov	r0, r4
 2268 1f7c 11DE8DE2 		add	sp, sp, #272
 2269              		@ sp needed
 2270 1f80 0A8BBDEC 		vldm	sp!, {d8-d12}
 2271 1f84 F087BDE8 		pop	{r4, r5, r6, r7, r8, r9, r10, pc}
 2272              	.L229:
 2273              		.align	2
 2274              	.L228:
 2275 1f88 DA0F493F 		.word	1061752794
 2276 1f8c 00000000 		.word	0
 2277              	.L226:
 2278 1f90 04308DE5 		str	r3, [sp, #4]
 2279 1f94 0D20A0E3 		mov	r2, #13
 2280 1f98 032040E3 		movt	r2, 3
ARM GAS  C:\Users\ldebo\AppData\Local\Temp\ccrazFu5.s 			page 41


 2281 1f9c 0430A0E3 		mov	r3, #4
 2282 1fa0 00308DE5 		str	r3, [sp]
 2283 1fa4 0310A0E1 		mov	r1, r3
 2284 1fa8 90008DE2 		add	r0, sp, #144
 2285 1fac FEFFFFEB 		bl	mailbox_tag_message
 2286 1fb0 000050E3 		cmp	r0, #0
 2287 1fb4 9C009D15 		ldrne	r0, [sp, #156]
 2288 1fb8 040085E5 		str	r0, [r5, #4]
 2289 1fbc FEFFFFEB 		bl	GPUaddrToARMaddr
 2290 1fc0 0C2095E5 		ldr	r2, [r5, #12]
 2291 1fc4 0060A0E1 		mov	r6, r0
 2292 1fc8 60C095E5 		ldr	ip, [r5, #96]
 2293 1fcc 1830A0E3 		mov	r3, #24
 2294 1fd0 02E086E0 		add	lr, r6, r2
 2295 1fd4 0700A0E1 		mov	r0, r7
 2296 1fd8 93EC2CE0 		mla	ip, r3, ip, lr
 2297 1fdc 043095E5 		ldr	r3, [r5, #4]
 2298 1fe0 0510A0E1 		mov	r1, r5
 2299 1fe4 086085E5 		str	r6, [r5, #8]
 2300 1fe8 023083E0 		add	r3, r3, r2
 2301 1fec 0120A0E3 		mov	r2, #1
 2302 1ff0 18E085E5 		str	lr, [r5, #24]
 2303 1ff4 1CC085E5 		str	ip, [r5, #28]
 2304 1ff8 143085E5 		str	r3, [r5, #20]
 2305 1ffc FFF7FFEB 		bl	ParseWaveFrontMesh
 2306 2000 0400A0E1 		mov	r0, r4
 2307 2004 11DE8DE2 		add	sp, sp, #272
 2308              		@ sp needed
 2309 2008 0A8BBDEC 		vldm	sp!, {d8-d12}
 2310 200c F087BDE8 		pop	{r4, r5, r6, r7, r8, r9, r10, pc}
 2311              		.size	CreateVertexData, .-CreateVertexData
 2312              		.comm	rotMat,64,4
 2313              		.global	angle
 2314              		.global	IdentityMatrix3D
 2315              		.global	fShaderStr
 2316              		.global	vShaderStr
 2317              		.section	.rodata
 2318              		.align	2
 2319              		.set	.LANCHOR0,. + 0
 2320              		.type	IdentityMatrix3D, %object
 2321              		.size	IdentityMatrix3D, 64
 2322              	IdentityMatrix3D:
 2323 0000 0000803F 		.word	1065353216
 2324 0004 00000000 		.word	0
 2325 0008 00000000 		.word	0
 2326 000c 00000000 		.word	0
 2327 0010 00000000 		.word	0
 2328 0014 0000803F 		.word	1065353216
 2329 0018 00000000 		.word	0
 2330 001c 00000000 		.word	0
 2331 0020 00000000 		.word	0
 2332 0024 00000000 		.word	0
 2333 0028 0000803F 		.word	1065353216
 2334 002c 00000000 		.word	0
 2335 0030 00000000 		.word	0
 2336 0034 00000000 		.word	0
 2337 0038 00000000 		.word	0
ARM GAS  C:\Users\ldebo\AppData\Local\Temp\ccrazFu5.s 			page 42


 2338 003c 0000803F 		.word	1065353216
 2339              		.data
 2340              		.align	2
 2341              		.type	fShaderStr, %object
 2342              		.size	fShaderStr, 372
 2343              	fShaderStr:
 2344 0000 70726563 		.ascii	"precision mediump float;                           "
 2344      6973696F 
 2344      6E206D65 
 2344      6469756D 
 2344      7020666C 
 2345 0033 200A7661 		.ascii	" \012varying vec2 v_texCoord;                      "
 2345      7279696E 
 2345      67207665 
 2345      63322076 
 2345      5F746578 
 2346 0063 20202020 		.ascii	"      \012uniform sampler2D s_texture;             "
 2346      20200A75 
 2346      6E69666F 
 2346      726D2073 
 2346      616D706C 
 2347 0093 20202020 		.ascii	"           \012void main()                         "
 2347      20202020 
 2347      2020200A 
 2347      766F6964 
 2347      206D6169 
 2348 00c3 20202020 		.ascii	"                \012{                              "
 2348      20202020 
 2348      20202020 
 2348      20202020 
 2348      0A7B2020 
 2349 00f3 20202020 		.ascii	"                     \012  gl_FragColor = texture2D"
 2349      20202020 
 2349      20202020 
 2349      20202020 
 2349      20202020 
 2350 0123 2820735F 		.ascii	"( s_texture, v_texCoord );\012}                    "
 2350      74657874 
 2350      7572652C 
 2350      20765F74 
 2350      6578436F 
 2351 0153 20202020 		.ascii	"                               \012\000"
 2351      20202020 
 2351      20202020 
 2351      20202020 
 2351      20202020 
 2352              		.type	vShaderStr, %object
 2353              		.size	vShaderStr, 281
 2354              	vShaderStr:
 2355 0174 756E6966 		.ascii	"uniform mat4 u_rotateMx;  \012attribute vec4 a_posi"
 2355      6F726D20 
 2355      6D617434 
 2355      20755F72 
 2355      6F746174 
 2356 01a4 74696F6E 		.ascii	"tion;   \012attribute vec2 a_texCoord;   \012varyin"
 2356      3B202020 
 2356      0A617474 
ARM GAS  C:\Users\ldebo\AppData\Local\Temp\ccrazFu5.s 			page 43


 2356      72696275 
 2356      74652076 
 2357 01d1 67207665 		.ascii	"g vec2 v_texCoord;     \012void main()             "
 2357      63322076 
 2357      5F746578 
 2357      436F6F72 
 2357      643B2020 
 2358 0201 20202020 		.ascii	"     \012{                            \012   gl_Pos"
 2358      200A7B20 
 2358      20202020 
 2358      20202020 
 2358      20202020 
 2359 022e 6974696F 		.ascii	"ition = u_rotateMx * a_position; \012   v_texCoord "
 2359      6E203D20 
 2359      755F726F 
 2359      74617465 
 2359      4D78202A 
 2360 025e 3D20615F 		.ascii	"= a_texCoord;  \012}                            \012"
 2360      74657843 
 2360      6F6F7264 
 2360      3B20200A 
 2360      7D202020 
 2361 028c 00       		.ascii	"\000"
 2362              		.bss
 2363              		.align	2
 2364              		.set	.LANCHOR1,. + 0
 2365              		.type	angle, %object
 2366              		.size	angle, 4
 2367              	angle:
 2368 0000 00000000 		.space	4
 2369              		.section	.rodata.str1.4,"aMS",%progbits,1
 2370              		.align	2
 2371              	.LC0:
 2372 0000 79657300 		.ascii	"yes\000"
 2373              	.LC1:
 2374 0004 6E6F00   		.ascii	"no\000"
 2375 0007 00       		.space	1
 2376              	.LC2:
 2377 0008 25662025 		.ascii	"%f %f %f %f\000"
 2377      66202566 
 2377      20256600 
 2378              	.LC3:
 2379 0014 25662025 		.ascii	"%f %f %f\000"
 2379      66202566 
 2379      00
 2380 001d 000000   		.space	3
 2381              	.LC4:
 2382 0020 4572726F 		.ascii	"Error reading vertex data!\012\000"
 2382      72207265 
 2382      6164696E 
 2382      67207665 
 2382      72746578 
 2383              	.LC5:
 2384 003c 5761726E 		.ascii	"Warning: unknown token \"%s\"! (ignoring)\012\000"
 2384      696E673A 
 2384      20756E6B 
 2384      6E6F776E 
ARM GAS  C:\Users\ldebo\AppData\Local\Temp\ccrazFu5.s 			page 44


 2384      20746F6B 
 2385 0065 000000   		.space	3
 2386              	.LC6:
 2387 0068 25642F25 		.ascii	"%d/%d/%d\000"
 2387      642F2564 
 2387      00
 2388 0071 000000   		.space	3
 2389              	.LC7:
 2390 0074 25642F2F 		.ascii	"%d//%d\000"
 2390      256400
 2391 007b 00       		.space	1
 2392              	.LC8:
 2393 007c 25642F25 		.ascii	"%d/%d\000"
 2393      6400
 2394 0082 0000     		.space	2
 2395              	.LC9:
 2396 0084 256400   		.ascii	"%d\000"
 2397 0087 00       		.space	1
 2398              	.LC10:
 2399 0088 4572726F 		.ascii	"Error: found face with no vertex!\012\000"
 2399      723A2066 
 2399      6F756E64 
 2399      20666163 
 2399      65207769 
 2400 00ab 00       		.space	1
 2401              	.LC11:
 2402 00ac 4572726F 		.ascii	"Error: faces can only be triangles or quads !\012\000"
 2402      723A2066 
 2402      61636573 
 2402      2063616E 
 2402      206F6E6C 
 2403 00db 00       		.space	1
 2404              	.LC12:
 2405 00dc 6572726F 		.ascii	"error: contradiction between collected info!\012\000"
 2405      723A2063 
 2405      6F6E7472 
 2405      61646963 
 2405      74696F6E 
 2406 010a 0000     		.space	2
 2407              	.LC13:
 2408 010c 2020202A 		.ascii	"   * %i texture coords.\012\000"
 2408      20256920 
 2408      74657874 
 2408      75726520 
 2408      636F6F72 
 2409 0125 000000   		.space	3
 2410              	.LC14:
 2411 0128 2020202A 		.ascii	"   * %i normal vectors\012\000"
 2411      20256920 
 2411      6E6F726D 
 2411      616C2076 
 2411      6563746F 
 2412              	.LC15:
 2413 0140 6572726F 		.ascii	"error: no vertex found!\012\000"
 2413      723A206E 
 2413      6F207665 
 2413      72746578 
ARM GAS  C:\Users\ldebo\AppData\Local\Temp\ccrazFu5.s 			page 45


 2413      20666F75 
 2414 0159 000000   		.space	3
 2415              	.LC16:
 2416 015c 66697273 		.ascii	"first pass results: found\012\000"
 2416      74207061 
 2416      73732072 
 2416      6573756C 
 2416      74733A20 
 2417 0177 00       		.space	1
 2418              	.LC17:
 2419 0178 2020202A 		.ascii	"   * %i vertices\012\000"
 2419      20256920 
 2419      76657274 
 2419      69636573 
 2419      0A00
 2420 018a 0000     		.space	2
 2421              	.LC18:
 2422 018c 2020202A 		.ascii	"   * %i faces being %i triangles, %i Quads, %i Poly"
 2422      20256920 
 2422      66616365 
 2422      73206265 
 2422      696E6720 
 2423 01bf 676F6E73 		.ascii	"gons\012\000"
 2423      0A00
 2424 01c5 000000   		.space	3
 2425              	.LC19:
 2426 01c8 2020202A 		.ascii	"   * has texture coords.: %s\012\000"
 2426      20686173 
 2426      20746578 
 2426      74757265 
 2426      20636F6F 
 2427 01e6 0000     		.space	2
 2428              	.LC20:
 2429 01e8 2020202A 		.ascii	"   * has normals: %s\012\000"
 2429      20686173 
 2429      206E6F72 
 2429      6D616C73 
 2429      3A202573 
 2430 01fe 0000     		.space	2
 2431              	.LC21:
 2432 0200 4572726F 		.ascii	"Error: Unable to allocate memory\000"
 2432      723A2055 
 2432      6E61626C 
 2432      6520746F 
 2432      20616C6C 
 2433 0221 000000   		.space	3
 2434              	.LC22:
 2435 0224 4572726F 		.ascii	"Error: Unable to allocate vertex data memory\000"
 2435      723A2055 
 2435      6E61626C 
 2435      6520746F 
 2435      20616C6C 
 2436              		.ident	"GCC: (GNU Tools for ARM Embedded Processors 6-2017-q2-update) 6.3.1 20170620 (release) [AR
ARM GAS  C:\Users\ldebo\AppData\Local\Temp\ccrazFu5.s 			page 46


DEFINED SYMBOLS
                            *ABS*:00000000 rpi-GLES.c
C:\Users\ldebo\AppData\Local\Temp\ccrazFu5.s:18     .text:00000000 $a
C:\Users\ldebo\AppData\Local\Temp\ccrazFu5.s:23     .text:00000000 ParseWaveFrontMesh
C:\Users\ldebo\AppData\Local\Temp\ccrazFu5.s:2415   .rodata.str1.4:0000015c .LC16
C:\Users\ldebo\AppData\Local\Temp\ccrazFu5.s:2373   .rodata.str1.4:00000004 .LC1
C:\Users\ldebo\AppData\Local\Temp\ccrazFu5.s:2371   .rodata.str1.4:00000000 .LC0
C:\Users\ldebo\AppData\Local\Temp\ccrazFu5.s:2418   .rodata.str1.4:00000178 .LC17
C:\Users\ldebo\AppData\Local\Temp\ccrazFu5.s:2407   .rodata.str1.4:0000010c .LC13
C:\Users\ldebo\AppData\Local\Temp\ccrazFu5.s:2410   .rodata.str1.4:00000128 .LC14
C:\Users\ldebo\AppData\Local\Temp\ccrazFu5.s:2421   .rodata.str1.4:0000018c .LC18
C:\Users\ldebo\AppData\Local\Temp\ccrazFu5.s:2425   .rodata.str1.4:000001c8 .LC19
C:\Users\ldebo\AppData\Local\Temp\ccrazFu5.s:2428   .rodata.str1.4:000001e8 .LC20
C:\Users\ldebo\AppData\Local\Temp\ccrazFu5.s:2386   .rodata.str1.4:00000068 .LC6
C:\Users\ldebo\AppData\Local\Temp\ccrazFu5.s:2389   .rodata.str1.4:00000074 .LC7
C:\Users\ldebo\AppData\Local\Temp\ccrazFu5.s:2392   .rodata.str1.4:0000007c .LC8
C:\Users\ldebo\AppData\Local\Temp\ccrazFu5.s:2395   .rodata.str1.4:00000084 .LC9
C:\Users\ldebo\AppData\Local\Temp\ccrazFu5.s:321    .text:0000044c $d
C:\Users\ldebo\AppData\Local\Temp\ccrazFu5.s:326    .text:0000045c $a
C:\Users\ldebo\AppData\Local\Temp\ccrazFu5.s:2383   .rodata.str1.4:0000003c .LC5
C:\Users\ldebo\AppData\Local\Temp\ccrazFu5.s:2376   .rodata.str1.4:00000008 .LC2
C:\Users\ldebo\AppData\Local\Temp\ccrazFu5.s:2378   .rodata.str1.4:00000014 .LC3
C:\Users\ldebo\AppData\Local\Temp\ccrazFu5.s:2398   .rodata.str1.4:00000088 .LC10
C:\Users\ldebo\AppData\Local\Temp\ccrazFu5.s:2404   .rodata.str1.4:000000dc .LC12
C:\Users\ldebo\AppData\Local\Temp\ccrazFu5.s:2412   .rodata.str1.4:00000140 .LC15
C:\Users\ldebo\AppData\Local\Temp\ccrazFu5.s:2401   .rodata.str1.4:000000ac .LC11
C:\Users\ldebo\AppData\Local\Temp\ccrazFu5.s:2381   .rodata.str1.4:00000020 .LC4
C:\Users\ldebo\AppData\Local\Temp\ccrazFu5.s:596    .text:00000828 XRotationMatrix3D
C:\Users\ldebo\AppData\Local\Temp\ccrazFu5.s:2319   .rodata:00000000 .LANCHOR0
C:\Users\ldebo\AppData\Local\Temp\ccrazFu5.s:633    .text:00000894 YRotationMatrix3D
C:\Users\ldebo\AppData\Local\Temp\ccrazFu5.s:670    .text:00000900 ZRotationMatrix3D
C:\Users\ldebo\AppData\Local\Temp\ccrazFu5.s:707    .text:0000096c MultiplyMatrix3D
C:\Users\ldebo\AppData\Local\Temp\ccrazFu5.s:853    .text:00000b8c TransformPoint3D
C:\Users\ldebo\AppData\Local\Temp\ccrazFu5.s:922    .text:00000c74 InitV3D
C:\Users\ldebo\AppData\Local\Temp\ccrazFu5.s:971    .text:00000d08 V3D_mem_alloc
C:\Users\ldebo\AppData\Local\Temp\ccrazFu5.s:999    .text:00000d4c V3D_mem_free
C:\Users\ldebo\AppData\Local\Temp\ccrazFu5.s:1022   .text:00000d7c V3D_mem_lock
C:\Users\ldebo\AppData\Local\Temp\ccrazFu5.s:1047   .text:00000db4 V3D_mem_unlock
C:\Users\ldebo\AppData\Local\Temp\ccrazFu5.s:1070   .text:00000de4 V3D_execute_code
C:\Users\ldebo\AppData\Local\Temp\ccrazFu5.s:1103   .text:00000e3c V3D_execute_qpu
C:\Users\ldebo\AppData\Local\Temp\ccrazFu5.s:1130   .text:00000e7c DoRotate
C:\Users\ldebo\AppData\Local\Temp\ccrazFu5.s:2364   .bss:00000000 .LANCHOR1
                            *COM*:00000040 rotMat
C:\Users\ldebo\AppData\Local\Temp\ccrazFu5.s:1196   .text:00000f68 $d
C:\Users\ldebo\AppData\Local\Temp\ccrazFu5.s:1199   .text:00000f70 $a
C:\Users\ldebo\AppData\Local\Temp\ccrazFu5.s:1205   .text:00000f70 RenderModel
C:\Users\ldebo\AppData\Local\Temp\ccrazFu5.s:2431   .rodata.str1.4:00000200 .LC21
C:\Users\ldebo\AppData\Local\Temp\ccrazFu5.s:2018   .text:00001bb0 CreateVertexData
C:\Users\ldebo\AppData\Local\Temp\ccrazFu5.s:2434   .rodata.str1.4:00000224 .LC22
C:\Users\ldebo\AppData\Local\Temp\ccrazFu5.s:2275   .text:00001f88 $d
C:\Users\ldebo\AppData\Local\Temp\ccrazFu5.s:2278   .text:00001f90 $a
C:\Users\ldebo\AppData\Local\Temp\ccrazFu5.s:2367   .bss:00000000 angle
C:\Users\ldebo\AppData\Local\Temp\ccrazFu5.s:2322   .rodata:00000000 IdentityMatrix3D
C:\Users\ldebo\AppData\Local\Temp\ccrazFu5.s:2343   .data:00000000 fShaderStr
C:\Users\ldebo\AppData\Local\Temp\ccrazFu5.s:2354   .data:00000174 vShaderStr
C:\Users\ldebo\AppData\Local\Temp\ccrazFu5.s:2318   .rodata:00000000 $d
C:\Users\ldebo\AppData\Local\Temp\ccrazFu5.s:2340   .data:00000000 $d
ARM GAS  C:\Users\ldebo\AppData\Local\Temp\ccrazFu5.s 			page 47


C:\Users\ldebo\AppData\Local\Temp\ccrazFu5.s:2363   .bss:00000000 $d
C:\Users\ldebo\AppData\Local\Temp\ccrazFu5.s:2370   .rodata.str1.4:00000000 $d

UNDEFINED SYMBOLS
sdCreateFile
sdGetFileSize
sdReadFile
sdCloseHandle
printf
sscanf
strchr
_impure_ptr
fprintf
sinf
cosf
mailbox_tag_message
RPi_IO_Base_Addr
GPUaddrToARMaddr
ARM GAS  C:\Users\ldebo\AppData\Local\Temp\ccrazFu5.s 			page 1


   1              		.arch armv7-a
   2              		.arch_extension virt
   3              		.arch_extension idiv
   4              		.arch_extension sec
   5              		.arch_extension mp
   6              		.eabi_attribute 28, 1
   7              		.eabi_attribute 20, 1
   8              		.eabi_attribute 21, 1
   9              		.eabi_attribute 23, 3
  10              		.eabi_attribute 24, 1
  11              		.eabi_attribute 25, 1
  12              		.eabi_attribute 26, 1
  13              		.eabi_attribute 30, 2
  14              		.eabi_attribute 34, 0
  15              		.eabi_attribute 18, 4
  16              		.file	"SDCard.c"
  17              		.text
  18              		.align	2
  19              		.syntax unified
  20              		.arm
  21              		.fpu neon
  22              		.type	sdWaitForData, %function
  23              	sdWaitForData:
  24              		@ args = 0, pretend = 0, frame = 0
  25              		@ frame_needed = 0, uses_anonymous_args = 0
  26 0000 F84F2DE9 		push	{r3, r4, r5, r6, r7, r8, r9, r10, fp, lr}
  27 0004 0040A0E3 		mov	r4, #0
  28 0008 0050A0E3 		mov	r5, #0
  29 000c 00A000E3 		movw	r10, #:lower16:RPi_IO_Base_Addr
  30 0010 00A040E3 		movt	r10, #:upper16:RPi_IO_Base_Addr
  31 0014 02B9A0E3 		mov	fp, #32768
  32 0018 7EB140E3 		movt	fp, 382
  33 001c 0460A0E1 		mov	r6, r4
  34 0020 0570A0E1 		mov	r7, r5
  35 0024 CC908FE2 		adr	r9, .L17
  36 0028 D080C9E1 		ldrd	r8, [r9]
  37              	.L2:
  38 002c 00309AE5 		ldr	r3, [r10]
  39 0030 033683E2 		add	r3, r3, #3145728
  40 0034 241083E2 		add	r1, r3, #36
  41 0038 242093E5 		ldr	r2, [r3, #36]
  42 003c 020012E3 		tst	r2, #2
  43 0040 1400000A 		beq	.L5
  44 0044 302093E5 		ldr	r2, [r3, #48]
  45 0048 0B0012E1 		tst	r2, fp
  46 004c 1100001A 		bne	.L5
  47 0050 090057E1 		cmp	r7, r9
  48 0054 08005601 		cmpeq	r6, r8
  49 0058 1800008A 		bhi	.L9
  50 005c 053094E1 		orrs	r3, r4, r5
  51 0060 0300001A 		bne	.L3
  52 0064 FEFFFFEB 		bl	timer_getTickCount
  53 0068 0040A0E1 		mov	r4, r0
  54 006c 0150A0E1 		mov	r5, r1
  55 0070 EDFFFFEA 		b	.L2
  56              	.L3:
  57 0074 FEFFFFEB 		bl	timer_getTickCount
ARM GAS  C:\Users\ldebo\AppData\Local\Temp\ccrazFu5.s 			page 2


  58 0078 0020A0E1 		mov	r2, r0
  59 007c 0130A0E1 		mov	r3, r1
  60 0080 0400A0E1 		mov	r0, r4
  61 0084 0510A0E1 		mov	r1, r5
  62 0088 FEFFFFEB 		bl	tick_difference
  63 008c 0060A0E1 		mov	r6, r0
  64 0090 0170A0E1 		mov	r7, r1
  65 0094 E4FFFFEA 		b	.L2
  66              	.L5:
  67 0098 58508FE2 		adr	r5, .L17
  68 009c D040C5E1 		ldrd	r4, [r5]
  69 00a0 050057E1 		cmp	r7, r5
  70 00a4 04005601 		cmpeq	r6, r4
  71 00a8 0400008A 		bhi	.L9
  72 00ac 300093E5 		ldr	r0, [r3, #48]
  73 00b0 0229A0E3 		mov	r2, #32768
  74 00b4 7E2140E3 		movt	r2, 382
  75 00b8 020010E0 		ands	r0, r0, r2
  76 00bc 0C00000A 		beq	.L16
  77              	.L9:
  78 00c0 002000E3 		movw	r2, #:lower16:.LANCHOR0
  79 00c4 002040E3 		movt	r2, #:upper16:.LANCHOR0
  80 00c8 004092E5 		ldr	r4, [r2]
  81 00cc 000054E3 		cmp	r4, #0
  82 00d0 0500000A 		beq	.L14
  83 00d4 001091E5 		ldr	r1, [r1]
  84 00d8 000000E3 		movw	r0, #:lower16:.LC0
  85 00dc 302093E5 		ldr	r2, [r3, #48]
  86 00e0 000040E3 		movt	r0, #:upper16:.LC0
  87 00e4 103093E5 		ldr	r3, [r3, #16]
  88 00e8 34FF2FE1 		blx	r4
  89              	.L14:
  90 00ec 0300A0E3 		mov	r0, #3
  91 00f0 F88FBDE8 		pop	{r3, r4, r5, r6, r7, r8, r9, r10, fp, pc}
  92              	.L16:
  93 00f4 F88FBDE8 		pop	{r3, r4, r5, r6, r7, r8, r9, r10, fp, pc}
  94              	.L18:
  95              		.align	3
  96              	.L17:
  97 00f8 1FA10700 		.word	499999
  98 00fc 00000000 		.word	0
  99              		.size	sdWaitForData, .-sdWaitForData
 100              		.align	2
 101              		.syntax unified
 102              		.arm
 103              		.fpu neon
 104              		.type	sdWaitForInterrupt, %function
 105              	sdWaitForInterrupt:
 106              		@ args = 0, pretend = 0, frame = 8
 107              		@ frame_needed = 0, uses_anonymous_args = 0
 108 0100 F04F2DE9 		push	{r4, r5, r6, r7, r8, r9, r10, fp, lr}
 109 0104 0040A0E3 		mov	r4, #0
 110 0108 0050A0E3 		mov	r5, #0
 111 010c 006000E3 		movw	r6, #:lower16:RPi_IO_Base_Addr
 112 0110 006040E3 		movt	r6, #:upper16:RPi_IO_Base_Addr
 113 0114 5F7780E3 		orr	r7, r0, #24903680
 114 0118 14D04DE2 		sub	sp, sp, #20
ARM GAS  C:\Users\ldebo\AppData\Local\Temp\ccrazFu5.s 			page 3


 115 011c 0A7987E3 		orr	r7, r7, #163840
 116 0120 04A0A0E1 		mov	r10, r4
 117 0124 05B0A0E1 		mov	fp, r5
 118 0128 059D8FE2 		adr	r9, .L43
 119 012c D080C9E1 		ldrd	r8, [r9]
 120 0130 0C008DE5 		str	r0, [sp, #12]
 121              	.L20:
 122 0134 00C096E5 		ldr	ip, [r6]
 123 0138 03C68CE2 		add	ip, ip, #3145728
 124 013c 30E08CE2 		add	lr, ip, #48
 125 0140 30109CE5 		ldr	r1, [ip, #48]
 126 0144 010017E1 		tst	r7, r1
 127 0148 1100001A 		bne	.L23
 128 014c 09005BE1 		cmp	fp, r9
 129 0150 08005A01 		cmpeq	r10, r8
 130 0154 2A00008A 		bhi	.L42
 131 0158 053094E1 		orrs	r3, r4, r5
 132 015c 0300001A 		bne	.L21
 133 0160 FEFFFFEB 		bl	timer_getTickCount
 134 0164 0040A0E1 		mov	r4, r0
 135 0168 0150A0E1 		mov	r5, r1
 136 016c F0FFFFEA 		b	.L20
 137              	.L21:
 138 0170 FEFFFFEB 		bl	timer_getTickCount
 139 0174 0020A0E1 		mov	r2, r0
 140 0178 0130A0E1 		mov	r3, r1
 141 017c 0400A0E1 		mov	r0, r4
 142 0180 0510A0E1 		mov	r1, r5
 143 0184 FEFFFFEB 		bl	tick_difference
 144 0188 00A0A0E1 		mov	r10, r0
 145 018c 01B0A0E1 		mov	fp, r1
 146 0190 E7FFFFEA 		b	.L20
 147              	.L23:
 148 0194 D4108FE2 		adr	r1, .L43
 149 0198 D000C1E1 		ldrd	r0, [r1]
 150 019c 00409EE5 		ldr	r4, [lr]
 151 01a0 01005BE1 		cmp	fp, r1
 152 01a4 00005A01 		cmpeq	r10, r0
 153 01a8 0100008A 		bhi	.L26
 154 01ac 110814E3 		tst	r4, #1114112
 155 01b0 1500000A 		beq	.L27
 156              	.L26:
 157 01b4 003000E3 		movw	r3, #:lower16:.LANCHOR0
 158 01b8 003040E3 		movt	r3, #:upper16:.LANCHOR0
 159 01bc 005093E5 		ldr	r5, [r3]
 160 01c0 000055E3 		cmp	r5, #0
 161 01c4 0A00000A 		beq	.L28
 162 01c8 24209CE5 		ldr	r2, [ip, #36]
 163 01cc 000000E3 		movw	r0, #:lower16:.LC1
 164 01d0 10309CE5 		ldr	r3, [ip, #16]
 165 01d4 0C109DE5 		ldr	r1, [sp, #12]
 166 01d8 00308DE5 		str	r3, [sp]
 167 01dc 0430A0E1 		mov	r3, r4
 168 01e0 000040E3 		movt	r0, #:upper16:.LC1
 169 01e4 35FF2FE1 		blx	r5
 170 01e8 00E096E5 		ldr	lr, [r6]
 171 01ec 03E68EE2 		add	lr, lr, #3145728
ARM GAS  C:\Users\ldebo\AppData\Local\Temp\ccrazFu5.s 			page 4


 172 01f0 30E08EE2 		add	lr, lr, #48
 173              	.L28:
 174 01f4 00408EE5 		str	r4, [lr]
 175 01f8 0200A0E3 		mov	r0, #2
 176              	.L39:
 177 01fc 14D08DE2 		add	sp, sp, #20
 178              		@ sp needed
 179 0200 F08FBDE8 		pop	{r4, r5, r6, r7, r8, r9, r10, fp, pc}
 180              	.L42:
 181 0204 00409EE5 		ldr	r4, [lr]
 182 0208 E9FFFFEA 		b	.L26
 183              	.L27:
 184 020c 0239A0E3 		mov	r3, #32768
 185 0210 7E3140E3 		movt	r3, 382
 186 0214 030014E0 		ands	r0, r4, r3
 187 0218 1000000A 		beq	.L30
 188 021c 003000E3 		movw	r3, #:lower16:.LANCHOR0
 189 0220 003040E3 		movt	r3, #:upper16:.LANCHOR0
 190 0224 005093E5 		ldr	r5, [r3]
 191 0228 000055E3 		cmp	r5, #0
 192 022c 0800000A 		beq	.L31
 193 0230 24109CE5 		ldr	r1, [ip, #36]
 194 0234 000000E3 		movw	r0, #:lower16:.LC2
 195 0238 10309CE5 		ldr	r3, [ip, #16]
 196 023c 0420A0E1 		mov	r2, r4
 197 0240 000040E3 		movt	r0, #:upper16:.LC2
 198 0244 35FF2FE1 		blx	r5
 199 0248 00E096E5 		ldr	lr, [r6]
 200 024c 03E68EE2 		add	lr, lr, #3145728
 201 0250 30E08EE2 		add	lr, lr, #48
 202              	.L31:
 203 0254 00408EE5 		str	r4, [lr]
 204 0258 0100A0E3 		mov	r0, #1
 205 025c E6FFFFEA 		b	.L39
 206              	.L30:
 207 0260 0C309DE5 		ldr	r3, [sp, #12]
 208 0264 00308EE5 		str	r3, [lr]
 209 0268 E3FFFFEA 		b	.L39
 210              	.L44:
 211 026c 00F020E3 		.align	3
 212              	.L43:
 213 0270 3F420F00 		.word	999999
 214 0274 00000000 		.word	0
 215              		.size	sdWaitForInterrupt, .-sdWaitForInterrupt
 216              		.align	2
 217              		.syntax unified
 218              		.arm
 219              		.fpu neon
 220              		.type	sdSetClock, %function
 221              	sdSetClock:
 222              		@ args = 0, pretend = 0, frame = 0
 223              		@ frame_needed = 0, uses_anonymous_args = 0
 224 0278 F84F2DE9 		push	{r3, r4, r5, r6, r7, r8, r9, r10, fp, lr}
 225 027c 0040A0E3 		mov	r4, #0
 226 0280 0050A0E3 		mov	r5, #0
 227 0284 00A000E3 		movw	r10, #:lower16:RPi_IO_Base_Addr
 228 0288 00A040E3 		movt	r10, #:upper16:RPi_IO_Base_Addr
ARM GAS  C:\Users\ldebo\AppData\Local\Temp\ccrazFu5.s 			page 5


 229 028c 00B0A0E1 		mov	fp, r0
 230 0290 0460A0E1 		mov	r6, r4
 231 0294 0570A0E1 		mov	r7, r5
 232 0298 A29F8FE2 		adr	r9, .L84
 233 029c D080C9E1 		ldrd	r8, [r9]
 234              	.L46:
 235 02a0 00309AE5 		ldr	r3, [r10]
 236 02a4 033683E2 		add	r3, r3, #3145728
 237 02a8 24C083E2 		add	ip, r3, #36
 238 02ac 242093E5 		ldr	r2, [r3, #36]
 239 02b0 010012E3 		tst	r2, #1
 240 02b4 0300001A 		bne	.L49
 241 02b8 242093E5 		ldr	r2, [r3, #36]
 242 02bc D220E0E7 		ubfx	r2, r2, #1, #1
 243 02c0 000052E3 		cmp	r2, #0
 244 02c4 2600000A 		beq	.L50
 245              	.L49:
 246 02c8 090057E1 		cmp	r7, r9
 247 02cc 08005601 		cmpeq	r6, r8
 248 02d0 0E00008A 		bhi	.L52
 249 02d4 053094E1 		orrs	r3, r4, r5
 250 02d8 0300001A 		bne	.L47
 251 02dc FEFFFFEB 		bl	timer_getTickCount
 252 02e0 0040A0E1 		mov	r4, r0
 253 02e4 0150A0E1 		mov	r5, r1
 254 02e8 ECFFFFEA 		b	.L46
 255              	.L47:
 256 02ec FEFFFFEB 		bl	timer_getTickCount
 257 02f0 0020A0E1 		mov	r2, r0
 258 02f4 0130A0E1 		mov	r3, r1
 259 02f8 0400A0E1 		mov	r0, r4
 260 02fc 0510A0E1 		mov	r1, r5
 261 0300 FEFFFFEB 		bl	tick_difference
 262 0304 0060A0E1 		mov	r6, r0
 263 0308 0170A0E1 		mov	r7, r1
 264 030c E3FFFFEA 		b	.L46
 265              	.L52:
 266 0310 003000E3 		movw	r3, #:lower16:.LANCHOR0
 267 0314 003040E3 		movt	r3, #:upper16:.LANCHOR0
 268 0318 003093E5 		ldr	r3, [r3]
 269 031c 000053E3 		cmp	r3, #0
 270 0320 0D00000A 		beq	.L82
 271 0324 00109CE5 		ldr	r1, [ip]
 272 0328 000000E3 		movw	r0, #:lower16:.LC3
 273 032c 000040E3 		movt	r0, #:upper16:.LC3
 274 0330 33FF2FE1 		blx	r3
 275 0334 0700A0E3 		mov	r0, #7
 276 0338 F88FBDE8 		pop	{r3, r4, r5, r6, r7, r8, r9, r10, fp, pc}
 277              	.L71:
 278 033c 003000E3 		movw	r3, #:lower16:.LANCHOR0
 279 0340 003040E3 		movt	r3, #:upper16:.LANCHOR0
 280 0344 003093E5 		ldr	r3, [r3]
 281 0348 000053E3 		cmp	r3, #0
 282 034c 0200000A 		beq	.L82
 283 0350 000000E3 		movw	r0, #:lower16:.LC4
 284 0354 000040E3 		movt	r0, #:upper16:.LC4
 285 0358 33FF2FE1 		blx	r3
ARM GAS  C:\Users\ldebo\AppData\Local\Temp\ccrazFu5.s 			page 6


 286              	.L82:
 287 035c 0700A0E3 		mov	r0, #7
 288 0360 F88FBDE8 		pop	{r3, r4, r5, r6, r7, r8, r9, r10, fp, pc}
 289              	.L50:
 290 0364 6F1F8FE2 		adr	r1, .L84
 291 0368 D000C1E1 		ldrd	r0, [r1]
 292 036c 010057E1 		cmp	r7, r1
 293 0370 00005601 		cmpeq	r6, r0
 294 0374 E5FFFF8A 		bhi	.L52
 295 0378 2CC093E5 		ldr	ip, [r3, #44]
 296 037c 0A00A0E3 		mov	r0, #10
 297 0380 0010A0E3 		mov	r1, #0
 298 0384 12C1C2E7 		bfi	ip, r2, #2, #1
 299 0388 2CC083E5 		str	ip, [r3, #44]
 300 038c FEFFFFEB 		bl	timer_wait
 301 0390 00209AE5 		ldr	r2, [r10]
 302 0394 6A380CE3 		movw	r3, #51306
 303 0398 7B3240E3 		movt	r3, 635
 304 039c 03308BE0 		add	r3, fp, r3
 305 03a0 032682E2 		add	r2, r2, #3145728
 306 03a4 13FB3BE7 		udiv	fp, r3, fp
 307 03a8 FC3092E5 		ldr	r3, [r2, #252]
 308 03ac 010B5BE3 		cmp	fp, #1024
 309 03b0 5338E7E7 		ubfx	r3, r3, #16, #8
 310 03b4 2900002A 		bcs	.L56
 311 03b8 010053E3 		cmp	r3, #1
 312 03bc 4700009A 		bls	.L83
 313 03c0 02005BE3 		cmp	fp, #2
 314 03c4 2BC1A081 		lsrhi	ip, fp, #2
 315 03c8 01CBA093 		movls	ip, #1024
 316 03cc 0B34A081 		lslhi	r3, fp, #8
 317 03d0 C0C00C82 		andhi	ip, ip, #192
 318 03d4 7330FF86 		uxthhi	r3, r3
 319 03d8 03C08C81 		orrhi	ip, ip, r3
 320              	.L65:
 321 03dc 2C3092E5 		ldr	r3, [r2, #44]
 322 03e0 0A00A0E3 		mov	r0, #10
 323 03e4 0010A0E3 		mov	r1, #0
 324 03e8 0040A0E3 		mov	r4, #0
 325 03ec FF3CC3E3 		bic	r3, r3, #65280
 326 03f0 0050A0E3 		mov	r5, #0
 327 03f4 E030C3E3 		bic	r3, r3, #224
 328 03f8 0480A0E1 		mov	r8, r4
 329 03fc 0C3083E1 		orr	r3, r3, ip
 330 0400 0590A0E1 		mov	r9, r5
 331 0404 2C3082E5 		str	r3, [r2, #44]
 332 0408 FEFFFFEB 		bl	timer_wait
 333 040c 00309AE5 		ldr	r3, [r10]
 334 0410 117E8FE2 		adr	r7, .L84
 335 0414 D060C7E1 		ldrd	r6, [r7]
 336 0418 033683E2 		add	r3, r3, #3145728
 337 041c 2C2093E5 		ldr	r2, [r3, #44]
 338 0420 042082E3 		orr	r2, r2, #4
 339 0424 2C2083E5 		str	r2, [r3, #44]
 340              	.L66:
 341 0428 00309AE5 		ldr	r3, [r10]
 342 042c 033683E2 		add	r3, r3, #3145728
ARM GAS  C:\Users\ldebo\AppData\Local\Temp\ccrazFu5.s 			page 7


 343 0430 2C3093E5 		ldr	r3, [r3, #44]
 344 0434 020013E3 		tst	r3, #2
 345 0438 2100001A 		bne	.L69
 346 043c 070059E1 		cmp	r9, r7
 347 0440 06005801 		cmpeq	r8, r6
 348 0444 BCFFFF8A 		bhi	.L71
 349 0448 053094E1 		orrs	r3, r4, r5
 350 044c 1300001A 		bne	.L67
 351 0450 FEFFFFEB 		bl	timer_getTickCount
 352 0454 0040A0E1 		mov	r4, r0
 353 0458 0150A0E1 		mov	r5, r1
 354 045c F1FFFFEA 		b	.L66
 355              	.L56:
 356 0460 010053E3 		cmp	r3, #1
 357 0464 C0CF0F83 		movwhi	ip, #65472
 358 0468 DBFFFF8A 		bhi	.L65
 359 046c 0030A0E3 		mov	r3, #0
 360 0470 0CC0A0E3 		mov	ip, #12
 361 0474 F03F43E3 		movt	r3, 16368
 362              	.L60:
 363 0478 0331A0E1 		lsl	r3, r3, #2
 364 047c 02C04CE2 		sub	ip, ip, #2
 365              	.L63:
 366 0480 000053E3 		cmp	r3, #0
 367 0484 013CA0E3 		mov	r3, #256
 368 0488 01C04CA2 		subge	ip, ip, #1
 369 048c 01C04CE2 		sub	ip, ip, #1
 370 0490 07005CE3 		cmp	ip, #7
 371 0494 07C0A023 		movcs	ip, #7
 372 0498 13CCA0E1 		lsl	ip, r3, ip
 373 049c CEFFFFEA 		b	.L65
 374              	.L67:
 375 04a0 FEFFFFEB 		bl	timer_getTickCount
 376 04a4 0020A0E1 		mov	r2, r0
 377 04a8 0130A0E1 		mov	r3, r1
 378 04ac 0400A0E1 		mov	r0, r4
 379 04b0 0510A0E1 		mov	r1, r5
 380 04b4 FEFFFFEB 		bl	tick_difference
 381 04b8 0080A0E1 		mov	r8, r0
 382 04bc 0190A0E1 		mov	r9, r1
 383 04c0 D8FFFFEA 		b	.L66
 384              	.L69:
 385 04c4 5C308FE2 		adr	r3, .L84
 386 04c8 D020C3E1 		ldrd	r2, [r3]
 387 04cc 030059E1 		cmp	r9, r3
 388 04d0 02005801 		cmpeq	r8, r2
 389 04d4 98FFFF8A 		bhi	.L71
 390 04d8 0000A0E3 		mov	r0, #0
 391 04dc F88FBDE8 		pop	{r3, r4, r5, r6, r7, r8, r9, r10, fp, pc}
 392              	.L83:
 393 04e0 00005BE3 		cmp	fp, #0
 394 04e4 01CCA003 		moveq	ip, #256
 395 04e8 BBFFFF0A 		beq	.L65
 396 04ec 0B38A0E1 		lsl	r3, fp, #16
 397 04f0 FF0413E3 		tst	r3, #-16777216
 398 04f4 0B3AA011 		lslne	r3, fp, #20
 399 04f8 0CC0A013 		movne	ip, #12
ARM GAS  C:\Users\ldebo\AppData\Local\Temp\ccrazFu5.s 			page 8


 400 04fc DDFFFF1A 		bne	.L60
 401 0500 0B3CA0E1 		lsl	r3, fp, #24
 402 0504 0F0213E3 		tst	r3, #-268435456
 403 0508 0B3EA001 		lsleq	r3, fp, #28
 404 050c 03110312 		andne	r1, r3, #-1073741824
 405 0510 03110302 		andeq	r1, r3, #-1073741824
 406 0514 08C0A013 		movne	ip, #8
 407 0518 04C0A003 		moveq	ip, #4
 408 051c 000051E3 		cmp	r1, #0
 409 0520 D6FFFF1A 		bne	.L63
 410 0524 D3FFFFEA 		b	.L60
 411              	.L85:
 412              		.align	3
 413              	.L84:
 414 0528 9F860100 		.word	99999
 415 052c 00000000 		.word	0
 416              		.size	sdSetClock, .-sdSetClock
 417              		.align	2
 418              		.syntax unified
 419              		.arm
 420              		.fpu neon
 421              		.type	ReadLFNEntry, %function
 422              	ReadLFNEntry:
 423              		@ args = 0, pretend = 0, frame = 0
 424              		@ frame_needed = 0, uses_anonymous_args = 0
 425 0530 F0412DE9 		push	{r4, r5, r6, r7, r8, lr}
 426 0534 006050E2 		subs	r6, r0, #0
 427 0538 0150A0E1 		mov	r5, r1
 428 053c 2200000A 		beq	.L96
 429 0540 0670A0E1 		mov	r7, r6
 430 0544 018041E2 		sub	r8, r1, #1
 431 0548 0040A0E3 		mov	r4, #0
 432              	.L89:
 433 054c 0230D7E5 		ldrb	r3, [r7, #2]	@ zero_extendqisi2
 434 0550 0100D7E5 		ldrb	r0, [r7, #1]	@ zero_extendqisi2
 435 0554 030490E1 		orrs	r0, r0, r3, lsl #8
 436 0558 0400001A 		bne	.L103
 437              	.L102:
 438 055c 0430A0E1 		mov	r3, r4
 439              	.L87:
 440 0560 0020A0E3 		mov	r2, #0
 441 0564 0400A0E1 		mov	r0, r4
 442 0568 0320C5E7 		strb	r2, [r5, r3]
 443 056c F081BDE8 		pop	{r4, r5, r6, r7, r8, pc}
 444              	.L103:
 445 0570 014084E2 		add	r4, r4, #1
 446 0574 FEFFFFEB 		bl	wctob
 447 0578 0100E8E5 		strb	r0, [r8, #1]!
 448 057c 7440EFE6 		uxtb	r4, r4
 449 0580 050054E3 		cmp	r4, #5
 450 0584 027087E2 		add	r7, r7, #2
 451 0588 EFFFFF1A 		bne	.L89
 452 058c 0070A0E3 		mov	r7, #0
 453              	.L92:
 454 0590 043087E2 		add	r3, r7, #4
 455 0594 833086E0 		add	r3, r6, r3, lsl #1
 456 0598 0600D3E5 		ldrb	r0, [r3, #6]	@ zero_extendqisi2
ARM GAS  C:\Users\ldebo\AppData\Local\Temp\ccrazFu5.s 			page 9


 457 059c 0730D3E5 		ldrb	r3, [r3, #7]	@ zero_extendqisi2
 458 05a0 030490E1 		orrs	r0, r0, r3, lsl #8
 459 05a4 ECFFFF0A 		beq	.L102
 460 05a8 017087E2 		add	r7, r7, #1
 461 05ac FEFFFFEB 		bl	wctob
 462 05b0 0400C5E7 		strb	r0, [r5, r4]
 463 05b4 060057E3 		cmp	r7, #6
 464 05b8 018084E2 		add	r8, r4, #1
 465 05bc 7880EFE6 		uxtb	r8, r8
 466 05c0 0400000A 		beq	.L104
 467 05c4 0840A0E1 		mov	r4, r8
 468 05c8 F0FFFFEA 		b	.L92
 469              	.L96:
 470 05cc 0630A0E1 		mov	r3, r6
 471 05d0 0640A0E1 		mov	r4, r6
 472 05d4 E1FFFFEA 		b	.L87
 473              	.L104:
 474 05d8 1C00D6E5 		ldrb	r0, [r6, #28]	@ zero_extendqisi2
 475 05dc 1D30D6E5 		ldrb	r3, [r6, #29]	@ zero_extendqisi2
 476 05e0 030490E1 		orrs	r0, r0, r3, lsl #8
 477 05e4 0840A001 		moveq	r4, r8
 478 05e8 DBFFFF0A 		beq	.L102
 479 05ec 023084E2 		add	r3, r4, #2
 480 05f0 7370EFE6 		uxtb	r7, r3
 481 05f4 FEFFFFEB 		bl	wctob
 482 05f8 0800C5E7 		strb	r0, [r5, r8]
 483 05fc 1E00D6E5 		ldrb	r0, [r6, #30]	@ zero_extendqisi2
 484 0600 1F30D6E5 		ldrb	r3, [r6, #31]	@ zero_extendqisi2
 485 0604 030490E1 		orrs	r0, r0, r3, lsl #8
 486 0608 0740A001 		moveq	r4, r7
 487 060c D2FFFF0A 		beq	.L102
 488 0610 034084E2 		add	r4, r4, #3
 489 0614 FEFFFFEB 		bl	wctob
 490 0618 0700C5E7 		strb	r0, [r5, r7]
 491 061c 7440EFE6 		uxtb	r4, r4
 492 0620 CDFFFFEA 		b	.L102
 493              		.size	ReadLFNEntry, .-ReadLFNEntry
 494              		.align	2
 495              		.syntax unified
 496              		.arm
 497              		.fpu neon
 498              		.type	SetFindDataFromFATEntry.part.0, %function
 499              	SetFindDataFromFATEntry.part.0:
 500              		@ args = 0, pretend = 0, frame = 0
 501              		@ frame_needed = 0, uses_anonymous_args = 0
 502 0624 0B30D0E5 		ldrb	r3, [r0, #11]	@ zero_extendqisi2
 503 0628 0020A0E3 		mov	r2, #0
 504 062c 04E02DE5 		str	lr, [sp, #-4]!
 505 0630 6C3081E5 		str	r3, [r1, #108]
 506 0634 19C0D0E5 		ldrb	ip, [r0, #25]	@ zero_extendqisi2
 507 0638 1830D0E5 		ldrb	r3, [r0, #24]	@ zero_extendqisi2
 508 063c 0C3483E1 		orr	r3, r3, ip, lsl #8
 509 0640 D3C2E3E7 		ubfx	ip, r3, #5, #4
 510 0644 1FE003E2 		and	lr, r3, #31
 511 0648 A334A0E1 		lsr	r3, r3, #9
 512 064c 01C04CE2 		sub	ip, ip, #1
 513 0650 0CE081E5 		str	lr, [r1, #12]
ARM GAS  C:\Users\ldebo\AppData\Local\Temp\ccrazFu5.s 			page 10


 514 0654 503083E2 		add	r3, r3, #80
 515 0658 10C081E5 		str	ip, [r1, #16]
 516 065c 143081E5 		str	r3, [r1, #20]
 517 0660 17C0D0E5 		ldrb	ip, [r0, #23]	@ zero_extendqisi2
 518 0664 1630D0E5 		ldrb	r3, [r0, #22]	@ zero_extendqisi2
 519 0668 0C3483E1 		orr	r3, r3, ip, lsl #8
 520 066c D3E2E5E7 		ubfx	lr, r3, #5, #6
 521 0670 83C0A0E1 		lsl	ip, r3, #1
 522 0674 A335A0E1 		lsr	r3, r3, #11
 523 0678 3EC00CE2 		and	ip, ip, #62
 524 067c 005081E8 		stm	r1, {ip, lr}
 525 0680 083081E5 		str	r3, [r1, #8]
 526 0684 13C0D0E5 		ldrb	ip, [r0, #19]	@ zero_extendqisi2
 527 0688 1230D0E5 		ldrb	r3, [r0, #18]	@ zero_extendqisi2
 528 068c 0C3483E1 		orr	r3, r3, ip, lsl #8
 529 0690 D3C2E3E7 		ubfx	ip, r3, #5, #4
 530 0694 1FE003E2 		and	lr, r3, #31
 531 0698 A334A0E1 		lsr	r3, r3, #9
 532 069c 01C04CE2 		sub	ip, ip, #1
 533 06a0 30E081E5 		str	lr, [r1, #48]
 534 06a4 503083E2 		add	r3, r3, #80
 535 06a8 34C081E5 		str	ip, [r1, #52]
 536 06ac 383081E5 		str	r3, [r1, #56]
 537 06b0 11C0D0E5 		ldrb	ip, [r0, #17]	@ zero_extendqisi2
 538 06b4 1030D0E5 		ldrb	r3, [r0, #16]	@ zero_extendqisi2
 539 06b8 0C3483E1 		orr	r3, r3, ip, lsl #8
 540 06bc D3C2E3E7 		ubfx	ip, r3, #5, #4
 541 06c0 1FE003E2 		and	lr, r3, #31
 542 06c4 A334A0E1 		lsr	r3, r3, #9
 543 06c8 01C04CE2 		sub	ip, ip, #1
 544 06cc 54E081E5 		str	lr, [r1, #84]
 545 06d0 503083E2 		add	r3, r3, #80
 546 06d4 58C081E5 		str	ip, [r1, #88]
 547 06d8 5C3081E5 		str	r3, [r1, #92]
 548 06dc 0FC0D0E5 		ldrb	ip, [r0, #15]	@ zero_extendqisi2
 549 06e0 0E30D0E5 		ldrb	r3, [r0, #14]	@ zero_extendqisi2
 550 06e4 0C3483E1 		orr	r3, r3, ip, lsl #8
 551 06e8 D3E2E5E7 		ubfx	lr, r3, #5, #6
 552 06ec 83C0A0E1 		lsl	ip, r3, #1
 553 06f0 4CE081E5 		str	lr, [r1, #76]
 554 06f4 3EC00CE2 		and	ip, ip, #62
 555 06f8 A335A0E1 		lsr	r3, r3, #11
 556 06fc 503081E5 		str	r3, [r1, #80]
 557 0700 48C081E5 		str	ip, [r1, #72]
 558 0704 1DC0D0E5 		ldrb	ip, [r0, #29]	@ zero_extendqisi2
 559 0708 1C30D0E5 		ldrb	r3, [r0, #28]	@ zero_extendqisi2
 560 070c 1EE0D0E5 		ldrb	lr, [r0, #30]	@ zero_extendqisi2
 561 0710 0C3483E1 		orr	r3, r3, ip, lsl #8
 562 0714 1FC0D0E5 		ldrb	ip, [r0, #31]	@ zero_extendqisi2
 563 0718 0E3883E1 		orr	r3, r3, lr, lsl #16
 564 071c 0C3C83E1 		orr	r3, r3, ip, lsl #24
 565 0720 743081E5 		str	r3, [r1, #116]
 566 0724 702081E5 		str	r2, [r1, #112]
 567 0728 0030D0E5 		ldrb	r3, [r0]	@ zero_extendqisi2
 568 072c 7831C1E5 		strb	r3, [r1, #376]
 569 0730 0130D0E5 		ldrb	r3, [r0, #1]	@ zero_extendqisi2
 570 0734 7931C1E5 		strb	r3, [r1, #377]
ARM GAS  C:\Users\ldebo\AppData\Local\Temp\ccrazFu5.s 			page 11


 571 0738 0230D0E5 		ldrb	r3, [r0, #2]	@ zero_extendqisi2
 572 073c 7A31C1E5 		strb	r3, [r1, #378]
 573 0740 0330D0E5 		ldrb	r3, [r0, #3]	@ zero_extendqisi2
 574 0744 7B31C1E5 		strb	r3, [r1, #379]
 575 0748 0430D0E5 		ldrb	r3, [r0, #4]	@ zero_extendqisi2
 576 074c 7C31C1E5 		strb	r3, [r1, #380]
 577 0750 0530D0E5 		ldrb	r3, [r0, #5]	@ zero_extendqisi2
 578 0754 7D31C1E5 		strb	r3, [r1, #381]
 579 0758 0630D0E5 		ldrb	r3, [r0, #6]	@ zero_extendqisi2
 580 075c 7E31C1E5 		strb	r3, [r1, #382]
 581 0760 0730D0E5 		ldrb	r3, [r0, #7]	@ zero_extendqisi2
 582 0764 7F31C1E5 		strb	r3, [r1, #383]
 583 0768 0830D0E5 		ldrb	r3, [r0, #8]	@ zero_extendqisi2
 584 076c 8031C1E5 		strb	r3, [r1, #384]
 585 0770 0930D0E5 		ldrb	r3, [r0, #9]	@ zero_extendqisi2
 586 0774 8131C1E5 		strb	r3, [r1, #385]
 587 0778 0A30D0E5 		ldrb	r3, [r0, #10]	@ zero_extendqisi2
 588 077c 8231C1E5 		strb	r3, [r1, #386]
 589 0780 04F09DE4 		ldr	pc, [sp], #4
 590              		.size	SetFindDataFromFATEntry.part.0, .-SetFindDataFromFATEntry.part.0
 591              		.align	2
 592              		.syntax unified
 593              		.arm
 594              		.fpu neon
 595              		.type	sdSendCommandP, %function
 596              	sdSendCommandP:
 597              		@ args = 0, pretend = 0, frame = 24
 598              		@ frame_needed = 0, uses_anonymous_args = 0
 599 0784 F04F2DE9 		push	{r4, r5, r6, r7, r8, r9, r10, fp, lr}
 600 0788 0040A0E3 		mov	r4, #0
 601 078c 0050A0E3 		mov	r5, #0
 602 0790 006000E3 		movw	r6, #:lower16:RPi_IO_Base_Addr
 603 0794 006040E3 		movt	r6, #:upper16:RPi_IO_Base_Addr
 604 0798 0279A0E3 		mov	r7, #32768
 605 079c 7E7140E3 		movt	r7, 382
 606 07a0 1CD04DE2 		sub	sp, sp, #28
 607 07a4 04A0A0E1 		mov	r10, r4
 608 07a8 05B0A0E1 		mov	fp, r5
 609 07ac 8B9F8FE2 		adr	r9, .L141
 610 07b0 D080C9E1 		ldrd	r8, [r9]
 611 07b4 00008DE5 		str	r0, [sp]
 612 07b8 04108DE5 		str	r1, [sp, #4]
 613              	.L108:
 614 07bc 00C096E5 		ldr	ip, [r6]
 615 07c0 03C68CE2 		add	ip, ip, #3145728
 616 07c4 24E08CE2 		add	lr, ip, #36
 617 07c8 24109CE5 		ldr	r1, [ip, #36]
 618 07cc 010011E3 		tst	r1, #1
 619 07d0 1400000A 		beq	.L111
 620 07d4 30109CE5 		ldr	r1, [ip, #48]
 621 07d8 070011E1 		tst	r1, r7
 622 07dc 1100001A 		bne	.L111
 623 07e0 09005BE1 		cmp	fp, r9
 624 07e4 08005A01 		cmpeq	r10, r8
 625 07e8 1800008A 		bhi	.L113
 626 07ec 053094E1 		orrs	r3, r4, r5
 627 07f0 0300001A 		bne	.L109
ARM GAS  C:\Users\ldebo\AppData\Local\Temp\ccrazFu5.s 			page 12


 628 07f4 FEFFFFEB 		bl	timer_getTickCount
 629 07f8 0040A0E1 		mov	r4, r0
 630 07fc 0150A0E1 		mov	r5, r1
 631 0800 EDFFFFEA 		b	.L108
 632              	.L109:
 633 0804 FEFFFFEB 		bl	timer_getTickCount
 634 0808 0020A0E1 		mov	r2, r0
 635 080c 0130A0E1 		mov	r3, r1
 636 0810 0400A0E1 		mov	r0, r4
 637 0814 0510A0E1 		mov	r1, r5
 638 0818 FEFFFFEB 		bl	tick_difference
 639 081c 00A0A0E1 		mov	r10, r0
 640 0820 01B0A0E1 		mov	fp, r1
 641 0824 E4FFFFEA 		b	.L108
 642              	.L111:
 643 0828 1B1E8FE2 		adr	r1, .L141
 644 082c D000C1E1 		ldrd	r0, [r1]
 645 0830 01005BE1 		cmp	fp, r1
 646 0834 00005A01 		cmpeq	r10, r0
 647 0838 0400008A 		bhi	.L113
 648 083c 30209CE5 		ldr	r2, [ip, #48]
 649 0840 0239A0E3 		mov	r3, #32768
 650 0844 7E3140E3 		movt	r3, 382
 651 0848 030012E1 		tst	r2, r3
 652 084c 0E00000A 		beq	.L114
 653              	.L113:
 654 0850 003000E3 		movw	r3, #:lower16:.LANCHOR0
 655 0854 003040E3 		movt	r3, #:upper16:.LANCHOR0
 656 0858 004093E5 		ldr	r4, [r3]
 657 085c 000054E3 		cmp	r4, #0
 658 0860 0300A003 		moveq	r0, #3
 659 0864 0600000A 		beq	.L107
 660 0868 00109EE5 		ldr	r1, [lr]
 661 086c 000000E3 		movw	r0, #:lower16:.LC5
 662 0870 30209CE5 		ldr	r2, [ip, #48]
 663 0874 000040E3 		movt	r0, #:upper16:.LC5
 664 0878 10309CE5 		ldr	r3, [ip, #16]
 665 087c 34FF2FE1 		blx	r4
 666 0880 0300A0E3 		mov	r0, #3
 667              	.L107:
 668 0884 1CD08DE2 		add	sp, sp, #28
 669              		@ sp needed
 670 0888 F08FBDE8 		pop	{r4, r5, r6, r7, r8, r9, r10, fp, pc}
 671              	.L114:
 672 088c 00209DE5 		ldr	r2, [sp]
 673 0890 004000E3 		movw	r4, #:lower16:.LANCHOR0
 674 0894 004040E3 		movt	r4, #:upper16:.LANCHOR0
 675 0898 04109DE5 		ldr	r1, [sp, #4]
 676 089c 502084E5 		str	r2, [r4, #80]
 677 08a0 30309CE5 		ldr	r3, [ip, #48]
 678 08a4 30308CE5 		str	r3, [ip, #48]
 679 08a8 003096E5 		ldr	r3, [r6]
 680 08ac B601D2E1 		ldrh	r0, [r2, #22]
 681 08b0 033683E2 		add	r3, r3, #3145728
 682 08b4 000050E3 		cmp	r0, #0
 683 08b8 081083E5 		str	r1, [r3, #8]
 684 08bc 003096E5 		ldr	r3, [r6]
ARM GAS  C:\Users\ldebo\AppData\Local\Temp\ccrazFu5.s 			page 13


 685 08c0 102092E5 		ldr	r2, [r2, #16]
 686 08c4 033683E2 		add	r3, r3, #3145728
 687 08c8 0C2083E5 		str	r2, [r3, #12]
 688 08cc 3600001A 		bne	.L138
 689              	.L128:
 690 08d0 0100A0E3 		mov	r0, #1
 691 08d4 09FEFFEB 		bl	sdWaitForInterrupt
 692 08d8 000050E3 		cmp	r0, #0
 693 08dc E8FFFF1A 		bne	.L107
 694 08e0 003096E5 		ldr	r3, [r6]
 695 08e4 00209DE5 		ldr	r2, [sp]
 696 08e8 033683E2 		add	r3, r3, #3145728
 697 08ec 101093E5 		ldr	r1, [r3, #16]
 698 08f0 1220D2E5 		ldrb	r2, [r2, #18]	@ zero_extendqisi2
 699 08f4 032002E2 		and	r2, r2, #3
 700 08f8 020052E3 		cmp	r2, #2
 701 08fc 1000000A 		beq	.L117
 702 0900 2C00008A 		bhi	.L135
 703 0904 010052E3 		cmp	r2, #1
 704 0908 DDFFFF1A 		bne	.L107
 705 090c 00209DE5 		ldr	r2, [sp]
 706 0910 4C0084E5 		str	r0, [r4, #76]
 707 0914 102092E5 		ldr	r2, [r2, #16]
 708 0918 522CE5E7 		ubfx	r2, r2, #24, #6
 709 091c 090052E3 		cmp	r2, #9
 710 0920 3000000A 		beq	.L139
 711 0924 141084E5 		str	r1, [r4, #20]
 712 0928 142093E5 		ldr	r2, [r3, #20]
 713 092c 102084E5 		str	r2, [r4, #16]
 714 0930 182093E5 		ldr	r2, [r3, #24]
 715 0934 0C2084E5 		str	r2, [r4, #12]
 716 0938 1C3093E5 		ldr	r3, [r3, #28]
 717 093c 083084E5 		str	r3, [r4, #8]
 718 0940 CFFFFFEA 		b	.L107
 719              	.L117:
 720 0944 00309DE5 		ldr	r3, [sp]
 721 0948 103093E5 		ldr	r3, [r3, #16]
 722 094c 533CE5E7 		ubfx	r3, r3, #24, #6
 723 0950 080053E3 		cmp	r3, #8
 724 0954 1C00000A 		beq	.L121
 725 0958 290053E3 		cmp	r3, #41
 726 095c A400000A 		beq	.L122
 727 0960 030053E3 		cmp	r3, #3
 728 0964 1300001A 		bne	.L135
 729 0968 0124A0E1 		lsl	r2, r1, #8
 730 096c 0400A0E3 		mov	r0, #4
 731 0970 0133A0E1 		lsl	r3, r1, #6
 732 0974 01E502E2 		and	lr, r2, #4194304
 733 0978 51C0ECE7 		ubfx	ip, r1, #0, #13
 734 097c 023703E2 		and	r3, r3, #524288
 735 0980 0E3083E1 		orr	r3, r3, lr
 736 0984 022502E2 		and	r2, r2, #8388608
 737 0988 2118A0E1 		lsr	r1, r1, #16
 738 098c 0C3083E1 		orr	r3, r3, ip
 739 0990 023083E1 		orr	r3, r3, r2
 740 0994 0118A0E1 		lsl	r1, r1, #16
 741 0998 C80040E3 		movt	r0, 200
ARM GAS  C:\Users\ldebo\AppData\Local\Temp\ccrazFu5.s 			page 14


 742 099c 4C3084E5 		str	r3, [r4, #76]
 743 09a0 030000E0 		and	r0, r0, r3
 744 09a4 441084E5 		str	r1, [r4, #68]
 745 09a8 B5FFFFEA 		b	.L107
 746              	.L138:
 747 09ac 0010A0E3 		mov	r1, #0
 748 09b0 FEFFFFEB 		bl	timer_wait
 749 09b4 C5FFFFEA 		b	.L128
 750              	.L135:
 751 09b8 4C1084E5 		str	r1, [r4, #76]
 752 09bc 04000CE3 		movw	r0, #49156
 753 09c0 F90F4FE3 		movt	r0, 65529
 754 09c4 010000E0 		and	r0, r0, r1
 755 09c8 ADFFFFEA 		b	.L107
 756              	.L121:
 757 09cc 04309DE5 		ldr	r3, [sp, #4]
 758 09d0 4C0084E5 		str	r0, [r4, #76]
 759 09d4 010053E0 		subs	r0, r3, r1
 760 09d8 0100A013 		movne	r0, #1
 761 09dc A8FFFFEA 		b	.L107
 762              	.L142:
 763              		.align	3
 764              	.L141:
 765 09e0 3F420F00 		.word	999999
 766 09e4 00000000 		.word	0
 767              	.L139:
 768 09e8 10E093E5 		ldr	lr, [r3, #16]
 769 09ec 146093E5 		ldr	r6, [r3, #20]
 770 09f0 182093E5 		ldr	r2, [r3, #24]
 771 09f4 1C5093E5 		ldr	r5, [r3, #28]
 772 09f8 0C208DE5 		str	r2, [sp, #12]
 773 09fc 0C30DDE5 		ldrb	r3, [sp, #12]	@ zero_extendqisi2
 774 0a00 1E20D4E5 		ldrb	r2, [r4, #30]	@ zero_extendqisi2
 775 0a04 55C8E7E7 		ubfx	ip, r5, #16, #8
 776 0a08 A313A0E1 		lsr	r1, r3, #7
 777 0a0c 1800D4E5 		ldrb	r0, [r4, #24]	@ zero_extendqisi2
 778 0a10 1120C0E7 		bfi	r2, r1, #0, #1
 779 0a14 2C83A0E1 		lsr	r8, ip, #6
 780 0a18 0D10DDE5 		ldrb	r1, [sp, #13]	@ zero_extendqisi2
 781 0a1c 0E70DDE5 		ldrb	r7, [sp, #14]	@ zero_extendqisi2
 782 0a20 1800C1E7 		bfi	r0, r8, #0, #2
 783 0a24 14E08DE5 		str	lr, [sp, #20]
 784 0a28 0FE001E2 		and	lr, r1, #15
 785 0a2c 1C01C7E7 		bfi	r0, ip, #2, #6
 786 0a30 2112A0E1 		lsr	r1, r1, #4
 787 0a34 071281E1 		orr	r1, r1, r7, lsl #4
 788 0a38 037000E2 		and	r7, r0, #3
 789 0a3c 53C3E0E7 		ubfx	ip, r3, #6, #1
 790 0a40 010057E3 		cmp	r7, #1
 791 0a44 BC71D4E1 		ldrh	r7, [r4, #28]
 792 0a48 9C20C1E7 		bfi	r2, ip, #1, #1
 793 0a4c D3C2E0E7 		ubfx	ip, r3, #5, #1
 794 0a50 1170CBE7 		bfi	r7, r1, #0, #12
 795 0a54 1C21C2E7 		bfi	r2, ip, #2, #1
 796 0a58 5312E0E7 		ubfx	r1, r3, #4, #1
 797 0a5c 9121C3E7 		bfi	r2, r1, #3, #1
 798 0a60 10608DE5 		str	r6, [sp, #16]
ARM GAS  C:\Users\ldebo\AppData\Local\Temp\ccrazFu5.s 			page 15


 799 0a64 27C4A0E1 		lsr	ip, r7, #8
 800 0a68 1E20C4E5 		strb	r2, [r4, #30]
 801 0a6c 0F20DDE5 		ldrb	r2, [sp, #15]	@ zero_extendqisi2
 802 0a70 1EC2C7E7 		bfi	ip, lr, #4, #4
 803 0a74 5514E7E7 		ubfx	r1, r5, #8, #8
 804 0a78 BC71C4E1 		strh	r7, [r4, #28]	@ movhi
 805 0a7c 1A50C4E5 		strb	r5, [r4, #26]
 806 0a80 1910C4E5 		strb	r1, [r4, #25]
 807 0a84 1DC0C4E5 		strb	ip, [r4, #29]
 808 0a88 1800C4E5 		strb	r0, [r4, #24]
 809 0a8c 1B20C4E5 		strb	r2, [r4, #27]
 810 0a90 5A00000A 		beq	.L140
 811 0a94 1250DDE5 		ldrb	r5, [sp, #18]	@ zero_extendqisi2
 812 0a98 FC0F00E3 		movw	r0, #4092
 813 0a9c 1360DDE5 		ldrb	r6, [sp, #19]	@ zero_extendqisi2
 814 0aa0 2020D4E5 		ldrb	r2, [r4, #32]	@ zero_extendqisi2
 815 0aa4 0334A0E1 		lsl	r3, r3, #8
 816 0aa8 C5C1A0E1 		asr	ip, r5, #3
 817 0aac 033C03E2 		and	r3, r3, #768
 818 0ab0 1110DDE5 		ldrb	r1, [sp, #17]	@ zero_extendqisi2
 819 0ab4 036086E0 		add	r6, r6, r3
 820 0ab8 1C20C2E7 		bfi	r2, ip, #0, #3
 821 0abc 10C0DDE5 		ldrb	ip, [sp, #16]	@ zero_extendqisi2
 822 0ac0 0230A0E1 		mov	r3, r2
 823 0ac4 9531C5E7 		bfi	r3, r5, #3, #3
 824 0ac8 062100E0 		and	r2, r0, r6, lsl #2
 825 0acc 8100A0E1 		lsl	r0, r1, #1
 826 0ad0 2030C4E5 		strb	r3, [r4, #32]
 827 0ad4 060000E2 		and	r0, r0, #6
 828 0ad8 B032D4E1 		ldrh	r3, [r4, #32]
 829 0adc 252382E0 		add	r2, r2, r5, lsr #6
 830 0ae0 AC5380E1 		orr	r5, r0, ip, lsr #7
 831 0ae4 A102A0E1 		lsr	r0, r1, #5
 832 0ae8 026085E2 		add	r6, r5, #2
 833 0aec 1033C8E7 		bfi	r3, r0, #6, #3
 834 0af0 010082E2 		add	r0, r2, #1
 835 0af4 4111A0E1 		asr	r1, r1, #2
 836 0af8 1006A0E1 		lsl	r0, r0, r6
 837 0afc B032C4E1 		strh	r3, [r4, #32]	@ movhi
 838 0b00 100EA0E1 		lsl	r0, r0, lr
 839 0b04 2334A0E1 		lsr	r3, r3, #8
 840 0b08 BEE1D4E1 		ldrh	lr, [r4, #30]
 841 0b0c 9130C3E7 		bfi	r3, r1, #1, #3
 842 0b10 1532C6E7 		bfi	r3, r5, #4, #3
 843 0b14 12E2CFE7 		bfi	lr, r2, #4, #12
 844 0b18 C01FA0E1 		asr	r1, r0, #31
 845 0b1c 2130C4E5 		strb	r3, [r4, #33]
 846 0b20 BEE1C4E1 		strh	lr, [r4, #30]	@ movhi
 847 0b24 F803C4E1 		strd	r0, [r4, #56]
 848              	.L126:
 849 0b28 1630DDE5 		ldrb	r3, [sp, #22]	@ zero_extendqisi2
 850 0b2c 3F500CE2 		and	r5, ip, #63
 851 0b30 1720DDE5 		ldrb	r2, [sp, #23]	@ zero_extendqisi2
 852 0b34 0000A0E3 		mov	r0, #0
 853 0b38 2810D4E5 		ldrb	r1, [r4, #40]	@ zero_extendqisi2
 854 0b3c A3E3A0E1 		lsr	lr, r3, #7
 855 0b40 1210C6E7 		bfi	r1, r2, #0, #7
ARM GAS  C:\Users\ldebo\AppData\Local\Temp\ccrazFu5.s 			page 16


 856 0b44 2A60D4E5 		ldrb	r6, [r4, #42]	@ zero_extendqisi2
 857 0b48 9E13C7E7 		bfi	r1, lr, #7, #1
 858 0b4c 2810C4E5 		strb	r1, [r4, #40]
 859 0b50 29E0D4E5 		ldrb	lr, [r4, #41]	@ zero_extendqisi2
 860 0b54 D312E1E7 		ubfx	r1, r3, #5, #2
 861 0b58 1161C6E7 		bfi	r6, r1, #2, #5
 862 0b5c 4311A0E1 		asr	r1, r3, #2
 863 0b60 2A60C4E5 		strb	r6, [r4, #42]
 864 0b64 11E1C4E7 		bfi	lr, r1, #2, #3
 865 0b68 1560DDE5 		ldrb	r6, [sp, #21]	@ zero_extendqisi2
 866 0b6c 0331A0E1 		lsl	r3, r3, #2
 867 0b70 29E0C4E5 		strb	lr, [r4, #41]
 868 0b74 0C3003E2 		and	r3, r3, #12
 869 0b78 281094E5 		ldr	r1, [r4, #40]
 870 0b7c 263383E1 		orr	r3, r3, r6, lsr #6
 871 0b80 14E0DDE5 		ldrb	lr, [sp, #20]	@ zero_extendqisi2
 872 0b84 9316D0E7 		bfi	r1, r3, #13, #4
 873 0b88 5E73E0E7 		ubfx	r7, lr, #6, #1
 874 0b8c 213CA0E1 		lsr	r3, r1, #24
 875 0b90 1730C0E7 		bfi	r3, r7, #0, #1
 876 0b94 DE72E0E7 		ubfx	r7, lr, #5, #1
 877 0b98 9730C1E7 		bfi	r3, r7, #1, #1
 878 0b9c 4C73A0E1 		asr	r7, ip, #6
 879 0ba0 5EC2E0E7 		ubfx	ip, lr, #4, #1
 880 0ba4 1C31C2E7 		bfi	r3, ip, #2, #1
 881 0ba8 C220A0E1 		asr	r2, r2, #1
 882 0bac 24C0D4E5 		ldrb	ip, [r4, #36]	@ zero_extendqisi2
 883 0bb0 402002E2 		and	r2, r2, #64
 884 0bb4 281084E5 		str	r1, [r4, #40]
 885 0bb8 052082E1 		orr	r2, r2, r5
 886 0bbc D662E0E7 		ubfx	r6, r6, #5, #1
 887 0bc0 2118A0E1 		lsr	r1, r1, #16
 888 0bc4 4E51A0E1 		asr	r5, lr, #2
 889 0bc8 17C0C0E7 		bfi	ip, r7, #0, #1
 890 0bcc 92C0C7E7 		bfi	ip, r2, #1, #7
 891 0bd0 9610C1E7 		bfi	r1, r6, #1, #1
 892 0bd4 9531C4E7 		bfi	r3, r5, #3, #2
 893 0bd8 AE23A0E1 		lsr	r2, lr, #7
 894 0bdc 9E32C6E7 		bfi	r3, lr, #5, #2
 895 0be0 9213C7E7 		bfi	r1, r2, #7, #1
 896 0be4 24C0C4E5 		strb	ip, [r4, #36]
 897 0be8 2B30C4E5 		strb	r3, [r4, #43]
 898 0bec 2A10C4E5 		strb	r1, [r4, #42]
 899 0bf0 23FFFFEA 		b	.L107
 900              	.L122:
 901 0bf4 4C0084E5 		str	r0, [r4, #76]
 902 0bf8 481084E5 		str	r1, [r4, #72]
 903 0bfc 20FFFFEA 		b	.L107
 904              	.L140:
 905 0c00 1320DDE5 		ldrb	r2, [sp, #19]	@ zero_extendqisi2
 906 0c04 1200DDE5 		ldrb	r0, [sp, #18]	@ zero_extendqisi2
 907 0c08 1130DDE5 		ldrb	r3, [sp, #17]	@ zero_extendqisi2
 908 0c0c 0228A0E1 		lsl	r2, r2, #16
 909 0c10 201094E5 		ldr	r1, [r4, #32]
 910 0c14 3F2802E2 		and	r2, r2, #4128768
 911 0c18 003483E0 		add	r3, r3, r0, lsl #8
 912 0c1c 023083E0 		add	r3, r3, r2
ARM GAS  C:\Users\ldebo\AppData\Local\Temp\ccrazFu5.s 			page 17


 913 0c20 1310D5E7 		bfi	r1, r3, #0, #22
 914 0c24 903B80EE 		vdup.32	d16, r3
 915 0c28 201084E5 		str	r1, [r4, #32]
 916 0c2c 10C0DDE5 		ldrb	ip, [sp, #16]	@ zero_extendqisi2
 917 0c30 B000E0F3 		vshr.u64	d16, d16, #32
 918 0c34 B005D3F2 		vshl.u64	d16, d16, #19
 919 0c38 0E0BC4ED 		vstr.64	d16, [r4, #56]	@ int
 920 0c3c B9FFFFEA 		b	.L126
 921              		.size	sdSendCommandP, .-sdSendCommandP
 922              		.align	2
 923              		.syntax unified
 924              		.arm
 925              		.fpu neon
 926              		.type	sdAppSendOpCond, %function
 927              	sdAppSendOpCond:
 928              		@ args = 0, pretend = 0, frame = 0
 929              		@ frame_needed = 0, uses_anonymous_args = 0
 930 0c40 F84F2DE9 		push	{r3, r4, r5, r6, r7, r8, r9, r10, fp, lr}
 931 0c44 004000E3 		movw	r4, #:lower16:.LANCHOR0
 932 0c48 004040E3 		movt	r4, #:upper16:.LANCHOR0
 933 0c4c 0070A0E1 		mov	r7, r0
 934 0c50 441094E5 		ldr	r1, [r4, #68]
 935 0c54 000051E3 		cmp	r1, #0
 936 0c58 4D00000A 		beq	.L179
 937 0c5c 64019FE5 		ldr	r0, .L182
 938 0c60 C7FEFFEB 		bl	sdSendCommandP
 939 0c64 7050EFE6 		uxtb	r5, r0
 940 0c68 000055E3 		cmp	r5, #0
 941 0c6c 3200001A 		bne	.L146
 942 0c70 4C3094E5 		ldr	r3, [r4, #76]
 943 0c74 200013E3 		tst	r3, #32
 944 0c78 4000000A 		beq	.L162
 945              	.L145:
 946 0c7c 48019FE5 		ldr	r0, .L182+4
 947 0c80 0710A0E1 		mov	r1, r7
 948 0c84 BEFEFFEB 		bl	sdSendCommandP
 949 0c88 7050EFE6 		uxtb	r5, r0
 950 0c8c 000055E3 		cmp	r5, #0
 951 0c90 2900001A 		bne	.L146
 952 0c94 443094E5 		ldr	r3, [r4, #68]
 953 0c98 000053E3 		cmp	r3, #0
 954 0c9c 3F00001A 		bne	.L148
 955              	.L150:
 956 0ca0 24919FE5 		ldr	r9, .L182+4
 957 0ca4 6AADA0E3 		mov	r10, #6784
 958 0ca8 06A040E3 		movt	r10, 6
 959 0cac 0760A0E3 		mov	r6, #7
 960 0cb0 00B0A0E3 		mov	fp, #0
 961 0cb4 908049E2 		sub	r8, r9, #144
 962              	.L149:
 963 0cb8 DB34D4E1 		ldrsb	r3, [r4, #75]
 964 0cbc 0A00A0E1 		mov	r0, r10
 965 0cc0 0B10A0E1 		mov	r1, fp
 966 0cc4 000053E3 		cmp	r3, #0
 967 0cc8 380000BA 		blt	.L157
 968 0ccc 016056E2 		subs	r6, r6, #1
 969 0cd0 2C00000A 		beq	.L180
ARM GAS  C:\Users\ldebo\AppData\Local\Temp\ccrazFu5.s 			page 18


 970 0cd4 FEFFFFEB 		bl	timer_wait
 971 0cd8 443094E5 		ldr	r3, [r4, #68]
 972 0cdc 0800A0E1 		mov	r0, r8
 973 0ce0 001053E2 		subs	r1, r3, #0
 974 0ce4 2200000A 		beq	.L181
 975 0ce8 A5FEFFEB 		bl	sdSendCommandP
 976 0cec 7050EFE6 		uxtb	r5, r0
 977 0cf0 000055E3 		cmp	r5, #0
 978 0cf4 1B00001A 		bne	.L153
 979 0cf8 4C3094E5 		ldr	r3, [r4, #76]
 980 0cfc 200013E3 		tst	r3, #32
 981 0d00 1E00000A 		beq	.L162
 982              	.L152:
 983 0d04 0710A0E1 		mov	r1, r7
 984 0d08 0900A0E1 		mov	r0, r9
 985 0d0c 9CFEFFEB 		bl	sdSendCommandP
 986 0d10 7050EFE6 		uxtb	r5, r0
 987 0d14 000055E3 		cmp	r5, #0
 988 0d18 1200001A 		bne	.L153
 989 0d1c 443094E5 		ldr	r3, [r4, #68]
 990 0d20 000053E3 		cmp	r3, #0
 991 0d24 E3FFFF0A 		beq	.L149
 992 0d28 4C3094E5 		ldr	r3, [r4, #76]
 993 0d2c 200013E3 		tst	r3, #32
 994 0d30 E0FFFF1A 		bne	.L149
 995              	.L163:
 996 0d34 0950A0E3 		mov	r5, #9
 997 0d38 010000EA 		b	.L160
 998              	.L146:
 999 0d3c 020055E3 		cmp	r5, #2
 1000 0d40 D6FFFF0A 		beq	.L150
 1001              	.L160:
 1002 0d44 003094E5 		ldr	r3, [r4]
 1003 0d48 000053E3 		cmp	r3, #0
 1004 0d4c 0300000A 		beq	.L166
 1005 0d50 000000E3 		movw	r0, #:lower16:.LC6
 1006 0d54 0510A0E1 		mov	r1, r5
 1007 0d58 000040E3 		movt	r0, #:upper16:.LC6
 1008 0d5c 33FF2FE1 		blx	r3
 1009              	.L166:
 1010 0d60 0500A0E1 		mov	r0, r5
 1011 0d64 F88FBDE8 		pop	{r3, r4, r5, r6, r7, r8, r9, r10, fp, pc}
 1012              	.L153:
 1013 0d68 020055E3 		cmp	r5, #2
 1014 0d6c D1FFFF0A 		beq	.L149
 1015 0d70 F3FFFFEA 		b	.L160
 1016              	.L181:
 1017 0d74 54009FE5 		ldr	r0, .L182+8
 1018 0d78 81FEFFEB 		bl	sdSendCommandP
 1019 0d7c E0FFFFEA 		b	.L152
 1020              	.L162:
 1021 0d80 0150A0E3 		mov	r5, #1
 1022 0d84 EEFFFFEA 		b	.L160
 1023              	.L180:
 1024 0d88 0250A0E3 		mov	r5, #2
 1025 0d8c 0500A0E1 		mov	r0, r5
 1026 0d90 F88FBDE8 		pop	{r3, r4, r5, r6, r7, r8, r9, r10, fp, pc}
ARM GAS  C:\Users\ldebo\AppData\Local\Temp\ccrazFu5.s 			page 19


 1027              	.L179:
 1028 0d94 34009FE5 		ldr	r0, .L182+8
 1029 0d98 79FEFFEB 		bl	sdSendCommandP
 1030 0d9c B6FFFFEA 		b	.L145
 1031              	.L148:
 1032 0da0 4C3094E5 		ldr	r3, [r4, #76]
 1033 0da4 200013E3 		tst	r3, #32
 1034 0da8 E1FFFF0A 		beq	.L163
 1035 0dac BBFFFFEA 		b	.L150
 1036              	.L157:
 1037 0db0 4A30D4E5 		ldrb	r3, [r4, #74]	@ zero_extendqisi2
 1038 0db4 300013E3 		tst	r3, #48
 1039 0db8 0850A003 		moveq	r5, #8
 1040 0dbc 0050A013 		movne	r5, #0
 1041 0dc0 0500A0E1 		mov	r0, r5
 1042 0dc4 F88FBDE8 		pop	{r3, r4, r5, r6, r7, r8, r9, r10, fp, pc}
 1043              	.L183:
 1044              		.align	2
 1045              	.L182:
 1046 0dc8 D0020000 		.word	.LANCHOR1+720
 1047 0dcc 60030000 		.word	.LANCHOR1+864
 1048 0dd0 B8020000 		.word	.LANCHOR1+696
 1049              		.size	sdAppSendOpCond, .-sdAppSendOpCond
 1050              		.align	2
 1051              		.syntax unified
 1052              		.arm
 1053              		.fpu neon
 1054              		.type	sdSendCommand, %function
 1055              	sdSendCommand:
 1056              		@ args = 0, pretend = 0, frame = 0
 1057              		@ frame_needed = 0, uses_anonymous_args = 0
 1058 0dd4 1F0050E3 		cmp	r0, #31
 1059 0dd8 70402DE9 		push	{r4, r5, r6, lr}
 1060 0ddc 0040A0E1 		mov	r4, r0
 1061 0de0 170000CA 		bgt	.L197
 1062              	.L186:
 1063 0de4 003000E3 		movw	r3, #:lower16:.LANCHOR1
 1064 0de8 1800A0E3 		mov	r0, #24
 1065 0dec 003040E3 		movt	r3, #:upper16:.LANCHOR1
 1066 0df0 903420E0 		mla	r0, r0, r4, r3
 1067 0df4 1410D0E5 		ldrb	r1, [r0, #20]	@ zero_extendqisi2
 1068 0df8 011011E2 		ands	r1, r1, #1
 1069 0dfc 00300013 		movwne	r3, #:lower16:.LANCHOR0
 1070 0e00 00304013 		movtne	r3, #:upper16:.LANCHOR0
 1071 0e04 44109315 		ldrne	r1, [r3, #68]
 1072 0e08 5DFEFFEB 		bl	sdSendCommandP
 1073 0e0c 7000EFE6 		uxtb	r0, r0
 1074 0e10 000050E3 		cmp	r0, #0
 1075 0e14 7080BD18 		popne	{r4, r5, r6, pc}
 1076 0e18 1F0054E3 		cmp	r4, #31
 1077 0e1c 7080BDD8 		pople	{r4, r5, r6, pc}
 1078 0e20 003000E3 		movw	r3, #:lower16:.LANCHOR0
 1079 0e24 003040E3 		movt	r3, #:upper16:.LANCHOR0
 1080 0e28 442093E5 		ldr	r2, [r3, #68]
 1081 0e2c 000052E3 		cmp	r2, #0
 1082 0e30 7080BD08 		popeq	{r4, r5, r6, pc}
 1083 0e34 4C3093E5 		ldr	r3, [r3, #76]
ARM GAS  C:\Users\ldebo\AppData\Local\Temp\ccrazFu5.s 			page 20


 1084 0e38 200013E3 		tst	r3, #32
 1085 0e3c 0900A003 		moveq	r0, #9
 1086 0e40 7080BDE8 		pop	{r4, r5, r6, pc}
 1087              	.L197:
 1088 0e44 005000E3 		movw	r5, #:lower16:.LANCHOR0
 1089 0e48 005040E3 		movt	r5, #:upper16:.LANCHOR0
 1090 0e4c 441095E5 		ldr	r1, [r5, #68]
 1091 0e50 000051E3 		cmp	r1, #0
 1092 0e54 0900000A 		beq	.L198
 1093 0e58 2C009FE5 		ldr	r0, .L199
 1094 0e5c 48FEFFEB 		bl	sdSendCommandP
 1095 0e60 7000EFE6 		uxtb	r0, r0
 1096 0e64 000050E3 		cmp	r0, #0
 1097 0e68 7080BD18 		popne	{r4, r5, r6, pc}
 1098 0e6c 4C3095E5 		ldr	r3, [r5, #76]
 1099 0e70 200013E3 		tst	r3, #32
 1100 0e74 DAFFFF1A 		bne	.L186
 1101 0e78 0100A0E3 		mov	r0, #1
 1102 0e7c 7080BDE8 		pop	{r4, r5, r6, pc}
 1103              	.L198:
 1104 0e80 08009FE5 		ldr	r0, .L199+4
 1105 0e84 3EFEFFEB 		bl	sdSendCommandP
 1106 0e88 D5FFFFEA 		b	.L186
 1107              	.L200:
 1108              		.align	2
 1109              	.L199:
 1110 0e8c D0020000 		.word	.LANCHOR1+720
 1111 0e90 B8020000 		.word	.LANCHOR1+696
 1112              		.size	sdSendCommand, .-sdSendCommand
 1113              		.align	2
 1114              		.syntax unified
 1115              		.arm
 1116              		.fpu neon
 1117              		.type	sdResetCard, %function
 1118              	sdResetCard:
 1119              		@ args = 0, pretend = 0, frame = 0
 1120              		@ frame_needed = 0, uses_anonymous_args = 0
 1121 0e94 F0472DE9 		push	{r4, r5, r6, r7, r8, r9, r10, lr}
 1122 0e98 00A000E3 		movw	r10, #:lower16:RPi_IO_Base_Addr
 1123 0e9c 00A040E3 		movt	r10, #:upper16:RPi_IO_Base_Addr
 1124 0ea0 0020A0E3 		mov	r2, #0
 1125 0ea4 0040A0E3 		mov	r4, #0
 1126 0ea8 0050A0E3 		mov	r5, #0
 1127 0eac 00309AE5 		ldr	r3, [r10]
 1128 0eb0 0A00A0E3 		mov	r0, #10
 1129 0eb4 0010A0E3 		mov	r1, #0
 1130 0eb8 0480A0E1 		mov	r8, r4
 1131 0ebc 033683E2 		add	r3, r3, #3145728
 1132 0ec0 0590A0E1 		mov	r9, r5
 1133 0ec4 577F8FE2 		adr	r7, .L212
 1134 0ec8 D060C7E1 		ldrd	r6, [r7]
 1135 0ecc 282083E5 		str	r2, [r3, #40]
 1136 0ed0 00309AE5 		ldr	r3, [r10]
 1137 0ed4 033683E2 		add	r3, r3, #3145728
 1138 0ed8 2C2083E5 		str	r2, [r3, #44]
 1139 0edc 00309AE5 		ldr	r3, [r10]
 1140 0ee0 033683E2 		add	r3, r3, #3145728
ARM GAS  C:\Users\ldebo\AppData\Local\Temp\ccrazFu5.s 			page 21


 1141 0ee4 2C2093E5 		ldr	r2, [r3, #44]
 1142 0ee8 012482E3 		orr	r2, r2, #16777216
 1143 0eec 2C2083E5 		str	r2, [r3, #44]
 1144 0ef0 FEFFFFEB 		bl	timer_wait
 1145              	.L202:
 1146 0ef4 00309AE5 		ldr	r3, [r10]
 1147 0ef8 033683E2 		add	r3, r3, #3145728
 1148 0efc 2C3083E2 		add	r3, r3, #44
 1149 0f00 002093E5 		ldr	r2, [r3]
 1150 0f04 010412E3 		tst	r2, #16777216
 1151 0f08 1100000A 		beq	.L205
 1152 0f0c 070059E1 		cmp	r9, r7
 1153 0f10 06005801 		cmpeq	r8, r6
 1154 0f14 1300008A 		bhi	.L207
 1155 0f18 053094E1 		orrs	r3, r4, r5
 1156 0f1c 0300001A 		bne	.L203
 1157 0f20 FEFFFFEB 		bl	timer_getTickCount
 1158 0f24 0040A0E1 		mov	r4, r0
 1159 0f28 0150A0E1 		mov	r5, r1
 1160 0f2c F0FFFFEA 		b	.L202
 1161              	.L203:
 1162 0f30 FEFFFFEB 		bl	timer_getTickCount
 1163 0f34 0020A0E1 		mov	r2, r0
 1164 0f38 0130A0E1 		mov	r3, r1
 1165 0f3c 0400A0E1 		mov	r0, r4
 1166 0f40 0510A0E1 		mov	r1, r5
 1167 0f44 FEFFFFEB 		bl	tick_difference
 1168 0f48 0080A0E1 		mov	r8, r0
 1169 0f4c 0190A0E1 		mov	r9, r1
 1170 0f50 E7FFFFEA 		b	.L202
 1171              	.L205:
 1172 0f54 CC108FE2 		adr	r1, .L212
 1173 0f58 D000C1E1 		ldrd	r0, [r1]
 1174 0f5c 010059E1 		cmp	r9, r1
 1175 0f60 00005801 		cmpeq	r8, r0
 1176 0f64 0B00009A 		bls	.L208
 1177              	.L207:
 1178 0f68 003000E3 		movw	r3, #:lower16:.LANCHOR0
 1179 0f6c 003040E3 		movt	r3, #:upper16:.LANCHOR0
 1180 0f70 003093E5 		ldr	r3, [r3]
 1181 0f74 000053E3 		cmp	r3, #0
 1182 0f78 0630A003 		moveq	r3, #6
 1183 0f7c 0300000A 		beq	.L209
 1184 0f80 000000E3 		movw	r0, #:lower16:.LC7
 1185 0f84 000040E3 		movt	r0, #:upper16:.LC7
 1186 0f88 33FF2FE1 		blx	r3
 1187 0f8c 0630A0E3 		mov	r3, #6
 1188              	.L209:
 1189 0f90 0300A0E1 		mov	r0, r3
 1190 0f94 F087BDE8 		pop	{r4, r5, r6, r7, r8, r9, r10, pc}
 1191              	.L208:
 1192 0f98 002093E5 		ldr	r2, [r3]
 1193 0f9c 0EC0A0E3 		mov	ip, #14
 1194 0fa0 0A00A0E3 		mov	r0, #10
 1195 0fa4 0010A0E3 		mov	r1, #0
 1196 0fa8 1C28D3E7 		bfi	r2, ip, #16, #4
 1197 0fac 002083E5 		str	r2, [r3]
ARM GAS  C:\Users\ldebo\AppData\Local\Temp\ccrazFu5.s 			page 22


 1198 0fb0 002093E5 		ldr	r2, [r3]
 1199 0fb4 012082E3 		orr	r2, r2, #1
 1200 0fb8 002083E5 		str	r2, [r3]
 1201 0fbc FEFFFFEB 		bl	timer_wait
 1202 0fc0 6A0DA0E3 		mov	r0, #6784
 1203 0fc4 060040E3 		movt	r0, 6
 1204 0fc8 AAFCFFEB 		bl	sdSetClock
 1205 0fcc 003050E2 		subs	r3, r0, #0
 1206 0fd0 EEFFFF1A 		bne	.L209
 1207 0fd4 00C09AE5 		ldr	ip, [r10]
 1208 0fd8 00E0E0E3 		mvn	lr, #0
 1209 0fdc 002000E3 		movw	r2, #:lower16:.LANCHOR0
 1210 0fe0 000000E3 		movw	r0, #:lower16:.LANCHOR1
 1211 0fe4 002040E3 		movt	r2, #:upper16:.LANCHOR0
 1212 0fe8 03C68CE2 		add	ip, ip, #3145728
 1213 0fec 000040E3 		movt	r0, #:upper16:.LANCHOR1
 1214 0ff0 0310A0E1 		mov	r1, r3
 1215 0ff4 38E08CE5 		str	lr, [ip, #56]
 1216 0ff8 00C09AE5 		ldr	ip, [r10]
 1217 0ffc 03C68CE2 		add	ip, ip, #3145728
 1218 1000 34E08CE5 		str	lr, [ip, #52]
 1219 1004 443082E5 		str	r3, [r2, #68]
 1220 1008 483082E5 		str	r3, [r2, #72]
 1221 100c 503082E5 		str	r3, [r2, #80]
 1222 1010 4C3082E5 		str	r3, [r2, #76]
 1223 1014 4030C2E5 		strb	r3, [r2, #64]
 1224 1018 D9FDFFEB 		bl	sdSendCommandP
 1225 101c 7030EFE6 		uxtb	r3, r0
 1226 1020 0300A0E1 		mov	r0, r3
 1227 1024 F087BDE8 		pop	{r4, r5, r6, r7, r8, r9, r10, pc}
 1228              	.L213:
 1229              		.align	3
 1230              	.L212:
 1231 1028 9F860100 		.word	99999
 1232 102c 00000000 		.word	0
 1233              		.size	sdResetCard, .-sdResetCard
 1234              		.align	2
 1235              		.syntax unified
 1236              		.arm
 1237              		.fpu neon
 1238              		.type	sdTransferBlocks.part.5, %function
 1239              	sdTransferBlocks.part.5:
 1240              		@ args = 0, pretend = 0, frame = 8
 1241              		@ frame_needed = 0, uses_anonymous_args = 0
 1242 1030 F04F2DE9 		push	{r4, r5, r6, r7, r8, r9, r10, fp, lr}
 1243 1034 005053E2 		subs	r5, r3, #0
 1244 1038 0CD04DE2 		sub	sp, sp, #12
 1245 103c 00B0A0E1 		mov	fp, r0
 1246 1040 0140A0E1 		mov	r4, r1
 1247 1044 0290A0E1 		mov	r9, r2
 1248 1048 0400000A 		beq	.L270
 1249 104c 010051E3 		cmp	r1, #1
 1250 1050 8D00000A 		beq	.L242
 1251 1054 1070A0E3 		mov	r7, #16
 1252 1058 1E3EA0E3 		mov	r3, #480
 1253 105c 030000EA 		b	.L233
 1254              	.L270:
ARM GAS  C:\Users\ldebo\AppData\Local\Temp\ccrazFu5.s 			page 23


 1255 1060 010051E3 		cmp	r1, #1
 1256 1064 8D00000A 		beq	.L241
 1257 1068 2070A0E3 		mov	r7, #32
 1258 106c 5A3FA0E3 		mov	r3, #360
 1259              	.L233:
 1260 1070 010054E3 		cmp	r4, #1
 1261 1074 006000E3 		movw	r6, #:lower16:.LANCHOR0
 1262 1078 006040E3 		movt	r6, #:upper16:.LANCHOR0
 1263 107c 0300009A 		bls	.L217
 1264 1080 2F10D6E5 		ldrb	r1, [r6, #47]	@ zero_extendqisi2
 1265 1084 031001E2 		and	r1, r1, #3
 1266 1088 020051E3 		cmp	r1, #2
 1267 108c 8800000A 		beq	.L271
 1268              	.L217:
 1269 1090 4010D6E5 		ldrb	r1, [r6, #64]	@ zero_extendqisi2
 1270 1094 030051E3 		cmp	r1, #3
 1271 1098 6C00001A 		bne	.L263
 1272 109c 00A000E3 		movw	r10, #:lower16:RPi_IO_Base_Addr
 1273 10a0 7400FFE6 		uxth	r0, r4
 1274 10a4 00A040E3 		movt	r10, #:upper16:RPi_IO_Base_Addr
 1275 10a8 02CCA0E3 		mov	ip, #512
 1276 10ac 8BB4A0E1 		lsl	fp, fp, #9
 1277              	.L265:
 1278 10b0 00109AE5 		ldr	r1, [r10]
 1279 10b4 002000E3 		movw	r2, #:lower16:.LANCHOR1
 1280 10b8 002040E3 		movt	r2, #:upper16:.LANCHOR1
 1281 10bc 031681E2 		add	r1, r1, #3145728
 1282 10c0 04E091E5 		ldr	lr, [r1, #4]
 1283 10c4 10E8DFE7 		bfi	lr, r0, #16, #16
 1284 10c8 04E081E5 		str	lr, [r1, #4]
 1285 10cc 040091E5 		ldr	r0, [r1, #4]
 1286 10d0 1C00C9E7 		bfi	r0, ip, #0, #10
 1287 10d4 040081E5 		str	r0, [r1, #4]
 1288 10d8 0B10A0E1 		mov	r1, fp
 1289 10dc 030082E0 		add	r0, r2, r3
 1290 10e0 04208DE5 		str	r2, [sp, #4]
 1291 10e4 A6FDFFEB 		bl	sdSendCommandP
 1292 10e8 7080EFE6 		uxtb	r8, r0
 1293 10ec 000058E3 		cmp	r8, #0
 1294 10f0 2C00001A 		bne	.L244
 1295 10f4 000054E3 		cmp	r4, #0
 1296 10f8 7600000A 		beq	.L219
 1297 10fc 08B0A0E1 		mov	fp, r8
 1298              	.L226:
 1299 1100 0700A0E1 		mov	r0, r7
 1300 1104 FDFBFFEB 		bl	sdWaitForInterrupt
 1301 1108 003050E2 		subs	r3, r0, #0
 1302 110c 5400001A 		bne	.L272
 1303 1110 030019E3 		tst	r9, #3
 1304 1114 3400000A 		beq	.L221
 1305 1118 000055E3 		cmp	r5, #0
 1306 111c 020C89E2 		add	r0, r9, #512
 1307 1120 0920A0E1 		mov	r2, r9
 1308 1124 2200001A 		bne	.L225
 1309              	.L223:
 1310 1128 00309AE5 		ldr	r3, [r10]
 1311 112c 033683E2 		add	r3, r3, #3145728
ARM GAS  C:\Users\ldebo\AppData\Local\Temp\ccrazFu5.s 			page 24


 1312 1130 203093E5 		ldr	r3, [r3, #32]
 1313 1134 2314A0E1 		lsr	r1, r3, #8
 1314 1138 0030C2E5 		strb	r3, [r2]
 1315 113c 0110E2E5 		strb	r1, [r2, #1]!
 1316 1140 020050E1 		cmp	r0, r2
 1317 1144 2318A0E1 		lsr	r1, r3, #16
 1318 1148 233CA0E1 		lsr	r3, r3, #24
 1319 114c 0110C2E5 		strb	r1, [r2, #1]
 1320 1150 0230C2E5 		strb	r3, [r2, #2]
 1321 1154 F3FFFF1A 		bne	.L223
 1322              	.L224:
 1323 1158 01B08BE2 		add	fp, fp, #1
 1324 115c 0090A0E1 		mov	r9, r0
 1325 1160 0B0054E1 		cmp	r4, fp
 1326 1164 E5FFFF1A 		bne	.L226
 1327              	.L273:
 1328 1168 000055E3 		cmp	r5, #0
 1329 116c 5C00001A 		bne	.L237
 1330              	.L231:
 1331 1170 01005BE3 		cmp	fp, #1
 1332 1174 0B00009A 		bls	.L244
 1333 1178 2F30D6E5 		ldrb	r3, [r6, #47]	@ zero_extendqisi2
 1334 117c 033003E2 		and	r3, r3, #3
 1335 1180 020053E3 		cmp	r3, #2
 1336 1184 0700000A 		beq	.L244
 1337 1188 04309DE5 		ldr	r3, [sp, #4]
 1338 118c 88019FE5 		ldr	r0, .L276
 1339 1190 0431D3E5 		ldrb	r3, [r3, #260]	@ zero_extendqisi2
 1340 1194 013013E2 		ands	r3, r3, #1
 1341 1198 0310A001 		moveq	r1, r3
 1342 119c 44109615 		ldrne	r1, [r6, #68]
 1343 11a0 77FDFFEB 		bl	sdSendCommandP
 1344 11a4 7080EFE6 		uxtb	r8, r0
 1345              	.L244:
 1346 11a8 0800A0E1 		mov	r0, r8
 1347 11ac 0CD08DE2 		add	sp, sp, #12
 1348              		@ sp needed
 1349 11b0 F08FBDE8 		pop	{r4, r5, r6, r7, r8, r9, r10, fp, pc}
 1350              	.L225:
 1351 11b4 00E0D2E5 		ldrb	lr, [r2]	@ zero_extendqisi2
 1352 11b8 01C0F2E5 		ldrb	ip, [r2, #1]!	@ zero_extendqisi2
 1353 11bc 00109AE5 		ldr	r1, [r10]
 1354 11c0 0130D2E5 		ldrb	r3, [r2, #1]	@ zero_extendqisi2
 1355 11c4 020050E1 		cmp	r0, r2
 1356 11c8 031681E2 		add	r1, r1, #3145728
 1357 11cc 0338A0E1 		lsl	r3, r3, #16
 1358 11d0 0C3483E1 		orr	r3, r3, ip, lsl #8
 1359 11d4 02C0D2E5 		ldrb	ip, [r2, #2]	@ zero_extendqisi2
 1360 11d8 0E3083E1 		orr	r3, r3, lr
 1361 11dc 0C3C83E1 		orr	r3, r3, ip, lsl #24
 1362 11e0 203081E5 		str	r3, [r1, #32]
 1363 11e4 F2FFFF1A 		bne	.L225
 1364 11e8 DAFFFFEA 		b	.L224
 1365              	.L221:
 1366 11ec 000055E3 		cmp	r5, #0
 1367 11f0 041049E2 		sub	r1, r9, #4
 1368 11f4 0C00001A 		bne	.L228
ARM GAS  C:\Users\ldebo\AppData\Local\Temp\ccrazFu5.s 			page 25


 1369 11f8 7F0F89E2 		add	r0, r9, #508
 1370              	.L229:
 1371 11fc 00309AE5 		ldr	r3, [r10]
 1372 1200 033683E2 		add	r3, r3, #3145728
 1373 1204 203093E5 		ldr	r3, [r3, #32]
 1374 1208 0430A1E5 		str	r3, [r1, #4]!
 1375 120c 010050E1 		cmp	r0, r1
 1376 1210 F9FFFF1A 		bne	.L229
 1377 1214 020C89E2 		add	r0, r9, #512
 1378              	.L274:
 1379 1218 01B08BE2 		add	fp, fp, #1
 1380 121c 0090A0E1 		mov	r9, r0
 1381 1220 0B0054E1 		cmp	r4, fp
 1382 1224 B5FFFF1A 		bne	.L226
 1383 1228 CEFFFFEA 		b	.L273
 1384              	.L228:
 1385 122c 7FCF89E2 		add	ip, r9, #508
 1386              	.L230:
 1387 1230 00309AE5 		ldr	r3, [r10]
 1388 1234 0400B1E5 		ldr	r0, [r1, #4]!
 1389 1238 033683E2 		add	r3, r3, #3145728
 1390 123c 01005CE1 		cmp	ip, r1
 1391 1240 200083E5 		str	r0, [r3, #32]
 1392 1244 F9FFFF1A 		bne	.L230
 1393 1248 020C89E2 		add	r0, r9, #512
 1394 124c F1FFFFEA 		b	.L274
 1395              	.L263:
 1396 1250 00A000E3 		movw	r10, #:lower16:RPi_IO_Base_Addr
 1397 1254 7400FFE6 		uxth	r0, r4
 1398 1258 00A040E3 		movt	r10, #:upper16:RPi_IO_Base_Addr
 1399 125c 02CCA0E3 		mov	ip, #512
 1400 1260 92FFFFEA 		b	.L265
 1401              	.L272:
 1402 1264 002096E5 		ldr	r2, [r6]
 1403 1268 000052E3 		cmp	r2, #0
 1404 126c 2300000A 		beq	.L239
 1405 1270 000000E3 		movw	r0, #:lower16:.LC8
 1406 1274 0380A0E1 		mov	r8, r3
 1407 1278 000040E3 		movt	r0, #:upper16:.LC8
 1408 127c 32FF2FE1 		blx	r2
 1409 1280 0800A0E1 		mov	r0, r8
 1410 1284 0CD08DE2 		add	sp, sp, #12
 1411              		@ sp needed
 1412 1288 F08FBDE8 		pop	{r4, r5, r6, r7, r8, r9, r10, fp, pc}
 1413              	.L242:
 1414 128c 006000E3 		movw	r6, #:lower16:.LANCHOR0
 1415 1290 1070A0E3 		mov	r7, #16
 1416 1294 006040E3 		movt	r6, #:upper16:.LANCHOR0
 1417 1298 723FA0E3 		mov	r3, #456
 1418 129c 7BFFFFEA 		b	.L217
 1419              	.L241:
 1420 12a0 006000E3 		movw	r6, #:lower16:.LANCHOR0
 1421 12a4 2070A0E3 		mov	r7, #32
 1422 12a8 006040E3 		movt	r6, #:upper16:.LANCHOR0
 1423 12ac 153EA0E3 		mov	r3, #336
 1424 12b0 76FFFFEA 		b	.L217
 1425              	.L271:
ARM GAS  C:\Users\ldebo\AppData\Local\Temp\ccrazFu5.s 			page 26


 1426 12b4 64009FE5 		ldr	r0, .L276+4
 1427 12b8 0410A0E1 		mov	r1, r4
 1428 12bc 04308DE5 		str	r3, [sp, #4]
 1429 12c0 2FFDFFEB 		bl	sdSendCommandP
 1430 12c4 04309DE5 		ldr	r3, [sp, #4]
 1431 12c8 7080EFE6 		uxtb	r8, r0
 1432 12cc 000058E3 		cmp	r8, #0
 1433 12d0 6EFFFF0A 		beq	.L217
 1434 12d4 B3FFFFEA 		b	.L244
 1435              	.L219:
 1436 12d8 000055E3 		cmp	r5, #0
 1437 12dc B1FFFF0A 		beq	.L244
 1438 12e0 08B0A0E1 		mov	fp, r8
 1439              	.L237:
 1440 12e4 0200A0E3 		mov	r0, #2
 1441 12e8 84FBFFEB 		bl	sdWaitForInterrupt
 1442 12ec 003050E2 		subs	r3, r0, #0
 1443 12f0 9EFFFF0A 		beq	.L231
 1444 12f4 002096E5 		ldr	r2, [r6]
 1445 12f8 000052E3 		cmp	r2, #0
 1446 12fc 0100001A 		bne	.L275
 1447              	.L239:
 1448 1300 0380A0E1 		mov	r8, r3
 1449 1304 A7FFFFEA 		b	.L244
 1450              	.L275:
 1451 1308 000000E3 		movw	r0, #:lower16:.LC9
 1452 130c 0380A0E1 		mov	r8, r3
 1453 1310 000040E3 		movt	r0, #:upper16:.LC9
 1454 1314 32FF2FE1 		blx	r2
 1455 1318 A2FFFFEA 		b	.L244
 1456              	.L277:
 1457              		.align	2
 1458              	.L276:
 1459 131c F0000000 		.word	.LANCHOR1+240
 1460 1320 B0010000 		.word	.LANCHOR1+432
 1461              		.size	sdTransferBlocks.part.5, .-sdTransferBlocks.part.5
 1462              		.section	.text.unlikely,"ax",%progbits
 1463              		.align	2
 1464              		.syntax unified
 1465              		.arm
 1466              		.fpu neon
 1467              		.type	sdTransferBlocks.constprop.7, %function
 1468              	sdTransferBlocks.constprop.7:
 1469              		@ args = 0, pretend = 0, frame = 0
 1470              		@ frame_needed = 0, uses_anonymous_args = 0
 1471 0000 F0472DE9 		push	{r4, r5, r6, r7, r8, r9, r10, lr}
 1472 0004 005000E3 		movw	r5, #:lower16:.LANCHOR0
 1473 0008 005040E3 		movt	r5, #:upper16:.LANCHOR0
 1474 000c 4030D5E5 		ldrb	r3, [r5, #64]	@ zero_extendqisi2
 1475 0010 000053E3 		cmp	r3, #0
 1476 0014 0570A003 		moveq	r7, #5
 1477 0018 6700000A 		beq	.L299
 1478 001c 0070A0E1 		mov	r7, r0
 1479 0020 0180A0E1 		mov	r8, r1
 1480 0024 0260A0E1 		mov	r6, r2
 1481 0028 FEFFFFEB 		bl	sdWaitForData
 1482 002c 000050E3 		cmp	r0, #0
ARM GAS  C:\Users\ldebo\AppData\Local\Temp\ccrazFu5.s 			page 27


 1483 0030 0270A013 		movne	r7, #2
 1484 0034 6000001A 		bne	.L299
 1485 0038 4030D5E5 		ldrb	r3, [r5, #64]	@ zero_extendqisi2
 1486 003c 004000E3 		movw	r4, #:lower16:RPi_IO_Base_Addr
 1487 0040 004040E3 		movt	r4, #:upper16:RPi_IO_Base_Addr
 1488 0044 000056E3 		cmp	r6, #0
 1489 0048 1300A013 		movne	r0, #19
 1490 004c 0E00A003 		moveq	r0, #14
 1491 0050 1090A013 		movne	r9, #16
 1492 0054 2090A003 		moveq	r9, #32
 1493 0058 030053E3 		cmp	r3, #3
 1494 005c 002000E3 		movw	r2, #:lower16:.LANCHOR1
 1495 0060 003094E5 		ldr	r3, [r4]
 1496 0064 02CCA0E3 		mov	ip, #512
 1497 0068 8774A001 		lsleq	r7, r7, #9
 1498 006c 002040E3 		movt	r2, #:upper16:.LANCHOR1
 1499 0070 033683E2 		add	r3, r3, #3145728
 1500 0074 0710A0E1 		mov	r1, r7
 1501 0078 1870A0E3 		mov	r7, #24
 1502 007c 04E093E5 		ldr	lr, [r3, #4]
 1503 0080 972020E0 		mla	r0, r7, r0, r2
 1504 0084 01E040E3 		movt	lr, 1
 1505 0088 04E083E5 		str	lr, [r3, #4]
 1506 008c 042093E5 		ldr	r2, [r3, #4]
 1507 0090 1C20C9E7 		bfi	r2, ip, #0, #10
 1508 0094 042083E5 		str	r2, [r3, #4]
 1509 0098 FEFFFFEB 		bl	sdSendCommandP
 1510 009c 7070EFE6 		uxtb	r7, r0
 1511 00a0 000057E3 		cmp	r7, #0
 1512 00a4 4400001A 		bne	.L299
 1513 00a8 0900A0E1 		mov	r0, r9
 1514 00ac FEFFFFEB 		bl	sdWaitForInterrupt
 1515 00b0 007050E2 		subs	r7, r0, #0
 1516 00b4 0600000A 		beq	.L309
 1517 00b8 003095E5 		ldr	r3, [r5]
 1518 00bc 000053E3 		cmp	r3, #0
 1519 00c0 3D00000A 		beq	.L299
 1520 00c4 000000E3 		movw	r0, #:lower16:.LC8
 1521 00c8 000040E3 		movt	r0, #:upper16:.LC8
 1522 00cc 33FF2FE1 		blx	r3
 1523 00d0 390000EA 		b	.L299
 1524              	.L309:
 1525 00d4 030018E3 		tst	r8, #3
 1526 00d8 0810A0E1 		mov	r1, r8
 1527 00dc 022C88E2 		add	r2, r8, #512
 1528 00e0 1D00000A 		beq	.L291
 1529              	.L286:
 1530 00e4 000056E3 		cmp	r6, #0
 1531 00e8 0B00000A 		beq	.L284
 1532 00ec 0230D1E5 		ldrb	r3, [r1, #2]	@ zero_extendqisi2
 1533 00f0 01C0D1E5 		ldrb	ip, [r1, #1]	@ zero_extendqisi2
 1534 00f4 00E0D1E5 		ldrb	lr, [r1]	@ zero_extendqisi2
 1535 00f8 000094E5 		ldr	r0, [r4]
 1536 00fc 0338A0E1 		lsl	r3, r3, #16
 1537 0100 0C3483E1 		orr	r3, r3, ip, lsl #8
 1538 0104 030680E2 		add	r0, r0, #3145728
 1539 0108 03C0D1E5 		ldrb	ip, [r1, #3]	@ zero_extendqisi2
ARM GAS  C:\Users\ldebo\AppData\Local\Temp\ccrazFu5.s 			page 28


 1540 010c 0E3083E1 		orr	r3, r3, lr
 1541 0110 0C3C83E1 		orr	r3, r3, ip, lsl #24
 1542 0114 203080E5 		str	r3, [r0, #32]
 1543 0118 090000EA 		b	.L285
 1544              	.L284:
 1545 011c 003094E5 		ldr	r3, [r4]
 1546 0120 033683E2 		add	r3, r3, #3145728
 1547 0124 203093E5 		ldr	r3, [r3, #32]
 1548 0128 23E4A0E1 		lsr	lr, r3, #8
 1549 012c 23C8A0E1 		lsr	ip, r3, #16
 1550 0130 230CA0E1 		lsr	r0, r3, #24
 1551 0134 0030C1E5 		strb	r3, [r1]
 1552 0138 01E0C1E5 		strb	lr, [r1, #1]
 1553 013c 02C0C1E5 		strb	ip, [r1, #2]
 1554 0140 0300C1E5 		strb	r0, [r1, #3]
 1555              	.L285:
 1556 0144 011081E2 		add	r1, r1, #1
 1557 0148 010052E1 		cmp	r2, r1
 1558 014c E4FFFF1A 		bne	.L286
 1559              	.L292:
 1560 0150 000056E3 		cmp	r6, #0
 1561 0154 1800000A 		beq	.L299
 1562 0158 0B0000EA 		b	.L311
 1563              	.L291:
 1564 015c 003094E5 		ldr	r3, [r4]
 1565 0160 000056E3 		cmp	r6, #0
 1566 0164 041081E2 		add	r1, r1, #4
 1567 0168 04001115 		ldrne	r0, [r1, #-4]
 1568 016c 03368302 		addeq	r3, r3, #3145728
 1569 0170 03368312 		addne	r3, r3, #3145728
 1570 0174 20309305 		ldreq	r3, [r3, #32]
 1571 0178 20008315 		strne	r0, [r3, #32]
 1572 017c 04300105 		streq	r3, [r1, #-4]
 1573 0180 010052E1 		cmp	r2, r1
 1574 0184 F4FFFF1A 		bne	.L291
 1575 0188 F0FFFFEA 		b	.L292
 1576              	.L311:
 1577 018c 0200A0E3 		mov	r0, #2
 1578 0190 FEFFFFEB 		bl	sdWaitForInterrupt
 1579 0194 003050E2 		subs	r3, r0, #0
 1580 0198 0700000A 		beq	.L299
 1581 019c 002095E5 		ldr	r2, [r5]
 1582 01a0 000052E3 		cmp	r2, #0
 1583 01a4 0370A001 		moveq	r7, r3
 1584 01a8 0300000A 		beq	.L299
 1585 01ac 000000E3 		movw	r0, #:lower16:.LC9
 1586 01b0 0370A0E1 		mov	r7, r3
 1587 01b4 000040E3 		movt	r0, #:upper16:.LC9
 1588 01b8 32FF2FE1 		blx	r2
 1589              	.L299:
 1590 01bc 0700A0E1 		mov	r0, r7
 1591 01c0 F087BDE8 		pop	{r4, r5, r6, r7, r8, r9, r10, pc}
 1592              		.size	sdTransferBlocks.constprop.7, .-sdTransferBlocks.constprop.7
 1593              		.align	2
 1594              		.syntax unified
 1595              		.arm
 1596              		.fpu neon
ARM GAS  C:\Users\ldebo\AppData\Local\Temp\ccrazFu5.s 			page 29


 1597              		.type	LoadDrivePartition, %function
 1598              	LoadDrivePartition:
 1599              		@ args = 0, pretend = 0, frame = 512
 1600              		@ frame_needed = 0, uses_anonymous_args = 0
 1601 01c4 30402DE9 		push	{r4, r5, lr}
 1602 01c8 0020A0E3 		mov	r2, #0
 1603 01cc 83DF4DE2 		sub	sp, sp, #524
 1604 01d0 0050A0E1 		mov	r5, r0
 1605 01d4 08108DE2 		add	r1, sp, #8
 1606 01d8 0200A0E1 		mov	r0, r2
 1607 01dc 87FFFFEB 		bl	sdTransferBlocks.constprop.7
 1608 01e0 002050E2 		subs	r2, r0, #0
 1609 01e4 0100000A 		beq	.L313
 1610              	.L318:
 1611 01e8 0000A0E3 		mov	r0, #0
 1612 01ec 6A0000EA 		b	.L314
 1613              	.L313:
 1614 01f0 0830DDE5 		ldrb	r3, [sp, #8]	@ zero_extendqisi2
 1615 01f4 FD3003E2 		and	r3, r3, #253
 1616 01f8 E90053E3 		cmp	r3, #233
 1617 01fc 1000001A 		bne	.L315
 1618              	.L319:
 1619 0200 1420DDE5 		ldrb	r2, [sp, #20]	@ zero_extendqisi2
 1620 0204 003000E3 		movw	r3, #:lower16:.LANCHOR0
 1621 0208 1300DDE5 		ldrb	r0, [sp, #19]	@ zero_extendqisi2
 1622 020c BE11DDE1 		ldrh	r1, [sp, #30]
 1623 0210 003040E3 		movt	r3, #:upper16:.LANCHOR0
 1624 0214 15C0DDE5 		ldrb	ip, [sp, #21]	@ zero_extendqisi2
 1625 0218 000051E3 		cmp	r1, #0
 1626 021c 020480E1 		orr	r0, r0, r2, lsl #8
 1627 0220 0340A0E1 		mov	r4, r3
 1628 0224 B621DDE1 		ldrh	r2, [sp, #22]
 1629 0228 58C083E5 		str	ip, [r3, #88]
 1630 022c 5C0083E5 		str	r0, [r3, #92]
 1631 0230 6C2083E5 		str	r2, [r3, #108]
 1632 0234 18C0DDE5 		ldrb	ip, [sp, #24]	@ zero_extendqisi2
 1633 0238 28309DE5 		ldr	r3, [sp, #40]
 1634 023c 1600000A 		beq	.L316
 1635 0240 2E0000EA 		b	.L317
 1636              	.L315:
 1637 0244 813F8DE2 		add	r3, sp, #516
 1638 0248 023083E2 		add	r3, r3, #2
 1639 024c B010D3E1 		ldrh	r1, [r3]
 1640 0250 553A0AE3 		movw	r3, #43605
 1641 0254 030051E1 		cmp	r1, r3
 1642 0258 E2FFFF1A 		bne	.L318
 1643 025c 733F8DE2 		add	r3, sp, #460
 1644 0260 1D1E8DE2 		add	r1, sp, #464
 1645 0264 023083E2 		add	r3, r3, #2
 1646 0268 00C000E3 		movw	ip, #:lower16:.LANCHOR0
 1647 026c B000D1E1 		ldrh	r0, [r1]
 1648 0270 08108DE2 		add	r1, sp, #8
 1649 0274 B030D3E1 		ldrh	r3, [r3]
 1650 0278 00C040E3 		movt	ip, #:upper16:.LANCHOR0
 1651 027c 000883E1 		orr	r0, r3, r0, lsl #16
 1652 0280 68008CE5 		str	r0, [ip, #104]
 1653 0284 5DFFFFEB 		bl	sdTransferBlocks.constprop.7
ARM GAS  C:\Users\ldebo\AppData\Local\Temp\ccrazFu5.s 			page 30


 1654 0288 0830DDE5 		ldrb	r3, [sp, #8]	@ zero_extendqisi2
 1655 028c FD3003E2 		and	r3, r3, #253
 1656 0290 E90053E3 		cmp	r3, #233
 1657 0294 D9FFFF0A 		beq	.L319
 1658 0298 D2FFFFEA 		b	.L318
 1659              	.L316:
 1660 029c 18009DE5 		ldr	r0, [sp, #24]
 1661 02a0 5004EFE7 		ubfx	r0, r0, #8, #16
 1662 02a4 000050E3 		cmp	r0, #0
 1663 02a8 1400001A 		bne	.L317
 1664 02ac 2C109DE5 		ldr	r1, [sp, #44]
 1665 02b0 000055E3 		cmp	r5, #0
 1666 02b4 24009DE5 		ldr	r0, [sp, #36]
 1667 02b8 910C01E0 		mul	r1, r1, ip
 1668 02bc 023043E0 		sub	r3, r3, r2
 1669 02c0 002082E0 		add	r2, r2, r0
 1670 02c4 34009DE5 		ldr	r0, [sp, #52]
 1671 02c8 013043E0 		sub	r3, r3, r1
 1672 02cc 012082E0 		add	r2, r2, r1
 1673 02d0 643084E5 		str	r3, [r4, #100]
 1674 02d4 602084E5 		str	r2, [r4, #96]
 1675 02d8 540084E5 		str	r0, [r4, #84]
 1676 02dc 2D00000A 		beq	.L322
 1677 02e0 4B30DDE5 		ldrb	r3, [sp, #75]	@ zero_extendqisi2
 1678 02e4 000000E3 		movw	r0, #:lower16:.LC10
 1679 02e8 4C209DE5 		ldr	r2, [sp, #76]
 1680 02ec 4F108DE2 		add	r1, sp, #79
 1681 02f0 000040E3 		movt	r0, #:upper16:.LC10
 1682 02f4 022483E1 		orr	r2, r3, r2, lsl #8
 1683 02f8 35FF2FE1 		blx	r5
 1684 02fc 180000EA 		b	.L320
 1685              	.L317:
 1686 0300 2E00DDE5 		ldrb	r0, [sp, #46]	@ zero_extendqisi2
 1687 0304 000055E3 		cmp	r5, #0
 1688 0308 682094E5 		ldr	r2, [r4, #104]
 1689 030c 213043E2 		sub	r3, r3, #33
 1690 0310 290040E2 		sub	r0, r0, #41
 1691 0314 100F6FE1 		clz	r0, r0
 1692 0318 012082E2 		add	r2, r2, #1
 1693 031c 910C01E0 		mul	r1, r1, ip
 1694 0320 A002A0E1 		lsr	r0, r0, #5
 1695 0324 0000A003 		moveq	r0, #0
 1696 0328 013043E0 		sub	r3, r3, r1
 1697 032c 000050E3 		cmp	r0, #0
 1698 0330 012082E0 		add	r2, r2, r1
 1699 0334 0210A0E3 		mov	r1, #2
 1700 0338 643084E5 		str	r3, [r4, #100]
 1701 033c 602084E5 		str	r2, [r4, #96]
 1702 0340 541084E5 		str	r1, [r4, #84]
 1703 0344 0600000A 		beq	.L320
 1704 0348 2F30DDE5 		ldrb	r3, [sp, #47]	@ zero_extendqisi2
 1705 034c 000000E3 		movw	r0, #:lower16:.LC11
 1706 0350 30209DE5 		ldr	r2, [sp, #48]
 1707 0354 33108DE2 		add	r1, sp, #51
 1708 0358 000040E3 		movt	r0, #:upper16:.LC11
 1709 035c 022483E1 		orr	r2, r3, r2, lsl #8
 1710 0360 35FF2FE1 		blx	r5
ARM GAS  C:\Users\ldebo\AppData\Local\Temp\ccrazFu5.s 			page 31


 1711              	.L320:
 1712 0364 642094E5 		ldr	r2, [r4, #100]
 1713 0368 000055E3 		cmp	r5, #0
 1714 036c 583094E5 		ldr	r3, [r4, #88]
 1715 0370 12F333E7 		udiv	r3, r2, r3
 1716 0374 0700000A 		beq	.L322
 1717 0378 54C094E5 		ldr	ip, [r4, #84]
 1718 037c 000000E3 		movw	r0, #:lower16:.LC12
 1719 0380 601094E5 		ldr	r1, [r4, #96]
 1720 0384 000040E3 		movt	r0, #:upper16:.LC12
 1721 0388 00C08DE5 		str	ip, [sp]
 1722 038c 35FF2FE1 		blx	r5
 1723 0390 0100A0E3 		mov	r0, #1
 1724 0394 000000EA 		b	.L314
 1725              	.L322:
 1726 0398 0100A0E3 		mov	r0, #1
 1727              	.L314:
 1728 039c 83DF8DE2 		add	sp, sp, #524
 1729              		@ sp needed
 1730 03a0 3080BDE8 		pop	{r4, r5, pc}
 1731              		.size	LoadDrivePartition, .-LoadDrivePartition
 1732              		.text
 1733              		.align	2
 1734              		.global	sdTransferBlocks
 1735              		.syntax unified
 1736              		.arm
 1737              		.fpu neon
 1738              		.type	sdTransferBlocks, %function
 1739              	sdTransferBlocks:
 1740              		@ args = 0, pretend = 0, frame = 0
 1741              		@ frame_needed = 0, uses_anonymous_args = 0
 1742 1324 00C000E3 		movw	ip, #:lower16:.LANCHOR0
 1743 1328 00C040E3 		movt	ip, #:upper16:.LANCHOR0
 1744 132c 40C0DCE5 		ldrb	ip, [ip, #64]	@ zero_extendqisi2
 1745 1330 00005CE3 		cmp	ip, #0
 1746 1334 0100001A 		bne	.L335
 1747 1338 0500A0E3 		mov	r0, #5
 1748 133c 1EFF2FE1 		bx	lr
 1749              	.L335:
 1750 1340 F0412DE9 		push	{r4, r5, r6, r7, r8, lr}
 1751 1344 0370A0E1 		mov	r7, r3
 1752 1348 0260A0E1 		mov	r6, r2
 1753 134c 0150A0E1 		mov	r5, r1
 1754 1350 0040A0E1 		mov	r4, r0
 1755 1354 29FBFFEB 		bl	sdWaitForData
 1756 1358 000050E3 		cmp	r0, #0
 1757 135c 0100000A 		beq	.L336
 1758 1360 0200A0E3 		mov	r0, #2
 1759 1364 F081BDE8 		pop	{r4, r5, r6, r7, r8, pc}
 1760              	.L336:
 1761 1368 0730A0E1 		mov	r3, r7
 1762 136c 0620A0E1 		mov	r2, r6
 1763 1370 0510A0E1 		mov	r1, r5
 1764 1374 0400A0E1 		mov	r0, r4
 1765 1378 F041BDE8 		pop	{r4, r5, r6, r7, r8, lr}
 1766 137c 2BFFFFEA 		b	sdTransferBlocks.part.5
 1767              		.size	sdTransferBlocks, .-sdTransferBlocks
ARM GAS  C:\Users\ldebo\AppData\Local\Temp\ccrazFu5.s 			page 32


 1768              		.align	2
 1769              		.global	sdClearBlocks
 1770              		.syntax unified
 1771              		.arm
 1772              		.fpu neon
 1773              		.type	sdClearBlocks, %function
 1774              	sdClearBlocks:
 1775              		@ args = 0, pretend = 0, frame = 8
 1776              		@ frame_needed = 0, uses_anonymous_args = 0
 1777 1380 F0402DE9 		push	{r4, r5, r6, r7, lr}
 1778 1384 004000E3 		movw	r4, #:lower16:.LANCHOR0
 1779 1388 004040E3 		movt	r4, #:upper16:.LANCHOR0
 1780 138c 0CD04DE2 		sub	sp, sp, #12
 1781 1390 4030D4E5 		ldrb	r3, [r4, #64]	@ zero_extendqisi2
 1782 1394 000053E3 		cmp	r3, #0
 1783 1398 0550A003 		moveq	r5, #5
 1784 139c 0200001A 		bne	.L356
 1785              	.L350:
 1786 13a0 0500A0E1 		mov	r0, r5
 1787 13a4 0CD08DE2 		add	sp, sp, #12
 1788              		@ sp needed
 1789 13a8 F080BDE8 		pop	{r4, r5, r6, r7, pc}
 1790              	.L356:
 1791 13ac 04108DE5 		str	r1, [sp, #4]
 1792 13b0 0050A0E1 		mov	r5, r0
 1793 13b4 11FBFFEB 		bl	sdWaitForData
 1794 13b8 04109DE5 		ldr	r1, [sp, #4]
 1795 13bc 000050E3 		cmp	r0, #0
 1796 13c0 0300000A 		beq	.L339
 1797              	.L344:
 1798 13c4 0250A0E3 		mov	r5, #2
 1799 13c8 0500A0E1 		mov	r0, r5
 1800 13cc 0CD08DE2 		add	sp, sp, #12
 1801              		@ sp needed
 1802 13d0 F080BDE8 		pop	{r4, r5, r6, r7, pc}
 1803              	.L339:
 1804 13d4 4030D4E5 		ldrb	r3, [r4, #64]	@ zero_extendqisi2
 1805 13d8 007000E3 		movw	r7, #:lower16:.LANCHOR1
 1806 13dc 007040E3 		movt	r7, #:upper16:.LANCHOR1
 1807 13e0 030053E3 		cmp	r3, #3
 1808 13e4 960F87E2 		add	r0, r7, #600
 1809 13e8 01108500 		addeq	r1, r5, r1
 1810 13ec 8554A001 		lsleq	r5, r5, #9
 1811 13f0 01608510 		addne	r6, r5, r1
 1812 13f4 8164A001 		lsleq	r6, r1, #9
 1813 13f8 0510A0E1 		mov	r1, r5
 1814 13fc E0FCFFEB 		bl	sdSendCommandP
 1815 1400 7050EFE6 		uxtb	r5, r0
 1816 1404 000055E3 		cmp	r5, #0
 1817 1408 E4FFFF1A 		bne	.L350
 1818 140c 0610A0E1 		mov	r1, r6
 1819 1410 270E87E2 		add	r0, r7, #624
 1820 1414 DAFCFFEB 		bl	sdSendCommandP
 1821 1418 7050EFE6 		uxtb	r5, r0
 1822 141c 000055E3 		cmp	r5, #0
 1823 1420 DEFFFF1A 		bne	.L350
 1824 1424 9C32D7E5 		ldrb	r3, [r7, #668]	@ zero_extendqisi2
ARM GAS  C:\Users\ldebo\AppData\Local\Temp\ccrazFu5.s 			page 33


 1825 1428 8C009FE5 		ldr	r0, .L357
 1826 142c 011013E2 		ands	r1, r3, #1
 1827 1430 44109415 		ldrne	r1, [r4, #68]
 1828 1434 D2FCFFEB 		bl	sdSendCommandP
 1829 1438 7050EFE6 		uxtb	r5, r0
 1830 143c 000055E3 		cmp	r5, #0
 1831 1440 D6FFFF1A 		bne	.L350
 1832 1444 007000E3 		movw	r7, #:lower16:RPi_IO_Base_Addr
 1833 1448 007040E3 		movt	r7, #:upper16:RPi_IO_Base_Addr
 1834 144c 003097E5 		ldr	r3, [r7]
 1835 1450 033683E2 		add	r3, r3, #3145728
 1836 1454 243093E5 		ldr	r3, [r3, #36]
 1837 1458 020013E3 		tst	r3, #2
 1838 145c 3F620413 		movwne	r6, #16959
 1839 1460 0F604013 		movtne	r6, 15
 1840 1464 CDFFFF0A 		beq	.L350
 1841              	.L343:
 1842 1468 0010A0E3 		mov	r1, #0
 1843 146c 0A00A0E3 		mov	r0, #10
 1844 1470 FEFFFFEB 		bl	timer_wait
 1845 1474 003097E5 		ldr	r3, [r7]
 1846 1478 033683E2 		add	r3, r3, #3145728
 1847 147c 241083E2 		add	r1, r3, #36
 1848 1480 242093E5 		ldr	r2, [r3, #36]
 1849 1484 020012E3 		tst	r2, #2
 1850 1488 C4FFFF0A 		beq	.L350
 1851 148c 016056E2 		subs	r6, r6, #1
 1852 1490 F4FFFF1A 		bne	.L343
 1853 1494 004094E5 		ldr	r4, [r4]
 1854 1498 000054E3 		cmp	r4, #0
 1855 149c C8FFFF0A 		beq	.L344
 1856 14a0 001091E5 		ldr	r1, [r1]
 1857 14a4 000000E3 		movw	r0, #:lower16:.LC13
 1858 14a8 302093E5 		ldr	r2, [r3, #48]
 1859 14ac 0250A0E3 		mov	r5, #2
 1860 14b0 000040E3 		movt	r0, #:upper16:.LC13
 1861 14b4 34FF2FE1 		blx	r4
 1862 14b8 B8FFFFEA 		b	.L350
 1863              	.L358:
 1864              		.align	2
 1865              	.L357:
 1866 14bc 88020000 		.word	.LANCHOR1+648
 1867              		.size	sdClearBlocks, .-sdClearBlocks
 1868              		.align	2
 1869              		.global	getSetNextCluster
 1870              		.syntax unified
 1871              		.arm
 1872              		.fpu neon
 1873              		.type	getSetNextCluster, %function
 1874              	getSetNextCluster:
 1875              		@ args = 0, pretend = 0, frame = 520
 1876              		@ frame_needed = 0, uses_anonymous_args = 0
 1877 14c0 F04F2DE9 		push	{r4, r5, r6, r7, r8, r9, r10, fp, lr}
 1878 14c4 008000E3 		movw	r8, #:lower16:.LANCHOR0
 1879 14c8 008040E3 		movt	r8, #:upper16:.LANCHOR0
 1880 14cc 83DF4DE2 		sub	sp, sp, #524
 1881 14d0 40C0D8E5 		ldrb	ip, [r8, #64]	@ zero_extendqisi2
ARM GAS  C:\Users\ldebo\AppData\Local\Temp\ccrazFu5.s 			page 34


 1882 14d4 00005CE3 		cmp	ip, #0
 1883 14d8 0200001A 		bne	.L400
 1884              	.L395:
 1885 14dc 0000E0E3 		mvn	r0, #0
 1886              	.L359:
 1887 14e0 83DF8DE2 		add	sp, sp, #524
 1888              		@ sp needed
 1889 14e4 F08FBDE8 		pop	{r4, r5, r6, r7, r8, r9, r10, fp, pc}
 1890              	.L400:
 1891 14e8 00208DE5 		str	r2, [sp]
 1892 14ec 0170A0E1 		mov	r7, r1
 1893 14f0 684098E5 		ldr	r4, [r8, #104]
 1894 14f4 0060A0E1 		mov	r6, r0
 1895 14f8 6C5098E5 		ldr	r5, [r8, #108]
 1896 14fc 5C9098E5 		ldr	r9, [r8, #92]
 1897 1500 BEFAFFEB 		bl	sdWaitForData
 1898 1504 000050E3 		cmp	r0, #0
 1899 1508 F3FFFF1A 		bne	.L395
 1900 150c 054084E0 		add	r4, r4, r5
 1901 1510 00A000E3 		movw	r10, #:lower16:RPi_IO_Base_Addr
 1902 1514 00A040E3 		movt	r10, #:upper16:RPi_IO_Base_Addr
 1903 1518 0661A0E1 		lsl	r6, r6, #2
 1904 151c 00C09AE5 		ldr	ip, [r10]
 1905 1520 16F93BE7 		udiv	fp, r6, r9
 1906 1524 0B3084E0 		add	r3, r4, fp
 1907 1528 03C68CE2 		add	ip, ip, #3145728
 1908 152c 4020D8E5 		ldrb	r2, [r8, #64]	@ zero_extendqisi2
 1909 1530 024CA0E3 		mov	r4, #512
 1910 1534 04E09CE5 		ldr	lr, [ip, #4]
 1911 1538 04308DE5 		str	r3, [sp, #4]
 1912 153c 030052E3 		cmp	r2, #3
 1913 1540 01E040E3 		movt	lr, 1
 1914 1544 0310A011 		movne	r1, r3
 1915 1548 04E08CE5 		str	lr, [ip, #4]
 1916 154c 04E09CE5 		ldr	lr, [ip, #4]
 1917 1550 8314A001 		lsleq	r1, r3, #9
 1918 1554 14E0C9E7 		bfi	lr, r4, #0, #10
 1919 1558 44019FE5 		ldr	r0, .L402
 1920 155c 04E08CE5 		str	lr, [ip, #4]
 1921 1560 87FCFFEB 		bl	sdSendCommandP
 1922 1564 FF0010E3 		tst	r0, #255
 1923 1568 DBFFFF1A 		bne	.L395
 1924 156c 2000A0E3 		mov	r0, #32
 1925 1570 E2FAFFEB 		bl	sdWaitForInterrupt
 1926 1574 000050E3 		cmp	r0, #0
 1927 1578 4100001A 		bne	.L372
 1928 157c 00009AE5 		ldr	r0, [r10]
 1929 1580 04508DE2 		add	r5, sp, #4
 1930 1584 0540A0E1 		mov	r4, r5
 1931 1588 81CF8DE2 		add	ip, sp, #516
 1932 158c 030680E2 		add	r0, r0, #3145728
 1933 1590 200080E2 		add	r0, r0, #32
 1934              	.L365:
 1935 1594 001090E5 		ldr	r1, [r0]
 1936 1598 0410A4E5 		str	r1, [r4, #4]!
 1937 159c 0C0054E1 		cmp	r4, ip
 1938 15a0 FBFFFF1A 		bne	.L365
ARM GAS  C:\Users\ldebo\AppData\Local\Temp\ccrazFu5.s 			page 35


 1939 15a4 000057E3 		cmp	r7, #0
 1940 15a8 996B66E0 		mls	r6, r9, fp, r6
 1941 15ac 0300001A 		bne	.L401
 1942 15b0 08308DE2 		add	r3, sp, #8
 1943 15b4 060093E7 		ldr	r0, [r3, r6]
 1944 15b8 83DF8DE2 		add	sp, sp, #524
 1945              		@ sp needed
 1946 15bc F08FBDE8 		pop	{r4, r5, r6, r7, r8, r9, r10, fp, pc}
 1947              	.L401:
 1948 15c0 4010D8E5 		ldrb	r1, [r8, #64]	@ zero_extendqisi2
 1949 15c4 08208DE2 		add	r2, sp, #8
 1950 15c8 00309DE5 		ldr	r3, [sp]
 1951 15cc 000051E3 		cmp	r1, #0
 1952 15d0 063082E7 		str	r3, [r2, r6]
 1953 15d4 C0FFFF0A 		beq	.L395
 1954 15d8 88FAFFEB 		bl	sdWaitForData
 1955 15dc 000050E3 		cmp	r0, #0
 1956 15e0 BDFFFF1A 		bne	.L395
 1957 15e4 4010D8E5 		ldrb	r1, [r8, #64]	@ zero_extendqisi2
 1958 15e8 026CA0E3 		mov	r6, #512
 1959 15ec 00C09AE5 		ldr	ip, [r10]
 1960 15f0 B0009FE5 		ldr	r0, .L402+4
 1961 15f4 030051E3 		cmp	r1, #3
 1962 15f8 03C68CE2 		add	ip, ip, #3145728
 1963 15fc 04309D05 		ldreq	r3, [sp, #4]
 1964 1600 04E09CE5 		ldr	lr, [ip, #4]
 1965 1604 8334A001 		lsleq	r3, r3, #9
 1966 1608 01E040E3 		movt	lr, 1
 1967 160c 04308D05 		streq	r3, [sp, #4]
 1968 1610 04E08CE5 		str	lr, [ip, #4]
 1969 1614 04E09CE5 		ldr	lr, [ip, #4]
 1970 1618 04109DE5 		ldr	r1, [sp, #4]
 1971 161c 16E0C9E7 		bfi	lr, r6, #0, #10
 1972 1620 04E08CE5 		str	lr, [ip, #4]
 1973 1624 56FCFFEB 		bl	sdSendCommandP
 1974 1628 FF0010E3 		tst	r0, #255
 1975 162c AAFFFF1A 		bne	.L395
 1976 1630 1000A0E3 		mov	r0, #16
 1977 1634 B1FAFFEB 		bl	sdWaitForInterrupt
 1978 1638 000050E3 		cmp	r0, #0
 1979 163c 1000001A 		bne	.L372
 1980              	.L369:
 1981 1640 00109AE5 		ldr	r1, [r10]
 1982 1644 0400B5E5 		ldr	r0, [r5, #4]!
 1983 1648 031681E2 		add	r1, r1, #3145728
 1984 164c 040055E1 		cmp	r5, r4
 1985 1650 200081E5 		str	r0, [r1, #32]
 1986 1654 F9FFFF1A 		bne	.L369
 1987 1658 0200A0E3 		mov	r0, #2
 1988 165c A7FAFFEB 		bl	sdWaitForInterrupt
 1989 1660 000050E3 		cmp	r0, #0
 1990 1664 9DFFFF0A 		beq	.L359
 1991 1668 003098E5 		ldr	r3, [r8]
 1992 166c 000053E3 		cmp	r3, #0
 1993 1670 99FFFF0A 		beq	.L395
 1994 1674 000000E3 		movw	r0, #:lower16:.LC9
 1995 1678 000040E3 		movt	r0, #:upper16:.LC9
ARM GAS  C:\Users\ldebo\AppData\Local\Temp\ccrazFu5.s 			page 36


 1996 167c 33FF2FE1 		blx	r3
 1997 1680 95FFFFEA 		b	.L395
 1998              	.L372:
 1999 1684 003098E5 		ldr	r3, [r8]
 2000 1688 000053E3 		cmp	r3, #0
 2001 168c 92FFFF0A 		beq	.L395
 2002 1690 000000E3 		movw	r0, #:lower16:.LC8
 2003 1694 000040E3 		movt	r0, #:upper16:.LC8
 2004 1698 33FF2FE1 		blx	r3
 2005 169c 0000E0E3 		mvn	r0, #0
 2006 16a0 8EFFFFEA 		b	.L359
 2007              	.L403:
 2008              		.align	2
 2009              	.L402:
 2010 16a4 50010000 		.word	.LANCHOR1+336
 2011 16a8 C8010000 		.word	.LANCHOR1+456
 2012              		.size	getSetNextCluster, .-getSetNextCluster
 2013              		.align	2
 2014              		.global	WildcardMatch
 2015              		.syntax unified
 2016              		.arm
 2017              		.fpu neon
 2018              		.type	WildcardMatch, %function
 2019              	WildcardMatch:
 2020              		@ args = 0, pretend = 0, frame = 0
 2021              		@ frame_needed = 0, uses_anonymous_args = 0
 2022 16ac F0472DE9 		push	{r4, r5, r6, r7, r8, r9, r10, lr}
 2023 16b0 0050A0E3 		mov	r5, #0
 2024 16b4 0080A0E1 		mov	r8, r0
 2025 16b8 0170A0E1 		mov	r7, r1
 2026 16bc 0560A0E1 		mov	r6, r5
 2027 16c0 1E0000EA 		b	.L405
 2028              	.L408:
 2029 16c4 5B0053E3 		cmp	r3, #91
 2030 16c8 3500000A 		beq	.L412
 2031 16cc 5C0053E3 		cmp	r3, #92
 2032 16d0 2D00001A 		bne	.L406
 2033 16d4 0190D8E5 		ldrb	r9, [r8, #1]	@ zero_extendqisi2
 2034 16d8 024088E2 		add	r4, r8, #2
 2035 16dc 000059E3 		cmp	r9, #0
 2036 16e0 3700000A 		beq	.L415
 2037              	.L413:
 2038 16e4 0080D7E5 		ldrb	r8, [r7]	@ zero_extendqisi2
 2039 16e8 FEFFFFEB 		bl	__locale_ctype_ptr
 2040 16ec 080080E0 		add	r0, r0, r8
 2041 16f0 0130D0E5 		ldrb	r3, [r0, #1]	@ zero_extendqisi2
 2042 16f4 033003E2 		and	r3, r3, #3
 2043 16f8 020053E3 		cmp	r3, #2
 2044 16fc 20804802 		subeq	r8, r8, #32
 2045 1700 FEFFFFEB 		bl	__locale_ctype_ptr
 2046 1704 090080E0 		add	r0, r0, r9
 2047 1708 0130D0E5 		ldrb	r3, [r0, #1]	@ zero_extendqisi2
 2048 170c 033003E2 		and	r3, r3, #3
 2049 1710 020053E3 		cmp	r3, #2
 2050 1714 0030D7E5 		ldrb	r3, [r7]	@ zero_extendqisi2
 2051 1718 20904902 		subeq	r9, r9, #32
 2052 171c 090058E1 		cmp	r8, r9
ARM GAS  C:\Users\ldebo\AppData\Local\Temp\ccrazFu5.s 			page 37


 2053 1720 3A00000A 		beq	.L449
 2054 1724 000053E3 		cmp	r3, #0
 2055 1728 2500000A 		beq	.L415
 2056 172c 015085E2 		add	r5, r5, #1
 2057 1730 0680A0E1 		mov	r8, r6
 2058 1734 0570A0E1 		mov	r7, r5
 2059              	.L409:
 2060 1738 000058E3 		cmp	r8, #0
 2061 173c 2000000A 		beq	.L415
 2062              	.L405:
 2063 1740 0040D7E5 		ldrb	r4, [r7]	@ zero_extendqisi2
 2064 1744 FEFFFFEB 		bl	__locale_ctype_ptr
 2065 1748 040080E0 		add	r0, r0, r4
 2066 174c 0130D0E5 		ldrb	r3, [r0, #1]	@ zero_extendqisi2
 2067 1750 033003E2 		and	r3, r3, #3
 2068 1754 020053E3 		cmp	r3, #2
 2069 1758 20404402 		subeq	r4, r4, #32
 2070 175c 000054E3 		cmp	r4, #0
 2071 1760 1900000A 		beq	.L450
 2072              	.L425:
 2073 1764 0030D8E5 		ldrb	r3, [r8]	@ zero_extendqisi2
 2074 1768 014088E2 		add	r4, r8, #1
 2075 176c 3F0053E3 		cmp	r3, #63
 2076 1770 2000000A 		beq	.L429
 2077 1774 D2FFFF8A 		bhi	.L408
 2078 1778 2A0053E3 		cmp	r3, #42
 2079 177c 0460A001 		moveq	r6, r4
 2080 1780 0750A001 		moveq	r5, r7
 2081 1784 0680A001 		moveq	r8, r6
 2082 1788 EAFFFF0A 		beq	.L409
 2083              	.L406:
 2084 178c 0390A0E1 		mov	r9, r3
 2085 1790 D3FFFFEA 		b	.L413
 2086              	.L414:
 2087 1794 0130D4E5 		ldrb	r3, [r4, #1]	@ zero_extendqisi2
 2088 1798 024084E2 		add	r4, r4, #2
 2089 179c 000053E3 		cmp	r3, #0
 2090 17a0 0700000A 		beq	.L415
 2091              	.L412:
 2092 17a4 0030D4E5 		ldrb	r3, [r4]	@ zero_extendqisi2
 2093 17a8 5D0053E3 		cmp	r3, #93
 2094 17ac 1C00000A 		beq	.L451
 2095 17b0 5C0053E3 		cmp	r3, #92
 2096 17b4 F6FFFF0A 		beq	.L414
 2097 17b8 000053E3 		cmp	r3, #0
 2098 17bc 014084E2 		add	r4, r4, #1
 2099 17c0 F7FFFF1A 		bne	.L412
 2100              	.L415:
 2101 17c4 0000A0E3 		mov	r0, #0
 2102 17c8 F087BDE8 		pop	{r4, r5, r6, r7, r8, r9, r10, pc}
 2103              	.L450:
 2104 17cc 0040D8E5 		ldrb	r4, [r8]	@ zero_extendqisi2
 2105 17d0 FEFFFFEB 		bl	__locale_ctype_ptr
 2106 17d4 040080E0 		add	r0, r0, r4
 2107 17d8 0130D0E5 		ldrb	r3, [r0, #1]	@ zero_extendqisi2
 2108 17dc 033003E2 		and	r3, r3, #3
 2109 17e0 020053E3 		cmp	r3, #2
ARM GAS  C:\Users\ldebo\AppData\Local\Temp\ccrazFu5.s 			page 38


 2110 17e4 20404402 		subeq	r4, r4, #32
 2111 17e8 000054E3 		cmp	r4, #0
 2112 17ec DCFFFF1A 		bne	.L425
 2113 17f0 0100A0E3 		mov	r0, #1
 2114 17f4 F087BDE8 		pop	{r4, r5, r6, r7, r8, r9, r10, pc}
 2115              	.L429:
 2116 17f8 0480A0E1 		mov	r8, r4
 2117              	.L407:
 2118 17fc 0030D7E5 		ldrb	r3, [r7]	@ zero_extendqisi2
 2119 1800 017087E2 		add	r7, r7, #1
 2120 1804 000053E3 		cmp	r3, #0
 2121 1808 CAFFFF1A 		bne	.L409
 2122 180c ECFFFFEA 		b	.L415
 2123              	.L449:
 2124 1810 000053E3 		cmp	r3, #0
 2125 1814 01708712 		addne	r7, r7, #1
 2126 1818 0480A011 		movne	r8, r4
 2127 181c 0480A001 		moveq	r8, r4
 2128 1820 C4FFFFEA 		b	.L409
 2129              	.L451:
 2130 1824 015085E2 		add	r5, r5, #1
 2131 1828 0680A0E1 		mov	r8, r6
 2132 182c 0570A0E1 		mov	r7, r5
 2133 1830 F1FFFFEA 		b	.L407
 2134              		.size	WildcardMatch, .-WildcardMatch
 2135              		.align	2
 2136              		.syntax unified
 2137              		.arm
 2138              		.fpu neon
 2139              		.type	LocateFATEntry, %function
 2140              	LocateFATEntry:
 2141              		@ args = 4, pretend = 0, frame = 32
 2142              		@ frame_needed = 0, uses_anonymous_args = 0
 2143 1834 F04F2DE9 		push	{r4, r5, r6, r7, r8, r9, r10, fp, lr}
 2144 1838 009000E3 		movw	r9, #:lower16:RPi_IO_Base_Addr
 2145 183c 009040E3 		movt	r9, #:upper16:RPi_IO_Base_Addr
 2146 1840 24D04DE2 		sub	sp, sp, #36
 2147 1844 0040A0E3 		mov	r4, #0
 2148 1848 00C000E3 		movw	ip, #:lower16:.LANCHOR0
 2149 184c 0C908DE5 		str	r9, [sp, #12]
 2150 1850 0270A0E1 		mov	r7, r2
 2151 1854 00C040E3 		movt	ip, #:upper16:.LANCHOR0
 2152 1858 0350A0E1 		mov	r5, r3
 2153 185c 04C08DE5 		str	ip, [sp, #4]
 2154 1860 04A0A0E1 		mov	r10, r4
 2155 1864 08008DE5 		str	r0, [sp, #8]
 2156 1868 0190A0E1 		mov	r9, r1
 2157              	.L453:
 2158 186c 002099E5 		ldr	r2, [r9]
 2159 1870 012042E2 		sub	r2, r2, #1
 2160 1874 CF0272E3 		cmn	r2, #-268435444
 2161 1878 9E01008A 		bhi	.L485
 2162 187c 04309DE5 		ldr	r3, [sp, #4]
 2163 1880 0960A0E1 		mov	r6, r9
 2164 1884 088099E5 		ldr	r8, [r9, #8]
 2165 1888 582093E5 		ldr	r2, [r3, #88]
 2166 188c 0230A0E1 		mov	r3, r2
ARM GAS  C:\Users\ldebo\AppData\Local\Temp\ccrazFu5.s 			page 39


 2167              	.L486:
 2168 1890 030058E1 		cmp	r8, r3
 2169 1894 6301002A 		bcs	.L477
 2170 1898 0C0096E5 		ldr	r0, [r6, #12]
 2171 189c 020C50E3 		cmp	r0, #512
 2172 18a0 6100002A 		bcs	.L478
 2173 18a4 101080E2 		add	r1, r0, #16
 2174 18a8 01B086E0 		add	fp, r6, r1
 2175 18ac 0110D6E7 		ldrb	r1, [r6, r1]	@ zero_extendqisi2
 2176 18b0 000051E3 		cmp	r1, #0
 2177 18b4 E300000A 		beq	.L479
 2178 18b8 08809DE5 		ldr	r8, [sp, #8]
 2179 18bc 0790A0E1 		mov	r9, r7
 2180 18c0 4E0000EA 		b	.L454
 2181              	.L584:
 2182 18c4 0B30DBE5 		ldrb	r3, [fp, #11]	@ zero_extendqisi2
 2183 18c8 080053E3 		cmp	r3, #8
 2184 18cc 4D00000A 		beq	.L490
 2185 18d0 0F0053E3 		cmp	r3, #15
 2186 18d4 8400000A 		beq	.L582
 2187 18d8 000054E3 		cmp	r4, #0
 2188 18dc 6F00001A 		bne	.L460
 2189 18e0 200051E3 		cmp	r1, #32
 2190 18e4 EF00000A 		beq	.L491
 2191 18e8 0010C5E5 		strb	r1, [r5]
 2192 18ec 0130DBE5 		ldrb	r3, [fp, #1]	@ zero_extendqisi2
 2193 18f0 DF0013E3 		tst	r3, #223
 2194 18f4 F000000A 		beq	.L492
 2195 18f8 0130C5E5 		strb	r3, [r5, #1]
 2196 18fc 0230DBE5 		ldrb	r3, [fp, #2]	@ zero_extendqisi2
 2197 1900 DF0013E3 		tst	r3, #223
 2198 1904 F200000A 		beq	.L493
 2199 1908 0230C5E5 		strb	r3, [r5, #2]
 2200 190c 0330DBE5 		ldrb	r3, [fp, #3]	@ zero_extendqisi2
 2201 1910 DF0013E3 		tst	r3, #223
 2202 1914 F400000A 		beq	.L494
 2203 1918 0330C5E5 		strb	r3, [r5, #3]
 2204 191c 0430DBE5 		ldrb	r3, [fp, #4]	@ zero_extendqisi2
 2205 1920 DF0013E3 		tst	r3, #223
 2206 1924 F600000A 		beq	.L495
 2207 1928 0430C5E5 		strb	r3, [r5, #4]
 2208 192c 0530DBE5 		ldrb	r3, [fp, #5]	@ zero_extendqisi2
 2209 1930 DF0013E3 		tst	r3, #223
 2210 1934 F800000A 		beq	.L496
 2211 1938 0530C5E5 		strb	r3, [r5, #5]
 2212 193c 0630DBE5 		ldrb	r3, [fp, #6]	@ zero_extendqisi2
 2213 1940 DF0013E3 		tst	r3, #223
 2214 1944 FA00000A 		beq	.L497
 2215 1948 0630C5E5 		strb	r3, [r5, #6]
 2216 194c 0730DBE5 		ldrb	r3, [fp, #7]	@ zero_extendqisi2
 2217 1950 DF0013E3 		tst	r3, #223
 2218 1954 FC00000A 		beq	.L498
 2219 1958 0730C5E5 		strb	r3, [r5, #7]
 2220 195c 0CC0A0E3 		mov	ip, #12
 2221 1960 0A10A0E3 		mov	r1, #10
 2222 1964 0930A0E3 		mov	r3, #9
 2223 1968 0B00A0E3 		mov	r0, #11
ARM GAS  C:\Users\ldebo\AppData\Local\Temp\ccrazFu5.s 			page 40


 2224 196c 0840A0E3 		mov	r4, #8
 2225              	.L461:
 2226 1970 000059E3 		cmp	r9, #0
 2227 1974 4700001A 		bne	.L501
 2228 1978 2E20A0E3 		mov	r2, #46
 2229 197c 0420C5E7 		strb	r2, [r5, r4]
 2230 1980 0BE0DBE5 		ldrb	lr, [fp, #11]	@ zero_extendqisi2
 2231 1984 10005EE3 		cmp	lr, #16
 2232 1988 AB00000A 		beq	.L502
 2233 198c 08E0DBE5 		ldrb	lr, [fp, #8]	@ zero_extendqisi2
 2234 1990 DF001EE3 		tst	lr, #223
 2235 1994 F200000A 		beq	.L503
 2236 1998 03E0C5E7 		strb	lr, [r5, r3]
 2237 199c 0930DBE5 		ldrb	r3, [fp, #9]	@ zero_extendqisi2
 2238 19a0 DF0013E3 		tst	r3, #223
 2239 19a4 F100000A 		beq	.L504
 2240 19a8 0130C5E7 		strb	r3, [r5, r1]
 2241 19ac 0A30DBE5 		ldrb	r3, [fp, #10]	@ zero_extendqisi2
 2242 19b0 DF0013E3 		tst	r3, #223
 2243 19b4 F000000A 		beq	.L505
 2244 19b8 0030C5E7 		strb	r3, [r5, r0]
 2245 19bc 0C40A0E1 		mov	r4, ip
 2246 19c0 0970A0E1 		mov	r7, r9
 2247              	.L466:
 2248 19c4 04A0C5E7 		strb	r10, [r5, r4]
 2249 19c8 0B30DBE5 		ldrb	r3, [fp, #11]	@ zero_extendqisi2
 2250 19cc 080053E3 		cmp	r3, #8
 2251 19d0 2900001A 		bne	.L467
 2252 19d4 0C3096E5 		ldr	r3, [r6, #12]
 2253 19d8 0040A0E3 		mov	r4, #0
 2254              	.L457:
 2255 19dc 200083E2 		add	r0, r3, #32
 2256 19e0 0C0086E5 		str	r0, [r6, #12]
 2257 19e4 020C50E3 		cmp	r0, #512
 2258 19e8 0B00002A 		bcs	.L583
 2259              	.L470:
 2260 19ec 303083E2 		add	r3, r3, #48
 2261 19f0 03B086E0 		add	fp, r6, r3
 2262 19f4 0310D6E7 		ldrb	r1, [r6, r3]	@ zero_extendqisi2
 2263 19f8 000051E3 		cmp	r1, #0
 2264 19fc 9100000A 		beq	.L479
 2265              	.L454:
 2266 1a00 E50051E3 		cmp	r1, #229
 2267 1a04 AEFFFF1A 		bne	.L584
 2268              	.L490:
 2269 1a08 0030A0E1 		mov	r3, r0
 2270 1a0c 200083E2 		add	r0, r3, #32
 2271 1a10 0C0086E5 		str	r0, [r6, #12]
 2272 1a14 020C50E3 		cmp	r0, #512
 2273 1a18 F3FFFF3A 		bcc	.L470
 2274              	.L583:
 2275 1a1c 04309DE5 		ldr	r3, [sp, #4]
 2276 1a20 0970A0E1 		mov	r7, r9
 2277 1a24 088096E5 		ldr	r8, [r6, #8]
 2278 1a28 583093E5 		ldr	r3, [r3, #88]
 2279              	.L478:
 2280 1a2c 018088E2 		add	r8, r8, #1
ARM GAS  C:\Users\ldebo\AppData\Local\Temp\ccrazFu5.s 			page 41


 2281 1a30 030058E1 		cmp	r8, r3
 2282 1a34 088086E5 		str	r8, [r6, #8]
 2283 1a38 94FFFF2A 		bcs	.L486
 2284 1a3c 04309DE5 		ldr	r3, [sp, #4]
 2285 1a40 4030D3E5 		ldrb	r3, [r3, #64]	@ zero_extendqisi2
 2286 1a44 0CA086E5 		str	r10, [r6, #12]
 2287 1a48 000053E3 		cmp	r3, #0
 2288 1a4c CD00001A 		bne	.L585
 2289              	.L475:
 2290 1a50 48309DE5 		ldr	r3, [sp, #72]
 2291 1a54 000053E3 		cmp	r3, #0
 2292 1a58 0320A011 		movne	r2, r3
 2293 1a5c 0330A013 		movne	r3, #3
 2294 1a60 00B0A013 		movne	fp, #0
 2295 1a64 00308215 		strne	r3, [r2]
 2296 1a68 7D00001A 		bne	.L452
 2297              	.L487:
 2298 1a6c 00B0A0E3 		mov	fp, #0
 2299 1a70 0B00A0E1 		mov	r0, fp
 2300 1a74 24D08DE2 		add	sp, sp, #36
 2301              		@ sp needed
 2302 1a78 F08FBDE8 		pop	{r4, r5, r6, r7, r8, r9, r10, fp, pc}
 2303              	.L467:
 2304 1a7c 0510A0E1 		mov	r1, r5
 2305 1a80 0800A0E1 		mov	r0, r8
 2306 1a84 FEFFFFEB 		bl	WildcardMatch
 2307 1a88 004050E2 		subs	r4, r0, #0
 2308 1a8c 7700001A 		bne	.L468
 2309              	.L578:
 2310 1a90 0C3096E5 		ldr	r3, [r6, #12]
 2311 1a94 D0FFFFEA 		b	.L457
 2312              	.L501:
 2313 1a98 0070A0E3 		mov	r7, #0
 2314 1a9c C8FFFFEA 		b	.L466
 2315              	.L460:
 2316 1aa0 04E085E0 		add	lr, r5, r4
 2317 1aa4 FFC064E2 		rsb	ip, r4, #255
 2318 1aa8 0CC085E0 		add	ip, r5, ip
 2319 1aac 0530A0E1 		mov	r3, r5
 2320 1ab0 0000A0E3 		mov	r0, #0
 2321              	.L463:
 2322 1ab4 0120DCE4 		ldrb	r2, [ip], #1	@ zero_extendqisi2
 2323 1ab8 0120C3E4 		strb	r2, [r3], #1
 2324 1abc 2E0052E3 		cmp	r2, #46
 2325 1ac0 0100A003 		moveq	r0, #1
 2326 1ac4 03005EE1 		cmp	lr, r3
 2327 1ac8 F9FFFF1A 		bne	.L463
 2328 1acc 090080E1 		orr	r0, r0, r9
 2329 1ad0 FF0010E3 		tst	r0, #255
 2330 1ad4 EFFFFF1A 		bne	.L501
 2331 1ad8 2E30A0E3 		mov	r3, #46
 2332 1adc 0470A0E1 		mov	r7, r4
 2333 1ae0 0030CEE5 		strb	r3, [lr]
 2334 1ae4 014084E2 		add	r4, r4, #1
 2335 1ae8 B5FFFFEA 		b	.L466
 2336              	.L582:
 2337 1aec 10A08DE5 		str	r10, [sp, #16]
ARM GAS  C:\Users\ldebo\AppData\Local\Temp\ccrazFu5.s 			page 42


 2338 1af0 0B00A0E1 		mov	r0, fp
 2339 1af4 14A08DE5 		str	r10, [sp, #20]
 2340 1af8 10108DE2 		add	r1, sp, #16
 2341 1afc 18A08DE5 		str	r10, [sp, #24]
 2342 1b00 BCA1CDE1 		strh	r10, [sp, #28]	@ movhi
 2343 1b04 89FAFFEB 		bl	ReadLFNEntry
 2344 1b08 000050E3 		cmp	r0, #0
 2345 1b0c DFFFFF0A 		beq	.L578
 2346 1b10 004084E0 		add	r4, r4, r0
 2347 1b14 010050E3 		cmp	r0, #1
 2348 1b18 1010DDE5 		ldrb	r1, [sp, #16]	@ zero_extendqisi2
 2349 1b1c FF3064E2 		rsb	r3, r4, #255
 2350 1b20 0310C5E7 		strb	r1, [r5, r3]
 2351 1b24 D9FFFF0A 		beq	.L578
 2352 1b28 1110DDE5 		ldrb	r1, [sp, #17]	@ zero_extendqisi2
 2353 1b2c 013C64E2 		rsb	r3, r4, #256
 2354 1b30 020050E3 		cmp	r0, #2
 2355 1b34 0310C5E7 		strb	r1, [r5, r3]
 2356 1b38 D4FFFF0A 		beq	.L578
 2357 1b3c 1210DDE5 		ldrb	r1, [sp, #18]	@ zero_extendqisi2
 2358 1b40 013083E2 		add	r3, r3, #1
 2359 1b44 030050E3 		cmp	r0, #3
 2360 1b48 0310C5E7 		strb	r1, [r5, r3]
 2361 1b4c CFFFFF0A 		beq	.L578
 2362 1b50 1310DDE5 		ldrb	r1, [sp, #19]	@ zero_extendqisi2
 2363 1b54 013C64E2 		rsb	r3, r4, #256
 2364 1b58 023083E2 		add	r3, r3, #2
 2365 1b5c 040050E3 		cmp	r0, #4
 2366 1b60 0310C5E7 		strb	r1, [r5, r3]
 2367 1b64 C9FFFF0A 		beq	.L578
 2368 1b68 1410DDE5 		ldrb	r1, [sp, #20]	@ zero_extendqisi2
 2369 1b6c 013C64E2 		rsb	r3, r4, #256
 2370 1b70 033083E2 		add	r3, r3, #3
 2371 1b74 050050E3 		cmp	r0, #5
 2372 1b78 0310C5E7 		strb	r1, [r5, r3]
 2373 1b7c C3FFFF0A 		beq	.L578
 2374 1b80 1510DDE5 		ldrb	r1, [sp, #21]	@ zero_extendqisi2
 2375 1b84 413F64E2 		rsb	r3, r4, #260
 2376 1b88 060050E3 		cmp	r0, #6
 2377 1b8c 0310C5E7 		strb	r1, [r5, r3]
 2378 1b90 BEFFFF0A 		beq	.L578
 2379 1b94 1610DDE5 		ldrb	r1, [sp, #22]	@ zero_extendqisi2
 2380 1b98 013083E2 		add	r3, r3, #1
 2381 1b9c 070050E3 		cmp	r0, #7
 2382 1ba0 0310C5E7 		strb	r1, [r5, r3]
 2383 1ba4 B9FFFF0A 		beq	.L578
 2384 1ba8 1710DDE5 		ldrb	r1, [sp, #23]	@ zero_extendqisi2
 2385 1bac 413F64E2 		rsb	r3, r4, #260
 2386 1bb0 023083E2 		add	r3, r3, #2
 2387 1bb4 080050E3 		cmp	r0, #8
 2388 1bb8 0310C5E7 		strb	r1, [r5, r3]
 2389 1bbc B3FFFF0A 		beq	.L578
 2390 1bc0 1810DDE5 		ldrb	r1, [sp, #24]	@ zero_extendqisi2
 2391 1bc4 413F64E2 		rsb	r3, r4, #260
 2392 1bc8 033083E2 		add	r3, r3, #3
 2393 1bcc 090050E3 		cmp	r0, #9
 2394 1bd0 0310C5E7 		strb	r1, [r5, r3]
ARM GAS  C:\Users\ldebo\AppData\Local\Temp\ccrazFu5.s 			page 43


 2395 1bd4 ADFFFF0A 		beq	.L578
 2396 1bd8 1910DDE5 		ldrb	r1, [sp, #25]	@ zero_extendqisi2
 2397 1bdc 423F64E2 		rsb	r3, r4, #264
 2398 1be0 0A0050E3 		cmp	r0, #10
 2399 1be4 0310C5E7 		strb	r1, [r5, r3]
 2400 1be8 A8FFFF0A 		beq	.L578
 2401 1bec 1A10DDE5 		ldrb	r1, [sp, #26]	@ zero_extendqisi2
 2402 1bf0 013083E2 		add	r3, r3, #1
 2403 1bf4 0B0050E3 		cmp	r0, #11
 2404 1bf8 0310C5E7 		strb	r1, [r5, r3]
 2405 1bfc A3FFFF0A 		beq	.L578
 2406 1c00 1B10DDE5 		ldrb	r1, [sp, #27]	@ zero_extendqisi2
 2407 1c04 423F64E2 		rsb	r3, r4, #264
 2408 1c08 023083E2 		add	r3, r3, #2
 2409 1c0c 0C0050E3 		cmp	r0, #12
 2410 1c10 0310C5E7 		strb	r1, [r5, r3]
 2411 1c14 9DFFFF0A 		beq	.L578
 2412 1c18 1C10DDE5 		ldrb	r1, [sp, #28]	@ zero_extendqisi2
 2413 1c1c 423F64E2 		rsb	r3, r4, #264
 2414 1c20 033083E2 		add	r3, r3, #3
 2415 1c24 0D0050E3 		cmp	r0, #13
 2416 1c28 0310C5E7 		strb	r1, [r5, r3]
 2417 1c2c 1D10DD15 		ldrbne	r1, [sp, #29]	@ zero_extendqisi2
 2418 1c30 433F6412 		rsbne	r3, r4, #268
 2419 1c34 0310C517 		strbne	r1, [r5, r3]
 2420 1c38 94FFFFEA 		b	.L578
 2421              	.L502:
 2422 1c3c 0470A0E1 		mov	r7, r4
 2423 1c40 0340A0E1 		mov	r4, r3
 2424 1c44 5EFFFFEA 		b	.L466
 2425              	.L479:
 2426 1c48 48309DE5 		ldr	r3, [sp, #72]
 2427 1c4c 000053E3 		cmp	r3, #0
 2428 1c50 85FFFF0A 		beq	.L487
 2429 1c54 0320A0E1 		mov	r2, r3
 2430 1c58 00B0A0E3 		mov	fp, #0
 2431 1c5c 0130A0E3 		mov	r3, #1
 2432 1c60 003082E5 		str	r3, [r2]
 2433              	.L452:
 2434 1c64 0B00A0E1 		mov	r0, fp
 2435 1c68 24D08DE2 		add	sp, sp, #36
 2436              		@ sp needed
 2437 1c6c F08FBDE8 		pop	{r4, r5, r6, r7, r8, r9, r10, fp, pc}
 2438              	.L468:
 2439 1c70 48209DE5 		ldr	r2, [sp, #72]
 2440 1c74 000057E3 		cmp	r7, #0
 2441 1c78 0030A013 		movne	r3, #0
 2442 1c7c 0730C517 		strbne	r3, [r5, r7]
 2443 1c80 000052E3 		cmp	r2, #0
 2444 1c84 0C3096E5 		ldr	r3, [r6, #12]
 2445 1c88 203083E2 		add	r3, r3, #32
 2446 1c8c 0C3086E5 		str	r3, [r6, #12]
 2447 1c90 F3FFFF0A 		beq	.L452
 2448 1c94 0030A0E3 		mov	r3, #0
 2449 1c98 0B00A0E1 		mov	r0, fp
 2450 1c9c 003082E5 		str	r3, [r2]
 2451 1ca0 24D08DE2 		add	sp, sp, #36
ARM GAS  C:\Users\ldebo\AppData\Local\Temp\ccrazFu5.s 			page 44


 2452              		@ sp needed
 2453 1ca4 F08FBDE8 		pop	{r4, r5, r6, r7, r8, r9, r10, fp, pc}
 2454              	.L491:
 2455 1ca8 04C0A0E3 		mov	ip, #4
 2456 1cac 0210A0E3 		mov	r1, #2
 2457 1cb0 0130A0E3 		mov	r3, #1
 2458 1cb4 0300A0E3 		mov	r0, #3
 2459 1cb8 2CFFFFEA 		b	.L461
 2460              	.L492:
 2461 1cbc 05C0A0E3 		mov	ip, #5
 2462 1cc0 0310A0E3 		mov	r1, #3
 2463 1cc4 0230A0E3 		mov	r3, #2
 2464 1cc8 0400A0E3 		mov	r0, #4
 2465 1ccc 0140A0E3 		mov	r4, #1
 2466 1cd0 26FFFFEA 		b	.L461
 2467              	.L493:
 2468 1cd4 06C0A0E3 		mov	ip, #6
 2469 1cd8 0410A0E3 		mov	r1, #4
 2470 1cdc 0330A0E3 		mov	r3, #3
 2471 1ce0 0500A0E3 		mov	r0, #5
 2472 1ce4 0240A0E3 		mov	r4, #2
 2473 1ce8 20FFFFEA 		b	.L461
 2474              	.L494:
 2475 1cec 07C0A0E3 		mov	ip, #7
 2476 1cf0 0510A0E3 		mov	r1, #5
 2477 1cf4 0430A0E3 		mov	r3, #4
 2478 1cf8 0600A0E3 		mov	r0, #6
 2479 1cfc 0340A0E3 		mov	r4, #3
 2480 1d00 1AFFFFEA 		b	.L461
 2481              	.L495:
 2482 1d04 08C0A0E3 		mov	ip, #8
 2483 1d08 0610A0E3 		mov	r1, #6
 2484 1d0c 0530A0E3 		mov	r3, #5
 2485 1d10 0700A0E3 		mov	r0, #7
 2486 1d14 0440A0E3 		mov	r4, #4
 2487 1d18 14FFFFEA 		b	.L461
 2488              	.L496:
 2489 1d1c 09C0A0E3 		mov	ip, #9
 2490 1d20 0710A0E3 		mov	r1, #7
 2491 1d24 0630A0E3 		mov	r3, #6
 2492 1d28 0800A0E3 		mov	r0, #8
 2493 1d2c 0540A0E3 		mov	r4, #5
 2494 1d30 0EFFFFEA 		b	.L461
 2495              	.L497:
 2496 1d34 0AC0A0E3 		mov	ip, #10
 2497 1d38 0810A0E3 		mov	r1, #8
 2498 1d3c 0730A0E3 		mov	r3, #7
 2499 1d40 0900A0E3 		mov	r0, #9
 2500 1d44 0640A0E3 		mov	r4, #6
 2501 1d48 08FFFFEA 		b	.L461
 2502              	.L498:
 2503 1d4c 0BC0A0E3 		mov	ip, #11
 2504 1d50 0910A0E3 		mov	r1, #9
 2505 1d54 0830A0E3 		mov	r3, #8
 2506 1d58 0A00A0E3 		mov	r0, #10
 2507 1d5c 0740A0E3 		mov	r4, #7
 2508 1d60 02FFFFEA 		b	.L461
ARM GAS  C:\Users\ldebo\AppData\Local\Temp\ccrazFu5.s 			page 45


 2509              	.L503:
 2510 1d64 0340A0E1 		mov	r4, r3
 2511 1d68 0970A0E1 		mov	r7, r9
 2512 1d6c 14FFFFEA 		b	.L466
 2513              	.L504:
 2514 1d70 0140A0E1 		mov	r4, r1
 2515 1d74 0970A0E1 		mov	r7, r9
 2516 1d78 11FFFFEA 		b	.L466
 2517              	.L505:
 2518 1d7c 0040A0E1 		mov	r4, r0
 2519 1d80 0970A0E1 		mov	r7, r9
 2520 1d84 0EFFFFEA 		b	.L466
 2521              	.L585:
 2522 1d88 04B096E5 		ldr	fp, [r6, #4]
 2523 1d8c 9BF8FFEB 		bl	sdWaitForData
 2524 1d90 000050E3 		cmp	r0, #0
 2525 1d94 2DFFFF1A 		bne	.L475
 2526 1d98 04309DE5 		ldr	r3, [sp, #4]
 2527 1d9c 02ECA0E3 		mov	lr, #512
 2528 1da0 0B1088E0 		add	r1, r8, fp
 2529 1da4 4030D3E5 		ldrb	r3, [r3, #64]	@ zero_extendqisi2
 2530 1da8 88019FE5 		ldr	r0, .L586
 2531 1dac 030053E3 		cmp	r3, #3
 2532 1db0 0C309DE5 		ldr	r3, [sp, #12]
 2533 1db4 8114A001 		lsleq	r1, r1, #9
 2534 1db8 003093E5 		ldr	r3, [r3]
 2535 1dbc 033683E2 		add	r3, r3, #3145728
 2536 1dc0 04C093E5 		ldr	ip, [r3, #4]
 2537 1dc4 01C040E3 		movt	ip, 1
 2538 1dc8 04C083E5 		str	ip, [r3, #4]
 2539 1dcc 04C093E5 		ldr	ip, [r3, #4]
 2540 1dd0 1EC0C9E7 		bfi	ip, lr, #0, #10
 2541 1dd4 04C083E5 		str	ip, [r3, #4]
 2542 1dd8 69FAFFEB 		bl	sdSendCommandP
 2543 1ddc FF0010E3 		tst	r0, #255
 2544 1de0 1AFFFF1A 		bne	.L475
 2545 1de4 2000A0E3 		mov	r0, #32
 2546 1de8 C4F8FFEB 		bl	sdWaitForInterrupt
 2547 1dec 000050E3 		cmp	r0, #0
 2548 1df0 4800001A 		bne	.L581
 2549 1df4 0C909DE5 		ldr	r9, [sp, #12]
 2550 1df8 0C1086E2 		add	r1, r6, #12
 2551 1dfc 830F86E2 		add	r0, r6, #524
 2552              	.L476:
 2553 1e00 003099E5 		ldr	r3, [r9]
 2554 1e04 033683E2 		add	r3, r3, #3145728
 2555 1e08 203093E5 		ldr	r3, [r3, #32]
 2556 1e0c 0430A1E5 		str	r3, [r1, #4]!
 2557 1e10 000051E1 		cmp	r1, r0
 2558 1e14 F9FFFF1A 		bne	.L476
 2559 1e18 04309DE5 		ldr	r3, [sp, #4]
 2560 1e1c 088096E5 		ldr	r8, [r6, #8]
 2561 1e20 583093E5 		ldr	r3, [r3, #88]
 2562 1e24 99FEFFEA 		b	.L486
 2563              	.L477:
 2564 1e28 000096E5 		ldr	r0, [r6]
 2565 1e2c 0020A0E3 		mov	r2, #0
ARM GAS  C:\Users\ldebo\AppData\Local\Temp\ccrazFu5.s 			page 46


 2566 1e30 0210A0E1 		mov	r1, r2
 2567 1e34 0690A0E1 		mov	r9, r6
 2568 1e38 FEFFFFEB 		bl	getSetNextCluster
 2569 1e3c 04309DE5 		ldr	r3, [sp, #4]
 2570 1e40 028040E2 		sub	r8, r0, #2
 2571 1e44 58C093E5 		ldr	ip, [r3, #88]
 2572 1e48 601093E5 		ldr	r1, [r3, #96]
 2573 1e4c 4020D3E5 		ldrb	r2, [r3, #64]	@ zero_extendqisi2
 2574 1e50 9C1828E0 		mla	r8, ip, r8, r1
 2575 1e54 000086E5 		str	r0, [r6]
 2576 1e58 000052E3 		cmp	r2, #0
 2577 1e5c 000586E9 		stmib	r6, {r8, r10}
 2578 1e60 0CA086E5 		str	r10, [r6, #12]
 2579 1e64 F9FEFF0A 		beq	.L475
 2580 1e68 64F8FFEB 		bl	sdWaitForData
 2581 1e6c 000050E3 		cmp	r0, #0
 2582 1e70 F6FEFF1A 		bne	.L475
 2583 1e74 04309DE5 		ldr	r3, [sp, #4]
 2584 1e78 02CCA0E3 		mov	ip, #512
 2585 1e7c B4009FE5 		ldr	r0, .L586
 2586 1e80 4020D3E5 		ldrb	r2, [r3, #64]	@ zero_extendqisi2
 2587 1e84 0C309DE5 		ldr	r3, [sp, #12]
 2588 1e88 030052E3 		cmp	r2, #3
 2589 1e8c 002093E5 		ldr	r2, [r3]
 2590 1e90 8884A001 		lsleq	r8, r8, #9
 2591 1e94 032682E2 		add	r2, r2, #3145728
 2592 1e98 0810A0E1 		mov	r1, r8
 2593 1e9c 04E092E5 		ldr	lr, [r2, #4]
 2594 1ea0 01E040E3 		movt	lr, 1
 2595 1ea4 04E082E5 		str	lr, [r2, #4]
 2596 1ea8 04E092E5 		ldr	lr, [r2, #4]
 2597 1eac 1CE0C9E7 		bfi	lr, ip, #0, #10
 2598 1eb0 04E082E5 		str	lr, [r2, #4]
 2599 1eb4 32FAFFEB 		bl	sdSendCommandP
 2600 1eb8 FF0010E3 		tst	r0, #255
 2601 1ebc E3FEFF1A 		bne	.L475
 2602 1ec0 2000A0E3 		mov	r0, #32
 2603 1ec4 8DF8FFEB 		bl	sdWaitForInterrupt
 2604 1ec8 000050E3 		cmp	r0, #0
 2605 1ecc 1100001A 		bne	.L581
 2606 1ed0 0C1086E2 		add	r1, r6, #12
 2607 1ed4 830F86E2 		add	r0, r6, #524
 2608 1ed8 0C609DE5 		ldr	r6, [sp, #12]
 2609              	.L484:
 2610 1edc 003096E5 		ldr	r3, [r6]
 2611 1ee0 033683E2 		add	r3, r3, #3145728
 2612 1ee4 203093E5 		ldr	r3, [r3, #32]
 2613 1ee8 0430A1E5 		str	r3, [r1, #4]!
 2614 1eec 010050E1 		cmp	r0, r1
 2615 1ef0 F9FFFF1A 		bne	.L484
 2616 1ef4 5CFEFFEA 		b	.L453
 2617              	.L485:
 2618 1ef8 48309DE5 		ldr	r3, [sp, #72]
 2619 1efc 000053E3 		cmp	r3, #0
 2620 1f00 D9FEFF0A 		beq	.L487
 2621 1f04 0320A0E1 		mov	r2, r3
 2622 1f08 0230A0E3 		mov	r3, #2
ARM GAS  C:\Users\ldebo\AppData\Local\Temp\ccrazFu5.s 			page 47


 2623 1f0c 00B0A0E3 		mov	fp, #0
 2624 1f10 003082E5 		str	r3, [r2]
 2625 1f14 52FFFFEA 		b	.L452
 2626              	.L581:
 2627 1f18 04309DE5 		ldr	r3, [sp, #4]
 2628 1f1c 003093E5 		ldr	r3, [r3]
 2629 1f20 000053E3 		cmp	r3, #0
 2630 1f24 C9FEFF0A 		beq	.L475
 2631 1f28 000000E3 		movw	r0, #:lower16:.LC8
 2632 1f2c 000040E3 		movt	r0, #:upper16:.LC8
 2633 1f30 33FF2FE1 		blx	r3
 2634 1f34 C5FEFFEA 		b	.L475
 2635              	.L587:
 2636              		.align	2
 2637              	.L586:
 2638 1f38 50010000 		.word	.LANCHOR1+336
 2639              		.size	LocateFATEntry, .-LocateFATEntry
 2640              		.align	2
 2641              		.syntax unified
 2642              		.arm
 2643              		.fpu neon
 2644              		.type	LocateFATEntry.constprop.6, %function
 2645              	LocateFATEntry.constprop.6:
 2646              		@ args = 0, pretend = 0, frame = 24
 2647              		@ frame_needed = 0, uses_anonymous_args = 0
 2648 1f3c F04F2DE9 		push	{r4, r5, r6, r7, r8, r9, r10, fp, lr}
 2649 1f40 0040A0E3 		mov	r4, #0
 2650 1f44 009000E3 		movw	r9, #:lower16:.LANCHOR0
 2651 1f48 007000E3 		movw	r7, #:lower16:RPi_IO_Base_Addr
 2652 1f4c 009040E3 		movt	r9, #:upper16:.LANCHOR0
 2653 1f50 1CD04DE2 		sub	sp, sp, #28
 2654 1f54 007040E3 		movt	r7, #:upper16:RPi_IO_Base_Addr
 2655 1f58 0080A0E1 		mov	r8, r0
 2656 1f5c 00308DE5 		str	r3, [sp]
 2657 1f60 0150A0E1 		mov	r5, r1
 2658 1f64 0260A0E1 		mov	r6, r2
 2659 1f68 04B0A0E1 		mov	fp, r4
 2660              	.L589:
 2661 1f6c 003095E5 		ldr	r3, [r5]
 2662 1f70 013043E2 		sub	r3, r3, #1
 2663 1f74 CF0273E3 		cmn	r3, #-268435444
 2664 1f78 3801008A 		bhi	.L617
 2665              	.L699:
 2666 1f7c 08A095E5 		ldr	r10, [r5, #8]
 2667 1f80 582099E5 		ldr	r2, [r9, #88]
 2668              	.L618:
 2669 1f84 0A0052E1 		cmp	r2, r10
 2670 1f88 0501009A 		bls	.L609
 2671 1f8c 0C1095E5 		ldr	r1, [r5, #12]
 2672 1f90 020C51E3 		cmp	r1, #512
 2673 1f94 4400002A 		bcs	.L610
 2674 1f98 103081E2 		add	r3, r1, #16
 2675 1f9c 03A085E0 		add	r10, r5, r3
 2676 1fa0 0330D5E7 		ldrb	r3, [r5, r3]	@ zero_extendqisi2
 2677 1fa4 000053E3 		cmp	r3, #0
 2678 1fa8 3600001A 		bne	.L590
 2679 1fac C00000EA 		b	.L611
ARM GAS  C:\Users\ldebo\AppData\Local\Temp\ccrazFu5.s 			page 48


 2680              	.L705:
 2681 1fb0 0B00DAE5 		ldrb	r0, [r10, #11]	@ zero_extendqisi2
 2682 1fb4 080050E3 		cmp	r0, #8
 2683 1fb8 3400000A 		beq	.L622
 2684 1fbc 0F0050E3 		cmp	r0, #15
 2685 1fc0 6600000A 		beq	.L703
 2686 1fc4 000054E3 		cmp	r4, #0
 2687 1fc8 5A00001A 		bne	.L596
 2688 1fcc 200053E3 		cmp	r3, #32
 2689 1fd0 1D00000A 		beq	.L597
 2690 1fd4 0030C6E5 		strb	r3, [r6]
 2691 1fd8 0130DAE5 		ldrb	r3, [r10, #1]	@ zero_extendqisi2
 2692 1fdc DF0013E3 		tst	r3, #223
 2693 1fe0 BD00000A 		beq	.L624
 2694 1fe4 0130C6E5 		strb	r3, [r6, #1]
 2695 1fe8 0230DAE5 		ldrb	r3, [r10, #2]	@ zero_extendqisi2
 2696 1fec DF0013E3 		tst	r3, #223
 2697 1ff0 BB00000A 		beq	.L625
 2698 1ff4 0230C6E5 		strb	r3, [r6, #2]
 2699 1ff8 0330DAE5 		ldrb	r3, [r10, #3]	@ zero_extendqisi2
 2700 1ffc DF0013E3 		tst	r3, #223
 2701 2000 B900000A 		beq	.L626
 2702 2004 0330C6E5 		strb	r3, [r6, #3]
 2703 2008 0430DAE5 		ldrb	r3, [r10, #4]	@ zero_extendqisi2
 2704 200c DF0013E3 		tst	r3, #223
 2705 2010 B700000A 		beq	.L627
 2706 2014 0430C6E5 		strb	r3, [r6, #4]
 2707 2018 0530DAE5 		ldrb	r3, [r10, #5]	@ zero_extendqisi2
 2708 201c DF0013E3 		tst	r3, #223
 2709 2020 B500000A 		beq	.L628
 2710 2024 0530C6E5 		strb	r3, [r6, #5]
 2711 2028 0630DAE5 		ldrb	r3, [r10, #6]	@ zero_extendqisi2
 2712 202c DF0013E3 		tst	r3, #223
 2713 2030 B300000A 		beq	.L629
 2714 2034 0630C6E5 		strb	r3, [r6, #6]
 2715 2038 0730DAE5 		ldrb	r3, [r10, #7]	@ zero_extendqisi2
 2716 203c DF0013E3 		tst	r3, #223
 2717 2040 B100000A 		beq	.L630
 2718 2044 0730C6E5 		strb	r3, [r6, #7]
 2719 2048 0840A0E3 		mov	r4, #8
 2720              	.L597:
 2721 204c 04B0C6E7 		strb	fp, [r6, r4]
 2722              	.L599:
 2723 2050 0B30DAE5 		ldrb	r3, [r10, #11]	@ zero_extendqisi2
 2724 2054 080053E3 		cmp	r3, #8
 2725 2058 2600001A 		bne	.L600
 2726 205c 0C3095E5 		ldr	r3, [r5, #12]
 2727 2060 0040A0E3 		mov	r4, #0
 2728              	.L593:
 2729 2064 201083E2 		add	r1, r3, #32
 2730 2068 0C1085E5 		str	r1, [r5, #12]
 2731 206c 020C51E3 		cmp	r1, #512
 2732 2070 0B00002A 		bcs	.L704
 2733              	.L602:
 2734 2074 303083E2 		add	r3, r3, #48
 2735 2078 03A085E0 		add	r10, r5, r3
 2736 207c 0330D5E7 		ldrb	r3, [r5, r3]	@ zero_extendqisi2
ARM GAS  C:\Users\ldebo\AppData\Local\Temp\ccrazFu5.s 			page 49


 2737 2080 000053E3 		cmp	r3, #0
 2738 2084 8A00000A 		beq	.L611
 2739              	.L590:
 2740 2088 E50053E3 		cmp	r3, #229
 2741 208c C7FFFF1A 		bne	.L705
 2742              	.L622:
 2743 2090 0130A0E1 		mov	r3, r1
 2744 2094 201083E2 		add	r1, r3, #32
 2745 2098 0C1085E5 		str	r1, [r5, #12]
 2746 209c 020C51E3 		cmp	r1, #512
 2747 20a0 F3FFFF3A 		bcc	.L602
 2748              	.L704:
 2749 20a4 08A095E5 		ldr	r10, [r5, #8]
 2750 20a8 582099E5 		ldr	r2, [r9, #88]
 2751              	.L610:
 2752 20ac 01A08AE2 		add	r10, r10, #1
 2753 20b0 02005AE1 		cmp	r10, r2
 2754 20b4 08A085E5 		str	r10, [r5, #8]
 2755 20b8 B1FFFF2A 		bcs	.L618
 2756 20bc 4020D9E5 		ldrb	r2, [r9, #64]	@ zero_extendqisi2
 2757 20c0 0CB085E5 		str	fp, [r5, #12]
 2758 20c4 000052E3 		cmp	r2, #0
 2759 20c8 9100001A 		bne	.L706
 2760              	.L607:
 2761 20cc 00309DE5 		ldr	r3, [sp]
 2762 20d0 000053E3 		cmp	r3, #0
 2763 20d4 0320A011 		movne	r2, r3
 2764 20d8 0330A013 		movne	r3, #3
 2765 20dc 00A0A013 		movne	r10, #0
 2766 20e0 00308215 		strne	r3, [r2]
 2767 20e4 7900001A 		bne	.L588
 2768              	.L619:
 2769 20e8 00A0A0E3 		mov	r10, #0
 2770 20ec 0A00A0E1 		mov	r0, r10
 2771 20f0 1CD08DE2 		add	sp, sp, #28
 2772              		@ sp needed
 2773 20f4 F08FBDE8 		pop	{r4, r5, r6, r7, r8, r9, r10, fp, pc}
 2774              	.L600:
 2775 20f8 0610A0E1 		mov	r1, r6
 2776 20fc 0800A0E1 		mov	r0, r8
 2777 2100 FEFFFFEB 		bl	WildcardMatch
 2778 2104 0C3095E5 		ldr	r3, [r5, #12]
 2779 2108 004050E2 		subs	r4, r0, #0
 2780 210c D4FFFF0A 		beq	.L593
 2781 2110 00209DE5 		ldr	r2, [sp]
 2782 2114 203083E2 		add	r3, r3, #32
 2783 2118 0C3085E5 		str	r3, [r5, #12]
 2784 211c 000052E3 		cmp	r2, #0
 2785 2120 6A00000A 		beq	.L588
 2786 2124 0030A0E3 		mov	r3, #0
 2787 2128 0A00A0E1 		mov	r0, r10
 2788 212c 003082E5 		str	r3, [r2]
 2789 2130 1CD08DE2 		add	sp, sp, #28
 2790              		@ sp needed
 2791 2134 F08FBDE8 		pop	{r4, r5, r6, r7, r8, r9, r10, fp, pc}
 2792              	.L596:
 2793 2138 040086E0 		add	r0, r6, r4
ARM GAS  C:\Users\ldebo\AppData\Local\Temp\ccrazFu5.s 			page 50


 2794 213c FF4064E2 		rsb	r4, r4, #255
 2795 2140 044086E0 		add	r4, r6, r4
 2796 2144 0630A0E1 		mov	r3, r6
 2797              	.L598:
 2798 2148 0110D4E4 		ldrb	r1, [r4], #1	@ zero_extendqisi2
 2799 214c 0110C3E4 		strb	r1, [r3], #1
 2800 2150 030050E1 		cmp	r0, r3
 2801 2154 FBFFFF1A 		bne	.L598
 2802 2158 00B0C0E5 		strb	fp, [r0]
 2803 215c BBFFFFEA 		b	.L599
 2804              	.L703:
 2805 2160 08B08DE5 		str	fp, [sp, #8]
 2806 2164 0A00A0E1 		mov	r0, r10
 2807 2168 0CB08DE5 		str	fp, [sp, #12]
 2808 216c 08108DE2 		add	r1, sp, #8
 2809 2170 10B08DE5 		str	fp, [sp, #16]
 2810 2174 B4B1CDE1 		strh	fp, [sp, #20]	@ movhi
 2811 2178 ECF8FFEB 		bl	ReadLFNEntry
 2812 217c 000050E3 		cmp	r0, #0
 2813 2180 4900000A 		beq	.L595
 2814 2184 004084E0 		add	r4, r4, r0
 2815 2188 010050E3 		cmp	r0, #1
 2816 218c 0820DDE5 		ldrb	r2, [sp, #8]	@ zero_extendqisi2
 2817 2190 FF3064E2 		rsb	r3, r4, #255
 2818 2194 0320C6E7 		strb	r2, [r6, r3]
 2819 2198 4300000A 		beq	.L595
 2820 219c 0920DDE5 		ldrb	r2, [sp, #9]	@ zero_extendqisi2
 2821 21a0 013C64E2 		rsb	r3, r4, #256
 2822 21a4 020050E3 		cmp	r0, #2
 2823 21a8 0320C6E7 		strb	r2, [r6, r3]
 2824 21ac 3E00000A 		beq	.L595
 2825 21b0 0A20DDE5 		ldrb	r2, [sp, #10]	@ zero_extendqisi2
 2826 21b4 013083E2 		add	r3, r3, #1
 2827 21b8 030050E3 		cmp	r0, #3
 2828 21bc 0320C6E7 		strb	r2, [r6, r3]
 2829 21c0 3900000A 		beq	.L595
 2830 21c4 0B20DDE5 		ldrb	r2, [sp, #11]	@ zero_extendqisi2
 2831 21c8 013C64E2 		rsb	r3, r4, #256
 2832 21cc 023083E2 		add	r3, r3, #2
 2833 21d0 040050E3 		cmp	r0, #4
 2834 21d4 0320C6E7 		strb	r2, [r6, r3]
 2835 21d8 3300000A 		beq	.L595
 2836 21dc 0C20DDE5 		ldrb	r2, [sp, #12]	@ zero_extendqisi2
 2837 21e0 013C64E2 		rsb	r3, r4, #256
 2838 21e4 033083E2 		add	r3, r3, #3
 2839 21e8 050050E3 		cmp	r0, #5
 2840 21ec 0320C6E7 		strb	r2, [r6, r3]
 2841 21f0 2D00000A 		beq	.L595
 2842 21f4 0D20DDE5 		ldrb	r2, [sp, #13]	@ zero_extendqisi2
 2843 21f8 413F64E2 		rsb	r3, r4, #260
 2844 21fc 060050E3 		cmp	r0, #6
 2845 2200 0320C6E7 		strb	r2, [r6, r3]
 2846 2204 2800000A 		beq	.L595
 2847 2208 0E20DDE5 		ldrb	r2, [sp, #14]	@ zero_extendqisi2
 2848 220c 013083E2 		add	r3, r3, #1
 2849 2210 070050E3 		cmp	r0, #7
 2850 2214 0320C6E7 		strb	r2, [r6, r3]
ARM GAS  C:\Users\ldebo\AppData\Local\Temp\ccrazFu5.s 			page 51


 2851 2218 2300000A 		beq	.L595
 2852 221c 0F20DDE5 		ldrb	r2, [sp, #15]	@ zero_extendqisi2
 2853 2220 413F64E2 		rsb	r3, r4, #260
 2854 2224 023083E2 		add	r3, r3, #2
 2855 2228 080050E3 		cmp	r0, #8
 2856 222c 0320C6E7 		strb	r2, [r6, r3]
 2857 2230 1D00000A 		beq	.L595
 2858 2234 1020DDE5 		ldrb	r2, [sp, #16]	@ zero_extendqisi2
 2859 2238 413F64E2 		rsb	r3, r4, #260
 2860 223c 033083E2 		add	r3, r3, #3
 2861 2240 090050E3 		cmp	r0, #9
 2862 2244 0320C6E7 		strb	r2, [r6, r3]
 2863 2248 1700000A 		beq	.L595
 2864 224c 1120DDE5 		ldrb	r2, [sp, #17]	@ zero_extendqisi2
 2865 2250 423F64E2 		rsb	r3, r4, #264
 2866 2254 0A0050E3 		cmp	r0, #10
 2867 2258 0320C6E7 		strb	r2, [r6, r3]
 2868 225c 1200000A 		beq	.L595
 2869 2260 1220DDE5 		ldrb	r2, [sp, #18]	@ zero_extendqisi2
 2870 2264 013083E2 		add	r3, r3, #1
 2871 2268 0B0050E3 		cmp	r0, #11
 2872 226c 0320C6E7 		strb	r2, [r6, r3]
 2873 2270 0D00000A 		beq	.L595
 2874 2274 1320DDE5 		ldrb	r2, [sp, #19]	@ zero_extendqisi2
 2875 2278 423F64E2 		rsb	r3, r4, #264
 2876 227c 023083E2 		add	r3, r3, #2
 2877 2280 0C0050E3 		cmp	r0, #12
 2878 2284 0320C6E7 		strb	r2, [r6, r3]
 2879 2288 0700000A 		beq	.L595
 2880 228c 1420DDE5 		ldrb	r2, [sp, #20]	@ zero_extendqisi2
 2881 2290 423F64E2 		rsb	r3, r4, #264
 2882 2294 0D0050E3 		cmp	r0, #13
 2883 2298 033083E2 		add	r3, r3, #3
 2884 229c 0320C6E7 		strb	r2, [r6, r3]
 2885 22a0 433F6412 		rsbne	r3, r4, #268
 2886 22a4 1520DD15 		ldrbne	r2, [sp, #21]	@ zero_extendqisi2
 2887 22a8 0320C617 		strbne	r2, [r6, r3]
 2888              	.L595:
 2889 22ac 0C3095E5 		ldr	r3, [r5, #12]
 2890 22b0 6BFFFFEA 		b	.L593
 2891              	.L611:
 2892 22b4 00309DE5 		ldr	r3, [sp]
 2893 22b8 000053E3 		cmp	r3, #0
 2894 22bc 89FFFF0A 		beq	.L619
 2895 22c0 0320A0E1 		mov	r2, r3
 2896 22c4 00A0A0E3 		mov	r10, #0
 2897 22c8 0130A0E3 		mov	r3, #1
 2898 22cc 003082E5 		str	r3, [r2]
 2899              	.L588:
 2900 22d0 0A00A0E1 		mov	r0, r10
 2901 22d4 1CD08DE2 		add	sp, sp, #28
 2902              		@ sp needed
 2903 22d8 F08FBDE8 		pop	{r4, r5, r6, r7, r8, r9, r10, fp, pc}
 2904              	.L624:
 2905 22dc 0140A0E3 		mov	r4, #1
 2906 22e0 59FFFFEA 		b	.L597
 2907              	.L625:
ARM GAS  C:\Users\ldebo\AppData\Local\Temp\ccrazFu5.s 			page 52


 2908 22e4 0240A0E3 		mov	r4, #2
 2909 22e8 57FFFFEA 		b	.L597
 2910              	.L626:
 2911 22ec 0340A0E3 		mov	r4, #3
 2912 22f0 55FFFFEA 		b	.L597
 2913              	.L627:
 2914 22f4 0440A0E3 		mov	r4, #4
 2915 22f8 53FFFFEA 		b	.L597
 2916              	.L628:
 2917 22fc 0540A0E3 		mov	r4, #5
 2918 2300 51FFFFEA 		b	.L597
 2919              	.L629:
 2920 2304 0640A0E3 		mov	r4, #6
 2921 2308 4FFFFFEA 		b	.L597
 2922              	.L630:
 2923 230c 0740A0E3 		mov	r4, #7
 2924 2310 4DFFFFEA 		b	.L597
 2925              	.L706:
 2926 2314 041095E5 		ldr	r1, [r5, #4]
 2927 2318 04108DE5 		str	r1, [sp, #4]
 2928 231c 37F7FFEB 		bl	sdWaitForData
 2929 2320 04109DE5 		ldr	r1, [sp, #4]
 2930 2324 000050E3 		cmp	r0, #0
 2931 2328 67FFFF1A 		bne	.L607
 2932 232c 003097E5 		ldr	r3, [r7]
 2933 2330 4020D9E5 		ldrb	r2, [r9, #64]	@ zero_extendqisi2
 2934 2334 01108AE0 		add	r1, r10, r1
 2935 2338 033683E2 		add	r3, r3, #3145728
 2936 233c 54019FE5 		ldr	r0, .L707
 2937 2340 030052E3 		cmp	r2, #3
 2938 2344 04C093E5 		ldr	ip, [r3, #4]
 2939 2348 022CA0E3 		mov	r2, #512
 2940 234c 8114A001 		lsleq	r1, r1, #9
 2941 2350 01C040E3 		movt	ip, 1
 2942 2354 04C083E5 		str	ip, [r3, #4]
 2943 2358 04C093E5 		ldr	ip, [r3, #4]
 2944 235c 12C0C9E7 		bfi	ip, r2, #0, #10
 2945 2360 04C083E5 		str	ip, [r3, #4]
 2946 2364 06F9FFEB 		bl	sdSendCommandP
 2947 2368 FF0010E3 		tst	r0, #255
 2948 236c 56FFFF1A 		bne	.L607
 2949 2370 2000A0E3 		mov	r0, #32
 2950 2374 61F7FFEB 		bl	sdWaitForInterrupt
 2951 2378 000050E3 		cmp	r0, #0
 2952 237c 3E00001A 		bne	.L702
 2953 2380 0C2085E2 		add	r2, r5, #12
 2954 2384 831F85E2 		add	r1, r5, #524
 2955              	.L608:
 2956 2388 003097E5 		ldr	r3, [r7]
 2957 238c 033683E2 		add	r3, r3, #3145728
 2958 2390 203093E5 		ldr	r3, [r3, #32]
 2959 2394 0430A2E5 		str	r3, [r2, #4]!
 2960 2398 010052E1 		cmp	r2, r1
 2961 239c F9FFFF1A 		bne	.L608
 2962 23a0 F5FEFFEA 		b	.L699
 2963              	.L609:
 2964 23a4 000095E5 		ldr	r0, [r5]
ARM GAS  C:\Users\ldebo\AppData\Local\Temp\ccrazFu5.s 			page 53


 2965 23a8 0020A0E3 		mov	r2, #0
 2966 23ac 0210A0E1 		mov	r1, r2
 2967 23b0 FEFFFFEB 		bl	getSetNextCluster
 2968 23b4 58C099E5 		ldr	ip, [r9, #88]
 2969 23b8 021040E2 		sub	r1, r0, #2
 2970 23bc 602099E5 		ldr	r2, [r9, #96]
 2971 23c0 4030D9E5 		ldrb	r3, [r9, #64]	@ zero_extendqisi2
 2972 23c4 9C212AE0 		mla	r10, ip, r1, r2
 2973 23c8 000085E5 		str	r0, [r5]
 2974 23cc 000053E3 		cmp	r3, #0
 2975 23d0 000C85E9 		stmib	r5, {r10, fp}
 2976 23d4 0CB085E5 		str	fp, [r5, #12]
 2977 23d8 3BFFFF0A 		beq	.L607
 2978 23dc 07F7FFEB 		bl	sdWaitForData
 2979 23e0 000050E3 		cmp	r0, #0
 2980 23e4 38FFFF1A 		bne	.L607
 2981 23e8 4030D9E5 		ldrb	r3, [r9, #64]	@ zero_extendqisi2
 2982 23ec 022CA0E3 		mov	r2, #512
 2983 23f0 A0009FE5 		ldr	r0, .L707
 2984 23f4 030053E3 		cmp	r3, #3
 2985 23f8 003097E5 		ldr	r3, [r7]
 2986 23fc 8AA4A001 		lsleq	r10, r10, #9
 2987 2400 033683E2 		add	r3, r3, #3145728
 2988 2404 0A10A0E1 		mov	r1, r10
 2989 2408 04C093E5 		ldr	ip, [r3, #4]
 2990 240c 01C040E3 		movt	ip, 1
 2991 2410 04C083E5 		str	ip, [r3, #4]
 2992 2414 04C093E5 		ldr	ip, [r3, #4]
 2993 2418 12C0C9E7 		bfi	ip, r2, #0, #10
 2994 241c 04C083E5 		str	ip, [r3, #4]
 2995 2420 D7F8FFEB 		bl	sdSendCommandP
 2996 2424 FF0010E3 		tst	r0, #255
 2997 2428 27FFFF1A 		bne	.L607
 2998 242c 2000A0E3 		mov	r0, #32
 2999 2430 32F7FFEB 		bl	sdWaitForInterrupt
 3000 2434 000050E3 		cmp	r0, #0
 3001 2438 0F00001A 		bne	.L702
 3002 243c 0C2085E2 		add	r2, r5, #12
 3003 2440 831F85E2 		add	r1, r5, #524
 3004              	.L616:
 3005 2444 003097E5 		ldr	r3, [r7]
 3006 2448 033683E2 		add	r3, r3, #3145728
 3007 244c 203093E5 		ldr	r3, [r3, #32]
 3008 2450 0430A2E5 		str	r3, [r2, #4]!
 3009 2454 020051E1 		cmp	r1, r2
 3010 2458 F9FFFF1A 		bne	.L616
 3011 245c C2FEFFEA 		b	.L589
 3012              	.L617:
 3013 2460 00209DE5 		ldr	r2, [sp]
 3014 2464 000052E3 		cmp	r2, #0
 3015 2468 1EFFFF0A 		beq	.L619
 3016 246c 0230A0E3 		mov	r3, #2
 3017 2470 00A0A0E3 		mov	r10, #0
 3018 2474 003082E5 		str	r3, [r2]
 3019 2478 94FFFFEA 		b	.L588
 3020              	.L702:
 3021 247c 003099E5 		ldr	r3, [r9]
ARM GAS  C:\Users\ldebo\AppData\Local\Temp\ccrazFu5.s 			page 54


 3022 2480 000053E3 		cmp	r3, #0
 3023 2484 10FFFF0A 		beq	.L607
 3024 2488 000000E3 		movw	r0, #:lower16:.LC8
 3025 248c 000040E3 		movt	r0, #:upper16:.LC8
 3026 2490 33FF2FE1 		blx	r3
 3027 2494 0CFFFFEA 		b	.L607
 3028              	.L708:
 3029              		.align	2
 3030              	.L707:
 3031 2498 50010000 		.word	.LANCHOR1+336
 3032              		.size	LocateFATEntry.constprop.6, .-LocateFATEntry.constprop.6
 3033              		.align	2
 3034              		.global	sdFindFirstFile
 3035              		.syntax unified
 3036              		.arm
 3037              		.fpu neon
 3038              		.type	sdFindFirstFile, %function
 3039              	sdFindFirstFile:
 3040              		@ args = 0, pretend = 0, frame = 288
 3041              		@ frame_needed = 0, uses_anonymous_args = 0
 3042 249c F04F2DE9 		push	{r4, r5, r6, r7, r8, r9, r10, fp, lr}
 3043 24a0 4BDF4DE2 		sub	sp, sp, #300
 3044 24a4 000051E3 		cmp	r1, #0
 3045 24a8 00005013 		cmpne	r0, #0
 3046 24ac 0030A0E3 		mov	r3, #0
 3047 24b0 24308DE5 		str	r3, [sp, #36]
 3048 24b4 3400000A 		beq	.L723
 3049 24b8 0030D0E5 		ldrb	r3, [r0]	@ zero_extendqisi2
 3050 24bc 28508DE2 		add	r5, sp, #40
 3051 24c0 0520A0E1 		mov	r2, r5
 3052 24c4 000053E3 		cmp	r3, #0
 3053 24c8 0300000A 		beq	.L712
 3054              	.L713:
 3055 24cc 0130C2E4 		strb	r3, [r2], #1
 3056 24d0 0130F0E5 		ldrb	r3, [r0, #1]!	@ zero_extendqisi2
 3057 24d4 000053E3 		cmp	r3, #0
 3058 24d8 FBFFFF1A 		bne	.L713
 3059              	.L712:
 3060 24dc 006000E3 		movw	r6, #:lower16:.LANCHOR0
 3061 24e0 0030A0E3 		mov	r3, #0
 3062 24e4 006040E3 		movt	r6, #:upper16:.LANCHOR0
 3063 24e8 0030C2E5 		strb	r3, [r2]
 3064 24ec 2830DDE5 		ldrb	r3, [sp, #40]	@ zero_extendqisi2
 3065 24f0 847096E5 		ldr	r7, [r6, #132]
 3066 24f4 5C0053E3 		cmp	r3, #92
 3067 24f8 29508D02 		addeq	r5, sp, #41
 3068 24fc 000057E3 		cmp	r7, #0
 3069 2500 C300000A 		beq	.L734
 3070 2504 943396E5 		ldr	r3, [r6, #916]
 3071 2508 000053E3 		cmp	r3, #0
 3072 250c C300000A 		beq	.L735
 3073 2510 A43696E5 		ldr	r3, [r6, #1700]
 3074 2514 000053E3 		cmp	r3, #0
 3075 2518 0330A013 		movne	r3, #3
 3076 251c 0230A003 		moveq	r3, #2
 3077 2520 10308DE5 		str	r3, [sp, #16]
 3078              	.L716:
ARM GAS  C:\Users\ldebo\AppData\Local\Temp\ccrazFu5.s 			page 55


 3079 2524 317EA0E3 		mov	r7, #784
 3080 2528 970307E0 		mul	r7, r7, r3
 3081 252c 104087E2 		add	r4, r7, #16
 3082              	.L715:
 3083 2530 542096E5 		ldr	r2, [r6, #84]
 3084 2534 313EA0E3 		mov	r3, #784
 3085 2538 60C096E5 		ldr	ip, [r6, #96]
 3086 253c 58E096E5 		ldr	lr, [r6, #88]
 3087 2540 028042E2 		sub	r8, r2, #2
 3088 2544 4000D6E5 		ldrb	r0, [r6, #64]	@ zero_extendqisi2
 3089 2548 9EC828E0 		mla	r8, lr, r8, ip
 3090 254c 10C09DE5 		ldr	ip, [sp, #16]
 3091 2550 000050E3 		cmp	r0, #0
 3092 2554 936C23E0 		mla	r3, r3, ip, r6
 3093 2558 802083E5 		str	r2, [r3, #128]
 3094 255c 0020A0E3 		mov	r2, #0
 3095 2560 848083E5 		str	r8, [r3, #132]
 3096 2564 882083E5 		str	r2, [r3, #136]
 3097 2568 8C2083E5 		str	r2, [r3, #140]
 3098 256c 0900001A 		bne	.L762
 3099              	.L720:
 3100 2570 10209DE5 		ldr	r2, [sp, #16]
 3101 2574 313EA0E3 		mov	r3, #784
 3102 2578 0000A0E3 		mov	r0, #0
 3103 257c 936226E0 		mla	r6, r3, r2, r6
 3104 2580 840086E5 		str	r0, [r6, #132]
 3105              	.L709:
 3106 2584 4BDF8DE2 		add	sp, sp, #300
 3107              		@ sp needed
 3108 2588 F08FBDE8 		pop	{r4, r5, r6, r7, r8, r9, r10, fp, pc}
 3109              	.L723:
 3110 258c 0000A0E3 		mov	r0, #0
 3111 2590 4BDF8DE2 		add	sp, sp, #300
 3112              		@ sp needed
 3113 2594 F08FBDE8 		pop	{r4, r5, r6, r7, r8, r9, r10, fp, pc}
 3114              	.L762:
 3115 2598 1C108DE5 		str	r1, [sp, #28]
 3116 259c 97F6FFEB 		bl	sdWaitForData
 3117 25a0 000050E3 		cmp	r0, #0
 3118 25a4 F1FFFF1A 		bne	.L720
 3119 25a8 4030D6E5 		ldrb	r3, [r6, #64]	@ zero_extendqisi2
 3120 25ac 02CCA0E3 		mov	ip, #512
 3121 25b0 90029FE5 		ldr	r0, .L765
 3122 25b4 030053E3 		cmp	r3, #3
 3123 25b8 003000E3 		movw	r3, #:lower16:RPi_IO_Base_Addr
 3124 25bc 003040E3 		movt	r3, #:upper16:RPi_IO_Base_Addr
 3125 25c0 14308DE5 		str	r3, [sp, #20]
 3126 25c4 003093E5 		ldr	r3, [r3]
 3127 25c8 8884A001 		lsleq	r8, r8, #9
 3128 25cc 033683E2 		add	r3, r3, #3145728
 3129 25d0 0810A0E1 		mov	r1, r8
 3130 25d4 042093E5 		ldr	r2, [r3, #4]
 3131 25d8 012040E3 		movt	r2, 1
 3132 25dc 042083E5 		str	r2, [r3, #4]
 3133 25e0 042093E5 		ldr	r2, [r3, #4]
 3134 25e4 1C20C9E7 		bfi	r2, ip, #0, #10
 3135 25e8 042083E5 		str	r2, [r3, #4]
ARM GAS  C:\Users\ldebo\AppData\Local\Temp\ccrazFu5.s 			page 56


 3136 25ec 64F8FFEB 		bl	sdSendCommandP
 3137 25f0 FF0010E3 		tst	r0, #255
 3138 25f4 DDFFFF1A 		bne	.L720
 3139 25f8 2000A0E3 		mov	r0, #32
 3140 25fc BFF6FFEB 		bl	sdWaitForInterrupt
 3141 2600 000050E3 		cmp	r0, #0
 3142 2604 8800001A 		bne	.L763
 3143 2608 14309DE5 		ldr	r3, [sp, #20]
 3144 260c 001093E5 		ldr	r1, [r3]
 3145 2610 34329FE5 		ldr	r3, .L765+4
 3146 2614 031681E2 		add	r1, r1, #3145728
 3147 2618 042083E0 		add	r2, r3, r4
 3148 261c 201081E2 		add	r1, r1, #32
 3149 2620 043042E2 		sub	r3, r2, #4
 3150 2624 7F2F82E2 		add	r2, r2, #508
 3151 2628 18308DE5 		str	r3, [sp, #24]
 3152 262c 0340A0E1 		mov	r4, r3
 3153              	.L721:
 3154 2630 003091E5 		ldr	r3, [r1]
 3155 2634 0430A4E5 		str	r3, [r4, #4]!
 3156 2638 020054E1 		cmp	r4, r2
 3157 263c FBFFFF1A 		bne	.L721
 3158 2640 04329FE5 		ldr	r3, .L765+4
 3159 2644 24B08DE2 		add	fp, sp, #36
 3160 2648 073083E0 		add	r3, r3, r7
 3161 264c 317EA0E3 		mov	r7, #784
 3162 2650 0C308DE5 		str	r3, [sp, #12]
 3163 2654 10309DE5 		ldr	r3, [sp, #16]
 3164 2658 976327E0 		mla	r7, r7, r3, r6
 3165 265c 1C309DE5 		ldr	r3, [sp, #28]
 3166 2660 78A083E2 		add	r10, r3, #120
 3167              	.L729:
 3168 2664 5C10A0E3 		mov	r1, #92
 3169 2668 0500A0E1 		mov	r0, r5
 3170 266c FEFFFFEB 		bl	strchr
 3171 2670 009050E2 		subs	r9, r0, #0
 3172 2674 3F00000A 		beq	.L722
 3173 2678 0C109DE5 		ldr	r1, [sp, #12]
 3174 267c 0080A0E3 		mov	r8, #0
 3175 2680 0080C9E5 		strb	r8, [r9]
 3176 2684 0500A0E1 		mov	r0, r5
 3177 2688 0B30A0E1 		mov	r3, fp
 3178 268c 0A20A0E1 		mov	r2, r10
 3179 2690 29FEFFEB 		bl	LocateFATEntry.constprop.6
 3180 2694 000050E3 		cmp	r0, #0
 3181 2698 BBFFFF0A 		beq	.L723
 3182 269c 15C0D0E5 		ldrb	ip, [r0, #21]	@ zero_extendqisi2
 3183 26a0 1420D0E5 		ldrb	r2, [r0, #20]	@ zero_extendqisi2
 3184 26a4 1B10D0E5 		ldrb	r1, [r0, #27]	@ zero_extendqisi2
 3185 26a8 1A30D0E5 		ldrb	r3, [r0, #26]	@ zero_extendqisi2
 3186 26ac 0C2482E1 		orr	r2, r2, ip, lsl #8
 3187 26b0 013483E1 		orr	r3, r3, r1, lsl #8
 3188 26b4 023883E1 		orr	r3, r3, r2, lsl #16
 3189 26b8 58C096E5 		ldr	ip, [r6, #88]
 3190 26bc 020043E2 		sub	r0, r3, #2
 3191 26c0 601096E5 		ldr	r1, [r6, #96]
 3192 26c4 4020D6E5 		ldrb	r2, [r6, #64]	@ zero_extendqisi2
ARM GAS  C:\Users\ldebo\AppData\Local\Temp\ccrazFu5.s 			page 57


 3193 26c8 9C1025E0 		mla	r5, ip, r0, r1
 3194 26cc 080052E1 		cmp	r2, r8
 3195 26d0 803087E5 		str	r3, [r7, #128]
 3196 26d4 888087E5 		str	r8, [r7, #136]
 3197 26d8 8C8087E5 		str	r8, [r7, #140]
 3198 26dc 845087E5 		str	r5, [r7, #132]
 3199 26e0 A9FFFF0A 		beq	.L723
 3200 26e4 45F6FFEB 		bl	sdWaitForData
 3201 26e8 080050E1 		cmp	r0, r8
 3202 26ec A6FFFF1A 		bne	.L723
 3203 26f0 4030D6E5 		ldrb	r3, [r6, #64]	@ zero_extendqisi2
 3204 26f4 022CA0E3 		mov	r2, #512
 3205 26f8 48019FE5 		ldr	r0, .L765
 3206 26fc 030053E3 		cmp	r3, #3
 3207 2700 14309DE5 		ldr	r3, [sp, #20]
 3208 2704 8554A001 		lsleq	r5, r5, #9
 3209 2708 003093E5 		ldr	r3, [r3]
 3210 270c 0510A0E1 		mov	r1, r5
 3211 2710 033683E2 		add	r3, r3, #3145728
 3212 2714 04C093E5 		ldr	ip, [r3, #4]
 3213 2718 01C040E3 		movt	ip, 1
 3214 271c 04C083E5 		str	ip, [r3, #4]
 3215 2720 04C093E5 		ldr	ip, [r3, #4]
 3216 2724 12C0C9E7 		bfi	ip, r2, #0, #10
 3217 2728 04C083E5 		str	ip, [r3, #4]
 3218 272c 14F8FFEB 		bl	sdSendCommandP
 3219 2730 7080EFE6 		uxtb	r8, r0
 3220 2734 000058E3 		cmp	r8, #0
 3221 2738 93FFFF1A 		bne	.L723
 3222 273c 2000A0E3 		mov	r0, #32
 3223 2740 6EF6FFEB 		bl	sdWaitForInterrupt
 3224 2744 000050E3 		cmp	r0, #0
 3225 2748 2900001A 		bne	.L764
 3226 274c 14309DE5 		ldr	r3, [sp, #20]
 3227 2750 001093E5 		ldr	r1, [r3]
 3228 2754 18309DE5 		ldr	r3, [sp, #24]
 3229 2758 031681E2 		add	r1, r1, #3145728
 3230 275c 201081E2 		add	r1, r1, #32
 3231              	.L726:
 3232 2760 002091E5 		ldr	r2, [r1]
 3233 2764 0420A3E5 		str	r2, [r3, #4]!
 3234 2768 030054E1 		cmp	r4, r3
 3235 276c FBFFFF1A 		bne	.L726
 3236 2770 015089E2 		add	r5, r9, #1
 3237 2774 BAFFFFEA 		b	.L729
 3238              	.L722:
 3239 2778 00B08DE5 		str	fp, [sp]
 3240 277c 0A30A0E1 		mov	r3, r10
 3241 2780 0C109DE5 		ldr	r1, [sp, #12]
 3242 2784 0920A0E1 		mov	r2, r9
 3243 2788 0500A0E1 		mov	r0, r5
 3244 278c 28FCFFEB 		bl	LocateFATEntry
 3245 2790 24309DE5 		ldr	r3, [sp, #36]
 3246 2794 000050E3 		cmp	r0, #0
 3247 2798 133F6FE1 		clz	r3, r3
 3248 279c A332A0E1 		lsr	r3, r3, #5
 3249 27a0 0030A003 		moveq	r3, #0
ARM GAS  C:\Users\ldebo\AppData\Local\Temp\ccrazFu5.s 			page 58


 3250 27a4 000053E3 		cmp	r3, #0
 3251 27a8 70FFFF0A 		beq	.L720
 3252 27ac 0020D5E5 		ldrb	r2, [r5]	@ zero_extendqisi2
 3253 27b0 000052E3 		cmp	r2, #0
 3254 27b4 0900000A 		beq	.L731
 3255 27b8 10109DE5 		ldr	r1, [sp, #16]
 3256 27bc 313EA0E3 		mov	r3, #784
 3257 27c0 84C09FE5 		ldr	ip, .L765+4
 3258 27c4 93C123E0 		mla	r3, r3, r1, ip
 3259 27c8 833F83E2 		add	r3, r3, #524
 3260 27cc 033083E2 		add	r3, r3, #3
 3261              	.L728:
 3262 27d0 0120E3E5 		strb	r2, [r3, #1]!
 3263 27d4 0120F5E5 		ldrb	r2, [r5, #1]!	@ zero_extendqisi2
 3264 27d8 000052E3 		cmp	r2, #0
 3265 27dc FBFFFF1A 		bne	.L728
 3266              	.L731:
 3267 27e0 1C109DE5 		ldr	r1, [sp, #28]
 3268 27e4 8EF7FFEB 		bl	SetFindDataFromFATEntry.part.0
 3269 27e8 10309DE5 		ldr	r3, [sp, #16]
 3270 27ec 010083E2 		add	r0, r3, #1
 3271 27f0 63FFFFEA 		b	.L709
 3272              	.L764:
 3273 27f4 003096E5 		ldr	r3, [r6]
 3274 27f8 000053E3 		cmp	r3, #0
 3275 27fc 62FFFF0A 		beq	.L723
 3276 2800 000000E3 		movw	r0, #:lower16:.LC8
 3277 2804 000040E3 		movt	r0, #:upper16:.LC8
 3278 2808 33FF2FE1 		blx	r3
 3279 280c 0800A0E1 		mov	r0, r8
 3280 2810 5BFFFFEA 		b	.L709
 3281              	.L734:
 3282 2814 10708DE5 		str	r7, [sp, #16]
 3283 2818 1040A0E3 		mov	r4, #16
 3284 281c 43FFFFEA 		b	.L715
 3285              	.L735:
 3286 2820 0130A0E3 		mov	r3, #1
 3287 2824 10308DE5 		str	r3, [sp, #16]
 3288 2828 3DFFFFEA 		b	.L716
 3289              	.L763:
 3290 282c 003096E5 		ldr	r3, [r6]
 3291 2830 000053E3 		cmp	r3, #0
 3292 2834 4DFFFF0A 		beq	.L720
 3293 2838 000000E3 		movw	r0, #:lower16:.LC8
 3294 283c 000040E3 		movt	r0, #:upper16:.LC8
 3295 2840 33FF2FE1 		blx	r3
 3296 2844 49FFFFEA 		b	.L720
 3297              	.L766:
 3298              		.align	2
 3299              	.L765:
 3300 2848 50010000 		.word	.LANCHOR1+336
 3301 284c 80000000 		.word	.LANCHOR0+128
 3302              		.size	sdFindFirstFile, .-sdFindFirstFile
 3303              		.align	2
 3304              		.global	sdFindNextFile
 3305              		.syntax unified
 3306              		.arm
ARM GAS  C:\Users\ldebo\AppData\Local\Temp\ccrazFu5.s 			page 59


 3307              		.fpu neon
 3308              		.type	sdFindNextFile, %function
 3309              	sdFindNextFile:
 3310              		@ args = 0, pretend = 0, frame = 8
 3311              		@ frame_needed = 0, uses_anonymous_args = 0
 3312 2850 70402DE9 		push	{r4, r5, r6, lr}
 3313 2854 01E040E2 		sub	lr, r0, #1
 3314 2858 10D04DE2 		sub	sp, sp, #16
 3315 285c 03005EE3 		cmp	lr, #3
 3316 2860 0020A0E3 		mov	r2, #0
 3317 2864 0C208DE5 		str	r2, [sp, #12]
 3318 2868 0200A081 		movhi	r0, r2
 3319 286c 0800008A 		bhi	.L767
 3320 2870 31CEA0E3 		mov	ip, #784
 3321 2874 003000E3 		movw	r3, #:lower16:.LANCHOR0
 3322 2878 9C0E0CE0 		mul	ip, ip, lr
 3323 287c 003040E3 		movt	r3, #:upper16:.LANCHOR0
 3324 2880 0C6083E0 		add	r6, r3, ip
 3325 2884 84E096E5 		ldr	lr, [r6, #132]
 3326 2888 02005EE1 		cmp	lr, r2
 3327 288c 0E00A001 		moveq	r0, lr
 3328 2890 0100001A 		bne	.L774
 3329              	.L767:
 3330 2894 10D08DE2 		add	sp, sp, #16
 3331              		@ sp needed
 3332 2898 7080BDE8 		pop	{r4, r5, r6, pc}
 3333              	.L774:
 3334 289c 803083E2 		add	r3, r3, #128
 3335 28a0 0150A0E1 		mov	r5, r1
 3336 28a4 0C1083E0 		add	r1, r3, ip
 3337 28a8 0040A0E1 		mov	r4, r0
 3338 28ac 210E8CE2 		add	r0, ip, #528
 3339 28b0 0CC08DE2 		add	ip, sp, #12
 3340 28b4 000083E0 		add	r0, r3, r0
 3341 28b8 783085E2 		add	r3, r5, #120
 3342 28bc 00C08DE5 		str	ip, [sp]
 3343 28c0 DBFBFFEB 		bl	LocateFATEntry
 3344 28c4 0C209DE5 		ldr	r2, [sp, #12]
 3345 28c8 000050E3 		cmp	r0, #0
 3346 28cc 122F6FE1 		clz	r2, r2
 3347 28d0 A222A0E1 		lsr	r2, r2, #5
 3348 28d4 0020A003 		moveq	r2, #0
 3349 28d8 000052E3 		cmp	r2, #0
 3350 28dc 0600000A 		beq	.L769
 3351 28e0 000055E3 		cmp	r5, #0
 3352 28e4 0400A001 		moveq	r0, r4
 3353 28e8 E9FFFF0A 		beq	.L767
 3354 28ec 0510A0E1 		mov	r1, r5
 3355 28f0 4BF7FFEB 		bl	SetFindDataFromFATEntry.part.0
 3356 28f4 0400A0E1 		mov	r0, r4
 3357 28f8 E5FFFFEA 		b	.L767
 3358              	.L769:
 3359 28fc 842086E5 		str	r2, [r6, #132]
 3360 2900 0200A0E1 		mov	r0, r2
 3361 2904 10D08DE2 		add	sp, sp, #16
 3362              		@ sp needed
 3363 2908 7080BDE8 		pop	{r4, r5, r6, pc}
ARM GAS  C:\Users\ldebo\AppData\Local\Temp\ccrazFu5.s 			page 60


 3364              		.size	sdFindNextFile, .-sdFindNextFile
 3365              		.align	2
 3366              		.global	sdFindClose
 3367              		.syntax unified
 3368              		.arm
 3369              		.fpu neon
 3370              		.type	sdFindClose, %function
 3371              	sdFindClose:
 3372              		@ args = 0, pretend = 0, frame = 0
 3373              		@ frame_needed = 0, uses_anonymous_args = 0
 3374              		@ link register save eliminated.
 3375 290c 010040E2 		sub	r0, r0, #1
 3376 2910 030050E3 		cmp	r0, #3
 3377 2914 0900008A 		bhi	.L777
 3378 2918 003000E3 		movw	r3, #:lower16:.LANCHOR0
 3379 291c 312EA0E3 		mov	r2, #784
 3380 2920 003040E3 		movt	r3, #:upper16:.LANCHOR0
 3381 2924 923023E0 		mla	r3, r2, r0, r3
 3382 2928 840093E5 		ldr	r0, [r3, #132]
 3383 292c 000050E3 		cmp	r0, #0
 3384 2930 0020A013 		movne	r2, #0
 3385 2934 0100A013 		movne	r0, #1
 3386 2938 84208315 		strne	r2, [r3, #132]
 3387 293c 1EFF2FE1 		bx	lr
 3388              	.L777:
 3389 2940 0000A0E3 		mov	r0, #0
 3390 2944 1EFF2FE1 		bx	lr
 3391              		.size	sdFindClose, .-sdFindClose
 3392              		.align	2
 3393              		.global	sdCreateFile
 3394              		.syntax unified
 3395              		.arm
 3396              		.fpu neon
 3397              		.type	sdCreateFile, %function
 3398              	sdCreateFile:
 3399              		@ args = 12, pretend = 0, frame = 528
 3400              		@ frame_needed = 0, uses_anonymous_args = 0
 3401 2948 F04F2DE9 		push	{r4, r5, r6, r7, r8, r9, r10, fp, lr}
 3402 294c 000050E3 		cmp	r0, #0
 3403 2950 87DF4DE2 		sub	sp, sp, #540
 3404 2954 0030A0E3 		mov	r3, #0
 3405 2958 14308DE5 		str	r3, [sp, #20]
 3406 295c 3C00000A 		beq	.L780
 3407 2960 0030D0E5 		ldrb	r3, [r0]	@ zero_extendqisi2
 3408 2964 461F8DE2 		add	r1, sp, #280
 3409 2968 0120A0E1 		mov	r2, r1
 3410 296c 000053E3 		cmp	r3, #0
 3411 2970 0300000A 		beq	.L781
 3412              	.L782:
 3413 2974 0130C2E4 		strb	r3, [r2], #1
 3414 2978 0130F0E5 		ldrb	r3, [r0, #1]!	@ zero_extendqisi2
 3415 297c 000053E3 		cmp	r3, #0
 3416 2980 FBFFFF1A 		bne	.L782
 3417              	.L781:
 3418 2984 0030A0E3 		mov	r3, #0
 3419 2988 005000E3 		movw	r5, #:lower16:.LANCHOR0
 3420 298c 0030C2E5 		strb	r3, [r2]
ARM GAS  C:\Users\ldebo\AppData\Local\Temp\ccrazFu5.s 			page 61


 3421 2990 005040E3 		movt	r5, #:upper16:.LANCHOR0
 3422 2994 1831DDE5 		ldrb	r3, [sp, #280]	@ zero_extendqisi2
 3423 2998 C46C95E5 		ldr	r6, [r5, #3268]
 3424 299c 5C0053E3 		cmp	r3, #92
 3425 29a0 46BF8D02 		addeq	fp, sp, #280
 3426 29a4 01B0A011 		movne	fp, r1
 3427 29a8 01B08B02 		addeq	fp, fp, #1
 3428 29ac 000056E3 		cmp	r6, #0
 3429 29b0 0701000A 		beq	.L803
 3430 29b4 E03F95E5 		ldr	r3, [r5, #4064]
 3431 29b8 000053E3 		cmp	r3, #0
 3432 29bc 0101000A 		beq	.L804
 3433 29c0 013A85E2 		add	r3, r5, #4096
 3434 29c4 FC1293E5 		ldr	r1, [r3, #764]
 3435 29c8 000051E3 		cmp	r1, #0
 3436 29cc FA00000A 		beq	.L805
 3437 29d0 181693E5 		ldr	r1, [r3, #1560]
 3438 29d4 000051E3 		cmp	r1, #0
 3439 29d8 F400000A 		beq	.L806
 3440 29dc 341993E5 		ldr	r1, [r3, #2356]
 3441 29e0 000051E3 		cmp	r1, #0
 3442 29e4 EE00000A 		beq	.L807
 3443 29e8 501C93E5 		ldr	r1, [r3, #3152]
 3444 29ec 000051E3 		cmp	r1, #0
 3445 29f0 E800000A 		beq	.L808
 3446 29f4 6C3F93E5 		ldr	r3, [r3, #3948]
 3447 29f8 000053E3 		cmp	r3, #0
 3448 29fc 0730A013 		movne	r3, #7
 3449 2a00 0630A003 		moveq	r3, #6
 3450 2a04 08308DE5 		str	r3, [sp, #8]
 3451              	.L785:
 3452 2a08 C76FA0E3 		mov	r6, #796
 3453 2a0c 0320A0E1 		mov	r2, r3
 3454 2a10 960306E0 		mul	r6, r6, r3
 3455 2a14 104086E2 		add	r4, r6, #16
 3456              	.L784:
 3457 2a18 541095E5 		ldr	r1, [r5, #84]
 3458 2a1c C73FA0E3 		mov	r3, #796
 3459 2a20 58E095E5 		ldr	lr, [r5, #88]
 3460 2a24 60C095E5 		ldr	ip, [r5, #96]
 3461 2a28 027041E2 		sub	r7, r1, #2
 3462 2a2c 4000D5E5 		ldrb	r0, [r5, #64]	@ zero_extendqisi2
 3463 2a30 935223E0 		mla	r3, r3, r2, r5
 3464 2a34 9EC727E0 		mla	r7, lr, r7, ip
 3465 2a38 C01C83E5 		str	r1, [r3, #3264]
 3466 2a3c 000050E3 		cmp	r0, #0
 3467 2a40 C47C83E5 		str	r7, [r3, #3268]
 3468 2a44 0010A0E3 		mov	r1, #0
 3469 2a48 C81C83E5 		str	r1, [r3, #3272]
 3470 2a4c CC1C83E5 		str	r1, [r3, #3276]
 3471 2a50 0200001A 		bne	.L844
 3472              	.L780:
 3473 2a54 0000A0E3 		mov	r0, #0
 3474              	.L779:
 3475 2a58 87DF8DE2 		add	sp, sp, #540
 3476              		@ sp needed
 3477 2a5c F08FBDE8 		pop	{r4, r5, r6, r7, r8, r9, r10, fp, pc}
ARM GAS  C:\Users\ldebo\AppData\Local\Temp\ccrazFu5.s 			page 62


 3478              	.L844:
 3479 2a60 66F5FFEB 		bl	sdWaitForData
 3480 2a64 000050E3 		cmp	r0, #0
 3481 2a68 F9FFFF1A 		bne	.L780
 3482 2a6c 4030D5E5 		ldrb	r3, [r5, #64]	@ zero_extendqisi2
 3483 2a70 02ECA0E3 		mov	lr, #512
 3484 2a74 98039FE5 		ldr	r0, .L848
 3485 2a78 030053E3 		cmp	r3, #3
 3486 2a7c 003000E3 		movw	r3, #:lower16:RPi_IO_Base_Addr
 3487 2a80 003040E3 		movt	r3, #:upper16:RPi_IO_Base_Addr
 3488 2a84 0C308DE5 		str	r3, [sp, #12]
 3489 2a88 003093E5 		ldr	r3, [r3]
 3490 2a8c 8774A001 		lsleq	r7, r7, #9
 3491 2a90 033683E2 		add	r3, r3, #3145728
 3492 2a94 0710A0E1 		mov	r1, r7
 3493 2a98 04C093E5 		ldr	ip, [r3, #4]
 3494 2a9c 01C040E3 		movt	ip, 1
 3495 2aa0 04C083E5 		str	ip, [r3, #4]
 3496 2aa4 04C093E5 		ldr	ip, [r3, #4]
 3497 2aa8 1EC0C9E7 		bfi	ip, lr, #0, #10
 3498 2aac 04C083E5 		str	ip, [r3, #4]
 3499 2ab0 33F7FFEB 		bl	sdSendCommandP
 3500 2ab4 7070EFE6 		uxtb	r7, r0
 3501 2ab8 000057E3 		cmp	r7, #0
 3502 2abc E4FFFF1A 		bne	.L780
 3503 2ac0 2000A0E3 		mov	r0, #32
 3504 2ac4 8DF5FFEB 		bl	sdWaitForInterrupt
 3505 2ac8 000050E3 		cmp	r0, #0
 3506 2acc C400001A 		bne	.L845
 3507 2ad0 0C309DE5 		ldr	r3, [sp, #12]
 3508 2ad4 3C939FE5 		ldr	r9, .L848+4
 3509 2ad8 000093E5 		ldr	r0, [r3]
 3510 2adc 041089E0 		add	r1, r9, r4
 3511 2ae0 04A041E2 		sub	r10, r1, #4
 3512 2ae4 030680E2 		add	r0, r0, #3145728
 3513 2ae8 7F1F81E2 		add	r1, r1, #508
 3514 2aec 0A40A0E1 		mov	r4, r10
 3515 2af0 200080E2 		add	r0, r0, #32
 3516              	.L789:
 3517 2af4 003090E5 		ldr	r3, [r0]
 3518 2af8 0430A4E5 		str	r3, [r4, #4]!
 3519 2afc 010054E1 		cmp	r4, r1
 3520 2b00 FBFFFF1A 		bne	.L789
 3521 2b04 08309DE5 		ldr	r3, [sp, #8]
 3522 2b08 C77FA0E3 		mov	r7, #796
 3523 2b0c 069089E0 		add	r9, r9, r6
 3524 2b10 0B60A0E1 		mov	r6, fp
 3525 2b14 975327E0 		mla	r7, r7, r3, r5
 3526              	.L799:
 3527 2b18 5C10A0E3 		mov	r1, #92
 3528 2b1c 0600A0E1 		mov	r0, r6
 3529 2b20 FEFFFFEB 		bl	strchr
 3530 2b24 008050E2 		subs	r8, r0, #0
 3531 2b28 3F00000A 		beq	.L790
 3532 2b2c 00B0A0E3 		mov	fp, #0
 3533 2b30 0600A0E1 		mov	r0, r6
 3534 2b34 00B0C8E5 		strb	fp, [r8]
ARM GAS  C:\Users\ldebo\AppData\Local\Temp\ccrazFu5.s 			page 63


 3535 2b38 14308DE2 		add	r3, sp, #20
 3536 2b3c 18208DE2 		add	r2, sp, #24
 3537 2b40 0910A0E1 		mov	r1, r9
 3538 2b44 FCFCFFEB 		bl	LocateFATEntry.constprop.6
 3539 2b48 000050E3 		cmp	r0, #0
 3540 2b4c C0FFFF0A 		beq	.L780
 3541 2b50 15C0D0E5 		ldrb	ip, [r0, #21]	@ zero_extendqisi2
 3542 2b54 1420D0E5 		ldrb	r2, [r0, #20]	@ zero_extendqisi2
 3543 2b58 1B10D0E5 		ldrb	r1, [r0, #27]	@ zero_extendqisi2
 3544 2b5c 1A30D0E5 		ldrb	r3, [r0, #26]	@ zero_extendqisi2
 3545 2b60 0C2482E1 		orr	r2, r2, ip, lsl #8
 3546 2b64 013483E1 		orr	r3, r3, r1, lsl #8
 3547 2b68 023883E1 		orr	r3, r3, r2, lsl #16
 3548 2b6c 58C095E5 		ldr	ip, [r5, #88]
 3549 2b70 020043E2 		sub	r0, r3, #2
 3550 2b74 601095E5 		ldr	r1, [r5, #96]
 3551 2b78 4020D5E5 		ldrb	r2, [r5, #64]	@ zero_extendqisi2
 3552 2b7c 9C1026E0 		mla	r6, ip, r0, r1
 3553 2b80 0B0052E1 		cmp	r2, fp
 3554 2b84 C03C87E5 		str	r3, [r7, #3264]
 3555 2b88 C8BC87E5 		str	fp, [r7, #3272]
 3556 2b8c CCBC87E5 		str	fp, [r7, #3276]
 3557 2b90 C46C87E5 		str	r6, [r7, #3268]
 3558 2b94 AEFFFF0A 		beq	.L780
 3559 2b98 18F5FFEB 		bl	sdWaitForData
 3560 2b9c 0B0050E1 		cmp	r0, fp
 3561 2ba0 ABFFFF1A 		bne	.L780
 3562 2ba4 4030D5E5 		ldrb	r3, [r5, #64]	@ zero_extendqisi2
 3563 2ba8 02CCA0E3 		mov	ip, #512
 3564 2bac 60029FE5 		ldr	r0, .L848
 3565 2bb0 030053E3 		cmp	r3, #3
 3566 2bb4 0C309DE5 		ldr	r3, [sp, #12]
 3567 2bb8 8664A001 		lsleq	r6, r6, #9
 3568 2bbc 003093E5 		ldr	r3, [r3]
 3569 2bc0 0610A0E1 		mov	r1, r6
 3570 2bc4 033683E2 		add	r3, r3, #3145728
 3571 2bc8 042093E5 		ldr	r2, [r3, #4]
 3572 2bcc 012040E3 		movt	r2, 1
 3573 2bd0 042083E5 		str	r2, [r3, #4]
 3574 2bd4 042093E5 		ldr	r2, [r3, #4]
 3575 2bd8 1C20C9E7 		bfi	r2, ip, #0, #10
 3576 2bdc 042083E5 		str	r2, [r3, #4]
 3577 2be0 E7F6FFEB 		bl	sdSendCommandP
 3578 2be4 70B0EFE6 		uxtb	fp, r0
 3579 2be8 00005BE3 		cmp	fp, #0
 3580 2bec 98FFFF1A 		bne	.L780
 3581 2bf0 2000A0E3 		mov	r0, #32
 3582 2bf4 41F5FFEB 		bl	sdWaitForInterrupt
 3583 2bf8 000050E3 		cmp	r0, #0
 3584 2bfc 5C00001A 		bne	.L846
 3585 2c00 0C309DE5 		ldr	r3, [sp, #12]
 3586 2c04 001093E5 		ldr	r1, [r3]
 3587 2c08 0A30A0E1 		mov	r3, r10
 3588 2c0c 031681E2 		add	r1, r1, #3145728
 3589 2c10 201081E2 		add	r1, r1, #32
 3590              	.L793:
 3591 2c14 002091E5 		ldr	r2, [r1]
ARM GAS  C:\Users\ldebo\AppData\Local\Temp\ccrazFu5.s 			page 64


 3592 2c18 0420A3E5 		str	r2, [r3, #4]!
 3593 2c1c 030054E1 		cmp	r4, r3
 3594 2c20 FBFFFF1A 		bne	.L793
 3595 2c24 016088E2 		add	r6, r8, #1
 3596 2c28 BAFFFFEA 		b	.L799
 3597              	.L790:
 3598 2c2c 14308DE2 		add	r3, sp, #20
 3599 2c30 0910A0E1 		mov	r1, r9
 3600 2c34 00308DE5 		str	r3, [sp]
 3601 2c38 0600A0E1 		mov	r0, r6
 3602 2c3c 18308DE2 		add	r3, sp, #24
 3603 2c40 0820A0E1 		mov	r2, r8
 3604 2c44 FAFAFFEB 		bl	LocateFATEntry
 3605 2c48 14309DE5 		ldr	r3, [sp, #20]
 3606 2c4c 000050E3 		cmp	r0, #0
 3607 2c50 133F6FE1 		clz	r3, r3
 3608 2c54 A332A0E1 		lsr	r3, r3, #5
 3609 2c58 0030A003 		moveq	r3, #0
 3610 2c5c 000053E3 		cmp	r3, #0
 3611 2c60 7BFFFF0A 		beq	.L780
 3612 2c64 1BC0D0E5 		ldrb	ip, [r0, #27]	@ zero_extendqisi2
 3613 2c68 C73FA0E3 		mov	r3, #796
 3614 2c6c 1A20D0E5 		ldrb	r2, [r0, #26]	@ zero_extendqisi2
 3615 2c70 15E0D0E5 		ldrb	lr, [r0, #21]	@ zero_extendqisi2
 3616 2c74 1410D0E5 		ldrb	r1, [r0, #20]	@ zero_extendqisi2
 3617 2c78 0C2482E1 		orr	r2, r2, ip, lsl #8
 3618 2c7c 08C09DE5 		ldr	ip, [sp, #8]
 3619 2c80 0E1481E1 		orr	r1, r1, lr, lsl #8
 3620 2c84 935C23E0 		mla	r3, r3, ip, r5
 3621 2c88 012882E1 		orr	r2, r2, r1, lsl #16
 3622 2c8c D02F83E5 		str	r2, [r3, #4048]
 3623 2c90 026042E2 		sub	r6, r2, #2
 3624 2c94 D48F83E5 		str	r8, [r3, #4052]
 3625 2c98 1DE0D0E5 		ldrb	lr, [r0, #29]	@ zero_extendqisi2
 3626 2c9c 1C10D0E5 		ldrb	r1, [r0, #28]	@ zero_extendqisi2
 3627 2ca0 1EC0D0E5 		ldrb	ip, [r0, #30]	@ zero_extendqisi2
 3628 2ca4 0E1481E1 		orr	r1, r1, lr, lsl #8
 3629 2ca8 1FE0D0E5 		ldrb	lr, [r0, #31]	@ zero_extendqisi2
 3630 2cac 0C0881E1 		orr	r0, r1, ip, lsl #16
 3631 2cb0 601095E5 		ldr	r1, [r5, #96]
 3632 2cb4 58C095E5 		ldr	ip, [r5, #88]
 3633 2cb8 0E0C80E1 		orr	r0, r0, lr, lsl #24
 3634 2cbc 9C1626E0 		mla	r6, ip, r6, r1
 3635 2cc0 4010D5E5 		ldrb	r1, [r5, #64]	@ zero_extendqisi2
 3636 2cc4 D80F83E5 		str	r0, [r3, #4056]
 3637 2cc8 C02C83E5 		str	r2, [r3, #3264]
 3638 2ccc 000051E3 		cmp	r1, #0
 3639 2cd0 C88C83E5 		str	r8, [r3, #3272]
 3640 2cd4 CC8C83E5 		str	r8, [r3, #3276]
 3641 2cd8 C46C83E5 		str	r6, [r3, #3268]
 3642 2cdc 5CFFFF0A 		beq	.L780
 3643 2ce0 C6F4FFEB 		bl	sdWaitForData
 3644 2ce4 000050E3 		cmp	r0, #0
 3645 2ce8 59FFFF1A 		bne	.L780
 3646 2cec 4030D5E5 		ldrb	r3, [r5, #64]	@ zero_extendqisi2
 3647 2cf0 02CCA0E3 		mov	ip, #512
 3648 2cf4 18019FE5 		ldr	r0, .L848
ARM GAS  C:\Users\ldebo\AppData\Local\Temp\ccrazFu5.s 			page 65


 3649 2cf8 030053E3 		cmp	r3, #3
 3650 2cfc 0C309DE5 		ldr	r3, [sp, #12]
 3651 2d00 8664A001 		lsleq	r6, r6, #9
 3652 2d04 003093E5 		ldr	r3, [r3]
 3653 2d08 0610A0E1 		mov	r1, r6
 3654 2d0c 033683E2 		add	r3, r3, #3145728
 3655 2d10 042093E5 		ldr	r2, [r3, #4]
 3656 2d14 012040E3 		movt	r2, 1
 3657 2d18 042083E5 		str	r2, [r3, #4]
 3658 2d1c 042093E5 		ldr	r2, [r3, #4]
 3659 2d20 1C20C9E7 		bfi	r2, ip, #0, #10
 3660 2d24 042083E5 		str	r2, [r3, #4]
 3661 2d28 95F6FFEB 		bl	sdSendCommandP
 3662 2d2c 7060EFE6 		uxtb	r6, r0
 3663 2d30 000056E3 		cmp	r6, #0
 3664 2d34 46FFFF1A 		bne	.L780
 3665 2d38 2000A0E3 		mov	r0, #32
 3666 2d3c EFF4FFEB 		bl	sdWaitForInterrupt
 3667 2d40 000050E3 		cmp	r0, #0
 3668 2d44 2E00001A 		bne	.L847
 3669 2d48 0C309DE5 		ldr	r3, [sp, #12]
 3670 2d4c 002093E5 		ldr	r2, [r3]
 3671 2d50 032682E2 		add	r2, r2, #3145728
 3672 2d54 202082E2 		add	r2, r2, #32
 3673              	.L797:
 3674 2d58 003092E5 		ldr	r3, [r2]
 3675 2d5c 0430AAE5 		str	r3, [r10, #4]!
 3676 2d60 04005AE1 		cmp	r10, r4
 3677 2d64 FBFFFF1A 		bne	.L797
 3678 2d68 08309DE5 		ldr	r3, [sp, #8]
 3679 2d6c 010083E2 		add	r0, r3, #1
 3680 2d70 38FFFFEA 		b	.L779
 3681              	.L846:
 3682 2d74 003095E5 		ldr	r3, [r5]
 3683 2d78 0B60A0E1 		mov	r6, fp
 3684 2d7c 000053E3 		cmp	r3, #0
 3685 2d80 33FFFF0A 		beq	.L780
 3686              	.L841:
 3687 2d84 000000E3 		movw	r0, #:lower16:.LC8
 3688 2d88 000040E3 		movt	r0, #:upper16:.LC8
 3689 2d8c 33FF2FE1 		blx	r3
 3690 2d90 0600A0E1 		mov	r0, r6
 3691 2d94 2FFFFFEA 		b	.L779
 3692              	.L808:
 3693 2d98 0530A0E3 		mov	r3, #5
 3694 2d9c 08308DE5 		str	r3, [sp, #8]
 3695 2da0 18FFFFEA 		b	.L785
 3696              	.L807:
 3697 2da4 0430A0E3 		mov	r3, #4
 3698 2da8 08308DE5 		str	r3, [sp, #8]
 3699 2dac 15FFFFEA 		b	.L785
 3700              	.L806:
 3701 2db0 0330A0E3 		mov	r3, #3
 3702 2db4 08308DE5 		str	r3, [sp, #8]
 3703 2db8 12FFFFEA 		b	.L785
 3704              	.L805:
 3705 2dbc 0230A0E3 		mov	r3, #2
ARM GAS  C:\Users\ldebo\AppData\Local\Temp\ccrazFu5.s 			page 66


 3706 2dc0 08308DE5 		str	r3, [sp, #8]
 3707 2dc4 0FFFFFEA 		b	.L785
 3708              	.L804:
 3709 2dc8 0130A0E3 		mov	r3, #1
 3710 2dcc 08308DE5 		str	r3, [sp, #8]
 3711 2dd0 0CFFFFEA 		b	.L785
 3712              	.L803:
 3713 2dd4 08608DE5 		str	r6, [sp, #8]
 3714 2dd8 1040A0E3 		mov	r4, #16
 3715 2ddc 0620A0E1 		mov	r2, r6
 3716 2de0 0CFFFFEA 		b	.L784
 3717              	.L845:
 3718 2de4 003095E5 		ldr	r3, [r5]
 3719 2de8 000053E3 		cmp	r3, #0
 3720 2dec 18FFFF0A 		beq	.L780
 3721 2df0 000000E3 		movw	r0, #:lower16:.LC8
 3722 2df4 000040E3 		movt	r0, #:upper16:.LC8
 3723 2df8 33FF2FE1 		blx	r3
 3724 2dfc 0700A0E1 		mov	r0, r7
 3725 2e00 14FFFFEA 		b	.L779
 3726              	.L847:
 3727 2e04 003095E5 		ldr	r3, [r5]
 3728 2e08 000053E3 		cmp	r3, #0
 3729 2e0c DCFFFF1A 		bne	.L841
 3730 2e10 0FFFFFEA 		b	.L780
 3731              	.L849:
 3732              		.align	2
 3733              	.L848:
 3734 2e14 50010000 		.word	.LANCHOR1+336
 3735 2e18 C00C0000 		.word	.LANCHOR0+3264
 3736              		.size	sdCreateFile, .-sdCreateFile
 3737              		.align	2
 3738              		.global	sdReadFile
 3739              		.syntax unified
 3740              		.arm
 3741              		.fpu neon
 3742              		.type	sdReadFile, %function
 3743              	sdReadFile:
 3744              		@ args = 4, pretend = 0, frame = 16
 3745              		@ frame_needed = 0, uses_anonymous_args = 0
 3746 2e1c 010040E2 		sub	r0, r0, #1
 3747 2e20 070050E3 		cmp	r0, #7
 3748 2e24 5100008A 		bhi	.L895
 3749 2e28 C7CFA0E3 		mov	ip, #796
 3750 2e2c F04F2DE9 		push	{r4, r5, r6, r7, r8, r9, r10, fp, lr}
 3751 2e30 008000E3 		movw	r8, #:lower16:.LANCHOR0
 3752 2e34 9C0000E0 		mul	r0, ip, r0
 3753 2e38 008040E3 		movt	r8, #:upper16:.LANCHOR0
 3754 2e3c 14D04DE2 		sub	sp, sp, #20
 3755 2e40 005088E0 		add	r5, r8, r0
 3756 2e44 C4CC95E5 		ldr	ip, [r5, #3268]
 3757 2e48 00005CE3 		cmp	ip, #0
 3758 2e4c 4400000A 		beq	.L851
 3759 2e50 08308DE5 		str	r3, [sp, #8]
 3760 2e54 FD6E85E2 		add	r6, r5, #4048
 3761 2e58 00A000E3 		movw	r10, #:lower16:RPi_IO_Base_Addr
 3762 2e5c 0270A0E1 		mov	r7, r2
ARM GAS  C:\Users\ldebo\AppData\Local\Temp\ccrazFu5.s 			page 67


 3763 2e60 00A040E3 		movt	r10, #:upper16:RPi_IO_Base_Addr
 3764 2e64 0190A0E1 		mov	r9, r1
 3765 2e68 0500A0E1 		mov	r0, r5
 3766 2e6c 086086E2 		add	r6, r6, #8
 3767 2e70 0040A0E3 		mov	r4, #0
 3768 2e74 CD3E85E2 		add	r3, r5, #3280
 3769 2e78 04308DE5 		str	r3, [sp, #4]
 3770              	.L852:
 3771 2e7c C02C95E5 		ldr	r2, [r5, #3264]
 3772 2e80 012042E2 		sub	r2, r2, #1
 3773 2e84 CF0272E3 		cmn	r2, #-268435444
 3774 2e88 3500008A 		bhi	.L851
 3775 2e8c 070054E1 		cmp	r4, r7
 3776 2e90 2300002A 		bcs	.L868
 3777 2e94 D40F95E5 		ldr	r0, [r5, #4052]
 3778 2e98 FD1E85E2 		add	r1, r5, #4048
 3779 2e9c 002096E5 		ldr	r2, [r6]
 3780 2ea0 041081E2 		add	r1, r1, #4
 3781 2ea4 020050E1 		cmp	r0, r2
 3782 2ea8 8D00002A 		bcs	.L870
 3783 2eac CC2C95E5 		ldr	r2, [r5, #3276]
 3784 2eb0 330D85E2 		add	r0, r5, #3264
 3785 2eb4 0C0080E2 		add	r0, r0, #12
 3786 2eb8 020C52E3 		cmp	r2, #512
 3787 2ebc 04C08930 		addcc	ip, r9, r4
 3788 2ec0 0600003A 		bcc	.L855
 3789 2ec4 1B0000EA 		b	.L859
 3790              	.L901:
 3791 2ec8 00E096E5 		ldr	lr, [r6]
 3792 2ecc 02005EE1 		cmp	lr, r2
 3793 2ed0 8300009A 		bls	.L870
 3794 2ed4 002090E5 		ldr	r2, [r0]
 3795 2ed8 020C52E3 		cmp	r2, #512
 3796 2edc 1500002A 		bcs	.L859
 3797              	.L855:
 3798 2ee0 02E085E0 		add	lr, r5, r2
 3799 2ee4 012082E2 		add	r2, r2, #1
 3800 2ee8 002080E5 		str	r2, [r0]
 3801 2eec 014084E2 		add	r4, r4, #1
 3802 2ef0 D02CDEE5 		ldrb	r2, [lr, #3280]	@ zero_extendqisi2
 3803 2ef4 040057E1 		cmp	r7, r4
 3804 2ef8 0120CCE4 		strb	r2, [ip], #1
 3805 2efc 002091E5 		ldr	r2, [r1]
 3806 2f00 012082E2 		add	r2, r2, #1
 3807 2f04 002081E5 		str	r2, [r1]
 3808 2f08 EEFFFF1A 		bne	.L901
 3809              	.L853:
 3810 2f0c 08309DE5 		ldr	r3, [sp, #8]
 3811 2f10 000053E3 		cmp	r3, #0
 3812 2f14 0100A003 		moveq	r0, #1
 3813 2f18 00708315 		strne	r7, [r3]
 3814 2f1c 0100A013 		movne	r0, #1
 3815 2f20 100000EA 		b	.L858
 3816              	.L868:
 3817 2f24 F8FFFF0A 		beq	.L853
 3818 2f28 D41F95E5 		ldr	r1, [r5, #4052]
 3819 2f2c 002096E5 		ldr	r2, [r6]
ARM GAS  C:\Users\ldebo\AppData\Local\Temp\ccrazFu5.s 			page 68


 3820 2f30 020051E1 		cmp	r1, r2
 3821 2f34 6A00002A 		bcs	.L870
 3822              	.L859:
 3823 2f38 C82C95E5 		ldr	r2, [r5, #3272]
 3824 2f3c 581098E5 		ldr	r1, [r8, #88]
 3825 2f40 01B082E2 		add	fp, r2, #1
 3826 2f44 01005BE1 		cmp	fp, r1
 3827 2f48 C8BC85E5 		str	fp, [r5, #3272]
 3828 2f4c 3000002A 		bcs	.L860
 3829 2f50 4010D8E5 		ldrb	r1, [r8, #64]	@ zero_extendqisi2
 3830 2f54 0000A0E3 		mov	r0, #0
 3831 2f58 CC0C85E5 		str	r0, [r5, #3276]
 3832 2f5c 000051E1 		cmp	r1, r0
 3833 2f60 0400001A 		bne	.L902
 3834              	.L851:
 3835 2f64 0000A0E3 		mov	r0, #0
 3836              	.L858:
 3837 2f68 14D08DE2 		add	sp, sp, #20
 3838              		@ sp needed
 3839 2f6c F08FBDE8 		pop	{r4, r5, r6, r7, r8, r9, r10, fp, pc}
 3840              	.L895:
 3841 2f70 0000A0E3 		mov	r0, #0
 3842 2f74 1EFF2FE1 		bx	lr
 3843              	.L902:
 3844 2f78 C43C95E5 		ldr	r3, [r5, #3268]
 3845 2f7c 0C308DE5 		str	r3, [sp, #12]
 3846 2f80 1EF4FFEB 		bl	sdWaitForData
 3847 2f84 000050E3 		cmp	r0, #0
 3848 2f88 F5FFFF1A 		bne	.L851
 3849 2f8c 00209AE5 		ldr	r2, [r10]
 3850 2f90 02CCA0E3 		mov	ip, #512
 3851 2f94 0C309DE5 		ldr	r3, [sp, #12]
 3852 2f98 4000D8E5 		ldrb	r0, [r8, #64]	@ zero_extendqisi2
 3853 2f9c 032682E2 		add	r2, r2, #3145728
 3854 2fa0 03108BE0 		add	r1, fp, r3
 3855 2fa4 04E092E5 		ldr	lr, [r2, #4]
 3856 2fa8 030050E3 		cmp	r0, #3
 3857 2fac 8114A001 		lsleq	r1, r1, #9
 3858 2fb0 01E040E3 		movt	lr, 1
 3859 2fb4 04E082E5 		str	lr, [r2, #4]
 3860 2fb8 04E092E5 		ldr	lr, [r2, #4]
 3861 2fbc 58019FE5 		ldr	r0, .L903
 3862 2fc0 1CE0C9E7 		bfi	lr, ip, #0, #10
 3863 2fc4 04E082E5 		str	lr, [r2, #4]
 3864 2fc8 EDF5FFEB 		bl	sdSendCommandP
 3865 2fcc 70B0EFE6 		uxtb	fp, r0
 3866 2fd0 00005BE3 		cmp	fp, #0
 3867 2fd4 E2FFFF1A 		bne	.L851
 3868 2fd8 2000A0E3 		mov	r0, #32
 3869 2fdc 47F4FFEB 		bl	sdWaitForInterrupt
 3870 2fe0 000050E3 		cmp	r0, #0
 3871 2fe4 4400001A 		bne	.L900
 3872 2fe8 00009AE5 		ldr	r0, [r10]
 3873 2fec 04309DE5 		ldr	r3, [sp, #4]
 3874 2ff0 030680E2 		add	r0, r0, #3145728
 3875 2ff4 042043E2 		sub	r2, r3, #4
 3876 2ff8 7FCF83E2 		add	ip, r3, #508
ARM GAS  C:\Users\ldebo\AppData\Local\Temp\ccrazFu5.s 			page 69


 3877 2ffc 200080E2 		add	r0, r0, #32
 3878              	.L863:
 3879 3000 001090E5 		ldr	r1, [r0]
 3880 3004 0410A2E5 		str	r1, [r2, #4]!
 3881 3008 0C0052E1 		cmp	r2, ip
 3882 300c FBFFFF1A 		bne	.L863
 3883 3010 99FFFFEA 		b	.L852
 3884              	.L860:
 3885 3014 C00C95E5 		ldr	r0, [r5, #3264]
 3886 3018 0020A0E3 		mov	r2, #0
 3887 301c 0210A0E1 		mov	r1, r2
 3888 3020 FEFFFFEB 		bl	getSetNextCluster
 3889 3024 4020D8E5 		ldrb	r2, [r8, #64]	@ zero_extendqisi2
 3890 3028 02B040E2 		sub	fp, r0, #2
 3891 302c 58C098E5 		ldr	ip, [r8, #88]
 3892 3030 601098E5 		ldr	r1, [r8, #96]
 3893 3034 000052E3 		cmp	r2, #0
 3894 3038 C00C85E5 		str	r0, [r5, #3264]
 3895 303c 0020A0E3 		mov	r2, #0
 3896 3040 9C1B2BE0 		mla	fp, ip, fp, r1
 3897 3044 C82C85E5 		str	r2, [r5, #3272]
 3898 3048 C4BC85E5 		str	fp, [r5, #3268]
 3899 304c CC2C85E5 		str	r2, [r5, #3276]
 3900 3050 C3FFFF0A 		beq	.L851
 3901 3054 E9F3FFEB 		bl	sdWaitForData
 3902 3058 000050E3 		cmp	r0, #0
 3903 305c C0FFFF1A 		bne	.L851
 3904 3060 4020D8E5 		ldrb	r2, [r8, #64]	@ zero_extendqisi2
 3905 3064 02CCA0E3 		mov	ip, #512
 3906 3068 AC009FE5 		ldr	r0, .L903
 3907 306c 030052E3 		cmp	r2, #3
 3908 3070 00209AE5 		ldr	r2, [r10]
 3909 3074 8BB4A001 		lsleq	fp, fp, #9
 3910 3078 032682E2 		add	r2, r2, #3145728
 3911 307c 0B10A0E1 		mov	r1, fp
 3912 3080 04E092E5 		ldr	lr, [r2, #4]
 3913 3084 01E040E3 		movt	lr, 1
 3914 3088 04E082E5 		str	lr, [r2, #4]
 3915 308c 04E092E5 		ldr	lr, [r2, #4]
 3916 3090 1CE0C9E7 		bfi	lr, ip, #0, #10
 3917 3094 04E082E5 		str	lr, [r2, #4]
 3918 3098 B9F5FFEB 		bl	sdSendCommandP
 3919 309c 70B0EFE6 		uxtb	fp, r0
 3920 30a0 00005BE3 		cmp	fp, #0
 3921 30a4 AEFFFF1A 		bne	.L851
 3922 30a8 2000A0E3 		mov	r0, #32
 3923 30ac 13F4FFEB 		bl	sdWaitForInterrupt
 3924 30b0 000050E3 		cmp	r0, #0
 3925 30b4 1000001A 		bne	.L900
 3926 30b8 00009AE5 		ldr	r0, [r10]
 3927 30bc 04309DE5 		ldr	r3, [sp, #4]
 3928 30c0 030680E2 		add	r0, r0, #3145728
 3929 30c4 042043E2 		sub	r2, r3, #4
 3930 30c8 7FCF83E2 		add	ip, r3, #508
 3931 30cc 200080E2 		add	r0, r0, #32
 3932              	.L866:
 3933 30d0 001090E5 		ldr	r1, [r0]
ARM GAS  C:\Users\ldebo\AppData\Local\Temp\ccrazFu5.s 			page 70


 3934 30d4 0410A2E5 		str	r1, [r2, #4]!
 3935 30d8 02005CE1 		cmp	ip, r2
 3936 30dc FBFFFF1A 		bne	.L866
 3937 30e0 65FFFFEA 		b	.L852
 3938              	.L870:
 3939 30e4 08309DE5 		ldr	r3, [sp, #8]
 3940 30e8 000053E3 		cmp	r3, #0
 3941 30ec 9CFFFF0A 		beq	.L851
 3942 30f0 004083E5 		str	r4, [r3]
 3943 30f4 0000A0E3 		mov	r0, #0
 3944 30f8 9AFFFFEA 		b	.L858
 3945              	.L900:
 3946 30fc 003098E5 		ldr	r3, [r8]
 3947 3100 000053E3 		cmp	r3, #0
 3948 3104 96FFFF0A 		beq	.L851
 3949 3108 000000E3 		movw	r0, #:lower16:.LC8
 3950 310c 000040E3 		movt	r0, #:upper16:.LC8
 3951 3110 33FF2FE1 		blx	r3
 3952 3114 0B00A0E1 		mov	r0, fp
 3953 3118 92FFFFEA 		b	.L858
 3954              	.L904:
 3955              		.align	2
 3956              	.L903:
 3957 311c 50010000 		.word	.LANCHOR1+336
 3958              		.size	sdReadFile, .-sdReadFile
 3959              		.align	2
 3960              		.global	sdCloseHandle
 3961              		.syntax unified
 3962              		.arm
 3963              		.fpu neon
 3964              		.type	sdCloseHandle, %function
 3965              	sdCloseHandle:
 3966              		@ args = 0, pretend = 0, frame = 0
 3967              		@ frame_needed = 0, uses_anonymous_args = 0
 3968              		@ link register save eliminated.
 3969 3120 010040E2 		sub	r0, r0, #1
 3970 3124 070050E3 		cmp	r0, #7
 3971 3128 0900008A 		bhi	.L907
 3972 312c 003000E3 		movw	r3, #:lower16:.LANCHOR0
 3973 3130 C72FA0E3 		mov	r2, #796
 3974 3134 003040E3 		movt	r3, #:upper16:.LANCHOR0
 3975 3138 923023E0 		mla	r3, r2, r0, r3
 3976 313c C40C93E5 		ldr	r0, [r3, #3268]
 3977 3140 000050E3 		cmp	r0, #0
 3978 3144 0020A013 		movne	r2, #0
 3979 3148 0100A013 		movne	r0, #1
 3980 314c C42C8315 		strne	r2, [r3, #3268]
 3981 3150 1EFF2FE1 		bx	lr
 3982              	.L907:
 3983 3154 0000A0E3 		mov	r0, #0
 3984 3158 1EFF2FE1 		bx	lr
 3985              		.size	sdCloseHandle, .-sdCloseHandle
 3986              		.align	2
 3987              		.global	sdSetFilePointer
 3988              		.syntax unified
 3989              		.arm
 3990              		.fpu neon
ARM GAS  C:\Users\ldebo\AppData\Local\Temp\ccrazFu5.s 			page 71


 3991              		.type	sdSetFilePointer, %function
 3992              	sdSetFilePointer:
 3993              		@ args = 0, pretend = 0, frame = 8
 3994              		@ frame_needed = 0, uses_anonymous_args = 0
 3995 315c F04F2DE9 		push	{r4, r5, r6, r7, r8, r9, r10, fp, lr}
 3996 3160 014040E2 		sub	r4, r0, #1
 3997 3164 070054E3 		cmp	r4, #7
 3998 3168 0CD04DE2 		sub	sp, sp, #12
 3999 316c 0200009A 		bls	.L958
 4000              	.L955:
 4001 3170 0000E0E3 		mvn	r0, #0
 4002              	.L909:
 4003 3174 0CD08DE2 		add	sp, sp, #12
 4004              		@ sp needed
 4005 3178 F08FBDE8 		pop	{r4, r5, r6, r7, r8, r9, r10, fp, pc}
 4006              	.L958:
 4007 317c 005000E3 		movw	r5, #:lower16:.LANCHOR0
 4008 3180 0270A0E1 		mov	r7, r2
 4009 3184 005040E3 		movt	r5, #:upper16:.LANCHOR0
 4010 3188 C72FA0E3 		mov	r2, #796
 4011 318c 925422E0 		mla	r2, r2, r4, r5
 4012 3190 0160A0E1 		mov	r6, r1
 4013 3194 C41C92E5 		ldr	r1, [r2, #3268]
 4014 3198 000051E3 		cmp	r1, #0
 4015 319c F3FFFF0A 		beq	.L955
 4016 31a0 010053E3 		cmp	r3, #1
 4017 31a4 A000000A 		beq	.L914
 4018 31a8 020053E3 		cmp	r3, #2
 4019 31ac D83F92E5 		ldr	r3, [r2, #4056]
 4020 31b0 03608600 		addeq	r6, r6, r3
 4021              	.L916:
 4022 31b4 030056E1 		cmp	r6, r3
 4023 31b8 ECFFFF8A 		bhi	.L955
 4024 31bc C79FA0E3 		mov	r9, #796
 4025 31c0 990409E0 		mul	r9, r9, r4
 4026 31c4 098085E0 		add	r8, r5, r9
 4027 31c8 D40F98E5 		ldr	r0, [r8, #4052]
 4028 31cc 000056E1 		cmp	r6, r0
 4029 31d0 E7FFFF0A 		beq	.L909
 4030 31d4 D02F98E5 		ldr	r2, [r8, #4048]
 4031 31d8 0030A0E3 		mov	r3, #0
 4032 31dc 580095E5 		ldr	r0, [r5, #88]
 4033 31e0 601095E5 		ldr	r1, [r5, #96]
 4034 31e4 02A042E2 		sub	r10, r2, #2
 4035 31e8 C02C88E5 		str	r2, [r8, #3264]
 4036 31ec 4020D5E5 		ldrb	r2, [r5, #64]	@ zero_extendqisi2
 4037 31f0 901A2AE0 		mla	r10, r0, r10, r1
 4038 31f4 030052E1 		cmp	r2, r3
 4039 31f8 C4AC88E5 		str	r10, [r8, #3268]
 4040 31fc C83C88E5 		str	r3, [r8, #3272]
 4041 3200 CC3C88E5 		str	r3, [r8, #3276]
 4042 3204 D43F88E5 		str	r3, [r8, #4052]
 4043 3208 D8FFFF0A 		beq	.L955
 4044 320c 7BF3FFEB 		bl	sdWaitForData
 4045 3210 003050E2 		subs	r3, r0, #0
 4046 3214 D5FFFF1A 		bne	.L955
 4047 3218 38229FE5 		ldr	r2, .L959
ARM GAS  C:\Users\ldebo\AppData\Local\Temp\ccrazFu5.s 			page 72


 4048 321c 0A00A0E1 		mov	r0, r10
 4049 3220 0110A0E3 		mov	r1, #1
 4050 3224 029089E0 		add	r9, r9, r2
 4051 3228 0920A0E1 		mov	r2, r9
 4052 322c 7FF7FFEB 		bl	sdTransferBlocks.part.5
 4053 3230 000050E3 		cmp	r0, #0
 4054 3234 CDFFFF1A 		bne	.L955
 4055 3238 020C56E3 		cmp	r6, #512
 4056 323c D43F9895 		ldrls	r3, [r8, #4052]
 4057 3240 3800009A 		bls	.L918
 4058 3244 33AD88E2 		add	r10, r8, #3264
 4059 3248 08A08AE2 		add	r10, r10, #8
 4060              	.L923:
 4061 324c 00309AE5 		ldr	r3, [r10]
 4062 3250 582095E5 		ldr	r2, [r5, #88]
 4063 3254 01B083E2 		add	fp, r3, #1
 4064 3258 02005BE1 		cmp	fp, r2
 4065 325c 00B08AE5 		str	fp, [r10]
 4066 3260 3C00002A 		bcs	.L919
 4067 3264 4020D5E5 		ldrb	r2, [r5, #64]	@ zero_extendqisi2
 4068 3268 0010A0E3 		mov	r1, #0
 4069 326c CC1C88E5 		str	r1, [r8, #3276]
 4070 3270 010052E1 		cmp	r2, r1
 4071 3274 BDFFFF0A 		beq	.L955
 4072 3278 C43C98E5 		ldr	r3, [r8, #3268]
 4073 327c 04308DE5 		str	r3, [sp, #4]
 4074 3280 5EF3FFEB 		bl	sdWaitForData
 4075 3284 000050E3 		cmp	r0, #0
 4076 3288 B8FFFF1A 		bne	.L955
 4077 328c 04309DE5 		ldr	r3, [sp, #4]
 4078 3290 4020D5E5 		ldrb	r2, [r5, #64]	@ zero_extendqisi2
 4079 3294 03108BE0 		add	r1, fp, r3
 4080 3298 00B000E3 		movw	fp, #:lower16:RPi_IO_Base_Addr
 4081 329c 00B040E3 		movt	fp, #:upper16:RPi_IO_Base_Addr
 4082 32a0 030052E3 		cmp	r2, #3
 4083 32a4 B0019FE5 		ldr	r0, .L959+4
 4084 32a8 022CA0E3 		mov	r2, #512
 4085 32ac 00309BE5 		ldr	r3, [fp]
 4086 32b0 8114A001 		lsleq	r1, r1, #9
 4087 32b4 033683E2 		add	r3, r3, #3145728
 4088 32b8 04C093E5 		ldr	ip, [r3, #4]
 4089 32bc 01C040E3 		movt	ip, 1
 4090 32c0 04C083E5 		str	ip, [r3, #4]
 4091 32c4 04C093E5 		ldr	ip, [r3, #4]
 4092 32c8 12C0C9E7 		bfi	ip, r2, #0, #10
 4093 32cc 04C083E5 		str	ip, [r3, #4]
 4094 32d0 2BF5FFEB 		bl	sdSendCommandP
 4095 32d4 FF0010E3 		tst	r0, #255
 4096 32d8 A4FFFF1A 		bne	.L955
 4097 32dc 2000A0E3 		mov	r0, #32
 4098 32e0 86F3FFEB 		bl	sdWaitForInterrupt
 4099 32e4 000050E3 		cmp	r0, #0
 4100 32e8 5300001A 		bne	.L957
 4101 32ec 00109BE5 		ldr	r1, [fp]
 4102 32f0 043049E2 		sub	r3, r9, #4
 4103 32f4 7F0F89E2 		add	r0, r9, #508
 4104 32f8 031681E2 		add	r1, r1, #3145728
ARM GAS  C:\Users\ldebo\AppData\Local\Temp\ccrazFu5.s 			page 73


 4105 32fc 201081E2 		add	r1, r1, #32
 4106              	.L922:
 4107 3300 002091E5 		ldr	r2, [r1]
 4108 3304 0420A3E5 		str	r2, [r3, #4]!
 4109 3308 000053E1 		cmp	r3, r0
 4110 330c FBFFFF1A 		bne	.L922
 4111              	.L927:
 4112 3310 D43F98E5 		ldr	r3, [r8, #4052]
 4113 3314 026C46E2 		sub	r6, r6, #512
 4114 3318 020C56E3 		cmp	r6, #512
 4115 331c 023C83E2 		add	r3, r3, #512
 4116 3320 D43F88E5 		str	r3, [r8, #4052]
 4117 3324 C8FFFF8A 		bhi	.L923
 4118              	.L918:
 4119 3328 063083E0 		add	r3, r3, r6
 4120 332c C72FA0E3 		mov	r2, #796
 4121 3330 925422E0 		mla	r2, r2, r4, r5
 4122 3334 000057E3 		cmp	r7, #0
 4123 3338 D43F82E5 		str	r3, [r2, #4052]
 4124 333c 0030A013 		movne	r3, #0
 4125 3340 CC6C82E5 		str	r6, [r2, #3276]
 4126 3344 00308715 		strne	r3, [r7]
 4127 3348 C73FA0E3 		mov	r3, #796
 4128 334c 935424E0 		mla	r4, r3, r4, r5
 4129 3350 D40F94E5 		ldr	r0, [r4, #4052]
 4130 3354 86FFFFEA 		b	.L909
 4131              	.L919:
 4132 3358 C00C98E5 		ldr	r0, [r8, #3264]
 4133 335c 0020A0E3 		mov	r2, #0
 4134 3360 0210A0E1 		mov	r1, r2
 4135 3364 FEFFFFEB 		bl	getSetNextCluster
 4136 3368 4030D5E5 		ldrb	r3, [r5, #64]	@ zero_extendqisi2
 4137 336c 021040E2 		sub	r1, r0, #2
 4138 3370 58C095E5 		ldr	ip, [r5, #88]
 4139 3374 602095E5 		ldr	r2, [r5, #96]
 4140 3378 000053E3 		cmp	r3, #0
 4141 337c C00C88E5 		str	r0, [r8, #3264]
 4142 3380 0030A0E3 		mov	r3, #0
 4143 3384 9C2121E0 		mla	r1, ip, r1, r2
 4144 3388 00308AE5 		str	r3, [r10]
 4145 338c C41C88E5 		str	r1, [r8, #3268]
 4146 3390 CC3C88E5 		str	r3, [r8, #3276]
 4147 3394 75FFFF0A 		beq	.L955
 4148 3398 04108DE5 		str	r1, [sp, #4]
 4149 339c 17F3FFEB 		bl	sdWaitForData
 4150 33a0 04109DE5 		ldr	r1, [sp, #4]
 4151 33a4 000050E3 		cmp	r0, #0
 4152 33a8 70FFFF1A 		bne	.L955
 4153 33ac 4030D5E5 		ldrb	r3, [r5, #64]	@ zero_extendqisi2
 4154 33b0 00B000E3 		movw	fp, #:lower16:RPi_IO_Base_Addr
 4155 33b4 00B040E3 		movt	fp, #:upper16:RPi_IO_Base_Addr
 4156 33b8 022CA0E3 		mov	r2, #512
 4157 33bc 98009FE5 		ldr	r0, .L959+4
 4158 33c0 030053E3 		cmp	r3, #3
 4159 33c4 00309BE5 		ldr	r3, [fp]
 4160 33c8 8114A001 		lsleq	r1, r1, #9
 4161 33cc 033683E2 		add	r3, r3, #3145728
ARM GAS  C:\Users\ldebo\AppData\Local\Temp\ccrazFu5.s 			page 74


 4162 33d0 04C093E5 		ldr	ip, [r3, #4]
 4163 33d4 01C040E3 		movt	ip, 1
 4164 33d8 04C083E5 		str	ip, [r3, #4]
 4165 33dc 04C093E5 		ldr	ip, [r3, #4]
 4166 33e0 12C0C9E7 		bfi	ip, r2, #0, #10
 4167 33e4 04C083E5 		str	ip, [r3, #4]
 4168 33e8 E5F4FFEB 		bl	sdSendCommandP
 4169 33ec FF0010E3 		tst	r0, #255
 4170 33f0 5EFFFF1A 		bne	.L955
 4171 33f4 2000A0E3 		mov	r0, #32
 4172 33f8 40F3FFEB 		bl	sdWaitForInterrupt
 4173 33fc 000050E3 		cmp	r0, #0
 4174 3400 0D00001A 		bne	.L957
 4175 3404 00109BE5 		ldr	r1, [fp]
 4176 3408 043049E2 		sub	r3, r9, #4
 4177 340c 7F0F89E2 		add	r0, r9, #508
 4178 3410 031681E2 		add	r1, r1, #3145728
 4179 3414 201081E2 		add	r1, r1, #32
 4180              	.L926:
 4181 3418 002091E5 		ldr	r2, [r1]
 4182 341c 0420A3E5 		str	r2, [r3, #4]!
 4183 3420 000053E1 		cmp	r3, r0
 4184 3424 FBFFFF1A 		bne	.L926
 4185 3428 B8FFFFEA 		b	.L927
 4186              	.L914:
 4187 342c D41F92E5 		ldr	r1, [r2, #4052]
 4188 3430 D83F92E5 		ldr	r3, [r2, #4056]
 4189 3434 016086E0 		add	r6, r6, r1
 4190 3438 5DFFFFEA 		b	.L916
 4191              	.L957:
 4192 343c 003095E5 		ldr	r3, [r5]
 4193 3440 000053E3 		cmp	r3, #0
 4194 3444 49FFFF0A 		beq	.L955
 4195 3448 000000E3 		movw	r0, #:lower16:.LC8
 4196 344c 000040E3 		movt	r0, #:upper16:.LC8
 4197 3450 33FF2FE1 		blx	r3
 4198 3454 45FFFFEA 		b	.L955
 4199              	.L960:
 4200              		.align	2
 4201              	.L959:
 4202 3458 D00C0000 		.word	.LANCHOR0+3280
 4203 345c 50010000 		.word	.LANCHOR1+336
 4204              		.size	sdSetFilePointer, .-sdSetFilePointer
 4205              		.align	2
 4206              		.global	sdGetFileSize
 4207              		.syntax unified
 4208              		.arm
 4209              		.fpu neon
 4210              		.type	sdGetFileSize, %function
 4211              	sdGetFileSize:
 4212              		@ args = 0, pretend = 0, frame = 0
 4213              		@ frame_needed = 0, uses_anonymous_args = 0
 4214              		@ link register save eliminated.
 4215 3460 010040E2 		sub	r0, r0, #1
 4216 3464 070050E3 		cmp	r0, #7
 4217 3468 0700008A 		bhi	.L963
 4218 346c 003000E3 		movw	r3, #:lower16:.LANCHOR0
ARM GAS  C:\Users\ldebo\AppData\Local\Temp\ccrazFu5.s 			page 75


 4219 3470 C72FA0E3 		mov	r2, #796
 4220 3474 003040E3 		movt	r3, #:upper16:.LANCHOR0
 4221 3478 923023E0 		mla	r3, r2, r0, r3
 4222 347c C40C93E5 		ldr	r0, [r3, #3268]
 4223 3480 000050E3 		cmp	r0, #0
 4224 3484 D80F9315 		ldrne	r0, [r3, #4056]
 4225 3488 1EFF2FE1 		bx	lr
 4226              	.L963:
 4227 348c 0000A0E3 		mov	r0, #0
 4228 3490 1EFF2FE1 		bx	lr
 4229              		.size	sdGetFileSize, .-sdGetFileSize
 4230              		.align	2
 4231              		.global	sdInitCard
 4232              		.syntax unified
 4233              		.arm
 4234              		.fpu neon
 4235              		.type	sdInitCard, %function
 4236              	sdInitCard:
 4237              		@ args = 0, pretend = 0, frame = 0
 4238              		@ frame_needed = 0, uses_anonymous_args = 0
 4239 3494 F0472DE9 		push	{r4, r5, r6, r7, r8, r9, r10, lr}
 4240 3498 004000E3 		movw	r4, #:lower16:.LANCHOR0
 4241 349c 004040E3 		movt	r4, #:upper16:.LANCHOR0
 4242 34a0 38D04DE2 		sub	sp, sp, #56
 4243 34a4 0060A0E1 		mov	r6, r0
 4244 34a8 0270A0E1 		mov	r7, r2
 4245 34ac 001084E5 		str	r1, [r4]
 4246 34b0 77F6FFEB 		bl	sdResetCard
 4247 34b4 005050E2 		subs	r5, r0, #0
 4248 34b8 0200000A 		beq	.L1034
 4249              	.L1005:
 4250 34bc 0500A0E1 		mov	r0, r5
 4251 34c0 38D08DE2 		add	sp, sp, #56
 4252              		@ sp needed
 4253 34c4 F087BDE8 		pop	{r4, r5, r6, r7, r8, r9, r10, pc}
 4254              	.L1034:
 4255 34c8 DC039FE5 		ldr	r0, .L1039
 4256 34cc AA1100E3 		movw	r1, #426
 4257 34d0 ABF4FFEB 		bl	sdSendCommandP
 4258 34d4 7050EFE6 		uxtb	r5, r0
 4259 34d8 000055E3 		cmp	r5, #0
 4260 34dc 3F00000A 		beq	.L1035
 4261 34e0 030055E3 		cmp	r5, #3
 4262 34e4 F4FFFF0A 		beq	.L1005
 4263 34e8 003000E3 		movw	r3, #:lower16:RPi_IO_Base_Addr
 4264 34ec 003040E3 		movt	r3, #:upper16:RPi_IO_Base_Addr
 4265 34f0 003093E5 		ldr	r3, [r3]
 4266 34f4 033683E2 		add	r3, r3, #3145728
 4267 34f8 243093E5 		ldr	r3, [r3, #36]
 4268 34fc 010013E3 		tst	r3, #1
 4269 3500 3200001A 		bne	.L972
 4270              	.L974:
 4271 3504 0209A0E3 		mov	r0, #32768
 4272 3508 FF0040E3 		movt	r0, 255
 4273 350c CBF5FFEB 		bl	sdAppSendOpCond
 4274 3510 005050E2 		subs	r5, r0, #0
 4275 3514 0230A003 		moveq	r3, #2
ARM GAS  C:\Users\ldebo\AppData\Local\Temp\ccrazFu5.s 			page 76


 4276 3518 4030C405 		strbeq	r3, [r4, #64]
 4277 351c E6FFFF1A 		bne	.L1005
 4278              	.L971:
 4279 3520 88039FE5 		ldr	r0, .L1039+4
 4280 3524 008000E3 		movw	r8, #:lower16:.LANCHOR1
 4281 3528 008040E3 		movt	r8, #:upper16:.LANCHOR1
 4282 352c 2C10D8E5 		ldrb	r1, [r8, #44]	@ zero_extendqisi2
 4283 3530 011011E2 		ands	r1, r1, #1
 4284 3534 44109415 		ldrne	r1, [r4, #68]
 4285 3538 91F4FFEB 		bl	sdSendCommandP
 4286 353c 7050EFE6 		uxtb	r5, r0
 4287 3540 000055E3 		cmp	r5, #0
 4288 3544 DCFFFF1A 		bne	.L1005
 4289 3548 4410D8E5 		ldrb	r1, [r8, #68]	@ zero_extendqisi2
 4290 354c 60039FE5 		ldr	r0, .L1039+8
 4291 3550 011011E2 		ands	r1, r1, #1
 4292 3554 44109415 		ldrne	r1, [r4, #68]
 4293 3558 89F4FFEB 		bl	sdSendCommandP
 4294 355c 7050EFE6 		uxtb	r5, r0
 4295 3560 000055E3 		cmp	r5, #0
 4296 3564 D4FFFF1A 		bne	.L1005
 4297 3568 BC30D8E5 		ldrb	r3, [r8, #188]	@ zero_extendqisi2
 4298 356c 44039FE5 		ldr	r0, .L1039+12
 4299 3570 011013E2 		ands	r1, r3, #1
 4300 3574 44109415 		ldrne	r1, [r4, #68]
 4301 3578 81F4FFEB 		bl	sdSendCommandP
 4302 357c 7050EFE6 		uxtb	r5, r0
 4303 3580 000055E3 		cmp	r5, #0
 4304 3584 CCFFFF1A 		bne	.L1005
 4305 3588 400807E3 		movw	r0, #30784
 4306 358c 7D0140E3 		movt	r0, 381
 4307 3590 38F3FFEB 		bl	sdSetClock
 4308 3594 005050E2 		subs	r5, r0, #0
 4309 3598 C7FFFF1A 		bne	.L1005
 4310 359c 8C30D8E5 		ldrb	r3, [r8, #140]	@ zero_extendqisi2
 4311 35a0 14039FE5 		ldr	r0, .L1039+16
 4312 35a4 011013E2 		ands	r1, r3, #1
 4313 35a8 44109415 		ldrne	r1, [r4, #68]
 4314 35ac 74F4FFEB 		bl	sdSendCommandP
 4315 35b0 7050EFE6 		uxtb	r5, r0
 4316 35b4 000055E3 		cmp	r5, #0
 4317 35b8 BFFFFF1A 		bne	.L1005
 4318 35bc 8FF2FFEB 		bl	sdWaitForData
 4319 35c0 000050E3 		cmp	r0, #0
 4320 35c4 1000000A 		beq	.L979
 4321              	.L990:
 4322 35c8 0250A0E3 		mov	r5, #2
 4323 35cc BAFFFFEA 		b	.L1005
 4324              	.L972:
 4325 35d0 2FF6FFEB 		bl	sdResetCard
 4326 35d4 005050E2 		subs	r5, r0, #0
 4327 35d8 C9FFFF0A 		beq	.L974
 4328 35dc B6FFFFEA 		b	.L1005
 4329              	.L1035:
 4330 35e0 0209A0E3 		mov	r0, #32768
 4331 35e4 FF0045E3 		movt	r0, 20735
 4332 35e8 94F5FFEB 		bl	sdAppSendOpCond
ARM GAS  C:\Users\ldebo\AppData\Local\Temp\ccrazFu5.s 			page 77


 4333 35ec 005050E2 		subs	r5, r0, #0
 4334 35f0 B1FFFF1A 		bne	.L1005
 4335 35f4 4B30D4E5 		ldrb	r3, [r4, #75]	@ zero_extendqisi2
 4336 35f8 400013E3 		tst	r3, #64
 4337 35fc 0430A013 		movne	r3, #4
 4338 3600 0330A003 		moveq	r3, #3
 4339 3604 4030C4E5 		strb	r3, [r4, #64]
 4340 3608 C4FFFFEA 		b	.L971
 4341              	.L979:
 4342 360c 008000E3 		movw	r8, #:lower16:RPi_IO_Base_Addr
 4343 3610 0810A0E3 		mov	r1, #8
 4344 3614 008040E3 		movt	r8, #:upper16:RPi_IO_Base_Addr
 4345 3618 2600A0E3 		mov	r0, #38
 4346 361c 003098E5 		ldr	r3, [r8]
 4347 3620 033683E2 		add	r3, r3, #3145728
 4348 3624 042093E5 		ldr	r2, [r3, #4]
 4349 3628 012040E3 		movt	r2, 1
 4350 362c 042083E5 		str	r2, [r3, #4]
 4351 3630 042093E5 		ldr	r2, [r3, #4]
 4352 3634 1120C9E7 		bfi	r2, r1, #0, #10
 4353 3638 042083E5 		str	r2, [r3, #4]
 4354 363c E4F5FFEB 		bl	sdSendCommand
 4355 3640 005050E2 		subs	r5, r0, #0
 4356 3644 9CFFFF1A 		bne	.L1005
 4357 3648 2000A0E3 		mov	r0, #32
 4358 364c ABF2FFEB 		bl	sdWaitForInterrupt
 4359 3650 005050E2 		subs	r5, r0, #0
 4360 3654 6800001A 		bne	.L980
 4361 3658 A0A608E3 		movw	r10, #34464
 4362 365c 0590A0E1 		mov	r9, r5
 4363 3660 01A040E3 		movt	r10, 1
 4364              	.L981:
 4365 3664 003098E5 		ldr	r3, [r8]
 4366 3668 033683E2 		add	r3, r3, #3145728
 4367 366c 242093E5 		ldr	r2, [r3, #36]
 4368 3670 020C12E3 		tst	r2, #512
 4369 3674 4900000A 		beq	.L982
 4370 3678 203093E5 		ldr	r3, [r3, #32]
 4371 367c 000059E3 		cmp	r9, #0
 4372 3680 019089E2 		add	r9, r9, #1
 4373 3684 2C308405 		streq	r3, [r4, #44]
 4374 3688 30308415 		strne	r3, [r4, #48]
 4375 368c 010059E3 		cmp	r9, #1
 4376 3690 F3FFFFDA 		ble	.L981
 4377 3694 020059E3 		cmp	r9, #2
 4378 3698 4500001A 		bne	.L987
 4379 369c 2D30D4E5 		ldrb	r3, [r4, #45]	@ zero_extendqisi2
 4380 36a0 0F3003E2 		and	r3, r3, #15
 4381 36a4 040053E3 		cmp	r3, #4
 4382 36a8 5A00000A 		beq	.L1036
 4383              	.L996:
 4384 36ac 0C029FE5 		ldr	r0, .L1039+20
 4385 36b0 021CA0E3 		mov	r1, #512
 4386 36b4 32F4FFEB 		bl	sdSendCommandP
 4387 36b8 7050EFE6 		uxtb	r5, r0
 4388 36bc 000055E3 		cmp	r5, #0
 4389 36c0 7DFFFF1A 		bne	.L1005
ARM GAS  C:\Users\ldebo\AppData\Local\Temp\ccrazFu5.s 			page 78


 4390 36c4 103094E5 		ldr	r3, [r4, #16]
 4391 36c8 000056E3 		cmp	r6, #0
 4392 36cc 142094E5 		ldr	r2, [r4, #20]
 4393 36d0 2228A0E1 		lsr	r2, r2, #16
 4394 36d4 032882E1 		orr	r2, r2, r3, lsl #16
 4395 36d8 2900000A 		beq	.L994
 4396 36dc 0A30D4E5 		ldrb	r3, [r4, #10]	@ zero_extendqisi2
 4397 36e0 001000E3 		movw	r1, #:lower16:.LANCHOR2
 4398 36e4 09C0D4E5 		ldrb	ip, [r4, #9]	@ zero_extendqisi2
 4399 36e8 000000E3 		movw	r0, #:lower16:.LC16
 4400 36ec 08E0D4E5 		ldrb	lr, [r4, #8]	@ zero_extendqisi2
 4401 36f0 00C08DE5 		str	ip, [sp]
 4402 36f4 0FC0D4E5 		ldrb	ip, [r4, #15]	@ zero_extendqisi2
 4403 36f8 0E80D4E5 		ldrb	r8, [r4, #14]	@ zero_extendqisi2
 4404 36fc 04E08DE5 		str	lr, [sp, #4]
 4405 3700 08C08DE5 		str	ip, [sp, #8]
 4406 3704 0DE0D4E5 		ldrb	lr, [r4, #13]	@ zero_extendqisi2
 4407 3708 2C208DE5 		str	r2, [sp, #44]
 4408 370c 0CC0D4E5 		ldrb	ip, [r4, #12]	@ zero_extendqisi2
 4409 3710 0C808DE5 		str	r8, [sp, #12]
 4410 3714 1320D4E5 		ldrb	r2, [r4, #19]	@ zero_extendqisi2
 4411 3718 108094E5 		ldr	r8, [r4, #16]
 4412 371c 10E08DE5 		str	lr, [sp, #16]
 4413 3720 588AE3E7 		ubfx	r8, r8, #20, #4
 4414 3724 10E094E5 		ldr	lr, [r4, #16]
 4415 3728 14C08DE5 		str	ip, [sp, #20]
 4416 372c 14C094E5 		ldr	ip, [r4, #20]
 4417 3730 18208DE5 		str	r2, [sp, #24]
 4418 3734 1C808DE5 		str	r8, [sp, #28]
 4419 3738 0FC00CE2 		and	ip, ip, #15
 4420 373c D883C4E1 		ldrd	r8, [r4, #56]
 4421 3740 142094E5 		ldr	r2, [r4, #20]
 4422 3744 5EE8E3E7 		ubfx	lr, lr, #16, #4
 4423 3748 001040E3 		movt	r1, #:upper16:.LANCHOR2
 4424 374c 5222E7E7 		ubfx	r2, r2, #4, #8
 4425 3750 20E08DE5 		str	lr, [sp, #32]
 4426 3754 7D2E82E2 		add	r2, r2, #2000
 4427 3758 24C08DE5 		str	ip, [sp, #36]
 4428 375c 288AA0E1 		lsr	r8, r8, #20
 4429 3760 40E0D4E5 		ldrb	lr, [r4, #64]	@ zero_extendqisi2
 4430 3764 B6C4D4E1 		ldrh	ip, [r4, #70]
 4431 3768 098688E1 		orr	r8, r8, r9, lsl #12
 4432 376c 28208DE5 		str	r2, [sp, #40]
 4433 3770 0820A0E1 		mov	r2, r8
 4434 3774 000040E3 		movt	r0, #:upper16:.LC16
 4435 3778 0E1191E7 		ldr	r1, [r1, lr, lsl #2]
 4436 377c 30C08DE5 		str	ip, [sp, #48]
 4437 3780 36FF2FE1 		blx	r6
 4438              	.L994:
 4439 3784 000057E3 		cmp	r7, #0
 4440 3788 4BFFFF0A 		beq	.L1005
 4441 378c 0600A0E1 		mov	r0, r6
 4442 3790 FEFFFFEB 		bl	LoadDrivePartition
 4443 3794 000050E3 		cmp	r0, #0
 4444 3798 0C50A003 		moveq	r5, #12
 4445 379c 46FFFFEA 		b	.L1005
 4446              	.L982:
ARM GAS  C:\Users\ldebo\AppData\Local\Temp\ccrazFu5.s 			page 79


 4447 37a0 0100A0E3 		mov	r0, #1
 4448 37a4 0010A0E3 		mov	r1, #0
 4449 37a8 FEFFFFEB 		bl	timer_wait
 4450 37ac 01A05AE2 		subs	r10, r10, #1
 4451 37b0 ABFFFF1A 		bne	.L981
 4452              	.L987:
 4453 37b4 006094E5 		ldr	r6, [r4]
 4454 37b8 000056E3 		cmp	r6, #0
 4455 37bc 81FFFF0A 		beq	.L990
 4456 37c0 003098E5 		ldr	r3, [r8]
 4457 37c4 000000E3 		movw	r0, #:lower16:.LC14
 4458 37c8 000040E3 		movt	r0, #:upper16:.LC14
 4459 37cc 0250A0E3 		mov	r5, #2
 4460 37d0 033683E2 		add	r3, r3, #3145728
 4461 37d4 241093E5 		ldr	r1, [r3, #36]
 4462 37d8 302093E5 		ldr	r2, [r3, #48]
 4463 37dc 103093E5 		ldr	r3, [r3, #16]
 4464 37e0 36FF2FE1 		blx	r6
 4465 37e4 003094E5 		ldr	r3, [r4]
 4466 37e8 000000E3 		movw	r0, #:lower16:.LC15
 4467 37ec 000040E3 		movt	r0, #:upper16:.LC15
 4468 37f0 0910A0E1 		mov	r1, r9
 4469 37f4 33FF2FE1 		blx	r3
 4470 37f8 2FFFFFEA 		b	.L1005
 4471              	.L980:
 4472 37fc 003094E5 		ldr	r3, [r4]
 4473 3800 000053E3 		cmp	r3, #0
 4474 3804 2CFFFF0A 		beq	.L1005
 4475 3808 000000E3 		movw	r0, #:lower16:.LC8
 4476 380c 000040E3 		movt	r0, #:upper16:.LC8
 4477 3810 33FF2FE1 		blx	r3
 4478 3814 28FFFFEA 		b	.L1005
 4479              	.L1036:
 4480 3818 449094E5 		ldr	r9, [r4, #68]
 4481 381c 000059E3 		cmp	r9, #0
 4482 3820 1B00000A 		beq	.L1037
 4483 3824 98009FE5 		ldr	r0, .L1039+24
 4484 3828 0910A0E1 		mov	r1, r9
 4485 382c D4F3FFEB 		bl	sdSendCommandP
 4486 3830 7050EFE6 		uxtb	r5, r0
 4487 3834 000055E3 		cmp	r5, #0
 4488 3838 1FFFFF1A 		bne	.L1005
 4489 383c 4C3094E5 		ldr	r3, [r4, #76]
 4490 3840 200013E3 		tst	r3, #32
 4491 3844 1600000A 		beq	.L1038
 4492              	.L992:
 4493 3848 78009FE5 		ldr	r0, .L1039+28
 4494 384c 021089E3 		orr	r1, r9, #2
 4495 3850 CBF3FFEB 		bl	sdSendCommandP
 4496 3854 7050EFE6 		uxtb	r5, r0
 4497 3858 000055E3 		cmp	r5, #0
 4498 385c 16FFFF1A 		bne	.L1005
 4499 3860 443094E5 		ldr	r3, [r4, #68]
 4500 3864 000053E3 		cmp	r3, #0
 4501 3868 0300000A 		beq	.L993
 4502 386c 4C3094E5 		ldr	r3, [r4, #76]
 4503 3870 200013E3 		tst	r3, #32
ARM GAS  C:\Users\ldebo\AppData\Local\Temp\ccrazFu5.s 			page 80


 4504 3874 0950A003 		moveq	r5, #9
 4505 3878 0FFFFF0A 		beq	.L1005
 4506              	.L993:
 4507 387c 003098E5 		ldr	r3, [r8]
 4508 3880 033683E2 		add	r3, r3, #3145728
 4509 3884 282093E5 		ldr	r2, [r3, #40]
 4510 3888 022082E3 		orr	r2, r2, #2
 4511 388c 282083E5 		str	r2, [r3, #40]
 4512 3890 85FFFFEA 		b	.L996
 4513              	.L1037:
 4514 3894 30009FE5 		ldr	r0, .L1039+32
 4515 3898 0910A0E1 		mov	r1, r9
 4516 389c B8F3FFEB 		bl	sdSendCommandP
 4517 38a0 E8FFFFEA 		b	.L992
 4518              	.L1038:
 4519 38a4 0150A0E3 		mov	r5, #1
 4520 38a8 03FFFFEA 		b	.L1005
 4521              	.L1040:
 4522              		.align	2
 4523              	.L1039:
 4524 38ac 90000000 		.word	.LANCHOR1+144
 4525 38b0 18000000 		.word	.LANCHOR1+24
 4526 38b4 30000000 		.word	.LANCHOR1+48
 4527 38b8 A8000000 		.word	.LANCHOR1+168
 4528 38bc 78000000 		.word	.LANCHOR1+120
 4529 38c0 38010000 		.word	.LANCHOR1+312
 4530 38c4 D0020000 		.word	.LANCHOR1+720
 4531 38c8 00030000 		.word	.LANCHOR1+768
 4532 38cc B8020000 		.word	.LANCHOR1+696
 4533              		.size	sdInitCard, .-sdInitCard
 4534              		.align	2
 4535              		.global	sdCardCSD
 4536              		.syntax unified
 4537              		.arm
 4538              		.fpu neon
 4539              		.type	sdCardCSD, %function
 4540              	sdCardCSD:
 4541              		@ args = 0, pretend = 0, frame = 0
 4542              		@ frame_needed = 0, uses_anonymous_args = 0
 4543              		@ link register save eliminated.
 4544 38d0 000000E3 		movw	r0, #:lower16:.LANCHOR0
 4545 38d4 000040E3 		movt	r0, #:upper16:.LANCHOR0
 4546 38d8 4030D0E5 		ldrb	r3, [r0, #64]	@ zero_extendqisi2
 4547 38dc 000053E3 		cmp	r3, #0
 4548 38e0 18008012 		addne	r0, r0, #24
 4549 38e4 0000A003 		moveq	r0, #0
 4550 38e8 1EFF2FE1 		bx	lr
 4551              		.size	sdCardCSD, .-sdCardCSD
 4552              		.global	LOG_ERROR
 4553              		.comm	__errno,4,4
 4554              		.section	.rodata
 4555              		.align	2
 4556              		.set	.LANCHOR2,. + 0
 4557              		.type	SD_TYPE_NAME, %object
 4558              		.size	SD_TYPE_NAME, 20
 4559              	SD_TYPE_NAME:
 4560 0000 40030000 		.word	.LC17
ARM GAS  C:\Users\ldebo\AppData\Local\Temp\ccrazFu5.s 			page 81


 4561 0004 48030000 		.word	.LC18
 4562 0008 4C030000 		.word	.LC19
 4563 000c 54030000 		.word	.LC20
 4564 0010 60030000 		.word	.LC21
 4565              		.data
 4566              		.align	2
 4567              		.set	.LANCHOR1,. + 0
 4568              		.type	sdCommandTable, %object
 4569              		.size	sdCommandTable, 936
 4570              	sdCommandTable:
 4571 0000 474F5F49 		.ascii	"GO_IDLE_STATE\000"
 4571      444C455F 
 4571      53544154 
 4571      4500
 4572 000e 0000     		.space	2
 4573 0010 0000     		.space	2
 4574 0012 00       		.byte	0
 4575 0013 00       		.byte	0
 4576 0014 00       		.byte	0
 4577 0015 00       		.space	1
 4578 0016 0000     		.short	0
 4579 0018 414C4C5F 		.ascii	"ALL_SEND_CID\000"
 4579      53454E44 
 4579      5F434944 
 4579      00
 4580 0025 000000   		.space	3
 4581 0028 0000     		.space	2
 4582 002a 01       		.byte	1
 4583 002b 02       		.byte	2
 4584 002c 00       		.byte	0
 4585 002d 00       		.space	1
 4586 002e 0000     		.short	0
 4587 0030 53454E44 		.ascii	"SEND_REL_ADDR\000"
 4587      5F52454C 
 4587      5F414444 
 4587      5200
 4588 003e 0000     		.space	2
 4589 0040 0000     		.space	2
 4590 0042 02       		.byte	2
 4591 0043 03       		.byte	3
 4592 0044 00       		.byte	0
 4593 0045 00       		.space	1
 4594 0046 0000     		.short	0
 4595 0048 5345545F 		.ascii	"SET_DSR\000"
 4595      44535200 
 4596 0050 00000000 		.space	8
 4596      00000000 
 4597 0058 0000     		.space	2
 4598 005a 00       		.byte	0
 4599 005b 04       		.byte	4
 4600 005c 00       		.byte	0
 4601 005d 00       		.space	1
 4602 005e 0000     		.short	0
 4603 0060 53574954 		.ascii	"SWITCH_FUNC\000"
 4603      43485F46 
 4603      554E4300 
 4604 006c 00000000 		.space	4
ARM GAS  C:\Users\ldebo\AppData\Local\Temp\ccrazFu5.s 			page 82


 4605 0070 0000     		.space	2
 4606 0072 02       		.byte	2
 4607 0073 06       		.byte	6
 4608 0074 00       		.byte	0
 4609 0075 00       		.space	1
 4610 0076 0000     		.short	0
 4611 0078 43415244 		.ascii	"CARD_SELECT\000"
 4611      5F53454C 
 4611      45435400 
 4612 0084 00000000 		.space	4
 4613 0088 0000     		.space	2
 4614 008a 03       		.byte	3
 4615 008b 07       		.byte	7
 4616 008c 01       		.byte	1
 4617 008d 00       		.space	1
 4618 008e 0000     		.short	0
 4619 0090 53454E44 		.ascii	"SEND_IF_COND\000"
 4619      5F49465F 
 4619      434F4E44 
 4619      00
 4620 009d 000000   		.space	3
 4621 00a0 0000     		.space	2
 4622 00a2 02       		.byte	2
 4623 00a3 08       		.byte	8
 4624 00a4 00       		.byte	0
 4625 00a5 00       		.space	1
 4626 00a6 6400     		.short	100
 4627 00a8 53454E44 		.ascii	"SEND_CSD\000"
 4627      5F435344 
 4627      00
 4628 00b1 00000000 		.space	7
 4628      000000
 4629 00b8 0000     		.space	2
 4630 00ba 01       		.byte	1
 4631 00bb 09       		.byte	9
 4632 00bc 01       		.byte	1
 4633 00bd 00       		.space	1
 4634 00be 0000     		.short	0
 4635 00c0 53454E44 		.ascii	"SEND_CID\000"
 4635      5F434944 
 4635      00
 4636 00c9 00000000 		.space	7
 4636      000000
 4637 00d0 0000     		.space	2
 4638 00d2 01       		.byte	1
 4639 00d3 0A       		.byte	10
 4640 00d4 01       		.byte	1
 4641 00d5 00       		.space	1
 4642 00d6 0000     		.short	0
 4643 00d8 564F4C54 		.ascii	"VOLT_SWITCH\000"
 4643      5F535749 
 4643      54434800 
 4644 00e4 00000000 		.space	4
 4645 00e8 0000     		.space	2
 4646 00ea 02       		.byte	2
 4647 00eb 0B       		.byte	11
 4648 00ec 00       		.byte	0
ARM GAS  C:\Users\ldebo\AppData\Local\Temp\ccrazFu5.s 			page 83


 4649 00ed 00       		.space	1
 4650 00ee 0000     		.short	0
 4651 00f0 53544F50 		.ascii	"STOP_TRANS\000"
 4651      5F545241 
 4651      4E5300
 4652 00fb 00000000 		.space	5
 4652      00
 4653 0100 0000     		.space	2
 4654 0102 03       		.byte	3
 4655 0103 0C       		.byte	12
 4656 0104 00       		.byte	0
 4657 0105 00       		.space	1
 4658 0106 0000     		.short	0
 4659 0108 53454E44 		.ascii	"SEND_STATUS\000"
 4659      5F535441 
 4659      54555300 
 4660 0114 00000000 		.space	4
 4661 0118 0000     		.space	2
 4662 011a 02       		.byte	2
 4663 011b 0D       		.byte	13
 4664 011c 01       		.byte	1
 4665 011d 00       		.space	1
 4666 011e 0000     		.short	0
 4667 0120 474F5F49 		.ascii	"GO_INACTIVE\000"
 4667      4E414354 
 4667      49564500 
 4668 012c 00000000 		.space	4
 4669 0130 0000     		.space	2
 4670 0132 00       		.byte	0
 4671 0133 0F       		.byte	15
 4672 0134 01       		.byte	1
 4673 0135 00       		.space	1
 4674 0136 0000     		.short	0
 4675 0138 5345545F 		.ascii	"SET_BLOCKLEN\000"
 4675      424C4F43 
 4675      4B4C454E 
 4675      00
 4676 0145 000000   		.space	3
 4677 0148 0000     		.space	2
 4678 014a 02       		.byte	2
 4679 014b 10       		.byte	16
 4680 014c 00       		.byte	0
 4681 014d 00       		.space	1
 4682 014e 0000     		.short	0
 4683 0150 52454144 		.ascii	"READ_SINGLE\000"
 4683      5F53494E 
 4683      474C4500 
 4684 015c 00000000 		.space	4
 4685 0160 10       		.byte	16
 4686 0161 00       		.space	1
 4687 0162 22       		.byte	34
 4688 0163 11       		.byte	17
 4689 0164 00       		.byte	0
 4690 0165 00       		.space	1
 4691 0166 0000     		.short	0
 4692 0168 52454144 		.ascii	"READ_MULTI\000"
 4692      5F4D554C 
ARM GAS  C:\Users\ldebo\AppData\Local\Temp\ccrazFu5.s 			page 84


 4692      544900
 4693 0173 00000000 		.space	5
 4693      00
 4694 0178 32       		.byte	50
 4695 0179 00       		.space	1
 4696 017a 22       		.byte	34
 4697 017b 12       		.byte	18
 4698 017c 00       		.byte	0
 4699 017d 00       		.space	1
 4700 017e 0000     		.short	0
 4701 0180 53454E44 		.ascii	"SEND_TUNING\000"
 4701      5F54554E 
 4701      494E4700 
 4702 018c 00000000 		.space	4
 4703 0190 0000     		.space	2
 4704 0192 02       		.byte	2
 4705 0193 13       		.byte	19
 4706 0194 00       		.byte	0
 4707 0195 00       		.space	1
 4708 0196 0000     		.short	0
 4709 0198 53504545 		.ascii	"SPEED_CLASS\000"
 4709      445F434C 
 4709      41535300 
 4710 01a4 00000000 		.space	4
 4711 01a8 0000     		.space	2
 4712 01aa 03       		.byte	3
 4713 01ab 14       		.byte	20
 4714 01ac 00       		.byte	0
 4715 01ad 00       		.space	1
 4716 01ae 0000     		.short	0
 4717 01b0 5345545F 		.ascii	"SET_BLOCKCNT\000"
 4717      424C4F43 
 4717      4B434E54 
 4717      00
 4718 01bd 000000   		.space	3
 4719 01c0 0000     		.space	2
 4720 01c2 02       		.byte	2
 4721 01c3 17       		.byte	23
 4722 01c4 00       		.byte	0
 4723 01c5 00       		.space	1
 4724 01c6 0000     		.short	0
 4725 01c8 57524954 		.ascii	"WRITE_SINGLE\000"
 4725      455F5349 
 4725      4E474C45 
 4725      00
 4726 01d5 000000   		.space	3
 4727 01d8 0000     		.space	2
 4728 01da 22       		.byte	34
 4729 01db 18       		.byte	24
 4730 01dc 00       		.byte	0
 4731 01dd 00       		.space	1
 4732 01de 0000     		.short	0
 4733 01e0 57524954 		.ascii	"WRITE_MULTI\000"
 4733      455F4D55 
 4733      4C544900 
 4734 01ec 00000000 		.space	4
 4735 01f0 22       		.byte	34
ARM GAS  C:\Users\ldebo\AppData\Local\Temp\ccrazFu5.s 			page 85


 4736 01f1 00       		.space	1
 4737 01f2 22       		.byte	34
 4738 01f3 19       		.byte	25
 4739 01f4 00       		.byte	0
 4740 01f5 00       		.space	1
 4741 01f6 0000     		.short	0
 4742 01f8 50524F47 		.ascii	"PROGRAM_CSD\000"
 4742      52414D5F 
 4742      43534400 
 4743 0204 00000000 		.space	4
 4744 0208 0000     		.space	2
 4745 020a 02       		.byte	2
 4746 020b 1B       		.byte	27
 4747 020c 00       		.byte	0
 4748 020d 00       		.space	1
 4749 020e 0000     		.short	0
 4750 0210 5345545F 		.ascii	"SET_WRITE_PR\000"
 4750      57524954 
 4750      455F5052 
 4750      00
 4751 021d 000000   		.space	3
 4752 0220 0000     		.space	2
 4753 0222 03       		.byte	3
 4754 0223 1C       		.byte	28
 4755 0224 00       		.byte	0
 4756 0225 00       		.space	1
 4757 0226 0000     		.short	0
 4758 0228 434C525F 		.ascii	"CLR_WRITE_PR\000"
 4758      57524954 
 4758      455F5052 
 4758      00
 4759 0235 000000   		.space	3
 4760 0238 0000     		.space	2
 4761 023a 03       		.byte	3
 4762 023b 1D       		.byte	29
 4763 023c 00       		.byte	0
 4764 023d 00       		.space	1
 4765 023e 0000     		.short	0
 4766 0240 534E445F 		.ascii	"SND_WRITE_PR\000"
 4766      57524954 
 4766      455F5052 
 4766      00
 4767 024d 000000   		.space	3
 4768 0250 0000     		.space	2
 4769 0252 02       		.byte	2
 4770 0253 1E       		.byte	30
 4771 0254 00       		.byte	0
 4772 0255 00       		.space	1
 4773 0256 0000     		.short	0
 4774 0258 45524153 		.ascii	"ERASE_WR_ST\000"
 4774      455F5752 
 4774      5F535400 
 4775 0264 00000000 		.space	4
 4776 0268 0000     		.space	2
 4777 026a 02       		.byte	2
 4778 026b 20       		.byte	32
 4779 026c 00       		.byte	0
ARM GAS  C:\Users\ldebo\AppData\Local\Temp\ccrazFu5.s 			page 86


 4780 026d 00       		.space	1
 4781 026e 0000     		.short	0
 4782 0270 45524153 		.ascii	"ERASE_WR_END\000"
 4782      455F5752 
 4782      5F454E44 
 4782      00
 4783 027d 000000   		.space	3
 4784 0280 0000     		.space	2
 4785 0282 02       		.byte	2
 4786 0283 21       		.byte	33
 4787 0284 00       		.byte	0
 4788 0285 00       		.space	1
 4789 0286 0000     		.short	0
 4790 0288 45524153 		.ascii	"ERASE\000"
 4790      4500
 4791 028e 00000000 		.space	10
 4791      00000000 
 4791      0000
 4792 0298 0000     		.space	2
 4793 029a 03       		.byte	3
 4794 029b 26       		.byte	38
 4795 029c 00       		.byte	0
 4796 029d 00       		.space	1
 4797 029e 0000     		.short	0
 4798 02a0 4C4F434B 		.ascii	"LOCK_UNLOCK\000"
 4798      5F554E4C 
 4798      4F434B00 
 4799 02ac 00000000 		.space	4
 4800 02b0 0000     		.space	2
 4801 02b2 02       		.byte	2
 4802 02b3 2A       		.byte	42
 4803 02b4 00       		.byte	0
 4804 02b5 00       		.space	1
 4805 02b6 0000     		.short	0
 4806 02b8 4150505F 		.ascii	"APP_CMD\000"
 4806      434D4400 
 4807 02c0 00000000 		.space	8
 4807      00000000 
 4808 02c8 0000     		.space	2
 4809 02ca 00       		.byte	0
 4810 02cb 37       		.byte	55
 4811 02cc 00       		.byte	0
 4812 02cd 00       		.space	1
 4813 02ce 6400     		.short	100
 4814 02d0 4150505F 		.ascii	"APP_CMD\000"
 4814      434D4400 
 4815 02d8 00000000 		.space	8
 4815      00000000 
 4816 02e0 0000     		.space	2
 4817 02e2 02       		.byte	2
 4818 02e3 37       		.byte	55
 4819 02e4 01       		.byte	1
 4820 02e5 00       		.space	1
 4821 02e6 0000     		.short	0
 4822 02e8 47454E5F 		.ascii	"GEN_CMD\000"
 4822      434D4400 
 4823 02f0 00000000 		.space	8
ARM GAS  C:\Users\ldebo\AppData\Local\Temp\ccrazFu5.s 			page 87


 4823      00000000 
 4824 02f8 0000     		.space	2
 4825 02fa 02       		.byte	2
 4826 02fb 38       		.byte	56
 4827 02fc 00       		.byte	0
 4828 02fd 00       		.space	1
 4829 02fe 0000     		.short	0
 4830 0300 5345545F 		.ascii	"SET_BUS_WIDTH\000"
 4830      4255535F 
 4830      57494454 
 4830      4800
 4831 030e 0000     		.space	2
 4832 0310 0000     		.space	2
 4833 0312 02       		.byte	2
 4834 0313 06       		.byte	6
 4835 0314 00       		.byte	0
 4836 0315 00       		.space	1
 4837 0316 0000     		.short	0
 4838 0318 53445F53 		.ascii	"SD_STATUS\000"
 4838      54415455 
 4838      5300
 4839 0322 00000000 		.space	6
 4839      0000
 4840 0328 0000     		.space	2
 4841 032a 02       		.byte	2
 4842 032b 0D       		.byte	13
 4843 032c 01       		.byte	1
 4844 032d 00       		.space	1
 4845 032e 0000     		.short	0
 4846 0330 53454E44 		.ascii	"SEND_NUM_WRBL\000"
 4846      5F4E554D 
 4846      5F575242 
 4846      4C00
 4847 033e 0000     		.space	2
 4848 0340 0000     		.space	2
 4849 0342 02       		.byte	2
 4850 0343 16       		.byte	22
 4851 0344 00       		.byte	0
 4852 0345 00       		.space	1
 4853 0346 0000     		.short	0
 4854 0348 53454E44 		.ascii	"SEND_NUM_ERS\000"
 4854      5F4E554D 
 4854      5F455253 
 4854      00
 4855 0355 000000   		.space	3
 4856 0358 0000     		.space	2
 4857 035a 02       		.byte	2
 4858 035b 17       		.byte	23
 4859 035c 00       		.byte	0
 4860 035d 00       		.space	1
 4861 035e 0000     		.short	0
 4862 0360 53445F53 		.ascii	"SD_SENDOPCOND\000"
 4862      454E444F 
 4862      50434F4E 
 4862      4400
 4863 036e 0000     		.space	2
 4864 0370 0000     		.space	2
ARM GAS  C:\Users\ldebo\AppData\Local\Temp\ccrazFu5.s 			page 88


 4865 0372 02       		.byte	2
 4866 0373 29       		.byte	41
 4867 0374 00       		.byte	0
 4868 0375 00       		.space	1
 4869 0376 E803     		.short	1000
 4870 0378 5345545F 		.ascii	"SET_CLR_DET\000"
 4870      434C525F 
 4870      44455400 
 4871 0384 00000000 		.space	4
 4872 0388 0000     		.space	2
 4873 038a 02       		.byte	2
 4874 038b 2A       		.byte	42
 4875 038c 00       		.byte	0
 4876 038d 00       		.space	1
 4877 038e 0000     		.short	0
 4878 0390 53454E44 		.ascii	"SEND_SCR\000"
 4878      5F534352 
 4878      00
 4879 0399 00000000 		.space	7
 4879      000000
 4880 03a0 10       		.byte	16
 4881 03a1 00       		.space	1
 4882 03a2 22       		.byte	34
 4883 03a3 33       		.byte	51
 4884 03a4 00       		.byte	0
 4885 03a5 00       		.space	1
 4886 03a6 0000     		.short	0
 4887              		.bss
 4888              		.align	3
 4889              		.set	.LANCHOR0,. + 0
 4890              		.type	LOG_ERROR, %object
 4891              		.size	LOG_ERROR, 4
 4892              	LOG_ERROR:
 4893 0000 00000000 		.space	4
 4894 0004 00000000 		.space	4
 4895              		.type	sdCard, %object
 4896              		.size	sdCard, 120
 4897              	sdCard:
 4898 0008 00000000 		.space	120
 4898      00000000 
 4898      00000000 
 4898      00000000 
 4898      00000000 
 4899              		.type	intSearchRecord, %object
 4900              		.size	intSearchRecord, 3136
 4901              	intSearchRecord:
 4902 0080 00000000 		.space	3136
 4902      00000000 
 4902      00000000 
 4902      00000000 
 4902      00000000 
 4903              		.type	intFileIORecord, %object
 4904              		.size	intFileIORecord, 6368
 4905              	intFileIORecord:
 4906 0cc0 00000000 		.space	6368
 4906      00000000 
 4906      00000000 
ARM GAS  C:\Users\ldebo\AppData\Local\Temp\ccrazFu5.s 			page 89


 4906      00000000 
 4906      00000000 
 4907              		.section	.rodata.str1.4,"aMS",%progbits,1
 4908              		.align	2
 4909              	.LC0:
 4910 0000 454D4D43 		.ascii	"EMMC: Wait for data aborted: %08x %08x %08x\012\000"
 4910      3A205761 
 4910      69742066 
 4910      6F722064 
 4910      61746120 
 4911 002d 000000   		.space	3
 4912              	.LC1:
 4913 0030 454D4D43 		.ascii	"EMMC: Wait for interrupt %08x timeout: %08x %08x %0"
 4913      3A205761 
 4913      69742066 
 4913      6F722069 
 4913      6E746572 
 4914 0063 38780A00 		.ascii	"8x\012\000"
 4915 0067 00       		.space	1
 4916              	.LC2:
 4917 0068 454D4D43 		.ascii	"EMMC: Error waiting for interrupt: %08x %08x %08x\012"
 4917      3A204572 
 4917      726F7220 
 4917      77616974 
 4917      696E6720 
 4918 009a 00       		.ascii	"\000"
 4919 009b 00       		.space	1
 4920              	.LC3:
 4921 009c 454D4D43 		.ascii	"EMMC: Set clock: timeout waiting for inhibit flags."
 4921      3A205365 
 4921      7420636C 
 4921      6F636B3A 
 4921      2074696D 
 4922 00cf 20537461 		.ascii	" Status %08x.\012\000"
 4922      74757320 
 4922      25303878 
 4922      2E0A00
 4923 00de 0000     		.space	2
 4924              	.LC4:
 4925 00e0 454D4D43 		.ascii	"EMMC: ERROR: failed to get stable clock.\012\000"
 4925      3A204552 
 4925      524F523A 
 4925      20666169 
 4925      6C656420 
 4926 010a 0000     		.space	2
 4927              	.LC5:
 4928 010c 454D4D43 		.ascii	"EMMC: Wait for command aborted: %08x %08x %08x\012\000"
 4928      3A205761 
 4928      69742066 
 4928      6F722063 
 4928      6F6D6D61 
 4929              	.LC6:
 4930 013c 454D4D43 		.ascii	"EMMC: ACMD41 returned non-timeout error %d\012\000"
 4930      3A204143 
 4930      4D443431 
 4930      20726574 
 4930      75726E65 
ARM GAS  C:\Users\ldebo\AppData\Local\Temp\ccrazFu5.s 			page 90


 4931              	.LC7:
 4932 0168 454D4D43 		.ascii	"EMMC: ERROR: failed to reset.\012\000"
 4932      3A204552 
 4932      524F523A 
 4932      20666169 
 4932      6C656420 
 4933 0187 00       		.space	1
 4934              	.LC8:
 4935 0188 454D4D43 		.ascii	"EMMC: Timeout waiting for ready to read\012\000"
 4935      3A205469 
 4935      6D656F75 
 4935      74207761 
 4935      6974696E 
 4936 01b1 000000   		.space	3
 4937              	.LC9:
 4938 01b4 454D4D43 		.ascii	"EMMC: Timeout waiting for data done\012\000"
 4938      3A205469 
 4938      6D656F75 
 4938      74207761 
 4938      6974696E 
 4939 01d9 000000   		.space	3
 4940              	.LC10:
 4941 01dc 46415433 		.ascii	"FAT32 Volume Label: %s, ID: %08x\012\000"
 4941      3220566F 
 4941      6C756D65 
 4941      204C6162 
 4941      656C3A20 
 4942 01fe 0000     		.space	2
 4943              	.LC11:
 4944 0200 46415431 		.ascii	"FAT12/16 Volume Label: %s, Volume ID %08x\012\000"
 4944      322F3136 
 4944      20566F6C 
 4944      756D6520 
 4944      4C616265 
 4945 022b 00       		.space	1
 4946              	.LC12:
 4947 022c 46697273 		.ascii	"First Sector: %lu, Data Sectors: %lu, TotalClusters"
 4947      74205365 
 4947      63746F72 
 4947      3A20256C 
 4947      752C2044 
 4948 025f 3A20256C 		.ascii	": %lu, RootCluster: %lu\012\000"
 4948      752C2052 
 4948      6F6F7443 
 4948      6C757374 
 4948      65723A20 
 4949              	.LC13:
 4950 0278 454D4D43 		.ascii	"EMMC: Timeout waiting for erase: %08x %08x\012\000"
 4950      3A205469 
 4950      6D656F75 
 4950      74207761 
 4950      6974696E 
 4951              	.LC14:
 4952 02a4 454D4D43 		.ascii	"EMMC: SEND_SCR ERR: %08x %08x %08x\012\000"
 4952      3A205345 
 4952      4E445F53 
 4952      43522045 
ARM GAS  C:\Users\ldebo\AppData\Local\Temp\ccrazFu5.s 			page 91


 4952      52523A20 
 4953              	.LC15:
 4954 02c8 454D4D43 		.ascii	"EMMC: Reading SCR, only read %d words\012\000"
 4954      3A205265 
 4954      6164696E 
 4954      67205343 
 4954      522C206F 
 4955 02ef 00       		.space	1
 4956              	.LC16:
 4957 02f0 454D4D43 		.ascii	"EMMC: SD Card %s %dMb mfr %d '%c%c:%c%c%c%c%c' r%d."
 4957      3A205344 
 4957      20436172 
 4957      64202573 
 4957      2025644D 
 4958 0323 25642025 		.ascii	"%d %d/%d, #%08x RCA %04x\012\000"
 4958      642F2564 
 4958      2C202325 
 4958      30387820 
 4958      52434120 
 4959 033d 000000   		.space	3
 4960              	.LC17:
 4961 0340 556E6B6E 		.ascii	"Unknown\000"
 4961      6F776E00 
 4962              	.LC18:
 4963 0348 4D4D4300 		.ascii	"MMC\000"
 4964              	.LC19:
 4965 034c 54797065 		.ascii	"Type 1\000"
 4965      203100
 4966 0353 00       		.space	1
 4967              	.LC20:
 4968 0354 54797065 		.ascii	"Type 2 SC\000"
 4968      20322053 
 4968      4300
 4969 035e 0000     		.space	2
 4970              	.LC21:
 4971 0360 54797065 		.ascii	"Type 2 HC\000"
 4971      20322048 
 4971      4300
 4972              		.ident	"GCC: (GNU Tools for ARM Embedded Processors 6-2017-q2-update) 6.3.1 20170620 (release) [AR
ARM GAS  C:\Users\ldebo\AppData\Local\Temp\ccrazFu5.s 			page 92


DEFINED SYMBOLS
                            *ABS*:00000000 SDCard.c
C:\Users\ldebo\AppData\Local\Temp\ccrazFu5.s:18     .text:00000000 $a
C:\Users\ldebo\AppData\Local\Temp\ccrazFu5.s:23     .text:00000000 sdWaitForData
C:\Users\ldebo\AppData\Local\Temp\ccrazFu5.s:4889   .bss:00000000 .LANCHOR0
C:\Users\ldebo\AppData\Local\Temp\ccrazFu5.s:4909   .rodata.str1.4:00000000 .LC0
C:\Users\ldebo\AppData\Local\Temp\ccrazFu5.s:97     .text:000000f8 $d
C:\Users\ldebo\AppData\Local\Temp\ccrazFu5.s:100    .text:00000100 $a
C:\Users\ldebo\AppData\Local\Temp\ccrazFu5.s:105    .text:00000100 sdWaitForInterrupt
C:\Users\ldebo\AppData\Local\Temp\ccrazFu5.s:4912   .rodata.str1.4:00000030 .LC1
C:\Users\ldebo\AppData\Local\Temp\ccrazFu5.s:4916   .rodata.str1.4:00000068 .LC2
C:\Users\ldebo\AppData\Local\Temp\ccrazFu5.s:213    .text:00000270 $d
C:\Users\ldebo\AppData\Local\Temp\ccrazFu5.s:216    .text:00000278 $a
C:\Users\ldebo\AppData\Local\Temp\ccrazFu5.s:221    .text:00000278 sdSetClock
C:\Users\ldebo\AppData\Local\Temp\ccrazFu5.s:4920   .rodata.str1.4:0000009c .LC3
C:\Users\ldebo\AppData\Local\Temp\ccrazFu5.s:4924   .rodata.str1.4:000000e0 .LC4
C:\Users\ldebo\AppData\Local\Temp\ccrazFu5.s:414    .text:00000528 $d
C:\Users\ldebo\AppData\Local\Temp\ccrazFu5.s:417    .text:00000530 $a
C:\Users\ldebo\AppData\Local\Temp\ccrazFu5.s:422    .text:00000530 ReadLFNEntry
C:\Users\ldebo\AppData\Local\Temp\ccrazFu5.s:499    .text:00000624 SetFindDataFromFATEntry.part.0
C:\Users\ldebo\AppData\Local\Temp\ccrazFu5.s:596    .text:00000784 sdSendCommandP
C:\Users\ldebo\AppData\Local\Temp\ccrazFu5.s:4927   .rodata.str1.4:0000010c .LC5
C:\Users\ldebo\AppData\Local\Temp\ccrazFu5.s:765    .text:000009e0 $d
C:\Users\ldebo\AppData\Local\Temp\ccrazFu5.s:768    .text:000009e8 $a
C:\Users\ldebo\AppData\Local\Temp\ccrazFu5.s:927    .text:00000c40 sdAppSendOpCond
C:\Users\ldebo\AppData\Local\Temp\ccrazFu5.s:4929   .rodata.str1.4:0000013c .LC6
C:\Users\ldebo\AppData\Local\Temp\ccrazFu5.s:1046   .text:00000dc8 $d
C:\Users\ldebo\AppData\Local\Temp\ccrazFu5.s:1050   .text:00000dd4 $a
C:\Users\ldebo\AppData\Local\Temp\ccrazFu5.s:1055   .text:00000dd4 sdSendCommand
C:\Users\ldebo\AppData\Local\Temp\ccrazFu5.s:4567   .data:00000000 .LANCHOR1
C:\Users\ldebo\AppData\Local\Temp\ccrazFu5.s:1110   .text:00000e8c $d
C:\Users\ldebo\AppData\Local\Temp\ccrazFu5.s:1113   .text:00000e94 $a
C:\Users\ldebo\AppData\Local\Temp\ccrazFu5.s:1118   .text:00000e94 sdResetCard
C:\Users\ldebo\AppData\Local\Temp\ccrazFu5.s:4931   .rodata.str1.4:00000168 .LC7
C:\Users\ldebo\AppData\Local\Temp\ccrazFu5.s:1231   .text:00001028 $d
C:\Users\ldebo\AppData\Local\Temp\ccrazFu5.s:1234   .text:00001030 $a
C:\Users\ldebo\AppData\Local\Temp\ccrazFu5.s:1239   .text:00001030 sdTransferBlocks.part.5
C:\Users\ldebo\AppData\Local\Temp\ccrazFu5.s:4934   .rodata.str1.4:00000188 .LC8
C:\Users\ldebo\AppData\Local\Temp\ccrazFu5.s:4937   .rodata.str1.4:000001b4 .LC9
C:\Users\ldebo\AppData\Local\Temp\ccrazFu5.s:1459   .text:0000131c $d
C:\Users\ldebo\AppData\Local\Temp\ccrazFu5.s:1463   .text.unlikely:00000000 $a
C:\Users\ldebo\AppData\Local\Temp\ccrazFu5.s:1468   .text.unlikely:00000000 sdTransferBlocks.constprop.7
C:\Users\ldebo\AppData\Local\Temp\ccrazFu5.s:1598   .text.unlikely:000001c4 LoadDrivePartition
C:\Users\ldebo\AppData\Local\Temp\ccrazFu5.s:4940   .rodata.str1.4:000001dc .LC10
C:\Users\ldebo\AppData\Local\Temp\ccrazFu5.s:4943   .rodata.str1.4:00000200 .LC11
C:\Users\ldebo\AppData\Local\Temp\ccrazFu5.s:4946   .rodata.str1.4:0000022c .LC12
C:\Users\ldebo\AppData\Local\Temp\ccrazFu5.s:1733   .text:00001324 $a
C:\Users\ldebo\AppData\Local\Temp\ccrazFu5.s:1739   .text:00001324 sdTransferBlocks
C:\Users\ldebo\AppData\Local\Temp\ccrazFu5.s:1774   .text:00001380 sdClearBlocks
C:\Users\ldebo\AppData\Local\Temp\ccrazFu5.s:4949   .rodata.str1.4:00000278 .LC13
C:\Users\ldebo\AppData\Local\Temp\ccrazFu5.s:1866   .text:000014bc $d
C:\Users\ldebo\AppData\Local\Temp\ccrazFu5.s:1868   .text:000014c0 $a
C:\Users\ldebo\AppData\Local\Temp\ccrazFu5.s:1874   .text:000014c0 getSetNextCluster
C:\Users\ldebo\AppData\Local\Temp\ccrazFu5.s:2010   .text:000016a4 $d
C:\Users\ldebo\AppData\Local\Temp\ccrazFu5.s:2013   .text:000016ac $a
C:\Users\ldebo\AppData\Local\Temp\ccrazFu5.s:2019   .text:000016ac WildcardMatch
C:\Users\ldebo\AppData\Local\Temp\ccrazFu5.s:2140   .text:00001834 LocateFATEntry
ARM GAS  C:\Users\ldebo\AppData\Local\Temp\ccrazFu5.s 			page 93


C:\Users\ldebo\AppData\Local\Temp\ccrazFu5.s:2638   .text:00001f38 $d
C:\Users\ldebo\AppData\Local\Temp\ccrazFu5.s:2640   .text:00001f3c $a
C:\Users\ldebo\AppData\Local\Temp\ccrazFu5.s:2645   .text:00001f3c LocateFATEntry.constprop.6
C:\Users\ldebo\AppData\Local\Temp\ccrazFu5.s:3031   .text:00002498 $d
C:\Users\ldebo\AppData\Local\Temp\ccrazFu5.s:3033   .text:0000249c $a
C:\Users\ldebo\AppData\Local\Temp\ccrazFu5.s:3039   .text:0000249c sdFindFirstFile
C:\Users\ldebo\AppData\Local\Temp\ccrazFu5.s:3300   .text:00002848 $d
C:\Users\ldebo\AppData\Local\Temp\ccrazFu5.s:3303   .text:00002850 $a
C:\Users\ldebo\AppData\Local\Temp\ccrazFu5.s:3309   .text:00002850 sdFindNextFile
C:\Users\ldebo\AppData\Local\Temp\ccrazFu5.s:3371   .text:0000290c sdFindClose
C:\Users\ldebo\AppData\Local\Temp\ccrazFu5.s:3398   .text:00002948 sdCreateFile
C:\Users\ldebo\AppData\Local\Temp\ccrazFu5.s:3734   .text:00002e14 $d
C:\Users\ldebo\AppData\Local\Temp\ccrazFu5.s:3737   .text:00002e1c $a
C:\Users\ldebo\AppData\Local\Temp\ccrazFu5.s:3743   .text:00002e1c sdReadFile
C:\Users\ldebo\AppData\Local\Temp\ccrazFu5.s:3957   .text:0000311c $d
C:\Users\ldebo\AppData\Local\Temp\ccrazFu5.s:3959   .text:00003120 $a
C:\Users\ldebo\AppData\Local\Temp\ccrazFu5.s:3965   .text:00003120 sdCloseHandle
C:\Users\ldebo\AppData\Local\Temp\ccrazFu5.s:3992   .text:0000315c sdSetFilePointer
C:\Users\ldebo\AppData\Local\Temp\ccrazFu5.s:4202   .text:00003458 $d
C:\Users\ldebo\AppData\Local\Temp\ccrazFu5.s:4205   .text:00003460 $a
C:\Users\ldebo\AppData\Local\Temp\ccrazFu5.s:4211   .text:00003460 sdGetFileSize
C:\Users\ldebo\AppData\Local\Temp\ccrazFu5.s:4236   .text:00003494 sdInitCard
C:\Users\ldebo\AppData\Local\Temp\ccrazFu5.s:4556   .rodata:00000000 .LANCHOR2
C:\Users\ldebo\AppData\Local\Temp\ccrazFu5.s:4956   .rodata.str1.4:000002f0 .LC16
C:\Users\ldebo\AppData\Local\Temp\ccrazFu5.s:4951   .rodata.str1.4:000002a4 .LC14
C:\Users\ldebo\AppData\Local\Temp\ccrazFu5.s:4953   .rodata.str1.4:000002c8 .LC15
C:\Users\ldebo\AppData\Local\Temp\ccrazFu5.s:4524   .text:000038ac $d
C:\Users\ldebo\AppData\Local\Temp\ccrazFu5.s:4534   .text:000038d0 $a
C:\Users\ldebo\AppData\Local\Temp\ccrazFu5.s:4540   .text:000038d0 sdCardCSD
C:\Users\ldebo\AppData\Local\Temp\ccrazFu5.s:4892   .bss:00000000 LOG_ERROR
                            *COM*:00000004 __errno
C:\Users\ldebo\AppData\Local\Temp\ccrazFu5.s:4555   .rodata:00000000 $d
C:\Users\ldebo\AppData\Local\Temp\ccrazFu5.s:4559   .rodata:00000000 SD_TYPE_NAME
C:\Users\ldebo\AppData\Local\Temp\ccrazFu5.s:4566   .data:00000000 $d
C:\Users\ldebo\AppData\Local\Temp\ccrazFu5.s:4570   .data:00000000 sdCommandTable
C:\Users\ldebo\AppData\Local\Temp\ccrazFu5.s:4888   .bss:00000000 $d
C:\Users\ldebo\AppData\Local\Temp\ccrazFu5.s:4897   .bss:00000008 sdCard
C:\Users\ldebo\AppData\Local\Temp\ccrazFu5.s:4901   .bss:00000080 intSearchRecord
C:\Users\ldebo\AppData\Local\Temp\ccrazFu5.s:4905   .bss:00000cc0 intFileIORecord
C:\Users\ldebo\AppData\Local\Temp\ccrazFu5.s:4908   .rodata.str1.4:00000000 $d

UNDEFINED SYMBOLS
RPi_IO_Base_Addr
timer_getTickCount
tick_difference
timer_wait
wctob
__locale_ctype_ptr
strchr
