ARM GAS  C:\Users\ldebo\AppData\Local\Temp\cc9oeUFF.s 			page 1


   1              		.arch armv8-a
   2              		.eabi_attribute 28, 1
   3              		.eabi_attribute 20, 1
   4              		.eabi_attribute 21, 1
   5              		.eabi_attribute 23, 3
   6              		.eabi_attribute 24, 1
   7              		.eabi_attribute 25, 1
   8              		.eabi_attribute 26, 1
   9              		.eabi_attribute 30, 2
  10              		.eabi_attribute 34, 0
  11              		.eabi_attribute 18, 4
  12              		.file	"main.c"
  13              		.text
  14              		.align	2
  15              		.global	kernel_main
  16              		.syntax unified
  17              		.arm
  18              		.fpu neon-vfpv4
  19              		.type	kernel_main, %function
  20              	kernel_main:
  21              		@ args = 0, pretend = 0, frame = 0
  22              		@ frame_needed = 0, uses_anonymous_args = 0
  23 0000 F0472DE9 		push	{r4, r5, r6, r7, r8, r9, r10, lr}
  24 0004 008000E3 		movw	r8, #:lower16:halfScrWth
  25 0008 008040E3 		movt	r8, #:upper16:halfScrWth
  26 000c 028B2DED 		vpush.64	{d8}
  27 0010 009000E3 		movw	r9, #:lower16:halfScrHt
  28 0014 009040E3 		movt	r9, #:upper16:halfScrHt
  29 0018 FEFFFFEB 		bl	InitV3D
  30 001c 0000A0E3 		mov	r0, #0
  31 0020 FEFFFFEB 		bl	ARM_setmaxspeed
  32 0024 0030A0E3 		mov	r3, #0
  33 0028 0310A0E1 		mov	r1, r3
  34 002c 2020A0E3 		mov	r2, #32
  35 0030 0300A0E1 		mov	r0, r3
  36 0034 004000E3 		movw	r4, #:lower16:.LANCHOR0
  37 0038 004040E3 		movt	r4, #:upper16:.LANCHOR0
  38 003c FEFFFFEB 		bl	PiConsole_Init
  39 0040 3B8A9FED 		vldr.32	s16, .L6
  40 0044 FEFFFFEB 		bl	GetConsole_Width
  41 0048 A000A0E1 		lsr	r0, r0, #1
  42 004c 000088E5 		str	r0, [r8]
  43 0050 FEFFFFEB 		bl	GetConsole_Height
  44 0054 001000E3 		movw	r1, #:lower16:printf
  45 0058 001040E3 		movt	r1, #:upper16:printf
  46 005c A030A0E1 		lsr	r3, r0, #1
  47 0060 0120A0E3 		mov	r2, #1
  48 0064 0100A0E1 		mov	r0, r1
  49 0068 003089E5 		str	r3, [r9]
  50 006c FEFFFFEB 		bl	sdInitCard
  51 0070 FEFFFFEB 		bl	GetConsole_Width
  52 0074 0050A0E1 		mov	r5, r0
  53 0078 FEFFFFEB 		bl	GetConsole_Height
  54 007c 0060A0E1 		mov	r6, r0
  55 0080 FEFFFFEB 		bl	GetConsole_FrameBuffer
  56 0084 FEFFFFEB 		bl	ARMaddrToGPUaddr
  57 0088 0620A0E1 		mov	r2, r6
ARM GAS  C:\Users\ldebo\AppData\Local\Temp\cc9oeUFF.s 			page 2


  58 008c 0030A0E1 		mov	r3, r0
  59 0090 0510A0E1 		mov	r1, r5
  60 0094 0400A0E1 		mov	r0, r4
  61 0098 005000E3 		movw	r5, #:lower16:printf
  62 009c 005040E3 		movt	r5, #:upper16:printf
  63 00a0 FEFFFFEB 		bl	SetupRenderer
  64 00a4 0410A0E1 		mov	r1, r4
  65 00a8 002000E3 		movw	r2, #:lower16:printf
  66 00ac 002040E3 		movt	r2, #:upper16:printf
  67 00b0 000000E3 		movw	r0, #:lower16:.LC0
  68 00b4 000040E3 		movt	r0, #:upper16:.LC0
  69 00b8 FEFFFFEB 		bl	CreateVertexData
  70 00bc 001099E5 		ldr	r1, [r9]
  71 00c0 000098E5 		ldr	r0, [r8]
  72 00c4 0420A0E1 		mov	r2, r4
  73 00c8 1A0A9FED 		vldr.32	s0, .L6+4
  74 00cc FEFFFFEB 		bl	DoRotate
  75 00d0 FEFFFFEB 		bl	timer_getTickCount
  76 00d4 0060A0E1 		mov	r6, r0
  77 00d8 0170A0E1 		mov	r7, r1
  78 00dc 020000EA 		b	.L3
  79              	.L2:
  80 00e0 0510A0E1 		mov	r1, r5
  81 00e4 0400A0E1 		mov	r0, r4
  82 00e8 FEFFFFEB 		bl	RenderModel
  83              	.L3:
  84 00ec FEFFFFEB 		bl	timer_getTickCount
  85 00f0 0020A0E1 		mov	r2, r0
  86 00f4 0130A0E1 		mov	r3, r1
  87 00f8 0600A0E1 		mov	r0, r6
  88 00fc 0710A0E1 		mov	r1, r7
  89 0100 FEFFFFEB 		bl	tick_difference
  90 0104 000051E3 		cmp	r1, #0
  91 0108 FA0F5003 		cmpeq	r0, #1000
  92 010c F3FFFF9A 		bls	.L2
  93 0110 0420A0E1 		mov	r2, r4
  94 0114 001099E5 		ldr	r1, [r9]
  95 0118 000098E5 		ldr	r0, [r8]
  96 011c 480AB0EE 		vmov.f32	s0, s16
  97 0120 FEFFFFEB 		bl	DoRotate
  98 0124 FEFFFFEB 		bl	timer_getTickCount
  99 0128 0060A0E1 		mov	r6, r0
 100 012c 0170A0E1 		mov	r7, r1
 101 0130 EAFFFFEA 		b	.L2
 102              	.L7:
 103              		.align	2
 104              	.L6:
 105 0134 0AD7233C 		.word	1008981770
 106 0138 00000000 		.word	0
 107              		.size	kernel_main, .-kernel_main
 108              		.global	model
 109              		.comm	halfScrHt,4,4
 110              		.comm	halfScrWth,4,4
 111              		.comm	__errno,4,4
 112              		.bss
 113              		.align	2
 114              		.set	.LANCHOR0,. + 0
ARM GAS  C:\Users\ldebo\AppData\Local\Temp\cc9oeUFF.s 			page 3


 115              		.type	model, %object
 116              		.size	model, 168
 117              	model:
 118 0000 00000000 		.space	168
 118      00000000 
 118      00000000 
 118      00000000 
 118      00000000 
 119              		.section	.rodata.str1.4,"aMS",%progbits,1
 120              		.align	2
 121              	.LC0:
 122 0000 5C737061 		.ascii	"\\spacecraft\\runner\\spacecraft.obj\000"
 122      63656372 
 122      6166745C 
 122      72756E6E 
 122      65725C73 
 123              		.ident	"GCC: (GNU Tools for ARM Embedded Processors 6-2017-q2-update) 6.3.1 20170620 (release) [AR
ARM GAS  C:\Users\ldebo\AppData\Local\Temp\cc9oeUFF.s 			page 4


DEFINED SYMBOLS
                            *ABS*:00000000 main.c
C:\Users\ldebo\AppData\Local\Temp\cc9oeUFF.s:14     .text:00000000 $a
C:\Users\ldebo\AppData\Local\Temp\cc9oeUFF.s:20     .text:00000000 kernel_main
                            *COM*:00000004 halfScrWth
                            *COM*:00000004 halfScrHt
C:\Users\ldebo\AppData\Local\Temp\cc9oeUFF.s:114    .bss:00000000 .LANCHOR0
C:\Users\ldebo\AppData\Local\Temp\cc9oeUFF.s:121    .rodata.str1.4:00000000 .LC0
C:\Users\ldebo\AppData\Local\Temp\cc9oeUFF.s:105    .text:00000134 $d
C:\Users\ldebo\AppData\Local\Temp\cc9oeUFF.s:117    .bss:00000000 model
                            *COM*:00000004 __errno
C:\Users\ldebo\AppData\Local\Temp\cc9oeUFF.s:113    .bss:00000000 $d
C:\Users\ldebo\AppData\Local\Temp\cc9oeUFF.s:120    .rodata.str1.4:00000000 $d

UNDEFINED SYMBOLS
InitV3D
ARM_setmaxspeed
PiConsole_Init
GetConsole_Width
GetConsole_Height
printf
sdInitCard
GetConsole_FrameBuffer
ARMaddrToGPUaddr
SetupRenderer
CreateVertexData
DoRotate
timer_getTickCount
RenderModel
tick_difference
ARM GAS  C:\Users\ldebo\AppData\Local\Temp\cc9oeUFF.s 			page 1


   1              	# 1 "SmartStart32.S"
   1              	﻿;@"+++++++++++++++++++++++++++++++++++++++++++++++++++++++++++++++++++++++++"
   0              	
   0              	
   2              	;@"																			"			
   3              	;@"      Filename: smartstart32.s											"
   4              	;@"      Copyright(c): Leon de Boer(LdB) 2017								"
   5              	;@"      Version: 2.02														"
   6              	;@"																			"		
   7              	;@"**************[ THIS CODE IS FREEWARE UNDER CC Attribution]**************"
   8              	;@"																            "
   9              	;@"     This sourcecode is released for the purpose to promote programming  "
  10              	;@"  on the Raspberry Pi. You may redistribute it and/or modify with the    "
  11              	;@"  following disclaimer and condition.                                    "
  12              	;@"																            "
  13              	;@"      The SOURCE CODE is distributed "AS IS" WITHOUT WARRANTIES AS TO    "
  14              	;@"   PERFORMANCE OF MERCHANTABILITY WHETHER EXPRESSED OR IMPLIED.          "
  15              	;@"   Redistributions of source code must retain the copyright notices to   "
  16              	;@"   maintain the author credit (attribution) .							"
  17              	;@"																			"
  18              	;@"*************************************************************************"
  19              	;@"                                                                         "
  20              	;@"       This code expands on my earlier SmartStart bootstub assembler for "
  21              	;@" the Pi 1/2/3. It simplifies some of the autodetect code but importantly "
  22              	;@" directly supports multicore operation in C/C++. To do that it provides  "
  23              	;@" stack space to each core and provides a modified bootloader spinlock    "
  24              	;@" that protects against registers R0-R3 trashed. As any C/C++ compiler    "
  25              	;@" code will trash those registers, to use C/C++ in multicore programming  "
  26              	;@" this protection must be done.											"
  27              	;@"      The downside is this bootstub must be a little more complex in     "
  28              	;@" that it must start and setup multiple cores. The code is much more      "
  29              	;@" connected to the linker file which provides memory space to each core.  "
  30              	;@"       There is however matching paired AARCH64 stub and linker files    "
  31              	;@" so code written for this setup can be ported to AARCH64 with ease.		"
  32              	;@"																            "
  33              	;@"+++++++++++++++++++++++++++++++++++++++++++++++++++++++++++++++++++++++++"
  34              	
  35              	;@"========================================================================="
  36              	;@"				 	 ARM CPU ID CONSTANT DEFINITIONS					    "
  37              	;@"========================================================================="
  38              	.equ ARM6_CPU_ID, 0x410FB767					;@ CPU id a BCM2835 reports
  39              	.equ ARM7_CPU_ID, 0x410FC073					;@ CPU id a BCM2836 reports
  40              	.equ ARM8_CPU_ID, 0x410FD034					;@ CPU id a BCM2837 reports
  41              	
  42              	;@"========================================================================="
  43              	;@"				 	 ARM CPU MODE CONSTANT DEFINITIONS					    "
  44              	;@"========================================================================="
  45              	.equ CPU_FIQMODE, 0x11							;@ CPU in FIQ mode
  46              	.equ CPU_IRQMODE, 0x12							;@ CPU in IRQ mode
  47              	.equ CPU_SVCMODE, 0x13							;@ CPU in SVC mode
  48              	.equ CPU_HYPMODE, 0x1A							;@ CPU in HYP mode
  49              	
  50              	;@"========================================================================="
  51              	;@"				 ARM CPU IRQ/FIQ BIT CONSTANT DEFINITIONS				    "
  52              	;@"========================================================================="
  53              	#define I_Bit  (1 << 7)							// Irq flag bit in cpsr (CPUMODE register)
  54              	#define F_Bit  (1 << 6)							// Fiq flag bit in cpsr (CPUMODE register)
ARM GAS  C:\Users\ldebo\AppData\Local\Temp\cc9oeUFF.s 			page 2


  55              	
  56              	;@"========================================================================="
  57              	;@"				 	 ARM CPU MODE CONSTANT DEFINITIONS					    "
  58              	;@"========================================================================="
  59              	.equ CPU_FIQMODE_VALUE, (CPU_FIQMODE | I_Bit | F_Bit)	;@ CPU in FIQ mode with irq, fiq off
  60              	.equ CPU_IRQMODE_VALUE, (CPU_IRQMODE | I_Bit | F_Bit)	;@ CPU in IRQ mode with irq, fiq off
  61              	.equ CPU_SVCMODE_VALUE, (CPU_SVCMODE | I_Bit | F_Bit)	;@ CPU in SVC mode with irq, fiq off
  62              	
  63              	;@"*************************************************************************"
  64              	;@"          INTERNAL DATA FOR SMARTSTART NOT EXPOSED TO INTERFACE			"
  65              	;@"*************************************************************************"
  66              	.section ".data.smartstart", "aw"
  67              	.balign 4
  68              	
  69 0000 00000000 	RPi_BusAlias	: .4byte 0;				// Address offset between VC4 physical address and ARM address needed f
  70              	
  71              	
  72              	
  73              	.globl RPi_CPUCurrentMode;				// Make sure RPi_CPUCurrentMode label is global
  74 0004 00000000 	RPi_CPUCurrentMode : .4byte 0;			//  CPU current Mode is 4 byte variable
  75              	
  76              	.globl RPi_Heap; @ Make sure RPi_Heap label is global
  77 0008 00000000 	RPi_Heap : .4byte 0; @ RPi_Heap is 4 byte variable
  78              	
  79              	.section ".text.startup", "ax", %progbits
  80              	.balign	4
  81              	.globl _start
  82              	.syntax unified
  83              	.arm
  84              	_start:
  85              	;@"================================================================"
  86              	;@ Grab cpu mode and start address and hold in a high register.
  87              	;@"================================================================"
  88 0000 0FC0A0E1 		mov r12, pc;							;@ Hold boot address in high register R12
  89 0004 00B00FE1 		mrs r11, CPSR							;@ Read current CPU mode
  90 0008 1FB00BE2 		and r11, r11, #0x1F						;@ Clear all but CPU mode bits in register r11
  91              	;@"================================================================"
  92              	;@ If the cpu is in HYP_MODE(EL2) we will bring it SVC_MODE (EL1).
  93              	;@"================================================================"
  94              	multicore_start:
  95 000c 00000FE1 	    mrs r0,cpsr								;@ Fetch the cpsr register which includes CPU mode bits 
  96 0010 1F1000E2 	 	and r1, r0, #0x1F						;@ Mask off the CPU mode bits to register r1                            
  97 0014 1A0051E3 	 	cmp r1, #CPU_HYPMODE					;@ Check we are in HYP_MODE											
  98 0018 0500001A 		bne .NotInHypMode						;@ Branch if not equal meaning was not in HYP_MODE  
  99 001c 1F00C0E3 		bic r0,r0,#0x1F							;@ Clear the CPU mode bits in register r0							
 100 0020 D30080E3 		orr r0, r0, #CPU_SVCMODE_VALUE			;@ SVC_MODE bits onto register with Irq/Fiq disabled	
 101 0024 00F06FE1 	    msr spsr_cxsf,r0						;@ Hold value in spsr_cxsf
 102 0028 04E08FE2 	    add lr,pc,#4							;@ Calculate address of .NotInHypMode label
 103              		/* I borrowed this trick from Ultibo because ARM6 code running on an ARM7/8 needs this opcode  */
 104              		/* The ARM6 compiler does not know these instructions so it is a way to get needed opcode here */
 105              	    /* So our ARM6 code can drop an arm7 or arm8 out of HYP mode and run on an ARM7/8.             
 106              	 	/* Native ARM7/8 compilers already understand the OPCODE but do not mind it this way either	   */
 107 002c 0EF32EE1 		.long 0xE12EF30E						;@ "msr ELR_hyp, lr" Set the address to ELR_hyp
 108 0030 6E0060E1 		.long 0xE160006E						;@ "eret" Elevated return which will exit at .NotInHypMode in SVC_MODE
 109              	.NotInHypMode:
 110              	;@"================================================================"
 111              	;@  Setup stack pointers for each core and each CPU operation mode
ARM GAS  C:\Users\ldebo\AppData\Local\Temp\cc9oeUFF.s 			page 3


 112              	;@"================================================================"
 113 0034 4C229FE5 	    ldr r2, = __SVC_stack_core0				;@ Address of svc_stack_core0 stack pointer value
 114 0038 4C329FE5 	    ldr r3, = __FIQ_stack_core0				;@ Address of fiq_stack_core0 stack pointer value
 115 003c 4C429FE5 	    ldr r4, = __IRQ_stack_core0				;@ Address of irq_stack_core0 stack pointer value
 116 0040 100F10EE 		mrc p15, 0, r0, c0, c0, 0				;@ Read CPU ID Register
 117 0044 48129FE5 		ldr r1, =#ARM6_CPU_ID					;@ Fetch ARM6_CPU_ID
 118 0048 000051E1 		cmp r1, r0								;@ Check for match
 119 004c 0F00000A 		beq set_svc_stack						;@ ARM6 only has 1 core so goto set svc_stack
 120 0050 B05F10EE 		mrc p15, 0, r5, c0, c0, 5				;@ Read core id on ARM7 & ARM8
 121 0054 035015E2 		ands r5, r5, #0x3						;@ Make cpu id bitmask
 122 0058 0C00000A 		beq set_svc_stack						;@ This is core 0 so set got set svc_stack
 123 005c 34229FE5 	    ldr r2, = __SVC_stack_core1				;@ Address of svc_stack_core1 stack pointer value
 124 0060 34329FE5 	    ldr r3, = __FIQ_stack_core1				;@ Address of fiq_stack_core1 stack pointer value
 125 0064 34429FE5 	    ldr r4, = __IRQ_stack_core1				;@ Address of irq_stack_core1 stack pointer value
 126 0068 010055E3 		cmp r5, #1								;@ Check cpu id for core 1
 127 006c 0700000A 		beq set_svc_stack						;@ This is core 1 so set svc_stack
 128 0070 2C229FE5 	    ldr r2, = __SVC_stack_core2				;@ Address of svc_stack_core2 stack pointer value
 129 0074 2C329FE5 	    ldr r3, = __FIQ_stack_core2				;@ Address of fiq_stack_core2 stack pointer value
 130 0078 2C429FE5 	    ldr r4, = __IRQ_stack_core2				;@ Address of irq_stack_core2 stack pointer value
 131 007c 020055E3 		cmp r5, #2								;@ Check cpu id for core 2
 132 0080 0200000A 		beq set_svc_stack						;@ This is core 2 so set svc_stack
 133 0084 24229FE5 	    ldr r2, = __SVC_stack_core3				;@ Address of svc_stack_core3 stack pointer value
 134 0088 24329FE5 	    ldr r3, = __FIQ_stack_core3				;@ Address of fiq_stack_core3 stack pointer value
 135 008c 24429FE5 	    ldr r4, = __IRQ_stack_core3				;@ Address of irq_stack_core3 stack pointer value
 136              	set_svc_stack:
 137 0090 02D0A0E1 		mov sp, r2								;@ Set the stack pointer for SVC_MODE 
 138 0094 00000FE1 	    mrs r0,cpsr								;@ Fetch the cpsr register which includes CPU mode bits 
 139 0098 1F00C0E3 		bic r0,r0,#0x1F							;@ Clear the CPU mode bits in register r0							
 140 009c D10080E3 		orr r0, r0, #CPU_FIQMODE_VALUE			;@ FIQ_MODE bits onto register with Irq/Fiq disabled
 141 00a0 00F021E1 	    msr CPSR_c, r0							;@ Switch to FIQ_MODE
 142 00a4 03D0A0E1 		mov sp, r3								;@ Set the stack pointer for FIQ_MODE 
 143 00a8 1F00C0E3 		bic r0,r0,#0x1F							;@ Clear the CPU mode bits in register r0	
 144 00ac D20080E3 		orr r0, r0, #CPU_IRQMODE_VALUE			;@ IRQ_MODE bits onto register with Irq/Fiq disabled	
 145 00b0 00F021E1 	    msr CPSR_c, r0							;@ Switch to IRQ_MODE
 146 00b4 04D0A0E1 		mov sp, r4								;@ Set the stack pointer for IRQ_MODE 
 147 00b8 1F00C0E3 		bic r0,r0,#0x1F							;@ Clear the CPU mode bits in register r0							
 148 00bc D30080E3 		orr r0, r0, #CPU_SVCMODE_VALUE			;@ SVC_MODE bits onto register with Irq/Fiq disabled	
 149 00c0 00F021E1 	    msr CPSR_c, r0							;@ Switch to SVC_MODE again all stacks ready to go
 150              	@"================================================================"
 151              	;@ PI NSACR regsister setup for access to floating point unit
 152              	;@ Cortex A-7 => Section 4.3.34. Non-Secure Access Control Register
 153              	;@ Cortex A-53 => Section 4.5.32. Non-Secure Access Control Register
 154              	;@"================================================================"
 155 00c4 510F11EE 		mrc p15, 0, r0, c1, c1, 2				;@ Read NSACR into R0
 156 00c8 030B50E3 		cmp r0, #0x00000C00						;@ Access turned on or in AARCH32 mode and can not touch register or EL3 
 157 00cc 0100000A 		beq .free_to_enable_fpu1
 158 00d0 030B80E3 		orr r0, r0, #0x3<<10					;@ Set access to both secure and non secure modes
 159 00d4 510F01EE 		mcr p15, 0, r0, c1, c1, 2				;@ Write NSACR
 160              	;@"================================================================"
 161              	;@ Bring fpu online
 162              	;@"================================================================"
 163              	.free_to_enable_fpu1:
 164 00d8 500F11EE 		mrc p15, 0, r0, c1, c0, #2				;@ R0 = Access Control Register
 165 00dc 0F0680E3 		orr r0, #(0x300000 + 0xC00000)			;@ Enable Single & Double Precision
 166 00e0 500F01EE 		mcr p15,0,r0,c1,c0, #2					;@ Access Control Register = R0
 167 00e4 0101A0E3 		mov r0, #0x40000000						;@ R0 = Enable VFP
 168 00e8 100AE8EE 		vmsr fpexc, r0							;@ FPEXC = R0
ARM GAS  C:\Users\ldebo\AppData\Local\Temp\cc9oeUFF.s 			page 4


 169              	;@"================================================================"
 170              	;@ Enable L1 cache
 171              	;@"================================================================"
 172              	.equ SCTLR_ENABLE_DATA_CACHE,			0x4
 173              	.equ SCTLR_ENABLE_BRANCH_PREDICTION,	0x800
 174              	.equ SCTLR_ENABLE_INSTRUCTION_CACHE,	0x1000
 175 00ec 100F11EE 	    mrc p15,0,r0,c1,c0,0					;@ R0 = System Control Register
 176              	
 177              	    /* Enable caches and branch prediction */
 178 00f0 020B80E3 	    orr r0, #SCTLR_ENABLE_BRANCH_PREDICTION
 179 00f4 040080E3 	    orr r0, #SCTLR_ENABLE_DATA_CACHE
 180 00f8 010A80E3 	    orr r0, #SCTLR_ENABLE_INSTRUCTION_CACHE
 181              	
 182 00fc 100F01EE 	    mcr p15,0,r0,c1,c0,0					;@ System Control Register = R0
 183              	;@"================================================================"
 184              	;@ Check if BC2835 and if so branch over multi-core park routine
 185              	;@"================================================================"
 186 0100 100F10EE 		mrc p15,0,r0,c0,c0,0					;@ Read CPU ID Register
 187 0104 88119FE5 		ldr r1, =#ARM6_CPU_ID					;@ fetch ARM6_CPU_ID
 188 0108 000051E1 		cmp r1, r0								;@ Check for match
 189 010c 0700000A 		beq .cpu0_exit_multicore_park			;@ Branch as Arm6 has only 1 CPU 
 190              	;@"================================================================"
 191              	;@ Now park Core 1,2,3 into secondary spinloop on BCM2836, BCM2837
 192              	;@ If bootloader is used this will not happen but booting with the
 193              	;@ "OldKernel=1" from 0x0000 this can happen. Core 0 continues on.
 194              	;@"================================================================"
 195 0110 B00F10EE 		mrc p15, 0, r0, c0, c0, 5				;@ Read core id on ARM7 & ARM8
 196 0114 030010E2 		ands r0, r0, #0x3					    ;@ Make core 2 bit bitmask in R0
 197 0118 0400000A 		beq  .cpu0_exit_multicore_park			;@ Core 0 jumps out
 198 011c 98119FE5 		ldr r1, =RPi_CoresReady					;@ Address of CoreReady count
 199 0120 000091E5 		ldr r0, [r1]							;@ Load current core count 
 200 0124 010080E2 		add r0, r0, #1							;@ Add one as core about to go ready
 201 0128 000081E5 		str r0, [r1]							;@ Update CoreReady count
 202 012c 810000EA 		b    SecondarySpin						;@ Jump to setup secondary spin
 203              	.cpu0_exit_multicore_park:
 204              	;@"================================================================"
 205              	;@ Now store initial CPU boot mode and address we might need later.
 206              	;@"================================================================"
 207 0130 88119FE5 		ldr r1, =RPi_BootAddr					;@ Address to hold Boot address
 208 0134 08C04CE2 		sub r12, #8								;@ Subtract op-code offset
 209 0138 00C081E5 		str r12, [r1]							;@ Save the boot address we started at
 210 013c 80119FE5 		ldr r1, =RPi_CPUBootMode				;@ Memory address to save this CPU boot mode
 211 0140 00B081E5 		str r11, [r1]							;@ Save the boot mode we started in
 212              	;@"================================================================"
 213              	;@  Initial CPU core ready so set CoreReady count to 1.
 214              	;@"================================================================"
 215 0144 0100A0E3 		mov r0, #1								;@ Core0 is will be ready
 216 0148 6C119FE5 		ldr r1, =RPi_CoresReady					;@ Memory address to save Cores ready
 217 014c 000081E5 		str r0, [r1]							;@ Set RPi_CoresReady to 1
 218              	;@"================================================================"
 219              	;@ Fetch and hold CPU changed mode. If we changed modes this value
 220              	;@ will now reflect a change from the original held RPi_CPUBootMode.
 221              	;@"================================================================"
 222 0150 00200FE1 		mrs r2, CPSR
 223 0154 1F2002E2 		and r2, r2, #0x1F						;@ Clear all but CPU mode bits in register r2
 224 0158 68119FE5 		ldr r1, =RPi_CPUCurrentMode
 225 015c 002081E5 		str r2, [r1]							;@ Hold the changed CPU mode
ARM GAS  C:\Users\ldebo\AppData\Local\Temp\cc9oeUFF.s 			page 5


 226              	;@"================================================================"
 227              	;@ Read the Arm Main CPUID register => sets RPi_CpuId
 228              	;@"================================================================"
 229 0160 64119FE5 		ldr r1, =RPi_CpuId						;@ Address to hold CPU id
 230 0164 100F10EE 		mrc p15, 0, r0, c0, c0, 0				;@ Read Main ID Register
 231 0168 000081E5 		str r0, [r1]							;@ Save CPU Id for interface 
 232              	;@"================================================================"
 233              	;@ Store the compiler mode in RPi_CompileMode
 234              	;@"================================================================"
 235 016c 000020E0 		eor r0, r0, r0;							;@ Zero register
 236              	.if (__ARM_ARCH == 6)						// Compiling for ARM6
 237              		mov r0, #0x06							;@ Compiled for ARM6 CPU
 238              	.endif
 239              	.if (__ARM_ARCH == 7)						// Compiling for ARM7
 240              		mov r0, #0x07							;@ Compiled for ARM7 CPU
 241              	.endif
 242              	.if (__ARM_ARCH == 8)						// Compiling for ARM8
 243 0170 0800A0E3 		mov r0, #0x08							;@ Compiled for ARM8 CPU
 244              	.endif
 245 0174 800080E3 		orr r0, r0, #(4 << 5)					;@ Code is setup to support 4 cores			
 246 0178 50119FE5 		ldr r1, =RPi_CompileMode
 247 017c 000081E5 		str r0, [r1]							;@ Store the compiler mode  
 248              	;;@"================================================================"
 249              	;@ Try Auto-Detect Raspberry PI IO base address at 1st position
 250              	;@"================================================================"
 251 0180 4C219FE5 		ldr r2, =#0x61757830
 252 0184 4C119FE5 		ldr r1, =#0x20215010
 253 0188 000091E5 		ldr r0, [r1]							;@ Fetch value at 0x20215010 being uart0
 254 018c 000052E1 		cmp r2, r0;								;@ Check if we have the value the uart0 will be at reset
 255 0190 0600001A 		bne .not_at_address_1
 256              	;@"================================================================"
 257              	;@  Raspberry PI IO base address was detected as 0x20000000
 258              	;@  RPi_IO_Base_Addr => 0x20000000
 259              	;@"================================================================"
 260 0194 40119FE5 		ldr r1, =RPi_BusAlias
 261 0198 0101A0E3 		mov	r0, #0x40000000
 262 019c 000081E5 		str	r0, [r1]							;@ Hold bus alias
 263 01a0 38119FE5 		ldr r1, =RPi_IO_Base_Addr
 264 01a4 0202A0E3 		mov	r0, #0x20000000
 265 01a8 000081E5 		str	r0, [r1]							;@ Hold the detected address
 266 01ac 0A0000EA 		b .autodetect_done;
 267              	;@"================================================================"
 268              	;@ Try Auto-Detect Raspberry PI IO base address at 2nd position
 269              	;@"================================================================"
 270              	.not_at_address_1:
 271 01b0 2C119FE5 		ldr r1, =#0x3f215010
 272 01b4 000091E5 		ldr r0, [r1]							;@ Fetch value at 0x3f215010
 273 01b8 000052E1 		cmp r2, r0								;@ Check if we have the value the uart0 will be at reset
 274 01bc 0000000A 		beq .At2ndAddress
 275              	;@"================================================================"
 276              	;@ ** Auto-Detected failed, not safe to do anything but deadloop **
 277              	;@ Would love to be display an error state but no ability on Pi
 278              	;@"================================================================"
 279              	.pi_detect_fail:
 280 01c0 FEFFFFEA 	    b .pi_detect_fail
 281              	;@"================================================================"
 282              	;@  Raspberry PI IO base address was detected as 0x3f000000
ARM GAS  C:\Users\ldebo\AppData\Local\Temp\cc9oeUFF.s 			page 6


 283              	;@  RPi_IO_Base_Addr => 0x3f000000
 284              	;@"================================================================"
 285              	.At2ndAddress:
 286 01c4 10119FE5 		ldr r1, =RPi_BusAlias
 287 01c8 0301A0E3 		mov	r0, #0xC0000000
 288 01cc 000081E5 		str	r0, [r1]							;@ Hold bus alias
 289              	;@ Pi2 address 0x3f000000
 290 01d0 08119FE5 		ldr r1, =RPi_IO_Base_Addr
 291 01d4 3F04A0E3 		mov	r0, #0x3f000000						;@ Hold the detected address
 292 01d8 000081E5 		str	r0, [r1]
 293              	.autodetect_done:
 294              	;@"================================================================"
 295              	;@  We are getting close to handing over to C so we need to copy the 
 296              	;@  ISR table to position 0x0000 so interrupts can be used if wanted 
 297              	;@"================================================================"
 298 01dc 04019FE5 		ldr r0, = _isr_Table					;@ Address of isr_Table
 299 01e0 0010A0E3 		mov     r1, #0x0000						;@ Destination 0x0000
 300 01e4 FC03B0E8 	    ldmia   r0!,{r2, r3, r4, r5, r6, r7, r8, r9}
 301 01e8 FC03A1E8 	    stmia   r1!,{r2, r3, r4, r5, r6, r7, r8, r9}
 302 01ec FC03B0E8 	    ldmia   r0!,{r2, r3, r4, r5, r6, r7, r8, r9}
 303 01f0 FC03A1E8 	    stmia   r1!,{r2, r3, r4, r5, r6, r7, r8, r9}
 304              	;@"================================================================"
 305              	;@ Now Clear the .BSS segment as the C compiler expects us to do
 306              	;@"================================================================"
 307 01f4 F0009FE5 		ldr   r0, =__bss_start__
 308 01f8 F0109FE5 		ldr   r1, =__bss_end__	
 309 01fc 0020A0E3 		mov   r2, #0
 310              	.clear_bss:
 311 0200 010050E1 	    cmp   r0, r1
 312 0204 020000AA 	    bge   .clear_bss_exit
 313 0208 002080E5 	    str   r2, [r0]
 314 020c 040080E2 		add   r0, r0, #4
 315 0210 FAFFFFEA 	    b .clear_bss
 316              	.clear_bss_exit:
 317              	;@"================================================================"
 318              	;@ Bring Core 1,2,3 to secondary spin if not an ARM6 and bootloaded
 319              	;@"================================================================"
 320 0214 100F10EE 		mrc p15,0,r0,c0,c0,0					;@ Read Main ID Register
 321 0218 74109FE5 		ldr r1, =#ARM6_CPU_ID					;@ fetch ARM6_CPU_ID
 322 021c 000051E1 		cmp r1, r0								;@ Check for match
 323 0220 1600000A 		beq .NoMultiCoreSetup					;@ ARM6 jumps as no multicore
 324 0224 94109FE5 		ldr r1, =RPi_BootAddr					;@ Address to hold Boot address
 325 0228 000091E5 		ldr r0, [r1]							;@ Fetch bootAddress
 326 022c 0219A0E3 		ldr r1, =#0x8000						;@ Check against 0x8000
 327 0230 000051E1 		cmp r1, r0								;@ Check for match	
 328 0234 1100001A 		bne .NoMultiCoreSetup					;@ Not bootladed so jump multicore setup
 329 0238 0111A0E3 	 	mov	r1, #1073741824						;@ 0x40000000
 330 023c B0209FE5 	    ldr r2, =multicore_start				;@ Address of CoreSetup call
 331 0240 9C2081E5 		str	r2, [r1, #156]						;@ Write ExtraCoreSetup to 0x4000009C which signals core1 to jump
 332 0244 70309FE5 	 	ldr r3, =RPi_CoresReady					;@ Address of CoreReady count
 333              	.WaitCore1ACK:
 334 0248 001093E5 		ldr	r1, [r3]							;@ Read CoreReady
 335 024c 020051E3 		cmp	r1, #2								;@ Wait for setting of second core ready
 336 0250 FCFFFF0A 		beq	.WaitCore1ACK						;@ Core1 not ready so read again
 337 0254 0111A0E3 	 	mov	r1, #1073741824						;@ 0x40000000
 338 0258 94209FE5 	    ldr r2, =multicore_start				;@ Address of CoreSetup call
 339 025c AC2081E5 		str	r2, [r1, #172]						;@ Write ExtraCoreSetup to 0x400000AC which signals core2 to jump
ARM GAS  C:\Users\ldebo\AppData\Local\Temp\cc9oeUFF.s 			page 7


 340              	.WaitCore2ACK:
 341 0260 001093E5 		ldr	r1, [r3]							;@ Read CoreReady count
 342 0264 030051E3 		cmp	r1, #3								;@ Wair for setting of third core ready
 343 0268 FCFFFF0A 		beq	.WaitCore2ACK						;@ Core2 not ready so read again
 344 026c 0111A0E3 	 	mov	r1, #1073741824						;@ 0x40000000
 345 0270 BC2081E5 		str	r2, [r1, #188]						;@ Write ExtraCoreSetup to 0x400000BC which signals core3 to jump
 346              	.WaitCore3ACK:
 347 0274 001093E5 		ldr	r1, [r3]							;@ Read CoreReady count
 348 0278 040051E3 		cmp	r1, #4								;@ check for ACK
 349 027c FCFFFF0A 		beq	.WaitCore3ACK						;@ Core2 not ready so read again
 350              	.NoMultiCoreSetup:
 351              	;@"================================================================"
 352              	;@ Finally that all done jump to the C compiler entry point
 353              	;@"================================================================"
 354 0280 FEFFFFEB 	   	 bl kernel_main
 355              	hang:
 356 0284 FEFFFFEA 		b hang
 357              	.balign	4
 358 0288 00000000 	.ltorg									;@ Tell assembler ltorg data for this code can go here
 358      00000000 
 358      00000000 
 358      67B70F41 
 358      00000000 
 359              	
 360              	_isr_Table:
 361 02f8 18F09FE5 	    ldr pc, _reset_h
 362 02fc 18F09FE5 	    ldr pc, _undefined_instruction_vector_h
 363 0300 18F09FE5 	    ldr pc, _software_interrupt_vector_h
 364 0304 18F09FE5 	    ldr pc, _prefetch_abort_vector_h
 365 0308 18F09FE5 	    ldr pc, _data_abort_vector_h
 366 030c 18F09FE5 	    ldr pc, _unused_handler_h
 367 0310 18F09FE5 	    ldr pc, _interrupt_vector_h
 368 0314 18F09FE5 	    ldr pc, _fast_interrupt_vector_h
 369              	
 370 0318 00000000 	_reset_h:                           .word   _start
 371 031c 84020000 	_undefined_instruction_vector_h:    .word   hang
 372 0320 84020000 	_software_interrupt_vector_h:       .word   hang
 373 0324 84020000 	_prefetch_abort_vector_h:           .word   hang
 374 0328 84020000 	_data_abort_vector_h:               .word   hang
 375 032c 84020000 	_unused_handler_h:                  .word   hang
 376 0330 1C000000 	_interrupt_vector_h:                .word   _irq_handler_stub
 377 0334 84020000 	_fast_interrupt_vector_h:           .word   hang	
 378              	
 379              	
 380              	/*++++++++++++++++++++++++++++++++++++++++++++++++++++++++++++++++++++++++++}
 381              	{    Modified bootloader Spin loop but tolerant on registers R0-R3 for C    }
 382              	{++++++++++++++++++++++++++++++++++++++++++++++++++++++++++++++++++++++++++*/
 383              	.balign	4
 384              	SecondarySpin:
 385 0338 B00F10EE 		mrc     p15, 0, r0, c0, c0, 5
 386 033c 030010E2 		ands r0, r0, #0x3					    // Make core 2 bit bitmask in R0
 387 0340 44509FE5 		ldr r5, =mbox		
 388 0344 005095E5 		ldr r5, [r5]		@ mbox
 389 0348 0030A0E3 		mov	r3, #0			@ magic
 390 034c 405085E2 		add	r5, #(0x400000CC-0x4000008C)	@ mbox
 391              	SecondarySpinLoop:
 392 0350 004295E7 		ldr	r4, [r5, r0, lsl #4]
ARM GAS  C:\Users\ldebo\AppData\Local\Temp\cc9oeUFF.s 			page 8


 393 0354 030054E1 		cmp	r4, r3
 394 0358 FCFFFF0A 		beq	SecondarySpinLoop
 395              	@ clear mailbox
 396 035c 004285E7 		str	r4, [r5, r0, lsl #4]
 397 0360 0000A0E3 		mov	r0, #0
 398 0364 24109FE5 		ldr r1, =machid		
 399 0368 001091E5 		ldr r1, [r1]		@ BCM2708 machine id
 400 036c 20209FE5 		ldr r2, = atags		
 401 0370 002092E5 		ldr r2, [r2]		@ ATAGS
 402 0374 1CE09FE5 		ldr lr, =SecondarySpin
 403 0378 14FF2FE1 		bx	r4
 404 037c EDFFFFEA 		b SecondarySpin
 405 0380 8C000040 	mbox: 	.4byte 0x4000008C
 406 0384 420C0000 	machid:	.4byte 3138
 407 0388 00010000 	atags:  .4byte 0x100
 408              	.balign	4
 409 038c 80030000 	.ltorg										;@ Tell assembler ltorg data for this code can go here
 409      84030000 
 409      88030000 
 409      38030000 
 410              	
 411              	.globl RPi_CpuIdString
 412              	RPi_CpuIdString:
 413 039c 34009FE5 		ldr r0, =ARM6_STR						
 414 03a0 102F10EE 		mrc p15,0,r2,c0,c0,0					;@ Read Main ID Register
 415 03a4 30109FE5 		ldr r1, =#ARM6_CPU_ID					;@ Fetch ARM6_CPU_ID
 416 03a8 020051E1 		cmp r1, r2								;@ Check for match	
 417 03ac 0800000A 		beq CpuIdStringDone
 418 03b0 28009FE5 		ldr r0, =ARM7_STR
 419 03b4 28109FE5 		ldr r1, =#ARM7_CPU_ID					;@ Fetch ARM7_CPU_ID
 420 03b8 020051E1 		cmp r1, r2								;@ Check for match
 421 03bc 0400000A 		beq CpuIdStringDone
 422 03c0 20009FE5 		ldr r0, =ARM8_STR
 423 03c4 20109FE5 		ldr r1, =#ARM8_CPU_ID					;@ Fetch ARM8_CPU_ID
 424 03c8 020051E1 		cmp r1, r2								;@ Check for match
 425 03cc 0000000A 		beq CpuIdStringDone	
 426 03d0 18009FE5 		ldr r0, =ARMX_STR
 427              	CpuIdStringDone:
 428 03d4 1EFF2FE1 		bx  lr									;@ Return
 429              	.balign	4
 430 03d8 00000000 	.ltorg										;@ Tell assembler ltorg data for this code can go here
 430      67B70F41 
 430      0E000000 
 430      73C00F41 
 430      19000000 
 431              	
 432              	.globl EnableInterrupts
 433              	EnableInterrupts:
 434 03f4 800008F1 		cpsie i									;@ Enable IRQ
 435 03f8 1EFF2FE1 		bx  lr									;@ Return
 436              	
 437              	.globl DisableInterrupts
 438              	DisableInterrupts:
 439 03fc 80000CF1 	    cpsid i									;@ Disable IRQ
 440 0400 1EFF2FE1 		bx  lr									;@ Return
 441              	
 442              	
ARM GAS  C:\Users\ldebo\AppData\Local\Temp\cc9oeUFF.s 			page 9


 443              	.globl CoreExecute
 444              	CoreExecute:
 445 0404 FF0010E2 		ands r0, r0, #255
 446 0408 0700000A 		beq CoreExecuteFail
 447 040c 20309FE5 		ldr r3, =RPi_CoresReady
 448 0410 002093E5 		ldr r2, [r3]							// Fetch cores ready count
 449 0414 020050E1 		cmp r0, r2
 450 0418 0300002A 		bcs	CoreExecuteFail
 451 041c 14309FE5 		ldr r3, =#0x4000008C					// Load address of spins
 452 0420 001283E7 		str r1, [r3, r0, lsl #4]				// Save caller address
 453 0424 0100A0E3 		mov r0, #1
 454 0428 1EFF2FE1 		bx  lr
 455              	CoreExecuteFail:
 456 042c 0000A0E3 		mov r0, #0
 457 0430 1EFF2FE1 		bx  lr
 458              	.balign	4
 459 0434 00000000 	.ltorg										// Tell assembler ltorg data for this code can go here
 459      8C000040 
 460              	
 461              	/*++++++++++++++++++++++++++++++++++++++++++++++++++++++++++++++++++++++++++}
 462              	{			MEMORY HELPER ROUTINES PROVIDE BY RPi-SmartStart API		    }
 463              	{++++++++++++++++++++++++++++++++++++++++++++++++++++++++++++++++++++++++++*/
 464              	
 465              	/* "PROVIDE C FUNCTION: uint32_t ARMaddrToGPUaddr (void* ARMaddress);" */
 466              	.section .text.ARMaddrToGPUaddr, "ax", %progbits
 467              	.balign	4
 468              	.globl ARMaddrToGPUaddr;		
 469              	.type ARMaddrToGPUaddr, %function
 470              	.syntax unified
 471              	.arm
 472              	;@"================================================================"
 473              	;@ ARMaddrToGPUaddr -- Composite Pi1, Pi2 & Pi3 code
 474              	;@ C Function: uint32_t ARMaddrToGPUaddr (void* ARMaddress);
 475              	;@ Entry: R0 will have ARMAddress value
 476              	;@"================================================================"
 477              	ARMaddrToGPUaddr:
 478 0000 08109FE5 		ldr r1, =RPi_BusAlias
 479 0004 001091E5 	    ldr r1,[r1]								;@ Fetch bus alias	
 480 0008 010080E1 		orr r0, r0, r1							;@ Create bus address
 481 000c 1EFF2FE1 		bx   lr									;@ Return
 482              	.balign	4
 483 0010 00000000 	.ltorg										;@ Tell assembler ltorg data for this code can go here
 484              	.size	ARMaddrToGPUaddr, .-ARMaddrToGPUaddr
 485              	
 486              	
 487              	/* "PROVIDE C FUNCTION: uint32_t GPUaddrToARMaddr (uint32_t BUSaddress);" */
 488              	.section .text.GPUaddrToARMaddr, "ax", %progbits
 489              	.balign	4
 490              	.globl GPUaddrToARMaddr;		
 491              	.type GPUaddrToARMaddr, %function
 492              	.syntax unified
 493              	.arm
 494              	;@"================================================================"
 495              	;@ GPUaddrToARMaddr -- Composite Pi1, Pi2 & Pi3 code
 496              	;@ C Function: uint32_t GPUaddrToARMaddr (uint32_t BUSaddress);
 497              	;@ Entry: R0 will have GPUAddress value
 498              	;@"================================================================"
ARM GAS  C:\Users\ldebo\AppData\Local\Temp\cc9oeUFF.s 			page 10


 499              	GPUaddrToARMaddr:
 500 0000 08109FE5 		ldr r1, =RPi_BusAlias
 501 0004 001091E5 	    ldr r1,[r1]								;@ Fetch bus alias	
 502 0008 0100C0E1 		bic r0, r0, r1							;@ Create arm address
 503 000c 1EFF2FE1 		bx   lr									;@ Return
 504              	.balign	4
 505 0010 00000000 	.ltorg										;@ Tell assembler ltorg data for this code can go here
 506              	.size	GPUaddrToARMaddr, .-GPUaddrToARMaddr
 507              	
 508              	/* Provide weak reference c_irq_handler so if user does not use it functions as dummy */
 509              	.weak c_irq_handler
 510              	c_irq_handler:
 511 0014 1EFF2FE1 		bx  lr									;@ Return
 512              	
 513              	/* Provide weak reference c_irq_identify_and_clear_source so if user does not use it functions as d
 514              	.weak c_irq_identify_and_clear_source
 515              	c_irq_identify_and_clear_source:
 516 0018 1EFF2FE1 		bx  lr									;@ Return
 517              	
 518              	/* Re-entrant interrupt handler stub */
 519              	/* http://infocenter.arm.com/help/index.jsp?topic=/com.arm.doc.faqs/ka13552.html */
 520              	_irq_handler_stub:
 521 001c 04E04EE2 	    sub lr, lr, #4							;@ Use SRS to save LR_irq and SPSP_irq
 522 0020 13056DF9 	    srsfd sp!, #0x13						;@ on to the SVC mode stack
 523              	
 524 0024 130002F1 	    cps #0x13								;@ Switch to SVC mode
 525 0028 0F102DE9 	    push {r0-r3, r12}						;@ Store AAPCS regs on to SVC stack
 526              	
 527 002c 0D10A0E1 	    mov r1, sp
 528 0030 041001E2 	    and r1, r1, #4							;@ Ensure 8-byte stack alignment…
 529 0034 01D04DE0 	    sub sp, sp, r1							;@ …adjust stack as necessary
 530 0038 02402DE9 	    push {r1, lr}							;@ Store adjustment and LR_svc
 531              	
 532 003c FEFFFFEB 	    bl c_irq_identify_and_clear_source		;@ Clear IRQ source
 533 0040 800008F1 	    cpsie i									;@ Enable IRQ
 534 0044 FEFFFFEB 	    bl c_irq_handler						;@ Branch to 2nd level handler
 535 0048 80000CF1 	    cpsid i									;@ Disable IRQ
 536              	
 537 004c 0240BDE8 	    pop {r1, lr}							;@ Restore LR_svc
 538 0050 01D08DE0 	    add sp, sp, r1							;@ Un-adjust stack
 539              	
 540 0054 0F10BDE8 	    pop {r0-r3, r12}						;@ Restore AAPCS registers
 541 0058 000ABDF8 	    rfefd sp!								;@ Return from the SVC mode stack
 542              	
 543              	.section .text._sbrk, "ax", %progbits
 544              	.balign	4
 545              	.globl _sbrk;			
 546              	.type _sbrk, %function
 547              	.syntax unified
 548              	.arm
 549              	_sbrk:
 550 0000 1C209FE5 	        ldr     r2, =RPi_Heap
 551 0004 1C109FE5 	        ldr     r1, =_end
 552 0008 003092E5 	        ldr     r3, [r2]
 553 000c 000053E3 	        cmp     r3, #0
 554 0010 0130A001 	        moveq   r3, r1
 555 0014 000083E0 	        add     r0, r3, r0
ARM GAS  C:\Users\ldebo\AppData\Local\Temp\cc9oeUFF.s 			page 11


 556 0018 000082E5 	        str     r0, [r2]
 557 001c 0300A0E1 	        mov     r0, r3
 558 0020 1EFF2FE1 	        bx      lr
 559              	.balign	4
 560 0024 00000000 	.ltorg										;@ Tell assembler ltorg data for this code can go here
 560      00000000 
 561              	.size	_sbrk, .-_sbrk
 562              	
 563              	/*==========================================================================}
 564              	;{					  CPU STRING CONSTANT DEFINITIONS					    }
 565              	;{=========================================================================*/
 566              	.section ".rodata.cpuid", "a", %progbits
 567              	.balign	4
 568 0000 61726D31 	ARM6_STR: .string "arm1176jzf-s\0"
 568      3137366A 
 568      7A662D73 
 568      0000
 569 000e 636F7274 	ARM7_STR: .string "cortex-a7\0"
 569      65782D61 
 569      370000
 570 0019 636F7274 	ARM8_STR: .string "cortex-a53\0"
 570      65782D61 
 570      35330000 
 571 0025 756E6B6E 	ARMX_STR: .string "unknown ARM cpu\0"
 571      6F776E20 
 571      41524D20 
 571      63707500 
 571      00
 572              	
 573              	/****************************************************************
 574              	       	   DATA FOR SMARTSTART32 EXPOSED TO INTERFACE 
 575              	****************************************************************/
 576              	.section ".data.smartstart32", "aw"
 577              	.balign 4
 578              	
 579              	.globl RPi_IO_Base_Addr;				// Make sure Pi_IO_Base_Addr label is global
 580 0000 00000000 	RPi_IO_Base_Addr : .4byte 0;			// Peripheral Base addr is 4 byte variable in 32bit mode
 581              	
 582              	.globl RPi_BootAddr;					// Make sure RPi_BootAddr label is global
 583 0004 00000000 	RPi_BootAddr : .4byte 0;				// CPU boot address is 4 byte variable in 32bit mode
 584              	
 585              	.globl RPi_CoresReady;					// Make sure RPi_CoresReady label is global
 586 0008 00000000 	RPi_CoresReady : .4byte 0;				// CPU cores ready for use is 4 byte variable in 32bit mode
 587              	
 588              	.globl RPi_CPUBootMode;					// Make sure RPi_CPUBootMode label is global
 589 000c 00000000 	RPi_CPUBootMode : .4byte 0;				// CPU Boot Mode is 4 byte variable in 32bit mode
 590              	
 591              	.globl RPi_CpuId;						// Make sure RPi_CpuId label is global
 592 0010 00000000 	RPi_CpuId : .4byte 0;					// CPU Id is 4 byte variable in 32bit mode
 593              	
 594              	.globl RPi_CompileMode;					// Make sure RPi_CompileMode label is global
 595 0014 00000000 	RPi_CompileMode : .4byte 0;				// Compile mode is 4 byte variable in 32bit mode...
ARM GAS  C:\Users\ldebo\AppData\Local\Temp\cc9oeUFF.s 			page 12


DEFINED SYMBOLS
      SmartStart32.S:38     *ABS*:410fb767 ARM6_CPU_ID
      SmartStart32.S:39     *ABS*:410fc073 ARM7_CPU_ID
      SmartStart32.S:40     *ABS*:410fd034 ARM8_CPU_ID
      SmartStart32.S:45     *ABS*:00000011 CPU_FIQMODE
      SmartStart32.S:46     *ABS*:00000012 CPU_IRQMODE
      SmartStart32.S:47     *ABS*:00000013 CPU_SVCMODE
      SmartStart32.S:48     *ABS*:0000001a CPU_HYPMODE
      SmartStart32.S:59     *ABS*:000000d1 CPU_FIQMODE_VALUE
      SmartStart32.S:60     *ABS*:000000d2 CPU_IRQMODE_VALUE
      SmartStart32.S:61     *ABS*:000000d3 CPU_SVCMODE_VALUE
      SmartStart32.S:67     .data.smartstart:00000000 $d
      SmartStart32.S:69     .data.smartstart:00000000 RPi_BusAlias
      SmartStart32.S:74     .data.smartstart:00000004 RPi_CPUCurrentMode
      SmartStart32.S:77     .data.smartstart:00000008 RPi_Heap
      SmartStart32.S:80     .text.startup:00000000 $a
      SmartStart32.S:84     .text.startup:00000000 _start
      SmartStart32.S:94     .text.startup:0000000c multicore_start
      SmartStart32.S:109    .text.startup:00000034 .NotInHypMode
      SmartStart32.S:107    .text.startup:0000002c $d
      SmartStart32.S:113    .text.startup:00000034 $a
      SmartStart32.S:136    .text.startup:00000090 set_svc_stack
      SmartStart32.S:163    .text.startup:000000d8 .free_to_enable_fpu1
      SmartStart32.S:172    *ABS*:00000004 SCTLR_ENABLE_DATA_CACHE
      SmartStart32.S:173    *ABS*:00000800 SCTLR_ENABLE_BRANCH_PREDICTION
      SmartStart32.S:174    *ABS*:00001000 SCTLR_ENABLE_INSTRUCTION_CACHE
      SmartStart32.S:203    .text.startup:00000130 .cpu0_exit_multicore_park
      SmartStart32.S:586    .data.smartstart32:00000008 RPi_CoresReady
      SmartStart32.S:384    .text.startup:00000338 SecondarySpin
      SmartStart32.S:583    .data.smartstart32:00000004 RPi_BootAddr
      SmartStart32.S:589    .data.smartstart32:0000000c RPi_CPUBootMode
      SmartStart32.S:592    .data.smartstart32:00000010 RPi_CpuId
      SmartStart32.S:595    .data.smartstart32:00000014 RPi_CompileMode
      SmartStart32.S:270    .text.startup:000001b0 .not_at_address_1
      SmartStart32.S:580    .data.smartstart32:00000000 RPi_IO_Base_Addr
      SmartStart32.S:293    .text.startup:000001dc .autodetect_done
      SmartStart32.S:285    .text.startup:000001c4 .At2ndAddress
      SmartStart32.S:279    .text.startup:000001c0 .pi_detect_fail
      SmartStart32.S:360    .text.startup:000002f8 _isr_Table
      SmartStart32.S:310    .text.startup:00000200 .clear_bss
      SmartStart32.S:316    .text.startup:00000214 .clear_bss_exit
      SmartStart32.S:350    .text.startup:00000280 .NoMultiCoreSetup
      SmartStart32.S:333    .text.startup:00000248 .WaitCore1ACK
      SmartStart32.S:340    .text.startup:00000260 .WaitCore2ACK
      SmartStart32.S:346    .text.startup:00000274 .WaitCore3ACK
      SmartStart32.S:355    .text.startup:00000284 hang
      SmartStart32.S:358    .text.startup:00000288 $d
      SmartStart32.S:370    .text.startup:00000318 _reset_h
      SmartStart32.S:361    .text.startup:000002f8 $a
      SmartStart32.S:371    .text.startup:0000031c _undefined_instruction_vector_h
      SmartStart32.S:372    .text.startup:00000320 _software_interrupt_vector_h
      SmartStart32.S:373    .text.startup:00000324 _prefetch_abort_vector_h
      SmartStart32.S:374    .text.startup:00000328 _data_abort_vector_h
      SmartStart32.S:375    .text.startup:0000032c _unused_handler_h
      SmartStart32.S:376    .text.startup:00000330 _interrupt_vector_h
      SmartStart32.S:377    .text.startup:00000334 _fast_interrupt_vector_h
      SmartStart32.S:370    .text.startup:00000318 $d
ARM GAS  C:\Users\ldebo\AppData\Local\Temp\cc9oeUFF.s 			page 13


      SmartStart32.S:520    .text.GPUaddrToARMaddr:0000001c _irq_handler_stub
      SmartStart32.S:383    .text.startup:00000338 $a
      SmartStart32.S:405    .text.startup:00000380 mbox
      SmartStart32.S:391    .text.startup:00000350 SecondarySpinLoop
      SmartStart32.S:406    .text.startup:00000384 machid
      SmartStart32.S:407    .text.startup:00000388 atags
      SmartStart32.S:405    .text.startup:00000380 $d
      SmartStart32.S:409    .text.startup:0000038c $d
      SmartStart32.S:412    .text.startup:0000039c RPi_CpuIdString
      SmartStart32.S:568    .rodata.cpuid:00000000 ARM6_STR
      SmartStart32.S:413    .text.startup:0000039c $a
      SmartStart32.S:427    .text.startup:000003d4 CpuIdStringDone
      SmartStart32.S:569    .rodata.cpuid:0000000e ARM7_STR
      SmartStart32.S:570    .rodata.cpuid:00000019 ARM8_STR
      SmartStart32.S:571    .rodata.cpuid:00000025 ARMX_STR
      SmartStart32.S:430    .text.startup:000003d8 $d
      SmartStart32.S:433    .text.startup:000003f4 EnableInterrupts
      SmartStart32.S:434    .text.startup:000003f4 $a
      SmartStart32.S:438    .text.startup:000003fc DisableInterrupts
      SmartStart32.S:444    .text.startup:00000404 CoreExecute
      SmartStart32.S:455    .text.startup:0000042c CoreExecuteFail
      SmartStart32.S:459    .text.startup:00000434 $d
      SmartStart32.S:467    .text.ARMaddrToGPUaddr:00000000 $a
      SmartStart32.S:477    .text.ARMaddrToGPUaddr:00000000 ARMaddrToGPUaddr
      SmartStart32.S:483    .text.ARMaddrToGPUaddr:00000010 $d
      SmartStart32.S:489    .text.GPUaddrToARMaddr:00000000 $a
      SmartStart32.S:499    .text.GPUaddrToARMaddr:00000000 GPUaddrToARMaddr
      SmartStart32.S:505    .text.GPUaddrToARMaddr:00000010 $d
      SmartStart32.S:510    .text.GPUaddrToARMaddr:00000014 c_irq_handler
      SmartStart32.S:511    .text.GPUaddrToARMaddr:00000014 $a
      SmartStart32.S:515    .text.GPUaddrToARMaddr:00000018 c_irq_identify_and_clear_source
      SmartStart32.S:544    .text._sbrk:00000000 $a
      SmartStart32.S:549    .text._sbrk:00000000 _sbrk
      SmartStart32.S:560    .text._sbrk:00000024 $d
      SmartStart32.S:567    .rodata.cpuid:00000000 $d
      SmartStart32.S:577    .data.smartstart32:00000000 $d

UNDEFINED SYMBOLS
__SVC_stack_core0
__FIQ_stack_core0
__IRQ_stack_core0
__SVC_stack_core1
__FIQ_stack_core1
__IRQ_stack_core1
__SVC_stack_core2
__FIQ_stack_core2
__IRQ_stack_core2
__SVC_stack_core3
__FIQ_stack_core3
__IRQ_stack_core3
__bss_start__
__bss_end__
kernel_main
_end
ARM GAS  C:\Users\ldebo\AppData\Local\Temp\cc9oeUFF.s 			page 1


   1              		.arch armv8-a
   2              		.eabi_attribute 28, 1
   3              		.eabi_attribute 20, 1
   4              		.eabi_attribute 21, 1
   5              		.eabi_attribute 23, 3
   6              		.eabi_attribute 24, 1
   7              		.eabi_attribute 25, 1
   8              		.eabi_attribute 26, 1
   9              		.eabi_attribute 30, 2
  10              		.eabi_attribute 34, 0
  11              		.eabi_attribute 18, 4
  12              		.file	"rpi-SmartStart.c"
  13              		.text
  14              		.align	2
  15              		.syntax unified
  16              		.arm
  17              		.fpu neon-vfpv4
  18              		.type	ClearArea16, %function
  19              	ClearArea16:
  20              		@ args = 4, pretend = 0, frame = 0
  21              		@ frame_needed = 0, uses_anonymous_args = 0
  22 0000 F0472DE9 		push	{r4, r5, r6, r7, r8, r9, r10, lr}
  23 0004 048090E5 		ldr	r8, [r0, #4]
  24 0008 20909DE5 		ldr	r9, [sp, #32]
  25 000c 005090E5 		ldr	r5, [r0]
  26 0010 029059E0 		subs	r9, r9, r2
  27 0014 2AE0D0E5 		ldrb	lr, [r0, #42]	@ zero_extendqisi2
  28 0018 921822E0 		mla	r2, r2, r8, r1
  29 001c 29C0D0E5 		ldrb	ip, [r0, #41]	@ zero_extendqisi2
  30 0020 2840D0E5 		ldrb	r4, [r0, #40]	@ zero_extendqisi2
  31 0024 825085E0 		add	r5, r5, r2, lsl #1
  32 0028 F087BD08 		popeq	{r4, r5, r6, r7, r8, r9, r10, pc}
  33 002c 013053E0 		subs	r3, r3, r1
  34 0030 8880A0E1 		lsl	r8, r8, #1
  35 0034 F087BD08 		popeq	{r4, r5, r6, r7, r8, r9, r10, pc}
  36 0038 2C01A0E1 		lsr	r0, ip, #2
  37 003c AEE1A0E1 		lsr	lr, lr, #3
  38 0040 07C000E2 		and	ip, r0, #7
  39 0044 A441A0E1 		lsr	r4, r4, #3
  40 0048 8370A0E1 		lsl	r7, r3, #1
  41 004c A001A0E1 		lsr	r0, r0, #3
  42 0050 0060A0E3 		mov	r6, #0
  43 0054 8CC2A0E1 		lsl	ip, ip, #5
  44              	.L3:
  45 0058 0520A0E1 		mov	r2, r5
  46 005c 071085E0 		add	r1, r5, r7
  47              	.L4:
  48 0060 0130D2E5 		ldrb	r3, [r2, #1]	@ zero_extendqisi2
  49 0064 0CA084E1 		orr	r10, r4, ip
  50 0068 00A0C2E5 		strb	r10, [r2]
  51 006c 022082E2 		add	r2, r2, #2
  52 0070 0730C3E3 		bic	r3, r3, #7
  53 0074 003083E1 		orr	r3, r3, r0
  54 0078 9E31C7E7 		bfi	r3, lr, #3, #5
  55 007c 013042E5 		strb	r3, [r2, #-1]
  56 0080 020051E1 		cmp	r1, r2
  57 0084 F5FFFF1A 		bne	.L4
ARM GAS  C:\Users\ldebo\AppData\Local\Temp\cc9oeUFF.s 			page 2


  58 0088 016086E2 		add	r6, r6, #1
  59 008c 085085E0 		add	r5, r5, r8
  60 0090 090056E1 		cmp	r6, r9
  61 0094 EFFFFF1A 		bne	.L3
  62 0098 F087BDE8 		pop	{r4, r5, r6, r7, r8, r9, r10, pc}
  63              		.size	ClearArea16, .-ClearArea16
  64              		.align	2
  65              		.syntax unified
  66              		.arm
  67              		.fpu neon-vfpv4
  68              		.type	VertLine16, %function
  69              	VertLine16:
  70              		@ args = 0, pretend = 0, frame = 0
  71              		@ frame_needed = 0, uses_anonymous_args = 0
  72 009c F0472DE9 		push	{r4, r5, r6, r7, r8, r9, r10, lr}
  73 00a0 000051E3 		cmp	r1, #0
  74 00a4 045090E5 		ldr	r5, [r0, #4]
  75 00a8 149090E5 		ldr	r9, [r0, #20]
  76 00ac 10E090E5 		ldr	lr, [r0, #16]
  77 00b0 8550A0E1 		lsl	r5, r5, #1
  78 00b4 00C090E5 		ldr	ip, [r0]
  79 00b8 2260D0E5 		ldrb	r6, [r0, #34]	@ zero_extendqisi2
  80 00bc 2140D0E5 		ldrb	r4, [r0, #33]	@ zero_extendqisi2
  81 00c0 990503E0 		mul	r3, r9, r5
  82 00c4 2070D0E5 		ldrb	r7, [r0, #32]	@ zero_extendqisi2
  83 00c8 8E3083E0 		add	r3, r3, lr, lsl #1
  84 00cc 0C3083E0 		add	r3, r3, ip
  85 00d0 1300000A 		beq	.L18
  86 00d4 2441A0E1 		lsr	r4, r4, #2
  87 00d8 010052E3 		cmp	r2, #1
  88 00dc 078004E2 		and	r8, r4, #7
  89 00e0 A661A0E1 		lsr	r6, r6, #3
  90 00e4 A771A0E1 		lsr	r7, r7, #3
  91 00e8 A441A0E1 		lsr	r4, r4, #3
  92 00ec 00E0A0E3 		mov	lr, #0
  93 00f0 8882A0E1 		lsl	r8, r8, #5
  94 00f4 0D00000A 		beq	.L19
  95              	.L17:
  96 00f8 01C0D3E5 		ldrb	ip, [r3, #1]	@ zero_extendqisi2
  97 00fc 01E08EE2 		add	lr, lr, #1
  98 0100 0E0051E1 		cmp	r1, lr
  99 0104 08A087E1 		orr	r10, r7, r8
 100 0108 07C0CCE3 		bic	ip, ip, #7
 101 010c 00A0C3E5 		strb	r10, [r3]
 102 0110 04C08CE1 		orr	ip, ip, r4
 103 0114 96C1C7E7 		bfi	ip, r6, #3, #5
 104 0118 01C0C3E5 		strb	ip, [r3, #1]
 105 011c 053043E0 		sub	r3, r3, r5
 106 0120 F4FFFF1A 		bne	.L17
 107              	.L18:
 108 0124 919221E0 		mla	r1, r1, r2, r9
 109 0128 141080E5 		str	r1, [r0, #20]
 110 012c F087BDE8 		pop	{r4, r5, r6, r7, r8, r9, r10, pc}
 111              	.L19:
 112 0130 01C0D3E5 		ldrb	ip, [r3, #1]	@ zero_extendqisi2
 113 0134 01E08EE2 		add	lr, lr, #1
 114 0138 0E0051E1 		cmp	r1, lr
ARM GAS  C:\Users\ldebo\AppData\Local\Temp\cc9oeUFF.s 			page 3


 115 013c 08A087E1 		orr	r10, r7, r8
 116 0140 07C0CCE3 		bic	ip, ip, #7
 117 0144 00A0C3E5 		strb	r10, [r3]
 118 0148 04C08CE1 		orr	ip, ip, r4
 119 014c 96C1C7E7 		bfi	ip, r6, #3, #5
 120 0150 01C0C3E5 		strb	ip, [r3, #1]
 121 0154 053083E0 		add	r3, r3, r5
 122 0158 F4FFFF1A 		bne	.L19
 123 015c F0FFFFEA 		b	.L18
 124              		.size	VertLine16, .-VertLine16
 125              		.align	2
 126              		.syntax unified
 127              		.arm
 128              		.fpu neon-vfpv4
 129              		.type	HorzLine16, %function
 130              	HorzLine16:
 131              		@ args = 0, pretend = 0, frame = 0
 132              		@ frame_needed = 0, uses_anonymous_args = 0
 133 0160 04C090E5 		ldr	ip, [r0, #4]
 134 0164 000051E3 		cmp	r1, #0
 135 0168 F0472DE9 		push	{r4, r5, r6, r7, r8, r9, r10, lr}
 136 016c 109090E5 		ldr	r9, [r0, #16]
 137 0170 14E090E5 		ldr	lr, [r0, #20]
 138 0174 8CC0A0E1 		lsl	ip, ip, #1
 139 0178 2250D0E5 		ldrb	r5, [r0, #34]	@ zero_extendqisi2
 140 017c 8930A0E1 		lsl	r3, r9, #1
 141 0180 2140D0E5 		ldrb	r4, [r0, #33]	@ zero_extendqisi2
 142 0184 2060D0E5 		ldrb	r6, [r0, #32]	@ zero_extendqisi2
 143 0188 9E3C2CE0 		mla	ip, lr, ip, r3
 144 018c 003090E5 		ldr	r3, [r0]
 145 0190 03C08CE0 		add	ip, ip, r3
 146 0194 1200000A 		beq	.L27
 147 0198 2441A0E1 		lsr	r4, r4, #2
 148 019c A551A0E1 		lsr	r5, r5, #3
 149 01a0 077004E2 		and	r7, r4, #7
 150 01a4 A661A0E1 		lsr	r6, r6, #3
 151 01a8 A441A0E1 		lsr	r4, r4, #3
 152 01ac 8280A0E1 		lsl	r8, r2, #1
 153 01b0 00E0A0E3 		mov	lr, #0
 154 01b4 8772A0E1 		lsl	r7, r7, #5
 155              	.L26:
 156 01b8 0130DCE5 		ldrb	r3, [ip, #1]	@ zero_extendqisi2
 157 01bc 01E08EE2 		add	lr, lr, #1
 158 01c0 0E0051E1 		cmp	r1, lr
 159 01c4 07A086E1 		orr	r10, r6, r7
 160 01c8 0730C3E3 		bic	r3, r3, #7
 161 01cc 00A0CCE5 		strb	r10, [ip]
 162 01d0 043083E1 		orr	r3, r3, r4
 163 01d4 9531C7E7 		bfi	r3, r5, #3, #5
 164 01d8 0130CCE5 		strb	r3, [ip, #1]
 165 01dc 08C08CE0 		add	ip, ip, r8
 166 01e0 F4FFFF1A 		bne	.L26
 167              	.L27:
 168 01e4 919221E0 		mla	r1, r1, r2, r9
 169 01e8 101080E5 		str	r1, [r0, #16]
 170 01ec F087BDE8 		pop	{r4, r5, r6, r7, r8, r9, r10, pc}
 171              		.size	HorzLine16, .-HorzLine16
ARM GAS  C:\Users\ldebo\AppData\Local\Temp\cc9oeUFF.s 			page 4


 172              		.align	2
 173              		.syntax unified
 174              		.arm
 175              		.fpu neon-vfpv4
 176              		.type	DiagLine16, %function
 177              	DiagLine16:
 178              		@ args = 4, pretend = 0, frame = 16
 179              		@ frame_needed = 0, uses_anonymous_args = 0
 180 01f0 F04F2DE9 		push	{r4, r5, r6, r7, r8, r9, r10, fp, lr}
 181 01f4 020051E1 		cmp	r1, r2
 182 01f8 04B090E5 		ldr	fp, [r0, #4]
 183 01fc 14D04DE2 		sub	sp, sp, #20
 184 0200 14C090E5 		ldr	ip, [r0, #20]
 185 0204 0120A031 		movcc	r2, r1
 186 0208 000051E3 		cmp	r1, #0
 187 020c 0CE0A0E1 		mov	lr, ip
 188 0210 2270D0E5 		ldrb	r7, [r0, #34]	@ zero_extendqisi2
 189 0214 04308DE5 		str	r3, [sp, #4]
 190 0218 103090E5 		ldr	r3, [r0, #16]
 191 021c 0CC08DE5 		str	ip, [sp, #12]
 192 0220 8BC0A0E1 		lsl	ip, fp, #1
 193 0224 08308DE5 		str	r3, [sp, #8]
 194 0228 8330A0E1 		lsl	r3, r3, #1
 195 022c 2160D0E5 		ldrb	r6, [r0, #33]	@ zero_extendqisi2
 196 0230 9E3C2CE0 		mla	ip, lr, ip, r3
 197 0234 003090E5 		ldr	r3, [r0]
 198 0238 2080D0E5 		ldrb	r8, [r0, #32]	@ zero_extendqisi2
 199 023c 03C08CE0 		add	ip, ip, r3
 200 0240 1B00000A 		beq	.L35
 201 0244 38309DE5 		ldr	r3, [sp, #56]
 202 0248 2661A0E1 		lsr	r6, r6, #2
 203 024c 079006E2 		and	r9, r6, #7
 204 0250 0050A0E3 		mov	r5, #0
 205 0254 A771A0E1 		lsr	r7, r7, #3
 206 0258 A881A0E1 		lsr	r8, r8, #3
 207 025c 8330A0E1 		lsl	r3, r3, #1
 208 0260 A661A0E1 		lsr	r6, r6, #3
 209 0264 8992A0E1 		lsl	r9, r9, #5
 210 0268 05E0A0E1 		mov	lr, r5
 211 026c 9B030BE0 		mul	fp, fp, r3
 212 0270 04309DE5 		ldr	r3, [sp, #4]
 213 0274 83A0A0E1 		lsl	r10, r3, #1
 214              	.L34:
 215 0278 0130DCE5 		ldrb	r3, [ip, #1]	@ zero_extendqisi2
 216 027c 02E08EE0 		add	lr, lr, r2
 217 0280 094088E1 		orr	r4, r8, r9
 218 0284 0E0051E1 		cmp	r1, lr
 219 0288 0730C3E3 		bic	r3, r3, #7
 220 028c 015085E2 		add	r5, r5, #1
 221 0290 063083E1 		orr	r3, r3, r6
 222 0294 0040CCE5 		strb	r4, [ip]
 223 0298 9731C7E7 		bfi	r3, r7, #3, #5
 224 029c 01E04E90 		subls	lr, lr, r1
 225 02a0 0130CCE5 		strb	r3, [ip, #1]
 226 02a4 0AC08CE0 		add	ip, ip, r10
 227 02a8 0BC08C90 		addls	ip, ip, fp
 228 02ac 050051E1 		cmp	r1, r5
ARM GAS  C:\Users\ldebo\AppData\Local\Temp\cc9oeUFF.s 			page 5


 229 02b0 F0FFFF1A 		bne	.L34
 230              	.L35:
 231 02b4 08109DE9 		ldmib	sp, {r3, ip}
 232 02b8 91C321E0 		mla	r1, r1, r3, ip
 233 02bc 38309DE5 		ldr	r3, [sp, #56]
 234 02c0 0CC09DE5 		ldr	ip, [sp, #12]
 235 02c4 101080E5 		str	r1, [r0, #16]
 236 02c8 92C322E0 		mla	r2, r2, r3, ip
 237 02cc 142080E5 		str	r2, [r0, #20]
 238 02d0 14D08DE2 		add	sp, sp, #20
 239              		@ sp needed
 240 02d4 F08FBDE8 		pop	{r4, r5, r6, r7, r8, r9, r10, fp, pc}
 241              		.size	DiagLine16, .-DiagLine16
 242              		.align	2
 243              		.syntax unified
 244              		.arm
 245              		.fpu neon-vfpv4
 246              		.type	WriteChar16, %function
 247              	WriteChar16:
 248              		@ args = 0, pretend = 0, frame = 24
 249              		@ frame_needed = 0, uses_anonymous_args = 0
 250 02d8 F04F2DE9 		push	{r4, r5, r6, r7, r8, r9, r10, fp, lr}
 251 02dc 003000E3 		movw	r3, #:lower16:.LANCHOR0
 252 02e0 003040E3 		movt	r3, #:upper16:.LANCHOR0
 253 02e4 1CD04DE2 		sub	sp, sp, #28
 254 02e8 10C090E5 		ldr	ip, [r0, #16]
 255 02ec 012283E0 		add	r2, r3, r1, lsl #4
 256 02f0 04A090E5 		ldr	r10, [r0, #4]
 257 02f4 0230A0E1 		mov	r3, r2
 258 02f8 042042E2 		sub	r2, r2, #4
 259 02fc 145090E5 		ldr	r5, [r0, #20]
 260 0300 0C3083E2 		add	r3, r3, #12
 261 0304 08208DE5 		str	r2, [sp, #8]
 262 0308 0020A0E1 		mov	r2, r0
 263 030c 22B0D0E5 		ldrb	fp, [r0, #34]	@ zero_extendqisi2
 264 0310 8AA0A0E1 		lsl	r10, r10, #1
 265 0314 14008DE5 		str	r0, [sp, #20]
 266 0318 8C00A0E1 		lsl	r0, ip, #1
 267 031c 10C08DE5 		str	ip, [sp, #16]
 268 0320 02C0A0E1 		mov	ip, r2
 269 0324 2110D2E5 		ldrb	r1, [r2, #33]	@ zero_extendqisi2
 270 0328 950A25E0 		mla	r5, r5, r10, r0
 271 032c 2020D2E5 		ldrb	r2, [r2, #32]	@ zero_extendqisi2
 272 0330 ABB1A0E1 		lsr	fp, fp, #3
 273 0334 0C308DE5 		str	r3, [sp, #12]
 274 0338 2690DCE5 		ldrb	r9, [ip, #38]	@ zero_extendqisi2
 275 033c 2111A0E1 		lsr	r1, r1, #2
 276 0340 00309CE5 		ldr	r3, [ip]
 277 0344 A221A0E1 		lsr	r2, r2, #3
 278 0348 2580DCE5 		ldrb	r8, [ip, #37]	@ zero_extendqisi2
 279 034c 2470DCE5 		ldrb	r7, [ip, #36]	@ zero_extendqisi2
 280 0350 035085E0 		add	r5, r5, r3
 281 0354 08309DE5 		ldr	r3, [sp, #8]
 282 0358 A991A0E1 		lsr	r9, r9, #3
 283 035c 2881A0E1 		lsr	r8, r8, #2
 284 0360 00108DE5 		str	r1, [sp]
 285 0364 A771A0E1 		lsr	r7, r7, #3
ARM GAS  C:\Users\ldebo\AppData\Local\Temp\cc9oeUFF.s 			page 6


 286 0368 04208DE5 		str	r2, [sp, #4]
 287              	.L43:
 288 036c 04E0B3E5 		ldr	lr, [r3, #4]!
 289 0370 0000A0E3 		mov	r0, #0
 290 0374 08308DE5 		str	r3, [sp, #8]
 291              	.L42:
 292 0378 00005EE3 		cmp	lr, #0
 293 037c 0810A0E1 		mov	r1, r8
 294 0380 0730A0E1 		mov	r3, r7
 295 0384 072000E2 		and	r2, r0, #7
 296 0388 0940A0E1 		mov	r4, r9
 297 038c 010080E2 		add	r0, r0, #1
 298 0390 0A009DB8 		ldmlt	sp, {r1, r3}
 299 0394 82C085E0 		add	ip, r5, r2, lsl #1
 300 0398 0B40A0B1 		movlt	r4, fp
 301 039c 070052E3 		cmp	r2, #7
 302 03a0 8EE0A0E1 		lsl	lr, lr, #1
 303 03a4 076001E2 		and	r6, r1, #7
 304 03a8 863283E1 		orr	r3, r3, r6, lsl #5
 305 03ac 8230C5E7 		strb	r3, [r5, r2, lsl #1]
 306 03b0 0A508500 		addeq	r5, r5, r10
 307 03b4 200050E3 		cmp	r0, #32
 308 03b8 0130DCE5 		ldrb	r3, [ip, #1]	@ zero_extendqisi2
 309 03bc 0730C3E3 		bic	r3, r3, #7
 310 03c0 A11183E1 		orr	r1, r3, r1, lsr #3
 311 03c4 9411C7E7 		bfi	r1, r4, #3, #5
 312 03c8 0110CCE5 		strb	r1, [ip, #1]
 313 03cc E9FFFF1A 		bne	.L42
 314 03d0 08309DE5 		ldr	r3, [sp, #8]
 315 03d4 0C209DE5 		ldr	r2, [sp, #12]
 316 03d8 020053E1 		cmp	r3, r2
 317 03dc E2FFFF1A 		bne	.L43
 318 03e0 14209DE5 		ldr	r2, [sp, #20]
 319 03e4 10309DE5 		ldr	r3, [sp, #16]
 320 03e8 083083E2 		add	r3, r3, #8
 321 03ec 103082E5 		str	r3, [r2, #16]
 322 03f0 1CD08DE2 		add	sp, sp, #28
 323              		@ sp needed
 324 03f4 F08FBDE8 		pop	{r4, r5, r6, r7, r8, r9, r10, fp, pc}
 325              		.size	WriteChar16, .-WriteChar16
 326              		.align	2
 327              		.syntax unified
 328              		.arm
 329              		.fpu neon-vfpv4
 330              		.type	TransparentWriteChar16, %function
 331              	TransparentWriteChar16:
 332              		@ args = 0, pretend = 0, frame = 8
 333              		@ frame_needed = 0, uses_anonymous_args = 0
 334 03f8 F04F2DE9 		push	{r4, r5, r6, r7, r8, r9, r10, fp, lr}
 335 03fc 003000E3 		movw	r3, #:lower16:.LANCHOR0
 336 0400 003040E3 		movt	r3, #:upper16:.LANCHOR0
 337 0404 046090E5 		ldr	r6, [r0, #4]
 338 0408 0CD04DE2 		sub	sp, sp, #12
 339 040c 102090E5 		ldr	r2, [r0, #16]
 340 0410 01A283E0 		add	r10, r3, r1, lsl #4
 341 0414 144090E5 		ldr	r4, [r0, #20]
 342 0418 0A30A0E1 		mov	r3, r10
ARM GAS  C:\Users\ldebo\AppData\Local\Temp\cc9oeUFF.s 			page 7


 343 041c 2150D0E5 		ldrb	r5, [r0, #33]	@ zero_extendqisi2
 344 0420 8660A0E1 		lsl	r6, r6, #1
 345 0424 04208DE5 		str	r2, [sp, #4]
 346 0428 8220A0E1 		lsl	r2, r2, #1
 347 042c 2290D0E5 		ldrb	r9, [r0, #34]	@ zero_extendqisi2
 348 0430 0CB083E2 		add	fp, r3, #12
 349 0434 2551A0E1 		lsr	r5, r5, #2
 350 0438 2070D0E5 		ldrb	r7, [r0, #32]	@ zero_extendqisi2
 351 043c 078005E2 		and	r8, r5, #7
 352 0440 942624E0 		mla	r4, r4, r6, r2
 353 0444 003090E5 		ldr	r3, [r0]
 354 0448 04A04AE2 		sub	r10, r10, #4
 355 044c A551A0E1 		lsr	r5, r5, #3
 356 0450 A991A0E1 		lsr	r9, r9, #3
 357 0454 034084E0 		add	r4, r4, r3
 358 0458 8882A0E1 		lsl	r8, r8, #5
 359 045c A771A0E1 		lsr	r7, r7, #3
 360              	.L52:
 361 0460 0420BAE5 		ldr	r2, [r10, #4]!
 362 0464 0030A0E3 		mov	r3, #0
 363 0468 030000EA 		b	.L51
 364              	.L49:
 365 046c 070051E3 		cmp	r1, #7
 366 0470 06408400 		addeq	r4, r4, r6
 367 0474 200053E3 		cmp	r3, #32
 368 0478 1000000A 		beq	.L56
 369              	.L51:
 370 047c 000052E3 		cmp	r2, #0
 371 0480 071003E2 		and	r1, r3, #7
 372 0484 8220A0E1 		lsl	r2, r2, #1
 373 0488 013083E2 		add	r3, r3, #1
 374 048c F6FFFFAA 		bge	.L49
 375 0490 81E084E0 		add	lr, r4, r1, lsl #1
 376 0494 08C087E1 		orr	ip, r7, r8
 377 0498 81C0C4E7 		strb	ip, [r4, r1, lsl #1]
 378 049c 070051E3 		cmp	r1, #7
 379 04a0 06408400 		addeq	r4, r4, r6
 380 04a4 200053E3 		cmp	r3, #32
 381 04a8 01C0DEE5 		ldrb	ip, [lr, #1]	@ zero_extendqisi2
 382 04ac 07C0CCE3 		bic	ip, ip, #7
 383 04b0 05C08CE1 		orr	ip, ip, r5
 384 04b4 99C1C7E7 		bfi	ip, r9, #3, #5
 385 04b8 01C0CEE5 		strb	ip, [lr, #1]
 386 04bc EEFFFF1A 		bne	.L51
 387              	.L56:
 388 04c0 0B005AE1 		cmp	r10, fp
 389 04c4 E5FFFF1A 		bne	.L52
 390 04c8 04309DE5 		ldr	r3, [sp, #4]
 391 04cc 083083E2 		add	r3, r3, #8
 392 04d0 103080E5 		str	r3, [r0, #16]
 393 04d4 0CD08DE2 		add	sp, sp, #12
 394              		@ sp needed
 395 04d8 F08FBDE8 		pop	{r4, r5, r6, r7, r8, r9, r10, fp, pc}
 396              		.size	TransparentWriteChar16, .-TransparentWriteChar16
 397              		.align	2
 398              		.syntax unified
 399              		.arm
ARM GAS  C:\Users\ldebo\AppData\Local\Temp\cc9oeUFF.s 			page 8


 400              		.fpu neon-vfpv4
 401              		.type	PutImage16, %function
 402              	PutImage16:
 403              		@ args = 4, pretend = 0, frame = 8
 404              		@ frame_needed = 0, uses_anonymous_args = 0
 405 04dc F04F2DE9 		push	{r4, r5, r6, r7, r8, r9, r10, fp, lr}
 406 04e0 009052E2 		subs	r9, r2, #0
 407 04e4 048090E5 		ldr	r8, [r0, #4]
 408 04e8 144090E5 		ldr	r4, [r0, #20]
 409 04ec 0CD04DE2 		sub	sp, sp, #12
 410 04f0 10C090E5 		ldr	ip, [r0, #16]
 411 04f4 8880A0E1 		lsl	r8, r8, #1
 412 04f8 002090E5 		ldr	r2, [r0]
 413 04fc 30B0DDE5 		ldrb	fp, [sp, #48]	@ zero_extendqisi2
 414 0500 940804E0 		mul	r4, r4, r8
 415 0504 8C4084E0 		add	r4, r4, ip, lsl #1
 416 0508 024084E0 		add	r4, r4, r2
 417 050c 1700000A 		beq	.L57
 418 0510 000051E3 		cmp	r1, #0
 419 0514 1500000A 		beq	.L57
 420 0518 0350A0E1 		mov	r5, r3
 421 051c 0160A0E1 		mov	r6, r1
 422 0520 8130A0E1 		lsl	r3, r1, #1
 423 0524 0070A0E3 		mov	r7, #0
 424 0528 04308DE5 		str	r3, [sp, #4]
 425              	.L63:
 426 052c 00A0A0E3 		mov	r10, #0
 427              	.L60:
 428 0530 8A00A0E1 		lsl	r0, r10, #1
 429 0534 0220A0E3 		mov	r2, #2
 430 0538 001085E0 		add	r1, r5, r0
 431 053c 01A08AE2 		add	r10, r10, #1
 432 0540 000084E0 		add	r0, r4, r0
 433 0544 FEFFFFEB 		bl	memcpy
 434 0548 0A0056E1 		cmp	r6, r10
 435 054c F7FFFF1A 		bne	.L60
 436 0550 00005BE3 		cmp	fp, #0
 437 0554 017087E2 		add	r7, r7, #1
 438 0558 0600000A 		beq	.L61
 439 055c 070059E1 		cmp	r9, r7
 440 0560 04309DE5 		ldr	r3, [sp, #4]
 441 0564 084044E0 		sub	r4, r4, r8
 442 0568 035085E0 		add	r5, r5, r3
 443 056c EEFFFF1A 		bne	.L63
 444              	.L57:
 445 0570 0CD08DE2 		add	sp, sp, #12
 446              		@ sp needed
 447 0574 F08FBDE8 		pop	{r4, r5, r6, r7, r8, r9, r10, fp, pc}
 448              	.L61:
 449 0578 070059E1 		cmp	r9, r7
 450 057c 04309DE5 		ldr	r3, [sp, #4]
 451 0580 084084E0 		add	r4, r4, r8
 452 0584 035085E0 		add	r5, r5, r3
 453 0588 E7FFFF1A 		bne	.L63
 454 058c 0CD08DE2 		add	sp, sp, #12
 455              		@ sp needed
 456 0590 F08FBDE8 		pop	{r4, r5, r6, r7, r8, r9, r10, fp, pc}
ARM GAS  C:\Users\ldebo\AppData\Local\Temp\cc9oeUFF.s 			page 9


 457              		.size	PutImage16, .-PutImage16
 458              		.align	2
 459              		.syntax unified
 460              		.arm
 461              		.fpu neon-vfpv4
 462              		.type	ClearArea24, %function
 463              	ClearArea24:
 464              		@ args = 4, pretend = 0, frame = 0
 465              		@ frame_needed = 0, uses_anonymous_args = 0
 466 0594 F0472DE9 		push	{r4, r5, r6, r7, r8, r9, r10, lr}
 467 0598 048090E5 		ldr	r8, [r0, #4]
 468 059c 20909DE5 		ldr	r9, [sp, #32]
 469 05a0 005090E5 		ldr	r5, [r0]
 470 05a4 029059E0 		subs	r9, r9, r2
 471 05a8 921822E0 		mla	r2, r2, r8, r1
 472 05ac 822082E0 		add	r2, r2, r2, lsl #1
 473 05b0 055082E0 		add	r5, r2, r5
 474 05b4 F087BD08 		popeq	{r4, r5, r6, r7, r8, r9, r10, pc}
 475 05b8 017053E0 		subs	r7, r3, r1
 476 05bc 888088E0 		add	r8, r8, r8, lsl #1
 477 05c0 F087BD08 		popeq	{r4, r5, r6, r7, r8, r9, r10, pc}
 478 05c4 877087E0 		add	r7, r7, r7, lsl #1
 479 05c8 286080E2 		add	r6, r0, #40
 480 05cc 00A0A0E3 		mov	r10, #0
 481              	.L71:
 482 05d0 0040A0E3 		mov	r4, #0
 483              	.L72:
 484 05d4 0320A0E3 		mov	r2, #3
 485 05d8 040085E0 		add	r0, r5, r4
 486 05dc 0610A0E1 		mov	r1, r6
 487 05e0 024084E0 		add	r4, r4, r2
 488 05e4 FEFFFFEB 		bl	memcpy
 489 05e8 070054E1 		cmp	r4, r7
 490 05ec F8FFFF1A 		bne	.L72
 491 05f0 01A08AE2 		add	r10, r10, #1
 492 05f4 085085E0 		add	r5, r5, r8
 493 05f8 09005AE1 		cmp	r10, r9
 494 05fc F3FFFF1A 		bne	.L71
 495 0600 F087BDE8 		pop	{r4, r5, r6, r7, r8, r9, r10, pc}
 496              		.size	ClearArea24, .-ClearArea24
 497              		.align	2
 498              		.syntax unified
 499              		.arm
 500              		.fpu neon-vfpv4
 501              		.type	VertLine24, %function
 502              	VertLine24:
 503              		@ args = 0, pretend = 0, frame = 0
 504              		@ frame_needed = 0, uses_anonymous_args = 0
 505 0604 F0472DE9 		push	{r4, r5, r6, r7, r8, r9, r10, lr}
 506 0608 0280A0E1 		mov	r8, r2
 507 060c 044090E5 		ldr	r4, [r0, #4]
 508 0610 102090E5 		ldr	r2, [r0, #16]
 509 0614 005051E2 		subs	r5, r1, #0
 510 0618 147090E5 		ldr	r7, [r0, #20]
 511 061c 0060A0E1 		mov	r6, r0
 512 0620 844084E0 		add	r4, r4, r4, lsl #1
 513 0624 001090E5 		ldr	r1, [r0]
ARM GAS  C:\Users\ldebo\AppData\Local\Temp\cc9oeUFF.s 			page 10


 514 0628 822082E0 		add	r2, r2, r2, lsl #1
 515 062c 972423E0 		mla	r3, r7, r4, r2
 516 0630 013083E0 		add	r3, r3, r1
 517 0634 0B00000A 		beq	.L85
 518 0638 010058E3 		cmp	r8, #1
 519 063c 0090A0E3 		mov	r9, #0
 520 0640 20A080E2 		add	r10, r0, #32
 521 0644 0A00000A 		beq	.L86
 522              	.L84:
 523 0648 0300A0E1 		mov	r0, r3
 524 064c 019089E2 		add	r9, r9, #1
 525 0650 0320A0E3 		mov	r2, #3
 526 0654 0A10A0E1 		mov	r1, r10
 527 0658 FEFFFFEB 		bl	memcpy
 528 065c 090055E1 		cmp	r5, r9
 529 0660 043040E0 		sub	r3, r0, r4
 530 0664 F7FFFF1A 		bne	.L84
 531              	.L85:
 532 0668 957825E0 		mla	r5, r5, r8, r7
 533 066c 145086E5 		str	r5, [r6, #20]
 534 0670 F087BDE8 		pop	{r4, r5, r6, r7, r8, r9, r10, pc}
 535              	.L86:
 536 0674 0300A0E1 		mov	r0, r3
 537 0678 019089E2 		add	r9, r9, #1
 538 067c 0320A0E3 		mov	r2, #3
 539 0680 0A10A0E1 		mov	r1, r10
 540 0684 FEFFFFEB 		bl	memcpy
 541 0688 090055E1 		cmp	r5, r9
 542 068c 043080E0 		add	r3, r0, r4
 543 0690 F7FFFF1A 		bne	.L86
 544 0694 F3FFFFEA 		b	.L85
 545              		.size	VertLine24, .-VertLine24
 546              		.align	2
 547              		.syntax unified
 548              		.arm
 549              		.fpu neon-vfpv4
 550              		.type	HorzLine24, %function
 551              	HorzLine24:
 552              		@ args = 0, pretend = 0, frame = 0
 553              		@ frame_needed = 0, uses_anonymous_args = 0
 554 0698 043090E5 		ldr	r3, [r0, #4]
 555 069c F0472DE9 		push	{r4, r5, r6, r7, r8, r9, r10, lr}
 556 06a0 0050A0E1 		mov	r5, r0
 557 06a4 106090E5 		ldr	r6, [r0, #16]
 558 06a8 140090E5 		ldr	r0, [r0, #20]
 559 06ac 833083E0 		add	r3, r3, r3, lsl #1
 560 06b0 004051E2 		subs	r4, r1, #0
 561 06b4 0270A0E1 		mov	r7, r2
 562 06b8 861086E0 		add	r1, r6, r6, lsl #1
 563 06bc 002095E5 		ldr	r2, [r5]
 564 06c0 87A08710 		addne	r10, r7, r7, lsl #1
 565 06c4 0080A013 		movne	r8, #0
 566 06c8 901323E0 		mla	r3, r0, r3, r1
 567 06cc 20908512 		addne	r9, r5, #32
 568 06d0 023083E0 		add	r3, r3, r2
 569 06d4 0700000A 		beq	.L94
 570              	.L93:
ARM GAS  C:\Users\ldebo\AppData\Local\Temp\cc9oeUFF.s 			page 11


 571 06d8 0300A0E1 		mov	r0, r3
 572 06dc 018088E2 		add	r8, r8, #1
 573 06e0 0320A0E3 		mov	r2, #3
 574 06e4 0910A0E1 		mov	r1, r9
 575 06e8 FEFFFFEB 		bl	memcpy
 576 06ec 080054E1 		cmp	r4, r8
 577 06f0 0A3080E0 		add	r3, r0, r10
 578 06f4 F7FFFF1A 		bne	.L93
 579              	.L94:
 580 06f8 946724E0 		mla	r4, r4, r7, r6
 581 06fc 104085E5 		str	r4, [r5, #16]
 582 0700 F087BDE8 		pop	{r4, r5, r6, r7, r8, r9, r10, pc}
 583              		.size	HorzLine24, .-HorzLine24
 584              		.align	2
 585              		.syntax unified
 586              		.arm
 587              		.fpu neon-vfpv4
 588              		.type	DiagLine24, %function
 589              	DiagLine24:
 590              		@ args = 4, pretend = 0, frame = 16
 591              		@ frame_needed = 0, uses_anonymous_args = 0
 592 0704 F04F2DE9 		push	{r4, r5, r6, r7, r8, r9, r10, fp, lr}
 593 0708 020051E1 		cmp	r1, r2
 594 070c 049090E5 		ldr	r9, [r0, #4]
 595 0710 14D04DE2 		sub	sp, sp, #20
 596 0714 0160A031 		movcc	r6, r1
 597 0718 0260A021 		movcs	r6, r2
 598 071c 0150A0E1 		mov	r5, r1
 599 0720 000051E3 		cmp	r1, #0
 600 0724 00A0A0E1 		mov	r10, r0
 601 0728 04308DE5 		str	r3, [sp, #4]
 602 072c 103090E5 		ldr	r3, [r0, #16]
 603 0730 00209AE5 		ldr	r2, [r10]
 604 0734 0310A0E1 		mov	r1, r3
 605 0738 08308DE5 		str	r3, [sp, #8]
 606 073c 143090E5 		ldr	r3, [r0, #20]
 607 0740 811081E0 		add	r1, r1, r1, lsl #1
 608 0744 0300A0E1 		mov	r0, r3
 609 0748 0C308DE5 		str	r3, [sp, #12]
 610 074c 893089E0 		add	r3, r9, r9, lsl #1
 611 0750 901323E0 		mla	r3, r0, r3, r1
 612 0754 023083E0 		add	r3, r3, r2
 613 0758 1300000A 		beq	.L102
 614 075c 38209DE5 		ldr	r2, [sp, #56]
 615 0760 00B0A0E3 		mov	fp, #0
 616 0764 04109DE5 		ldr	r1, [sp, #4]
 617 0768 0B40A0E1 		mov	r4, fp
 618 076c 20708AE2 		add	r7, r10, #32
 619 0770 822082E0 		add	r2, r2, r2, lsl #1
 620 0774 818081E0 		add	r8, r1, r1, lsl #1
 621 0778 990209E0 		mul	r9, r9, r2
 622              	.L101:
 623 077c 064084E0 		add	r4, r4, r6
 624 0780 0300A0E1 		mov	r0, r3
 625 0784 0320A0E3 		mov	r2, #3
 626 0788 0710A0E1 		mov	r1, r7
 627 078c FEFFFFEB 		bl	memcpy
ARM GAS  C:\Users\ldebo\AppData\Local\Temp\cc9oeUFF.s 			page 12


 628 0790 01B08BE2 		add	fp, fp, #1
 629 0794 040055E1 		cmp	r5, r4
 630 0798 083080E0 		add	r3, r0, r8
 631 079c 05404490 		subls	r4, r4, r5
 632 07a0 09308390 		addls	r3, r3, r9
 633 07a4 0B0055E1 		cmp	r5, fp
 634 07a8 F3FFFF1A 		bne	.L101
 635              	.L102:
 636 07ac 04309DE5 		ldr	r3, [sp, #4]
 637 07b0 08209DE5 		ldr	r2, [sp, #8]
 638 07b4 952325E0 		mla	r5, r5, r3, r2
 639 07b8 38309DE5 		ldr	r3, [sp, #56]
 640 07bc 0C209DE5 		ldr	r2, [sp, #12]
 641 07c0 10508AE5 		str	r5, [r10, #16]
 642 07c4 962326E0 		mla	r6, r6, r3, r2
 643 07c8 14608AE5 		str	r6, [r10, #20]
 644 07cc 14D08DE2 		add	sp, sp, #20
 645              		@ sp needed
 646 07d0 F08FBDE8 		pop	{r4, r5, r6, r7, r8, r9, r10, fp, pc}
 647              		.size	DiagLine24, .-DiagLine24
 648              		.align	2
 649              		.syntax unified
 650              		.arm
 651              		.fpu neon-vfpv4
 652              		.type	WriteChar24, %function
 653              	WriteChar24:
 654              		@ args = 0, pretend = 0, frame = 0
 655              		@ frame_needed = 0, uses_anonymous_args = 0
 656 07d4 F04F2DE9 		push	{r4, r5, r6, r7, r8, r9, r10, fp, lr}
 657 07d8 003000E3 		movw	r3, #:lower16:.LANCHOR0
 658 07dc 003040E3 		movt	r3, #:upper16:.LANCHOR0
 659 07e0 046090E5 		ldr	r6, [r0, #4]
 660 07e4 109090E5 		ldr	r9, [r0, #16]
 661 07e8 017283E0 		add	r7, r3, r1, lsl #4
 662 07ec 144090E5 		ldr	r4, [r0, #20]
 663 07f0 0730A0E1 		mov	r3, r7
 664 07f4 866086E0 		add	r6, r6, r6, lsl #1
 665 07f8 0C8083E2 		add	r8, r3, #12
 666 07fc 892089E0 		add	r2, r9, r9, lsl #1
 667 0800 003090E5 		ldr	r3, [r0]
 668 0804 047047E2 		sub	r7, r7, #4
 669 0808 942624E0 		mla	r4, r4, r6, r2
 670 080c 034084E0 		add	r4, r4, r3
 671              	.L110:
 672 0810 0410B7E5 		ldr	r1, [r7, #4]!
 673 0814 0030A0E3 		mov	r3, #0
 674              	.L109:
 675 0818 000051E3 		cmp	r1, #0
 676 081c 072003E2 		and	r2, r3, #7
 677 0820 24B0D0E5 		ldrb	fp, [r0, #36]	@ zero_extendqisi2
 678 0824 013083E2 		add	r3, r3, #1
 679 0828 82E082E0 		add	lr, r2, r2, lsl #1
 680 082c 25A0D0E5 		ldrb	r10, [r0, #37]	@ zero_extendqisi2
 681 0830 20B0D0B5 		ldrblt	fp, [r0, #32]	@ zero_extendqisi2
 682 0834 0EC084E0 		add	ip, r4, lr
 683 0838 2650D0E5 		ldrb	r5, [r0, #38]	@ zero_extendqisi2
 684 083c 8110A0E1 		lsl	r1, r1, #1
ARM GAS  C:\Users\ldebo\AppData\Local\Temp\cc9oeUFF.s 			page 13


 685 0840 21A0D0B5 		ldrblt	r10, [r0, #33]	@ zero_extendqisi2
 686 0844 2250D0B5 		ldrblt	r5, [r0, #34]	@ zero_extendqisi2
 687 0848 070052E3 		cmp	r2, #7
 688 084c 0EB0C4E7 		strb	fp, [r4, lr]
 689 0850 06408400 		addeq	r4, r4, r6
 690 0854 200053E3 		cmp	r3, #32
 691 0858 01A0CCE5 		strb	r10, [ip, #1]
 692 085c 0250CCE5 		strb	r5, [ip, #2]
 693 0860 ECFFFF1A 		bne	.L109
 694 0864 080057E1 		cmp	r7, r8
 695 0868 E8FFFF1A 		bne	.L110
 696 086c 089089E2 		add	r9, r9, #8
 697 0870 109080E5 		str	r9, [r0, #16]
 698 0874 F08FBDE8 		pop	{r4, r5, r6, r7, r8, r9, r10, fp, pc}
 699              		.size	WriteChar24, .-WriteChar24
 700              		.align	2
 701              		.syntax unified
 702              		.arm
 703              		.fpu neon-vfpv4
 704              		.type	TransparentWriteChar24, %function
 705              	TransparentWriteChar24:
 706              		@ args = 0, pretend = 0, frame = 8
 707              		@ frame_needed = 0, uses_anonymous_args = 0
 708 0878 F04F2DE9 		push	{r4, r5, r6, r7, r8, r9, r10, fp, lr}
 709 087c 00B0A0E1 		mov	fp, r0
 710 0880 102090E5 		ldr	r2, [r0, #16]
 711 0884 0CD04DE2 		sub	sp, sp, #12
 712 0888 047090E5 		ldr	r7, [r0, #4]
 713 088c 003000E3 		movw	r3, #:lower16:.LANCHOR0
 714 0890 003040E3 		movt	r3, #:upper16:.LANCHOR0
 715 0894 0080A0E1 		mov	r8, r0
 716 0898 0200A0E1 		mov	r0, r2
 717 089c 00208DE5 		str	r2, [sp]
 718 08a0 019283E0 		add	r9, r3, r1, lsl #4
 719 08a4 14209BE5 		ldr	r2, [fp, #20]
 720 08a8 877087E0 		add	r7, r7, r7, lsl #1
 721 08ac 0930A0E1 		mov	r3, r9
 722 08b0 800080E0 		add	r0, r0, r0, lsl #1
 723 08b4 0C3083E2 		add	r3, r3, #12
 724 08b8 201098E4 		ldr	r1, [r8], #32
 725 08bc 03C0A0E1 		mov	ip, r3
 726 08c0 04B08DE5 		str	fp, [sp, #4]
 727 08c4 920723E0 		mla	r3, r2, r7, r0
 728 08c8 049049E2 		sub	r9, r9, #4
 729 08cc 01A083E0 		add	r10, r3, r1
 730 08d0 0AB0A0E1 		mov	fp, r10
 731 08d4 0CA0A0E1 		mov	r10, ip
 732              	.L118:
 733 08d8 0450B9E5 		ldr	r5, [r9, #4]!
 734 08dc 0040A0E3 		mov	r4, #0
 735 08e0 030000EA 		b	.L117
 736              	.L115:
 737 08e4 070056E3 		cmp	r6, #7
 738 08e8 07B08B00 		addeq	fp, fp, r7
 739 08ec 200054E3 		cmp	r4, #32
 740 08f0 0D00000A 		beq	.L122
 741              	.L117:
ARM GAS  C:\Users\ldebo\AppData\Local\Temp\cc9oeUFF.s 			page 14


 742 08f4 000055E3 		cmp	r5, #0
 743 08f8 076004E2 		and	r6, r4, #7
 744 08fc 8550A0E1 		lsl	r5, r5, #1
 745 0900 014084E2 		add	r4, r4, #1
 746 0904 F6FFFFAA 		bge	.L115
 747 0908 860086E0 		add	r0, r6, r6, lsl #1
 748 090c 0320A0E3 		mov	r2, #3
 749 0910 00008BE0 		add	r0, fp, r0
 750 0914 0810A0E1 		mov	r1, r8
 751 0918 FEFFFFEB 		bl	memcpy
 752 091c 070056E3 		cmp	r6, #7
 753 0920 07B08B00 		addeq	fp, fp, r7
 754 0924 200054E3 		cmp	r4, #32
 755 0928 F1FFFF1A 		bne	.L117
 756              	.L122:
 757 092c 0A0059E1 		cmp	r9, r10
 758 0930 E8FFFF1A 		bne	.L118
 759 0934 08089DE8 		ldm	sp, {r3, fp}
 760 0938 083083E2 		add	r3, r3, #8
 761 093c 10308BE5 		str	r3, [fp, #16]
 762 0940 0CD08DE2 		add	sp, sp, #12
 763              		@ sp needed
 764 0944 F08FBDE8 		pop	{r4, r5, r6, r7, r8, r9, r10, fp, pc}
 765              		.size	TransparentWriteChar24, .-TransparentWriteChar24
 766              		.align	2
 767              		.syntax unified
 768              		.arm
 769              		.fpu neon-vfpv4
 770              		.type	PutImage24, %function
 771              	PutImage24:
 772              		@ args = 4, pretend = 0, frame = 0
 773              		@ frame_needed = 0, uses_anonymous_args = 0
 774 0948 F84F2DE9 		push	{r3, r4, r5, r6, r7, r8, r9, r10, fp, lr}
 775 094c 00A052E2 		subs	r10, r2, #0
 776 0950 048090E5 		ldr	r8, [r0, #4]
 777 0954 146090E5 		ldr	r6, [r0, #20]
 778 0958 10C090E5 		ldr	ip, [r0, #16]
 779 095c 888088E0 		add	r8, r8, r8, lsl #1
 780 0960 002090E5 		ldr	r2, [r0]
 781 0964 2890DDE5 		ldrb	r9, [sp, #40]	@ zero_extendqisi2
 782 0968 8CC08CE0 		add	ip, ip, ip, lsl #1
 783 096c 96C82CE0 		mla	ip, r6, r8, ip
 784 0970 02608CE0 		add	r6, ip, r2
 785 0974 1900000A 		beq	.L135
 786 0978 000051E3 		cmp	r1, #0
 787 097c F88FBD08 		popeq	{r3, r4, r5, r6, r7, r8, r9, r10, fp, pc}
 788 0980 0350A0E1 		mov	r5, r3
 789 0984 817081E0 		add	r7, r1, r1, lsl #1
 790 0988 00B0A0E3 		mov	fp, #0
 791              	.L129:
 792 098c 0040A0E3 		mov	r4, #0
 793              	.L126:
 794 0990 0320A0E3 		mov	r2, #3
 795 0994 041085E0 		add	r1, r5, r4
 796 0998 040086E0 		add	r0, r6, r4
 797 099c 024084E0 		add	r4, r4, r2
 798 09a0 FEFFFFEB 		bl	memcpy
ARM GAS  C:\Users\ldebo\AppData\Local\Temp\cc9oeUFF.s 			page 15


 799 09a4 070054E1 		cmp	r4, r7
 800 09a8 F8FFFF1A 		bne	.L126
 801 09ac 000059E3 		cmp	r9, #0
 802 09b0 01B08BE2 		add	fp, fp, #1
 803 09b4 0400000A 		beq	.L127
 804 09b8 0B005AE1 		cmp	r10, fp
 805 09bc 086046E0 		sub	r6, r6, r8
 806 09c0 075085E0 		add	r5, r5, r7
 807 09c4 F0FFFF1A 		bne	.L129
 808 09c8 F88FBDE8 		pop	{r3, r4, r5, r6, r7, r8, r9, r10, fp, pc}
 809              	.L127:
 810 09cc 0B005AE1 		cmp	r10, fp
 811 09d0 086086E0 		add	r6, r6, r8
 812 09d4 075085E0 		add	r5, r5, r7
 813 09d8 EBFFFF1A 		bne	.L129
 814 09dc F88FBDE8 		pop	{r3, r4, r5, r6, r7, r8, r9, r10, fp, pc}
 815              	.L135:
 816 09e0 F88FBDE8 		pop	{r3, r4, r5, r6, r7, r8, r9, r10, fp, pc}
 817              		.size	PutImage24, .-PutImage24
 818              		.align	2
 819              		.syntax unified
 820              		.arm
 821              		.fpu neon-vfpv4
 822              		.type	ClearArea32, %function
 823              	ClearArea32:
 824              		@ args = 4, pretend = 0, frame = 0
 825              		@ frame_needed = 0, uses_anonymous_args = 0
 826 09e4 10402DE9 		push	{r4, lr}
 827 09e8 02C1A0E1 		lsl	ip, r2, #2
 828 09ec 04E090E5 		ldr	lr, [r0, #4]
 829 09f0 08409DE5 		ldr	r4, [sp, #8]
 830 09f4 024054E0 		subs	r4, r4, r2
 831 09f8 002090E5 		ldr	r2, [r0]
 832 09fc 9ECC2CE0 		mla	ip, lr, ip, ip
 833 0a00 02C08CE0 		add	ip, ip, r2
 834 0a04 1080BD08 		popeq	{r4, pc}
 835 0a08 011053E0 		subs	r1, r3, r1
 836 0a0c 00E0A013 		movne	lr, #0
 837 0a10 0B00000A 		beq	.L147
 838              	.L140:
 839 0a14 0030A0E3 		mov	r3, #0
 840              	.L139:
 841 0a18 282090E5 		ldr	r2, [r0, #40]
 842 0a1c 03218CE7 		str	r2, [ip, r3, lsl #2]
 843 0a20 013083E2 		add	r3, r3, #1
 844 0a24 030051E1 		cmp	r1, r3
 845 0a28 FAFFFF1A 		bne	.L139
 846 0a2c 01E08EE2 		add	lr, lr, #1
 847 0a30 043090E5 		ldr	r3, [r0, #4]
 848 0a34 04005EE1 		cmp	lr, r4
 849 0a38 03C18CE0 		add	ip, ip, r3, lsl #2
 850 0a3c F4FFFF1A 		bne	.L140
 851 0a40 1080BDE8 		pop	{r4, pc}
 852              	.L147:
 853 0a44 1080BDE8 		pop	{r4, pc}
 854              		.size	ClearArea32, .-ClearArea32
 855              		.align	2
ARM GAS  C:\Users\ldebo\AppData\Local\Temp\cc9oeUFF.s 			page 16


 856              		.syntax unified
 857              		.arm
 858              		.fpu neon-vfpv4
 859              		.type	VertLine32, %function
 860              	VertLine32:
 861              		@ args = 0, pretend = 0, frame = 0
 862              		@ frame_needed = 0, uses_anonymous_args = 0
 863 0a48 043090E5 		ldr	r3, [r0, #4]
 864 0a4c 000051E3 		cmp	r1, #0
 865 0a50 10402DE9 		push	{r4, lr}
 866 0a54 10C090E5 		ldr	ip, [r0, #16]
 867 0a58 144090E5 		ldr	r4, [r0, #20]
 868 0a5c 0331A0E1 		lsl	r3, r3, #2
 869 0a60 00E090E5 		ldr	lr, [r0]
 870 0a64 0CC1A0E1 		lsl	ip, ip, #2
 871 0a68 94C323E0 		mla	r3, r4, r3, ip
 872 0a6c 0E3083E0 		add	r3, r3, lr
 873 0a70 0900000A 		beq	.L152
 874 0a74 010052E3 		cmp	r2, #1
 875 0a78 00C0A0E3 		mov	ip, #0
 876 0a7c 0900000A 		beq	.L153
 877              	.L151:
 878 0a80 20E090E5 		ldr	lr, [r0, #32]
 879 0a84 01C08CE2 		add	ip, ip, #1
 880 0a88 0C0051E1 		cmp	r1, ip
 881 0a8c 00E083E5 		str	lr, [r3]
 882 0a90 04E090E5 		ldr	lr, [r0, #4]
 883 0a94 0E3143E0 		sub	r3, r3, lr, lsl #2
 884 0a98 F8FFFF1A 		bne	.L151
 885              	.L152:
 886 0a9c 914221E0 		mla	r1, r1, r2, r4
 887 0aa0 141080E5 		str	r1, [r0, #20]
 888 0aa4 1080BDE8 		pop	{r4, pc}
 889              	.L153:
 890 0aa8 20E090E5 		ldr	lr, [r0, #32]
 891 0aac 01C08CE2 		add	ip, ip, #1
 892 0ab0 0C0051E1 		cmp	r1, ip
 893 0ab4 00E083E5 		str	lr, [r3]
 894 0ab8 04E090E5 		ldr	lr, [r0, #4]
 895 0abc 0E3183E0 		add	r3, r3, lr, lsl #2
 896 0ac0 F8FFFF1A 		bne	.L153
 897 0ac4 F4FFFFEA 		b	.L152
 898              		.size	VertLine32, .-VertLine32
 899              		.align	2
 900              		.syntax unified
 901              		.arm
 902              		.fpu neon-vfpv4
 903              		.type	HorzLine32, %function
 904              	HorzLine32:
 905              		@ args = 0, pretend = 0, frame = 0
 906              		@ frame_needed = 0, uses_anonymous_args = 0
 907 0ac8 04C090E5 		ldr	ip, [r0, #4]
 908 0acc 000051E3 		cmp	r1, #0
 909 0ad0 30402DE9 		push	{r4, r5, lr}
 910 0ad4 145090E5 		ldr	r5, [r0, #20]
 911 0ad8 104090E5 		ldr	r4, [r0, #16]
 912 0adc 0CC1A0E1 		lsl	ip, ip, #2
ARM GAS  C:\Users\ldebo\AppData\Local\Temp\cc9oeUFF.s 			page 17


 913 0ae0 003090E5 		ldr	r3, [r0]
 914 0ae4 04E1A0E1 		lsl	lr, r4, #2
 915 0ae8 95EC2CE0 		mla	ip, r5, ip, lr
 916 0aec 0251A011 		lslne	r5, r2, #2
 917 0af0 03C08CE0 		add	ip, ip, r3
 918 0af4 0030A013 		movne	r3, #0
 919 0af8 0400000A 		beq	.L161
 920              	.L160:
 921 0afc 013083E2 		add	r3, r3, #1
 922 0b00 20E090E5 		ldr	lr, [r0, #32]
 923 0b04 030051E1 		cmp	r1, r3
 924 0b08 05E08CE6 		str	lr, [ip], r5
 925 0b0c FAFFFF1A 		bne	.L160
 926              	.L161:
 927 0b10 914221E0 		mla	r1, r1, r2, r4
 928 0b14 101080E5 		str	r1, [r0, #16]
 929 0b18 3080BDE8 		pop	{r4, r5, pc}
 930              		.size	HorzLine32, .-HorzLine32
 931              		.align	2
 932              		.syntax unified
 933              		.arm
 934              		.fpu neon-vfpv4
 935              		.type	DiagLine32, %function
 936              	DiagLine32:
 937              		@ args = 4, pretend = 0, frame = 0
 938              		@ frame_needed = 0, uses_anonymous_args = 0
 939 0b1c F0472DE9 		push	{r4, r5, r6, r7, r8, r9, r10, lr}
 940 0b20 020051E1 		cmp	r1, r2
 941 0b24 04E090E5 		ldr	lr, [r0, #4]
 942 0b28 106090E5 		ldr	r6, [r0, #16]
 943 0b2c 0120A031 		movcc	r2, r1
 944 0b30 147090E5 		ldr	r7, [r0, #20]
 945 0b34 000051E3 		cmp	r1, #0
 946 0b38 0EE1A0E1 		lsl	lr, lr, #2
 947 0b3c 20809DE5 		ldr	r8, [sp, #32]
 948 0b40 0641A0E1 		lsl	r4, r6, #2
 949 0b44 00C090E5 		ldr	ip, [r0]
 950 0b48 03A1A011 		lslne	r10, r3, #2
 951 0b4c 974E2EE0 		mla	lr, r7, lr, r4
 952 0b50 0040A013 		movne	r4, #0
 953 0b54 0891A011 		lslne	r9, r8, #2
 954 0b58 0CE08EE0 		add	lr, lr, ip
 955 0b5c 04C0A011 		movne	ip, r4
 956 0b60 0900000A 		beq	.L169
 957              	.L168:
 958 0b64 205090E5 		ldr	r5, [r0, #32]
 959 0b68 02C08CE0 		add	ip, ip, r2
 960 0b6c 0C0051E1 		cmp	r1, ip
 961 0b70 014084E2 		add	r4, r4, #1
 962 0b74 0A508EE6 		str	r5, [lr], r10
 963 0b78 01C04C90 		subls	ip, ip, r1
 964 0b7c 04509095 		ldrls	r5, [r0, #4]
 965 0b80 95E92E90 		mlals	lr, r5, r9, lr
 966 0b84 040051E1 		cmp	r1, r4
 967 0b88 F5FFFF1A 		bne	.L168
 968              	.L169:
 969 0b8c 916321E0 		mla	r1, r1, r3, r6
ARM GAS  C:\Users\ldebo\AppData\Local\Temp\cc9oeUFF.s 			page 18


 970 0b90 927822E0 		mla	r2, r2, r8, r7
 971 0b94 101080E5 		str	r1, [r0, #16]
 972 0b98 142080E5 		str	r2, [r0, #20]
 973 0b9c F087BDE8 		pop	{r4, r5, r6, r7, r8, r9, r10, pc}
 974              		.size	DiagLine32, .-DiagLine32
 975              		.align	2
 976              		.syntax unified
 977              		.arm
 978              		.fpu neon-vfpv4
 979              		.type	WriteChar32, %function
 980              	WriteChar32:
 981              		@ args = 0, pretend = 0, frame = 8
 982              		@ frame_needed = 0, uses_anonymous_args = 0
 983 0ba0 70402DE9 		push	{r4, r5, r6, lr}
 984 0ba4 003000E3 		movw	r3, #:lower16:.LANCHOR0
 985 0ba8 003040E3 		movt	r3, #:upper16:.LANCHOR0
 986 0bac 04E090E5 		ldr	lr, [r0, #4]
 987 0bb0 08D04DE2 		sub	sp, sp, #8
 988 0bb4 014283E0 		add	r4, r3, r1, lsl #4
 989 0bb8 105090E5 		ldr	r5, [r0, #16]
 990 0bbc 141090E5 		ldr	r1, [r0, #20]
 991 0bc0 0430A0E1 		mov	r3, r4
 992 0bc4 0EE1A0E1 		lsl	lr, lr, #2
 993 0bc8 0C6083E2 		add	r6, r3, #12
 994 0bcc 0521A0E1 		lsl	r2, r5, #2
 995 0bd0 003090E5 		ldr	r3, [r0]
 996 0bd4 044044E2 		sub	r4, r4, #4
 997 0bd8 912E2EE0 		mla	lr, r1, lr, r2
 998 0bdc 03E08EE0 		add	lr, lr, r3
 999              	.L178:
 1000 0be0 0420B4E5 		ldr	r2, [r4, #4]!
 1001 0be4 0030A0E3 		mov	r3, #0
 1002              	.L177:
 1003 0be8 000052E3 		cmp	r2, #0
 1004 0bec 071003E2 		and	r1, r3, #7
 1005 0bf0 013083E2 		add	r3, r3, #1
 1006 0bf4 8220A0E1 		lsl	r2, r2, #1
 1007 0bf8 24C090A5 		ldrge	ip, [r0, #36]
 1008 0bfc 20C090B5 		ldrlt	ip, [r0, #32]
 1009 0c00 070051E3 		cmp	r1, #7
 1010 0c04 01C18EE7 		str	ip, [lr, r1, lsl #2]
 1011 0c08 04C08DE5 		str	ip, [sp, #4]
 1012 0c0c 04109005 		ldreq	r1, [r0, #4]
 1013 0c10 01E18E00 		addeq	lr, lr, r1, lsl #2
 1014 0c14 200053E3 		cmp	r3, #32
 1015 0c18 F2FFFF1A 		bne	.L177
 1016 0c1c 040056E1 		cmp	r6, r4
 1017 0c20 EEFFFF1A 		bne	.L178
 1018 0c24 085085E2 		add	r5, r5, #8
 1019 0c28 105080E5 		str	r5, [r0, #16]
 1020 0c2c 08D08DE2 		add	sp, sp, #8
 1021              		@ sp needed
 1022 0c30 7080BDE8 		pop	{r4, r5, r6, pc}
 1023              		.size	WriteChar32, .-WriteChar32
 1024              		.align	2
 1025              		.syntax unified
 1026              		.arm
ARM GAS  C:\Users\ldebo\AppData\Local\Temp\cc9oeUFF.s 			page 19


 1027              		.fpu neon-vfpv4
 1028              		.type	TransparentWriteChar32, %function
 1029              	TransparentWriteChar32:
 1030              		@ args = 0, pretend = 0, frame = 0
 1031              		@ frame_needed = 0, uses_anonymous_args = 0
 1032 0c34 003000E3 		movw	r3, #:lower16:.LANCHOR0
 1033 0c38 003040E3 		movt	r3, #:upper16:.LANCHOR0
 1034 0c3c 04C090E5 		ldr	ip, [r0, #4]
 1035 0c40 70402DE9 		push	{r4, r5, r6, lr}
 1036 0c44 014283E0 		add	r4, r3, r1, lsl #4
 1037 0c48 106090E5 		ldr	r6, [r0, #16]
 1038 0c4c 141090E5 		ldr	r1, [r0, #20]
 1039 0c50 0CC1A0E1 		lsl	ip, ip, #2
 1040 0c54 0430A0E1 		mov	r3, r4
 1041 0c58 044044E2 		sub	r4, r4, #4
 1042 0c5c 0621A0E1 		lsl	r2, r6, #2
 1043 0c60 0C5083E2 		add	r5, r3, #12
 1044 0c64 003090E5 		ldr	r3, [r0]
 1045 0c68 912C2CE0 		mla	ip, r1, ip, r2
 1046 0c6c 03C08CE0 		add	ip, ip, r3
 1047              	.L186:
 1048 0c70 0420B4E5 		ldr	r2, [r4, #4]!
 1049 0c74 0030A0E3 		mov	r3, #0
 1050              	.L185:
 1051 0c78 000052E3 		cmp	r2, #0
 1052 0c7c 071003E2 		and	r1, r3, #7
 1053 0c80 013083E2 		add	r3, r3, #1
 1054 0c84 8220A0E1 		lsl	r2, r2, #1
 1055 0c88 20E090B5 		ldrlt	lr, [r0, #32]
 1056 0c8c 01E18CB7 		strlt	lr, [ip, r1, lsl #2]
 1057 0c90 070051E3 		cmp	r1, #7
 1058 0c94 04109005 		ldreq	r1, [r0, #4]
 1059 0c98 01C18C00 		addeq	ip, ip, r1, lsl #2
 1060 0c9c 200053E3 		cmp	r3, #32
 1061 0ca0 F4FFFF1A 		bne	.L185
 1062 0ca4 050054E1 		cmp	r4, r5
 1063 0ca8 F0FFFF1A 		bne	.L186
 1064 0cac 086086E2 		add	r6, r6, #8
 1065 0cb0 106080E5 		str	r6, [r0, #16]
 1066 0cb4 7080BDE8 		pop	{r4, r5, r6, pc}
 1067              		.size	TransparentWriteChar32, .-TransparentWriteChar32
 1068              		.align	2
 1069              		.syntax unified
 1070              		.arm
 1071              		.fpu neon-vfpv4
 1072              		.type	PutImage32, %function
 1073              	PutImage32:
 1074              		@ args = 4, pretend = 0, frame = 0
 1075              		@ frame_needed = 0, uses_anonymous_args = 0
 1076 0cb8 F0402DE9 		push	{r4, r5, r6, r7, lr}
 1077 0cbc 000052E3 		cmp	r2, #0
 1078 0cc0 044090E5 		ldr	r4, [r0, #4]
 1079 0cc4 10C090E5 		ldr	ip, [r0, #16]
 1080 0cc8 145090E5 		ldr	r5, [r0, #20]
 1081 0ccc 0441A0E1 		lsl	r4, r4, #2
 1082 0cd0 00E090E5 		ldr	lr, [r0]
 1083 0cd4 0CC1A0E1 		lsl	ip, ip, #2
ARM GAS  C:\Users\ldebo\AppData\Local\Temp\cc9oeUFF.s 			page 20


 1084 0cd8 1470DDE5 		ldrb	r7, [sp, #20]	@ zero_extendqisi2
 1085 0cdc 95C424E0 		mla	r4, r5, r4, ip
 1086 0ce0 0E4084E0 		add	r4, r4, lr
 1087 0ce4 F080BD08 		popeq	{r4, r5, r6, r7, pc}
 1088 0ce8 000051E3 		cmp	r1, #0
 1089 0cec F080BD08 		popeq	{r4, r5, r6, r7, pc}
 1090 0cf0 0161A0E1 		lsl	r6, r1, #2
 1091 0cf4 0050A0E3 		mov	r5, #0
 1092              	.L192:
 1093 0cf8 00C0A0E3 		mov	ip, #0
 1094              	.L193:
 1095 0cfc 0CE193E7 		ldr	lr, [r3, ip, lsl #2]
 1096 0d00 0CE184E7 		str	lr, [r4, ip, lsl #2]
 1097 0d04 01C08CE2 		add	ip, ip, #1
 1098 0d08 0C0051E1 		cmp	r1, ip
 1099 0d0c FAFFFF1A 		bne	.L193
 1100 0d10 000057E3 		cmp	r7, #0
 1101 0d14 015085E2 		add	r5, r5, #1
 1102 0d18 04C090E5 		ldr	ip, [r0, #4]
 1103 0d1c 0400000A 		beq	.L194
 1104 0d20 050052E1 		cmp	r2, r5
 1105 0d24 063083E0 		add	r3, r3, r6
 1106 0d28 0C4144E0 		sub	r4, r4, ip, lsl #2
 1107 0d2c F1FFFF1A 		bne	.L192
 1108 0d30 F080BDE8 		pop	{r4, r5, r6, r7, pc}
 1109              	.L194:
 1110 0d34 050052E1 		cmp	r2, r5
 1111 0d38 063083E0 		add	r3, r3, r6
 1112 0d3c 0C4184E0 		add	r4, r4, ip, lsl #2
 1113 0d40 ECFFFF1A 		bne	.L192
 1114 0d44 F080BDE8 		pop	{r4, r5, r6, r7, pc}
 1115              		.size	PutImage32, .-PutImage32
 1116              		.align	2
 1117              		.syntax unified
 1118              		.arm
 1119              		.fpu neon-vfpv4
 1120              		.type	mailbox_tag_message.constprop.4, %function
 1121              	mailbox_tag_message.constprop.4:
 1122              		@ args = 4, pretend = 12, frame = 8
 1123              		@ frame_needed = 1, uses_anonymous_args = 1
 1124 0d48 0E002DE9 		push	{r1, r2, r3}
 1125 0d4c 2010A0E3 		mov	r1, #32
 1126 0d50 0020A0E3 		mov	r2, #0
 1127 0d54 70482DE9 		push	{r4, r5, r6, fp, lr}
 1128 0d58 10B08DE2 		add	fp, sp, #16
 1129 0d5c 08D04DE2 		sub	sp, sp, #8
 1130 0d60 90D04DE2 		sub	sp, sp, #144
 1131 0d64 0F408DE2 		add	r4, sp, #15
 1132 0d68 08308BE2 		add	r3, fp, #8
 1133 0d6c 0F40C4E3 		bic	r4, r4, #15
 1134 0d70 08609BE5 		ldr	r6, [fp, #8]
 1135 0d74 0C509BE5 		ldr	r5, [fp, #12]
 1136 0d78 0400A0E1 		mov	r0, r4
 1137 0d7c 10E09BE5 		ldr	lr, [fp, #16]
 1138 0d80 14C09BE5 		ldr	ip, [fp, #20]
 1139 0d84 001084E5 		str	r1, [r4]
 1140 0d88 18109BE5 		ldr	r1, [fp, #24]
ARM GAS  C:\Users\ldebo\AppData\Local\Temp\cc9oeUFF.s 			page 21


 1141 0d8c 1C2084E5 		str	r2, [r4, #28]
 1142 0d90 181084E5 		str	r1, [r4, #24]
 1143 0d94 042084E5 		str	r2, [r4, #4]
 1144 0d98 086084E5 		str	r6, [r4, #8]
 1145 0d9c 0C5084E5 		str	r5, [r4, #12]
 1146 0da0 10E084E5 		str	lr, [r4, #16]
 1147 0da4 14C084E5 		str	ip, [r4, #20]
 1148 0da8 14300BE5 		str	r3, [fp, #-20]
 1149 0dac FEFFFFEB 		bl	ARMaddrToGPUaddr
 1150 0db0 003000E3 		movw	r3, #:lower16:RPi_IO_Base_Addr
 1151 0db4 003040E3 		movt	r3, #:upper16:RPi_IO_Base_Addr
 1152 0db8 0F10C0E3 		bic	r1, r0, #15
 1153 0dbc 081081E3 		orr	r1, r1, #8
 1154 0dc0 002093E5 		ldr	r2, [r3]
 1155 0dc4 2E2B82E2 		add	r2, r2, #47104
 1156 0dc8 802082E2 		add	r2, r2, #128
 1157              	.L205:
 1158 0dcc 383092E5 		ldr	r3, [r2, #56]
 1159 0dd0 000053E3 		cmp	r3, #0
 1160 0dd4 FCFFFFBA 		blt	.L205
 1161 0dd8 201082E5 		str	r1, [r2, #32]
 1162              	.L206:
 1163 0ddc 183092E5 		ldr	r3, [r2, #24]
 1164 0de0 010113E3 		tst	r3, #1073741824
 1165 0de4 FCFFFF1A 		bne	.L206
 1166 0de8 003092E5 		ldr	r3, [r2]
 1167 0dec 0F3003E2 		and	r3, r3, #15
 1168 0df0 080053E3 		cmp	r3, #8
 1169 0df4 F8FFFF1A 		bne	.L206
 1170 0df8 040094E5 		ldr	r0, [r4, #4]
 1171 0dfc 020140E2 		sub	r0, r0, #-2147483648
 1172 0e00 100F6FE1 		clz	r0, r0
 1173 0e04 A002A0E1 		lsr	r0, r0, #5
 1174 0e08 10D04BE2 		sub	sp, fp, #16
 1175              		@ sp needed
 1176 0e0c 7048BDE8 		pop	{r4, r5, r6, fp, lr}
 1177 0e10 0CD08DE2 		add	sp, sp, #12
 1178 0e14 1EFF2FE1 		bx	lr
 1179              		.size	mailbox_tag_message.constprop.4, .-mailbox_tag_message.constprop.4
 1180              		.align	2
 1181              		.syntax unified
 1182              		.arm
 1183              		.fpu neon-vfpv4
 1184              		.type	mailbox_tag_message.constprop.5, %function
 1185              	mailbox_tag_message.constprop.5:
 1186              		@ args = 4, pretend = 12, frame = 8
 1187              		@ frame_needed = 1, uses_anonymous_args = 1
 1188 0e18 0E002DE9 		push	{r1, r2, r3}
 1189 0e1c 0020A0E3 		mov	r2, #0
 1190 0e20 F0482DE9 		push	{r4, r5, r6, r7, fp, lr}
 1191 0e24 2070A0E3 		mov	r7, #32
 1192 0e28 0050A0E1 		mov	r5, r0
 1193 0e2c 14B08DE2 		add	fp, sp, #20
 1194 0e30 0CD04DE2 		sub	sp, sp, #12
 1195 0e34 90D04DE2 		sub	sp, sp, #144
 1196 0e38 0F408DE2 		add	r4, sp, #15
 1197 0e3c 08308BE2 		add	r3, fp, #8
ARM GAS  C:\Users\ldebo\AppData\Local\Temp\cc9oeUFF.s 			page 22


 1198 0e40 0F40C4E3 		bic	r4, r4, #15
 1199 0e44 08109BE5 		ldr	r1, [fp, #8]
 1200 0e48 0C609BE5 		ldr	r6, [fp, #12]
 1201 0e4c 0400A0E1 		mov	r0, r4
 1202 0e50 10E09BE5 		ldr	lr, [fp, #16]
 1203 0e54 14C09BE5 		ldr	ip, [fp, #20]
 1204 0e58 081084E5 		str	r1, [r4, #8]
 1205 0e5c 18109BE5 		ldr	r1, [fp, #24]
 1206 0e60 007084E5 		str	r7, [r4]
 1207 0e64 181084E5 		str	r1, [r4, #24]
 1208 0e68 0C6084E5 		str	r6, [r4, #12]
 1209 0e6c 10E084E5 		str	lr, [r4, #16]
 1210 0e70 14C084E5 		str	ip, [r4, #20]
 1211 0e74 1C2084E5 		str	r2, [r4, #28]
 1212 0e78 042084E5 		str	r2, [r4, #4]
 1213 0e7c 1C300BE5 		str	r3, [fp, #-28]
 1214 0e80 FEFFFFEB 		bl	ARMaddrToGPUaddr
 1215 0e84 003000E3 		movw	r3, #:lower16:RPi_IO_Base_Addr
 1216 0e88 003040E3 		movt	r3, #:upper16:RPi_IO_Base_Addr
 1217 0e8c 0F10C0E3 		bic	r1, r0, #15
 1218 0e90 081081E3 		orr	r1, r1, #8
 1219 0e94 003093E5 		ldr	r3, [r3]
 1220 0e98 2E3B83E2 		add	r3, r3, #47104
 1221 0e9c 803083E2 		add	r3, r3, #128
 1222              	.L213:
 1223 0ea0 382093E5 		ldr	r2, [r3, #56]
 1224 0ea4 000052E3 		cmp	r2, #0
 1225 0ea8 FCFFFFBA 		blt	.L213
 1226 0eac 201083E5 		str	r1, [r3, #32]
 1227              	.L214:
 1228 0eb0 180093E5 		ldr	r0, [r3, #24]
 1229 0eb4 010110E2 		ands	r0, r0, #1073741824
 1230 0eb8 FCFFFF1A 		bne	.L214
 1231 0ebc 002093E5 		ldr	r2, [r3]
 1232 0ec0 0F2002E2 		and	r2, r2, #15
 1233 0ec4 080052E3 		cmp	r2, #8
 1234 0ec8 F8FFFF1A 		bne	.L214
 1235 0ecc 043094E5 		ldr	r3, [r4, #4]
 1236 0ed0 020153E3 		cmp	r3, #-2147483648
 1237 0ed4 0300000A 		beq	.L224
 1238 0ed8 14D04BE2 		sub	sp, fp, #20
 1239              		@ sp needed
 1240 0edc F048BDE8 		pop	{r4, r5, r6, r7, fp, lr}
 1241 0ee0 0CD08DE2 		add	sp, sp, #12
 1242 0ee4 1EFF2FE1 		bx	lr
 1243              	.L224:
 1244 0ee8 000055E3 		cmp	r5, #0
 1245 0eec 0400000A 		beq	.L218
 1246 0ef0 0C0084E2 		add	r0, r4, #12
 1247 0ef4 08C094E5 		ldr	ip, [r4, #8]
 1248 0ef8 00C085E5 		str	ip, [r5]
 1249 0efc 0F0090E8 		ldm	r0, {r0, r1, r2, r3}
 1250 0f00 0F0085E9 		stmib	r5, {r0, r1, r2, r3}
 1251              	.L218:
 1252 0f04 0100A0E3 		mov	r0, #1
 1253 0f08 14D04BE2 		sub	sp, fp, #20
 1254              		@ sp needed
ARM GAS  C:\Users\ldebo\AppData\Local\Temp\cc9oeUFF.s 			page 23


 1255 0f0c F048BDE8 		pop	{r4, r5, r6, r7, fp, lr}
 1256 0f10 0CD08DE2 		add	sp, sp, #12
 1257 0f14 1EFF2FE1 		bx	lr
 1258              		.size	mailbox_tag_message.constprop.5, .-mailbox_tag_message.constprop.5
 1259              		.align	2
 1260              		.syntax unified
 1261              		.arm
 1262              		.fpu neon-vfpv4
 1263              		.type	mailbox_tag_message.constprop.6, %function
 1264              	mailbox_tag_message.constprop.6:
 1265              		@ args = 4, pretend = 12, frame = 8
 1266              		@ frame_needed = 1, uses_anonymous_args = 1
 1267 0f18 0E002DE9 		push	{r1, r2, r3}
 1268 0f1c 0020A0E3 		mov	r2, #0
 1269 0f20 F0482DE9 		push	{r4, r5, r6, r7, fp, lr}
 1270 0f24 1C70A0E3 		mov	r7, #28
 1271 0f28 0050A0E1 		mov	r5, r0
 1272 0f2c 14B08DE2 		add	fp, sp, #20
 1273 0f30 0CD04DE2 		sub	sp, sp, #12
 1274 0f34 90D04DE2 		sub	sp, sp, #144
 1275 0f38 0F408DE2 		add	r4, sp, #15
 1276 0f3c 08308BE2 		add	r3, fp, #8
 1277 0f40 0F40C4E3 		bic	r4, r4, #15
 1278 0f44 14109BE5 		ldr	r1, [fp, #20]
 1279 0f48 08609BE5 		ldr	r6, [fp, #8]
 1280 0f4c 0400A0E1 		mov	r0, r4
 1281 0f50 0CE09BE5 		ldr	lr, [fp, #12]
 1282 0f54 10C09BE5 		ldr	ip, [fp, #16]
 1283 0f58 141084E5 		str	r1, [r4, #20]
 1284 0f5c 007084E5 		str	r7, [r4]
 1285 0f60 086084E5 		str	r6, [r4, #8]
 1286 0f64 0CE084E5 		str	lr, [r4, #12]
 1287 0f68 10C084E5 		str	ip, [r4, #16]
 1288 0f6c 182084E5 		str	r2, [r4, #24]
 1289 0f70 042084E5 		str	r2, [r4, #4]
 1290 0f74 1C300BE5 		str	r3, [fp, #-28]
 1291 0f78 FEFFFFEB 		bl	ARMaddrToGPUaddr
 1292 0f7c 003000E3 		movw	r3, #:lower16:RPi_IO_Base_Addr
 1293 0f80 003040E3 		movt	r3, #:upper16:RPi_IO_Base_Addr
 1294 0f84 0F10C0E3 		bic	r1, r0, #15
 1295 0f88 081081E3 		orr	r1, r1, #8
 1296 0f8c 003093E5 		ldr	r3, [r3]
 1297 0f90 2E3B83E2 		add	r3, r3, #47104
 1298 0f94 803083E2 		add	r3, r3, #128
 1299              	.L226:
 1300 0f98 382093E5 		ldr	r2, [r3, #56]
 1301 0f9c 000052E3 		cmp	r2, #0
 1302 0fa0 FCFFFFBA 		blt	.L226
 1303 0fa4 201083E5 		str	r1, [r3, #32]
 1304              	.L227:
 1305 0fa8 180093E5 		ldr	r0, [r3, #24]
 1306 0fac 010110E2 		ands	r0, r0, #1073741824
 1307 0fb0 FCFFFF1A 		bne	.L227
 1308 0fb4 002093E5 		ldr	r2, [r3]
 1309 0fb8 0F2002E2 		and	r2, r2, #15
 1310 0fbc 080052E3 		cmp	r2, #8
 1311 0fc0 F8FFFF1A 		bne	.L227
ARM GAS  C:\Users\ldebo\AppData\Local\Temp\cc9oeUFF.s 			page 24


 1312 0fc4 043094E5 		ldr	r3, [r4, #4]
 1313 0fc8 020153E3 		cmp	r3, #-2147483648
 1314 0fcc 0300000A 		beq	.L237
 1315 0fd0 14D04BE2 		sub	sp, fp, #20
 1316              		@ sp needed
 1317 0fd4 F048BDE8 		pop	{r4, r5, r6, r7, fp, lr}
 1318 0fd8 0CD08DE2 		add	sp, sp, #12
 1319 0fdc 1EFF2FE1 		bx	lr
 1320              	.L237:
 1321 0fe0 000055E3 		cmp	r5, #0
 1322 0fe4 08008412 		addne	r0, r4, #8
 1323 0fe8 0F009018 		ldmne	r0, {r0, r1, r2, r3}
 1324 0fec 0F008518 		stmne	r5, {r0, r1, r2, r3}
 1325              	.L231:
 1326 0ff0 0100A0E3 		mov	r0, #1
 1327 0ff4 14D04BE2 		sub	sp, fp, #20
 1328              		@ sp needed
 1329 0ff8 F048BDE8 		pop	{r4, r5, r6, r7, fp, lr}
 1330 0ffc 0CD08DE2 		add	sp, sp, #12
 1331 1000 1EFF2FE1 		bx	lr
 1332              		.size	mailbox_tag_message.constprop.6, .-mailbox_tag_message.constprop.6
 1333              		.align	2
 1334              		.syntax unified
 1335              		.arm
 1336              		.fpu neon-vfpv4
 1337              		.type	mailbox_tag_message.constprop.7, %function
 1338              	mailbox_tag_message.constprop.7:
 1339              		@ args = 4, pretend = 12, frame = 8
 1340              		@ frame_needed = 1, uses_anonymous_args = 1
 1341 1004 0E002DE9 		push	{r1, r2, r3}
 1342 1008 0020A0E3 		mov	r2, #0
 1343 100c 58C0A0E3 		mov	ip, #88
 1344 1010 F0482DE9 		push	{r4, r5, r6, r7, fp, lr}
 1345 1014 0050A0E1 		mov	r5, r0
 1346 1018 14B08DE2 		add	fp, sp, #20
 1347 101c 0CD04DE2 		sub	sp, sp, #12
 1348 1020 90D04DE2 		sub	sp, sp, #144
 1349 1024 0F708DE2 		add	r7, sp, #15
 1350 1028 08008BE2 		add	r0, fp, #8
 1351 102c 0F70C7E3 		bic	r7, r7, #15
 1352 1030 04308BE2 		add	r3, fp, #4
 1353 1034 0760A0E1 		mov	r6, r7
 1354 1038 501087E2 		add	r1, r7, #80
 1355 103c 1C000BE5 		str	r0, [fp, #-28]
 1356 1040 00C087E5 		str	ip, [r7]
 1357 1044 0420A6E5 		str	r2, [r6, #4]!
 1358 1048 542087E5 		str	r2, [r7, #84]
 1359 104c 0640A0E1 		mov	r4, r6
 1360              	.L239:
 1361 1050 0420B3E5 		ldr	r2, [r3, #4]!
 1362 1054 0420A4E5 		str	r2, [r4, #4]!
 1363 1058 010054E1 		cmp	r4, r1
 1364 105c FBFFFF1A 		bne	.L239
 1365 1060 0700A0E1 		mov	r0, r7
 1366 1064 FEFFFFEB 		bl	ARMaddrToGPUaddr
 1367 1068 003000E3 		movw	r3, #:lower16:RPi_IO_Base_Addr
 1368 106c 003040E3 		movt	r3, #:upper16:RPi_IO_Base_Addr
ARM GAS  C:\Users\ldebo\AppData\Local\Temp\cc9oeUFF.s 			page 25


 1369 1070 0F10C0E3 		bic	r1, r0, #15
 1370 1074 081081E3 		orr	r1, r1, #8
 1371 1078 003093E5 		ldr	r3, [r3]
 1372 107c 2E3B83E2 		add	r3, r3, #47104
 1373 1080 803083E2 		add	r3, r3, #128
 1374              	.L240:
 1375 1084 382093E5 		ldr	r2, [r3, #56]
 1376 1088 000052E3 		cmp	r2, #0
 1377 108c FCFFFFBA 		blt	.L240
 1378 1090 201083E5 		str	r1, [r3, #32]
 1379              	.L241:
 1380 1094 180093E5 		ldr	r0, [r3, #24]
 1381 1098 010110E2 		ands	r0, r0, #1073741824
 1382 109c FCFFFF1A 		bne	.L241
 1383 10a0 002093E5 		ldr	r2, [r3]
 1384 10a4 0F2002E2 		and	r2, r2, #15
 1385 10a8 080052E3 		cmp	r2, #8
 1386 10ac F8FFFF1A 		bne	.L241
 1387 10b0 043097E5 		ldr	r3, [r7, #4]
 1388 10b4 020153E3 		cmp	r3, #-2147483648
 1389 10b8 0300000A 		beq	.L254
 1390 10bc 14D04BE2 		sub	sp, fp, #20
 1391              		@ sp needed
 1392 10c0 F048BDE8 		pop	{r4, r5, r6, r7, fp, lr}
 1393 10c4 0CD08DE2 		add	sp, sp, #12
 1394 10c8 1EFF2FE1 		bx	lr
 1395              	.L254:
 1396 10cc 000055E3 		cmp	r5, #0
 1397 10d0 04504512 		subne	r5, r5, #4
 1398 10d4 0300000A 		beq	.L246
 1399              	.L245:
 1400 10d8 0430B6E5 		ldr	r3, [r6, #4]!
 1401 10dc 040056E1 		cmp	r6, r4
 1402 10e0 0430A5E5 		str	r3, [r5, #4]!
 1403 10e4 FBFFFF1A 		bne	.L245
 1404              	.L246:
 1405 10e8 0100A0E3 		mov	r0, #1
 1406 10ec 14D04BE2 		sub	sp, fp, #20
 1407              		@ sp needed
 1408 10f0 F048BDE8 		pop	{r4, r5, r6, r7, fp, lr}
 1409 10f4 0CD08DE2 		add	sp, sp, #12
 1410 10f8 1EFF2FE1 		bx	lr
 1411              		.size	mailbox_tag_message.constprop.7, .-mailbox_tag_message.constprop.7
 1412              		.align	2
 1413              		.global	gpio_setup
 1414              		.syntax unified
 1415              		.arm
 1416              		.fpu neon-vfpv4
 1417              		.type	gpio_setup, %function
 1418              	gpio_setup:
 1419              		@ args = 0, pretend = 0, frame = 0
 1420              		@ frame_needed = 0, uses_anonymous_args = 0
 1421 10fc 070051E3 		cmp	r1, #7
 1422 1100 36005093 		cmpls	r0, #54
 1423 1104 1500008A 		bhi	.L257
 1424 1108 CD3C0CE3 		movw	r3, #52429
 1425 110c CC3C4CE3 		movt	r3, 52428
ARM GAS  C:\Users\ldebo\AppData\Local\Temp\cc9oeUFF.s 			page 26


 1426 1110 0020A0E1 		mov	r2, r0
 1427 1114 00C000E3 		movw	ip, #:lower16:RPi_IO_Base_Addr
 1428 1118 00C040E3 		movt	ip, #:upper16:RPi_IO_Base_Addr
 1429 111c F0402DE9 		push	{r4, r5, r6, r7, lr}
 1430 1120 906387E0 		umull	r6, r7, r0, r3
 1431 1124 0A50A0E3 		mov	r5, #10
 1432 1128 00E09CE5 		ldr	lr, [ip]
 1433 112c 930283E0 		umull	r0, r3, r3, r2
 1434 1130 A7C1A0E1 		lsr	ip, r7, #3
 1435 1134 0100A0E3 		mov	r0, #1
 1436 1138 A331A0E1 		lsr	r3, r3, #3
 1437 113c 02E68EE2 		add	lr, lr, #2097152
 1438 1140 0740A0E3 		mov	r4, #7
 1439 1144 952C62E0 		mls	r2, r5, ip, r2
 1440 1148 03C19EE7 		ldr	ip, [lr, r3, lsl #2]
 1441 114c 122082E0 		add	r2, r2, r2, lsl r0
 1442 1150 14C2CCE1 		bic	ip, ip, r4, lsl r2
 1443 1154 11228CE1 		orr	r2, ip, r1, lsl r2
 1444 1158 03218EE7 		str	r2, [lr, r3, lsl #2]
 1445 115c F080BDE8 		pop	{r4, r5, r6, r7, pc}
 1446              	.L257:
 1447 1160 0000A0E3 		mov	r0, #0
 1448 1164 1EFF2FE1 		bx	lr
 1449              		.size	gpio_setup, .-gpio_setup
 1450              		.align	2
 1451              		.global	gpio_output
 1452              		.syntax unified
 1453              		.arm
 1454              		.fpu neon-vfpv4
 1455              		.type	gpio_output, %function
 1456              	gpio_output:
 1457              		@ args = 0, pretend = 0, frame = 0
 1458              		@ frame_needed = 0, uses_anonymous_args = 0
 1459              		@ link register save eliminated.
 1460 1168 360050E3 		cmp	r0, #54
 1461 116c 1600008A 		bhi	.L265
 1462 1170 1F3000E2 		and	r3, r0, #31
 1463 1174 0120A0E3 		mov	r2, #1
 1464 1178 000051E3 		cmp	r1, #0
 1465 117c 12C3A0E1 		lsl	ip, r2, r3
 1466 1180 0800001A 		bne	.L266
 1467 1184 001000E3 		movw	r1, #:lower16:RPi_IO_Base_Addr
 1468 1188 001040E3 		movt	r1, #:upper16:RPi_IO_Base_Addr
 1469 118c A032A0E1 		lsr	r3, r0, #5
 1470 1190 0200A0E1 		mov	r0, r2
 1471 1194 0A3083E2 		add	r3, r3, #10
 1472 1198 002091E5 		ldr	r2, [r1]
 1473 119c 022682E2 		add	r2, r2, #2097152
 1474 11a0 03C182E7 		str	ip, [r2, r3, lsl #2]
 1475 11a4 1EFF2FE1 		bx	lr
 1476              	.L266:
 1477 11a8 002000E3 		movw	r2, #:lower16:RPi_IO_Base_Addr
 1478 11ac 002040E3 		movt	r2, #:upper16:RPi_IO_Base_Addr
 1479 11b0 A032A0E1 		lsr	r3, r0, #5
 1480 11b4 0100A0E1 		mov	r0, r1
 1481 11b8 002092E5 		ldr	r2, [r2]
 1482 11bc 033182E0 		add	r3, r2, r3, lsl #2
ARM GAS  C:\Users\ldebo\AppData\Local\Temp\cc9oeUFF.s 			page 27


 1483 11c0 023683E2 		add	r3, r3, #2097152
 1484 11c4 1CC083E5 		str	ip, [r3, #28]
 1485 11c8 1EFF2FE1 		bx	lr
 1486              	.L265:
 1487 11cc 0000A0E3 		mov	r0, #0
 1488 11d0 1EFF2FE1 		bx	lr
 1489              		.size	gpio_output, .-gpio_output
 1490              		.align	2
 1491              		.global	gpio_input
 1492              		.syntax unified
 1493              		.arm
 1494              		.fpu neon-vfpv4
 1495              		.type	gpio_input, %function
 1496              	gpio_input:
 1497              		@ args = 0, pretend = 0, frame = 0
 1498              		@ frame_needed = 0, uses_anonymous_args = 0
 1499              		@ link register save eliminated.
 1500 11d4 360050E3 		cmp	r0, #54
 1501 11d8 0D00008A 		bhi	.L269
 1502 11dc 002000E3 		movw	r2, #:lower16:RPi_IO_Base_Addr
 1503 11e0 002040E3 		movt	r2, #:upper16:RPi_IO_Base_Addr
 1504 11e4 A0C2A0E1 		lsr	ip, r0, #5
 1505 11e8 0110A0E3 		mov	r1, #1
 1506 11ec 1F0000E2 		and	r0, r0, #31
 1507 11f0 003092E5 		ldr	r3, [r2]
 1508 11f4 0C3183E0 		add	r3, r3, ip, lsl #2
 1509 11f8 023683E2 		add	r3, r3, #2097152
 1510 11fc 303083E2 		add	r3, r3, #48
 1511 1200 043093E5 		ldr	r3, [r3, #4]
 1512 1204 113013E0 		ands	r3, r3, r1, lsl r0
 1513 1208 0100A011 		movne	r0, r1
 1514 120c 0000A003 		moveq	r0, #0
 1515 1210 1EFF2FE1 		bx	lr
 1516              	.L269:
 1517 1214 0000A0E3 		mov	r0, #0
 1518 1218 1EFF2FE1 		bx	lr
 1519              		.size	gpio_input, .-gpio_input
 1520              		.align	2
 1521              		.global	gpio_checkEvent
 1522              		.syntax unified
 1523              		.arm
 1524              		.fpu neon-vfpv4
 1525              		.type	gpio_checkEvent, %function
 1526              	gpio_checkEvent:
 1527              		@ args = 0, pretend = 0, frame = 0
 1528              		@ frame_needed = 0, uses_anonymous_args = 0
 1529              		@ link register save eliminated.
 1530 121c 360050E3 		cmp	r0, #54
 1531 1220 0C00008A 		bhi	.L272
 1532 1224 003000E3 		movw	r3, #:lower16:RPi_IO_Base_Addr
 1533 1228 003040E3 		movt	r3, #:upper16:RPi_IO_Base_Addr
 1534 122c A022A0E1 		lsr	r2, r0, #5
 1535 1230 0110A0E3 		mov	r1, #1
 1536 1234 102082E2 		add	r2, r2, #16
 1537 1238 1F0000E2 		and	r0, r0, #31
 1538 123c 003093E5 		ldr	r3, [r3]
 1539 1240 023683E2 		add	r3, r3, #2097152
ARM GAS  C:\Users\ldebo\AppData\Local\Temp\cc9oeUFF.s 			page 28


 1540 1244 023193E7 		ldr	r3, [r3, r2, lsl #2]
 1541 1248 113013E0 		ands	r3, r3, r1, lsl r0
 1542 124c 0100A011 		movne	r0, r1
 1543 1250 0000A003 		moveq	r0, #0
 1544 1254 1EFF2FE1 		bx	lr
 1545              	.L272:
 1546 1258 0000A0E3 		mov	r0, #0
 1547 125c 1EFF2FE1 		bx	lr
 1548              		.size	gpio_checkEvent, .-gpio_checkEvent
 1549              		.align	2
 1550              		.global	gpio_clearEvent
 1551              		.syntax unified
 1552              		.arm
 1553              		.fpu neon-vfpv4
 1554              		.type	gpio_clearEvent, %function
 1555              	gpio_clearEvent:
 1556              		@ args = 0, pretend = 0, frame = 0
 1557              		@ frame_needed = 0, uses_anonymous_args = 0
 1558              		@ link register save eliminated.
 1559 1260 360050E3 		cmp	r0, #54
 1560 1264 0B00008A 		bhi	.L275
 1561 1268 001000E3 		movw	r1, #:lower16:RPi_IO_Base_Addr
 1562 126c 001040E3 		movt	r1, #:upper16:RPi_IO_Base_Addr
 1563 1270 1FC000E2 		and	ip, r0, #31
 1564 1274 0120A0E3 		mov	r2, #1
 1565 1278 A002A0E1 		lsr	r0, r0, #5
 1566 127c 001091E5 		ldr	r1, [r1]
 1567 1280 103080E2 		add	r3, r0, #16
 1568 1284 0200A0E1 		mov	r0, r2
 1569 1288 122CA0E1 		lsl	r2, r2, ip
 1570 128c 021681E2 		add	r1, r1, #2097152
 1571 1290 032181E7 		str	r2, [r1, r3, lsl #2]
 1572 1294 1EFF2FE1 		bx	lr
 1573              	.L275:
 1574 1298 0000A0E3 		mov	r0, #0
 1575 129c 1EFF2FE1 		bx	lr
 1576              		.size	gpio_clearEvent, .-gpio_clearEvent
 1577              		.align	2
 1578              		.global	gpio_edgeDetect
 1579              		.syntax unified
 1580              		.arm
 1581              		.fpu neon-vfpv4
 1582              		.type	gpio_edgeDetect, %function
 1583              	gpio_edgeDetect:
 1584              		@ args = 0, pretend = 0, frame = 0
 1585              		@ frame_needed = 0, uses_anonymous_args = 0
 1586 12a0 360050E3 		cmp	r0, #54
 1587 12a4 1B00008A 		bhi	.L281
 1588 12a8 1F3000E2 		and	r3, r0, #31
 1589 12ac 01C0A0E3 		mov	ip, #1
 1590 12b0 000051E3 		cmp	r1, #0
 1591 12b4 04E02DE5 		str	lr, [sp, #-4]!
 1592 12b8 1CE3A0E1 		lsl	lr, ip, r3
 1593 12bc 0A00000A 		beq	.L278
 1594 12c0 000052E3 		cmp	r2, #0
 1595 12c4 1500000A 		beq	.L279
 1596 12c8 001000E3 		movw	r1, #:lower16:RPi_IO_Base_Addr
ARM GAS  C:\Users\ldebo\AppData\Local\Temp\cc9oeUFF.s 			page 29


 1597 12cc 001040E3 		movt	r1, #:upper16:RPi_IO_Base_Addr
 1598 12d0 A032A0E1 		lsr	r3, r0, #5
 1599 12d4 0200A0E1 		mov	r0, r2
 1600 12d8 002091E5 		ldr	r2, [r1]
 1601 12dc 033182E0 		add	r3, r2, r3, lsl #2
 1602 12e0 023683E2 		add	r3, r3, #2097152
 1603 12e4 7CE083E5 		str	lr, [r3, #124]
 1604 12e8 04F09DE4 		ldr	pc, [sp], #4
 1605              	.L278:
 1606 12ec 000052E3 		cmp	r2, #0
 1607 12f0 1300001A 		bne	.L286
 1608 12f4 002000E3 		movw	r2, #:lower16:RPi_IO_Base_Addr
 1609 12f8 002040E3 		movt	r2, #:upper16:RPi_IO_Base_Addr
 1610 12fc A032A0E1 		lsr	r3, r0, #5
 1611 1300 0C00A0E1 		mov	r0, ip
 1612 1304 163083E2 		add	r3, r3, #22
 1613 1308 002092E5 		ldr	r2, [r2]
 1614 130c 022682E2 		add	r2, r2, #2097152
 1615 1310 03E182E7 		str	lr, [r2, r3, lsl #2]
 1616 1314 04F09DE4 		ldr	pc, [sp], #4
 1617              	.L281:
 1618 1318 0000A0E3 		mov	r0, #0
 1619 131c 1EFF2FE1 		bx	lr
 1620              	.L279:
 1621 1320 002000E3 		movw	r2, #:lower16:RPi_IO_Base_Addr
 1622 1324 002040E3 		movt	r2, #:upper16:RPi_IO_Base_Addr
 1623 1328 A032A0E1 		lsr	r3, r0, #5
 1624 132c 0100A0E1 		mov	r0, r1
 1625 1330 002092E5 		ldr	r2, [r2]
 1626 1334 033182E0 		add	r3, r2, r3, lsl #2
 1627 1338 023683E2 		add	r3, r3, #2097152
 1628 133c 4CE083E5 		str	lr, [r3, #76]
 1629 1340 04F09DE4 		ldr	pc, [sp], #4
 1630              	.L286:
 1631 1344 001000E3 		movw	r1, #:lower16:RPi_IO_Base_Addr
 1632 1348 001040E3 		movt	r1, #:upper16:RPi_IO_Base_Addr
 1633 134c A032A0E1 		lsr	r3, r0, #5
 1634 1350 0200A0E1 		mov	r0, r2
 1635 1354 223083E2 		add	r3, r3, #34
 1636 1358 002091E5 		ldr	r2, [r1]
 1637 135c 022682E2 		add	r2, r2, #2097152
 1638 1360 03E182E7 		str	lr, [r2, r3, lsl #2]
 1639 1364 04F09DE4 		ldr	pc, [sp], #4
 1640              		.size	gpio_edgeDetect, .-gpio_edgeDetect
 1641              		.align	2
 1642              		.global	gpio_fixResistor
 1643              		.syntax unified
 1644              		.arm
 1645              		.fpu neon-vfpv4
 1646              		.type	gpio_fixResistor, %function
 1647              	gpio_fixResistor:
 1648              		@ args = 0, pretend = 0, frame = 0
 1649              		@ frame_needed = 0, uses_anonymous_args = 0
 1650 1368 360050E3 		cmp	r0, #54
 1651 136c 02005193 		cmpls	r1, #2
 1652 1370 4700008A 		bhi	.L295
 1653 1374 003000E3 		movw	r3, #:lower16:RPi_IO_Base_Addr
ARM GAS  C:\Users\ldebo\AppData\Local\Temp\cc9oeUFF.s 			page 30


 1654 1378 003040E3 		movt	r3, #:upper16:RPi_IO_Base_Addr
 1655 137c F0432DE9 		push	{r4, r5, r6, r7, r8, r9, lr}
 1656 1380 003093E5 		ldr	r3, [r3]
 1657 1384 022683E2 		add	r2, r3, #2097152
 1658 1388 033A83E2 		add	r3, r3, #12288
 1659 138c 941082E5 		str	r1, [r2, #148]
 1660              	.L289:
 1661 1390 084093E5 		ldr	r4, [r3, #8]
 1662 1394 0050A0E3 		mov	r5, #0
 1663 1398 041093E5 		ldr	r1, [r3, #4]
 1664 139c 0070A0E3 		mov	r7, #0
 1665 13a0 086093E5 		ldr	r6, [r3, #8]
 1666 13a4 070055E1 		cmp	r5, r7
 1667 13a8 06005401 		cmpeq	r4, r6
 1668 13ac F7FFFF1A 		bne	.L289
 1669 13b0 0080A0E3 		mov	r8, #0
 1670 13b4 0490A0E1 		mov	r9, r4
 1671 13b8 018088E1 		orr	r8, r8, r1
 1672 13bc 028098E2 		adds	r8, r8, #2
 1673 13c0 0090A9E2 		adc	r9, r9, #0
 1674              	.L290:
 1675 13c4 084093E5 		ldr	r4, [r3, #8]
 1676 13c8 0050A0E3 		mov	r5, #0
 1677 13cc 041093E5 		ldr	r1, [r3, #4]
 1678 13d0 0070A0E3 		mov	r7, #0
 1679 13d4 086093E5 		ldr	r6, [r3, #8]
 1680 13d8 070055E1 		cmp	r5, r7
 1681 13dc 06005401 		cmpeq	r4, r6
 1682 13e0 F7FFFF1A 		bne	.L290
 1683 13e4 0450A0E1 		mov	r5, r4
 1684 13e8 0040A0E3 		mov	r4, #0
 1685 13ec 014084E1 		orr	r4, r4, r1
 1686 13f0 050059E1 		cmp	r9, r5
 1687 13f4 04005801 		cmpeq	r8, r4
 1688 13f8 F1FFFF8A 		bhi	.L290
 1689 13fc A0E2A0E1 		lsr	lr, r0, #5
 1690 1400 0110A0E3 		mov	r1, #1
 1691 1404 1F0000E2 		and	r0, r0, #31
 1692 1408 0EE182E0 		add	lr, r2, lr, lsl #2
 1693 140c 1100A0E1 		lsl	r0, r1, r0
 1694 1410 98008EE5 		str	r0, [lr, #152]
 1695              	.L292:
 1696 1414 080093E5 		ldr	r0, [r3, #8]
 1697 1418 0010A0E3 		mov	r1, #0
 1698 141c 04C093E5 		ldr	ip, [r3, #4]
 1699 1420 0050A0E3 		mov	r5, #0
 1700 1424 084093E5 		ldr	r4, [r3, #8]
 1701 1428 050051E1 		cmp	r1, r5
 1702 142c 04005001 		cmpeq	r0, r4
 1703 1430 F7FFFF1A 		bne	.L292
 1704 1434 0040A0E3 		mov	r4, #0
 1705 1438 0050A0E1 		mov	r5, r0
 1706 143c 0C4084E1 		orr	r4, r4, ip
 1707 1440 024094E2 		adds	r4, r4, #2
 1708 1444 0050A5E2 		adc	r5, r5, #0
 1709              	.L293:
 1710 1448 080093E5 		ldr	r0, [r3, #8]
ARM GAS  C:\Users\ldebo\AppData\Local\Temp\cc9oeUFF.s 			page 31


 1711 144c 0010A0E3 		mov	r1, #0
 1712 1450 04C093E5 		ldr	ip, [r3, #4]
 1713 1454 0070A0E3 		mov	r7, #0
 1714 1458 086093E5 		ldr	r6, [r3, #8]
 1715 145c 070051E1 		cmp	r1, r7
 1716 1460 06005001 		cmpeq	r0, r6
 1717 1464 F7FFFF1A 		bne	.L293
 1718 1468 0010A0E1 		mov	r1, r0
 1719 146c 0000A0E3 		mov	r0, #0
 1720 1470 0C0080E1 		orr	r0, r0, ip
 1721 1474 010055E1 		cmp	r5, r1
 1722 1478 00005401 		cmpeq	r4, r0
 1723 147c F1FFFF8A 		bhi	.L293
 1724 1480 0030A0E3 		mov	r3, #0
 1725 1484 0100A0E3 		mov	r0, #1
 1726 1488 943082E5 		str	r3, [r2, #148]
 1727 148c 98308EE5 		str	r3, [lr, #152]
 1728 1490 F083BDE8 		pop	{r4, r5, r6, r7, r8, r9, pc}
 1729              	.L295:
 1730 1494 0000A0E3 		mov	r0, #0
 1731 1498 1EFF2FE1 		bx	lr
 1732              		.size	gpio_fixResistor, .-gpio_fixResistor
 1733              		.align	2
 1734              		.global	timer_getTickCount
 1735              		.syntax unified
 1736              		.arm
 1737              		.fpu neon-vfpv4
 1738              		.type	timer_getTickCount, %function
 1739              	timer_getTickCount:
 1740              		@ args = 0, pretend = 0, frame = 0
 1741              		@ frame_needed = 0, uses_anonymous_args = 0
 1742              		@ link register save eliminated.
 1743 149c 003000E3 		movw	r3, #:lower16:RPi_IO_Base_Addr
 1744 14a0 003040E3 		movt	r3, #:upper16:RPi_IO_Base_Addr
 1745 14a4 30002DE9 		push	{r4, r5}
 1746 14a8 001093E5 		ldr	r1, [r3]
 1747 14ac 031A81E2 		add	r1, r1, #12288
 1748              	.L307:
 1749 14b0 082091E5 		ldr	r2, [r1, #8]
 1750 14b4 0030A0E3 		mov	r3, #0
 1751 14b8 040091E5 		ldr	r0, [r1, #4]
 1752 14bc 0050A0E3 		mov	r5, #0
 1753 14c0 084091E5 		ldr	r4, [r1, #8]
 1754 14c4 050053E1 		cmp	r3, r5
 1755 14c8 04005201 		cmpeq	r2, r4
 1756 14cc F7FFFF1A 		bne	.L307
 1757 14d0 0230A0E1 		mov	r3, r2
 1758 14d4 0020A0E3 		mov	r2, #0
 1759 14d8 002082E1 		orr	r2, r2, r0
 1760 14dc 0200A0E1 		mov	r0, r2
 1761 14e0 0310A0E1 		mov	r1, r3
 1762 14e4 3000BDE8 		pop	{r4, r5}
 1763 14e8 1EFF2FE1 		bx	lr
 1764              		.size	timer_getTickCount, .-timer_getTickCount
 1765              		.align	2
 1766              		.global	timer_wait
 1767              		.syntax unified
ARM GAS  C:\Users\ldebo\AppData\Local\Temp\cc9oeUFF.s 			page 32


 1768              		.arm
 1769              		.fpu neon-vfpv4
 1770              		.type	timer_wait, %function
 1771              	timer_wait:
 1772              		@ args = 0, pretend = 0, frame = 0
 1773              		@ frame_needed = 0, uses_anonymous_args = 0
 1774 14ec 003000E3 		movw	r3, #:lower16:RPi_IO_Base_Addr
 1775 14f0 003040E3 		movt	r3, #:upper16:RPi_IO_Base_Addr
 1776 14f4 30402DE9 		push	{r4, r5, lr}
 1777 14f8 00C093E5 		ldr	ip, [r3]
 1778 14fc 03CA8CE2 		add	ip, ip, #12288
 1779              	.L311:
 1780 1500 08209CE5 		ldr	r2, [ip, #8]
 1781 1504 0030A0E3 		mov	r3, #0
 1782 1508 04E09CE5 		ldr	lr, [ip, #4]
 1783 150c 0050A0E3 		mov	r5, #0
 1784 1510 08409CE5 		ldr	r4, [ip, #8]
 1785 1514 050053E1 		cmp	r3, r5
 1786 1518 04005201 		cmpeq	r2, r4
 1787 151c F7FFFF1A 		bne	.L311
 1788 1520 0040A0E3 		mov	r4, #0
 1789 1524 0250A0E1 		mov	r5, r2
 1790 1528 0E4084E1 		orr	r4, r4, lr
 1791 152c 004094E0 		adds	r4, r4, r0
 1792 1530 0150A5E0 		adc	r5, r5, r1
 1793              	.L312:
 1794 1534 08209CE5 		ldr	r2, [ip, #8]
 1795 1538 0030A0E3 		mov	r3, #0
 1796 153c 04E09CE5 		ldr	lr, [ip, #4]
 1797 1540 0010A0E3 		mov	r1, #0
 1798 1544 08009CE5 		ldr	r0, [ip, #8]
 1799 1548 010053E1 		cmp	r3, r1
 1800 154c 00005201 		cmpeq	r2, r0
 1801 1550 F7FFFF1A 		bne	.L312
 1802 1554 0230A0E1 		mov	r3, r2
 1803 1558 0020A0E3 		mov	r2, #0
 1804 155c 0E2082E1 		orr	r2, r2, lr
 1805 1560 030055E1 		cmp	r5, r3
 1806 1564 02005401 		cmpeq	r4, r2
 1807 1568 F1FFFF8A 		bhi	.L312
 1808 156c 3080BDE8 		pop	{r4, r5, pc}
 1809              		.size	timer_wait, .-timer_wait
 1810              		.align	2
 1811              		.global	tick_difference
 1812              		.syntax unified
 1813              		.arm
 1814              		.fpu neon-vfpv4
 1815              		.type	tick_difference, %function
 1816              	tick_difference:
 1817              		@ args = 0, pretend = 0, frame = 0
 1818              		@ frame_needed = 0, uses_anonymous_args = 0
 1819              		@ link register save eliminated.
 1820 1570 000052E0 		subs	r0, r2, r0
 1821 1574 0110C3E0 		sbc	r1, r3, r1
 1822 1578 1EFF2FE1 		bx	lr
 1823              		.size	tick_difference, .-tick_difference
 1824              		.align	2
ARM GAS  C:\Users\ldebo\AppData\Local\Temp\cc9oeUFF.s 			page 33


 1825              		.global	mailbox_write
 1826              		.syntax unified
 1827              		.arm
 1828              		.fpu neon-vfpv4
 1829              		.type	mailbox_write, %function
 1830              	mailbox_write:
 1831              		@ args = 0, pretend = 0, frame = 0
 1832              		@ frame_needed = 0, uses_anonymous_args = 0
 1833              		@ link register save eliminated.
 1834 157c 090050E3 		cmp	r0, #9
 1835 1580 0C00008A 		bhi	.L322
 1836 1584 003000E3 		movw	r3, #:lower16:RPi_IO_Base_Addr
 1837 1588 003040E3 		movt	r3, #:upper16:RPi_IO_Base_Addr
 1838 158c 0F10C1E3 		bic	r1, r1, #15
 1839 1590 010080E1 		orr	r0, r0, r1
 1840 1594 002093E5 		ldr	r2, [r3]
 1841 1598 2E2B82E2 		add	r2, r2, #47104
 1842 159c 802082E2 		add	r2, r2, #128
 1843              	.L321:
 1844 15a0 383092E5 		ldr	r3, [r2, #56]
 1845 15a4 000053E3 		cmp	r3, #0
 1846 15a8 FCFFFFBA 		blt	.L321
 1847 15ac 200082E5 		str	r0, [r2, #32]
 1848 15b0 0100A0E3 		mov	r0, #1
 1849 15b4 1EFF2FE1 		bx	lr
 1850              	.L322:
 1851 15b8 0000A0E3 		mov	r0, #0
 1852 15bc 1EFF2FE1 		bx	lr
 1853              		.size	mailbox_write, .-mailbox_write
 1854              		.align	2
 1855              		.global	mailbox_read
 1856              		.syntax unified
 1857              		.arm
 1858              		.fpu neon-vfpv4
 1859              		.type	mailbox_read, %function
 1860              	mailbox_read:
 1861              		@ args = 0, pretend = 0, frame = 0
 1862              		@ frame_needed = 0, uses_anonymous_args = 0
 1863              		@ link register save eliminated.
 1864 15c0 090050E3 		cmp	r0, #9
 1865 15c4 0200009A 		bls	.L331
 1866 15c8 AD0E0DE3 		movw	r0, #57005
 1867 15cc ED0E4FE3 		movt	r0, 65261
 1868 15d0 1EFF2FE1 		bx	lr
 1869              	.L331:
 1870 15d4 003000E3 		movw	r3, #:lower16:RPi_IO_Base_Addr
 1871 15d8 003040E3 		movt	r3, #:upper16:RPi_IO_Base_Addr
 1872 15dc 002093E5 		ldr	r2, [r3]
 1873 15e0 2E2B82E2 		add	r2, r2, #47104
 1874 15e4 802082E2 		add	r2, r2, #128
 1875              	.L326:
 1876 15e8 183092E5 		ldr	r3, [r2, #24]
 1877 15ec 010113E3 		tst	r3, #1073741824
 1878 15f0 FCFFFF1A 		bne	.L326
 1879 15f4 003092E5 		ldr	r3, [r2]
 1880 15f8 0F1003E2 		and	r1, r3, #15
 1881 15fc 000051E1 		cmp	r1, r0
ARM GAS  C:\Users\ldebo\AppData\Local\Temp\cc9oeUFF.s 			page 34


 1882 1600 F8FFFF1A 		bne	.L326
 1883 1604 0F00C3E3 		bic	r0, r3, #15
 1884 1608 1EFF2FE1 		bx	lr
 1885              		.size	mailbox_read, .-mailbox_read
 1886              		.align	2
 1887              		.global	mailbox_tag_message
 1888              		.syntax unified
 1889              		.arm
 1890              		.fpu neon-vfpv4
 1891              		.type	mailbox_tag_message, %function
 1892              	mailbox_tag_message:
 1893              		@ args = 4, pretend = 12, frame = 8
 1894              		@ frame_needed = 1, uses_anonymous_args = 1
 1895 160c 0E002DE9 		push	{r1, r2, r3}
 1896 1610 0020A0E3 		mov	r2, #0
 1897 1614 70482DE9 		push	{r4, r5, r6, fp, lr}
 1898 1618 0040A0E1 		mov	r4, r0
 1899 161c 10B08DE2 		add	fp, sp, #16
 1900 1620 08D04DE2 		sub	sp, sp, #8
 1901 1624 90D04DE2 		sub	sp, sp, #144
 1902 1628 0F508DE2 		add	r5, sp, #15
 1903 162c 08C08BE2 		add	ip, fp, #8
 1904 1630 0460DBE5 		ldrb	r6, [fp, #4]	@ zero_extendqisi2
 1905 1634 0F50C5E3 		bic	r5, r5, #15
 1906 1638 14C00BE5 		str	ip, [fp, #-20]
 1907 163c 033086E2 		add	r3, r6, #3
 1908 1640 021086E2 		add	r1, r6, #2
 1909 1644 020056E1 		cmp	r6, r2
 1910 1648 0331A0E1 		lsl	r3, r3, #2
 1911 164c 003085E5 		str	r3, [r5]
 1912 1650 012185E7 		str	r2, [r5, r1, lsl #2]
 1913 1654 042085E5 		str	r2, [r5, #4]
 1914 1658 0700000A 		beq	.L336
 1915 165c 010086E2 		add	r0, r6, #1
 1916 1660 04208BE2 		add	r2, fp, #4
 1917 1664 043085E2 		add	r3, r5, #4
 1918 1668 000185E0 		add	r0, r5, r0, lsl #2
 1919              	.L335:
 1920 166c 0410B2E5 		ldr	r1, [r2, #4]!
 1921 1670 0410A3E5 		str	r1, [r3, #4]!
 1922 1674 000053E1 		cmp	r3, r0
 1923 1678 FBFFFF1A 		bne	.L335
 1924              	.L336:
 1925 167c 0500A0E1 		mov	r0, r5
 1926 1680 FEFFFFEB 		bl	ARMaddrToGPUaddr
 1927 1684 003000E3 		movw	r3, #:lower16:RPi_IO_Base_Addr
 1928 1688 003040E3 		movt	r3, #:upper16:RPi_IO_Base_Addr
 1929 168c 0F10C0E3 		bic	r1, r0, #15
 1930 1690 081081E3 		orr	r1, r1, #8
 1931 1694 003093E5 		ldr	r3, [r3]
 1932 1698 2E3B83E2 		add	r3, r3, #47104
 1933 169c 803083E2 		add	r3, r3, #128
 1934              	.L334:
 1935 16a0 382093E5 		ldr	r2, [r3, #56]
 1936 16a4 000052E3 		cmp	r2, #0
 1937 16a8 FCFFFFBA 		blt	.L334
 1938 16ac 201083E5 		str	r1, [r3, #32]
ARM GAS  C:\Users\ldebo\AppData\Local\Temp\cc9oeUFF.s 			page 35


 1939              	.L337:
 1940 16b0 180093E5 		ldr	r0, [r3, #24]
 1941 16b4 010110E2 		ands	r0, r0, #1073741824
 1942 16b8 FCFFFF1A 		bne	.L337
 1943 16bc 002093E5 		ldr	r2, [r3]
 1944 16c0 0F2002E2 		and	r2, r2, #15
 1945 16c4 080052E3 		cmp	r2, #8
 1946 16c8 F8FFFF1A 		bne	.L337
 1947 16cc 043095E5 		ldr	r3, [r5, #4]
 1948 16d0 020153E3 		cmp	r3, #-2147483648
 1949 16d4 0300000A 		beq	.L353
 1950 16d8 10D04BE2 		sub	sp, fp, #16
 1951              		@ sp needed
 1952 16dc 7048BDE8 		pop	{r4, r5, r6, fp, lr}
 1953 16e0 0CD08DE2 		add	sp, sp, #12
 1954 16e4 1EFF2FE1 		bx	lr
 1955              	.L353:
 1956 16e8 000054E3 		cmp	r4, #0
 1957 16ec 0900000A 		beq	.L341
 1958 16f0 000056E3 		cmp	r6, #0
 1959 16f4 0700000A 		beq	.L341
 1960 16f8 016086E2 		add	r6, r6, #1
 1961 16fc 043085E2 		add	r3, r5, #4
 1962 1700 044044E2 		sub	r4, r4, #4
 1963 1704 065185E0 		add	r5, r5, r6, lsl #2
 1964              	.L342:
 1965 1708 0420B3E5 		ldr	r2, [r3, #4]!
 1966 170c 050053E1 		cmp	r3, r5
 1967 1710 0420A4E5 		str	r2, [r4, #4]!
 1968 1714 FBFFFF1A 		bne	.L342
 1969              	.L341:
 1970 1718 0100A0E3 		mov	r0, #1
 1971 171c 10D04BE2 		sub	sp, fp, #16
 1972              		@ sp needed
 1973 1720 7048BDE8 		pop	{r4, r5, r6, fp, lr}
 1974 1724 0CD08DE2 		add	sp, sp, #12
 1975 1728 1EFF2FE1 		bx	lr
 1976              		.size	mailbox_tag_message, .-mailbox_tag_message
 1977              		.align	2
 1978              		.global	set_Activity_LED
 1979              		.syntax unified
 1980              		.arm
 1981              		.fpu neon-vfpv4
 1982              		.type	set_Activity_LED, %function
 1983              	set_Activity_LED:
 1984              		@ args = 0, pretend = 0, frame = 16
 1985              		@ frame_needed = 0, uses_anonymous_args = 0
 1986 172c 003000E3 		movw	r3, #:lower16:RPi_CpuId
 1987 1730 003040E3 		movt	r3, #:upper16:RPi_CpuId
 1988 1734 072C00E3 		movw	r2, #3079
 1989 1738 003093E5 		ldr	r3, [r3]
 1990 173c 5332EBE7 		ubfx	r3, r3, #4, #12
 1991 1740 020053E1 		cmp	r3, r2
 1992 1744 3400000A 		beq	.L356
 1993 1748 032D00E3 		movw	r2, #3331
 1994 174c 10402DE9 		push	{r4, lr}
 1995 1750 020053E1 		cmp	r3, r2
ARM GAS  C:\Users\ldebo\AppData\Local\Temp\cc9oeUFF.s 			page 36


 1996 1754 20D04DE2 		sub	sp, sp, #32
 1997 1758 0040A0E1 		mov	r4, r0
 1998 175c 2100000A 		beq	.L357
 1999 1760 762B00E3 		movw	r2, #2934
 2000 1764 020053E1 		cmp	r3, r2
 2001 1768 0000A013 		movne	r0, #0
 2002 176c 0100000A 		beq	.L375
 2003              	.L355:
 2004 1770 20D08DE2 		add	sp, sp, #32
 2005              		@ sp needed
 2006 1774 1080BDE8 		pop	{r4, pc}
 2007              	.L375:
 2008 1778 00C000E3 		movw	ip, #:lower16:.LANCHOR1
 2009 177c 00C040E3 		movt	ip, #:upper16:.LANCHOR1
 2010 1780 0020DCE5 		ldrb	r2, [ip]	@ zero_extendqisi2
 2011 1784 000052E3 		cmp	r2, #0
 2012 1788 2F00000A 		beq	.L376
 2013              	.L374:
 2014 178c 003000E3 		movw	r3, #:lower16:.LANCHOR2
 2015 1790 003040E3 		movt	r3, #:upper16:.LANCHOR2
 2016 1794 003093E5 		ldr	r3, [r3]
 2017 1798 360053E3 		cmp	r3, #54
 2018 179c 0100A083 		movhi	r0, #1
 2019 17a0 F2FFFF8A 		bhi	.L355
 2020              	.L369:
 2021 17a4 000054E3 		cmp	r4, #0
 2022 17a8 001000E3 		movw	r1, #:lower16:RPi_IO_Base_Addr
 2023 17ac 001040E3 		movt	r1, #:upper16:RPi_IO_Base_Addr
 2024 17b0 1F2003E2 		and	r2, r3, #31
 2025 17b4 A332A0E1 		lsr	r3, r3, #5
 2026 17b8 0100A0E3 		mov	r0, #1
 2027 17bc 0A308302 		addeq	r3, r3, #10
 2028 17c0 00109115 		ldrne	r1, [r1]
 2029 17c4 00109105 		ldreq	r1, [r1]
 2030 17c8 1022A0E1 		lsl	r2, r0, r2
 2031 17cc 0400A011 		movne	r0, r4
 2032 17d0 03318110 		addne	r3, r1, r3, lsl #2
 2033 17d4 02168102 		addeq	r1, r1, #2097152
 2034 17d8 02368312 		addne	r3, r3, #2097152
 2035 17dc 03218107 		streq	r2, [r1, r3, lsl #2]
 2036 17e0 1C208315 		strne	r2, [r3, #28]
 2037 17e4 E1FFFFEA 		b	.L355
 2038              	.L357:
 2039 17e8 0810A0E3 		mov	r1, #8
 2040 17ec 8220A0E3 		mov	r2, #130
 2041 17f0 08008DE5 		str	r0, [sp, #8]
 2042 17f4 0130A0E1 		mov	r3, r1
 2043 17f8 04208DE5 		str	r2, [sp, #4]
 2044 17fc 0000A0E3 		mov	r0, #0
 2045 1800 00108DE5 		str	r1, [sp]
 2046 1804 412008E3 		movw	r2, #32833
 2047 1808 032040E3 		movt	r2, 3
 2048 180c 0510A0E3 		mov	r1, #5
 2049 1810 4CFDFFEB 		bl	mailbox_tag_message.constprop.4
 2050 1814 20D08DE2 		add	sp, sp, #32
 2051              		@ sp needed
 2052 1818 1080BDE8 		pop	{r4, pc}
ARM GAS  C:\Users\ldebo\AppData\Local\Temp\cc9oeUFF.s 			page 37


 2053              	.L356:
 2054 181c 000050E3 		cmp	r0, #0
 2055 1820 003000E3 		movw	r3, #:lower16:RPi_IO_Base_Addr
 2056 1824 003040E3 		movt	r3, #:upper16:RPi_IO_Base_Addr
 2057 1828 0229A0E3 		mov	r2, #32768
 2058 182c 0100A003 		moveq	r0, #1
 2059 1830 00309315 		ldrne	r3, [r3]
 2060 1834 00309305 		ldreq	r3, [r3]
 2061 1838 02368312 		addne	r3, r3, #2097152
 2062 183c 02368302 		addeq	r3, r3, #2097152
 2063 1840 20208315 		strne	r2, [r3, #32]
 2064 1844 2C208305 		streq	r2, [r3, #44]
 2065 1848 1EFF2FE1 		bx	lr
 2066              	.L376:
 2067 184c 0430A0E3 		mov	r3, #4
 2068 1850 04208DE5 		str	r2, [sp, #4]
 2069 1854 00208DE5 		str	r2, [sp]
 2070 1858 01E0A0E3 		mov	lr, #1
 2071 185c 0310A0E1 		mov	r1, r3
 2072 1860 0220A0E3 		mov	r2, #2
 2073 1864 012040E3 		movt	r2, 1
 2074 1868 10008DE2 		add	r0, sp, #16
 2075 186c 00E0CCE5 		strb	lr, [ip]
 2076 1870 A8FDFFEB 		bl	mailbox_tag_message.constprop.6
 2077 1874 000050E3 		cmp	r0, #0
 2078 1878 C3FFFF0A 		beq	.L374
 2079 187c 1C309DE5 		ldr	r3, [sp, #28]
 2080 1880 002000E3 		movw	r2, #:lower16:.LANCHOR2
 2081 1884 002040E3 		movt	r2, #:upper16:.LANCHOR2
 2082 1888 023043E2 		sub	r3, r3, #2
 2083 188c 0D0053E3 		cmp	r3, #13
 2084 1890 1010A093 		movls	r1, #16
 2085 1894 2F10A083 		movhi	r1, #47
 2086 1898 0130A0E1 		mov	r3, r1
 2087 189c 001082E5 		str	r1, [r2]
 2088 18a0 BFFFFFEA 		b	.L369
 2089              		.size	set_Activity_LED, .-set_Activity_LED
 2090              		.align	2
 2091              		.global	ARM_setmaxspeed
 2092              		.syntax unified
 2093              		.arm
 2094              		.fpu neon-vfpv4
 2095              		.type	ARM_setmaxspeed, %function
 2096              	ARM_setmaxspeed:
 2097              		@ args = 0, pretend = 0, frame = 24
 2098              		@ frame_needed = 0, uses_anonymous_args = 0
 2099 18a4 70402DE9 		push	{r4, r5, r6, lr}
 2100 18a8 0030A0E3 		mov	r3, #0
 2101 18ac 0840A0E3 		mov	r4, #8
 2102 18b0 28D04DE2 		sub	sp, sp, #40
 2103 18b4 0350A0E3 		mov	r5, #3
 2104 18b8 0060A0E1 		mov	r6, r0
 2105 18bc 0420A0E3 		mov	r2, #4
 2106 18c0 032040E3 		movt	r2, 3
 2107 18c4 08308DE5 		str	r3, [sp, #8]
 2108 18c8 14008DE2 		add	r0, sp, #20
 2109 18cc 30008DE8 		stm	sp, {r4, r5}
ARM GAS  C:\Users\ldebo\AppData\Local\Temp\cc9oeUFF.s 			page 38


 2110 18d0 0430A0E1 		mov	r3, r4
 2111 18d4 0510A0E3 		mov	r1, #5
 2112 18d8 4EFDFFEB 		bl	mailbox_tag_message.constprop.5
 2113 18dc 000050E3 		cmp	r0, #0
 2114 18e0 0300001A 		bne	.L378
 2115              	.L380:
 2116 18e4 0040A0E3 		mov	r4, #0
 2117              	.L379:
 2118 18e8 0400A0E1 		mov	r0, r4
 2119 18ec 28D08DE2 		add	sp, sp, #40
 2120              		@ sp needed
 2121 18f0 7080BDE8 		pop	{r4, r5, r6, pc}
 2122              	.L378:
 2123 18f4 24109DE5 		ldr	r1, [sp, #36]
 2124 18f8 0430A0E1 		mov	r3, r4
 2125 18fc 00408DE5 		str	r4, [sp]
 2126 1900 14008DE2 		add	r0, sp, #20
 2127 1904 08108DE5 		str	r1, [sp, #8]
 2128 1908 022008E3 		movw	r2, #32770
 2129 190c 032040E3 		movt	r2, 3
 2130 1910 04508DE5 		str	r5, [sp, #4]
 2131 1914 0510A0E3 		mov	r1, #5
 2132 1918 3EFDFFEB 		bl	mailbox_tag_message.constprop.5
 2133 191c 004050E2 		subs	r4, r0, #0
 2134 1920 EFFFFF0A 		beq	.L380
 2135 1924 000056E3 		cmp	r6, #0
 2136 1928 EEFFFF0A 		beq	.L379
 2137 192c 24109DE5 		ldr	r1, [sp, #36]
 2138 1930 000000E3 		movw	r0, #:lower16:.LC0
 2139 1934 000040E3 		movt	r0, #:upper16:.LC0
 2140 1938 36FF2FE1 		blx	r6
 2141 193c 0400A0E1 		mov	r0, r4
 2142 1940 28D08DE2 		add	sp, sp, #40
 2143              		@ sp needed
 2144 1944 7080BDE8 		pop	{r4, r5, r6, pc}
 2145              		.size	ARM_setmaxspeed, .-ARM_setmaxspeed
 2146              		.align	2
 2147              		.global	displaySmartStart
 2148              		.syntax unified
 2149              		.arm
 2150              		.fpu neon-vfpv4
 2151              		.type	displaySmartStart, %function
 2152              	displaySmartStart:
 2153              		@ args = 0, pretend = 0, frame = 0
 2154              		@ frame_needed = 0, uses_anonymous_args = 0
 2155 1948 10402DE9 		push	{r4, lr}
 2156 194c 004050E2 		subs	r4, r0, #0
 2157 1950 1080BD08 		popeq	{r4, pc}
 2158 1954 003000E3 		movw	r3, #:lower16:RPi_CompileMode
 2159 1958 003040E3 		movt	r3, #:upper16:RPi_CompileMode
 2160 195c 000000E3 		movw	r0, #:lower16:.LC1
 2161 1960 000040E3 		movt	r0, #:upper16:.LC1
 2162 1964 0010D3E5 		ldrb	r1, [r3]	@ zero_extendqisi2
 2163 1968 0020D3E5 		ldrb	r2, [r3]	@ zero_extendqisi2
 2164 196c 003093E5 		ldr	r3, [r3]
 2165 1970 0F1001E2 		and	r1, r1, #15
 2166 1974 5222E0E7 		ubfx	r2, r2, #4, #1
ARM GAS  C:\Users\ldebo\AppData\Local\Temp\cc9oeUFF.s 			page 39


 2167 1978 012082E2 		add	r2, r2, #1
 2168 197c D332E2E7 		ubfx	r3, r3, #5, #3
 2169 1980 8222A0E1 		lsl	r2, r2, #5
 2170 1984 34FF2FE1 		blx	r4
 2171 1988 FEFFFFEB 		bl	RPi_CpuIdString
 2172 198c 002000E3 		movw	r2, #:lower16:RPi_CpuId
 2173 1990 002040E3 		movt	r2, #:upper16:RPi_CpuId
 2174 1994 003000E3 		movw	r3, #:lower16:RPi_CoresReady
 2175 1998 003040E3 		movt	r3, #:upper16:RPi_CoresReady
 2176 199c 0010A0E1 		mov	r1, r0
 2177 19a0 04C0A0E1 		mov	ip, r4
 2178 19a4 002092E5 		ldr	r2, [r2]
 2179 19a8 000000E3 		movw	r0, #:lower16:.LC2
 2180 19ac 000040E3 		movt	r0, #:upper16:.LC2
 2181 19b0 003093E5 		ldr	r3, [r3]
 2182 19b4 5222EBE7 		ubfx	r2, r2, #4, #12
 2183 19b8 1040BDE8 		pop	{r4, lr}
 2184 19bc 1CFF2FE1 		bx	ip
 2185              		.size	displaySmartStart, .-displaySmartStart
 2186              		.align	2
 2187              		.global	Embedded_Console_WriteChar
 2188              		.syntax unified
 2189              		.arm
 2190              		.fpu neon-vfpv4
 2191              		.type	Embedded_Console_WriteChar, %function
 2192              	Embedded_Console_WriteChar:
 2193              		@ args = 0, pretend = 0, frame = 0
 2194              		@ frame_needed = 0, uses_anonymous_args = 0
 2195 19c0 0A0050E3 		cmp	r0, #10
 2196 19c4 2400000A 		beq	.L393
 2197 19c8 0D0050E3 		cmp	r0, #13
 2198 19cc 1D00000A 		beq	.L394
 2199 19d0 090050E3 		cmp	r0, #9
 2200 19d4 1000000A 		beq	.L402
 2201 19d8 70402DE9 		push	{r4, r5, r6, lr}
 2202 19dc 004000E3 		movw	r4, #:lower16:.LANCHOR1
 2203 19e0 004040E3 		movt	r4, #:upper16:.LANCHOR1
 2204 19e4 0010A0E1 		mov	r1, r0
 2205 19e8 040084E2 		add	r0, r4, #4
 2206 19ec 1C2094E5 		ldr	r2, [r4, #28]
 2207 19f0 203094E5 		ldr	r3, [r4, #32]
 2208 19f4 405094E5 		ldr	r5, [r4, #64]
 2209 19f8 8221A0E1 		lsl	r2, r2, #3
 2210 19fc 0332A0E1 		lsl	r3, r3, #4
 2211 1a00 142084E5 		str	r2, [r4, #20]
 2212 1a04 183084E5 		str	r3, [r4, #24]
 2213 1a08 35FF2FE1 		blx	r5
 2214 1a0c 1C3094E5 		ldr	r3, [r4, #28]
 2215 1a10 013083E2 		add	r3, r3, #1
 2216 1a14 1C3084E5 		str	r3, [r4, #28]
 2217 1a18 7080BDE8 		pop	{r4, r5, r6, pc}
 2218              	.L402:
 2219 1a1c 002000E3 		movw	r2, #:lower16:.LANCHOR1
 2220 1a20 002040E3 		movt	r2, #:upper16:.LANCHOR1
 2221 1a24 1C3092E5 		ldr	r3, [r2, #28]
 2222 1a28 053083E2 		add	r3, r3, #5
 2223 1a2c 000073E2 		rsbs	r0, r3, #0
ARM GAS  C:\Users\ldebo\AppData\Local\Temp\cc9oeUFF.s 			page 40


 2224 1a30 031003E2 		and	r1, r3, #3
 2225 1a34 030000E2 		and	r0, r0, #3
 2226 1a38 00106052 		rsbpl	r1, r0, #0
 2227 1a3c 013043E0 		sub	r3, r3, r1
 2228 1a40 1C3082E5 		str	r3, [r2, #28]
 2229 1a44 1EFF2FE1 		bx	lr
 2230              	.L394:
 2231 1a48 003000E3 		movw	r3, #:lower16:.LANCHOR1
 2232 1a4c 003040E3 		movt	r3, #:upper16:.LANCHOR1
 2233 1a50 0020A0E3 		mov	r2, #0
 2234 1a54 1C2083E5 		str	r2, [r3, #28]
 2235 1a58 1EFF2FE1 		bx	lr
 2236              	.L393:
 2237 1a5c 003000E3 		movw	r3, #:lower16:.LANCHOR1
 2238 1a60 003040E3 		movt	r3, #:upper16:.LANCHOR1
 2239 1a64 0010A0E3 		mov	r1, #0
 2240 1a68 202093E5 		ldr	r2, [r3, #32]
 2241 1a6c 1C1083E5 		str	r1, [r3, #28]
 2242 1a70 012082E2 		add	r2, r2, #1
 2243 1a74 202083E5 		str	r2, [r3, #32]
 2244 1a78 1EFF2FE1 		bx	lr
 2245              		.size	Embedded_Console_WriteChar, .-Embedded_Console_WriteChar
 2246              		.align	2
 2247              		.global	WriteText
 2248              		.syntax unified
 2249              		.arm
 2250              		.fpu neon-vfpv4
 2251              		.type	WriteText, %function
 2252              	WriteText:
 2253              		@ args = 0, pretend = 0, frame = 0
 2254              		@ frame_needed = 0, uses_anonymous_args = 0
 2255 1a7c F0472DE9 		push	{r4, r5, r6, r7, r8, r9, r10, lr}
 2256 1a80 005052E2 		subs	r5, r2, #0
 2257 1a84 F087BD08 		popeq	{r4, r5, r6, r7, r8, r9, r10, pc}
 2258 1a88 004000E3 		movw	r4, #:lower16:.LANCHOR1
 2259 1a8c 004040E3 		movt	r4, #:upper16:.LANCHOR1
 2260 1a90 0030A0E1 		mov	r3, r0
 2261 1a94 0500A0E1 		mov	r0, r5
 2262 1a98 1C3084E5 		str	r3, [r4, #28]
 2263 1a9c 201084E5 		str	r1, [r4, #32]
 2264 1aa0 FEFFFFEB 		bl	strlen
 2265 1aa4 000050E3 		cmp	r0, #0
 2266 1aa8 F087BD08 		popeq	{r4, r5, r6, r7, r8, r9, r10, pc}
 2267 1aac 0080A0E3 		mov	r8, #0
 2268 1ab0 006085E0 		add	r6, r5, r0
 2269 1ab4 047084E2 		add	r7, r4, #4
 2270 1ab8 130000EA 		b	.L411
 2271              	.L421:
 2272 1abc 0D0053E3 		cmp	r3, #13
 2273 1ac0 0310A0E1 		mov	r1, r3
 2274 1ac4 0700A0E1 		mov	r0, r7
 2275 1ac8 1C808405 		streq	r8, [r4, #28]
 2276 1acc 0C00000A 		beq	.L410
 2277 1ad0 090053E3 		cmp	r3, #9
 2278 1ad4 1600000A 		beq	.L419
 2279 1ad8 1C2094E5 		ldr	r2, [r4, #28]
 2280 1adc 203094E5 		ldr	r3, [r4, #32]
ARM GAS  C:\Users\ldebo\AppData\Local\Temp\cc9oeUFF.s 			page 41


 2281 1ae0 409094E5 		ldr	r9, [r4, #64]
 2282 1ae4 8221A0E1 		lsl	r2, r2, #3
 2283 1ae8 0332A0E1 		lsl	r3, r3, #4
 2284 1aec 142084E5 		str	r2, [r4, #20]
 2285 1af0 183084E5 		str	r3, [r4, #24]
 2286 1af4 39FF2FE1 		blx	r9
 2287 1af8 1C3094E5 		ldr	r3, [r4, #28]
 2288 1afc 013083E2 		add	r3, r3, #1
 2289 1b00 1C3084E5 		str	r3, [r4, #28]
 2290              	.L410:
 2291 1b04 060055E1 		cmp	r5, r6
 2292 1b08 0800000A 		beq	.L420
 2293              	.L411:
 2294 1b0c 0130D5E4 		ldrb	r3, [r5], #1	@ zero_extendqisi2
 2295 1b10 0A0053E3 		cmp	r3, #10
 2296 1b14 E8FFFF1A 		bne	.L421
 2297 1b18 203094E5 		ldr	r3, [r4, #32]
 2298 1b1c 060055E1 		cmp	r5, r6
 2299 1b20 1C8084E5 		str	r8, [r4, #28]
 2300 1b24 013083E2 		add	r3, r3, #1
 2301 1b28 203084E5 		str	r3, [r4, #32]
 2302 1b2c F6FFFF1A 		bne	.L411
 2303              	.L420:
 2304 1b30 F087BDE8 		pop	{r4, r5, r6, r7, r8, r9, r10, pc}
 2305              	.L419:
 2306 1b34 1C3094E5 		ldr	r3, [r4, #28]
 2307 1b38 053083E2 		add	r3, r3, #5
 2308 1b3c 001073E2 		rsbs	r1, r3, #0
 2309 1b40 032003E2 		and	r2, r3, #3
 2310 1b44 031001E2 		and	r1, r1, #3
 2311 1b48 00206152 		rsbpl	r2, r1, #0
 2312 1b4c 023043E0 		sub	r3, r3, r2
 2313 1b50 1C3084E5 		str	r3, [r4, #28]
 2314 1b54 EAFFFFEA 		b	.L410
 2315              		.size	WriteText, .-WriteText
 2316              		.align	2
 2317              		.global	SetDCPenColor
 2318              		.syntax unified
 2319              		.arm
 2320              		.fpu neon-vfpv4
 2321              		.type	SetDCPenColor, %function
 2322              	SetDCPenColor:
 2323              		@ args = 0, pretend = 0, frame = 0
 2324              		@ frame_needed = 0, uses_anonymous_args = 0
 2325              		@ link register save eliminated.
 2326 1b58 003050E2 		subs	r3, r0, #0
 2327 1b5c 20009315 		ldrne	r0, [r3, #32]
 2328 1b60 0300A001 		moveq	r0, r3
 2329 1b64 20108315 		strne	r1, [r3, #32]
 2330 1b68 1EFF2FE1 		bx	lr
 2331              		.size	SetDCPenColor, .-SetDCPenColor
 2332              		.align	2
 2333              		.global	SetDCBrushColor
 2334              		.syntax unified
 2335              		.arm
 2336              		.fpu neon-vfpv4
 2337              		.type	SetDCBrushColor, %function
ARM GAS  C:\Users\ldebo\AppData\Local\Temp\cc9oeUFF.s 			page 42


 2338              	SetDCBrushColor:
 2339              		@ args = 0, pretend = 0, frame = 0
 2340              		@ frame_needed = 0, uses_anonymous_args = 0
 2341              		@ link register save eliminated.
 2342 1b6c 003050E2 		subs	r3, r0, #0
 2343 1b70 28009315 		ldrne	r0, [r3, #40]
 2344 1b74 0300A001 		moveq	r0, r3
 2345 1b78 28108315 		strne	r1, [r3, #40]
 2346 1b7c 1EFF2FE1 		bx	lr
 2347              		.size	SetDCBrushColor, .-SetDCBrushColor
 2348              		.align	2
 2349              		.global	MoveToEx
 2350              		.syntax unified
 2351              		.arm
 2352              		.fpu neon-vfpv4
 2353              		.type	MoveToEx, %function
 2354              	MoveToEx:
 2355              		@ args = 0, pretend = 0, frame = 0
 2356              		@ frame_needed = 0, uses_anonymous_args = 0
 2357 1b80 00C050E2 		subs	ip, r0, #0
 2358 1b84 0900000A 		beq	.L431
 2359 1b88 000053E3 		cmp	r3, #0
 2360 1b8c 04E02DE5 		str	lr, [sp, #-4]!
 2361 1b90 01E0A0E1 		mov	lr, r1
 2362 1b94 10108C12 		addne	r1, ip, #16
 2363 1b98 03009118 		ldmne	r1, {r0, r1}
 2364 1b9c 03008318 		stmne	r3, {r0, r1}
 2365 1ba0 0100A0E3 		mov	r0, #1
 2366 1ba4 10E08CE5 		str	lr, [ip, #16]
 2367 1ba8 14208CE5 		str	r2, [ip, #20]
 2368 1bac 04F09DE4 		ldr	pc, [sp], #4
 2369              	.L431:
 2370 1bb0 0C00A0E1 		mov	r0, ip
 2371 1bb4 1EFF2FE1 		bx	lr
 2372              		.size	MoveToEx, .-MoveToEx
 2373              		.align	2
 2374              		.global	LineTo
 2375              		.syntax unified
 2376              		.arm
 2377              		.fpu neon-vfpv4
 2378              		.type	LineTo, %function
 2379              	LineTo:
 2380              		@ args = 0, pretend = 0, frame = 0
 2381              		@ frame_needed = 0, uses_anonymous_args = 0
 2382 1bb8 000050E3 		cmp	r0, #0
 2383 1bbc 1EFF2F01 		bxeq	lr
 2384 1bc0 103090E5 		ldr	r3, [r0, #16]
 2385 1bc4 14C090E5 		ldr	ip, [r0, #20]
 2386 1bc8 010053E1 		cmp	r3, r1
 2387 1bcc 10402DE9 		push	{r4, lr}
 2388 1bd0 011043C0 		subgt	r1, r3, r1
 2389 1bd4 031041D0 		suble	r1, r1, r3
 2390 1bd8 0130A0D3 		movle	r3, #1
 2391 1bdc 0030E0C3 		mvngt	r3, #0
 2392 1be0 02005CE1 		cmp	ip, r2
 2393 1be4 02C04CC0 		subgt	ip, ip, r2
 2394 1be8 0CC042D0 		suble	ip, r2, ip
ARM GAS  C:\Users\ldebo\AppData\Local\Temp\cc9oeUFF.s 			page 43


 2395 1bec 0120A0D3 		movle	r2, #1
 2396 1bf0 08D04DE2 		sub	sp, sp, #8
 2397 1bf4 0020E0C3 		mvngt	r2, #0
 2398 1bf8 000051E3 		cmp	r1, #0
 2399 1bfc 0E00000A 		beq	.L452
 2400 1c00 00005CE3 		cmp	ip, #0
 2401 1c04 0600000A 		beq	.L453
 2402 1c08 00208DE5 		str	r2, [sp]
 2403 1c0c 0C20A0E1 		mov	r2, ip
 2404 1c10 384090E5 		ldr	r4, [r0, #56]
 2405 1c14 34FF2FE1 		blx	r4
 2406 1c18 0100A0E3 		mov	r0, #1
 2407 1c1c 08D08DE2 		add	sp, sp, #8
 2408              		@ sp needed
 2409 1c20 1080BDE8 		pop	{r4, pc}
 2410              	.L453:
 2411 1c24 0320A0E1 		mov	r2, r3
 2412 1c28 343090E5 		ldr	r3, [r0, #52]
 2413 1c2c 33FF2FE1 		blx	r3
 2414 1c30 0100A0E3 		mov	r0, #1
 2415 1c34 08D08DE2 		add	sp, sp, #8
 2416              		@ sp needed
 2417 1c38 1080BDE8 		pop	{r4, pc}
 2418              	.L452:
 2419 1c3c 303090E5 		ldr	r3, [r0, #48]
 2420 1c40 0C10A0E1 		mov	r1, ip
 2421 1c44 33FF2FE1 		blx	r3
 2422 1c48 0100A0E3 		mov	r0, #1
 2423 1c4c 08D08DE2 		add	sp, sp, #8
 2424              		@ sp needed
 2425 1c50 1080BDE8 		pop	{r4, pc}
 2426              		.size	LineTo, .-LineTo
 2427              		.align	2
 2428              		.global	TextOut
 2429              		.syntax unified
 2430              		.arm
 2431              		.fpu neon-vfpv4
 2432              		.type	TextOut, %function
 2433              	TextOut:
 2434              		@ args = 4, pretend = 0, frame = 0
 2435              		@ frame_needed = 0, uses_anonymous_args = 0
 2436 1c54 F0472DE9 		push	{r4, r5, r6, r7, r8, r9, r10, lr}
 2437 1c58 20709DE5 		ldr	r7, [sp, #32]
 2438 1c5c 000057E3 		cmp	r7, #0
 2439 1c60 00005313 		cmpne	r3, #0
 2440 1c64 0100A013 		movne	r0, #1
 2441 1c68 0000A003 		moveq	r0, #0
 2442 1c6c F087BD08 		popeq	{r4, r5, r6, r7, r8, r9, r10, pc}
 2443 1c70 000057E3 		cmp	r7, #0
 2444 1c74 0F0000DA 		ble	.L458
 2445 1c78 005000E3 		movw	r5, #:lower16:.LANCHOR1
 2446 1c7c 005040E3 		movt	r5, #:upper16:.LANCHOR1
 2447 1c80 0160A0E1 		mov	r6, r1
 2448 1c84 0280A0E1 		mov	r8, r2
 2449 1c88 0340A0E1 		mov	r4, r3
 2450 1c8c 077083E0 		add	r7, r3, r7
 2451 1c90 049085E2 		add	r9, r5, #4
ARM GAS  C:\Users\ldebo\AppData\Local\Temp\cc9oeUFF.s 			page 44


 2452              	.L457:
 2453 1c94 146085E5 		str	r6, [r5, #20]
 2454 1c98 0900A0E1 		mov	r0, r9
 2455 1c9c 188085E5 		str	r8, [r5, #24]
 2456 1ca0 086086E2 		add	r6, r6, #8
 2457 1ca4 403095E5 		ldr	r3, [r5, #64]
 2458 1ca8 0110D4E4 		ldrb	r1, [r4], #1	@ zero_extendqisi2
 2459 1cac 33FF2FE1 		blx	r3
 2460 1cb0 040057E1 		cmp	r7, r4
 2461 1cb4 F6FFFF1A 		bne	.L457
 2462              	.L458:
 2463 1cb8 0100A0E3 		mov	r0, #1
 2464 1cbc F087BDE8 		pop	{r4, r5, r6, r7, r8, r9, r10, pc}
 2465              		.size	TextOut, .-TextOut
 2466              		.align	2
 2467              		.global	TransparentTextOut
 2468              		.syntax unified
 2469              		.arm
 2470              		.fpu neon-vfpv4
 2471              		.type	TransparentTextOut, %function
 2472              	TransparentTextOut:
 2473              		@ args = 0, pretend = 0, frame = 0
 2474              		@ frame_needed = 0, uses_anonymous_args = 0
 2475 1cc0 F0412DE9 		push	{r4, r5, r6, r7, r8, lr}
 2476 1cc4 004052E2 		subs	r4, r2, #0
 2477 1cc8 1300000A 		beq	.L467
 2478 1ccc 0030D4E5 		ldrb	r3, [r4]	@ zero_extendqisi2
 2479 1cd0 000053E3 		cmp	r3, #0
 2480 1cd4 0E00000A 		beq	.L466
 2481 1cd8 005000E3 		movw	r5, #:lower16:.LANCHOR1
 2482 1cdc 005040E3 		movt	r5, #:upper16:.LANCHOR1
 2483 1ce0 0060A0E1 		mov	r6, r0
 2484 1ce4 0170A0E1 		mov	r7, r1
 2485 1ce8 048085E2 		add	r8, r5, #4
 2486              	.L465:
 2487 1cec 146085E5 		str	r6, [r5, #20]
 2488 1cf0 0800A0E1 		mov	r0, r8
 2489 1cf4 187085E5 		str	r7, [r5, #24]
 2490 1cf8 086086E2 		add	r6, r6, #8
 2491 1cfc 443095E5 		ldr	r3, [r5, #68]
 2492 1d00 0110D4E4 		ldrb	r1, [r4], #1	@ zero_extendqisi2
 2493 1d04 33FF2FE1 		blx	r3
 2494 1d08 0030D4E5 		ldrb	r3, [r4]	@ zero_extendqisi2
 2495 1d0c 000053E3 		cmp	r3, #0
 2496 1d10 F5FFFF1A 		bne	.L465
 2497              	.L466:
 2498 1d14 0100A0E3 		mov	r0, #1
 2499 1d18 F081BDE8 		pop	{r4, r5, r6, r7, r8, pc}
 2500              	.L467:
 2501 1d1c 0400A0E1 		mov	r0, r4
 2502 1d20 F081BDE8 		pop	{r4, r5, r6, r7, r8, pc}
 2503              		.size	TransparentTextOut, .-TransparentTextOut
 2504              		.align	2
 2505              		.global	BmpOut
 2506              		.syntax unified
 2507              		.arm
 2508              		.fpu neon-vfpv4
ARM GAS  C:\Users\ldebo\AppData\Local\Temp\cc9oeUFF.s 			page 45


 2509              		.type	BmpOut, %function
 2510              	BmpOut:
 2511              		@ args = 8, pretend = 0, frame = 0
 2512              		@ frame_needed = 0, uses_anonymous_args = 0
 2513 1d24 00C050E2 		subs	ip, r0, #0
 2514 1d28 1000000A 		beq	.L472
 2515 1d2c 30402DE9 		push	{r4, r5, lr}
 2516 1d30 01E0A0E1 		mov	lr, r1
 2517 1d34 0140A0E3 		mov	r4, #1
 2518 1d38 0CD04DE2 		sub	sp, sp, #12
 2519 1d3c 10E08CE5 		str	lr, [ip, #16]
 2520 1d40 18109DE5 		ldr	r1, [sp, #24]
 2521 1d44 012082E0 		add	r2, r2, r1
 2522 1d48 0310A0E1 		mov	r1, r3
 2523 1d4c 14208CE5 		str	r2, [ip, #20]
 2524 1d50 00408DE5 		str	r4, [sp]
 2525 1d54 1C309DE5 		ldr	r3, [sp, #28]
 2526 1d58 18209DE5 		ldr	r2, [sp, #24]
 2527 1d5c 44509CE5 		ldr	r5, [ip, #68]
 2528 1d60 35FF2FE1 		blx	r5
 2529 1d64 0400A0E1 		mov	r0, r4
 2530 1d68 0CD08DE2 		add	sp, sp, #12
 2531              		@ sp needed
 2532 1d6c 3080BDE8 		pop	{r4, r5, pc}
 2533              	.L472:
 2534 1d70 0C00A0E1 		mov	r0, ip
 2535 1d74 1EFF2FE1 		bx	lr
 2536              		.size	BmpOut, .-BmpOut
 2537              		.align	2
 2538              		.global	CvtBmpLine
 2539              		.syntax unified
 2540              		.arm
 2541              		.fpu neon-vfpv4
 2542              		.type	CvtBmpLine, %function
 2543              	CvtBmpLine:
 2544              		@ args = 8, pretend = 0, frame = 4096
 2545              		@ frame_needed = 0, uses_anonymous_args = 0
 2546 1d78 70402DE9 		push	{r4, r5, r6, lr}
 2547 1d7c 000050E3 		cmp	r0, #0
 2548 1d80 01DA4DE2 		sub	sp, sp, #4096
 2549 1d84 08D04DE2 		sub	sp, sp, #8
 2550 1d88 01CA8DE2 		add	ip, sp, #4096
 2551 1d8c 18C08CE2 		add	ip, ip, #24
 2552 1d90 00E09CE5 		ldr	lr, [ip]
 2553 1d94 1200000A 		beq	.L477
 2554 1d98 0CC090E5 		ldr	ip, [r0, #12]
 2555 1d9c 101080E5 		str	r1, [r0, #16]
 2556 1da0 0E005CE1 		cmp	ip, lr
 2557 1da4 142080E5 		str	r2, [r0, #20]
 2558 1da8 0500000A 		beq	.L480
 2559 1dac 18005CE3 		cmp	ip, #24
 2560 1db0 0E00000A 		beq	.L481
 2561 1db4 20005CE3 		cmp	ip, #32
 2562 1db8 3E00000A 		beq	.L482
 2563 1dbc 10005CE3 		cmp	ip, #16
 2564 1dc0 1E00000A 		beq	.L514
 2565              	.L480:
ARM GAS  C:\Users\ldebo\AppData\Local\Temp\cc9oeUFF.s 			page 46


 2566 1dc4 0140A0E3 		mov	r4, #1
 2567 1dc8 0310A0E1 		mov	r1, r3
 2568 1dcc 00408DE5 		str	r4, [sp]
 2569 1dd0 08308DE2 		add	r3, sp, #8
 2570 1dd4 0420A0E1 		mov	r2, r4
 2571 1dd8 445090E5 		ldr	r5, [r0, #68]
 2572 1ddc 35FF2FE1 		blx	r5
 2573 1de0 0400A0E1 		mov	r0, r4
 2574              	.L477:
 2575 1de4 01DA8DE2 		add	sp, sp, #4096
 2576 1de8 08D08DE2 		add	sp, sp, #8
 2577              		@ sp needed
 2578 1dec 7080BDE8 		pop	{r4, r5, r6, pc}
 2579              	.L481:
 2580 1df0 10005EE3 		cmp	lr, #16
 2581 1df4 4300000A 		beq	.L489
 2582 1df8 000053E3 		cmp	r3, #0
 2583 1dfc F0FFFF0A 		beq	.L480
 2584 1e00 012A8DE2 		add	r2, sp, #4096
 2585 1e04 834083E0 		add	r4, r3, r3, lsl #1
 2586 1e08 1C2082E2 		add	r2, r2, #28
 2587 1e0c 001092E5 		ldr	r1, [r2]
 2588 1e10 08208DE2 		add	r2, sp, #8
 2589 1e14 044082E0 		add	r4, r2, r4
 2590              	.L492:
 2591 1e18 041081E2 		add	r1, r1, #4
 2592 1e1c 04C051E5 		ldrb	ip, [r1, #-4]	@ zero_extendqisi2
 2593 1e20 03E051E5 		ldrb	lr, [r1, #-3]	@ zero_extendqisi2
 2594 1e24 03C0C2E4 		strb	ip, [r2], #3
 2595 1e28 02C051E5 		ldrb	ip, [r1, #-2]	@ zero_extendqisi2
 2596 1e2c 040052E1 		cmp	r2, r4
 2597 1e30 02E042E5 		strb	lr, [r2, #-2]
 2598 1e34 01C042E5 		strb	ip, [r2, #-1]
 2599 1e38 F6FFFF1A 		bne	.L492
 2600 1e3c E0FFFFEA 		b	.L480
 2601              	.L514:
 2602 1e40 18005EE3 		cmp	lr, #24
 2603 1e44 5E00000A 		beq	.L484
 2604 1e48 000053E3 		cmp	r3, #0
 2605 1e4c DCFFFF0A 		beq	.L480
 2606 1e50 012A8DE2 		add	r2, sp, #4096
 2607 1e54 0050A0E3 		mov	r5, #0
 2608 1e58 1C2082E2 		add	r2, r2, #28
 2609 1e5c 001092E5 		ldr	r1, [r2]
 2610 1e60 08208DE2 		add	r2, sp, #8
 2611              	.L488:
 2612 1e64 041081E2 		add	r1, r1, #4
 2613 1e68 04C051E5 		ldrb	ip, [r1, #-4]	@ zero_extendqisi2
 2614 1e6c 00E0D2E5 		ldrb	lr, [r2]	@ zero_extendqisi2
 2615 1e70 015085E2 		add	r5, r5, #1
 2616 1e74 034051E5 		ldrb	r4, [r1, #-3]	@ zero_extendqisi2
 2617 1e78 050053E1 		cmp	r3, r5
 2618 1e7c ACC1A0E1 		lsr	ip, ip, #3
 2619 1e80 022082E2 		add	r2, r2, #2
 2620 1e84 1CE0C4E7 		bfi	lr, ip, #0, #5
 2621 1e88 02E042E5 		strb	lr, [r2, #-2]
 2622 1e8c 2441A0E1 		lsr	r4, r4, #2
ARM GAS  C:\Users\ldebo\AppData\Local\Temp\cc9oeUFF.s 			page 47


 2623 1e90 02E051E5 		ldrb	lr, [r1, #-2]	@ zero_extendqisi2
 2624 1e94 B2C052E1 		ldrh	ip, [r2, #-2]
 2625 1e98 94C2CAE7 		bfi	ip, r4, #5, #6
 2626 1e9c AEE1A0E1 		lsr	lr, lr, #3
 2627 1ea0 B2C042E1 		strh	ip, [r2, #-2]	@ movhi
 2628 1ea4 2CC4A0E1 		lsr	ip, ip, #8
 2629 1ea8 9EC1C7E7 		bfi	ip, lr, #3, #5
 2630 1eac 01C042E5 		strb	ip, [r2, #-1]
 2631 1eb0 EBFFFF1A 		bne	.L488
 2632 1eb4 C2FFFFEA 		b	.L480
 2633              	.L482:
 2634 1eb8 10005EE3 		cmp	lr, #16
 2635 1ebc 2900000A 		beq	.L493
 2636 1ec0 000053E3 		cmp	r3, #0
 2637 1ec4 BEFFFF0A 		beq	.L480
 2638 1ec8 012A8DE2 		add	r2, sp, #4096
 2639 1ecc 83C083E0 		add	ip, r3, r3, lsl #1
 2640 1ed0 1C2082E2 		add	r2, r2, #28
 2641 1ed4 08108DE2 		add	r1, sp, #8
 2642 1ed8 002092E5 		ldr	r2, [r2]
 2643 1edc 0CC082E0 		add	ip, r2, ip
 2644              	.L496:
 2645 1ee0 032082E2 		add	r2, r2, #3
 2646 1ee4 03E052E5 		ldrb	lr, [r2, #-3]	@ zero_extendqisi2
 2647 1ee8 0C0052E1 		cmp	r2, ip
 2648 1eec 024052E5 		ldrb	r4, [r2, #-2]	@ zero_extendqisi2
 2649 1ef0 04E0C1E4 		strb	lr, [r1], #4
 2650 1ef4 01E052E5 		ldrb	lr, [r2, #-1]	@ zero_extendqisi2
 2651 1ef8 034041E5 		strb	r4, [r1, #-3]
 2652 1efc 02E041E5 		strb	lr, [r1, #-2]
 2653 1f00 F6FFFF1A 		bne	.L496
 2654 1f04 AEFFFFEA 		b	.L480
 2655              	.L489:
 2656 1f08 000053E3 		cmp	r3, #0
 2657 1f0c ACFFFF0A 		beq	.L480
 2658 1f10 012A8DE2 		add	r2, sp, #4096
 2659 1f14 08108DE2 		add	r1, sp, #8
 2660 1f18 1C2082E2 		add	r2, r2, #28
 2661 1f1c 836083E0 		add	r6, r3, r3, lsl #1
 2662 1f20 066081E0 		add	r6, r1, r6
 2663 1f24 01C0A0E1 		mov	ip, r1
 2664 1f28 002092E5 		ldr	r2, [r2]
 2665              	.L491:
 2666 1f2c 01E0D2E5 		ldrb	lr, [r2, #1]	@ zero_extendqisi2
 2667 1f30 022082E2 		add	r2, r2, #2
 2668 1f34 024052E5 		ldrb	r4, [r2, #-2]	@ zero_extendqisi2
 2669 1f38 07100EE2 		and	r1, lr, #7
 2670 1f3c F8E00EE2 		and	lr, lr, #248
 2671 1f40 8451A0E1 		lsl	r5, r4, #3
 2672 1f44 8111A0E1 		lsl	r1, r1, #3
 2673 1f48 0350CCE4 		strb	r5, [ip], #3
 2674 1f4c A41281E1 		orr	r1, r1, r4, lsr #5
 2675 1f50 06005CE1 		cmp	ip, r6
 2676 1f54 01E04CE5 		strb	lr, [ip, #-1]
 2677 1f58 0111A0E1 		lsl	r1, r1, #2
 2678 1f5c 02104CE5 		strb	r1, [ip, #-2]
 2679 1f60 F1FFFF1A 		bne	.L491
ARM GAS  C:\Users\ldebo\AppData\Local\Temp\cc9oeUFF.s 			page 48


 2680 1f64 96FFFFEA 		b	.L480
 2681              	.L493:
 2682 1f68 000053E3 		cmp	r3, #0
 2683 1f6c 94FFFF0A 		beq	.L480
 2684 1f70 012A8DE2 		add	r2, sp, #4096
 2685 1f74 0040A0E3 		mov	r4, #0
 2686 1f78 1C2082E2 		add	r2, r2, #28
 2687 1f7c 08C08DE2 		add	ip, sp, #8
 2688 1f80 00E092E5 		ldr	lr, [r2]
 2689              	.L495:
 2690 1f84 0110DEE5 		ldrb	r1, [lr, #1]	@ zero_extendqisi2
 2691 1f88 014084E2 		add	r4, r4, #1
 2692 1f8c 0050DEE5 		ldrb	r5, [lr]	@ zero_extendqisi2
 2693 1f90 040053E1 		cmp	r3, r4
 2694 1f94 072001E2 		and	r2, r1, #7
 2695 1f98 F81001E2 		and	r1, r1, #248
 2696 1f9c 02E08EE2 		add	lr, lr, #2
 2697 1fa0 8221A0E1 		lsl	r2, r2, #3
 2698 1fa4 8561A0E1 		lsl	r6, r5, #3
 2699 1fa8 0460CCE4 		strb	r6, [ip], #4
 2700 1fac A52282E1 		orr	r2, r2, r5, lsr #5
 2701 1fb0 02104CE5 		strb	r1, [ip, #-2]
 2702 1fb4 0221A0E1 		lsl	r2, r2, #2
 2703 1fb8 03204CE5 		strb	r2, [ip, #-3]
 2704 1fbc F0FFFF1A 		bne	.L495
 2705 1fc0 7FFFFFEA 		b	.L480
 2706              	.L484:
 2707 1fc4 000053E3 		cmp	r3, #0
 2708 1fc8 7DFFFF0A 		beq	.L480
 2709 1fcc 012A8DE2 		add	r2, sp, #4096
 2710 1fd0 835083E0 		add	r5, r3, r3, lsl #1
 2711 1fd4 1C2082E2 		add	r2, r2, #28
 2712 1fd8 00C092E5 		ldr	ip, [r2]
 2713 1fdc 08208DE2 		add	r2, sp, #8
 2714 1fe0 05508CE0 		add	r5, ip, r5
 2715              	.L487:
 2716 1fe4 03C08CE2 		add	ip, ip, #3
 2717 1fe8 03105CE5 		ldrb	r1, [ip, #-3]	@ zero_extendqisi2
 2718 1fec 00E0D2E5 		ldrb	lr, [r2]	@ zero_extendqisi2
 2719 1ff0 05005CE1 		cmp	ip, r5
 2720 1ff4 02405CE5 		ldrb	r4, [ip, #-2]	@ zero_extendqisi2
 2721 1ff8 022082E2 		add	r2, r2, #2
 2722 1ffc A111A0E1 		lsr	r1, r1, #3
 2723 2000 11E0C4E7 		bfi	lr, r1, #0, #5
 2724 2004 02E042E5 		strb	lr, [r2, #-2]
 2725 2008 2441A0E1 		lsr	r4, r4, #2
 2726 200c 01E05CE5 		ldrb	lr, [ip, #-1]	@ zero_extendqisi2
 2727 2010 B21052E1 		ldrh	r1, [r2, #-2]
 2728 2014 9412CAE7 		bfi	r1, r4, #5, #6
 2729 2018 AEE1A0E1 		lsr	lr, lr, #3
 2730 201c B21042E1 		strh	r1, [r2, #-2]	@ movhi
 2731 2020 2114A0E1 		lsr	r1, r1, #8
 2732 2024 9E11C7E7 		bfi	r1, lr, #3, #5
 2733 2028 011042E5 		strb	r1, [r2, #-1]
 2734 202c ECFFFF1A 		bne	.L487
 2735 2030 63FFFFEA 		b	.L480
 2736              		.size	CvtBmpLine, .-CvtBmpLine
ARM GAS  C:\Users\ldebo\AppData\Local\Temp\cc9oeUFF.s 			page 49


 2737              		.align	2
 2738              		.global	Rectangle
 2739              		.syntax unified
 2740              		.arm
 2741              		.fpu neon-vfpv4
 2742              		.type	Rectangle, %function
 2743              	Rectangle:
 2744              		@ args = 4, pretend = 0, frame = 0
 2745              		@ frame_needed = 0, uses_anonymous_args = 0
 2746 2034 00C050E2 		subs	ip, r0, #0
 2747 2038 0800000A 		beq	.L517
 2748 203c 10402DE9 		push	{r4, lr}
 2749 2040 08D04DE2 		sub	sp, sp, #8
 2750 2044 10E09DE5 		ldr	lr, [sp, #16]
 2751 2048 00E08DE5 		str	lr, [sp]
 2752 204c 2C409CE5 		ldr	r4, [ip, #44]
 2753 2050 34FF2FE1 		blx	r4
 2754 2054 0100A0E3 		mov	r0, #1
 2755 2058 08D08DE2 		add	sp, sp, #8
 2756              		@ sp needed
 2757 205c 1080BDE8 		pop	{r4, pc}
 2758              	.L517:
 2759 2060 0C00A0E1 		mov	r0, ip
 2760 2064 1EFF2FE1 		bx	lr
 2761              		.size	Rectangle, .-Rectangle
 2762              		.align	2
 2763              		.global	PiConsole_Init
 2764              		.syntax unified
 2765              		.arm
 2766              		.fpu neon-vfpv4
 2767              		.type	PiConsole_Init, %function
 2768              	PiConsole_Init:
 2769              		@ args = 0, pretend = 0, frame = 80
 2770              		@ frame_needed = 0, uses_anonymous_args = 0
 2771 2068 F0432DE9 		push	{r4, r5, r6, r7, r8, r9, lr}
 2772 206c 000051E3 		cmp	r1, #0
 2773 2070 00005013 		cmpne	r0, #0
 2774 2074 0240A0E1 		mov	r4, r2
 2775 2078 9CD04DE2 		sub	sp, sp, #156
 2776 207c 0380A0E1 		mov	r8, r3
 2777 2080 4C708DE2 		add	r7, sp, #76
 2778 2084 0050A0E1 		mov	r5, r0
 2779 2088 0160A0E1 		mov	r6, r1
 2780 208c 6500000A 		beq	.L547
 2781              	.L523:
 2782 2090 000054E3 		cmp	r4, #0
 2783 2094 0900001A 		bne	.L527
 2784 2098 0430A0E3 		mov	r3, #4
 2785 209c 0520A0E3 		mov	r2, #5
 2786 20a0 042040E3 		movt	r2, 4
 2787 20a4 18008DE8 		stm	sp, {r3, r4}
 2788 20a8 0310A0E1 		mov	r1, r3
 2789 20ac 0700A0E1 		mov	r0, r7
 2790 20b0 98FBFFEB 		bl	mailbox_tag_message.constprop.6
 2791 20b4 000050E3 		cmp	r0, #0
 2792 20b8 2200000A 		beq	.L528
 2793 20bc 58409DE5 		ldr	r4, [sp, #88]
ARM GAS  C:\Users\ldebo\AppData\Local\Temp\cc9oeUFF.s 			page 50


 2794              	.L527:
 2795 20c0 08C0A0E3 		mov	ip, #8
 2796 20c4 0410A0E3 		mov	r1, #4
 2797 20c8 0130A0E3 		mov	r3, #1
 2798 20cc 043040E3 		movt	r3, 4
 2799 20d0 05E008E3 		movw	lr, #32773
 2800 20d4 04E040E3 		movt	lr, 4
 2801 20d8 042008E3 		movw	r2, #32772
 2802 20dc 042040E3 		movt	r2, 4
 2803 20e0 0700A0E1 		mov	r0, r7
 2804 20e4 30308DE5 		str	r3, [sp, #48]
 2805 20e8 20E08DE5 		str	lr, [sp, #32]
 2806 20ec 0C30A0E1 		mov	r3, ip
 2807 20f0 0C208DE5 		str	r2, [sp, #12]
 2808 20f4 10E0A0E3 		mov	lr, #16
 2809 20f8 38108DE5 		str	r1, [sp, #56]
 2810 20fc 0070A0E3 		mov	r7, #0
 2811 2100 28108DE5 		str	r1, [sp, #40]
 2812 2104 032008E3 		movw	r2, #32771
 2813 2108 042040E3 		movt	r2, 4
 2814 210c 24108DE5 		str	r1, [sp, #36]
 2815 2110 1310A0E3 		mov	r1, #19
 2816 2114 2C408DE5 		str	r4, [sp, #44]
 2817 2118 1C608DE5 		str	r6, [sp, #28]
 2818 211c 18508DE5 		str	r5, [sp, #24]
 2819 2120 60008DE9 		stmib	sp, {r5, r6}
 2820 2124 34C08DE5 		str	ip, [sp, #52]
 2821 2128 14C08DE5 		str	ip, [sp, #20]
 2822 212c 10C08DE5 		str	ip, [sp, #16]
 2823 2130 00C08DE5 		str	ip, [sp]
 2824 2134 40708DE5 		str	r7, [sp, #64]
 2825 2138 3CE08DE5 		str	lr, [sp, #60]
 2826 213c B0FBFFEB 		bl	mailbox_tag_message.constprop.7
 2827 2140 009050E2 		subs	r9, r0, #0
 2828 2144 0300001A 		bne	.L548
 2829              	.L528:
 2830 2148 0090A0E3 		mov	r9, #0
 2831              	.L525:
 2832 214c 0900A0E1 		mov	r0, r9
 2833 2150 9CD08DE2 		add	sp, sp, #156
 2834              		@ sp needed
 2835 2154 F083BDE8 		pop	{r4, r5, r6, r7, r8, r9, pc}
 2836              	.L548:
 2837 2158 90009DE5 		ldr	r0, [sp, #144]
 2838 215c FEFFFFEB 		bl	GPUaddrToARMaddr
 2839 2160 003000E3 		movw	r3, #:lower16:.LANCHOR1
 2840 2164 003040E3 		movt	r3, #:upper16:.LANCHOR1
 2841 2168 180054E3 		cmp	r4, #24
 2842 216c 0010E0E3 		mvn	r1, #0
 2843 2170 FF2CA0E3 		mov	r2, #65280
 2844 2174 002F4FE3 		movt	r2, 65280
 2845 2178 040083E5 		str	r0, [r3, #4]
 2846 217c 287083E5 		str	r7, [r3, #40]
 2847 2180 085083E5 		str	r5, [r3, #8]
 2848 2184 0C6083E5 		str	r6, [r3, #12]
 2849 2188 104083E5 		str	r4, [r3, #16]
 2850 218c 241083E5 		str	r1, [r3, #36]
ARM GAS  C:\Users\ldebo\AppData\Local\Temp\cc9oeUFF.s 			page 51


 2851 2190 2C2083E5 		str	r2, [r3, #44]
 2852 2194 4C00000A 		beq	.L530
 2853 2198 200054E3 		cmp	r4, #32
 2854 219c 3400000A 		beq	.L531
 2855 21a0 100054E3 		cmp	r4, #16
 2856 21a4 1400001A 		bne	.L529
 2857 21a8 002000E3 		movw	r2, #:lower16:ClearArea16
 2858 21ac 002040E3 		movt	r2, #:upper16:ClearArea16
 2859 21b0 001000E3 		movw	r1, #:lower16:VertLine16
 2860 21b4 001040E3 		movt	r1, #:upper16:VertLine16
 2861 21b8 302083E5 		str	r2, [r3, #48]
 2862 21bc 002000E3 		movw	r2, #:lower16:HorzLine16
 2863 21c0 002040E3 		movt	r2, #:upper16:HorzLine16
 2864 21c4 341083E5 		str	r1, [r3, #52]
 2865 21c8 001000E3 		movw	r1, #:lower16:DiagLine16
 2866 21cc 001040E3 		movt	r1, #:upper16:DiagLine16
 2867 21d0 382083E5 		str	r2, [r3, #56]
 2868 21d4 002000E3 		movw	r2, #:lower16:WriteChar16
 2869 21d8 002040E3 		movt	r2, #:upper16:WriteChar16
 2870 21dc 3C1083E5 		str	r1, [r3, #60]
 2871 21e0 001000E3 		movw	r1, #:lower16:TransparentWriteChar16
 2872 21e4 001040E3 		movt	r1, #:upper16:TransparentWriteChar16
 2873 21e8 402083E5 		str	r2, [r3, #64]
 2874 21ec 002000E3 		movw	r2, #:lower16:PutImage16
 2875 21f0 002040E3 		movt	r2, #:upper16:PutImage16
 2876 21f4 441083E5 		str	r1, [r3, #68]
 2877 21f8 482083E5 		str	r2, [r3, #72]
 2878              	.L529:
 2879 21fc 000058E3 		cmp	r8, #0
 2880 2200 D1FFFF0A 		beq	.L525
 2881 2204 0430A0E1 		mov	r3, r4
 2882 2208 0620A0E1 		mov	r2, r6
 2883 220c 0510A0E1 		mov	r1, r5
 2884 2210 000000E3 		movw	r0, #:lower16:.LC3
 2885 2214 000040E3 		movt	r0, #:upper16:.LC3
 2886 2218 38FF2FE1 		blx	r8
 2887 221c 0900A0E1 		mov	r0, r9
 2888 2220 9CD08DE2 		add	sp, sp, #156
 2889              		@ sp needed
 2890 2224 F083BDE8 		pop	{r4, r5, r6, r7, r8, r9, pc}
 2891              	.L547:
 2892 2228 0030A0E3 		mov	r3, #0
 2893 222c 0700A0E1 		mov	r0, r7
 2894 2230 08308DE5 		str	r3, [sp, #8]
 2895 2234 0320A0E3 		mov	r2, #3
 2896 2238 042040E3 		movt	r2, 4
 2897 223c 04308DE5 		str	r3, [sp, #4]
 2898 2240 0510A0E3 		mov	r1, #5
 2899 2244 00308DE5 		str	r3, [sp]
 2900 2248 0830A0E3 		mov	r3, #8
 2901 224c F1FAFFEB 		bl	mailbox_tag_message.constprop.5
 2902 2250 000050E3 		cmp	r0, #0
 2903 2254 BBFFFF0A 		beq	.L528
 2904 2258 000055E3 		cmp	r5, #0
 2905 225c 0200001A 		bne	.L526
 2906 2260 000056E3 		cmp	r6, #0
 2907 2264 58509DE5 		ldr	r5, [sp, #88]
ARM GAS  C:\Users\ldebo\AppData\Local\Temp\cc9oeUFF.s 			page 52


 2908 2268 88FFFF1A 		bne	.L523
 2909              	.L526:
 2910 226c 5C609DE5 		ldr	r6, [sp, #92]
 2911 2270 86FFFFEA 		b	.L523
 2912              	.L531:
 2913 2274 002000E3 		movw	r2, #:lower16:ClearArea32
 2914 2278 002040E3 		movt	r2, #:upper16:ClearArea32
 2915 227c 001000E3 		movw	r1, #:lower16:VertLine32
 2916 2280 001040E3 		movt	r1, #:upper16:VertLine32
 2917 2284 302083E5 		str	r2, [r3, #48]
 2918 2288 002000E3 		movw	r2, #:lower16:HorzLine32
 2919 228c 002040E3 		movt	r2, #:upper16:HorzLine32
 2920 2290 341083E5 		str	r1, [r3, #52]
 2921 2294 001000E3 		movw	r1, #:lower16:DiagLine32
 2922 2298 001040E3 		movt	r1, #:upper16:DiagLine32
 2923 229c 382083E5 		str	r2, [r3, #56]
 2924 22a0 002000E3 		movw	r2, #:lower16:WriteChar32
 2925 22a4 002040E3 		movt	r2, #:upper16:WriteChar32
 2926 22a8 3C1083E5 		str	r1, [r3, #60]
 2927 22ac 001000E3 		movw	r1, #:lower16:TransparentWriteChar32
 2928 22b0 001040E3 		movt	r1, #:upper16:TransparentWriteChar32
 2929 22b4 402083E5 		str	r2, [r3, #64]
 2930 22b8 002000E3 		movw	r2, #:lower16:PutImage32
 2931 22bc 002040E3 		movt	r2, #:upper16:PutImage32
 2932 22c0 441083E5 		str	r1, [r3, #68]
 2933 22c4 482083E5 		str	r2, [r3, #72]
 2934 22c8 CBFFFFEA 		b	.L529
 2935              	.L530:
 2936 22cc 002000E3 		movw	r2, #:lower16:ClearArea24
 2937 22d0 002040E3 		movt	r2, #:upper16:ClearArea24
 2938 22d4 001000E3 		movw	r1, #:lower16:VertLine24
 2939 22d8 001040E3 		movt	r1, #:upper16:VertLine24
 2940 22dc 302083E5 		str	r2, [r3, #48]
 2941 22e0 002000E3 		movw	r2, #:lower16:HorzLine24
 2942 22e4 002040E3 		movt	r2, #:upper16:HorzLine24
 2943 22e8 341083E5 		str	r1, [r3, #52]
 2944 22ec 001000E3 		movw	r1, #:lower16:DiagLine24
 2945 22f0 001040E3 		movt	r1, #:upper16:DiagLine24
 2946 22f4 382083E5 		str	r2, [r3, #56]
 2947 22f8 002000E3 		movw	r2, #:lower16:WriteChar24
 2948 22fc 002040E3 		movt	r2, #:upper16:WriteChar24
 2949 2300 3C1083E5 		str	r1, [r3, #60]
 2950 2304 001000E3 		movw	r1, #:lower16:TransparentWriteChar24
 2951 2308 001040E3 		movt	r1, #:upper16:TransparentWriteChar24
 2952 230c 402083E5 		str	r2, [r3, #64]
 2953 2310 002000E3 		movw	r2, #:lower16:PutImage24
 2954 2314 002040E3 		movt	r2, #:upper16:PutImage24
 2955 2318 441083E5 		str	r1, [r3, #68]
 2956 231c 482083E5 		str	r2, [r3, #72]
 2957 2320 B5FFFFEA 		b	.L529
 2958              		.size	PiConsole_Init, .-PiConsole_Init
 2959              		.align	2
 2960              		.global	GetConsoleDC
 2961              		.syntax unified
 2962              		.arm
 2963              		.fpu neon-vfpv4
 2964              		.type	GetConsoleDC, %function
ARM GAS  C:\Users\ldebo\AppData\Local\Temp\cc9oeUFF.s 			page 53


 2965              	GetConsoleDC:
 2966              		@ args = 0, pretend = 0, frame = 0
 2967              		@ frame_needed = 0, uses_anonymous_args = 0
 2968              		@ link register save eliminated.
 2969 2324 00009FE5 		ldr	r0, .L550
 2970 2328 1EFF2FE1 		bx	lr
 2971              	.L551:
 2972              		.align	2
 2973              	.L550:
 2974 232c 04000000 		.word	.LANCHOR1+4
 2975              		.size	GetConsoleDC, .-GetConsoleDC
 2976              		.align	2
 2977              		.global	GetConsole_FrameBuffer
 2978              		.syntax unified
 2979              		.arm
 2980              		.fpu neon-vfpv4
 2981              		.type	GetConsole_FrameBuffer, %function
 2982              	GetConsole_FrameBuffer:
 2983              		@ args = 0, pretend = 0, frame = 0
 2984              		@ frame_needed = 0, uses_anonymous_args = 0
 2985              		@ link register save eliminated.
 2986 2330 003000E3 		movw	r3, #:lower16:.LANCHOR1
 2987 2334 003040E3 		movt	r3, #:upper16:.LANCHOR1
 2988 2338 040093E5 		ldr	r0, [r3, #4]
 2989 233c 1EFF2FE1 		bx	lr
 2990              		.size	GetConsole_FrameBuffer, .-GetConsole_FrameBuffer
 2991              		.align	2
 2992              		.global	GetConsole_Width
 2993              		.syntax unified
 2994              		.arm
 2995              		.fpu neon-vfpv4
 2996              		.type	GetConsole_Width, %function
 2997              	GetConsole_Width:
 2998              		@ args = 0, pretend = 0, frame = 0
 2999              		@ frame_needed = 0, uses_anonymous_args = 0
 3000              		@ link register save eliminated.
 3001 2340 003000E3 		movw	r3, #:lower16:.LANCHOR1
 3002 2344 003040E3 		movt	r3, #:upper16:.LANCHOR1
 3003 2348 080093E5 		ldr	r0, [r3, #8]
 3004 234c 1EFF2FE1 		bx	lr
 3005              		.size	GetConsole_Width, .-GetConsole_Width
 3006              		.align	2
 3007              		.global	GetConsole_Height
 3008              		.syntax unified
 3009              		.arm
 3010              		.fpu neon-vfpv4
 3011              		.type	GetConsole_Height, %function
 3012              	GetConsole_Height:
 3013              		@ args = 0, pretend = 0, frame = 0
 3014              		@ frame_needed = 0, uses_anonymous_args = 0
 3015              		@ link register save eliminated.
 3016 2350 003000E3 		movw	r3, #:lower16:.LANCHOR1
 3017 2354 003040E3 		movt	r3, #:upper16:.LANCHOR1
 3018 2358 0C0093E5 		ldr	r0, [r3, #12]
 3019 235c 1EFF2FE1 		bx	lr
 3020              		.size	GetConsole_Height, .-GetConsole_Height
 3021              		.align	2
ARM GAS  C:\Users\ldebo\AppData\Local\Temp\cc9oeUFF.s 			page 54


 3022              		.weak	_sbrk
 3023              		.syntax unified
 3024              		.arm
 3025              		.fpu neon-vfpv4
 3026              		.type	_sbrk, %function
 3027              	_sbrk:
 3028              		@ args = 0, pretend = 0, frame = 0
 3029              		@ frame_needed = 0, uses_anonymous_args = 0
 3030              		@ link register save eliminated.
 3031 2360 002000E3 		movw	r2, #:lower16:.LANCHOR1
 3032 2364 002040E3 		movt	r2, #:upper16:.LANCHOR1
 3033 2368 001000E3 		movw	r1, #:lower16:_end
 3034 236c 001040E3 		movt	r1, #:upper16:_end
 3035 2370 4C3092E5 		ldr	r3, [r2, #76]
 3036 2374 000053E3 		cmp	r3, #0
 3037 2378 0130A001 		moveq	r3, r1
 3038 237c 001083E0 		add	r1, r3, r0
 3039 2380 0300A0E1 		mov	r0, r3
 3040 2384 4C1082E5 		str	r1, [r2, #76]
 3041 2388 1EFF2FE1 		bx	lr
 3042              		.size	_sbrk, .-_sbrk
 3043              		.align	2
 3044              		.weak	_kill
 3045              		.syntax unified
 3046              		.arm
 3047              		.fpu neon-vfpv4
 3048              		.type	_kill, %function
 3049              	_kill:
 3050              		@ args = 0, pretend = 0, frame = 0
 3051              		@ frame_needed = 0, uses_anonymous_args = 0
 3052              		@ link register save eliminated.
 3053 238c 003000E3 		movw	r3, #:lower16:errno
 3054 2390 003040E3 		movt	r3, #:upper16:errno
 3055 2394 1620A0E3 		mov	r2, #22
 3056 2398 0000E0E3 		mvn	r0, #0
 3057 239c 002083E5 		str	r2, [r3]
 3058 23a0 1EFF2FE1 		bx	lr
 3059              		.size	_kill, .-_kill
 3060              		.align	2
 3061              		.weak	_getpid
 3062              		.syntax unified
 3063              		.arm
 3064              		.fpu neon-vfpv4
 3065              		.type	_getpid, %function
 3066              	_getpid:
 3067              		@ args = 0, pretend = 0, frame = 0
 3068              		@ frame_needed = 0, uses_anonymous_args = 0
 3069              		@ link register save eliminated.
 3070 23a4 0100A0E3 		mov	r0, #1
 3071 23a8 1EFF2FE1 		bx	lr
 3072              		.size	_getpid, .-_getpid
 3073              		.align	2
 3074              		.weak	_read
 3075              		.syntax unified
 3076              		.arm
 3077              		.fpu neon-vfpv4
 3078              		.type	_read, %function
ARM GAS  C:\Users\ldebo\AppData\Local\Temp\cc9oeUFF.s 			page 55


 3079              	_read:
 3080              		@ args = 0, pretend = 0, frame = 0
 3081              		@ frame_needed = 0, uses_anonymous_args = 0
 3082              		@ link register save eliminated.
 3083 23ac 0000A0E3 		mov	r0, #0
 3084 23b0 1EFF2FE1 		bx	lr
 3085              		.size	_read, .-_read
 3086              		.align	2
 3087              		.weak	_close
 3088              		.syntax unified
 3089              		.arm
 3090              		.fpu neon-vfpv4
 3091              		.type	_close, %function
 3092              	_close:
 3093              		@ args = 0, pretend = 0, frame = 0
 3094              		@ frame_needed = 0, uses_anonymous_args = 0
 3095              		@ link register save eliminated.
 3096 23b4 0000E0E3 		mvn	r0, #0
 3097 23b8 1EFF2FE1 		bx	lr
 3098              		.size	_close, .-_close
 3099              		.align	2
 3100              		.weak	_lseek
 3101              		.syntax unified
 3102              		.arm
 3103              		.fpu neon-vfpv4
 3104              		.type	_lseek, %function
 3105              	_lseek:
 3106              		@ args = 0, pretend = 0, frame = 0
 3107              		@ frame_needed = 0, uses_anonymous_args = 0
 3108              		@ link register save eliminated.
 3109 23bc 0000A0E3 		mov	r0, #0
 3110 23c0 1EFF2FE1 		bx	lr
 3111              		.size	_lseek, .-_lseek
 3112              		.align	2
 3113              		.weak	_isatty
 3114              		.syntax unified
 3115              		.arm
 3116              		.fpu neon-vfpv4
 3117              		.type	_isatty, %function
 3118              	_isatty:
 3119              		@ args = 0, pretend = 0, frame = 0
 3120              		@ frame_needed = 0, uses_anonymous_args = 0
 3121              		@ link register save eliminated.
 3122 23c4 0100A0E3 		mov	r0, #1
 3123 23c8 1EFF2FE1 		bx	lr
 3124              		.size	_isatty, .-_isatty
 3125              		.align	2
 3126              		.weak	_fstat
 3127              		.syntax unified
 3128              		.arm
 3129              		.fpu neon-vfpv4
 3130              		.type	_fstat, %function
 3131              	_fstat:
 3132              		@ args = 0, pretend = 0, frame = 0
 3133              		@ frame_needed = 0, uses_anonymous_args = 0
 3134              		@ link register save eliminated.
 3135 23cc 023AA0E3 		mov	r3, #8192
ARM GAS  C:\Users\ldebo\AppData\Local\Temp\cc9oeUFF.s 			page 56


 3136 23d0 0000A0E3 		mov	r0, #0
 3137 23d4 043081E5 		str	r3, [r1, #4]
 3138 23d8 1EFF2FE1 		bx	lr
 3139              		.size	_fstat, .-_fstat
 3140              		.align	2
 3141              		.weak	_exit
 3142              		.syntax unified
 3143              		.arm
 3144              		.fpu neon-vfpv4
 3145              		.type	_exit, %function
 3146              	_exit:
 3147              		@ args = 0, pretend = 0, frame = 0
 3148              		@ frame_needed = 0, uses_anonymous_args = 0
 3149              		@ link register save eliminated.
 3150              	.L566:
 3151 23dc FEFFFFEA 		b	.L566
 3152              		.size	_exit, .-_exit
 3153              		.align	2
 3154              		.global	_write
 3155              		.syntax unified
 3156              		.arm
 3157              		.fpu neon-vfpv4
 3158              		.type	_write, %function
 3159              	_write:
 3160              		@ args = 0, pretend = 0, frame = 0
 3161              		@ frame_needed = 0, uses_anonymous_args = 0
 3162 23e0 F0472DE9 		push	{r4, r5, r6, r7, r8, r9, r10, lr}
 3163 23e4 007052E2 		subs	r7, r2, #0
 3164 23e8 230000DA 		ble	.L577
 3165 23ec 004000E3 		movw	r4, #:lower16:.LANCHOR1
 3166 23f0 004040E3 		movt	r4, #:upper16:.LANCHOR1
 3167 23f4 0150A0E1 		mov	r5, r1
 3168 23f8 048084E2 		add	r8, r4, #4
 3169 23fc 076081E0 		add	r6, r1, r7
 3170 2400 0090A0E3 		mov	r9, #0
 3171 2404 130000EA 		b	.L574
 3172              	.L582:
 3173 2408 0D0053E3 		cmp	r3, #13
 3174 240c 0310A0E1 		mov	r1, r3
 3175 2410 0800A0E1 		mov	r0, r8
 3176 2414 1C908405 		streq	r9, [r4, #28]
 3177 2418 0C00000A 		beq	.L573
 3178 241c 090053E3 		cmp	r3, #9
 3179 2420 1700000A 		beq	.L581
 3180 2424 1C2094E5 		ldr	r2, [r4, #28]
 3181 2428 203094E5 		ldr	r3, [r4, #32]
 3182 242c 40A094E5 		ldr	r10, [r4, #64]
 3183 2430 8221A0E1 		lsl	r2, r2, #3
 3184 2434 0332A0E1 		lsl	r3, r3, #4
 3185 2438 142084E5 		str	r2, [r4, #20]
 3186 243c 183084E5 		str	r3, [r4, #24]
 3187 2440 3AFF2FE1 		blx	r10
 3188 2444 1C3094E5 		ldr	r3, [r4, #28]
 3189 2448 013083E2 		add	r3, r3, #1
 3190 244c 1C3084E5 		str	r3, [r4, #28]
 3191              	.L573:
 3192 2450 060055E1 		cmp	r5, r6
ARM GAS  C:\Users\ldebo\AppData\Local\Temp\cc9oeUFF.s 			page 57


 3193 2454 0800000A 		beq	.L577
 3194              	.L574:
 3195 2458 0130D5E4 		ldrb	r3, [r5], #1	@ zero_extendqisi2
 3196 245c 0A0053E3 		cmp	r3, #10
 3197 2460 E8FFFF1A 		bne	.L582
 3198 2464 203094E5 		ldr	r3, [r4, #32]
 3199 2468 060055E1 		cmp	r5, r6
 3200 246c 1C9084E5 		str	r9, [r4, #28]
 3201 2470 013083E2 		add	r3, r3, #1
 3202 2474 203084E5 		str	r3, [r4, #32]
 3203 2478 F6FFFF1A 		bne	.L574
 3204              	.L577:
 3205 247c 0700A0E1 		mov	r0, r7
 3206 2480 F087BDE8 		pop	{r4, r5, r6, r7, r8, r9, r10, pc}
 3207              	.L581:
 3208 2484 1C3094E5 		ldr	r3, [r4, #28]
 3209 2488 053083E2 		add	r3, r3, #5
 3210 248c 001073E2 		rsbs	r1, r3, #0
 3211 2490 032003E2 		and	r2, r3, #3
 3212 2494 031001E2 		and	r1, r1, #3
 3213 2498 00206152 		rsbpl	r2, r1, #0
 3214 249c 023043E0 		sub	r3, r3, r2
 3215 24a0 1C3084E5 		str	r3, [r4, #28]
 3216 24a4 E9FFFFEA 		b	.L573
 3217              		.size	_write, .-_write
 3218              		.global	console
 3219              		.global	BitFontEnd
 3220              		.section	.rodata
 3221              		.align	2
 3222              		.set	.LANCHOR0,. + 0
 3223              		.type	BitFont, %object
 3224              		.size	BitFont, 4096
 3225              	BitFont:
 3226 0000 00000000 		.word	0
 3227 0004 00000000 		.word	0
 3228 0008 00000000 		.word	0
 3229 000c 00000000 		.word	0
 3230 0010 817E0000 		.word	32385
 3231 0014 BD8181A5 		.word	-1518239299
 3232 0018 7E818199 		.word	-1719565954
 3233 001c 00000000 		.word	0
 3234 0020 FF7E0000 		.word	32511
 3235 0024 C3FFFFDB 		.word	-603979837
 3236 0028 7EFFFFE7 		.word	-402653314
 3237 002c 00000000 		.word	0
 3238 0030 00000000 		.word	0
 3239 0034 FEFEFE6C 		.word	1828650750
 3240 0038 10387CFE 		.word	-25413616
 3241 003c 00000000 		.word	0
 3242 0040 00000000 		.word	0
 3243 0044 FE7C3810 		.word	272137470
 3244 0048 0010387C 		.word	2084048896
 3245 004c 00000000 		.word	0
 3246 0050 18000000 		.word	24
 3247 0054 E7E73C3C 		.word	1010624487
 3248 0058 3C1818E7 		.word	-417851332
 3249 005c 00000000 		.word	0
ARM GAS  C:\Users\ldebo\AppData\Local\Temp\cc9oeUFF.s 			page 58


 3250 0060 18000000 		.word	24
 3251 0064 FFFF7E3C 		.word	1014956031
 3252 0068 3C18187E 		.word	2115508284
 3253 006c 00000000 		.word	0
 3254 0070 00000000 		.word	0
 3255 0074 3C180000 		.word	6204
 3256 0078 0000183C 		.word	1008205824
 3257 007c 00000000 		.word	0
 3258 0080 FFFFFFFF 		.word	-1
 3259 0084 C3E7FFFF 		.word	-6205
 3260 0088 FFFFE7C3 		.word	-1008205825
 3261 008c FFFFFFFF 		.word	-1
 3262 0090 00000000 		.word	0
 3263 0094 42663C00 		.word	3958338
 3264 0098 003C6642 		.word	1113996288
 3265 009c 00000000 		.word	0
 3266 00a0 FFFFFFFF 		.word	-1
 3267 00a4 BD99C3FF 		.word	-3958339
 3268 00a8 FFC399BD 		.word	-1113996289
 3269 00ac FFFFFFFF 		.word	-1
 3270 00b0 0E1E0000 		.word	7694
 3271 00b4 CC78321A 		.word	439515340
 3272 00b8 78CCCCCC 		.word	-858993544
 3273 00bc 00000000 		.word	0
 3274 00c0 663C0000 		.word	15462
 3275 00c4 3C666666 		.word	1717986876
 3276 00c8 18187E18 		.word	410916888
 3277 00cc 00000000 		.word	0
 3278 00d0 333F0000 		.word	16179
 3279 00d4 3030303F 		.word	1060122672
 3280 00d8 E0F07030 		.word	812708064
 3281 00dc 00000000 		.word	0
 3282 00e0 637F0000 		.word	32611
 3283 00e4 6363637F 		.word	2137219939
 3284 00e8 E6E76763 		.word	1667753958
 3285 00ec 000000C0 		.word	-1073741824
 3286 00f0 18000000 		.word	24
 3287 00f4 E73CDB18 		.word	417021159
 3288 00f8 1818DB3C 		.word	1020991512
 3289 00fc 00000000 		.word	0
 3290 0100 E0C08000 		.word	8437984
 3291 0104 F8FEF8F0 		.word	-252117256
 3292 0108 80C0E0F0 		.word	-253706112
 3293 010c 00000000 		.word	0
 3294 0110 0E060200 		.word	132622
 3295 0114 3EFE3E1E 		.word	507444798
 3296 0118 02060E1E 		.word	504235522
 3297 011c 00000000 		.word	0
 3298 0120 3C180000 		.word	6204
 3299 0124 1818187E 		.word	2115508248
 3300 0128 00183C7E 		.word	2117867520
 3301 012c 00000000 		.word	0
 3302 0130 66660000 		.word	26214
 3303 0134 66666666 		.word	1717986918
 3304 0138 66660066 		.word	1711302246
 3305 013c 00000000 		.word	0
 3306 0140 DB7F0000 		.word	32731
ARM GAS  C:\Users\ldebo\AppData\Local\Temp\cc9oeUFF.s 			page 59


 3307 0144 1B7BDBDB 		.word	-606373093
 3308 0148 1B1B1B1B 		.word	454761243
 3309 014c 00000000 		.word	0
 3310 0150 60C67C00 		.word	8177248
 3311 0154 C6C66C38 		.word	946652870
 3312 0158 C60C386C 		.word	1815612614
 3313 015c 0000007C 		.word	2080374784
 3314 0160 00000000 		.word	0
 3315 0164 00000000 		.word	0
 3316 0168 FEFEFEFE 		.word	-16843010
 3317 016c 00000000 		.word	0
 3318 0170 3C180000 		.word	6204
 3319 0174 1818187E 		.word	2115508248
 3320 0178 7E183C7E 		.word	2117867646
 3321 017c 00000000 		.word	0
 3322 0180 3C180000 		.word	6204
 3323 0184 1818187E 		.word	2115508248
 3324 0188 18181818 		.word	404232216
 3325 018c 00000000 		.word	0
 3326 0190 18180000 		.word	6168
 3327 0194 18181818 		.word	404232216
 3328 0198 183C7E18 		.word	410926104
 3329 019c 00000000 		.word	0
 3330 01a0 00000000 		.word	0
 3331 01a4 FE0C1800 		.word	1576190
 3332 01a8 0000180C 		.word	202899456
 3333 01ac 00000000 		.word	0
 3334 01b0 00000000 		.word	0
 3335 01b4 FE603000 		.word	3170558
 3336 01b8 00003060 		.word	1613758464
 3337 01bc 00000000 		.word	0
 3338 01c0 00000000 		.word	0
 3339 01c4 C0C00000 		.word	49344
 3340 01c8 0000FEC0 		.word	-1057095680
 3341 01cc 00000000 		.word	0
 3342 01d0 00000000 		.word	0
 3343 01d4 FE6C2800 		.word	2649342
 3344 01d8 0000286C 		.word	1814560768
 3345 01dc 00000000 		.word	0
 3346 01e0 00000000 		.word	0
 3347 01e4 7C383810 		.word	272119932
 3348 01e8 00FEFE7C 		.word	2097085952
 3349 01ec 00000000 		.word	0
 3350 01f0 00000000 		.word	0
 3351 01f4 7C7CFEFE 		.word	-16876420
 3352 01f8 00103838 		.word	943198208
 3353 01fc 00000000 		.word	0
 3354 0200 00000000 		.word	0
 3355 0204 00000000 		.word	0
 3356 0208 00000000 		.word	0
 3357 020c 00000000 		.word	0
 3358 0210 3C180000 		.word	6204
 3359 0214 18183C3C 		.word	1010571288
 3360 0218 18180018 		.word	402659352
 3361 021c 00000000 		.word	0
 3362 0220 66666600 		.word	6710886
 3363 0224 00000024 		.word	603979776
ARM GAS  C:\Users\ldebo\AppData\Local\Temp\cc9oeUFF.s 			page 60


 3364 0228 00000000 		.word	0
 3365 022c 00000000 		.word	0
 3366 0230 6C000000 		.word	108
 3367 0234 6C6CFE6C 		.word	1828613228
 3368 0238 6C6CFE6C 		.word	1828613228
 3369 023c 00000000 		.word	0
 3370 0240 C67C1818 		.word	404257990
 3371 0244 067CC0C2 		.word	-1027572730
 3372 0248 7CC68606 		.word	109495932
 3373 024c 00001818 		.word	404226048
 3374 0250 00000000 		.word	0
 3375 0254 180CC6C2 		.word	-1027208168
 3376 0258 86C66030 		.word	811648646
 3377 025c 00000000 		.word	0
 3378 0260 6C380000 		.word	14444
 3379 0264 DC76386C 		.word	1815639772
 3380 0268 76CCCCCC 		.word	-858993546
 3381 026c 00000000 		.word	0
 3382 0270 30303000 		.word	3158064
 3383 0274 00000060 		.word	1610612736
 3384 0278 00000000 		.word	0
 3385 027c 00000000 		.word	0
 3386 0280 180C0000 		.word	3096
 3387 0284 30303030 		.word	808464432
 3388 0288 0C183030 		.word	808458252
 3389 028c 00000000 		.word	0
 3390 0290 18300000 		.word	12312
 3391 0294 0C0C0C0C 		.word	202116108
 3392 0298 30180C0C 		.word	202119216
 3393 029c 00000000 		.word	0
 3394 02a0 00000000 		.word	0
 3395 02a4 FF3C6600 		.word	6700287
 3396 02a8 0000663C 		.word	1013317632
 3397 02ac 00000000 		.word	0
 3398 02b0 00000000 		.word	0
 3399 02b4 7E181800 		.word	1579134
 3400 02b8 00001818 		.word	404226048
 3401 02bc 00000000 		.word	0
 3402 02c0 00000000 		.word	0
 3403 02c4 00000000 		.word	0
 3404 02c8 18181800 		.word	1579032
 3405 02cc 00000030 		.word	805306368
 3406 02d0 00000000 		.word	0
 3407 02d4 FE000000 		.word	254
 3408 02d8 00000000 		.word	0
 3409 02dc 00000000 		.word	0
 3410 02e0 00000000 		.word	0
 3411 02e4 00000000 		.word	0
 3412 02e8 18180000 		.word	6168
 3413 02ec 00000000 		.word	0
 3414 02f0 00000000 		.word	0
 3415 02f4 180C0602 		.word	33950744
 3416 02f8 80C06030 		.word	811647104
 3417 02fc 00000000 		.word	0
 3418 0300 6C380000 		.word	14444
 3419 0304 D6D6C6C6 		.word	-960047402
 3420 0308 386CC6C6 		.word	-960074696
ARM GAS  C:\Users\ldebo\AppData\Local\Temp\cc9oeUFF.s 			page 61


 3421 030c 00000000 		.word	0
 3422 0310 38180000 		.word	6200
 3423 0314 18181878 		.word	2014844952
 3424 0318 7E181818 		.word	404232318
 3425 031c 00000000 		.word	0
 3426 0320 C67C0000 		.word	31942
 3427 0324 30180C06 		.word	101455920
 3428 0328 FEC6C060 		.word	1623246590
 3429 032c 00000000 		.word	0
 3430 0330 C67C0000 		.word	31942
 3431 0334 063C0606 		.word	101071878
 3432 0338 7CC60606 		.word	101107324
 3433 033c 00000000 		.word	0
 3434 0340 1C0C0000 		.word	3100
 3435 0344 FECC6C3C 		.word	1013763326
 3436 0348 1E0C0C0C 		.word	202116126
 3437 034c 00000000 		.word	0
 3438 0350 C0FE0000 		.word	65216
 3439 0354 06FCC0C0 		.word	-1061094394
 3440 0358 7CC60606 		.word	101107324
 3441 035c 00000000 		.word	0
 3442 0360 60380000 		.word	14432
 3443 0364 C6FCC0C0 		.word	-1061094202
 3444 0368 7CC6C6C6 		.word	-960051588
 3445 036c 00000000 		.word	0
 3446 0370 C6FE0000 		.word	65222
 3447 0374 180C0606 		.word	101059608
 3448 0378 30303030 		.word	808464432
 3449 037c 00000000 		.word	0
 3450 0380 C67C0000 		.word	31942
 3451 0384 C67CC6C6 		.word	-960070458
 3452 0388 7CC6C6C6 		.word	-960051588
 3453 038c 00000000 		.word	0
 3454 0390 C67C0000 		.word	31942
 3455 0394 067EC6C6 		.word	-960070138
 3456 0398 780C0606 		.word	101059704
 3457 039c 00000000 		.word	0
 3458 03a0 00000000 		.word	0
 3459 03a4 00001818 		.word	404226048
 3460 03a8 00181800 		.word	1579008
 3461 03ac 00000000 		.word	0
 3462 03b0 00000000 		.word	0
 3463 03b4 00001818 		.word	404226048
 3464 03b8 30181800 		.word	1579056
 3465 03bc 00000000 		.word	0
 3466 03c0 06000000 		.word	6
 3467 03c4 6030180C 		.word	202911840
 3468 03c8 060C1830 		.word	806882310
 3469 03cc 00000000 		.word	0
 3470 03d0 00000000 		.word	0
 3471 03d4 00007E00 		.word	8257536
 3472 03d8 0000007E 		.word	2113929216
 3473 03dc 00000000 		.word	0
 3474 03e0 60000000 		.word	96
 3475 03e4 060C1830 		.word	806882310
 3476 03e8 6030180C 		.word	202911840
 3477 03ec 00000000 		.word	0
ARM GAS  C:\Users\ldebo\AppData\Local\Temp\cc9oeUFF.s 			page 62


 3478 03f0 C67C0000 		.word	31942
 3479 03f4 18180CC6 		.word	-972285928
 3480 03f8 18180018 		.word	402659352
 3481 03fc 00000000 		.word	0
 3482 0400 7C000000 		.word	124
 3483 0404 DEDEC6C6 		.word	-960045346
 3484 0408 7CC0DCDE 		.word	-555958148
 3485 040c 00000000 		.word	0
 3486 0410 38100000 		.word	4152
 3487 0414 FEC6C66C 		.word	1824966398
 3488 0418 C6C6C6C6 		.word	-960051514
 3489 041c 00000000 		.word	0
 3490 0420 66FC0000 		.word	64614
 3491 0424 667C6666 		.word	1717992550
 3492 0428 FC666666 		.word	1717987068
 3493 042c 00000000 		.word	0
 3494 0430 663C0000 		.word	15462
 3495 0434 C0C0C0C2 		.word	-1027555136
 3496 0438 3C66C2C0 		.word	-1061001668
 3497 043c 00000000 		.word	0
 3498 0440 6CF80000 		.word	63596
 3499 0444 66666666 		.word	1717986918
 3500 0448 F86C6666 		.word	1717988600
 3501 044c 00000000 		.word	0
 3502 0450 66FE0000 		.word	65126
 3503 0454 68786862 		.word	1651013736
 3504 0458 FE666260 		.word	1617061630
 3505 045c 00000000 		.word	0
 3506 0460 66FE0000 		.word	65126
 3507 0464 68786862 		.word	1651013736
 3508 0468 F0606060 		.word	1616929008
 3509 046c 00000000 		.word	0
 3510 0470 663C0000 		.word	15462
 3511 0474 DEC0C0C2 		.word	-1027555106
 3512 0478 3A66C6C6 		.word	-960076230
 3513 047c 00000000 		.word	0
 3514 0480 C6C60000 		.word	50886
 3515 0484 C6FEC6C6 		.word	-960037178
 3516 0488 C6C6C6C6 		.word	-960051514
 3517 048c 00000000 		.word	0
 3518 0490 183C0000 		.word	15384
 3519 0494 18181818 		.word	404232216
 3520 0498 3C181818 		.word	404232252
 3521 049c 00000000 		.word	0
 3522 04a0 0C1E0000 		.word	7692
 3523 04a4 0C0C0C0C 		.word	202116108
 3524 04a8 78CCCCCC 		.word	-858993544
 3525 04ac 00000000 		.word	0
 3526 04b0 66E60000 		.word	58982
 3527 04b4 78786C66 		.word	1718384760
 3528 04b8 E666666C 		.word	1818650342
 3529 04bc 00000000 		.word	0
 3530 04c0 60F00000 		.word	61536
 3531 04c4 60606060 		.word	1616928864
 3532 04c8 FE666260 		.word	1617061630
 3533 04cc 00000000 		.word	0
 3534 04d0 EEC60000 		.word	50926
ARM GAS  C:\Users\ldebo\AppData\Local\Temp\cc9oeUFF.s 			page 63


 3535 04d4 C6D6FEFE 		.word	-16853306
 3536 04d8 C6C6C6C6 		.word	-960051514
 3537 04dc 00000000 		.word	0
 3538 04e0 E6C60000 		.word	50918
 3539 04e4 CEDEFEF6 		.word	-151068978
 3540 04e8 C6C6C6C6 		.word	-960051514
 3541 04ec 00000000 		.word	0
 3542 04f0 C67C0000 		.word	31942
 3543 04f4 C6C6C6C6 		.word	-960051514
 3544 04f8 7CC6C6C6 		.word	-960051588
 3545 04fc 00000000 		.word	0
 3546 0500 66FC0000 		.word	64614
 3547 0504 607C6666 		.word	1717992544
 3548 0508 F0606060 		.word	1616929008
 3549 050c 00000000 		.word	0
 3550 0510 C67C0000 		.word	31942
 3551 0514 C6C6C6C6 		.word	-960051514
 3552 0518 7CDED6C6 		.word	-958996868
 3553 051c 00000E0C 		.word	202244096
 3554 0520 66FC0000 		.word	64614
 3555 0524 6C7C6666 		.word	1717992556
 3556 0528 E6666666 		.word	1717987046
 3557 052c 00000000 		.word	0
 3558 0530 C67C0000 		.word	31942
 3559 0534 0C3860C6 		.word	-966772724
 3560 0538 7CC6C606 		.word	113690236
 3561 053c 00000000 		.word	0
 3562 0540 7E7E0000 		.word	32382
 3563 0544 1818185A 		.word	1511528472
 3564 0548 3C181818 		.word	404232252
 3565 054c 00000000 		.word	0
 3566 0550 C6C60000 		.word	50886
 3567 0554 C6C6C6C6 		.word	-960051514
 3568 0558 7CC6C6C6 		.word	-960051588
 3569 055c 00000000 		.word	0
 3570 0560 C6C60000 		.word	50886
 3571 0564 C6C6C6C6 		.word	-960051514
 3572 0568 10386CC6 		.word	-965986288
 3573 056c 00000000 		.word	0
 3574 0570 C6C60000 		.word	50886
 3575 0574 D6D6C6C6 		.word	-960047402
 3576 0578 6CEEFED6 		.word	-687935892
 3577 057c 00000000 		.word	0
 3578 0580 C6C60000 		.word	50886
 3579 0584 38387C6C 		.word	1820080184
 3580 0588 C6C66C7C 		.word	2087503558
 3581 058c 00000000 		.word	0
 3582 0590 66660000 		.word	26214
 3583 0594 183C6666 		.word	1717976088
 3584 0598 3C181818 		.word	404232252
 3585 059c 00000000 		.word	0
 3586 05a0 C6FE0000 		.word	65222
 3587 05a4 30180C86 		.word	-2046027728
 3588 05a8 FEC6C260 		.word	1623377662
 3589 05ac 00000000 		.word	0
 3590 05b0 303C0000 		.word	15408
 3591 05b4 30303030 		.word	808464432
ARM GAS  C:\Users\ldebo\AppData\Local\Temp\cc9oeUFF.s 			page 64


 3592 05b8 3C303030 		.word	808464444
 3593 05bc 00000000 		.word	0
 3594 05c0 80000000 		.word	128
 3595 05c4 3870E0C0 		.word	-1059033032
 3596 05c8 02060E1C 		.word	470681090
 3597 05cc 00000000 		.word	0
 3598 05d0 0C3C0000 		.word	15372
 3599 05d4 0C0C0C0C 		.word	202116108
 3600 05d8 3C0C0C0C 		.word	202116156
 3601 05dc 00000000 		.word	0
 3602 05e0 C66C3810 		.word	272133318
 3603 05e4 00000000 		.word	0
 3604 05e8 00000000 		.word	0
 3605 05ec 00000000 		.word	0
 3606 05f0 00000000 		.word	0
 3607 05f4 00000000 		.word	0
 3608 05f8 00000000 		.word	0
 3609 05fc 0000FF00 		.word	16711680
 3610 0600 00183030 		.word	808458240
 3611 0604 00000000 		.word	0
 3612 0608 00000000 		.word	0
 3613 060c 00000000 		.word	0
 3614 0610 00000000 		.word	0
 3615 0614 7C0C7800 		.word	7867516
 3616 0618 76CCCCCC 		.word	-858993546
 3617 061c 00000000 		.word	0
 3618 0620 60E00000 		.word	57440
 3619 0624 666C7860 		.word	1618504806
 3620 0628 7C666666 		.word	1717986940
 3621 062c 00000000 		.word	0
 3622 0630 00000000 		.word	0
 3623 0634 C0C67C00 		.word	8177344
 3624 0638 7CC6C0C0 		.word	-1061108100
 3625 063c 00000000 		.word	0
 3626 0640 0C1C0000 		.word	7180
 3627 0644 CC6C3C0C 		.word	205286604
 3628 0648 76CCCCCC 		.word	-858993546
 3629 064c 00000000 		.word	0
 3630 0650 00000000 		.word	0
 3631 0654 FEC67C00 		.word	8177406
 3632 0658 7CC6C0C0 		.word	-1061108100
 3633 065c 00000000 		.word	0
 3634 0660 6C380000 		.word	14444
 3635 0664 60F06064 		.word	1684074592
 3636 0668 F0606060 		.word	1616929008
 3637 066c 00000000 		.word	0
 3638 0670 00000000 		.word	0
 3639 0674 CCCC7600 		.word	7785676
 3640 0678 7CCCCCCC 		.word	-858993540
 3641 067c 0078CC0C 		.word	214726656
 3642 0680 60E00000 		.word	57440
 3643 0684 66766C60 		.word	1617720934
 3644 0688 E6666666 		.word	1717987046
 3645 068c 00000000 		.word	0
 3646 0690 18180000 		.word	6168
 3647 0694 18183800 		.word	3676184
 3648 0698 3C181818 		.word	404232252
ARM GAS  C:\Users\ldebo\AppData\Local\Temp\cc9oeUFF.s 			page 65


 3649 069c 00000000 		.word	0
 3650 06a0 06060000 		.word	1542
 3651 06a4 06060E00 		.word	919046
 3652 06a8 06060606 		.word	101058054
 3653 06ac 003C6666 		.word	1717976064
 3654 06b0 60E00000 		.word	57440
 3655 06b4 786C6660 		.word	1617325176
 3656 06b8 E6666C78 		.word	2020370150
 3657 06bc 00000000 		.word	0
 3658 06c0 18380000 		.word	14360
 3659 06c4 18181818 		.word	404232216
 3660 06c8 3C181818 		.word	404232252
 3661 06cc 00000000 		.word	0
 3662 06d0 00000000 		.word	0
 3663 06d4 D6FEEC00 		.word	15531734
 3664 06d8 C6D6D6D6 		.word	-690563386
 3665 06dc 00000000 		.word	0
 3666 06e0 00000000 		.word	0
 3667 06e4 6666DC00 		.word	14444134
 3668 06e8 66666666 		.word	1717986918
 3669 06ec 00000000 		.word	0
 3670 06f0 00000000 		.word	0
 3671 06f4 C6C67C00 		.word	8177350
 3672 06f8 7CC6C6C6 		.word	-960051588
 3673 06fc 00000000 		.word	0
 3674 0700 00000000 		.word	0
 3675 0704 6666DC00 		.word	14444134
 3676 0708 7C666666 		.word	1717986940
 3677 070c 00F06060 		.word	1616965632
 3678 0710 00000000 		.word	0
 3679 0714 CCCC7600 		.word	7785676
 3680 0718 7CCCCCCC 		.word	-858993540
 3681 071c 001E0C0C 		.word	202120704
 3682 0720 00000000 		.word	0
 3683 0724 6676DC00 		.word	14448230
 3684 0728 F0606060 		.word	1616929008
 3685 072c 00000000 		.word	0
 3686 0730 00000000 		.word	0
 3687 0734 60C67C00 		.word	8177248
 3688 0738 7CC60C38 		.word	940361340
 3689 073c 00000000 		.word	0
 3690 0740 30100000 		.word	4144
 3691 0744 3030FC30 		.word	821833776
 3692 0748 1C363030 		.word	808465948
 3693 074c 00000000 		.word	0
 3694 0750 00000000 		.word	0
 3695 0754 CCCCCC00 		.word	13421772
 3696 0758 76CCCCCC 		.word	-858993546
 3697 075c 00000000 		.word	0
 3698 0760 00000000 		.word	0
 3699 0764 66666600 		.word	6710886
 3700 0768 183C6666 		.word	1717976088
 3701 076c 00000000 		.word	0
 3702 0770 00000000 		.word	0
 3703 0774 D6C6C600 		.word	13027030
 3704 0778 6CFED6D6 		.word	-690553236
 3705 077c 00000000 		.word	0
ARM GAS  C:\Users\ldebo\AppData\Local\Temp\cc9oeUFF.s 			page 66


 3706 0780 00000000 		.word	0
 3707 0784 386CC600 		.word	13003832
 3708 0788 C66C3838 		.word	943221958
 3709 078c 00000000 		.word	0
 3710 0790 00000000 		.word	0
 3711 0794 C6C6C600 		.word	13027014
 3712 0798 7EC6C6C6 		.word	-960051586
 3713 079c 00F80C06 		.word	101513216
 3714 07a0 00000000 		.word	0
 3715 07a4 18CCFE00 		.word	16698392
 3716 07a8 FEC66030 		.word	811648766
 3717 07ac 00000000 		.word	0
 3718 07b0 180E0000 		.word	3608
 3719 07b4 18701818 		.word	404254744
 3720 07b8 0E181818 		.word	404232206
 3721 07bc 00000000 		.word	0
 3722 07c0 18180000 		.word	6168
 3723 07c4 18001818 		.word	404226072
 3724 07c8 18181818 		.word	404232216
 3725 07cc 00000000 		.word	0
 3726 07d0 18700000 		.word	28696
 3727 07d4 180E1818 		.word	404229656
 3728 07d8 70181818 		.word	404232304
 3729 07dc 00000000 		.word	0
 3730 07e0 DC760000 		.word	30428
 3731 07e4 00000000 		.word	0
 3732 07e8 00000000 		.word	0
 3733 07ec 00000000 		.word	0
 3734 07f0 00000000 		.word	0
 3735 07f4 C66C3810 		.word	272133318
 3736 07f8 00FEC6C6 		.word	-960037376
 3737 07fc 00000000 		.word	0
 3738 0800 663C0000 		.word	15462
 3739 0804 C0C0C0C2 		.word	-1027555136
 3740 0808 0C3C66C2 		.word	-1033487348
 3741 080c 00007C06 		.word	108789760
 3742 0810 00CC0000 		.word	52224
 3743 0814 CCCCCC00 		.word	13421772
 3744 0818 76CCCCCC 		.word	-858993546
 3745 081c 00000000 		.word	0
 3746 0820 30180C00 		.word	792624
 3747 0824 FEC67C00 		.word	8177406
 3748 0828 7CC6C0C0 		.word	-1061108100
 3749 082c 00000000 		.word	0
 3750 0830 6C381000 		.word	1063020
 3751 0834 7C0C7800 		.word	7867516
 3752 0838 76CCCCCC 		.word	-858993546
 3753 083c 00000000 		.word	0
 3754 0840 00CC0000 		.word	52224
 3755 0844 7C0C7800 		.word	7867516
 3756 0848 76CCCCCC 		.word	-858993546
 3757 084c 00000000 		.word	0
 3758 0850 18306000 		.word	6303768
 3759 0854 7C0C7800 		.word	7867516
 3760 0858 76CCCCCC 		.word	-858993546
 3761 085c 00000000 		.word	0
 3762 0860 386C3800 		.word	3697720
ARM GAS  C:\Users\ldebo\AppData\Local\Temp\cc9oeUFF.s 			page 67


 3763 0864 7C0C7800 		.word	7867516
 3764 0868 76CCCCCC 		.word	-858993546
 3765 086c 00000000 		.word	0
 3766 0870 00000000 		.word	0
 3767 0874 6060663C 		.word	1013342304
 3768 0878 060C3C66 		.word	1715211270
 3769 087c 0000003C 		.word	1006632960
 3770 0880 6C381000 		.word	1063020
 3771 0884 FEC67C00 		.word	8177406
 3772 0888 7CC6C0C0 		.word	-1061108100
 3773 088c 00000000 		.word	0
 3774 0890 00C60000 		.word	50688
 3775 0894 FEC67C00 		.word	8177406
 3776 0898 7CC6C0C0 		.word	-1061108100
 3777 089c 00000000 		.word	0
 3778 08a0 18306000 		.word	6303768
 3779 08a4 FEC67C00 		.word	8177406
 3780 08a8 7CC6C0C0 		.word	-1061108100
 3781 08ac 00000000 		.word	0
 3782 08b0 00660000 		.word	26112
 3783 08b4 18183800 		.word	3676184
 3784 08b8 3C181818 		.word	404232252
 3785 08bc 00000000 		.word	0
 3786 08c0 663C1800 		.word	1588326
 3787 08c4 18183800 		.word	3676184
 3788 08c8 3C181818 		.word	404232252
 3789 08cc 00000000 		.word	0
 3790 08d0 18306000 		.word	6303768
 3791 08d4 18183800 		.word	3676184
 3792 08d8 3C181818 		.word	404232252
 3793 08dc 00000000 		.word	0
 3794 08e0 1000C600 		.word	12976144
 3795 08e4 C6C66C38 		.word	946652870
 3796 08e8 C6C6C6FE 		.word	-20527418
 3797 08ec 00000000 		.word	0
 3798 08f0 00386C38 		.word	946616320
 3799 08f4 C6C66C38 		.word	946652870
 3800 08f8 C6C6C6FE 		.word	-20527418
 3801 08fc 00000000 		.word	0
 3802 0900 00603018 		.word	405823488
 3803 0904 7C6066FE 		.word	-26845060
 3804 0908 FE666060 		.word	1616930558
 3805 090c 00000000 		.word	0
 3806 0910 00000000 		.word	0
 3807 0914 3676CC00 		.word	13399606
 3808 0918 6ED8D87E 		.word	2128140398
 3809 091c 00000000 		.word	0
 3810 0920 6C3E0000 		.word	15980
 3811 0924 CCFECCCC 		.word	-858980660
 3812 0928 CECCCCCC 		.word	-858993458
 3813 092c 00000000 		.word	0
 3814 0930 6C381000 		.word	1063020
 3815 0934 C6C67C00 		.word	8177350
 3816 0938 7CC6C6C6 		.word	-960051588
 3817 093c 00000000 		.word	0
 3818 0940 00C60000 		.word	50688
 3819 0944 C6C67C00 		.word	8177350
ARM GAS  C:\Users\ldebo\AppData\Local\Temp\cc9oeUFF.s 			page 68


 3820 0948 7CC6C6C6 		.word	-960051588
 3821 094c 00000000 		.word	0
 3822 0950 18306000 		.word	6303768
 3823 0954 C6C67C00 		.word	8177350
 3824 0958 7CC6C6C6 		.word	-960051588
 3825 095c 00000000 		.word	0
 3826 0960 CC783000 		.word	3176652
 3827 0964 CCCCCC00 		.word	13421772
 3828 0968 76CCCCCC 		.word	-858993546
 3829 096c 00000000 		.word	0
 3830 0970 18306000 		.word	6303768
 3831 0974 CCCCCC00 		.word	13421772
 3832 0978 76CCCCCC 		.word	-858993546
 3833 097c 00000000 		.word	0
 3834 0980 00C60000 		.word	50688
 3835 0984 C6C6C600 		.word	13027014
 3836 0988 7EC6C6C6 		.word	-960051586
 3837 098c 00780C06 		.word	101480448
 3838 0990 7C00C600 		.word	12976252
 3839 0994 C6C6C6C6 		.word	-960051514
 3840 0998 7CC6C6C6 		.word	-960051588
 3841 099c 00000000 		.word	0
 3842 09a0 C600C600 		.word	12976326
 3843 09a4 C6C6C6C6 		.word	-960051514
 3844 09a8 7CC6C6C6 		.word	-960051588
 3845 09ac 00000000 		.word	0
 3846 09b0 3C181800 		.word	1579068
 3847 09b4 60606066 		.word	1717592160
 3848 09b8 18183C66 		.word	1715214360
 3849 09bc 00000000 		.word	0
 3850 09c0 646C3800 		.word	3697764
 3851 09c4 6060F060 		.word	1626366048
 3852 09c8 FCE66060 		.word	1616963324
 3853 09cc 00000000 		.word	0
 3854 09d0 66660000 		.word	26214
 3855 09d4 187E183C 		.word	1008238104
 3856 09d8 1818187E 		.word	2115508248
 3857 09dc 00000000 		.word	0
 3858 09e0 CCCCF800 		.word	16305356
 3859 09e4 DECCC4F8 		.word	-121320226
 3860 09e8 C6CCCCCC 		.word	-858993466
 3861 09ec 00000000 		.word	0
 3862 09f0 181B0E00 		.word	924440
 3863 09f4 187E1818 		.word	404258328
 3864 09f8 18181818 		.word	404232216
 3865 09fc 000070D8 		.word	-663748608
 3866 0a00 60301800 		.word	1585248
 3867 0a04 7C0C7800 		.word	7867516
 3868 0a08 76CCCCCC 		.word	-858993546
 3869 0a0c 00000000 		.word	0
 3870 0a10 30180C00 		.word	792624
 3871 0a14 18183800 		.word	3676184
 3872 0a18 3C181818 		.word	404232252
 3873 0a1c 00000000 		.word	0
 3874 0a20 60301800 		.word	1585248
 3875 0a24 C6C67C00 		.word	8177350
 3876 0a28 7CC6C6C6 		.word	-960051588
ARM GAS  C:\Users\ldebo\AppData\Local\Temp\cc9oeUFF.s 			page 69


 3877 0a2c 00000000 		.word	0
 3878 0a30 60301800 		.word	1585248
 3879 0a34 CCCCCC00 		.word	13421772
 3880 0a38 76CCCCCC 		.word	-858993546
 3881 0a3c 00000000 		.word	0
 3882 0a40 DC760000 		.word	30428
 3883 0a44 6666DC00 		.word	14444134
 3884 0a48 66666666 		.word	1717986918
 3885 0a4c 00000000 		.word	0
 3886 0a50 C600DC76 		.word	1994129606
 3887 0a54 DEFEF6E6 		.word	-420020514
 3888 0a58 C6C6C6CE 		.word	-825833786
 3889 0a5c 00000000 		.word	0
 3890 0a60 6C6C3C00 		.word	3959916
 3891 0a64 007E003E 		.word	1040219648
 3892 0a68 00000000 		.word	0
 3893 0a6c 00000000 		.word	0
 3894 0a70 6C6C3800 		.word	3697772
 3895 0a74 007C0038 		.word	939555840
 3896 0a78 00000000 		.word	0
 3897 0a7c 00000000 		.word	0
 3898 0a80 30300000 		.word	12336
 3899 0a84 60303000 		.word	3158112
 3900 0a88 7CC6C6C0 		.word	-1060714884
 3901 0a8c 00000000 		.word	0
 3902 0a90 00000000 		.word	0
 3903 0a94 C0FE0000 		.word	65216
 3904 0a98 00C0C0C0 		.word	-1061109760
 3905 0a9c 00000000 		.word	0
 3906 0aa0 00000000 		.word	0
 3907 0aa4 06FE0000 		.word	65030
 3908 0aa8 00060606 		.word	101058048
 3909 0aac 00000000 		.word	0
 3910 0ab0 C2C0C000 		.word	12632258
 3911 0ab4 3018CCC6 		.word	-959702992
 3912 0ab8 0C86DC60 		.word	1625064972
 3913 0abc 00003E18 		.word	406716416
 3914 0ac0 C2C0C000 		.word	12632258
 3915 0ac4 3018CCC6 		.word	-959702992
 3916 0ac8 3E9ECE66 		.word	1724816958
 3917 0acc 00000606 		.word	101056512
 3918 0ad0 18180000 		.word	6168
 3919 0ad4 18181800 		.word	1579032
 3920 0ad8 183C3C3C 		.word	1010580504
 3921 0adc 00000000 		.word	0
 3922 0ae0 00000000 		.word	0
 3923 0ae4 D86C3600 		.word	3566808
 3924 0ae8 0000366C 		.word	1815478272
 3925 0aec 00000000 		.word	0
 3926 0af0 00000000 		.word	0
 3927 0af4 366CD800 		.word	14183478
 3928 0af8 0000D86C 		.word	1826095104
 3929 0afc 00000000 		.word	0
 3930 0b00 44114411 		.word	289673540
 3931 0b04 44114411 		.word	289673540
 3932 0b08 44114411 		.word	289673540
 3933 0b0c 44114411 		.word	289673540
ARM GAS  C:\Users\ldebo\AppData\Local\Temp\cc9oeUFF.s 			page 70


 3934 0b10 AA55AA55 		.word	1437226410
 3935 0b14 AA55AA55 		.word	1437226410
 3936 0b18 AA55AA55 		.word	1437226410
 3937 0b1c AA55AA55 		.word	1437226410
 3938 0b20 77DD77DD 		.word	-579347081
 3939 0b24 77DD77DD 		.word	-579347081
 3940 0b28 77DD77DD 		.word	-579347081
 3941 0b2c 77DD77DD 		.word	-579347081
 3942 0b30 18181818 		.word	404232216
 3943 0b34 18181818 		.word	404232216
 3944 0b38 18181818 		.word	404232216
 3945 0b3c 18181818 		.word	404232216
 3946 0b40 18181818 		.word	404232216
 3947 0b44 F8181818 		.word	404232440
 3948 0b48 18181818 		.word	404232216
 3949 0b4c 18181818 		.word	404232216
 3950 0b50 18181818 		.word	404232216
 3951 0b54 F818F818 		.word	418912504
 3952 0b58 18181818 		.word	404232216
 3953 0b5c 18181818 		.word	404232216
 3954 0b60 36363636 		.word	909522486
 3955 0b64 F6363636 		.word	909522678
 3956 0b68 36363636 		.word	909522486
 3957 0b6c 36363636 		.word	909522486
 3958 0b70 00000000 		.word	0
 3959 0b74 FE000000 		.word	254
 3960 0b78 36363636 		.word	909522486
 3961 0b7c 36363636 		.word	909522486
 3962 0b80 00000000 		.word	0
 3963 0b84 F818F800 		.word	16259320
 3964 0b88 18181818 		.word	404232216
 3965 0b8c 18181818 		.word	404232216
 3966 0b90 36363636 		.word	909522486
 3967 0b94 F606F636 		.word	922093302
 3968 0b98 36363636 		.word	909522486
 3969 0b9c 36363636 		.word	909522486
 3970 0ba0 36363636 		.word	909522486
 3971 0ba4 36363636 		.word	909522486
 3972 0ba8 36363636 		.word	909522486
 3973 0bac 36363636 		.word	909522486
 3974 0bb0 00000000 		.word	0
 3975 0bb4 F606FE00 		.word	16647926
 3976 0bb8 36363636 		.word	909522486
 3977 0bbc 36363636 		.word	909522486
 3978 0bc0 36363636 		.word	909522486
 3979 0bc4 FE06F636 		.word	922093310
 3980 0bc8 00000000 		.word	0
 3981 0bcc 00000000 		.word	0
 3982 0bd0 36363636 		.word	909522486
 3983 0bd4 FE363636 		.word	909522686
 3984 0bd8 00000000 		.word	0
 3985 0bdc 00000000 		.word	0
 3986 0be0 18181818 		.word	404232216
 3987 0be4 F818F818 		.word	418912504
 3988 0be8 00000000 		.word	0
 3989 0bec 00000000 		.word	0
 3990 0bf0 00000000 		.word	0
ARM GAS  C:\Users\ldebo\AppData\Local\Temp\cc9oeUFF.s 			page 71


 3991 0bf4 F8000000 		.word	248
 3992 0bf8 18181818 		.word	404232216
 3993 0bfc 18181818 		.word	404232216
 3994 0c00 18181818 		.word	404232216
 3995 0c04 1F181818 		.word	404232223
 3996 0c08 00000000 		.word	0
 3997 0c0c 00000000 		.word	0
 3998 0c10 18181818 		.word	404232216
 3999 0c14 FF181818 		.word	404232447
 4000 0c18 00000000 		.word	0
 4001 0c1c 00000000 		.word	0
 4002 0c20 00000000 		.word	0
 4003 0c24 FF000000 		.word	255
 4004 0c28 18181818 		.word	404232216
 4005 0c2c 18181818 		.word	404232216
 4006 0c30 18181818 		.word	404232216
 4007 0c34 1F181818 		.word	404232223
 4008 0c38 18181818 		.word	404232216
 4009 0c3c 18181818 		.word	404232216
 4010 0c40 00000000 		.word	0
 4011 0c44 FF000000 		.word	255
 4012 0c48 00000000 		.word	0
 4013 0c4c 00000000 		.word	0
 4014 0c50 18181818 		.word	404232216
 4015 0c54 FF181818 		.word	404232447
 4016 0c58 18181818 		.word	404232216
 4017 0c5c 18181818 		.word	404232216
 4018 0c60 18181818 		.word	404232216
 4019 0c64 1F181F18 		.word	404690975
 4020 0c68 18181818 		.word	404232216
 4021 0c6c 18181818 		.word	404232216
 4022 0c70 36363636 		.word	909522486
 4023 0c74 37363636 		.word	909522487
 4024 0c78 36363636 		.word	909522486
 4025 0c7c 36363636 		.word	909522486
 4026 0c80 36363636 		.word	909522486
 4027 0c84 3F303736 		.word	909586495
 4028 0c88 00000000 		.word	0
 4029 0c8c 00000000 		.word	0
 4030 0c90 00000000 		.word	0
 4031 0c94 37303F00 		.word	4141111
 4032 0c98 36363636 		.word	909522486
 4033 0c9c 36363636 		.word	909522486
 4034 0ca0 36363636 		.word	909522486
 4035 0ca4 FF00F736 		.word	922157311
 4036 0ca8 00000000 		.word	0
 4037 0cac 00000000 		.word	0
 4038 0cb0 00000000 		.word	0
 4039 0cb4 F700FF00 		.word	16711927
 4040 0cb8 36363636 		.word	909522486
 4041 0cbc 36363636 		.word	909522486
 4042 0cc0 36363636 		.word	909522486
 4043 0cc4 37303736 		.word	909586487
 4044 0cc8 36363636 		.word	909522486
 4045 0ccc 36363636 		.word	909522486
 4046 0cd0 00000000 		.word	0
 4047 0cd4 FF00FF00 		.word	16711935
ARM GAS  C:\Users\ldebo\AppData\Local\Temp\cc9oeUFF.s 			page 72


 4048 0cd8 00000000 		.word	0
 4049 0cdc 00000000 		.word	0
 4050 0ce0 36363636 		.word	909522486
 4051 0ce4 F700F736 		.word	922157303
 4052 0ce8 36363636 		.word	909522486
 4053 0cec 36363636 		.word	909522486
 4054 0cf0 18181818 		.word	404232216
 4055 0cf4 FF00FF18 		.word	419365119
 4056 0cf8 00000000 		.word	0
 4057 0cfc 00000000 		.word	0
 4058 0d00 36363636 		.word	909522486
 4059 0d04 FF363636 		.word	909522687
 4060 0d08 00000000 		.word	0
 4061 0d0c 00000000 		.word	0
 4062 0d10 00000000 		.word	0
 4063 0d14 FF00FF00 		.word	16711935
 4064 0d18 18181818 		.word	404232216
 4065 0d1c 18181818 		.word	404232216
 4066 0d20 00000000 		.word	0
 4067 0d24 FF000000 		.word	255
 4068 0d28 36363636 		.word	909522486
 4069 0d2c 36363636 		.word	909522486
 4070 0d30 36363636 		.word	909522486
 4071 0d34 3F363636 		.word	909522495
 4072 0d38 00000000 		.word	0
 4073 0d3c 00000000 		.word	0
 4074 0d40 18181818 		.word	404232216
 4075 0d44 1F181F18 		.word	404690975
 4076 0d48 00000000 		.word	0
 4077 0d4c 00000000 		.word	0
 4078 0d50 00000000 		.word	0
 4079 0d54 1F181F00 		.word	2037791
 4080 0d58 18181818 		.word	404232216
 4081 0d5c 18181818 		.word	404232216
 4082 0d60 00000000 		.word	0
 4083 0d64 3F000000 		.word	63
 4084 0d68 36363636 		.word	909522486
 4085 0d6c 36363636 		.word	909522486
 4086 0d70 36363636 		.word	909522486
 4087 0d74 FF363636 		.word	909522687
 4088 0d78 36363636 		.word	909522486
 4089 0d7c 36363636 		.word	909522486
 4090 0d80 18181818 		.word	404232216
 4091 0d84 FF18FF18 		.word	419371263
 4092 0d88 18181818 		.word	404232216
 4093 0d8c 18181818 		.word	404232216
 4094 0d90 18181818 		.word	404232216
 4095 0d94 F8181818 		.word	404232440
 4096 0d98 00000000 		.word	0
 4097 0d9c 00000000 		.word	0
 4098 0da0 00000000 		.word	0
 4099 0da4 1F000000 		.word	31
 4100 0da8 18181818 		.word	404232216
 4101 0dac 18181818 		.word	404232216
 4102 0db0 FFFFFFFF 		.word	-1
 4103 0db4 FFFFFFFF 		.word	-1
 4104 0db8 FFFFFFFF 		.word	-1
ARM GAS  C:\Users\ldebo\AppData\Local\Temp\cc9oeUFF.s 			page 73


 4105 0dbc FFFFFFFF 		.word	-1
 4106 0dc0 00000000 		.word	0
 4107 0dc4 FF000000 		.word	255
 4108 0dc8 FFFFFFFF 		.word	-1
 4109 0dcc FFFFFFFF 		.word	-1
 4110 0dd0 F0F0F0F0 		.word	-252645136
 4111 0dd4 F0F0F0F0 		.word	-252645136
 4112 0dd8 F0F0F0F0 		.word	-252645136
 4113 0ddc F0F0F0F0 		.word	-252645136
 4114 0de0 0F0F0F0F 		.word	252645135
 4115 0de4 0F0F0F0F 		.word	252645135
 4116 0de8 0F0F0F0F 		.word	252645135
 4117 0dec 0F0F0F0F 		.word	252645135
 4118 0df0 FFFFFFFF 		.word	-1
 4119 0df4 00FFFFFF 		.word	-256
 4120 0df8 00000000 		.word	0
 4121 0dfc 00000000 		.word	0
 4122 0e00 00000000 		.word	0
 4123 0e04 D8DC7600 		.word	7789784
 4124 0e08 76DCD8D8 		.word	-656876426
 4125 0e0c 00000000 		.word	0
 4126 0e10 CC780000 		.word	30924
 4127 0e14 CCD8CCCC 		.word	-858990388
 4128 0e18 CCC6C6C6 		.word	-960051508
 4129 0e1c 00000000 		.word	0
 4130 0e20 C6FE0000 		.word	65222
 4131 0e24 C0C0C0C6 		.word	-960446272
 4132 0e28 C0C0C0C0 		.word	-1061109568
 4133 0e2c 00000000 		.word	0
 4134 0e30 00000000 		.word	0
 4135 0e34 6C6C6CFE 		.word	-26448788
 4136 0e38 6C6C6C6C 		.word	1819044972
 4137 0e3c 00000000 		.word	0
 4138 0e40 FE000000 		.word	254
 4139 0e44 183060C6 		.word	-966774760
 4140 0e48 FEC66030 		.word	811648766
 4141 0e4c 00000000 		.word	0
 4142 0e50 00000000 		.word	0
 4143 0e54 D8D87E00 		.word	8313048
 4144 0e58 70D8D8D8 		.word	-656877456
 4145 0e5c 00000000 		.word	0
 4146 0e60 00000000 		.word	0
 4147 0e64 66666666 		.word	1717986918
 4148 0e68 60607C66 		.word	1719427168
 4149 0e6c 000000C0 		.word	-1073741824
 4150 0e70 00000000 		.word	0
 4151 0e74 1818DC76 		.word	1994135576
 4152 0e78 18181818 		.word	404232216
 4153 0e7c 00000000 		.word	0
 4154 0e80 7E000000 		.word	126
 4155 0e84 66663C18 		.word	406611558
 4156 0e88 7E183C66 		.word	1715214462
 4157 0e8c 00000000 		.word	0
 4158 0e90 38000000 		.word	56
 4159 0e94 FEC6C66C 		.word	1824966398
 4160 0e98 386CC6C6 		.word	-960074696
 4161 0e9c 00000000 		.word	0
ARM GAS  C:\Users\ldebo\AppData\Local\Temp\cc9oeUFF.s 			page 74


 4162 0ea0 6C380000 		.word	14444
 4163 0ea4 6CC6C6C6 		.word	-960051604
 4164 0ea8 EE6C6C6C 		.word	1819045102
 4165 0eac 00000000 		.word	0
 4166 0eb0 301E0000 		.word	7728
 4167 0eb4 663E0C18 		.word	403455590
 4168 0eb8 3C666666 		.word	1717986876
 4169 0ebc 00000000 		.word	0
 4170 0ec0 00000000 		.word	0
 4171 0ec4 DBDB7E00 		.word	8313819
 4172 0ec8 00007EDB 		.word	-612499456
 4173 0ecc 00000000 		.word	0
 4174 0ed0 03000000 		.word	3
 4175 0ed4 DBDB7E06 		.word	108977115
 4176 0ed8 C0607EF3 		.word	-209821504
 4177 0edc 00000000 		.word	0
 4178 0ee0 301C0000 		.word	7216
 4179 0ee4 607C6060 		.word	1616936032
 4180 0ee8 1C306060 		.word	1616916508
 4181 0eec 00000000 		.word	0
 4182 0ef0 7C000000 		.word	124
 4183 0ef4 C6C6C6C6 		.word	-960051514
 4184 0ef8 C6C6C6C6 		.word	-960051514
 4185 0efc 00000000 		.word	0
 4186 0f00 00000000 		.word	0
 4187 0f04 FE0000FE 		.word	-33554178
 4188 0f08 00FE0000 		.word	65024
 4189 0f0c 00000000 		.word	0
 4190 0f10 00000000 		.word	0
 4191 0f14 187E1818 		.word	404258328
 4192 0f18 FF000018 		.word	402653439
 4193 0f1c 00000000 		.word	0
 4194 0f20 30000000 		.word	48
 4195 0f24 0C060C18 		.word	403441164
 4196 0f28 7E003018 		.word	405799038
 4197 0f2c 00000000 		.word	0
 4198 0f30 0C000000 		.word	12
 4199 0f34 30603018 		.word	405823536
 4200 0f38 7E000C18 		.word	403439742
 4201 0f3c 00000000 		.word	0
 4202 0f40 1B0E0000 		.word	3611
 4203 0f44 1818181B 		.word	454563864
 4204 0f48 18181818 		.word	404232216
 4205 0f4c 18181818 		.word	404232216
 4206 0f50 18181818 		.word	404232216
 4207 0f54 18181818 		.word	404232216
 4208 0f58 70D8D8D8 		.word	-656877456
 4209 0f5c 00000000 		.word	0
 4210 0f60 00000000 		.word	0
 4211 0f64 7E001818 		.word	404226174
 4212 0f68 00181800 		.word	1579008
 4213 0f6c 00000000 		.word	0
 4214 0f70 00000000 		.word	0
 4215 0f74 00DC7600 		.word	7789568
 4216 0f78 0000DC76 		.word	1994129408
 4217 0f7c 00000000 		.word	0
 4218 0f80 6C6C3800 		.word	3697772
ARM GAS  C:\Users\ldebo\AppData\Local\Temp\cc9oeUFF.s 			page 75


 4219 0f84 00000038 		.word	939524096
 4220 0f88 00000000 		.word	0
 4221 0f8c 00000000 		.word	0
 4222 0f90 00000000 		.word	0
 4223 0f94 18000000 		.word	24
 4224 0f98 00000018 		.word	402653184
 4225 0f9c 00000000 		.word	0
 4226 0fa0 00000000 		.word	0
 4227 0fa4 00000000 		.word	0
 4228 0fa8 00000018 		.word	402653184
 4229 0fac 00000000 		.word	0
 4230 0fb0 0C0C0F00 		.word	986124
 4231 0fb4 EC0C0C0C 		.word	202116332
 4232 0fb8 1C3C6C6C 		.word	1819032604
 4233 0fbc 00000000 		.word	0
 4234 0fc0 6C6CD800 		.word	14183532
 4235 0fc4 006C6C6C 		.word	1819044864
 4236 0fc8 00000000 		.word	0
 4237 0fcc 00000000 		.word	0
 4238 0fd0 30D87000 		.word	7395376
 4239 0fd4 00F8C860 		.word	1623783424
 4240 0fd8 00000000 		.word	0
 4241 0fdc 00000000 		.word	0
 4242 0fe0 00000000 		.word	0
 4243 0fe4 7C7C7C7C 		.word	2088533116
 4244 0fe8 007C7C7C 		.word	2088532992
 4245 0fec 00000000 		.word	0
 4246 0ff0 00000000 		.word	0
 4247 0ff4 00000000 		.word	0
 4248 0ff8 00000000 		.word	0
 4249 0ffc 00000000 		.word	0
 4250              		.data
 4251              		.align	2
 4252              		.set	.LANCHOR2,. + 0
 4253              		.type	ActivityGPIOPort, %object
 4254              		.size	ActivityGPIOPort, 4
 4255              	ActivityGPIOPort:
 4256 0000 2F000000 		.word	47
 4257              		.bss
 4258              		.align	2
 4259              		.set	.LANCHOR1,. + 0
 4260              		.type	ModelCheckHasRun, %object
 4261              		.size	ModelCheckHasRun, 1
 4262              	ModelCheckHasRun:
 4263 0000 00       		.space	1
 4264 0001 000000   		.space	3
 4265              		.type	console, %object
 4266              		.size	console, 72
 4267              	console:
 4268 0004 00000000 		.space	72
 4268      00000000 
 4268      00000000 
 4268      00000000 
 4268      00000000 
 4269              		.type	heap_end.6584, %object
 4270              		.size	heap_end.6584, 4
 4271              	heap_end.6584:
ARM GAS  C:\Users\ldebo\AppData\Local\Temp\cc9oeUFF.s 			page 76


 4272 004c 00000000 		.space	4
 4273              		.section	.rodata,"a",%progbits; //,"a",%progbits
 4274              		.align	2
 4275              		.type	BitFontEnd, %object
 4276              		.size	BitFontEnd, 4
 4277              	BitFontEnd:
 4278 1000 00000000 		.space	4
 4279              		.section	.rodata.str1.4,"aMS",%progbits,1
 4280              		.align	2
 4281              	.LC0:
 4282 0000 43505520 		.ascii	"CPU frequency set to %u Hz\012\000"
 4282      66726571 
 4282      75656E63 
 4282      79207365 
 4282      7420746F 
 4283              	.LC1:
 4284 001c 536D6172 		.ascii	"SmartStart v2.02 compiled for Arm%d, AARCH%d with %"
 4284      74537461 
 4284      72742076 
 4284      322E3032 
 4284      20636F6D 
 4285 004f 7520636F 		.ascii	"u core s/w support\012\000"
 4285      72652073 
 4285      2F772073 
 4285      7570706F 
 4285      72740A00 
 4286 0063 00       		.space	1
 4287              	.LC2:
 4288 0064 44657465 		.ascii	"Detected %s CPU, part id: 0x%03X, Cores made ready "
 4288      63746564 
 4288      20257320 
 4288      4350552C 
 4288      20706172 
 4289 0097 666F7220 		.ascii	"for use: %u\012\000"
 4289      7573653A 
 4289      2025750A 
 4289      00
 4290              	.LC3:
 4291 00a4 53637265 		.ascii	"Screen resolution %i x %i Colour Depth: %i\012\000"
 4291      656E2072 
 4291      65736F6C 
 4291      7574696F 
 4291      6E202569 
 4292              		.ident	"GCC: (GNU Tools for ARM Embedded Processors 6-2017-q2-update) 6.3.1 20170620 (release) [AR
ARM GAS  C:\Users\ldebo\AppData\Local\Temp\cc9oeUFF.s 			page 77


DEFINED SYMBOLS
                            *ABS*:00000000 rpi-SmartStart.c
C:\Users\ldebo\AppData\Local\Temp\cc9oeUFF.s:14     .text:00000000 $a
C:\Users\ldebo\AppData\Local\Temp\cc9oeUFF.s:19     .text:00000000 ClearArea16
C:\Users\ldebo\AppData\Local\Temp\cc9oeUFF.s:69     .text:0000009c VertLine16
C:\Users\ldebo\AppData\Local\Temp\cc9oeUFF.s:130    .text:00000160 HorzLine16
C:\Users\ldebo\AppData\Local\Temp\cc9oeUFF.s:177    .text:000001f0 DiagLine16
C:\Users\ldebo\AppData\Local\Temp\cc9oeUFF.s:247    .text:000002d8 WriteChar16
C:\Users\ldebo\AppData\Local\Temp\cc9oeUFF.s:3222   .rodata:00000000 .LANCHOR0
C:\Users\ldebo\AppData\Local\Temp\cc9oeUFF.s:331    .text:000003f8 TransparentWriteChar16
C:\Users\ldebo\AppData\Local\Temp\cc9oeUFF.s:402    .text:000004dc PutImage16
C:\Users\ldebo\AppData\Local\Temp\cc9oeUFF.s:463    .text:00000594 ClearArea24
C:\Users\ldebo\AppData\Local\Temp\cc9oeUFF.s:502    .text:00000604 VertLine24
C:\Users\ldebo\AppData\Local\Temp\cc9oeUFF.s:551    .text:00000698 HorzLine24
C:\Users\ldebo\AppData\Local\Temp\cc9oeUFF.s:589    .text:00000704 DiagLine24
C:\Users\ldebo\AppData\Local\Temp\cc9oeUFF.s:653    .text:000007d4 WriteChar24
C:\Users\ldebo\AppData\Local\Temp\cc9oeUFF.s:705    .text:00000878 TransparentWriteChar24
C:\Users\ldebo\AppData\Local\Temp\cc9oeUFF.s:771    .text:00000948 PutImage24
C:\Users\ldebo\AppData\Local\Temp\cc9oeUFF.s:823    .text:000009e4 ClearArea32
C:\Users\ldebo\AppData\Local\Temp\cc9oeUFF.s:860    .text:00000a48 VertLine32
C:\Users\ldebo\AppData\Local\Temp\cc9oeUFF.s:904    .text:00000ac8 HorzLine32
C:\Users\ldebo\AppData\Local\Temp\cc9oeUFF.s:936    .text:00000b1c DiagLine32
C:\Users\ldebo\AppData\Local\Temp\cc9oeUFF.s:980    .text:00000ba0 WriteChar32
C:\Users\ldebo\AppData\Local\Temp\cc9oeUFF.s:1029   .text:00000c34 TransparentWriteChar32
C:\Users\ldebo\AppData\Local\Temp\cc9oeUFF.s:1073   .text:00000cb8 PutImage32
C:\Users\ldebo\AppData\Local\Temp\cc9oeUFF.s:1121   .text:00000d48 mailbox_tag_message.constprop.4
C:\Users\ldebo\AppData\Local\Temp\cc9oeUFF.s:1185   .text:00000e18 mailbox_tag_message.constprop.5
C:\Users\ldebo\AppData\Local\Temp\cc9oeUFF.s:1264   .text:00000f18 mailbox_tag_message.constprop.6
C:\Users\ldebo\AppData\Local\Temp\cc9oeUFF.s:1338   .text:00001004 mailbox_tag_message.constprop.7
C:\Users\ldebo\AppData\Local\Temp\cc9oeUFF.s:1418   .text:000010fc gpio_setup
C:\Users\ldebo\AppData\Local\Temp\cc9oeUFF.s:1456   .text:00001168 gpio_output
C:\Users\ldebo\AppData\Local\Temp\cc9oeUFF.s:1496   .text:000011d4 gpio_input
C:\Users\ldebo\AppData\Local\Temp\cc9oeUFF.s:1526   .text:0000121c gpio_checkEvent
C:\Users\ldebo\AppData\Local\Temp\cc9oeUFF.s:1555   .text:00001260 gpio_clearEvent
C:\Users\ldebo\AppData\Local\Temp\cc9oeUFF.s:1583   .text:000012a0 gpio_edgeDetect
C:\Users\ldebo\AppData\Local\Temp\cc9oeUFF.s:1647   .text:00001368 gpio_fixResistor
C:\Users\ldebo\AppData\Local\Temp\cc9oeUFF.s:1739   .text:0000149c timer_getTickCount
C:\Users\ldebo\AppData\Local\Temp\cc9oeUFF.s:1771   .text:000014ec timer_wait
C:\Users\ldebo\AppData\Local\Temp\cc9oeUFF.s:1816   .text:00001570 tick_difference
C:\Users\ldebo\AppData\Local\Temp\cc9oeUFF.s:1830   .text:0000157c mailbox_write
C:\Users\ldebo\AppData\Local\Temp\cc9oeUFF.s:1860   .text:000015c0 mailbox_read
C:\Users\ldebo\AppData\Local\Temp\cc9oeUFF.s:1892   .text:0000160c mailbox_tag_message
C:\Users\ldebo\AppData\Local\Temp\cc9oeUFF.s:1983   .text:0000172c set_Activity_LED
C:\Users\ldebo\AppData\Local\Temp\cc9oeUFF.s:4259   .bss:00000000 .LANCHOR1
C:\Users\ldebo\AppData\Local\Temp\cc9oeUFF.s:4252   .data:00000000 .LANCHOR2
C:\Users\ldebo\AppData\Local\Temp\cc9oeUFF.s:2096   .text:000018a4 ARM_setmaxspeed
C:\Users\ldebo\AppData\Local\Temp\cc9oeUFF.s:4281   .rodata.str1.4:00000000 .LC0
C:\Users\ldebo\AppData\Local\Temp\cc9oeUFF.s:2152   .text:00001948 displaySmartStart
C:\Users\ldebo\AppData\Local\Temp\cc9oeUFF.s:4283   .rodata.str1.4:0000001c .LC1
C:\Users\ldebo\AppData\Local\Temp\cc9oeUFF.s:4287   .rodata.str1.4:00000064 .LC2
C:\Users\ldebo\AppData\Local\Temp\cc9oeUFF.s:2192   .text:000019c0 Embedded_Console_WriteChar
C:\Users\ldebo\AppData\Local\Temp\cc9oeUFF.s:2252   .text:00001a7c WriteText
C:\Users\ldebo\AppData\Local\Temp\cc9oeUFF.s:2322   .text:00001b58 SetDCPenColor
C:\Users\ldebo\AppData\Local\Temp\cc9oeUFF.s:2338   .text:00001b6c SetDCBrushColor
C:\Users\ldebo\AppData\Local\Temp\cc9oeUFF.s:2354   .text:00001b80 MoveToEx
C:\Users\ldebo\AppData\Local\Temp\cc9oeUFF.s:2379   .text:00001bb8 LineTo
C:\Users\ldebo\AppData\Local\Temp\cc9oeUFF.s:2433   .text:00001c54 TextOut
ARM GAS  C:\Users\ldebo\AppData\Local\Temp\cc9oeUFF.s 			page 78


C:\Users\ldebo\AppData\Local\Temp\cc9oeUFF.s:2472   .text:00001cc0 TransparentTextOut
C:\Users\ldebo\AppData\Local\Temp\cc9oeUFF.s:2510   .text:00001d24 BmpOut
C:\Users\ldebo\AppData\Local\Temp\cc9oeUFF.s:2543   .text:00001d78 CvtBmpLine
C:\Users\ldebo\AppData\Local\Temp\cc9oeUFF.s:2743   .text:00002034 Rectangle
C:\Users\ldebo\AppData\Local\Temp\cc9oeUFF.s:2768   .text:00002068 PiConsole_Init
C:\Users\ldebo\AppData\Local\Temp\cc9oeUFF.s:4290   .rodata.str1.4:000000a4 .LC3
C:\Users\ldebo\AppData\Local\Temp\cc9oeUFF.s:2965   .text:00002324 GetConsoleDC
C:\Users\ldebo\AppData\Local\Temp\cc9oeUFF.s:2974   .text:0000232c $d
C:\Users\ldebo\AppData\Local\Temp\cc9oeUFF.s:2976   .text:00002330 $a
C:\Users\ldebo\AppData\Local\Temp\cc9oeUFF.s:2982   .text:00002330 GetConsole_FrameBuffer
C:\Users\ldebo\AppData\Local\Temp\cc9oeUFF.s:2997   .text:00002340 GetConsole_Width
C:\Users\ldebo\AppData\Local\Temp\cc9oeUFF.s:3012   .text:00002350 GetConsole_Height
C:\Users\ldebo\AppData\Local\Temp\cc9oeUFF.s:3027   .text:00002360 _sbrk
C:\Users\ldebo\AppData\Local\Temp\cc9oeUFF.s:3049   .text:0000238c _kill
C:\Users\ldebo\AppData\Local\Temp\cc9oeUFF.s:3066   .text:000023a4 _getpid
C:\Users\ldebo\AppData\Local\Temp\cc9oeUFF.s:3079   .text:000023ac _read
C:\Users\ldebo\AppData\Local\Temp\cc9oeUFF.s:3092   .text:000023b4 _close
C:\Users\ldebo\AppData\Local\Temp\cc9oeUFF.s:3105   .text:000023bc _lseek
C:\Users\ldebo\AppData\Local\Temp\cc9oeUFF.s:3118   .text:000023c4 _isatty
C:\Users\ldebo\AppData\Local\Temp\cc9oeUFF.s:3131   .text:000023cc _fstat
C:\Users\ldebo\AppData\Local\Temp\cc9oeUFF.s:3146   .text:000023dc _exit
C:\Users\ldebo\AppData\Local\Temp\cc9oeUFF.s:3159   .text:000023e0 _write
C:\Users\ldebo\AppData\Local\Temp\cc9oeUFF.s:4267   .bss:00000004 console
C:\Users\ldebo\AppData\Local\Temp\cc9oeUFF.s:4277   .rodata:00001000 BitFontEnd
C:\Users\ldebo\AppData\Local\Temp\cc9oeUFF.s:3221   .rodata:00000000 $d
C:\Users\ldebo\AppData\Local\Temp\cc9oeUFF.s:3225   .rodata:00000000 BitFont
C:\Users\ldebo\AppData\Local\Temp\cc9oeUFF.s:4251   .data:00000000 $d
C:\Users\ldebo\AppData\Local\Temp\cc9oeUFF.s:4255   .data:00000000 ActivityGPIOPort
C:\Users\ldebo\AppData\Local\Temp\cc9oeUFF.s:4258   .bss:00000000 $d
C:\Users\ldebo\AppData\Local\Temp\cc9oeUFF.s:4262   .bss:00000000 ModelCheckHasRun
C:\Users\ldebo\AppData\Local\Temp\cc9oeUFF.s:4271   .bss:0000004c heap_end.6584
C:\Users\ldebo\AppData\Local\Temp\cc9oeUFF.s:4280   .rodata.str1.4:00000000 $d

UNDEFINED SYMBOLS
memcpy
ARMaddrToGPUaddr
RPi_IO_Base_Addr
RPi_CpuId
RPi_CompileMode
RPi_CpuIdString
RPi_CoresReady
strlen
GPUaddrToARMaddr
_end
errno
ARM GAS  C:\Users\ldebo\AppData\Local\Temp\cc9oeUFF.s 			page 1


   1              		.arch armv8-a
   2              		.eabi_attribute 28, 1
   3              		.eabi_attribute 20, 1
   4              		.eabi_attribute 21, 1
   5              		.eabi_attribute 23, 3
   6              		.eabi_attribute 24, 1
   7              		.eabi_attribute 25, 1
   8              		.eabi_attribute 26, 1
   9              		.eabi_attribute 30, 2
  10              		.eabi_attribute 34, 0
  11              		.eabi_attribute 18, 4
  12              		.file	"emb-stdio.c"
  13              		.text
  14              		.align	2
  15              		.syntax unified
  16              		.arm
  17              		.fpu neon-vfpv4
  18              		.type	number, %function
  19              	number:
  20              		@ args = 8, pretend = 0, frame = 80
  21              		@ frame_needed = 0, uses_anonymous_args = 0
  22 0000 F04F2DE9 		push	{r4, r5, r6, r7, r8, r9, r10, fp, lr}
  23 0004 02C042E2 		sub	ip, r2, #2
  24 0008 54D04DE2 		sub	sp, sp, #84
  25 000c 7C809DE5 		ldr	r8, [sp, #124]
  26 0010 100018E3 		tst	r8, #16
  27 0014 209008E2 		and	r9, r8, #32
  28 0018 0180C813 		bicne	r8, r8, #1
  29 001c 0E005CE3 		cmp	ip, #14
  30 0020 6E00008A 		bhi	.L24
  31 0024 010018E3 		tst	r8, #1
  32 0028 20A0A003 		moveq	r10, #32
  33 002c 30A0A013 		movne	r10, #48
  34 0030 02B018E2 		ands	fp, r8, #2
  35 0034 0B00000A 		beq	.L5
  36 0038 000051E3 		cmp	r1, #0
  37 003c 001061B2 		rsblt	r1, r1, #0
  38 0040 013043B2 		sublt	r3, r3, #1
  39 0044 2DB0A0B3 		movlt	fp, #45
  40 0048 060000BA 		blt	.L5
  41 004c 040018E3 		tst	r8, #4
  42 0050 01304312 		subne	r3, r3, #1
  43 0054 2BB0A013 		movne	fp, #43
  44 0058 0200001A 		bne	.L5
  45 005c 08B018E2 		ands	fp, r8, #8
  46 0060 01304312 		subne	r3, r3, #1
  47 0064 20B0A013 		movne	fp, #32
  48              	.L5:
  49 0068 40C018E2 		ands	ip, r8, #64
  50 006c 04C08DE5 		str	ip, [sp, #4]
  51 0070 0400000A 		beq	.L8
  52 0074 100052E3 		cmp	r2, #16
  53 0078 02304302 		subeq	r3, r3, #2
  54 007c 0100000A 		beq	.L8
  55 0080 080052E3 		cmp	r2, #8
  56 0084 01304302 		subeq	r3, r3, #1
  57              	.L8:
ARM GAS  C:\Users\ldebo\AppData\Local\Temp\cc9oeUFF.s 			page 2


  58 0088 000051E3 		cmp	r1, #0
  59 008c 4300001A 		bne	.L10
  60 0090 0160A0E3 		mov	r6, #1
  61 0094 3010A0E3 		mov	r1, #48
  62 0098 06E0A0E1 		mov	lr, r6
  63 009c 0C10CDE5 		strb	r1, [sp, #12]
  64              	.L11:
  65 00a0 78109DE5 		ldr	r1, [sp, #120]
  66 00a4 010056E1 		cmp	r6, r1
  67 00a8 0610A0A1 		movge	r1, r6
  68 00ac 110018E3 		tst	r8, #17
  69 00b0 013043E0 		sub	r3, r3, r1
  70 00b4 0800001A 		bne	.L13
  71 00b8 000053E3 		cmp	r3, #0
  72 00bc 01C043E2 		sub	ip, r3, #1
  73 00c0 500000DA 		ble	.L29
  74 00c4 033080E0 		add	r3, r0, r3
  75 00c8 20C0A0E3 		mov	ip, #32
  76              	.L14:
  77 00cc 01C0C0E4 		strb	ip, [r0], #1
  78 00d0 000053E1 		cmp	r3, r0
  79 00d4 FCFFFF1A 		bne	.L14
  80 00d8 0030E0E3 		mvn	r3, #0
  81              	.L13:
  82 00dc 04C09DE5 		ldr	ip, [sp, #4]
  83 00e0 00005BE3 		cmp	fp, #0
  84 00e4 00B0C015 		strbne	fp, [r0]
  85 00e8 01008012 		addne	r0, r0, #1
  86 00ec 00005CE3 		cmp	ip, #0
  87 00f0 0600000A 		beq	.L16
  88 00f4 080052E3 		cmp	r2, #8
  89 00f8 3020A003 		moveq	r2, #48
  90 00fc 0020C005 		strbeq	r2, [r0]
  91 0100 01008002 		addeq	r0, r0, #1
  92 0104 0100000A 		beq	.L16
  93 0108 100052E3 		cmp	r2, #16
  94 010c 3600000A 		beq	.L50
  95              	.L16:
  96 0110 100018E3 		tst	r8, #16
  97 0114 0700001A 		bne	.L18
  98 0118 000053E3 		cmp	r3, #0
  99 011c 012043E2 		sub	r2, r3, #1
 100 0120 3A0000DA 		ble	.L30
 101 0124 033080E0 		add	r3, r0, r3
 102              	.L19:
 103 0128 01A0C0E4 		strb	r10, [r0], #1
 104 012c 000053E1 		cmp	r3, r0
 105 0130 FCFFFF1A 		bne	.L19
 106 0134 0030E0E3 		mvn	r3, #0
 107              	.L18:
 108 0138 010056E1 		cmp	r6, r1
 109 013c 050000AA 		bge	.L20
 110 0140 062041E0 		sub	r2, r1, r6
 111 0144 3010A0E3 		mov	r1, #48
 112 0148 022080E0 		add	r2, r0, r2
 113              	.L21:
 114 014c 0110C0E4 		strb	r1, [r0], #1
ARM GAS  C:\Users\ldebo\AppData\Local\Temp\cc9oeUFF.s 			page 3


 115 0150 000052E1 		cmp	r2, r0
 116 0154 FCFFFF1A 		bne	.L21
 117              	.L20:
 118 0158 0C508DE2 		add	r5, sp, #12
 119 015c 011040E2 		sub	r1, r0, #1
 120 0160 0E2085E0 		add	r2, r5, lr
 121              	.L22:
 122 0164 014072E5 		ldrb	r4, [r2, #-1]!	@ zero_extendqisi2
 123 0168 05C042E0 		sub	ip, r2, r5
 124 016c 0140E1E5 		strb	r4, [r1, #1]!
 125 0170 00005CE3 		cmp	ip, #0
 126 0174 FAFFFFCA 		bgt	.L22
 127 0178 000053E3 		cmp	r3, #0
 128 017c 0E0080E0 		add	r0, r0, lr
 129 0180 040000DA 		ble	.L1
 130 0184 033080E0 		add	r3, r0, r3
 131 0188 2020A0E3 		mov	r2, #32
 132              	.L23:
 133 018c 0120C0E4 		strb	r2, [r0], #1
 134 0190 000053E1 		cmp	r3, r0
 135 0194 FCFFFF1A 		bne	.L23
 136              	.L1:
 137 0198 54D08DE2 		add	sp, sp, #84
 138              		@ sp needed
 139 019c F08FBDE8 		pop	{r4, r5, r6, r7, r8, r9, r10, fp, pc}
 140              	.L10:
 141 01a0 007000E3 		movw	r7, #:lower16:.LANCHOR0
 142 01a4 007040E3 		movt	r7, #:upper16:.LANCHOR0
 143 01a8 0B508DE2 		add	r5, sp, #11
 144 01ac 0040A0E3 		mov	r4, #0
 145              	.L12:
 146 01b0 01C0A0E1 		mov	ip, r1
 147 01b4 01E084E2 		add	lr, r4, #1
 148 01b8 11F231E7 		udiv	r1, r1, r2
 149 01bc 0E40A0E1 		mov	r4, lr
 150 01c0 0E60A0E1 		mov	r6, lr
 151 01c4 92C16CE0 		mls	ip, r2, r1, ip
 152 01c8 000051E3 		cmp	r1, #0
 153 01cc 0CC0D7E7 		ldrb	ip, [r7, ip]	@ zero_extendqisi2
 154 01d0 0CC089E1 		orr	ip, r9, ip
 155 01d4 01C0E5E5 		strb	ip, [r5, #1]!
 156 01d8 F4FFFF1A 		bne	.L12
 157 01dc AFFFFFEA 		b	.L11
 158              	.L24:
 159 01e0 0000A0E3 		mov	r0, #0
 160 01e4 54D08DE2 		add	sp, sp, #84
 161              		@ sp needed
 162 01e8 F08FBDE8 		pop	{r4, r5, r6, r7, r8, r9, r10, fp, pc}
 163              	.L50:
 164 01ec 0020A0E1 		mov	r2, r0
 165 01f0 30C0A0E3 		mov	ip, #48
 166 01f4 589089E3 		orr	r9, r9, #88
 167 01f8 02C0C2E4 		strb	ip, [r2], #2
 168 01fc 0190C0E5 		strb	r9, [r0, #1]
 169 0200 0200A0E1 		mov	r0, r2
 170 0204 C1FFFFEA 		b	.L16
 171              	.L29:
ARM GAS  C:\Users\ldebo\AppData\Local\Temp\cc9oeUFF.s 			page 4


 172 0208 0C30A0E1 		mov	r3, ip
 173 020c B2FFFFEA 		b	.L13
 174              	.L30:
 175 0210 0230A0E1 		mov	r3, r2
 176 0214 C7FFFFEA 		b	.L18
 177              		.size	number, .-number
 178              		.align	2
 179              		.weak	strnlen
 180              		.syntax unified
 181              		.arm
 182              		.fpu neon-vfpv4
 183              		.type	strnlen, %function
 184              	strnlen:
 185              		@ args = 0, pretend = 0, frame = 0
 186              		@ frame_needed = 0, uses_anonymous_args = 0
 187              		@ link register save eliminated.
 188 0218 000051E3 		cmp	r1, #0
 189 021c 0B00000A 		beq	.L54
 190 0220 0030D0E5 		ldrb	r3, [r0]	@ zero_extendqisi2
 191 0224 000053E3 		cmp	r3, #0
 192 0228 0A00000A 		beq	.L55
 193 022c 0030A0E1 		mov	r3, r0
 194 0230 0000A0E3 		mov	r0, #0
 195              	.L53:
 196 0234 010080E2 		add	r0, r0, #1
 197 0238 000051E1 		cmp	r1, r0
 198 023c 1EFF2F01 		bxeq	lr
 199 0240 0120F3E5 		ldrb	r2, [r3, #1]!	@ zero_extendqisi2
 200 0244 000052E3 		cmp	r2, #0
 201 0248 F9FFFF1A 		bne	.L53
 202 024c 1EFF2FE1 		bx	lr
 203              	.L54:
 204 0250 0100A0E1 		mov	r0, r1
 205 0254 1EFF2FE1 		bx	lr
 206              	.L55:
 207 0258 0300A0E1 		mov	r0, r3
 208 025c 1EFF2FE1 		bx	lr
 209              		.size	strnlen, .-strnlen
 210              		.align	2
 211              		.global	emb_vsprintf
 212              		.syntax unified
 213              		.arm
 214              		.fpu neon-vfpv4
 215              		.type	emb_vsprintf, %function
 216              	emb_vsprintf:
 217              		@ args = 0, pretend = 0, frame = 8
 218              		@ frame_needed = 0, uses_anonymous_args = 0
 219 0260 F0472DE9 		push	{r4, r5, r6, r7, r8, r9, r10, lr}
 220 0264 0050A0E1 		mov	r5, r0
 221 0268 0000D1E5 		ldrb	r0, [r1]	@ zero_extendqisi2
 222 026c 10D04DE2 		sub	sp, sp, #16
 223 0270 000050E3 		cmp	r0, #0
 224 0274 1701000A 		beq	.L59
 225 0278 0140A0E1 		mov	r4, r1
 226 027c 0270A0E1 		mov	r7, r2
 227 0280 0580A0E1 		mov	r8, r5
 228 0284 0A90A0E3 		mov	r9, #10
ARM GAS  C:\Users\ldebo\AppData\Local\Temp\cc9oeUFF.s 			page 5


 229 0288 050000EA 		b	.L110
 230              	.L154:
 231 028c 0000C5E5 		strb	r0, [r5]
 232 0290 015085E2 		add	r5, r5, #1
 233 0294 0100D4E5 		ldrb	r0, [r4, #1]	@ zero_extendqisi2
 234              	.L62:
 235 0298 000050E3 		cmp	r0, #0
 236 029c 014084E2 		add	r4, r4, #1
 237 02a0 0B01000A 		beq	.L104
 238              	.L110:
 239 02a4 250050E3 		cmp	r0, #37
 240 02a8 00A0A003 		moveq	r10, #0
 241 02ac F6FFFF1A 		bne	.L154
 242              	.L61:
 243 02b0 0110D4E5 		ldrb	r1, [r4, #1]	@ zero_extendqisi2
 244 02b4 016084E2 		add	r6, r4, #1
 245 02b8 203041E2 		sub	r3, r1, #32
 246 02bc 100053E3 		cmp	r3, #16
 247 02c0 03F19F97 		ldrls	pc, [pc, r3, asl #2]
 248 02c4 1B0000EA 		b	.L63
 249              	.L65:
 250 02c8 30030000 		.word	.L64
 251 02cc 38030000 		.word	.L63
 252 02d0 38030000 		.word	.L63
 253 02d4 28030000 		.word	.L66
 254 02d8 38030000 		.word	.L63
 255 02dc 38030000 		.word	.L63
 256 02e0 38030000 		.word	.L63
 257 02e4 38030000 		.word	.L63
 258 02e8 38030000 		.word	.L63
 259 02ec 38030000 		.word	.L63
 260 02f0 38030000 		.word	.L63
 261 02f4 20030000 		.word	.L67
 262 02f8 38030000 		.word	.L63
 263 02fc 18030000 		.word	.L68
 264 0300 38030000 		.word	.L63
 265 0304 38030000 		.word	.L63
 266 0308 0C030000 		.word	.L69
 267              	.L69:
 268 030c 01A08AE3 		orr	r10, r10, #1
 269              	.L70:
 270 0310 0640A0E1 		mov	r4, r6
 271 0314 E5FFFFEA 		b	.L61
 272              	.L68:
 273 0318 10A08AE3 		orr	r10, r10, #16
 274 031c FBFFFFEA 		b	.L70
 275              	.L67:
 276 0320 04A08AE3 		orr	r10, r10, #4
 277 0324 F9FFFFEA 		b	.L70
 278              	.L66:
 279 0328 40A08AE3 		orr	r10, r10, #64
 280 032c F7FFFFEA 		b	.L70
 281              	.L64:
 282 0330 08A08AE3 		orr	r10, r10, #8
 283 0334 F5FFFFEA 		b	.L70
 284              	.L63:
 285 0338 303041E2 		sub	r3, r1, #48
ARM GAS  C:\Users\ldebo\AppData\Local\Temp\cc9oeUFF.s 			page 6


 286 033c 090053E3 		cmp	r3, #9
 287 0340 6500008A 		bhi	.L155
 288 0344 0030A0E3 		mov	r3, #0
 289              	.L112:
 290 0348 991323E0 		mla	r3, r9, r3, r1
 291 034c 0110F6E5 		ldrb	r1, [r6, #1]!	@ zero_extendqisi2
 292 0350 302041E2 		sub	r2, r1, #48
 293 0354 303043E2 		sub	r3, r3, #48
 294 0358 090052E3 		cmp	r2, #9
 295 035c F9FFFF9A 		bls	.L112
 296              	.L74:
 297 0360 2E0051E3 		cmp	r1, #46
 298 0364 00C0E013 		mvnne	ip, #0
 299 0368 6800000A 		beq	.L156
 300              	.L75:
 301 036c DF2001E2 		and	r2, r1, #223
 302 0370 680051E3 		cmp	r1, #104
 303 0374 4C005213 		cmpne	r2, #76
 304 0378 7300000A 		beq	.L157
 305 037c 251041E2 		sub	r1, r1, #37
 306 0380 530051E3 		cmp	r1, #83
 307 0384 01F19F97 		ldrls	pc, [pc, r1, asl #2]
 308 0388 CB0000EA 		b	.L79
 309              	.L116:
 310 038c 40080000 		.word	.L80
 311 0390 BC060000 		.word	.L79
 312 0394 BC060000 		.word	.L79
 313 0398 BC060000 		.word	.L79
 314 039c BC060000 		.word	.L79
 315 03a0 BC060000 		.word	.L79
 316 03a4 BC060000 		.word	.L79
 317 03a8 BC060000 		.word	.L79
 318 03ac BC060000 		.word	.L79
 319 03b0 BC060000 		.word	.L79
 320 03b4 BC060000 		.word	.L79
 321 03b8 BC060000 		.word	.L79
 322 03bc BC060000 		.word	.L79
 323 03c0 BC060000 		.word	.L79
 324 03c4 BC060000 		.word	.L79
 325 03c8 BC060000 		.word	.L79
 326 03cc BC060000 		.word	.L79
 327 03d0 BC060000 		.word	.L79
 328 03d4 BC060000 		.word	.L79
 329 03d8 BC060000 		.word	.L79
 330 03dc BC060000 		.word	.L79
 331 03e0 BC060000 		.word	.L79
 332 03e4 BC060000 		.word	.L79
 333 03e8 BC060000 		.word	.L79
 334 03ec BC060000 		.word	.L79
 335 03f0 BC060000 		.word	.L79
 336 03f4 BC060000 		.word	.L79
 337 03f8 BC060000 		.word	.L79
 338 03fc BC060000 		.word	.L79
 339 0400 BC060000 		.word	.L79
 340 0404 BC060000 		.word	.L79
 341 0408 BC060000 		.word	.L79
 342 040c BC060000 		.word	.L79
ARM GAS  C:\Users\ldebo\AppData\Local\Temp\cc9oeUFF.s 			page 7


 343 0410 BC060000 		.word	.L79
 344 0414 BC060000 		.word	.L79
 345 0418 BC060000 		.word	.L79
 346 041c BC060000 		.word	.L79
 347 0420 BC060000 		.word	.L79
 348 0424 BC060000 		.word	.L79
 349 0428 BC060000 		.word	.L79
 350 042c BC060000 		.word	.L79
 351 0430 BC060000 		.word	.L79
 352 0434 BC060000 		.word	.L79
 353 0438 BC060000 		.word	.L79
 354 043c BC060000 		.word	.L79
 355 0440 BC060000 		.word	.L79
 356 0444 BC060000 		.word	.L79
 357 0448 BC060000 		.word	.L79
 358 044c BC060000 		.word	.L79
 359 0450 BC060000 		.word	.L79
 360 0454 BC060000 		.word	.L79
 361 0458 A4080000 		.word	.L131
 362 045c BC060000 		.word	.L79
 363 0460 BC060000 		.word	.L79
 364 0464 BC060000 		.word	.L79
 365 0468 BC060000 		.word	.L79
 366 046c BC060000 		.word	.L79
 367 0470 BC060000 		.word	.L79
 368 0474 BC060000 		.word	.L79
 369 0478 BC060000 		.word	.L79
 370 047c BC060000 		.word	.L79
 371 0480 BC060000 		.word	.L79
 372 0484 D4070000 		.word	.L83
 373 0488 58080000 		.word	.L132
 374 048c BC060000 		.word	.L79
 375 0490 BC060000 		.word	.L79
 376 0494 BC060000 		.word	.L79
 377 0498 BC060000 		.word	.L79
 378 049c 58080000 		.word	.L132
 379 04a0 BC060000 		.word	.L79
 380 04a4 BC060000 		.word	.L79
 381 04a8 BC060000 		.word	.L79
 382 04ac BC060000 		.word	.L79
 383 04b0 DC080000 		.word	.L102
 384 04b4 B4080000 		.word	.L133
 385 04b8 98070000 		.word	.L87
 386 04bc BC060000 		.word	.L79
 387 04c0 BC060000 		.word	.L79
 388 04c4 00070000 		.word	.L88
 389 04c8 BC060000 		.word	.L79
 390 04cc C0080000 		.word	.L134
 391 04d0 BC060000 		.word	.L79
 392 04d4 BC060000 		.word	.L79
 393 04d8 CC080000 		.word	.L135
 394              	.L155:
 395 04dc 2A0051E3 		cmp	r1, #42
 396 04e0 0030E013 		mvnne	r3, #0
 397 04e4 9DFFFF1A 		bne	.L74
 398 04e8 003097E5 		ldr	r3, [r7]
 399 04ec 026084E2 		add	r6, r4, #2
ARM GAS  C:\Users\ldebo\AppData\Local\Temp\cc9oeUFF.s 			page 8


 400 04f0 0210D4E5 		ldrb	r1, [r4, #2]	@ zero_extendqisi2
 401 04f4 047087E2 		add	r7, r7, #4
 402 04f8 000053E3 		cmp	r3, #0
 403 04fc 003063B2 		rsblt	r3, r3, #0
 404 0500 10A08AB3 		orrlt	r10, r10, #16
 405 0504 2E0051E3 		cmp	r1, #46
 406 0508 00C0E013 		mvnne	ip, #0
 407 050c 96FFFF1A 		bne	.L75
 408              	.L156:
 409 0510 0110D6E5 		ldrb	r1, [r6, #1]	@ zero_extendqisi2
 410 0514 012086E2 		add	r2, r6, #1
 411 0518 300041E2 		sub	r0, r1, #48
 412 051c 090050E3 		cmp	r0, #9
 413 0520 7000008A 		bhi	.L158
 414 0524 00C0A0E3 		mov	ip, #0
 415              	.L114:
 416 0528 991C2CE0 		mla	ip, r9, ip, r1
 417 052c 0110D2E5 		ldrb	r1, [r2, #1]	@ zero_extendqisi2
 418 0530 016082E2 		add	r6, r2, #1
 419 0534 302041E2 		sub	r2, r1, #48
 420 0538 30C04CE2 		sub	ip, ip, #48
 421 053c 090052E3 		cmp	r2, #9
 422 0540 0620A0E1 		mov	r2, r6
 423 0544 F7FFFF9A 		bls	.L114
 424 0548 87FFFFEA 		b	.L75
 425              	.L157:
 426 054c 0120D6E5 		ldrb	r2, [r6, #1]	@ zero_extendqisi2
 427 0550 0100A0E1 		mov	r0, r1
 428 0554 014086E2 		add	r4, r6, #1
 429 0558 252042E2 		sub	r2, r2, #37
 430 055c 530052E3 		cmp	r2, #83
 431 0560 02F19F97 		ldrls	pc, [pc, r2, asl #2]
 432 0564 530000EA 		b	.L119
 433              	.L81:
 434 0568 3C080000 		.word	.L120
 435 056c B8060000 		.word	.L119
 436 0570 B8060000 		.word	.L119
 437 0574 B8060000 		.word	.L119
 438 0578 B8060000 		.word	.L119
 439 057c B8060000 		.word	.L119
 440 0580 B8060000 		.word	.L119
 441 0584 B8060000 		.word	.L119
 442 0588 B8060000 		.word	.L119
 443 058c B8060000 		.word	.L119
 444 0590 B8060000 		.word	.L119
 445 0594 B8060000 		.word	.L119
 446 0598 B8060000 		.word	.L119
 447 059c B8060000 		.word	.L119
 448 05a0 B8060000 		.word	.L119
 449 05a4 B8060000 		.word	.L119
 450 05a8 B8060000 		.word	.L119
 451 05ac B8060000 		.word	.L119
 452 05b0 B8060000 		.word	.L119
 453 05b4 B8060000 		.word	.L119
 454 05b8 B8060000 		.word	.L119
 455 05bc B8060000 		.word	.L119
 456 05c0 B8060000 		.word	.L119
ARM GAS  C:\Users\ldebo\AppData\Local\Temp\cc9oeUFF.s 			page 9


 457 05c4 B8060000 		.word	.L119
 458 05c8 B8060000 		.word	.L119
 459 05cc B8060000 		.word	.L119
 460 05d0 B8060000 		.word	.L119
 461 05d4 B8060000 		.word	.L119
 462 05d8 B8060000 		.word	.L119
 463 05dc B8060000 		.word	.L119
 464 05e0 B8060000 		.word	.L119
 465 05e4 B8060000 		.word	.L119
 466 05e8 B8060000 		.word	.L119
 467 05ec B8060000 		.word	.L119
 468 05f0 B8060000 		.word	.L119
 469 05f4 B8060000 		.word	.L119
 470 05f8 B8060000 		.word	.L119
 471 05fc B8060000 		.word	.L119
 472 0600 B8060000 		.word	.L119
 473 0604 B8060000 		.word	.L119
 474 0608 B8060000 		.word	.L119
 475 060c B8060000 		.word	.L119
 476 0610 B8060000 		.word	.L119
 477 0614 B8060000 		.word	.L119
 478 0618 B8060000 		.word	.L119
 479 061c B8060000 		.word	.L119
 480 0620 B8060000 		.word	.L119
 481 0624 B8060000 		.word	.L119
 482 0628 B8060000 		.word	.L119
 483 062c B8060000 		.word	.L119
 484 0630 B8060000 		.word	.L119
 485 0634 F8080000 		.word	.L121
 486 0638 B8060000 		.word	.L119
 487 063c B8060000 		.word	.L119
 488 0640 B8060000 		.word	.L119
 489 0644 B8060000 		.word	.L119
 490 0648 B8060000 		.word	.L119
 491 064c B8060000 		.word	.L119
 492 0650 B8060000 		.word	.L119
 493 0654 B8060000 		.word	.L119
 494 0658 B8060000 		.word	.L119
 495 065c B8060000 		.word	.L119
 496 0660 D0070000 		.word	.L122
 497 0664 08090000 		.word	.L123
 498 0668 B8060000 		.word	.L119
 499 066c B8060000 		.word	.L119
 500 0670 B8060000 		.word	.L119
 501 0674 B8060000 		.word	.L119
 502 0678 08090000 		.word	.L123
 503 067c B8060000 		.word	.L119
 504 0680 B8060000 		.word	.L119
 505 0684 B8060000 		.word	.L119
 506 0688 B8060000 		.word	.L119
 507 068c 20090000 		.word	.L85
 508 0690 10090000 		.word	.L124
 509 0694 94070000 		.word	.L125
 510 0698 B8060000 		.word	.L119
 511 069c B8060000 		.word	.L119
 512 06a0 FC060000 		.word	.L126
 513 06a4 B8060000 		.word	.L119
ARM GAS  C:\Users\ldebo\AppData\Local\Temp\cc9oeUFF.s 			page 10


 514 06a8 18090000 		.word	.L89
 515 06ac B8060000 		.word	.L119
 516 06b0 B8060000 		.word	.L119
 517 06b4 00090000 		.word	.L127
 518              	.L119:
 519 06b8 0460A0E1 		mov	r6, r4
 520              	.L79:
 521 06bc 2530A0E3 		mov	r3, #37
 522 06c0 0030C5E5 		strb	r3, [r5]
 523 06c4 0030D6E5 		ldrb	r3, [r6]	@ zero_extendqisi2
 524 06c8 000053E3 		cmp	r3, #0
 525 06cc 9B00001A 		bne	.L159
 526 06d0 015085E2 		add	r5, r5, #1
 527              	.L104:
 528 06d4 080045E0 		sub	r0, r5, r8
 529              	.L59:
 530 06d8 0030A0E3 		mov	r3, #0
 531 06dc 0030C5E5 		strb	r3, [r5]
 532 06e0 10D08DE2 		add	sp, sp, #16
 533              		@ sp needed
 534 06e4 F087BDE8 		pop	{r4, r5, r6, r7, r8, r9, r10, pc}
 535              	.L158:
 536 06e8 2A0051E3 		cmp	r1, #42
 537 06ec 9F00000A 		beq	.L113
 538 06f0 0260A0E1 		mov	r6, r2
 539 06f4 00C0A0E3 		mov	ip, #0
 540 06f8 1BFFFFEA 		b	.L75
 541              	.L126:
 542 06fc 0460A0E1 		mov	r6, r4
 543              	.L88:
 544 0700 004097E5 		ldr	r4, [r7]
 545 0704 0C10A0E1 		mov	r1, ip
 546 0708 0C308DE5 		str	r3, [sp, #12]
 547 070c 047087E2 		add	r7, r7, #4
 548 0710 0400A0E1 		mov	r0, r4
 549 0714 FEFFFFEB 		bl	strnlen
 550 0718 10001AE3 		tst	r10, #16
 551 071c 0C309DE5 		ldr	r3, [sp, #12]
 552 0720 0900001A 		bne	.L95
 553 0724 000053E1 		cmp	r3, r0
 554 0728 012043E2 		sub	r2, r3, #1
 555 072c 950000DA 		ble	.L129
 556 0730 003043E0 		sub	r3, r3, r0
 557 0734 2020A0E3 		mov	r2, #32
 558 0738 033085E0 		add	r3, r5, r3
 559              	.L96:
 560 073c 0120C5E4 		strb	r2, [r5], #1
 561 0740 030055E1 		cmp	r5, r3
 562 0744 FCFFFF1A 		bne	.L96
 563 0748 013040E2 		sub	r3, r0, #1
 564              	.L95:
 565 074c 000050E3 		cmp	r0, #0
 566 0750 060000DA 		ble	.L97
 567 0754 012045E2 		sub	r2, r5, #1
 568 0758 00C084E0 		add	ip, r4, r0
 569              	.L98:
 570 075c 0110D4E4 		ldrb	r1, [r4], #1	@ zero_extendqisi2
ARM GAS  C:\Users\ldebo\AppData\Local\Temp\cc9oeUFF.s 			page 11


 571 0760 0C0054E1 		cmp	r4, ip
 572 0764 0110E2E5 		strb	r1, [r2, #1]!
 573 0768 FBFFFF1A 		bne	.L98
 574 076c 005085E0 		add	r5, r5, r0
 575              	.L97:
 576 0770 000053E1 		cmp	r3, r0
 577 0774 120000DA 		ble	.L151
 578 0778 003043E0 		sub	r3, r3, r0
 579 077c 2020A0E3 		mov	r2, #32
 580 0780 033085E0 		add	r3, r5, r3
 581              	.L100:
 582 0784 0120C5E4 		strb	r2, [r5], #1
 583 0788 030055E1 		cmp	r5, r3
 584 078c FCFFFF1A 		bne	.L100
 585 0790 0B0000EA 		b	.L151
 586              	.L125:
 587 0794 0460A0E1 		mov	r6, r4
 588              	.L87:
 589 0798 010073E3 		cmn	r3, #1
 590 079c 001097E5 		ldr	r1, [r7]
 591 07a0 01A08A03 		orreq	r10, r10, #1
 592 07a4 0500A0E1 		mov	r0, r5
 593 07a8 0830A003 		moveq	r3, #8
 594 07ac 04A08DE5 		str	r10, [sp, #4]
 595 07b0 00C08DE5 		str	ip, [sp]
 596 07b4 1020A0E3 		mov	r2, #16
 597 07b8 10FEFFEB 		bl	number
 598 07bc 047087E2 		add	r7, r7, #4
 599 07c0 0050A0E1 		mov	r5, r0
 600              	.L151:
 601 07c4 0100D6E5 		ldrb	r0, [r6, #1]	@ zero_extendqisi2
 602 07c8 0640A0E1 		mov	r4, r6
 603 07cc B1FEFFEA 		b	.L62
 604              	.L122:
 605 07d0 0460A0E1 		mov	r6, r4
 606              	.L83:
 607 07d4 10001AE3 		tst	r10, #16
 608 07d8 0800001A 		bne	.L91
 609 07dc 013043E2 		sub	r3, r3, #1
 610 07e0 000053E3 		cmp	r3, #0
 611 07e4 050000DA 		ble	.L91
 612 07e8 033085E0 		add	r3, r5, r3
 613 07ec 2020A0E3 		mov	r2, #32
 614              	.L92:
 615 07f0 0120C5E4 		strb	r2, [r5], #1
 616 07f4 030055E1 		cmp	r5, r3
 617 07f8 FCFFFF1A 		bne	.L92
 618 07fc 0030A0E3 		mov	r3, #0
 619              	.L91:
 620 0800 010053E3 		cmp	r3, #1
 621 0804 001097E5 		ldr	r1, [r7]
 622 0808 012085E2 		add	r2, r5, #1
 623 080c 047087E2 		add	r7, r7, #4
 624 0810 0010C5E5 		strb	r1, [r5]
 625 0814 040000DA 		ble	.L149
 626 0818 033085E0 		add	r3, r5, r3
 627 081c 2010A0E3 		mov	r1, #32
ARM GAS  C:\Users\ldebo\AppData\Local\Temp\cc9oeUFF.s 			page 12


 628              	.L94:
 629 0820 0110C2E4 		strb	r1, [r2], #1
 630 0824 030052E1 		cmp	r2, r3
 631 0828 FCFFFF1A 		bne	.L94
 632              	.L149:
 633 082c 0250A0E1 		mov	r5, r2
 634 0830 0100D6E5 		ldrb	r0, [r6, #1]	@ zero_extendqisi2
 635 0834 0640A0E1 		mov	r4, r6
 636 0838 96FEFFEA 		b	.L62
 637              	.L120:
 638 083c 0460A0E1 		mov	r6, r4
 639              	.L80:
 640 0840 2530A0E3 		mov	r3, #37
 641 0844 0640A0E1 		mov	r4, r6
 642 0848 0030C5E5 		strb	r3, [r5]
 643 084c 015085E2 		add	r5, r5, #1
 644 0850 0100D6E5 		ldrb	r0, [r6, #1]	@ zero_extendqisi2
 645 0854 8FFEFFEA 		b	.L62
 646              	.L132:
 647 0858 0000E0E3 		mvn	r0, #0
 648              	.L84:
 649 085c 02A08AE3 		orr	r10, r10, #2
 650 0860 0640A0E1 		mov	r4, r6
 651 0864 0A20A0E3 		mov	r2, #10
 652              	.L86:
 653 0868 6C0050E3 		cmp	r0, #108
 654 086c 00109705 		ldreq	r1, [r7]
 655 0870 04708702 		addeq	r7, r7, #4
 656 0874 0300000A 		beq	.L106
 657 0878 680050E3 		cmp	r0, #104
 658 087c 3400000A 		beq	.L160
 659              	.L107:
 660 0880 001097E5 		ldr	r1, [r7]
 661 0884 047087E2 		add	r7, r7, #4
 662              	.L106:
 663 0888 0500A0E1 		mov	r0, r5
 664 088c 04A08DE5 		str	r10, [sp, #4]
 665 0890 00C08DE5 		str	ip, [sp]
 666 0894 D9FDFFEB 		bl	number
 667 0898 0050A0E1 		mov	r5, r0
 668 089c 0100D4E5 		ldrb	r0, [r4, #1]	@ zero_extendqisi2
 669 08a0 7CFEFFEA 		b	.L62
 670              	.L131:
 671 08a4 0000E0E3 		mvn	r0, #0
 672              	.L148:
 673 08a8 0640A0E1 		mov	r4, r6
 674 08ac 1020A0E3 		mov	r2, #16
 675 08b0 ECFFFFEA 		b	.L86
 676              	.L133:
 677 08b4 0640A0E1 		mov	r4, r6
 678 08b8 0820A0E3 		mov	r2, #8
 679 08bc EFFFFFEA 		b	.L107
 680              	.L134:
 681 08c0 0640A0E1 		mov	r4, r6
 682 08c4 0A20A0E3 		mov	r2, #10
 683 08c8 ECFFFFEA 		b	.L107
 684              	.L135:
ARM GAS  C:\Users\ldebo\AppData\Local\Temp\cc9oeUFF.s 			page 13


 685 08cc 0000E0E3 		mvn	r0, #0
 686              	.L90:
 687 08d0 20A08AE3 		orr	r10, r10, #32
 688 08d4 F3FFFFEA 		b	.L148
 689              	.L130:
 690 08d8 0460A0E1 		mov	r6, r4
 691              	.L102:
 692 08dc 003097E5 		ldr	r3, [r7]
 693 08e0 082045E0 		sub	r2, r5, r8
 694 08e4 047087E2 		add	r7, r7, #4
 695 08e8 0640A0E1 		mov	r4, r6
 696 08ec 002083E5 		str	r2, [r3]
 697 08f0 0100D6E5 		ldrb	r0, [r6, #1]	@ zero_extendqisi2
 698 08f4 67FEFFEA 		b	.L62
 699              	.L121:
 700 08f8 0460A0E1 		mov	r6, r4
 701 08fc E9FFFFEA 		b	.L148
 702              	.L127:
 703 0900 0460A0E1 		mov	r6, r4
 704 0904 F1FFFFEA 		b	.L90
 705              	.L123:
 706 0908 0460A0E1 		mov	r6, r4
 707 090c D2FFFFEA 		b	.L84
 708              	.L124:
 709 0910 0820A0E3 		mov	r2, #8
 710 0914 D3FFFFEA 		b	.L86
 711              	.L89:
 712 0918 0A20A0E3 		mov	r2, #10
 713 091c D1FFFFEA 		b	.L86
 714              	.L85:
 715 0920 6C0051E3 		cmp	r1, #108
 716 0924 EBFFFF1A 		bne	.L130
 717 0928 003097E5 		ldr	r3, [r7]
 718 092c 082045E0 		sub	r2, r5, r8
 719 0930 047087E2 		add	r7, r7, #4
 720 0934 002083E5 		str	r2, [r3]
 721 0938 0200D6E5 		ldrb	r0, [r6, #2]	@ zero_extendqisi2
 722 093c 55FEFFEA 		b	.L62
 723              	.L159:
 724 0940 0130C5E5 		strb	r3, [r5, #1]
 725 0944 0640A0E1 		mov	r4, r6
 726 0948 025085E2 		add	r5, r5, #2
 727 094c 0100D6E5 		ldrb	r0, [r6, #1]	@ zero_extendqisi2
 728 0950 50FEFFEA 		b	.L62
 729              	.L160:
 730 0954 001097E5 		ldr	r1, [r7]
 731 0958 02001AE3 		tst	r10, #2
 732 095c 040087E2 		add	r0, r7, #4
 733 0960 0070A0E1 		mov	r7, r0
 734 0964 7110FF06 		uxtheq	r1, r1
 735 0968 7110BF16 		sxthne	r1, r1
 736 096c C5FFFFEA 		b	.L106
 737              	.L113:
 738 0970 00C097E5 		ldr	ip, [r7]
 739 0974 026086E2 		add	r6, r6, #2
 740 0978 0010D6E5 		ldrb	r1, [r6]	@ zero_extendqisi2
 741 097c 047087E2 		add	r7, r7, #4
ARM GAS  C:\Users\ldebo\AppData\Local\Temp\cc9oeUFF.s 			page 14


 742 0980 CCCFCCE1 		bic	ip, ip, ip, asr #31
 743 0984 78FEFFEA 		b	.L75
 744              	.L129:
 745 0988 0230A0E1 		mov	r3, r2
 746 098c 6EFFFFEA 		b	.L95
 747              		.size	emb_vsprintf, .-emb_vsprintf
 748              		.align	2
 749              		.global	vsscanf
 750              		.syntax unified
 751              		.arm
 752              		.fpu neon-vfpv4
 753              		.type	vsscanf, %function
 754              	vsscanf:
 755              		@ args = 0, pretend = 0, frame = 1320
 756              		@ frame_needed = 0, uses_anonymous_args = 0
 757 0990 F04F2DE9 		push	{r4, r5, r6, r7, r8, r9, r10, fp, lr}
 758 0994 000050E3 		cmp	r0, #0
 759 0998 00005113 		cmpne	r1, #0
 760 099c 0130A003 		moveq	r3, #1
 761 09a0 52DE4DE2 		sub	sp, sp, #1312
 762 09a4 0030A003 		moveq	r3, #0
 763 09a8 0CD04DE2 		sub	sp, sp, #12
 764 09ac 0030A013 		movne	r3, #0
 765 09b0 04308D05 		streq	r3, [sp, #4]
 766 09b4 2100000A 		beq	.L161
 767 09b8 18308DE5 		str	r3, [sp, #24]
 768 09bc 0140A0E1 		mov	r4, r1
 769 09c0 1C308DE5 		str	r3, [sp, #28]
 770 09c4 0050A0E1 		mov	r5, r0
 771 09c8 14308DE5 		str	r3, [sp, #20]
 772 09cc 04308DE5 		str	r3, [sp, #4]
 773 09d0 24308DE2 		add	r3, sp, #36
 774 09d4 0C308DE5 		str	r3, [sp, #12]
 775 09d8 0A30A0E3 		mov	r3, #10
 776 09dc 08208DE5 		str	r2, [sp, #8]
 777 09e0 10308DE5 		str	r3, [sp, #16]
 778              	.L163:
 779 09e4 0030D5E5 		ldrb	r3, [r5]	@ zero_extendqisi2
 780 09e8 000053E3 		cmp	r3, #0
 781 09ec 1300000A 		beq	.L161
 782              	.L333:
 783 09f0 0030D4E5 		ldrb	r3, [r4]	@ zero_extendqisi2
 784 09f4 000053E3 		cmp	r3, #0
 785 09f8 1000000A 		beq	.L161
 786              	.L164:
 787 09fc FEFFFFEB 		bl	__locale_ctype_ptr
 788 0a00 0460A0E1 		mov	r6, r4
 789 0a04 0130D4E4 		ldrb	r3, [r4], #1	@ zero_extendqisi2
 790 0a08 030080E0 		add	r0, r0, r3
 791 0a0c 0120D0E5 		ldrb	r2, [r0, #1]	@ zero_extendqisi2
 792 0a10 080012E3 		tst	r2, #8
 793 0a14 F8FFFF1A 		bne	.L164
 794 0a18 250053E3 		cmp	r3, #37
 795 0a1c 0B00000A 		beq	.L332
 796 0a20 0020D5E5 		ldrb	r2, [r5]	@ zero_extendqisi2
 797 0a24 030052E1 		cmp	r2, r3
 798 0a28 0400001A 		bne	.L161
ARM GAS  C:\Users\ldebo\AppData\Local\Temp\cc9oeUFF.s 			page 15


 799 0a2c 015085E2 		add	r5, r5, #1
 800 0a30 0030D5E5 		ldrb	r3, [r5]	@ zero_extendqisi2
 801 0a34 014086E2 		add	r4, r6, #1
 802 0a38 000053E3 		cmp	r3, #0
 803 0a3c EBFFFF1A 		bne	.L333
 804              	.L161:
 805 0a40 04009DE5 		ldr	r0, [sp, #4]
 806 0a44 52DE8DE2 		add	sp, sp, #1312
 807 0a48 0CD08DE2 		add	sp, sp, #12
 808              		@ sp needed
 809 0a4c F08FBDE8 		pop	{r4, r5, r6, r7, r8, r9, r10, fp, pc}
 810              	.L332:
 811 0a50 0130D6E5 		ldrb	r3, [r6, #1]	@ zero_extendqisi2
 812 0a54 0490A0E1 		mov	r9, r4
 813 0a58 2A0053E3 		cmp	r3, #42
 814 0a5c 0130A003 		moveq	r3, #1
 815 0a60 01508502 		addeq	r5, r5, #1
 816 0a64 14308D05 		streq	r3, [sp, #20]
 817 0a68 FEFFFFEB 		bl	__locale_ctype_ptr
 818 0a6c 0180D6E5 		ldrb	r8, [r6, #1]	@ zero_extendqisi2
 819 0a70 080080E0 		add	r0, r0, r8
 820 0a74 0130D0E5 		ldrb	r3, [r0, #1]	@ zero_extendqisi2
 821 0a78 040013E3 		tst	r3, #4
 822 0a7c 0480A011 		movne	r8, r4
 823 0a80 1100001A 		bne	.L168
 824 0a84 FB3008E2 		and	r3, r8, #251
 825 0a88 017CA0E3 		mov	r7, #256
 826 0a8c 680053E3 		cmp	r3, #104
 827 0a90 2800000A 		beq	.L169
 828              	.L334:
 829 0a94 740058E3 		cmp	r8, #116
 830 0a98 4C005813 		cmpne	r8, #76
 831 0a9c EF2008E2 		and	r2, r8, #239
 832 0aa0 0130A003 		moveq	r3, #1
 833 0aa4 0030A013 		movne	r3, #0
 834 0aa8 6A0052E3 		cmp	r2, #106
 835 0aac 01308303 		orreq	r3, r3, #1
 836 0ab0 000053E3 		cmp	r3, #0
 837 0ab4 01A0D915 		ldrbne	r10, [r9, #1]	@ zero_extendqisi2
 838 0ab8 2400001A 		bne	.L171
 839 0abc 08A0A0E1 		mov	r10, r8
 840 0ac0 0380A0E1 		mov	r8, r3
 841 0ac4 220000EA 		b	.L170
 842              	.L266:
 843 0ac8 0280A0E1 		mov	r8, r2
 844              	.L168:
 845 0acc FEFFFFEB 		bl	__locale_ctype_ptr
 846 0ad0 0030D8E5 		ldrb	r3, [r8]	@ zero_extendqisi2
 847 0ad4 012088E2 		add	r2, r8, #1
 848 0ad8 030080E0 		add	r0, r0, r3
 849 0adc 0130D0E5 		ldrb	r3, [r0, #1]	@ zero_extendqisi2
 850 0ae0 043013E2 		ands	r3, r3, #4
 851 0ae4 F7FFFF1A 		bne	.L266
 852 0ae8 047048E0 		sub	r7, r8, r4
 853 0aec 0410A0E1 		mov	r1, r4
 854 0af0 0720A0E1 		mov	r2, r7
 855 0af4 28008DE2 		add	r0, sp, #40
ARM GAS  C:\Users\ldebo\AppData\Local\Temp\cc9oeUFF.s 			page 16


 856 0af8 0360A0E1 		mov	r6, r3
 857 0afc FEFFFFEB 		bl	strncpy
 858 0b00 523E8DE2 		add	r3, sp, #1312
 859 0b04 0400A0E1 		mov	r0, r4
 860 0b08 083083E2 		add	r3, r3, #8
 861 0b0c 0A20A0E3 		mov	r2, #10
 862 0b10 077083E0 		add	r7, r3, r7
 863 0b14 0C109DE5 		ldr	r1, [sp, #12]
 864 0b18 0890A0E1 		mov	r9, r8
 865 0b1c 006547E5 		strb	r6, [r7, #-1280]
 866 0b20 FEFFFFEB 		bl	strtol
 867 0b24 0080D8E5 		ldrb	r8, [r8]	@ zero_extendqisi2
 868 0b28 0070A0E1 		mov	r7, r0
 869 0b2c FB3008E2 		and	r3, r8, #251
 870 0b30 680053E3 		cmp	r3, #104
 871 0b34 D6FFFF1A 		bne	.L334
 872              	.L169:
 873 0b38 01A0D9E5 		ldrb	r10, [r9, #1]	@ zero_extendqisi2
 874 0b3c 08005AE1 		cmp	r10, r8
 875 0b40 0130A003 		moveq	r3, #1
 876 0b44 18308D05 		streq	r3, [sp, #24]
 877 0b48 02A0D905 		ldrbeq	r10, [r9, #2]	@ zero_extendqisi2
 878 0b4c 03908900 		addeq	r9, r9, r3
 879              	.L171:
 880 0b50 019089E2 		add	r9, r9, #1
 881              	.L170:
 882 0b54 014089E2 		add	r4, r9, #1
 883 0b58 78005AE3 		cmp	r10, #120
 884 0b5c 0AF19F97 		ldrls	pc, [pc, r10, asl #2]
 885 0b60 470200EA 		b	.L268
 886              	.L173:
 887 0b64 400A0000 		.word	.L161
 888 0b68 84140000 		.word	.L268
 889 0b6c 84140000 		.word	.L268
 890 0b70 84140000 		.word	.L268
 891 0b74 84140000 		.word	.L268
 892 0b78 84140000 		.word	.L268
 893 0b7c 84140000 		.word	.L268
 894 0b80 84140000 		.word	.L268
 895 0b84 84140000 		.word	.L268
 896 0b88 84140000 		.word	.L268
 897 0b8c 84140000 		.word	.L268
 898 0b90 84140000 		.word	.L268
 899 0b94 84140000 		.word	.L268
 900 0b98 84140000 		.word	.L268
 901 0b9c 84140000 		.word	.L268
 902 0ba0 84140000 		.word	.L268
 903 0ba4 84140000 		.word	.L268
 904 0ba8 84140000 		.word	.L268
 905 0bac 84140000 		.word	.L268
 906 0bb0 84140000 		.word	.L268
 907 0bb4 84140000 		.word	.L268
 908 0bb8 84140000 		.word	.L268
 909 0bbc 84140000 		.word	.L268
 910 0bc0 84140000 		.word	.L268
 911 0bc4 84140000 		.word	.L268
 912 0bc8 84140000 		.word	.L268
ARM GAS  C:\Users\ldebo\AppData\Local\Temp\cc9oeUFF.s 			page 17


 913 0bcc 84140000 		.word	.L268
 914 0bd0 84140000 		.word	.L268
 915 0bd4 84140000 		.word	.L268
 916 0bd8 84140000 		.word	.L268
 917 0bdc 84140000 		.word	.L268
 918 0be0 84140000 		.word	.L268
 919 0be4 84140000 		.word	.L268
 920 0be8 84140000 		.word	.L268
 921 0bec 84140000 		.word	.L268
 922 0bf0 84140000 		.word	.L268
 923 0bf4 84140000 		.word	.L268
 924 0bf8 84140000 		.word	.L268
 925 0bfc 84140000 		.word	.L268
 926 0c00 84140000 		.word	.L268
 927 0c04 84140000 		.word	.L268
 928 0c08 84140000 		.word	.L268
 929 0c0c 84140000 		.word	.L268
 930 0c10 84140000 		.word	.L268
 931 0c14 84140000 		.word	.L268
 932 0c18 84140000 		.word	.L268
 933 0c1c 84140000 		.word	.L268
 934 0c20 84140000 		.word	.L268
 935 0c24 84140000 		.word	.L268
 936 0c28 84140000 		.word	.L268
 937 0c2c 84140000 		.word	.L268
 938 0c30 84140000 		.word	.L268
 939 0c34 84140000 		.word	.L268
 940 0c38 84140000 		.word	.L268
 941 0c3c 84140000 		.word	.L268
 942 0c40 84140000 		.word	.L268
 943 0c44 84140000 		.word	.L268
 944 0c48 84140000 		.word	.L268
 945 0c4c 84140000 		.word	.L268
 946 0c50 84140000 		.word	.L268
 947 0c54 84140000 		.word	.L268
 948 0c58 84140000 		.word	.L268
 949 0c5c 84140000 		.word	.L268
 950 0c60 84140000 		.word	.L268
 951 0c64 84140000 		.word	.L268
 952 0c68 E40E0000 		.word	.L182
 953 0c6c 84140000 		.word	.L268
 954 0c70 84140000 		.word	.L268
 955 0c74 84140000 		.word	.L268
 956 0c78 E40E0000 		.word	.L182
 957 0c7c E40E0000 		.word	.L182
 958 0c80 E40E0000 		.word	.L182
 959 0c84 84140000 		.word	.L268
 960 0c88 84140000 		.word	.L268
 961 0c8c 84140000 		.word	.L268
 962 0c90 84140000 		.word	.L268
 963 0c94 84140000 		.word	.L268
 964 0c98 84140000 		.word	.L268
 965 0c9c 84140000 		.word	.L268
 966 0ca0 84140000 		.word	.L268
 967 0ca4 84140000 		.word	.L268
 968 0ca8 84140000 		.word	.L268
 969 0cac 84140000 		.word	.L268
ARM GAS  C:\Users\ldebo\AppData\Local\Temp\cc9oeUFF.s 			page 18


 970 0cb0 84140000 		.word	.L268
 971 0cb4 84140000 		.word	.L268
 972 0cb8 84140000 		.word	.L268
 973 0cbc 84140000 		.word	.L268
 974 0cc0 84140000 		.word	.L268
 975 0cc4 880E0000 		.word	.L181
 976 0cc8 84140000 		.word	.L268
 977 0ccc 84140000 		.word	.L268
 978 0cd0 D40F0000 		.word	.L176
 979 0cd4 84140000 		.word	.L268
 980 0cd8 84140000 		.word	.L268
 981 0cdc 84140000 		.word	.L268
 982 0ce0 84140000 		.word	.L268
 983 0ce4 84140000 		.word	.L268
 984 0ce8 E40E0000 		.word	.L182
 985 0cec 84140000 		.word	.L268
 986 0cf0 280F0000 		.word	.L180
 987 0cf4 480D0000 		.word	.L179
 988 0cf8 E40E0000 		.word	.L182
 989 0cfc E40E0000 		.word	.L182
 990 0d00 E40E0000 		.word	.L182
 991 0d04 84140000 		.word	.L268
 992 0d08 480D0000 		.word	.L179
 993 0d0c 84140000 		.word	.L268
 994 0d10 84140000 		.word	.L268
 995 0d14 84140000 		.word	.L268
 996 0d18 84140000 		.word	.L268
 997 0d1c 84140000 		.word	.L268
 998 0d20 880E0000 		.word	.L181
 999 0d24 880E0000 		.word	.L181
 1000 0d28 84140000 		.word	.L268
 1001 0d2c 84140000 		.word	.L268
 1002 0d30 280F0000 		.word	.L180
 1003 0d34 84140000 		.word	.L268
 1004 0d38 880E0000 		.word	.L181
 1005 0d3c 84140000 		.word	.L268
 1006 0d40 84140000 		.word	.L268
 1007 0d44 880E0000 		.word	.L181
 1008              	.L179:
 1009 0d48 FEFFFFEB 		bl	__locale_ctype_ptr
 1010 0d4c 0560A0E1 		mov	r6, r5
 1011 0d50 0130D5E4 		ldrb	r3, [r5], #1	@ zero_extendqisi2
 1012 0d54 030080E0 		add	r0, r0, r3
 1013 0d58 2B2043E2 		sub	r2, r3, #43
 1014 0d5c FD2002E2 		and	r2, r2, #253
 1015 0d60 000053E3 		cmp	r3, #0
 1016 0d64 00005213 		cmpne	r2, #0
 1017 0d68 0110D0E5 		ldrb	r1, [r0, #1]	@ zero_extendqisi2
 1018 0d6c 0120A013 		movne	r2, #1
 1019 0d70 0020A003 		moveq	r2, #0
 1020 0d74 041021E2 		eor	r1, r1, #4
 1021 0d78 212112E0 		ands	r2, r2, r1, lsr #2
 1022 0d7c F1FFFF1A 		bne	.L179
 1023              	.L184:
 1024 0d80 000053E3 		cmp	r3, #0
 1025 0d84 2DFFFF0A 		beq	.L161
 1026 0d88 0120D6E5 		ldrb	r2, [r6, #1]	@ zero_extendqisi2
ARM GAS  C:\Users\ldebo\AppData\Local\Temp\cc9oeUFF.s 			page 19


 1027 0d8c 015086E2 		add	r5, r6, #1
 1028 0d90 000052E3 		cmp	r2, #0
 1029 0d94 29FFFF0A 		beq	.L161
 1030              	.L186:
 1031 0d98 41204AE2 		sub	r2, r10, #65
 1032 0d9c 370052E3 		cmp	r2, #55
 1033 0da0 02F19F97 		ldrls	pc, [pc, r2, asl #2]
 1034 0da4 760000EA 		b	.L187
 1035              	.L189:
 1036 0da8 1C100000 		.word	.L188
 1037 0dac 840F0000 		.word	.L187
 1038 0db0 840F0000 		.word	.L187
 1039 0db4 840F0000 		.word	.L187
 1040 0db8 1C100000 		.word	.L188
 1041 0dbc 1C100000 		.word	.L188
 1042 0dc0 1C100000 		.word	.L188
 1043 0dc4 840F0000 		.word	.L187
 1044 0dc8 840F0000 		.word	.L187
 1045 0dcc 840F0000 		.word	.L187
 1046 0dd0 840F0000 		.word	.L187
 1047 0dd4 840F0000 		.word	.L187
 1048 0dd8 840F0000 		.word	.L187
 1049 0ddc 840F0000 		.word	.L187
 1050 0de0 840F0000 		.word	.L187
 1051 0de4 840F0000 		.word	.L187
 1052 0de8 840F0000 		.word	.L187
 1053 0dec 840F0000 		.word	.L187
 1054 0df0 840F0000 		.word	.L187
 1055 0df4 840F0000 		.word	.L187
 1056 0df8 840F0000 		.word	.L187
 1057 0dfc 840F0000 		.word	.L187
 1058 0e00 840F0000 		.word	.L187
 1059 0e04 480F0000 		.word	.L190
 1060 0e08 840F0000 		.word	.L187
 1061 0e0c 840F0000 		.word	.L187
 1062 0e10 F40F0000 		.word	.L191
 1063 0e14 840F0000 		.word	.L187
 1064 0e18 840F0000 		.word	.L187
 1065 0e1c 840F0000 		.word	.L187
 1066 0e20 840F0000 		.word	.L187
 1067 0e24 840F0000 		.word	.L187
 1068 0e28 1C100000 		.word	.L188
 1069 0e2c 840F0000 		.word	.L187
 1070 0e30 840F0000 		.word	.L187
 1071 0e34 A0100000 		.word	.L192
 1072 0e38 1C100000 		.word	.L188
 1073 0e3c 1C100000 		.word	.L188
 1074 0e40 1C100000 		.word	.L188
 1075 0e44 840F0000 		.word	.L187
 1076 0e48 CC110000 		.word	.L193
 1077 0e4c 840F0000 		.word	.L187
 1078 0e50 840F0000 		.word	.L187
 1079 0e54 840F0000 		.word	.L187
 1080 0e58 840F0000 		.word	.L187
 1081 0e5c 840F0000 		.word	.L187
 1082 0e60 FC110000 		.word	.L194
 1083 0e64 CC110000 		.word	.L193
ARM GAS  C:\Users\ldebo\AppData\Local\Temp\cc9oeUFF.s 			page 20


 1084 0e68 840F0000 		.word	.L187
 1085 0e6c 840F0000 		.word	.L187
 1086 0e70 28120000 		.word	.L195
 1087 0e74 840F0000 		.word	.L187
 1088 0e78 A0100000 		.word	.L192
 1089 0e7c 840F0000 		.word	.L187
 1090 0e80 840F0000 		.word	.L187
 1091 0e84 480F0000 		.word	.L190
 1092              	.L181:
 1093 0e88 FEFFFFEB 		bl	__locale_ctype_ptr
 1094 0e8c 0560A0E1 		mov	r6, r5
 1095 0e90 0130D5E4 		ldrb	r3, [r5], #1	@ zero_extendqisi2
 1096 0e94 030080E0 		add	r0, r0, r3
 1097 0e98 003093E2 		adds	r3, r3, #0
 1098 0e9c 0130A013 		movne	r3, #1
 1099 0ea0 0120D0E5 		ldrb	r2, [r0, #1]	@ zero_extendqisi2
 1100 0ea4 042022E2 		eor	r2, r2, #4
 1101 0ea8 223113E0 		ands	r3, r3, r2, lsr #2
 1102 0eac F5FFFF1A 		bne	.L181
 1103              	.L172:
 1104 0eb0 5B005AE3 		cmp	r10, #91
 1105 0eb4 0030D615 		ldrbne	r3, [r6]	@ zero_extendqisi2
 1106 0eb8 B0FFFF1A 		bne	.L184
 1107              	.L341:
 1108 0ebc 0130D9E5 		ldrb	r3, [r9, #1]	@ zero_extendqisi2
 1109 0ec0 0650A0E1 		mov	r5, r6
 1110 0ec4 0460A0E1 		mov	r6, r4
 1111              	.L183:
 1112 0ec8 000053E3 		cmp	r3, #0
 1113 0ecc DBFEFF0A 		beq	.L161
 1114 0ed0 0120D6E5 		ldrb	r2, [r6, #1]	@ zero_extendqisi2
 1115 0ed4 014086E2 		add	r4, r6, #1
 1116 0ed8 000052E3 		cmp	r2, #0
 1117 0edc ADFFFF1A 		bne	.L186
 1118 0ee0 D6FEFFEA 		b	.L161
 1119              	.L182:
 1120 0ee4 FEFFFFEB 		bl	__locale_ctype_ptr
 1121 0ee8 0560A0E1 		mov	r6, r5
 1122 0eec 0130D5E4 		ldrb	r3, [r5], #1	@ zero_extendqisi2
 1123 0ef0 030080E0 		add	r0, r0, r3
 1124 0ef4 2B0053E3 		cmp	r3, #43
 1125 0ef8 00005313 		cmpne	r3, #0
 1126 0efc 0120A013 		movne	r2, #1
 1127 0f00 0020A003 		moveq	r2, #0
 1128 0f04 2D3043E2 		sub	r3, r3, #45
 1129 0f08 010053E3 		cmp	r3, #1
 1130 0f0c 0030A093 		movls	r3, #0
 1131 0f10 01300282 		andhi	r3, r2, #1
 1132 0f14 0120D0E5 		ldrb	r2, [r0, #1]	@ zero_extendqisi2
 1133 0f18 042022E2 		eor	r2, r2, #4
 1134 0f1c 223113E0 		ands	r3, r3, r2, lsr #2
 1135 0f20 EFFFFF1A 		bne	.L182
 1136 0f24 E1FFFFEA 		b	.L172
 1137              	.L180:
 1138 0f28 FEFFFFEB 		bl	__locale_ctype_ptr
 1139 0f2c 0560A0E1 		mov	r6, r5
 1140 0f30 0130D5E4 		ldrb	r3, [r5], #1	@ zero_extendqisi2
ARM GAS  C:\Users\ldebo\AppData\Local\Temp\cc9oeUFF.s 			page 21


 1141 0f34 030080E0 		add	r0, r0, r3
 1142 0f38 0120D0E5 		ldrb	r2, [r0, #1]	@ zero_extendqisi2
 1143 0f3c 080012E3 		tst	r2, #8
 1144 0f40 F8FFFF1A 		bne	.L180
 1145 0f44 8DFFFFEA 		b	.L184
 1146              	.L190:
 1147 0f48 0590A0E1 		mov	r9, r5
 1148              	.L198:
 1149 0f4c FEFFFFEB 		bl	__locale_ctype_ptr
 1150 0f50 0030D9E5 		ldrb	r3, [r9]	@ zero_extendqisi2
 1151 0f54 0950A0E1 		mov	r5, r9
 1152 0f58 019089E2 		add	r9, r9, #1
 1153 0f5c 030080E0 		add	r0, r0, r3
 1154 0f60 2030C3E3 		bic	r3, r3, #32
 1155 0f64 413043E2 		sub	r3, r3, #65
 1156 0f68 0120D0E5 		ldrb	r2, [r0, #1]	@ zero_extendqisi2
 1157 0f6c 040012E3 		tst	r2, #4
 1158 0f70 F5FFFF1A 		bne	.L198
 1159 0f74 050053E3 		cmp	r3, #5
 1160 0f78 F3FFFF9A 		bls	.L198
 1161 0f7c 1030A0E3 		mov	r3, #16
 1162 0f80 10308DE5 		str	r3, [sp, #16]
 1163              	.L187:
 1164 0f84 63005AE3 		cmp	r10, #99
 1165 0f88 3901001A 		bne	.L335
 1166              	.L220:
 1167 0f8c 14309DE5 		ldr	r3, [sp, #20]
 1168 0f90 000053E3 		cmp	r3, #0
 1169 0f94 CE00001A 		bne	.L240
 1170 0f98 000058E3 		cmp	r8, #0
 1171 0f9c 9401000A 		beq	.L255
 1172 0fa0 6C0058E3 		cmp	r8, #108
 1173 0fa4 CA00001A 		bne	.L240
 1174 0fa8 0610A0E1 		mov	r1, r6
 1175 0fac 0120A0E3 		mov	r2, #1
 1176 0fb0 4A0F8DE2 		add	r0, sp, #296
 1177 0fb4 FEFFFFEB 		bl	mbstowcs
 1178 0fb8 08109DE5 		ldr	r1, [sp, #8]
 1179 0fbc 28219DE5 		ldr	r2, [sp, #296]
 1180 0fc0 041081E2 		add	r1, r1, #4
 1181 0fc4 043011E5 		ldr	r3, [r1, #-4]
 1182 0fc8 08108DE5 		str	r1, [sp, #8]
 1183 0fcc 002083E5 		str	r2, [r3]
 1184 0fd0 BF0000EA 		b	.L240
 1185              	.L176:
 1186 0fd4 0130D9E5 		ldrb	r3, [r9, #1]	@ zero_extendqisi2
 1187 0fd8 5E0053E3 		cmp	r3, #94
 1188 0fdc 0460A011 		movne	r6, r4
 1189 0fe0 0120A003 		moveq	r2, #1
 1190 0fe4 02608902 		addeq	r6, r9, #2
 1191 0fe8 0230D905 		ldrbeq	r3, [r9, #2]	@ zero_extendqisi2
 1192 0fec 1C208D05 		streq	r2, [sp, #28]
 1193 0ff0 B4FFFFEA 		b	.L183
 1194              	.L191:
 1195 0ff4 0030D4E5 		ldrb	r3, [r4]	@ zero_extendqisi2
 1196 0ff8 5D0053E3 		cmp	r3, #93
 1197 0ffc 00005313 		cmpne	r3, #0
ARM GAS  C:\Users\ldebo\AppData\Local\Temp\cc9oeUFF.s 			page 22


 1198 1000 0300000A 		beq	.L221
 1199              	.L202:
 1200 1004 0130F4E5 		ldrb	r3, [r4, #1]!	@ zero_extendqisi2
 1201 1008 5D0053E3 		cmp	r3, #93
 1202 100c 00005313 		cmpne	r3, #0
 1203 1010 FBFFFF1A 		bne	.L202
 1204              	.L221:
 1205 1014 069044E0 		sub	r9, r4, r6
 1206 1018 2A0000EA 		b	.L222
 1207              	.L188:
 1208 101c 2EB043E2 		sub	fp, r3, #46
 1209 1020 0090A0E3 		mov	r9, #0
 1210 1024 1BBF6FE1 		clz	fp, fp
 1211 1028 ABB2A0E1 		lsr	fp, fp, #5
 1212 102c 000000EA 		b	.L219
 1213              	.L336:
 1214 1030 015085E2 		add	r5, r5, #1
 1215              	.L219:
 1216 1034 00005BE3 		cmp	fp, #0
 1217 1038 0300001A 		bne	.L216
 1218 103c 0030D5E5 		ldrb	r3, [r5]	@ zero_extendqisi2
 1219 1040 2E0053E3 		cmp	r3, #46
 1220 1044 01508502 		addeq	r5, r5, #1
 1221 1048 01B0A003 		moveq	fp, #1
 1222              	.L216:
 1223 104c 000059E3 		cmp	r9, #0
 1224 1050 0900001A 		bne	.L217
 1225 1054 0030D5E5 		ldrb	r3, [r5]	@ zero_extendqisi2
 1226 1058 DF3003E2 		and	r3, r3, #223
 1227 105c 450053E3 		cmp	r3, #69
 1228 1060 0500001A 		bne	.L217
 1229 1064 0130D5E5 		ldrb	r3, [r5, #1]	@ zero_extendqisi2
 1230 1068 0190A0E3 		mov	r9, #1
 1231 106c 2D0053E3 		cmp	r3, #45
 1232 1070 09508510 		addne	r5, r5, r9
 1233 1074 02508502 		addeq	r5, r5, #2
 1234 1078 0190A003 		moveq	r9, #1
 1235              	.L217:
 1236 107c FEFFFFEB 		bl	__locale_ctype_ptr
 1237 1080 0030D5E5 		ldrb	r3, [r5]	@ zero_extendqisi2
 1238 1084 030080E0 		add	r0, r0, r3
 1239 1088 0130D0E5 		ldrb	r3, [r0, #1]	@ zero_extendqisi2
 1240 108c 040013E3 		tst	r3, #4
 1241 1090 E6FFFF1A 		bne	.L336
 1242 1094 63005AE3 		cmp	r10, #99
 1243 1098 BBFFFF0A 		beq	.L220
 1244 109c F40000EA 		b	.L335
 1245              	.L192:
 1246 10a0 0590A0E1 		mov	r9, r5
 1247              	.L196:
 1248 10a4 0950A0E1 		mov	r5, r9
 1249 10a8 FEFFFFEB 		bl	__locale_ctype_ptr
 1250 10ac 019089E2 		add	r9, r9, #1
 1251 10b0 0030D5E5 		ldrb	r3, [r5]	@ zero_extendqisi2
 1252 10b4 030080E0 		add	r0, r0, r3
 1253 10b8 0130D0E5 		ldrb	r3, [r0, #1]	@ zero_extendqisi2
 1254 10bc 040013E3 		tst	r3, #4
ARM GAS  C:\Users\ldebo\AppData\Local\Temp\cc9oeUFF.s 			page 23


 1255 10c0 F7FFFF1A 		bne	.L196
 1256              	.L263:
 1257 10c4 069045E0 		sub	r9, r5, r6
 1258              	.L222:
 1259 10c8 0920A0E1 		mov	r2, r9
 1260 10cc 0610A0E1 		mov	r1, r6
 1261 10d0 28008DE2 		add	r0, sp, #40
 1262 10d4 FEFFFFEB 		bl	strncpy
 1263 10d8 523E8DE2 		add	r3, sp, #1312
 1264 10dc 083083E2 		add	r3, r3, #8
 1265 10e0 0020A0E3 		mov	r2, #0
 1266 10e4 099083E0 		add	r9, r3, r9
 1267 10e8 45304AE2 		sub	r3, r10, #69
 1268 10ec 002549E5 		strb	r2, [r9, #-1280]
 1269 10f0 330053E3 		cmp	r3, #51
 1270 10f4 03F19F97 		ldrls	pc, [pc, r3, asl #2]
 1271 10f8 C80000EA 		b	.L223
 1272              	.L225:
 1273 10fc 2C140000 		.word	.L224
 1274 1100 2C140000 		.word	.L224
 1275 1104 2C140000 		.word	.L224
 1276 1108 20140000 		.word	.L223
 1277 110c 20140000 		.word	.L223
 1278 1110 20140000 		.word	.L223
 1279 1114 20140000 		.word	.L223
 1280 1118 20140000 		.word	.L223
 1281 111c 20140000 		.word	.L223
 1282 1120 20140000 		.word	.L223
 1283 1124 20140000 		.word	.L223
 1284 1128 20140000 		.word	.L223
 1285 112c 20140000 		.word	.L223
 1286 1130 20140000 		.word	.L223
 1287 1134 20140000 		.word	.L223
 1288 1138 20140000 		.word	.L223
 1289 113c 20140000 		.word	.L223
 1290 1140 20140000 		.word	.L223
 1291 1144 20140000 		.word	.L223
 1292 1148 C0130000 		.word	.L226
 1293 114c 20140000 		.word	.L223
 1294 1150 20140000 		.word	.L223
 1295 1154 48130000 		.word	.L227
 1296 1158 20140000 		.word	.L223
 1297 115c 20140000 		.word	.L223
 1298 1160 20140000 		.word	.L223
 1299 1164 20140000 		.word	.L223
 1300 1168 20140000 		.word	.L223
 1301 116c 20140000 		.word	.L223
 1302 1170 20140000 		.word	.L223
 1303 1174 8C0F0000 		.word	.L220
 1304 1178 E4120000 		.word	.L228
 1305 117c 2C140000 		.word	.L224
 1306 1180 2C140000 		.word	.L224
 1307 1184 2C140000 		.word	.L224
 1308 1188 20140000 		.word	.L223
 1309 118c E4120000 		.word	.L228
 1310 1190 20140000 		.word	.L223
 1311 1194 20140000 		.word	.L223
ARM GAS  C:\Users\ldebo\AppData\Local\Temp\cc9oeUFF.s 			page 24


 1312 1198 20140000 		.word	.L223
 1313 119c 20140000 		.word	.L223
 1314 11a0 20140000 		.word	.L223
 1315 11a4 C0130000 		.word	.L226
 1316 11a8 B8120000 		.word	.L229
 1317 11ac 20140000 		.word	.L223
 1318 11b0 20140000 		.word	.L223
 1319 11b4 68120000 		.word	.L230
 1320 11b8 20140000 		.word	.L223
 1321 11bc C0130000 		.word	.L226
 1322 11c0 20140000 		.word	.L223
 1323 11c4 20140000 		.word	.L223
 1324 11c8 C0130000 		.word	.L226
 1325              	.L193:
 1326 11cc 300053E3 		cmp	r3, #48
 1327 11d0 0590A011 		movne	r9, r5
 1328 11d4 B900000A 		beq	.L337
 1329              	.L208:
 1330 11d8 0950A0E1 		mov	r5, r9
 1331 11dc FEFFFFEB 		bl	__locale_ctype_ptr
 1332 11e0 019089E2 		add	r9, r9, #1
 1333 11e4 0030D5E5 		ldrb	r3, [r5]	@ zero_extendqisi2
 1334 11e8 030080E0 		add	r0, r0, r3
 1335 11ec 0130D0E5 		ldrb	r3, [r0, #1]	@ zero_extendqisi2
 1336 11f0 040013E3 		tst	r3, #4
 1337 11f4 F7FFFF1A 		bne	.L208
 1338 11f8 B1FFFFEA 		b	.L263
 1339              	.L194:
 1340 11fc 0030D5E5 		ldrb	r3, [r5]	@ zero_extendqisi2
 1341 1200 303043E2 		sub	r3, r3, #48
 1342 1204 070053E3 		cmp	r3, #7
 1343 1208 0300008A 		bhi	.L271
 1344              	.L205:
 1345 120c 0130F5E5 		ldrb	r3, [r5, #1]!	@ zero_extendqisi2
 1346 1210 303043E2 		sub	r3, r3, #48
 1347 1214 070053E3 		cmp	r3, #7
 1348 1218 FBFFFF9A 		bls	.L205
 1349              	.L271:
 1350 121c 0830A0E3 		mov	r3, #8
 1351 1220 10308DE5 		str	r3, [sp, #16]
 1352 1224 A6FFFFEA 		b	.L263
 1353              	.L195:
 1354 1228 0590A0E1 		mov	r9, r5
 1355 122c 020000EA 		b	.L197
 1356              	.L338:
 1357 1230 000057E3 		cmp	r7, #0
 1358 1234 A2FFFF0A 		beq	.L263
 1359 1238 017047E2 		sub	r7, r7, #1
 1360              	.L197:
 1361 123c FEFFFFEB 		bl	__locale_ctype_ptr
 1362 1240 0950A0E1 		mov	r5, r9
 1363 1244 0130D9E4 		ldrb	r3, [r9], #1	@ zero_extendqisi2
 1364 1248 030080E0 		add	r0, r0, r3
 1365 124c 003093E2 		adds	r3, r3, #0
 1366 1250 0130A013 		movne	r3, #1
 1367 1254 0120D0E5 		ldrb	r2, [r0, #1]	@ zero_extendqisi2
 1368 1258 082022E2 		eor	r2, r2, #8
ARM GAS  C:\Users\ldebo\AppData\Local\Temp\cc9oeUFF.s 			page 25


 1369 125c A23113E0 		ands	r3, r3, r2, lsr #3
 1370 1260 F2FFFF1A 		bne	.L338
 1371 1264 96FFFFEA 		b	.L263
 1372              	.L230:
 1373 1268 14309DE5 		ldr	r3, [sp, #20]
 1374 126c 000053E3 		cmp	r3, #0
 1375 1270 1700001A 		bne	.L240
 1376 1274 000058E3 		cmp	r8, #0
 1377 1278 E400000A 		beq	.L253
 1378 127c 6C0058E3 		cmp	r8, #108
 1379 1280 1300001A 		bne	.L240
 1380 1284 08709DE5 		ldr	r7, [sp, #8]
 1381 1288 28008DE2 		add	r0, sp, #40
 1382 128c FEFFFFEB 		bl	strlen
 1383 1290 28108DE2 		add	r1, sp, #40
 1384 1294 012080E2 		add	r2, r0, #1
 1385 1298 4A0F8DE2 		add	r0, sp, #296
 1386 129c FEFFFFEB 		bl	mbstowcs
 1387 12a0 046087E2 		add	r6, r7, #4
 1388 12a4 000097E5 		ldr	r0, [r7]
 1389 12a8 4A1F8DE2 		add	r1, sp, #296
 1390 12ac 08608DE5 		str	r6, [sp, #8]
 1391 12b0 FEFFFFEB 		bl	wcscpy
 1392 12b4 060000EA 		b	.L240
 1393              	.L229:
 1394 12b8 1020A0E3 		mov	r2, #16
 1395 12bc 0C109DE5 		ldr	r1, [sp, #12]
 1396 12c0 28008DE2 		add	r0, sp, #40
 1397 12c4 FEFFFFEB 		bl	strtol
 1398 12c8 14309DE5 		ldr	r3, [sp, #20]
 1399 12cc 000053E3 		cmp	r3, #0
 1400 12d0 7400000A 		beq	.L326
 1401              	.L240:
 1402 12d4 04309DE5 		ldr	r3, [sp, #4]
 1403 12d8 013083E2 		add	r3, r3, #1
 1404 12dc 04308DE5 		str	r3, [sp, #4]
 1405 12e0 BFFDFFEA 		b	.L163
 1406              	.L228:
 1407 12e4 14309DE5 		ldr	r3, [sp, #20]
 1408 12e8 000053E3 		cmp	r3, #0
 1409 12ec F8FFFF1A 		bne	.L240
 1410 12f0 6A0058E3 		cmp	r8, #106
 1411 12f4 E300000A 		beq	.L241
 1412 12f8 8500009A 		bls	.L339
 1413 12fc 740058E3 		cmp	r8, #116
 1414 1300 6400000A 		beq	.L245
 1415 1304 7A0058E3 		cmp	r8, #122
 1416 1308 6200000A 		beq	.L245
 1417 130c 6C0058E3 		cmp	r8, #108
 1418 1310 EFFFFF1A 		bne	.L240
 1419 1314 18309DE5 		ldr	r3, [sp, #24]
 1420 1318 28008DE2 		add	r0, sp, #40
 1421 131c 10209DE5 		ldr	r2, [sp, #16]
 1422 1320 000053E3 		cmp	r3, #0
 1423 1324 0C109DE5 		ldr	r1, [sp, #12]
 1424 1328 5D00000A 		beq	.L327
 1425 132c FEFFFFEB 		bl	strtoll
ARM GAS  C:\Users\ldebo\AppData\Local\Temp\cc9oeUFF.s 			page 26


 1426 1330 08209DE5 		ldr	r2, [sp, #8]
 1427 1334 042082E2 		add	r2, r2, #4
 1428 1338 043012E5 		ldr	r3, [r2, #-4]
 1429 133c 08208DE5 		str	r2, [sp, #8]
 1430 1340 F000C3E1 		strd	r0, [r3]
 1431 1344 E2FFFFEA 		b	.L240
 1432              	.L227:
 1433 1348 1C309DE5 		ldr	r3, [sp, #28]
 1434 134c 0560A0E1 		mov	r6, r5
 1435 1350 000053E3 		cmp	r3, #0
 1436 1354 0C00000A 		beq	.L258
 1437              	.L259:
 1438 1358 0650A0E1 		mov	r5, r6
 1439 135c 28008DE2 		add	r0, sp, #40
 1440 1360 016086E2 		add	r6, r6, #1
 1441 1364 0010D5E5 		ldrb	r1, [r5]	@ zero_extendqisi2
 1442 1368 FEFFFFEB 		bl	strchr
 1443 136c 003097E2 		adds	r3, r7, #0
 1444 1370 0130A013 		movne	r3, #1
 1445 1374 000050E3 		cmp	r0, #0
 1446 1378 0030A013 		movne	r3, #0
 1447 137c 017047E2 		sub	r7, r7, #1
 1448 1380 000053E3 		cmp	r3, #0
 1449 1384 F3FFFF1A 		bne	.L259
 1450 1388 95FDFFEA 		b	.L163
 1451              	.L258:
 1452 138c 0650A0E1 		mov	r5, r6
 1453 1390 28008DE2 		add	r0, sp, #40
 1454 1394 016086E2 		add	r6, r6, #1
 1455 1398 0010D5E5 		ldrb	r1, [r5]	@ zero_extendqisi2
 1456 139c FEFFFFEB 		bl	strchr
 1457 13a0 000050E3 		cmp	r0, #0
 1458 13a4 00005713 		cmpne	r7, #0
 1459 13a8 0100A013 		movne	r0, #1
 1460 13ac 0000A003 		moveq	r0, #0
 1461 13b0 017047E2 		sub	r7, r7, #1
 1462 13b4 F4FFFF1A 		bne	.L258
 1463 13b8 1C008DE5 		str	r0, [sp, #28]
 1464 13bc 88FDFFEA 		b	.L163
 1465              	.L226:
 1466 13c0 14309DE5 		ldr	r3, [sp, #20]
 1467 13c4 000053E3 		cmp	r3, #0
 1468 13c8 1400001A 		bne	.L223
 1469 13cc 6A0058E3 		cmp	r8, #106
 1470 13d0 B800000A 		beq	.L231
 1471 13d4 5F00009A 		bls	.L340
 1472 13d8 740058E3 		cmp	r8, #116
 1473 13dc 7A00000A 		beq	.L235
 1474 13e0 7A0058E3 		cmp	r8, #122
 1475 13e4 7800000A 		beq	.L235
 1476 13e8 6C0058E3 		cmp	r8, #108
 1477 13ec 0B00001A 		bne	.L223
 1478 13f0 18309DE5 		ldr	r3, [sp, #24]
 1479 13f4 28008DE2 		add	r0, sp, #40
 1480 13f8 10209DE5 		ldr	r2, [sp, #16]
 1481 13fc 000053E3 		cmp	r3, #0
 1482 1400 0C109DE5 		ldr	r1, [sp, #12]
ARM GAS  C:\Users\ldebo\AppData\Local\Temp\cc9oeUFF.s 			page 27


 1483 1404 7300000A 		beq	.L324
 1484 1408 FEFFFFEB 		bl	strtoull
 1485 140c 08209DE5 		ldr	r2, [sp, #8]
 1486 1410 042082E2 		add	r2, r2, #4
 1487 1414 043012E5 		ldr	r3, [r2, #-4]
 1488 1418 08208DE5 		str	r2, [sp, #8]
 1489 141c F000C3E1 		strd	r0, [r3]
 1490              	.L223:
 1491 1420 5B005AE3 		cmp	r10, #91
 1492 1424 AAFFFF1A 		bne	.L240
 1493 1428 6DFDFFEA 		b	.L163
 1494              	.L224:
 1495 142c 14309DE5 		ldr	r3, [sp, #20]
 1496 1430 000053E3 		cmp	r3, #0
 1497 1434 F9FFFF1A 		bne	.L223
 1498 1438 4C0058E3 		cmp	r8, #76
 1499 143c 8300000A 		beq	.L250
 1500 1440 6C0058E3 		cmp	r8, #108
 1501 1444 7800000A 		beq	.L251
 1502 1448 000058E3 		cmp	r8, #0
 1503 144c F3FFFF1A 		bne	.L223
 1504 1450 0C109DE5 		ldr	r1, [sp, #12]
 1505 1454 28008DE2 		add	r0, sp, #40
 1506 1458 FEFFFFEB 		bl	strtof
 1507 145c 08209DE5 		ldr	r2, [sp, #8]
 1508 1460 042082E2 		add	r2, r2, #4
 1509 1464 043012E5 		ldr	r3, [r2, #-4]
 1510 1468 08208DE5 		str	r2, [sp, #8]
 1511 146c 000A83ED 		vstr.32	s0, [r3]
 1512 1470 EAFFFFEA 		b	.L223
 1513              	.L335:
 1514 1474 5B005AE3 		cmp	r10, #91
 1515 1478 11FFFF1A 		bne	.L263
 1516 147c 069044E0 		sub	r9, r4, r6
 1517 1480 10FFFFEA 		b	.L222
 1518              	.L268:
 1519 1484 0560A0E1 		mov	r6, r5
 1520 1488 5B005AE3 		cmp	r10, #91
 1521 148c 0030D615 		ldrbne	r3, [r6]	@ zero_extendqisi2
 1522 1490 3AFEFF1A 		bne	.L184
 1523 1494 88FEFFEA 		b	.L341
 1524              	.L245:
 1525 1498 10209DE5 		ldr	r2, [sp, #16]
 1526 149c 28008DE2 		add	r0, sp, #40
 1527 14a0 0C109DE5 		ldr	r1, [sp, #12]
 1528              	.L327:
 1529 14a4 FEFFFFEB 		bl	strtol
 1530              	.L326:
 1531 14a8 08209DE5 		ldr	r2, [sp, #8]
 1532 14ac 042082E2 		add	r2, r2, #4
 1533 14b0 043012E5 		ldr	r3, [r2, #-4]
 1534 14b4 08208DE5 		str	r2, [sp, #8]
 1535 14b8 000083E5 		str	r0, [r3]
 1536 14bc 84FFFFEA 		b	.L240
 1537              	.L337:
 1538 14c0 0030D5E5 		ldrb	r3, [r5]	@ zero_extendqisi2
 1539 14c4 620053E3 		cmp	r3, #98
ARM GAS  C:\Users\ldebo\AppData\Local\Temp\cc9oeUFF.s 			page 28


 1540 14c8 3300000A 		beq	.L210
 1541 14cc 780053E3 		cmp	r3, #120
 1542 14d0 6200001A 		bne	.L319
 1543 14d4 019085E2 		add	r9, r5, #1
 1544              	.L212:
 1545 14d8 FEFFFFEB 		bl	__locale_ctype_ptr
 1546 14dc 0030D9E5 		ldrb	r3, [r9]	@ zero_extendqisi2
 1547 14e0 0950A0E1 		mov	r5, r9
 1548 14e4 019089E2 		add	r9, r9, #1
 1549 14e8 030080E0 		add	r0, r0, r3
 1550 14ec 2030C3E3 		bic	r3, r3, #32
 1551 14f0 413043E2 		sub	r3, r3, #65
 1552 14f4 0120D0E5 		ldrb	r2, [r0, #1]	@ zero_extendqisi2
 1553 14f8 040012E3 		tst	r2, #4
 1554 14fc F5FFFF1A 		bne	.L212
 1555 1500 050053E3 		cmp	r3, #5
 1556 1504 F3FFFF9A 		bls	.L212
 1557 1508 1030A0E3 		mov	r3, #16
 1558 150c 10308DE5 		str	r3, [sp, #16]
 1559 1510 EBFEFFEA 		b	.L263
 1560              	.L339:
 1561 1514 000058E3 		cmp	r8, #0
 1562 1518 DEFFFF0A 		beq	.L245
 1563 151c 680058E3 		cmp	r8, #104
 1564 1520 6BFFFF1A 		bne	.L240
 1565 1524 18309DE5 		ldr	r3, [sp, #24]
 1566 1528 28008DE2 		add	r0, sp, #40
 1567 152c 10209DE5 		ldr	r2, [sp, #16]
 1568 1530 000053E3 		cmp	r3, #0
 1569 1534 0C109DE5 		ldr	r1, [sp, #12]
 1570 1538 6A00000A 		beq	.L248
 1571 153c FEFFFFEB 		bl	strtol
 1572 1540 08209DE5 		ldr	r2, [sp, #8]
 1573 1544 042082E2 		add	r2, r2, #4
 1574 1548 043012E5 		ldr	r3, [r2, #-4]
 1575 154c 08208DE5 		str	r2, [sp, #8]
 1576 1550 0000C3E5 		strb	r0, [r3]
 1577 1554 5EFFFFEA 		b	.L240
 1578              	.L340:
 1579 1558 000058E3 		cmp	r8, #0
 1580 155c 1A00000A 		beq	.L235
 1581 1560 680058E3 		cmp	r8, #104
 1582 1564 ADFFFF1A 		bne	.L223
 1583 1568 18309DE5 		ldr	r3, [sp, #24]
 1584 156c 28008DE2 		add	r0, sp, #40
 1585 1570 10209DE5 		ldr	r2, [sp, #16]
 1586 1574 000053E3 		cmp	r3, #0
 1587 1578 0C109DE5 		ldr	r1, [sp, #12]
 1588 157c 6000000A 		beq	.L238
 1589 1580 FEFFFFEB 		bl	strtoul
 1590 1584 08209DE5 		ldr	r2, [sp, #8]
 1591 1588 042082E2 		add	r2, r2, #4
 1592 158c 043012E5 		ldr	r3, [r2, #-4]
 1593 1590 08208DE5 		str	r2, [sp, #8]
 1594 1594 0000C3E5 		strb	r0, [r3]
 1595 1598 A0FFFFEA 		b	.L223
 1596              	.L210:
ARM GAS  C:\Users\ldebo\AppData\Local\Temp\cc9oeUFF.s 			page 29


 1597 159c 0130D5E5 		ldrb	r3, [r5, #1]	@ zero_extendqisi2
 1598 15a0 015085E2 		add	r5, r5, #1
 1599 15a4 303043E2 		sub	r3, r3, #48
 1600 15a8 010053E3 		cmp	r3, #1
 1601 15ac 0300008A 		bhi	.L270
 1602              	.L214:
 1603 15b0 0130F5E5 		ldrb	r3, [r5, #1]!	@ zero_extendqisi2
 1604 15b4 303043E2 		sub	r3, r3, #48
 1605 15b8 010053E3 		cmp	r3, #1
 1606 15bc FBFFFF9A 		bls	.L214
 1607              	.L270:
 1608 15c0 0230A0E3 		mov	r3, #2
 1609 15c4 10308DE5 		str	r3, [sp, #16]
 1610 15c8 BDFEFFEA 		b	.L263
 1611              	.L235:
 1612 15cc 10209DE5 		ldr	r2, [sp, #16]
 1613 15d0 28008DE2 		add	r0, sp, #40
 1614 15d4 0C109DE5 		ldr	r1, [sp, #12]
 1615              	.L324:
 1616 15d8 FEFFFFEB 		bl	strtoul
 1617 15dc 08209DE5 		ldr	r2, [sp, #8]
 1618 15e0 042082E2 		add	r2, r2, #4
 1619 15e4 043012E5 		ldr	r3, [r2, #-4]
 1620 15e8 08208DE5 		str	r2, [sp, #8]
 1621 15ec 000083E5 		str	r0, [r3]
 1622 15f0 8AFFFFEA 		b	.L223
 1623              	.L255:
 1624 15f4 08209DE5 		ldr	r2, [sp, #8]
 1625 15f8 042082E2 		add	r2, r2, #4
 1626 15fc 043012E5 		ldr	r3, [r2, #-4]
 1627 1600 08208DE5 		str	r2, [sp, #8]
 1628 1604 0020D6E5 		ldrb	r2, [r6]	@ zero_extendqisi2
 1629 1608 0020C3E5 		strb	r2, [r3]
 1630 160c 30FFFFEA 		b	.L240
 1631              	.L253:
 1632 1610 08209DE5 		ldr	r2, [sp, #8]
 1633 1614 28108DE2 		add	r1, sp, #40
 1634 1618 043082E2 		add	r3, r2, #4
 1635 161c 08308DE5 		str	r3, [sp, #8]
 1636 1620 000092E5 		ldr	r0, [r2]
 1637 1624 FEFFFFEB 		bl	strcpy
 1638 1628 29FFFFEA 		b	.L240
 1639              	.L251:
 1640 162c 0C109DE5 		ldr	r1, [sp, #12]
 1641 1630 28008DE2 		add	r0, sp, #40
 1642 1634 FEFFFFEB 		bl	strtod
 1643              	.L325:
 1644 1638 08209DE5 		ldr	r2, [sp, #8]
 1645 163c 042082E2 		add	r2, r2, #4
 1646 1640 043012E5 		ldr	r3, [r2, #-4]
 1647 1644 08208DE5 		str	r2, [sp, #8]
 1648 1648 000B83ED 		vstr.64	d0, [r3]
 1649 164c 73FFFFEA 		b	.L223
 1650              	.L250:
 1651 1650 0C109DE5 		ldr	r1, [sp, #12]
 1652 1654 28008DE2 		add	r0, sp, #40
 1653 1658 FEFFFFEB 		bl	strtold
ARM GAS  C:\Users\ldebo\AppData\Local\Temp\cc9oeUFF.s 			page 30


 1654 165c F5FFFFEA 		b	.L325
 1655              	.L319:
 1656 1660 0130D5E5 		ldrb	r3, [r5, #1]	@ zero_extendqisi2
 1657 1664 015085E2 		add	r5, r5, #1
 1658 1668 303043E2 		sub	r3, r3, #48
 1659 166c 070053E3 		cmp	r3, #7
 1660 1670 E9FEFF8A 		bhi	.L271
 1661              	.L215:
 1662 1674 0130F5E5 		ldrb	r3, [r5, #1]!	@ zero_extendqisi2
 1663 1678 303043E2 		sub	r3, r3, #48
 1664 167c 070053E3 		cmp	r3, #7
 1665 1680 FBFFFF9A 		bls	.L215
 1666 1684 E4FEFFEA 		b	.L271
 1667              	.L241:
 1668 1688 10209DE5 		ldr	r2, [sp, #16]
 1669 168c 28008DE2 		add	r0, sp, #40
 1670 1690 0C109DE5 		ldr	r1, [sp, #12]
 1671 1694 FEFFFFEB 		bl	strtol
 1672 1698 900B80EE 		vdup.32	d16, r0
 1673 169c 08209DE5 		ldr	r2, [sp, #8]
 1674 16a0 042082E2 		add	r2, r2, #4
 1675 16a4 043012E5 		ldr	r3, [r2, #-4]
 1676 16a8 B000E0F2 		vshr.s64	d16, d16, #32
 1677 16ac 08208DE5 		str	r2, [sp, #8]
 1678 16b0 000BC3ED 		vstr.64	d16, [r3]	@ int
 1679 16b4 06FFFFEA 		b	.L240
 1680              	.L231:
 1681 16b8 10209DE5 		ldr	r2, [sp, #16]
 1682 16bc 28008DE2 		add	r0, sp, #40
 1683 16c0 0C109DE5 		ldr	r1, [sp, #12]
 1684 16c4 FEFFFFEB 		bl	strtoul
 1685 16c8 08209DE5 		ldr	r2, [sp, #8]
 1686 16cc 042082E2 		add	r2, r2, #4
 1687 16d0 043012E5 		ldr	r3, [r2, #-4]
 1688 16d4 08208DE5 		str	r2, [sp, #8]
 1689 16d8 14209DE5 		ldr	r2, [sp, #20]
 1690 16dc 000083E5 		str	r0, [r3]
 1691 16e0 042083E5 		str	r2, [r3, #4]
 1692 16e4 4DFFFFEA 		b	.L223
 1693              	.L248:
 1694 16e8 FEFFFFEB 		bl	strtol
 1695 16ec 08209DE5 		ldr	r2, [sp, #8]
 1696 16f0 042082E2 		add	r2, r2, #4
 1697 16f4 043012E5 		ldr	r3, [r2, #-4]
 1698 16f8 08208DE5 		str	r2, [sp, #8]
 1699 16fc B000C3E1 		strh	r0, [r3]	@ movhi
 1700 1700 F3FEFFEA 		b	.L240
 1701              	.L238:
 1702 1704 FEFFFFEB 		bl	strtoul
 1703 1708 08209DE5 		ldr	r2, [sp, #8]
 1704 170c 042082E2 		add	r2, r2, #4
 1705 1710 043012E5 		ldr	r3, [r2, #-4]
 1706 1714 08208DE5 		str	r2, [sp, #8]
 1707 1718 B000C3E1 		strh	r0, [r3]	@ movhi
 1708 171c 3FFFFFEA 		b	.L223
 1709              		.size	vsscanf, .-vsscanf
 1710              		.align	2
ARM GAS  C:\Users\ldebo\AppData\Local\Temp\cc9oeUFF.s 			page 31


 1711              		.global	sscanf
 1712              		.syntax unified
 1713              		.arm
 1714              		.fpu neon-vfpv4
 1715              		.type	sscanf, %function
 1716              	sscanf:
 1717              		@ args = 4, pretend = 12, frame = 8
 1718              		@ frame_needed = 0, uses_anonymous_args = 1
 1719 1720 0E002DE9 		push	{r1, r2, r3}
 1720 1724 003050E2 		subs	r3, r0, #0
 1721 1728 0300A001 		moveq	r0, r3
 1722 172c 04E02DE5 		str	lr, [sp, #-4]!
 1723 1730 08D04DE2 		sub	sp, sp, #8
 1724 1734 0400000A 		beq	.L342
 1725 1738 10308DE2 		add	r3, sp, #16
 1726 173c 0C109DE5 		ldr	r1, [sp, #12]
 1727 1740 0320A0E1 		mov	r2, r3
 1728 1744 04308DE5 		str	r3, [sp, #4]
 1729 1748 FEFFFFEB 		bl	vsscanf
 1730              	.L342:
 1731 174c 08D08DE2 		add	sp, sp, #8
 1732              		@ sp needed
 1733 1750 04E09DE4 		ldr	lr, [sp], #4
 1734 1754 0CD08DE2 		add	sp, sp, #12
 1735 1758 1EFF2FE1 		bx	lr
 1736              		.size	sscanf, .-sscanf
 1737              		.align	2
 1738              		.global	emb_sprintf
 1739              		.syntax unified
 1740              		.arm
 1741              		.fpu neon-vfpv4
 1742              		.type	emb_sprintf, %function
 1743              	emb_sprintf:
 1744              		@ args = 4, pretend = 12, frame = 8
 1745              		@ frame_needed = 0, uses_anonymous_args = 1
 1746 175c 0E002DE9 		push	{r1, r2, r3}
 1747 1760 04E02DE5 		str	lr, [sp, #-4]!
 1748 1764 08D04DE2 		sub	sp, sp, #8
 1749 1768 10308DE2 		add	r3, sp, #16
 1750 176c 0320A0E1 		mov	r2, r3
 1751 1770 0C109DE5 		ldr	r1, [sp, #12]
 1752 1774 04308DE5 		str	r3, [sp, #4]
 1753 1778 FEFFFFEB 		bl	emb_vsprintf
 1754 177c 08D08DE2 		add	sp, sp, #8
 1755              		@ sp needed
 1756 1780 04E09DE4 		ldr	lr, [sp], #4
 1757 1784 0CD08DE2 		add	sp, sp, #12
 1758 1788 1EFF2FE1 		bx	lr
 1759              		.size	emb_sprintf, .-emb_sprintf
 1760              		.align	2
 1761              		.global	printf
 1762              		.syntax unified
 1763              		.arm
 1764              		.fpu neon-vfpv4
 1765              		.type	printf, %function
 1766              	printf:
 1767              		@ args = 4, pretend = 16, frame = 520
ARM GAS  C:\Users\ldebo\AppData\Local\Temp\cc9oeUFF.s 			page 32


 1768              		@ frame_needed = 0, uses_anonymous_args = 1
 1769 178c 0F002DE9 		push	{r0, r1, r2, r3}
 1770 1790 70402DE9 		push	{r4, r5, r6, lr}
 1771 1794 82DF4DE2 		sub	sp, sp, #520
 1772 1798 873F8DE2 		add	r3, sp, #540
 1773 179c 08008DE2 		add	r0, sp, #8
 1774 17a0 0320A0E1 		mov	r2, r3
 1775 17a4 18129DE5 		ldr	r1, [sp, #536]
 1776 17a8 04308DE5 		str	r3, [sp, #4]
 1777 17ac FEFFFFEB 		bl	emb_vsprintf
 1778 17b0 006050E2 		subs	r6, r0, #0
 1779 17b4 070000DA 		ble	.L348
 1780 17b8 015046E2 		sub	r5, r6, #1
 1781 17bc 08308DE2 		add	r3, sp, #8
 1782 17c0 07408DE2 		add	r4, sp, #7
 1783 17c4 055083E0 		add	r5, r3, r5
 1784              	.L350:
 1785 17c8 0100F4E5 		ldrb	r0, [r4, #1]!	@ zero_extendqisi2
 1786 17cc FEFFFFEB 		bl	Embedded_Console_WriteChar
 1787 17d0 050054E1 		cmp	r4, r5
 1788 17d4 FBFFFF1A 		bne	.L350
 1789              	.L348:
 1790 17d8 0600A0E1 		mov	r0, r6
 1791 17dc 82DF8DE2 		add	sp, sp, #520
 1792              		@ sp needed
 1793 17e0 7040BDE8 		pop	{r4, r5, r6, lr}
 1794 17e4 10D08DE2 		add	sp, sp, #16
 1795 17e8 1EFF2FE1 		bx	lr
 1796              		.size	printf, .-printf
 1797              		.comm	__errno,4,4
 1798              		.section	.rodata
 1799              		.align	2
 1800              		.set	.LANCHOR0,. + 0
 1801              		.type	digits.6773, %object
 1802              		.size	digits.6773, 16
 1803              	digits.6773:
 1804 0000 30313233 		.ascii	"0123456789ABCDEF"
 1804      34353637 
 1804      38394142 
 1804      43444546 
 1805              		.ident	"GCC: (GNU Tools for ARM Embedded Processors 6-2017-q2-update) 6.3.1 20170620 (release) [AR
ARM GAS  C:\Users\ldebo\AppData\Local\Temp\cc9oeUFF.s 			page 33


DEFINED SYMBOLS
                            *ABS*:00000000 emb-stdio.c
C:\Users\ldebo\AppData\Local\Temp\cc9oeUFF.s:14     .text:00000000 $a
C:\Users\ldebo\AppData\Local\Temp\cc9oeUFF.s:19     .text:00000000 number
C:\Users\ldebo\AppData\Local\Temp\cc9oeUFF.s:1800   .rodata:00000000 .LANCHOR0
C:\Users\ldebo\AppData\Local\Temp\cc9oeUFF.s:184    .text:00000218 strnlen
C:\Users\ldebo\AppData\Local\Temp\cc9oeUFF.s:216    .text:00000260 emb_vsprintf
C:\Users\ldebo\AppData\Local\Temp\cc9oeUFF.s:250    .text:000002c8 $d
C:\Users\ldebo\AppData\Local\Temp\cc9oeUFF.s:268    .text:0000030c $a
C:\Users\ldebo\AppData\Local\Temp\cc9oeUFF.s:310    .text:0000038c $d
C:\Users\ldebo\AppData\Local\Temp\cc9oeUFF.s:395    .text:000004dc $a
C:\Users\ldebo\AppData\Local\Temp\cc9oeUFF.s:434    .text:00000568 $d
C:\Users\ldebo\AppData\Local\Temp\cc9oeUFF.s:519    .text:000006b8 $a
C:\Users\ldebo\AppData\Local\Temp\cc9oeUFF.s:754    .text:00000990 vsscanf
C:\Users\ldebo\AppData\Local\Temp\cc9oeUFF.s:887    .text:00000b64 $d
C:\Users\ldebo\AppData\Local\Temp\cc9oeUFF.s:1009   .text:00000d48 $a
C:\Users\ldebo\AppData\Local\Temp\cc9oeUFF.s:1036   .text:00000da8 $d
C:\Users\ldebo\AppData\Local\Temp\cc9oeUFF.s:1093   .text:00000e88 $a
C:\Users\ldebo\AppData\Local\Temp\cc9oeUFF.s:1273   .text:000010fc $d
C:\Users\ldebo\AppData\Local\Temp\cc9oeUFF.s:1326   .text:000011cc $a
C:\Users\ldebo\AppData\Local\Temp\cc9oeUFF.s:1716   .text:00001720 sscanf
C:\Users\ldebo\AppData\Local\Temp\cc9oeUFF.s:1743   .text:0000175c emb_sprintf
C:\Users\ldebo\AppData\Local\Temp\cc9oeUFF.s:1766   .text:0000178c printf
                            *COM*:00000004 __errno
C:\Users\ldebo\AppData\Local\Temp\cc9oeUFF.s:1799   .rodata:00000000 $d
C:\Users\ldebo\AppData\Local\Temp\cc9oeUFF.s:1803   .rodata:00000000 digits.6773

UNDEFINED SYMBOLS
__locale_ctype_ptr
strncpy
strtol
mbstowcs
strlen
wcscpy
strtoll
strchr
strtoull
strtof
strtoul
strcpy
strtod
strtold
Embedded_Console_WriteChar
ARM GAS  C:\Users\ldebo\AppData\Local\Temp\cc9oeUFF.s 			page 1


   1              		.arch armv8-a
   2              		.eabi_attribute 28, 1
   3              		.eabi_attribute 20, 1
   4              		.eabi_attribute 21, 1
   5              		.eabi_attribute 23, 3
   6              		.eabi_attribute 24, 1
   7              		.eabi_attribute 25, 1
   8              		.eabi_attribute 26, 1
   9              		.eabi_attribute 30, 2
  10              		.eabi_attribute 34, 0
  11              		.eabi_attribute 18, 4
  12              		.file	"rpi-GLES.c"
  13              		.text
  14              		.align	2
  15              		.syntax unified
  16              		.arm
  17              		.fpu neon-vfpv4
  18              		.type	ParseWaveFrontMesh, %function
  19              	ParseWaveFrontMesh:
  20              		@ args = 0, pretend = 0, frame = 864
  21              		@ frame_needed = 0, uses_anonymous_args = 0
  22 0000 F04F2DE9 		push	{r4, r5, r6, r7, r8, r9, r10, fp, lr}
  23 0004 03C0A0E3 		mov	ip, #3
  24 0008 01A0A0E1 		mov	r10, r1
  25 000c DDDF4DE2 		sub	sp, sp, #884
  26 0010 0050A0E3 		mov	r5, #0
  27 0014 8010A0E3 		mov	r1, #128
  28 0018 0530A0E1 		mov	r3, r5
  29 001c 04108DE5 		str	r1, [sp, #4]
  30 0020 0211A0E3 		mov	r1, #-2147483648
  31 0024 08508DE5 		str	r5, [sp, #8]
  32 0028 00C08DE5 		str	ip, [sp]
  33 002c 14208DE5 		str	r2, [sp, #20]
  34 0030 0520A0E1 		mov	r2, r5
  35 0034 40C09AE5 		ldr	ip, [r10, #64]
  36 0038 2C409AE5 		ldr	r4, [r10, #44]
  37 003c 1CC08DE5 		str	ip, [sp, #28]
  38 0040 3CC09AE5 		ldr	ip, [r10, #60]
  39 0044 20C08DE5 		str	ip, [sp, #32]
  40 0048 FEFFFFEB 		bl	sdCreateFile
  41 004c 003050E2 		subs	r3, r0, #0
  42 0050 18308DE5 		str	r3, [sp, #24]
  43 0054 0300001A 		bne	.L2
  44              	.L6:
  45 0058 0050A0E3 		mov	r5, #0
  46              	.L88:
  47 005c 0500A0E1 		mov	r0, r5
  48 0060 DDDF8DE2 		add	sp, sp, #884
  49              		@ sp needed
  50 0064 F08FBDE8 		pop	{r4, r5, r6, r7, r8, r9, r10, fp, pc}
  51              	.L2:
  52 0068 0510A0E1 		mov	r1, r5
  53 006c 30408DE5 		str	r4, [sp, #48]
  54 0070 FEFFFFEB 		bl	sdGetFileSize
  55 0074 18709DE5 		ldr	r7, [sp, #24]
  56 0078 003000E3 		movw	r3, #:lower16:.LC6
  57 007c 003040E3 		movt	r3, #:upper16:.LC6
ARM GAS  C:\Users\ldebo\AppData\Local\Temp\cc9oeUFF.s 			page 2


  58 0080 0580A0E1 		mov	r8, r5
  59 0084 0090A0E1 		mov	r9, r0
  60 0088 05B0A0E1 		mov	fp, r5
  61 008c 10308DE5 		str	r3, [sp, #16]
  62 0090 24A08DE5 		str	r10, [sp, #36]
  63              	.L46:
  64 0094 0040A0E3 		mov	r4, #0
  65 0098 6F608DE2 		add	r6, sp, #111
  66 009c 04A0A0E1 		mov	r10, r4
  67 00a0 0B0000EA 		b	.L7
  68              	.L4:
  69 00a4 0030DBE5 		ldrb	r3, [fp]	@ zero_extendqisi2
  70 00a8 014084E2 		add	r4, r4, #1
  71 00ac FF0054E3 		cmp	r4, #255
  72 00b0 019049E2 		sub	r9, r9, #1
  73 00b4 0050A083 		movhi	r5, #0
  74 00b8 0150A093 		movls	r5, #1
  75 00bc 0A0053E3 		cmp	r3, #10
  76 00c0 01B08BE2 		add	fp, fp, #1
  77 00c4 0050A003 		moveq	r5, #0
  78 00c8 0130E6E5 		strb	r3, [r6, #1]!
  79 00cc 000055E3 		cmp	r5, #0
  80 00d0 1200000A 		beq	.L91
  81              	.L7:
  82 00d4 08005BE1 		cmp	fp, r8
  83 00d8 F1FFFF1A 		bne	.L4
  84 00dc 020C59E3 		cmp	r9, #512
  85 00e0 00A08DE5 		str	r10, [sp]
  86 00e4 0950A031 		movcc	r5, r9
  87 00e8 025CA023 		movcs	r5, #512
  88 00ec 5C308DE2 		add	r3, sp, #92
  89 00f0 0520A0E1 		mov	r2, r5
  90 00f4 171E8DE2 		add	r1, sp, #368
  91 00f8 0700A0E1 		mov	r0, r7
  92 00fc FEFFFFEB 		bl	sdReadFile
  93 0100 000050E3 		cmp	r0, #0
  94 0104 17BE8DE2 		add	fp, sp, #368
  95 0108 D2FFFF0A 		beq	.L6
  96 010c 5C809DE5 		ldr	r8, [sp, #92]
  97 0110 050058E1 		cmp	r8, r5
  98 0114 08808BE0 		add	r8, fp, r8
  99 0118 E1FFFF0A 		beq	.L4
 100 011c CDFFFFEA 		b	.L6
 101              	.L91:
 102 0120 373E8DE2 		add	r3, sp, #880
 103 0124 044083E0 		add	r4, r3, r4
 104 0128 005344E5 		strb	r5, [r4, #-768]
 105 012c 7030DDE5 		ldrb	r3, [sp, #112]	@ zero_extendqisi2
 106 0130 660053E3 		cmp	r3, #102
 107 0134 5100000A 		beq	.L9
 108 0138 760053E3 		cmp	r3, #118
 109 013c 0C00001A 		bne	.L8
 110 0140 7130DDE5 		ldrb	r3, [sp, #113]	@ zero_extendqisi2
 111 0144 200053E3 		cmp	r3, #32
 112 0148 2301000A 		beq	.L92
 113 014c 740053E3 		cmp	r3, #116
 114 0150 1A01000A 		beq	.L93
ARM GAS  C:\Users\ldebo\AppData\Local\Temp\cc9oeUFF.s 			page 3


 115 0154 6E0053E3 		cmp	r3, #110
 116 0158 F300001A 		bne	.L17
 117 015c 14309DE5 		ldr	r3, [sp, #20]
 118 0160 000053E3 		cmp	r3, #0
 119 0164 24209D05 		ldreq	r2, [sp, #36]
 120 0168 8C309205 		ldreq	r3, [r2, #140]
 121 016c 01308302 		addeq	r3, r3, #1
 122 0170 8C308205 		streq	r3, [r2, #140]
 123              	.L8:
 124 0174 000059E3 		cmp	r9, #0
 125 0178 C5FFFF1A 		bne	.L46
 126              	.L99:
 127 017c 18009DE5 		ldr	r0, [sp, #24]
 128 0180 24A09DE5 		ldr	r10, [sp, #36]
 129 0184 FEFFFFEB 		bl	sdCloseHandle
 130 0188 14309DE5 		ldr	r3, [sp, #20]
 131 018c 000053E3 		cmp	r3, #0
 132 0190 0350A011 		movne	r5, r3
 133 0194 B0FFFF1A 		bne	.L88
 134 0198 94309AE5 		ldr	r3, [r10, #148]
 135 019c 000053E3 		cmp	r3, #0
 136 01a0 0200000A 		beq	.L47
 137 01a4 88309AE5 		ldr	r3, [r10, #136]
 138 01a8 000053E3 		cmp	r3, #0
 139 01ac 7D01000A 		beq	.L48
 140              	.L47:
 141 01b0 98309AE5 		ldr	r3, [r10, #152]
 142 01b4 000053E3 		cmp	r3, #0
 143 01b8 0200000A 		beq	.L49
 144 01bc 8C309AE5 		ldr	r3, [r10, #140]
 145 01c0 000053E3 		cmp	r3, #0
 146 01c4 7701000A 		beq	.L48
 147              	.L49:
 148 01c8 84509AE5 		ldr	r5, [r10, #132]
 149 01cc 000055E3 		cmp	r5, #0
 150 01d0 8101000A 		beq	.L94
 151 01d4 000000E3 		movw	r0, #:lower16:.LC16
 152 01d8 000040E3 		movt	r0, #:upper16:.LC16
 153 01dc FEFFFFEB 		bl	printf
 154 01e0 84109AE5 		ldr	r1, [r10, #132]
 155 01e4 000000E3 		movw	r0, #:lower16:.LC17
 156 01e8 000040E3 		movt	r0, #:upper16:.LC17
 157 01ec FEFFFFEB 		bl	printf
 158 01f0 88109AE5 		ldr	r1, [r10, #136]
 159 01f4 000000E3 		movw	r0, #:lower16:.LC13
 160 01f8 000040E3 		movt	r0, #:upper16:.LC13
 161 01fc FEFFFFEB 		bl	printf
 162 0200 8C109AE5 		ldr	r1, [r10, #140]
 163 0204 000000E3 		movw	r0, #:lower16:.LC14
 164 0208 000040E3 		movt	r0, #:upper16:.LC14
 165 020c FEFFFFEB 		bl	printf
 166 0210 A4009AE5 		ldr	r0, [r10, #164]
 167 0214 A0309AE5 		ldr	r3, [r10, #160]
 168 0218 006000E3 		movw	r6, #:lower16:.LC1
 169 021c 006040E3 		movt	r6, #:upper16:.LC1
 170 0220 9C209AE5 		ldr	r2, [r10, #156]
 171 0224 004000E3 		movw	r4, #:lower16:.LC0
ARM GAS  C:\Users\ldebo\AppData\Local\Temp\cc9oeUFF.s 			page 4


 172 0228 004040E3 		movt	r4, #:upper16:.LC0
 173 022c 90109AE5 		ldr	r1, [r10, #144]
 174 0230 0150A0E3 		mov	r5, #1
 175 0234 00008DE5 		str	r0, [sp]
 176 0238 000000E3 		movw	r0, #:lower16:.LC18
 177 023c 000040E3 		movt	r0, #:upper16:.LC18
 178 0240 FEFFFFEB 		bl	printf
 179 0244 94109AE5 		ldr	r1, [r10, #148]
 180 0248 000000E3 		movw	r0, #:lower16:.LC19
 181 024c 000040E3 		movt	r0, #:upper16:.LC19
 182 0250 000051E3 		cmp	r1, #0
 183 0254 0610A001 		moveq	r1, r6
 184 0258 0410A011 		movne	r1, r4
 185 025c FEFFFFEB 		bl	printf
 186 0260 98109AE5 		ldr	r1, [r10, #152]
 187 0264 000000E3 		movw	r0, #:lower16:.LC20
 188 0268 000040E3 		movt	r0, #:upper16:.LC20
 189 026c 000051E3 		cmp	r1, #0
 190 0270 0610A001 		moveq	r1, r6
 191 0274 0410A011 		movne	r1, r4
 192 0278 FEFFFFEB 		bl	printf
 193 027c 76FFFFEA 		b	.L88
 194              	.L9:
 195 0280 72408DE2 		add	r4, sp, #114
 196 0284 54608DE2 		add	r6, sp, #84
 197 0288 58308DE2 		add	r3, sp, #88
 198 028c 50208DE2 		add	r2, sp, #80
 199 0290 0400A0E1 		mov	r0, r4
 200 0294 00608DE5 		str	r6, [sp]
 201 0298 10109DE5 		ldr	r1, [sp, #16]
 202 029c FEFFFFEB 		bl	sscanf
 203 02a0 030050E3 		cmp	r0, #3
 204 02a4 1200000A 		beq	.L95
 205 02a8 58308DE2 		add	r3, sp, #88
 206 02ac 001000E3 		movw	r1, #:lower16:.LC7
 207 02b0 001040E3 		movt	r1, #:upper16:.LC7
 208 02b4 50208DE2 		add	r2, sp, #80
 209 02b8 0400A0E1 		mov	r0, r4
 210 02bc FEFFFFEB 		bl	sscanf
 211 02c0 020050E3 		cmp	r0, #2
 212 02c4 A400001A 		bne	.L21
 213 02c8 14009DE5 		ldr	r0, [sp, #20]
 214 02cc 000050E3 		cmp	r0, #0
 215 02d0 1100001A 		bne	.L20
 216 02d4 24109DE5 		ldr	r1, [sp, #36]
 217 02d8 0120A0E3 		mov	r2, #1
 218 02dc 903091E5 		ldr	r3, [r1, #144]
 219 02e0 940081E5 		str	r0, [r1, #148]
 220 02e4 023083E0 		add	r3, r3, r2
 221 02e8 982081E5 		str	r2, [r1, #152]
 222 02ec 903081E5 		str	r3, [r1, #144]
 223 02f0 090000EA 		b	.L20
 224              	.L95:
 225 02f4 14309DE5 		ldr	r3, [sp, #20]
 226 02f8 000053E3 		cmp	r3, #0
 227 02fc 0600001A 		bne	.L20
 228 0300 24109DE5 		ldr	r1, [sp, #36]
ARM GAS  C:\Users\ldebo\AppData\Local\Temp\cc9oeUFF.s 			page 5


 229 0304 0120A0E3 		mov	r2, #1
 230 0308 903091E5 		ldr	r3, [r1, #144]
 231 030c 942081E5 		str	r2, [r1, #148]
 232 0310 023083E0 		add	r3, r3, r2
 233 0314 982081E5 		str	r2, [r1, #152]
 234 0318 903081E5 		str	r3, [r1, #144]
 235              	.L20:
 236 031c 7040DDE5 		ldrb	r4, [sp, #112]	@ zero_extendqisi2
 237 0320 000054E3 		cmp	r4, #0
 238 0324 3001000A 		beq	.L54
 239 0328 0060A0E3 		mov	r6, #0
 240 032c 70308DE2 		add	r3, sp, #112
 241              	.L25:
 242 0330 200054E3 		cmp	r4, #32
 243 0334 0140F3E5 		ldrb	r4, [r3, #1]!	@ zero_extendqisi2
 244 0338 01608602 		addeq	r6, r6, #1
 245 033c 000054E3 		cmp	r4, #0
 246 0340 FAFFFF1A 		bne	.L25
 247 0344 033046E2 		sub	r3, r6, #3
 248 0348 020053E3 		cmp	r3, #2
 249 034c 2601008A 		bhi	.L54
 250 0350 030056E3 		cmp	r6, #3
 251 0354 14309DE5 		ldr	r3, [sp, #20]
 252 0358 7800000A 		beq	.L96
 253 035c 040056E3 		cmp	r6, #4
 254 0360 D000000A 		beq	.L97
 255 0364 000053E3 		cmp	r3, #0
 256 0368 C900000A 		beq	.L98
 257              	.L59:
 258 036c 003000E3 		movw	r3, #:lower16:.LC7
 259 0370 003040E3 		movt	r3, #:upper16:.LC7
 260 0374 28308DE5 		str	r3, [sp, #40]
 261 0378 003000E3 		movw	r3, #:lower16:.LC8
 262 037c 003040E3 		movt	r3, #:upper16:.LC8
 263 0380 3C308DE5 		str	r3, [sp, #60]
 264 0384 68208DE2 		add	r2, sp, #104
 265 0388 6C308DE2 		add	r3, sp, #108
 266 038c 48908DE5 		str	r9, [sp, #72]
 267 0390 4C708DE5 		str	r7, [sp, #76]
 268 0394 70508DE2 		add	r5, sp, #112
 269 0398 30709DE5 		ldr	r7, [sp, #48]
 270 039c 64A08DE2 		add	r10, sp, #100
 271 03a0 24909DE5 		ldr	r9, [sp, #36]
 272 03a4 40808DE5 		str	r8, [sp, #64]
 273 03a8 0380A0E1 		mov	r8, r3
 274 03ac 44B08DE5 		str	fp, [sp, #68]
 275 03b0 02B0A0E1 		mov	fp, r2
 276              	.L45:
 277 03b4 0500A0E1 		mov	r0, r5
 278 03b8 2010A0E3 		mov	r1, #32
 279 03bc FEFFFFEB 		bl	strchr
 280 03c0 015080E2 		add	r5, r0, #1
 281 03c4 00808DE5 		str	r8, [sp]
 282 03c8 0500A0E1 		mov	r0, r5
 283 03cc 0B30A0E1 		mov	r3, fp
 284 03d0 0A20A0E1 		mov	r2, r10
 285 03d4 10109DE5 		ldr	r1, [sp, #16]
ARM GAS  C:\Users\ldebo\AppData\Local\Temp\cc9oeUFF.s 			page 6


 286 03d8 FEFFFFEB 		bl	sscanf
 287 03dc 030050E3 		cmp	r0, #3
 288 03e0 1200000A 		beq	.L31
 289 03e4 0830A0E1 		mov	r3, r8
 290 03e8 0A20A0E1 		mov	r2, r10
 291 03ec 28109DE5 		ldr	r1, [sp, #40]
 292 03f0 0500A0E1 		mov	r0, r5
 293 03f4 FEFFFFEB 		bl	sscanf
 294 03f8 020050E3 		cmp	r0, #2
 295 03fc 0B00000A 		beq	.L31
 296 0400 0B30A0E1 		mov	r3, fp
 297 0404 0A20A0E1 		mov	r2, r10
 298 0408 3C109DE5 		ldr	r1, [sp, #60]
 299 040c 0500A0E1 		mov	r0, r5
 300 0410 FEFFFFEB 		bl	sscanf
 301 0414 020050E3 		cmp	r0, #2
 302 0418 0400000A 		beq	.L31
 303 041c 001000E3 		movw	r1, #:lower16:.LC9
 304 0420 001040E3 		movt	r1, #:upper16:.LC9
 305 0424 0A20A0E1 		mov	r2, r10
 306 0428 0500A0E1 		mov	r0, r5
 307 042c FEFFFFEB 		bl	sscanf
 308              	.L31:
 309 0430 64309DE5 		ldr	r3, [sp, #100]
 310 0434 012044E2 		sub	r2, r4, #1
 311 0438 013043E2 		sub	r3, r3, #1
 312 043c 64308DE5 		str	r3, [sp, #100]
 313 0440 030052E3 		cmp	r2, #3
 314 0444 02F19F97 		ldrls	pc, [pc, r2, asl #2]
 315 0448 1F0000EA 		b	.L33
 316              	.L35:
 317 044c E8040000 		.word	.L34
 318 0450 B0040000 		.word	.L36
 319 0454 5C040000 		.word	.L37
 320 0458 00050000 		.word	.L38
 321              	.L37:
 322 045c 342099E5 		ldr	r2, [r9, #52]
 323 0460 037087E2 		add	r7, r7, #3
 324 0464 38308DE5 		str	r3, [sp, #56]
 325 0468 030052E1 		cmp	r2, r3
 326 046c 2C20DDE5 		ldrb	r2, [sp, #44]	@ zero_extendqisi2
 327 0470 34308935 		strcc	r3, [r9, #52]
 328 0474 032047E5 		strb	r2, [r7, #-3]
 329 0478 3420DDE5 		ldrb	r2, [sp, #52]	@ zero_extendqisi2
 330 047c 013047E5 		strb	r3, [r7, #-1]
 331 0480 022047E5 		strb	r2, [r7, #-2]
 332              	.L40:
 333 0484 014084E2 		add	r4, r4, #1
 334 0488 040056E1 		cmp	r6, r4
 335 048c C8FFFF1A 		bne	.L45
 336 0490 48909DE5 		ldr	r9, [sp, #72]
 337 0494 30708DE5 		str	r7, [sp, #48]
 338 0498 000059E3 		cmp	r9, #0
 339 049c 40809DE5 		ldr	r8, [sp, #64]
 340 04a0 44B09DE5 		ldr	fp, [sp, #68]
 341 04a4 4C709DE5 		ldr	r7, [sp, #76]
 342 04a8 F9FEFF1A 		bne	.L46
ARM GAS  C:\Users\ldebo\AppData\Local\Temp\cc9oeUFF.s 			page 7


 343 04ac 32FFFFEA 		b	.L99
 344              	.L36:
 345 04b0 342099E5 		ldr	r2, [r9, #52]
 346 04b4 017087E2 		add	r7, r7, #1
 347 04b8 34308DE5 		str	r3, [sp, #52]
 348 04bc 030052E1 		cmp	r2, r3
 349 04c0 34308935 		strcc	r3, [r9, #52]
 350 04c4 013047E5 		strb	r3, [r7, #-1]
 351 04c8 EDFFFFEA 		b	.L40
 352              	.L33:
 353 04cc 342099E5 		ldr	r2, [r9, #52]
 354 04d0 017087E2 		add	r7, r7, #1
 355 04d4 2C308DE5 		str	r3, [sp, #44]
 356 04d8 030052E1 		cmp	r2, r3
 357 04dc 34308935 		strcc	r3, [r9, #52]
 358 04e0 013047E5 		strb	r3, [r7, #-1]
 359 04e4 E6FFFFEA 		b	.L40
 360              	.L34:
 361 04e8 342099E5 		ldr	r2, [r9, #52]
 362 04ec 017087E2 		add	r7, r7, #1
 363 04f0 030052E1 		cmp	r2, r3
 364 04f4 34308935 		strcc	r3, [r9, #52]
 365 04f8 013047E5 		strb	r3, [r7, #-1]
 366 04fc E0FFFFEA 		b	.L40
 367              	.L38:
 368 0500 342099E5 		ldr	r2, [r9, #52]
 369 0504 037087E2 		add	r7, r7, #3
 370 0508 030052E1 		cmp	r2, r3
 371 050c 34308935 		strcc	r3, [r9, #52]
 372 0510 2C30DDE5 		ldrb	r3, [sp, #44]	@ zero_extendqisi2
 373 0514 033047E5 		strb	r3, [r7, #-3]
 374 0518 3830DDE5 		ldrb	r3, [sp, #56]	@ zero_extendqisi2
 375 051c 023047E5 		strb	r3, [r7, #-2]
 376 0520 64309DE5 		ldr	r3, [sp, #100]
 377 0524 013047E5 		strb	r3, [r7, #-1]
 378 0528 D5FFFFEA 		b	.L40
 379              	.L17:
 380 052c 000000E3 		movw	r0, #:lower16:.LC5
 381 0530 000040E3 		movt	r0, #:upper16:.LC5
 382 0534 70108DE2 		add	r1, sp, #112
 383 0538 FEFFFFEB 		bl	printf
 384 053c 0CFFFFEA 		b	.L8
 385              	.L96:
 386 0540 000053E3 		cmp	r3, #0
 387 0544 88FFFF1A 		bne	.L59
 388 0548 24209DE5 		ldr	r2, [sp, #36]
 389 054c 9C3092E5 		ldr	r3, [r2, #156]
 390 0550 013083E2 		add	r3, r3, #1
 391 0554 9C3082E5 		str	r3, [r2, #156]
 392 0558 05FFFFEA 		b	.L8
 393              	.L21:
 394 055c 0630A0E1 		mov	r3, r6
 395 0560 001000E3 		movw	r1, #:lower16:.LC8
 396 0564 001040E3 		movt	r1, #:upper16:.LC8
 397 0568 50208DE2 		add	r2, sp, #80
 398 056c 0400A0E1 		mov	r0, r4
 399 0570 FEFFFFEB 		bl	sscanf
ARM GAS  C:\Users\ldebo\AppData\Local\Temp\cc9oeUFF.s 			page 8


 400 0574 020050E3 		cmp	r0, #2
 401 0578 3A00000A 		beq	.L100
 402 057c 50208DE2 		add	r2, sp, #80
 403 0580 0400A0E1 		mov	r0, r4
 404 0584 001000E3 		movw	r1, #:lower16:.LC9
 405 0588 001040E3 		movt	r1, #:upper16:.LC9
 406 058c FEFFFFEB 		bl	sscanf
 407 0590 010050E3 		cmp	r0, #1
 408 0594 4A00001A 		bne	.L23
 409 0598 14109DE5 		ldr	r1, [sp, #20]
 410 059c 000051E3 		cmp	r1, #0
 411 05a0 5DFFFF1A 		bne	.L20
 412 05a4 24209DE5 		ldr	r2, [sp, #36]
 413 05a8 903092E5 		ldr	r3, [r2, #144]
 414 05ac 941082E5 		str	r1, [r2, #148]
 415 05b0 013083E2 		add	r3, r3, #1
 416 05b4 981082E5 		str	r1, [r2, #152]
 417 05b8 903082E5 		str	r3, [r2, #144]
 418 05bc 56FFFFEA 		b	.L20
 419              	.L93:
 420 05c0 14309DE5 		ldr	r3, [sp, #20]
 421 05c4 000053E3 		cmp	r3, #0
 422 05c8 24209D05 		ldreq	r2, [sp, #36]
 423 05cc 88309205 		ldreq	r3, [r2, #136]
 424 05d0 01308302 		addeq	r3, r3, #1
 425 05d4 88308205 		streq	r3, [r2, #136]
 426 05d8 E5FEFFEA 		b	.L8
 427              	.L92:
 428 05dc 6C308DE2 		add	r3, sp, #108
 429 05e0 64A08DE2 		add	r10, sp, #100
 430 05e4 0310A0E1 		mov	r1, r3
 431 05e8 68308DE2 		add	r3, sp, #104
 432 05ec 0360A0E1 		mov	r6, r3
 433 05f0 72408DE2 		add	r4, sp, #114
 434 05f4 04108DE5 		str	r1, [sp, #4]
 435 05f8 0A30A0E1 		mov	r3, r10
 436 05fc 60208DE2 		add	r2, sp, #96
 437 0600 0400A0E1 		mov	r0, r4
 438 0604 001000E3 		movw	r1, #:lower16:.LC2
 439 0608 001040E3 		movt	r1, #:upper16:.LC2
 440 060c 00608DE5 		str	r6, [sp]
 441 0610 FEFFFFEB 		bl	sscanf
 442 0614 040050E3 		cmp	r0, #4
 443 0618 0A00000A 		beq	.L12
 444 061c 00608DE5 		str	r6, [sp]
 445 0620 0A30A0E1 		mov	r3, r10
 446 0624 60208DE2 		add	r2, sp, #96
 447 0628 0400A0E1 		mov	r0, r4
 448 062c 001000E3 		movw	r1, #:lower16:.LC3
 449 0630 001040E3 		movt	r1, #:upper16:.LC3
 450 0634 FEFFFFEB 		bl	sscanf
 451 0638 030050E3 		cmp	r0, #3
 452 063c 6E00001A 		bne	.L101
 453 0640 FE35A0E3 		mov	r3, #1065353216
 454 0644 6C308DE5 		str	r3, [sp, #108]	@ float
 455              	.L12:
 456 0648 14309DE5 		ldr	r3, [sp, #20]
ARM GAS  C:\Users\ldebo\AppData\Local\Temp\cc9oeUFF.s 			page 9


 457 064c 000053E3 		cmp	r3, #0
 458 0650 1F00001A 		bne	.L14
 459 0654 24209DE5 		ldr	r2, [sp, #36]
 460 0658 843092E5 		ldr	r3, [r2, #132]
 461 065c 013083E2 		add	r3, r3, #1
 462 0660 843082E5 		str	r3, [r2, #132]
 463 0664 C2FEFFEA 		b	.L8
 464              	.L100:
 465 0668 14009DE5 		ldr	r0, [sp, #20]
 466 066c 000050E3 		cmp	r0, #0
 467 0670 29FFFF1A 		bne	.L20
 468 0674 24109DE5 		ldr	r1, [sp, #36]
 469 0678 0120A0E3 		mov	r2, #1
 470 067c 903091E5 		ldr	r3, [r1, #144]
 471 0680 980081E5 		str	r0, [r1, #152]
 472 0684 023083E0 		add	r3, r3, r2
 473 0688 942081E5 		str	r2, [r1, #148]
 474 068c 903081E5 		str	r3, [r1, #144]
 475 0690 21FFFFEA 		b	.L20
 476              	.L98:
 477 0694 24209DE5 		ldr	r2, [sp, #36]
 478 0698 A43092E5 		ldr	r3, [r2, #164]
 479 069c 013083E2 		add	r3, r3, #1
 480 06a0 A43082E5 		str	r3, [r2, #164]
 481 06a4 B2FEFFEA 		b	.L8
 482              	.L97:
 483 06a8 000053E3 		cmp	r3, #0
 484 06ac 2EFFFF1A 		bne	.L59
 485 06b0 24209DE5 		ldr	r2, [sp, #36]
 486 06b4 A03092E5 		ldr	r3, [r2, #160]
 487 06b8 013083E2 		add	r3, r3, #1
 488 06bc A03082E5 		str	r3, [r2, #160]
 489 06c0 ABFEFFEA 		b	.L8
 490              	.L23:
 491 06c4 000000E3 		movw	r0, #:lower16:.LC10
 492 06c8 000040E3 		movt	r0, #:upper16:.LC10
 493 06cc FEFFFFEB 		bl	printf
 494 06d0 11FFFFEA 		b	.L20
 495              	.L14:
 496 06d4 1CC09DE5 		ldr	ip, [sp, #28]
 497 06d8 0030A0E3 		mov	r3, #0
 498 06dc 60209DE5 		ldr	r2, [sp, #96]	@ float
 499 06e0 5214E7E7 		ubfx	r1, r2, #8, #8
 500 06e4 0020CCE5 		strb	r2, [ip]
 501 06e8 0110CCE5 		strb	r1, [ip, #1]
 502 06ec 5218E7E7 		ubfx	r1, r2, #16, #8
 503 06f0 222CA0E1 		lsr	r2, r2, #24
 504 06f4 0210CCE5 		strb	r1, [ip, #2]
 505 06f8 0320CCE5 		strb	r2, [ip, #3]
 506 06fc 3F10A0E3 		mov	r1, #63
 507 0700 64209DE5 		ldr	r2, [sp, #100]	@ float
 508 0704 5204E7E7 		ubfx	r0, r2, #8, #8
 509 0708 0420CCE5 		strb	r2, [ip, #4]
 510 070c 0500CCE5 		strb	r0, [ip, #5]
 511 0710 5208E7E7 		ubfx	r0, r2, #16, #8
 512 0714 222CA0E1 		lsr	r2, r2, #24
 513 0718 0600CCE5 		strb	r0, [ip, #6]
ARM GAS  C:\Users\ldebo\AppData\Local\Temp\cc9oeUFF.s 			page 10


 514 071c 0720CCE5 		strb	r2, [ip, #7]
 515 0720 68209DE5 		ldr	r2, [sp, #104]	@ float
 516 0724 5204E7E7 		ubfx	r0, r2, #8, #8
 517 0728 0820CCE5 		strb	r2, [ip, #8]
 518 072c 0900CCE5 		strb	r0, [ip, #9]
 519 0730 5208E7E7 		ubfx	r0, r2, #16, #8
 520 0734 222CA0E1 		lsr	r2, r2, #24
 521 0738 0A00CCE5 		strb	r0, [ip, #10]
 522 073c 0B20CCE5 		strb	r2, [ip, #11]
 523 0740 0C208CE2 		add	r2, ip, #12
 524 0744 20C09DE5 		ldr	ip, [sp, #32]
 525 0748 1C208DE5 		str	r2, [sp, #28]
 526 074c 6C209DE5 		ldr	r2, [sp, #108]	@ float
 527 0750 5204E7E7 		ubfx	r0, r2, #8, #8
 528 0754 0C30CCE5 		strb	r3, [ip, #12]
 529 0758 0820CCE5 		strb	r2, [ip, #8]
 530 075c 0900CCE5 		strb	r0, [ip, #9]
 531 0760 5208E7E7 		ubfx	r0, r2, #16, #8
 532 0764 0D30CCE5 		strb	r3, [ip, #13]
 533 0768 222CA0E1 		lsr	r2, r2, #24
 534 076c 0E30CCE5 		strb	r3, [ip, #14]
 535 0770 1030CCE5 		strb	r3, [ip, #16]
 536 0774 1130CCE5 		strb	r3, [ip, #17]
 537 0778 1230CCE5 		strb	r3, [ip, #18]
 538 077c 1430CCE5 		strb	r3, [ip, #20]
 539 0780 1530CCE5 		strb	r3, [ip, #21]
 540 0784 1630CCE5 		strb	r3, [ip, #22]
 541 0788 18308CE2 		add	r3, ip, #24
 542 078c 0A00CCE5 		strb	r0, [ip, #10]
 543 0790 0B20CCE5 		strb	r2, [ip, #11]
 544 0794 0F10CCE5 		strb	r1, [ip, #15]
 545 0798 1310CCE5 		strb	r1, [ip, #19]
 546 079c 1710CCE5 		strb	r1, [ip, #23]
 547 07a0 20308DE5 		str	r3, [sp, #32]
 548 07a4 72FEFFEA 		b	.L8
 549              	.L48:
 550 07a8 000000E3 		movw	r0, #:lower16:.LC12
 551 07ac 000040E3 		movt	r0, #:upper16:.LC12
 552 07b0 FEFFFFEB 		bl	printf
 553 07b4 88109AE5 		ldr	r1, [r10, #136]
 554 07b8 000000E3 		movw	r0, #:lower16:.LC13
 555 07bc 000040E3 		movt	r0, #:upper16:.LC13
 556 07c0 FEFFFFEB 		bl	printf
 557 07c4 8C109AE5 		ldr	r1, [r10, #140]
 558 07c8 000000E3 		movw	r0, #:lower16:.LC14
 559 07cc 000040E3 		movt	r0, #:upper16:.LC14
 560 07d0 0050A0E3 		mov	r5, #0
 561 07d4 FEFFFFEB 		bl	printf
 562 07d8 1FFEFFEA 		b	.L88
 563              	.L94:
 564 07dc 000000E3 		movw	r0, #:lower16:.LC15
 565 07e0 000040E3 		movt	r0, #:upper16:.LC15
 566 07e4 FEFFFFEB 		bl	printf
 567 07e8 1BFEFFEA 		b	.L88
 568              	.L54:
 569 07ec 000000E3 		movw	r0, #:lower16:.LC11
 570 07f0 000040E3 		movt	r0, #:upper16:.LC11
ARM GAS  C:\Users\ldebo\AppData\Local\Temp\cc9oeUFF.s 			page 11


 571 07f4 FEFFFFEB 		bl	printf
 572 07f8 17FEFFEA 		b	.L88
 573              	.L101:
 574 07fc 000000E3 		movw	r0, #:lower16:.LC4
 575 0800 000040E3 		movt	r0, #:upper16:.LC4
 576 0804 FEFFFFEB 		bl	printf
 577 0808 13FEFFEA 		b	.L88
 578              		.size	ParseWaveFrontMesh, .-ParseWaveFrontMesh
 579              		.align	2
 580              		.global	XRotationMatrix3D
 581              		.syntax unified
 582              		.arm
 583              		.fpu neon-vfpv4
 584              		.type	XRotationMatrix3D, %function
 585              	XRotationMatrix3D:
 586              		@ args = 0, pretend = 0, frame = 0
 587              		@ frame_needed = 0, uses_anonymous_args = 0
 588 080c 10402DE9 		push	{r4, lr}
 589 0810 0040A0E1 		mov	r4, r0
 590 0814 028B2DED 		vpush.64	{d8}
 591 0818 408AF0EE 		vmov.f32	s17, s0
 592 081c FEFFFFEB 		bl	sinf
 593 0820 408AB0EE 		vmov.f32	s16, s0
 594 0824 680AB0EE 		vmov.f32	s0, s17
 595 0828 FEFFFFEB 		bl	cosf
 596 082c 00C000E3 		movw	ip, #:lower16:.LANCHOR0
 597 0830 00C040E3 		movt	ip, #:upper16:.LANCHOR0
 598 0834 04E0A0E1 		mov	lr, r4
 599 0838 487AF1EE 		vneg.f32	s15, s16
 600 083c 0F00BCE8 		ldmia	ip!, {r0, r1, r2, r3}
 601 0840 0F00AEE8 		stmia	lr!, {r0, r1, r2, r3}
 602 0844 0F00BCE8 		ldmia	ip!, {r0, r1, r2, r3}
 603 0848 0F00AEE8 		stmia	lr!, {r0, r1, r2, r3}
 604 084c 0F00BCE8 		ldmia	ip!, {r0, r1, r2, r3}
 605 0850 0F00AEE8 		stmia	lr!, {r0, r1, r2, r3}
 606 0854 0F009CE8 		ldm	ip, {r0, r1, r2, r3}
 607 0858 0F008EE8 		stm	lr, {r0, r1, r2, r3}
 608 085c 0400A0E1 		mov	r0, r4
 609 0860 050A84ED 		vstr.32	s0, [r4, #20]
 610 0864 098A84ED 		vstr.32	s16, [r4, #36]
 611 0868 028BBDEC 		vldm	sp!, {d8}
 612 086c 067AC4ED 		vstr.32	s15, [r4, #24]
 613 0870 0A0A84ED 		vstr.32	s0, [r4, #40]
 614 0874 1080BDE8 		pop	{r4, pc}
 615              		.size	XRotationMatrix3D, .-XRotationMatrix3D
 616              		.align	2
 617              		.global	YRotationMatrix3D
 618              		.syntax unified
 619              		.arm
 620              		.fpu neon-vfpv4
 621              		.type	YRotationMatrix3D, %function
 622              	YRotationMatrix3D:
 623              		@ args = 0, pretend = 0, frame = 0
 624              		@ frame_needed = 0, uses_anonymous_args = 0
 625 0878 10402DE9 		push	{r4, lr}
 626 087c 0040A0E1 		mov	r4, r0
 627 0880 028B2DED 		vpush.64	{d8}
ARM GAS  C:\Users\ldebo\AppData\Local\Temp\cc9oeUFF.s 			page 12


 628 0884 408AF0EE 		vmov.f32	s17, s0
 629 0888 FEFFFFEB 		bl	sinf
 630 088c 408AB0EE 		vmov.f32	s16, s0
 631 0890 680AB0EE 		vmov.f32	s0, s17
 632 0894 FEFFFFEB 		bl	cosf
 633 0898 00C000E3 		movw	ip, #:lower16:.LANCHOR0
 634 089c 00C040E3 		movt	ip, #:upper16:.LANCHOR0
 635 08a0 04E0A0E1 		mov	lr, r4
 636 08a4 487AF1EE 		vneg.f32	s15, s16
 637 08a8 0F00BCE8 		ldmia	ip!, {r0, r1, r2, r3}
 638 08ac 0F00AEE8 		stmia	lr!, {r0, r1, r2, r3}
 639 08b0 0F00BCE8 		ldmia	ip!, {r0, r1, r2, r3}
 640 08b4 0F00AEE8 		stmia	lr!, {r0, r1, r2, r3}
 641 08b8 0F00BCE8 		ldmia	ip!, {r0, r1, r2, r3}
 642 08bc 0F00AEE8 		stmia	lr!, {r0, r1, r2, r3}
 643 08c0 0F009CE8 		ldm	ip, {r0, r1, r2, r3}
 644 08c4 0F008EE8 		stm	lr, {r0, r1, r2, r3}
 645 08c8 0400A0E1 		mov	r0, r4
 646 08cc 000A84ED 		vstr.32	s0, [r4]
 647 08d0 088A84ED 		vstr.32	s16, [r4, #32]
 648 08d4 028BBDEC 		vldm	sp!, {d8}
 649 08d8 027AC4ED 		vstr.32	s15, [r4, #8]
 650 08dc 0A0A84ED 		vstr.32	s0, [r4, #40]
 651 08e0 1080BDE8 		pop	{r4, pc}
 652              		.size	YRotationMatrix3D, .-YRotationMatrix3D
 653              		.align	2
 654              		.global	ZRotationMatrix3D
 655              		.syntax unified
 656              		.arm
 657              		.fpu neon-vfpv4
 658              		.type	ZRotationMatrix3D, %function
 659              	ZRotationMatrix3D:
 660              		@ args = 0, pretend = 0, frame = 0
 661              		@ frame_needed = 0, uses_anonymous_args = 0
 662 08e4 10402DE9 		push	{r4, lr}
 663 08e8 0040A0E1 		mov	r4, r0
 664 08ec 028B2DED 		vpush.64	{d8}
 665 08f0 408AF0EE 		vmov.f32	s17, s0
 666 08f4 FEFFFFEB 		bl	sinf
 667 08f8 408AB0EE 		vmov.f32	s16, s0
 668 08fc 680AB0EE 		vmov.f32	s0, s17
 669 0900 FEFFFFEB 		bl	cosf
 670 0904 00C000E3 		movw	ip, #:lower16:.LANCHOR0
 671 0908 00C040E3 		movt	ip, #:upper16:.LANCHOR0
 672 090c 04E0A0E1 		mov	lr, r4
 673 0910 487AF1EE 		vneg.f32	s15, s16
 674 0914 0F00BCE8 		ldmia	ip!, {r0, r1, r2, r3}
 675 0918 0F00AEE8 		stmia	lr!, {r0, r1, r2, r3}
 676 091c 0F00BCE8 		ldmia	ip!, {r0, r1, r2, r3}
 677 0920 0F00AEE8 		stmia	lr!, {r0, r1, r2, r3}
 678 0924 0F00BCE8 		ldmia	ip!, {r0, r1, r2, r3}
 679 0928 0F00AEE8 		stmia	lr!, {r0, r1, r2, r3}
 680 092c 0F009CE8 		ldm	ip, {r0, r1, r2, r3}
 681 0930 0F008EE8 		stm	lr, {r0, r1, r2, r3}
 682 0934 0400A0E1 		mov	r0, r4
 683 0938 000A84ED 		vstr.32	s0, [r4]
 684 093c 048A84ED 		vstr.32	s16, [r4, #16]
ARM GAS  C:\Users\ldebo\AppData\Local\Temp\cc9oeUFF.s 			page 13


 685 0940 028BBDEC 		vldm	sp!, {d8}
 686 0944 017AC4ED 		vstr.32	s15, [r4, #4]
 687 0948 050A84ED 		vstr.32	s0, [r4, #20]
 688 094c 1080BDE8 		pop	{r4, pc}
 689              		.size	ZRotationMatrix3D, .-ZRotationMatrix3D
 690              		.align	2
 691              		.global	MultiplyMatrix3D
 692              		.syntax unified
 693              		.arm
 694              		.fpu neon-vfpv4
 695              		.type	MultiplyMatrix3D, %function
 696              	MultiplyMatrix3D:
 697              		@ args = 132, pretend = 16, frame = 0
 698              		@ frame_needed = 0, uses_anonymous_args = 0
 699 0950 10D04DE2 		sub	sp, sp, #16
 700 0954 00C000E3 		movw	ip, #:lower16:.LANCHOR0
 701 0958 00C040E3 		movt	ip, #:upper16:.LANCHOR0
 702 095c 10402DE9 		push	{r4, lr}
 703 0960 0040A0E1 		mov	r4, r0
 704 0964 0C8B2DED 		vpush.64	{d8, d9, d10, d11, d12, d13}
 705 0968 3CE08DE2 		add	lr, sp, #60
 706 096c 0E008EE8 		stm	lr, {r1, r2, r3}
 707 0970 00E0A0E1 		mov	lr, r0
 708 0974 0F00BCE8 		ldmia	ip!, {r0, r1, r2, r3}
 709 0978 0F00AEE8 		stmia	lr!, {r0, r1, r2, r3}
 710 097c 0F00BCE8 		ldmia	ip!, {r0, r1, r2, r3}
 711 0980 0F00AEE8 		stmia	lr!, {r0, r1, r2, r3}
 712 0984 0F00BCE8 		ldmia	ip!, {r0, r1, r2, r3}
 713 0988 0F00AEE8 		stmia	lr!, {r0, r1, r2, r3}
 714 098c 0F009CE8 		ldm	ip, {r0, r1, r2, r3}
 715 0990 105A9DED 		vldr.32	s10, [sp, #64]
 716 0994 268ADDED 		vldr.32	s17, [sp, #152]
 717 0998 235ADDED 		vldr.32	s11, [sp, #140]
 718 099c 246A9DED 		vldr.32	s12, [sp, #144]
 719 09a0 257A9DED 		vldr.32	s14, [sp, #148]
 720 09a4 0F7ADDED 		vldr.32	s15, [sp, #60]
 721 09a8 854A68EE 		vmul.f32	s9, s17, s10
 722 09ac 218A9DED 		vldr.32	s16, [sp, #132]
 723 09b0 85BA65EE 		vmul.f32	s23, s11, s10
 724 09b4 291ADDED 		vldr.32	s3, [sp, #164]
 725 09b8 05AA66EE 		vmul.f32	s21, s12, s10
 726 09bc 059A67EE 		vmul.f32	s19, s14, s10
 727 09c0 115A9DED 		vldr.32	s10, [sp, #68]
 728 09c4 20AA9DED 		vldr.32	s20, [sp, #128]
 729 09c8 279AE8EE 		vfma.f32	s19, s16, s15
 730 09cc 1FCA9DED 		vldr.32	s24, [sp, #124]
 731 09d0 220A9DED 		vldr.32	s0, [sp, #136]
 732 09d4 859AE1EE 		vfma.f32	s19, s3, s10
 733 09d8 146ADDED 		vldr.32	s13, [sp, #80]
 734 09dc 27BA9DED 		vldr.32	s22, [sp, #156]
 735 09e0 27AAEAEE 		vfma.f32	s21, s20, s15
 736 09e4 280ADDED 		vldr.32	s1, [sp, #160]
 737 09e8 27BAECEE 		vfma.f32	s23, s24, s15
 738 09ec 2A2A9DED 		vldr.32	s4, [sp, #168]
 739 09f0 274AE0EE 		vfma.f32	s9, s0, s15
 740 09f4 13DADDED 		vldr.32	s27, [sp, #76]
 741 09f8 A59A26EE 		vmul.f32	s18, s13, s11
ARM GAS  C:\Users\ldebo\AppData\Local\Temp\cc9oeUFF.s 			page 14


 742 09fc 15DA9DED 		vldr.32	s26, [sp, #84]
 743 0a00 861A26EE 		vmul.f32	s2, s13, s12
 744 0a04 2C3A9DED 		vldr.32	s6, [sp, #176]
 745 0a08 05BAEBEE 		vfma.f32	s23, s22, s10
 746 0a0c 2B2ADDED 		vldr.32	s5, [sp, #172]
 747 0a10 877A66EE 		vmul.f32	s15, s13, s14
 748 0a14 12CADDED 		vldr.32	s25, [sp, #72]
 749 0a18 85AAE0EE 		vfma.f32	s21, s1, s10
 750 0a1c 2D3ADDED 		vldr.32	s7, [sp, #180]
 751 0a20 054AE2EE 		vfma.f32	s9, s4, s10
 752 0a24 2E4A9DED 		vldr.32	s8, [sp, #184]
 753 0a28 A85A26EE 		vmul.f32	s10, s13, s17
 754 0a2c 696AF0EE 		vmov.f32	s13, s19
 755 0a30 169ADDED 		vldr.32	s19, [sp, #88]
 756 0a34 887AEDEE 		vfma.f32	s15, s27, s16
 757 0a38 2CAAE3EE 		vfma.f32	s21, s6, s25
 758 0a3c 217AEDEE 		vfma.f32	s15, s26, s3
 759 0a40 8A1AADEE 		vfma.f32	s2, s27, s20
 760 0a44 ACBAE2EE 		vfma.f32	s23, s5, s25
 761 0a48 AC6AE3EE 		vfma.f32	s13, s7, s25
 762 0a4c 2C4AE4EE 		vfma.f32	s9, s8, s25
 763 0a50 A37AE9EE 		vfma.f32	s15, s19, s7
 764 0a54 201AADEE 		vfma.f32	s2, s26, s1
 765 0a58 8C9AADEE 		vfma.f32	s18, s27, s24
 766 0a5c 831AA9EE 		vfma.f32	s2, s19, s6
 767 0a60 0B9AADEE 		vfma.f32	s18, s26, s22
 768 0a64 A29AA9EE 		vfma.f32	s18, s19, s5
 769 0a68 0F008EE8 		stm	lr, {r0, r1, r2, r3}
 770 0a6c 805AADEE 		vfma.f32	s10, s27, s0
 771 0a70 01AAC4ED 		vstr.32	s21, [r4, #4]
 772 0a74 025AADEE 		vfma.f32	s10, s26, s4
 773 0a78 845AA9EE 		vfma.f32	s10, s19, s8
 774 0a7c 0400A0E1 		mov	r0, r4
 775 0a80 00BAC4ED 		vstr.32	s23, [r4]
 776 0a84 026AC4ED 		vstr.32	s13, [r4, #8]
 777 0a88 034AC4ED 		vstr.32	s9, [r4, #12]
 778 0a8c 186ADDED 		vldr.32	s13, [sp, #96]
 779 0a90 067AC4ED 		vstr.32	s15, [r4, #24]
 780 0a94 1C7ADDED 		vldr.32	s15, [sp, #112]
 781 0a98 17BADDED 		vldr.32	s23, [sp, #92]
 782 0a9c 1BAADDED 		vldr.32	s21, [sp, #108]
 783 0aa0 199ADDED 		vldr.32	s19, [sp, #100]
 784 0aa4 051A84ED 		vstr.32	s2, [r4, #20]
 785 0aa8 1D1A9DED 		vldr.32	s2, [sp, #116]
 786 0aac 049A84ED 		vstr.32	s18, [r4, #16]
 787 0ab0 A69A25EE 		vmul.f32	s18, s11, s13
 788 0ab4 A55A67EE 		vmul.f32	s11, s15, s11
 789 0ab8 2B9AACEE 		vfma.f32	s18, s24, s23
 790 0abc 8C5AEAEE 		vfma.f32	s11, s21, s24
 791 0ac0 299AABEE 		vfma.f32	s18, s22, s19
 792 0ac4 0B5AE1EE 		vfma.f32	s11, s2, s22
 793 0ac8 86BA26EE 		vmul.f32	s22, s13, s12
 794 0acc 866A27EE 		vmul.f32	s12, s15, s12
 795 0ad0 8ABAABEE 		vfma.f32	s22, s23, s20
 796 0ad4 8A6AAAEE 		vfma.f32	s12, s21, s20
 797 0ad8 87AA26EE 		vmul.f32	s20, s13, s14
 798 0adc A86A66EE 		vmul.f32	s13, s13, s17
ARM GAS  C:\Users\ldebo\AppData\Local\Temp\cc9oeUFF.s 			page 15


 799 0ae0 877A27EE 		vmul.f32	s14, s15, s14
 800 0ae4 A87A67EE 		vmul.f32	s15, s15, s17
 801 0ae8 A9BAA0EE 		vfma.f32	s22, s1, s19
 802 0aec 206AA1EE 		vfma.f32	s12, s2, s1
 803 0af0 1A4ADDED 		vldr.32	s9, [sp, #104]
 804 0af4 4A8AF0EE 		vmov.f32	s17, s20
 805 0af8 075A84ED 		vstr.32	s10, [r4, #28]
 806 0afc 888AEBEE 		vfma.f32	s17, s23, s16
 807 0b00 1E5A9DED 		vldr.32	s10, [sp, #120]
 808 0b04 806AEBEE 		vfma.f32	s13, s23, s0
 809 0b08 887AAAEE 		vfma.f32	s14, s21, s16
 810 0b0c 807AEAEE 		vfma.f32	s15, s21, s0
 811 0b10 24BAA3EE 		vfma.f32	s22, s6, s9
 812 0b14 826AE9EE 		vfma.f32	s13, s19, s4
 813 0b18 217AA1EE 		vfma.f32	s14, s2, s3
 814 0b1c 036AA5EE 		vfma.f32	s12, s10, s6
 815 0b20 027AE1EE 		vfma.f32	s15, s2, s4
 816 0b24 A49AA2EE 		vfma.f32	s18, s5, s9
 817 0b28 225AE5EE 		vfma.f32	s11, s10, s5
 818 0b2c 846AE4EE 		vfma.f32	s13, s9, s8
 819 0b30 237AA5EE 		vfma.f32	s14, s10, s7
 820 0b34 047AE5EE 		vfma.f32	s15, s10, s8
 821 0b38 09BA84ED 		vstr.32	s22, [r4, #36]
 822 0b3c 680AF0EE 		vmov.f32	s1, s17
 823 0b40 A10AE9EE 		vfma.f32	s1, s19, s3
 824 0b44 0D6A84ED 		vstr.32	s12, [r4, #52]
 825 0b48 089A84ED 		vstr.32	s18, [r4, #32]
 826 0b4c 0C5AC4ED 		vstr.32	s11, [r4, #48]
 827 0b50 0B6AC4ED 		vstr.32	s13, [r4, #44]
 828 0b54 0E7A84ED 		vstr.32	s14, [r4, #56]
 829 0b58 0F7AC4ED 		vstr.32	s15, [r4, #60]
 830 0b5c 603AB0EE 		vmov.f32	s6, s1
 831 0b60 A33AA4EE 		vfma.f32	s6, s9, s7
 832 0b64 0A3A84ED 		vstr.32	s6, [r4, #40]
 833 0b68 0C8BBDEC 		vldm	sp!, {d8-d13}
 834 0b6c 1040BDE8 		pop	{r4, lr}
 835 0b70 10D08DE2 		add	sp, sp, #16
 836 0b74 1EFF2FE1 		bx	lr
 837              		.size	MultiplyMatrix3D, .-MultiplyMatrix3D
 838              		.align	2
 839              		.global	TransformPoint3D
 840              		.syntax unified
 841              		.arm
 842              		.fpu neon-vfpv4
 843              		.type	TransformPoint3D, %function
 844              	TransformPoint3D:
 845              		@ args = 76, pretend = 16, frame = 0
 846              		@ frame_needed = 0, uses_anonymous_args = 0
 847              		@ link register save eliminated.
 848 0b78 10D04DE2 		sub	sp, sp, #16
 849 0b7c 005AB7EE 		vmov.f32	s10, #1.0e+0
 850 0b80 04C04DE2 		sub	ip, sp, #4
 851 0b84 0D7A9DED 		vldr.32	s14, [sp, #52]
 852 0b88 0C6A9DED 		vldr.32	s12, [sp, #48]
 853 0b8c 0E5ADDED 		vldr.32	s11, [sp, #56]
 854 0b90 0F3ADDED 		vldr.32	s7, [sp, #60]
 855 0b94 877A60EE 		vmul.f32	s15, s1, s14
ARM GAS  C:\Users\ldebo\AppData\Local\Temp\cc9oeUFF.s 			page 16


 856 0b98 0F008CE9 		stmib	ip, {r0, r1, r2, r3}
 857 0b9c 007AE6EE 		vfma.f32	s15, s12, s0
 858 0ba0 817AE5EE 		vfma.f32	s15, s11, s2
 859 0ba4 056ADDED 		vldr.32	s13, [sp, #20]
 860 0ba8 016A9DED 		vldr.32	s12, [sp, #4]
 861 0bac 095ADDED 		vldr.32	s11, [sp, #36]
 862 0bb0 002ADDED 		vldr.32	s5, [sp]
 863 0bb4 024A9DED 		vldr.32	s8, [sp, #8]
 864 0bb8 A67A20EE 		vmul.f32	s14, s1, s13
 865 0bbc 043A9DED 		vldr.32	s6, [sp, #16]
 866 0bc0 866A60EE 		vmul.f32	s13, s1, s12
 867 0bc4 A50A60EE 		vmul.f32	s1, s1, s11
 868 0bc8 065ADDED 		vldr.32	s11, [sp, #24]
 869 0bcc 226AE0EE 		vfma.f32	s13, s0, s5
 870 0bd0 084ADDED 		vldr.32	s9, [sp, #32]
 871 0bd4 A37A77EE 		vadd.f32	s15, s15, s7
 872 0bd8 046AE1EE 		vfma.f32	s13, s2, s8
 873 0bdc 0A6A9DED 		vldr.32	s12, [sp, #40]
 874 0be0 037AA0EE 		vfma.f32	s14, s0, s6
 875 0be4 257AA1EE 		vfma.f32	s14, s2, s11
 876 0be8 075ADDED 		vldr.32	s11, [sp, #28]
 877 0bec 240AE0EE 		vfma.f32	s1, s0, s9
 878 0bf0 034ADDED 		vldr.32	s9, [sp, #12]
 879 0bf4 407AF5EE 		vcmp.f32	s15, #0
 880 0bf8 40009DE5 		ldr	r0, [sp, #64]
 881 0bfc 060AE1EE 		vfma.f32	s1, s2, s12
 882 0c00 0B6A9DED 		vldr.32	s12, [sp, #44]
 883 0c04 44109DE5 		ldr	r1, [sp, #68]
 884 0c08 48209DE5 		ldr	r2, [sp, #72]
 885 0c0c 10D08DE2 		add	sp, sp, #16
 886 0c10 A46A76EE 		vadd.f32	s13, s13, s9
 887 0c14 10FAF1EE 		vmrs	APSR_nzcv, FPSCR
 888 0c18 457AF4EE 		vcmp.f32	s15, s10
 889 0c1c 257A37EE 		vadd.f32	s14, s14, s11
 890 0c20 860A70EE 		vadd.f32	s1, s1, s12
 891 0c24 0130A013 		movne	r3, #1
 892 0c28 0030A003 		moveq	r3, #0
 893 0c2c 10FAF1EE 		vmrs	APSR_nzcv, FPSCR
 894 0c30 0030A003 		moveq	r3, #0
 895 0c34 01300312 		andne	r3, r3, #1
 896 0c38 000053E3 		cmp	r3, #0
 897 0c3c A76AC61E 		vdivne.f32	s13, s13, s15
 898 0c40 277A871E 		vdivne.f32	s14, s14, s15
 899 0c44 A70AC01E 		vdivne.f32	s1, s1, s15
 900 0c48 000050E3 		cmp	r0, #0
 901 0c4c 006AC01D 		vstrne.32	s13, [r0]
 902 0c50 000051E3 		cmp	r1, #0
 903 0c54 007A811D 		vstrne.32	s14, [r1]
 904 0c58 000052E3 		cmp	r2, #0
 905 0c5c 000AC21D 		vstrne.32	s1, [r2]
 906 0c60 1EFF2FE1 		bx	lr
 907              		.size	TransformPoint3D, .-TransformPoint3D
 908              		.align	2
 909              		.global	InitV3D
 910              		.syntax unified
 911              		.arm
 912              		.fpu neon-vfpv4
ARM GAS  C:\Users\ldebo\AppData\Local\Temp\cc9oeUFF.s 			page 17


 913              		.type	InitV3D, %function
 914              	InitV3D:
 915              		@ args = 0, pretend = 0, frame = 0
 916              		@ frame_needed = 0, uses_anonymous_args = 0
 917 0c64 10402DE9 		push	{r4, lr}
 918 0c68 08C0A0E3 		mov	ip, #8
 919 0c6c 04E0A0E3 		mov	lr, #4
 920 0c70 20D04DE2 		sub	sp, sp, #32
 921 0c74 0110A0E3 		mov	r1, #1
 922 0c78 1230A0E3 		mov	r3, #18
 923 0c7c 033040E3 		movt	r3, 3
 924 0c80 80220BE3 		movw	r2, #45696
 925 0c84 E62E40E3 		movt	r2, 3814
 926 0c88 0540A0E3 		mov	r4, #5
 927 0c8c 0C308DE5 		str	r3, [sp, #12]
 928 0c90 08208DE5 		str	r2, [sp, #8]
 929 0c94 0C30A0E1 		mov	r3, ip
 930 0c98 18108DE5 		str	r1, [sp, #24]
 931 0c9c 022008E3 		movw	r2, #32770
 932 0ca0 032040E3 		movt	r2, 3
 933 0ca4 0910A0E3 		mov	r1, #9
 934 0ca8 14E08DE5 		str	lr, [sp, #20]
 935 0cac 0000A0E3 		mov	r0, #0
 936 0cb0 10E08DE5 		str	lr, [sp, #16]
 937 0cb4 04408DE5 		str	r4, [sp, #4]
 938 0cb8 00C08DE5 		str	ip, [sp]
 939 0cbc FEFFFFEB 		bl	mailbox_tag_message
 940 0cc0 000050E3 		cmp	r0, #0
 941 0cc4 0900000A 		beq	.L129
 942 0cc8 003000E3 		movw	r3, #:lower16:RPi_IO_Base_Addr
 943 0ccc 003040E3 		movt	r3, #:upper16:RPi_IO_Base_Addr
 944 0cd0 562303E3 		movw	r2, #13142
 945 0cd4 442240E3 		movt	r2, 580
 946 0cd8 003093E5 		ldr	r3, [r3]
 947 0cdc 033583E2 		add	r3, r3, #12582912
 948 0ce0 000093E5 		ldr	r0, [r3]
 949 0ce4 020040E0 		sub	r0, r0, r2
 950 0ce8 100F6FE1 		clz	r0, r0
 951 0cec A002A0E1 		lsr	r0, r0, #5
 952              	.L129:
 953 0cf0 20D08DE2 		add	sp, sp, #32
 954              		@ sp needed
 955 0cf4 1080BDE8 		pop	{r4, pc}
 956              		.size	InitV3D, .-InitV3D
 957              		.align	2
 958              		.global	V3D_mem_alloc
 959              		.syntax unified
 960              		.arm
 961              		.fpu neon-vfpv4
 962              		.type	V3D_mem_alloc, %function
 963              	V3D_mem_alloc:
 964              		@ args = 0, pretend = 0, frame = 24
 965              		@ frame_needed = 0, uses_anonymous_args = 0
 966 0cf8 04E02DE5 		str	lr, [sp, #-4]!
 967 0cfc 0CC0A0E3 		mov	ip, #12
 968 0d00 0C30A0E1 		mov	r3, ip
 969 0d04 2CD04DE2 		sub	sp, sp, #44
ARM GAS  C:\Users\ldebo\AppData\Local\Temp\cc9oeUFF.s 			page 18


 970 0d08 0C208DE5 		str	r2, [sp, #12]
 971 0d0c 0C20A0E1 		mov	r2, ip
 972 0d10 08108DE5 		str	r1, [sp, #8]
 973 0d14 032040E3 		movt	r2, 3
 974 0d18 04008DE5 		str	r0, [sp, #4]
 975 0d1c 0610A0E3 		mov	r1, #6
 976 0d20 00C08DE5 		str	ip, [sp]
 977 0d24 10008DE2 		add	r0, sp, #16
 978 0d28 FEFFFFEB 		bl	mailbox_tag_message
 979 0d2c 000050E3 		cmp	r0, #0
 980 0d30 1C009D15 		ldrne	r0, [sp, #28]
 981 0d34 2CD08DE2 		add	sp, sp, #44
 982              		@ sp needed
 983 0d38 04F09DE4 		ldr	pc, [sp], #4
 984              		.size	V3D_mem_alloc, .-V3D_mem_alloc
 985              		.align	2
 986              		.global	V3D_mem_free
 987              		.syntax unified
 988              		.arm
 989              		.fpu neon-vfpv4
 990              		.type	V3D_mem_free, %function
 991              	V3D_mem_free:
 992              		@ args = 0, pretend = 0, frame = 0
 993              		@ frame_needed = 0, uses_anonymous_args = 0
 994 0d3c 04E02DE5 		str	lr, [sp, #-4]!
 995 0d40 0430A0E3 		mov	r3, #4
 996 0d44 0310A0E1 		mov	r1, r3
 997 0d48 0CD04DE2 		sub	sp, sp, #12
 998 0d4c 0F20A0E3 		mov	r2, #15
 999 0d50 032040E3 		movt	r2, 3
 1000 0d54 04008DE5 		str	r0, [sp, #4]
 1001 0d58 0000A0E3 		mov	r0, #0
 1002 0d5c 00308DE5 		str	r3, [sp]
 1003 0d60 FEFFFFEB 		bl	mailbox_tag_message
 1004 0d64 0CD08DE2 		add	sp, sp, #12
 1005              		@ sp needed
 1006 0d68 04F09DE4 		ldr	pc, [sp], #4
 1007              		.size	V3D_mem_free, .-V3D_mem_free
 1008              		.align	2
 1009              		.global	V3D_mem_lock
 1010              		.syntax unified
 1011              		.arm
 1012              		.fpu neon-vfpv4
 1013              		.type	V3D_mem_lock, %function
 1014              	V3D_mem_lock:
 1015              		@ args = 0, pretend = 0, frame = 16
 1016              		@ frame_needed = 0, uses_anonymous_args = 0
 1017 0d6c 04E02DE5 		str	lr, [sp, #-4]!
 1018 0d70 0430A0E3 		mov	r3, #4
 1019 0d74 0310A0E1 		mov	r1, r3
 1020 0d78 1CD04DE2 		sub	sp, sp, #28
 1021 0d7c 0D20A0E3 		mov	r2, #13
 1022 0d80 032040E3 		movt	r2, 3
 1023 0d84 04008DE5 		str	r0, [sp, #4]
 1024 0d88 08008DE2 		add	r0, sp, #8
 1025 0d8c 00308DE5 		str	r3, [sp]
 1026 0d90 FEFFFFEB 		bl	mailbox_tag_message
ARM GAS  C:\Users\ldebo\AppData\Local\Temp\cc9oeUFF.s 			page 19


 1027 0d94 000050E3 		cmp	r0, #0
 1028 0d98 14009D15 		ldrne	r0, [sp, #20]
 1029 0d9c 1CD08DE2 		add	sp, sp, #28
 1030              		@ sp needed
 1031 0da0 04F09DE4 		ldr	pc, [sp], #4
 1032              		.size	V3D_mem_lock, .-V3D_mem_lock
 1033              		.align	2
 1034              		.global	V3D_mem_unlock
 1035              		.syntax unified
 1036              		.arm
 1037              		.fpu neon-vfpv4
 1038              		.type	V3D_mem_unlock, %function
 1039              	V3D_mem_unlock:
 1040              		@ args = 0, pretend = 0, frame = 0
 1041              		@ frame_needed = 0, uses_anonymous_args = 0
 1042 0da4 04E02DE5 		str	lr, [sp, #-4]!
 1043 0da8 0430A0E3 		mov	r3, #4
 1044 0dac 0310A0E1 		mov	r1, r3
 1045 0db0 0CD04DE2 		sub	sp, sp, #12
 1046 0db4 0E20A0E3 		mov	r2, #14
 1047 0db8 032040E3 		movt	r2, 3
 1048 0dbc 04008DE5 		str	r0, [sp, #4]
 1049 0dc0 0000A0E3 		mov	r0, #0
 1050 0dc4 00308DE5 		str	r3, [sp]
 1051 0dc8 FEFFFFEB 		bl	mailbox_tag_message
 1052 0dcc 0CD08DE2 		add	sp, sp, #12
 1053              		@ sp needed
 1054 0dd0 04F09DE4 		ldr	pc, [sp], #4
 1055              		.size	V3D_mem_unlock, .-V3D_mem_unlock
 1056              		.align	2
 1057              		.global	V3D_execute_code
 1058              		.syntax unified
 1059              		.arm
 1060              		.fpu neon-vfpv4
 1061              		.type	V3D_execute_code, %function
 1062              	V3D_execute_code:
 1063              		@ args = 12, pretend = 0, frame = 0
 1064              		@ frame_needed = 0, uses_anonymous_args = 0
 1065 0dd4 30402DE9 		push	{r4, r5, lr}
 1066 0dd8 1CC0A0E3 		mov	ip, #28
 1067 0ddc 24D04DE2 		sub	sp, sp, #36
 1068 0de0 30509DE5 		ldr	r5, [sp, #48]
 1069 0de4 34409DE5 		ldr	r4, [sp, #52]
 1070 0de8 38E09DE5 		ldr	lr, [sp, #56]
 1071 0dec 0C208DE5 		str	r2, [sp, #12]
 1072 0df0 1020A0E3 		mov	r2, #16
 1073 0df4 032040E3 		movt	r2, 3
 1074 0df8 10308DE5 		str	r3, [sp, #16]
 1075 0dfc 0C30A0E1 		mov	r3, ip
 1076 0e00 08108DE5 		str	r1, [sp, #8]
 1077 0e04 0A10A0E3 		mov	r1, #10
 1078 0e08 04008DE5 		str	r0, [sp, #4]
 1079 0e0c 0000A0E3 		mov	r0, #0
 1080 0e10 14508DE5 		str	r5, [sp, #20]
 1081 0e14 18408DE5 		str	r4, [sp, #24]
 1082 0e18 1CE08DE5 		str	lr, [sp, #28]
 1083 0e1c 00C08DE5 		str	ip, [sp]
ARM GAS  C:\Users\ldebo\AppData\Local\Temp\cc9oeUFF.s 			page 20


 1084 0e20 FEFFFFEB 		bl	mailbox_tag_message
 1085 0e24 24D08DE2 		add	sp, sp, #36
 1086              		@ sp needed
 1087 0e28 3080BDE8 		pop	{r4, r5, pc}
 1088              		.size	V3D_execute_code, .-V3D_execute_code
 1089              		.align	2
 1090              		.global	V3D_execute_qpu
 1091              		.syntax unified
 1092              		.arm
 1093              		.fpu neon-vfpv4
 1094              		.type	V3D_execute_qpu, %function
 1095              	V3D_execute_qpu:
 1096              		@ args = 0, pretend = 0, frame = 0
 1097              		@ frame_needed = 0, uses_anonymous_args = 0
 1098 0e2c 04E02DE5 		str	lr, [sp, #-4]!
 1099 0e30 10C0A0E3 		mov	ip, #16
 1100 0e34 1CD04DE2 		sub	sp, sp, #28
 1101 0e38 0C208DE5 		str	r2, [sp, #12]
 1102 0e3c 1120A0E3 		mov	r2, #17
 1103 0e40 032040E3 		movt	r2, 3
 1104 0e44 10308DE5 		str	r3, [sp, #16]
 1105 0e48 0C30A0E1 		mov	r3, ip
 1106 0e4c 08108DE5 		str	r1, [sp, #8]
 1107 0e50 0710A0E3 		mov	r1, #7
 1108 0e54 04008DE5 		str	r0, [sp, #4]
 1109 0e58 0000A0E3 		mov	r0, #0
 1110 0e5c 00C08DE5 		str	ip, [sp]
 1111 0e60 FEFFFFEB 		bl	mailbox_tag_message
 1112 0e64 1CD08DE2 		add	sp, sp, #28
 1113              		@ sp needed
 1114 0e68 04F09DE4 		ldr	pc, [sp], #4
 1115              		.size	V3D_execute_qpu, .-V3D_execute_qpu
 1116              		.align	2
 1117              		.global	DoRotate
 1118              		.syntax unified
 1119              		.arm
 1120              		.fpu neon-vfpv4
 1121              		.type	DoRotate, %function
 1122              	DoRotate:
 1123              		@ args = 0, pretend = 0, frame = 264
 1124              		@ frame_needed = 0, uses_anonymous_args = 0
 1125 0e6c 003000E3 		movw	r3, #:lower16:.LANCHOR1
 1126 0e70 003040E3 		movt	r3, #:upper16:.LANCHOR1
 1127 0e74 F04F2DE9 		push	{r4, r5, r6, r7, r8, r9, r10, fp, lr}
 1128 0e78 004000E3 		movw	r4, #:lower16:.LANCHOR0
 1129 0e7c 004040E3 		movt	r4, #:upper16:.LANCHOR0
 1130 0e80 0C8B2DED 		vpush.64	{d8, d9, d10, d11, d12, d13}
 1131 0e84 43DF4DE2 		sub	sp, sp, #268
 1132 0e88 008AD3ED 		vldr.32	s17, [r3]
 1133 0e8c 0260A0E1 		mov	r6, r2
 1134 0e90 CA1BDFED 		vldr.64	d17, .L173
 1135 0e94 03008DE8 		stm	sp, {r0, r1}
 1136 0e98 2C539FE5 		ldr	r5, .L173+12
 1137 0e9c 288A70EE 		vadd.f32	s17, s0, s17
 1138 0ea0 E80AF7EE 		vcvt.f64.f32	d16, s17
 1139 0ea4 E10BF4EE 		vcmpe.f64	d16, d17
 1140 0ea8 10FAF1EE 		vmrs	APSR_nzcv, FPSCR
ARM GAS  C:\Users\ldebo\AppData\Local\Temp\cc9oeUFF.s 			page 21


 1141 0eac E10B70AE 		vsubge.f64	d16, d16, d17
 1142 0eb0 E08BF7AE 		vcvtge.f32.f64	s17, d16
 1143 0eb4 680AB0EE 		vmov.f32	s0, s17
 1144 0eb8 008AC3ED 		vstr.32	s17, [r3]
 1145 0ebc FEFFFFEB 		bl	sinf
 1146 0ec0 408AB0EE 		vmov.f32	s16, s0
 1147 0ec4 680AB0EE 		vmov.f32	s0, s17
 1148 0ec8 FEFFFFEB 		bl	cosf
 1149 0ecc C8E08DE2 		add	lr, sp, #200
 1150 0ed0 0F00B4E8 		ldmia	r4!, {r0, r1, r2, r3}
 1151 0ed4 0E80A0E1 		mov	r8, lr
 1152 0ed8 0F00AEE8 		stmia	lr!, {r0, r1, r2, r3}
 1153 0edc 48AAF1EE 		vneg.f32	s21, s16
 1154 0ee0 48C08DE2 		add	ip, sp, #72
 1155 0ee4 0C70A0E1 		mov	r7, ip
 1156 0ee8 000056E3 		cmp	r6, #0
 1157 0eec 0F00B4E8 		ldmia	r4!, {r0, r1, r2, r3}
 1158 0ef0 0F00AEE8 		stmia	lr!, {r0, r1, r2, r3}
 1159 0ef4 0F00B4E8 		ldmia	r4!, {r0, r1, r2, r3}
 1160 0ef8 0F00AEE8 		stmia	lr!, {r0, r1, r2, r3}
 1161 0efc 0F0094E8 		ldm	r4, {r0, r1, r2, r3}
 1162 0f00 0F008EE8 		stm	lr, {r0, r1, r2, r3}
 1163 0f04 320A8DED 		vstr.32	s0, [sp, #200]
 1164 0f08 368A8DED 		vstr.32	s16, [sp, #216]
 1165 0f0c 370A8DED 		vstr.32	s0, [sp, #220]
 1166 0f10 33AACDED 		vstr.32	s21, [sp, #204]
 1167 0f14 0F00B8E8 		ldmia	r8!, {r0, r1, r2, r3}
 1168 0f18 0F00ACE8 		stmia	ip!, {r0, r1, r2, r3}
 1169 0f1c 0F00B8E8 		ldmia	r8!, {r0, r1, r2, r3}
 1170 0f20 0F00ACE8 		stmia	ip!, {r0, r1, r2, r3}
 1171 0f24 0F00B8E8 		ldmia	r8!, {r0, r1, r2, r3}
 1172 0f28 0F00ACE8 		stmia	ip!, {r0, r1, r2, r3}
 1173 0f2c 0F009EE8 		ldm	lr, {r0, r1, r2, r3}
 1174 0f30 0F008CE8 		stm	ip, {r0, r1, r2, r3}
 1175 0f34 0F00B7E8 		ldmia	r7!, {r0, r1, r2, r3}
 1176 0f38 0F00A5E8 		stmia	r5!, {r0, r1, r2, r3}
 1177 0f3c 0F00B7E8 		ldmia	r7!, {r0, r1, r2, r3}
 1178 0f40 0F00A5E8 		stmia	r5!, {r0, r1, r2, r3}
 1179 0f44 0F00B7E8 		ldmia	r7!, {r0, r1, r2, r3}
 1180 0f48 0F00A5E8 		stmia	r5!, {r0, r1, r2, r3}
 1181 0f4c 0F009CE8 		ldm	ip, {r0, r1, r2, r3}
 1182 0f50 0F0085E8 		stm	r5, {r0, r1, r2, r3}
 1183 0f54 E500000A 		beq	.L150
 1184 0f58 3CE096E5 		ldr	lr, [r6, #60]
 1185 0f5c 00005EE3 		cmp	lr, #0
 1186 0f60 E200000A 		beq	.L150
 1187 0f64 40C096E5 		ldr	ip, [r6, #64]
 1188 0f68 00005CE3 		cmp	ip, #0
 1189 0f6c DF00000A 		beq	.L150
 1190 0f70 449086E2 		add	r9, r6, #68
 1191 0f74 88808DE2 		add	r8, sp, #136
 1192 0f78 30B044E2 		sub	fp, r4, #48
 1193 0f7c C8508DE2 		add	r5, sp, #200
 1194 0f80 907ADFED 		vldr.32	s15, .L173+8
 1195 0f84 05A0A0E1 		mov	r10, r5
 1196 0f88 0F00B9E8 		ldmia	r9!, {r0, r1, r2, r3}
 1197 0f8c 08708DE2 		add	r7, sp, #8
ARM GAS  C:\Users\ldebo\AppData\Local\Temp\cc9oeUFF.s 			page 22


 1198 0f90 0F00A8E8 		stmia	r8!, {r0, r1, r2, r3}
 1199 0f94 0F00B9E8 		ldmia	r9!, {r0, r1, r2, r3}
 1200 0f98 0F00A8E8 		stmia	r8!, {r0, r1, r2, r3}
 1201 0f9c 0F00B9E8 		ldmia	r9!, {r0, r1, r2, r3}
 1202 0fa0 0F00A8E8 		stmia	r8!, {r0, r1, r2, r3}
 1203 0fa4 0F0099E8 		ldm	r9, {r0, r1, r2, r3}
 1204 0fa8 0F0088E8 		stm	r8, {r0, r1, r2, r3}
 1205 0fac 0F00BBE8 		ldmia	fp!, {r0, r1, r2, r3}
 1206 0fb0 235ADDED 		vldr.32	s11, [sp, #140]
 1207 0fb4 221ADDED 		vldr.32	s3, [sp, #136]
 1208 0fb8 276A9DED 		vldr.32	s12, [sp, #156]
 1209 0fbc 0F00A5E8 		stmia	r5!, {r0, r1, r2, r3}
 1210 0fc0 26DA9DED 		vldr.32	s26, [sp, #152]
 1211 0fc4 0F00BBE8 		ldmia	fp!, {r0, r1, r2, r3}
 1212 0fc8 A73A65EE 		vmul.f32	s7, s11, s15
 1213 0fcc A73AE1EE 		vfma.f32	s7, s3, s15
 1214 0fd0 274A26EE 		vmul.f32	s8, s12, s15
 1215 0fd4 274AADEE 		vfma.f32	s8, s26, s15
 1216 0fd8 2B6ADDED 		vldr.32	s13, [sp, #172]
 1217 0fdc 2F7A9DED 		vldr.32	s14, [sp, #188]
 1218 0fe0 069A68EE 		vmul.f32	s19, s16, s12
 1219 0fe4 2ACA9DED 		vldr.32	s24, [sp, #168]
 1220 0fe8 066A20EE 		vmul.f32	s12, s0, s12
 1221 0fec 2EBADDED 		vldr.32	s23, [sp, #184]
 1222 0ff0 0D9AE0EE 		vfma.f32	s19, s0, s26
 1223 0ff4 0F00A5E8 		stmia	r5!, {r0, r1, r2, r3}
 1224 0ff8 A74A66EE 		vmul.f32	s9, s13, s15
 1225 0ffc 275A27EE 		vmul.f32	s10, s14, s15
 1226 1000 0F00BBE8 		ldmia	fp!, {r0, r1, r2, r3}
 1227 1004 274AECEE 		vfma.f32	s9, s24, s15
 1228 1008 0F00A5E8 		stmia	r5!, {r0, r1, r2, r3}
 1229 100c A75AABEE 		vfma.f32	s10, s23, s15
 1230 1010 242A9DED 		vldr.32	s4, [sp, #144]
 1231 1014 28CADDED 		vldr.32	s25, [sp, #160]
 1232 1018 638AF0EE 		vmov.f32	s17, s7
 1233 101c 440AF0EE 		vmov.f32	s1, s8
 1234 1020 8D6AAAEE 		vfma.f32	s12, s21, s26
 1235 1024 252ADDED 		vldr.32	s5, [sp, #148]
 1236 1028 253A28EE 		vmul.f32	s6, s16, s11
 1237 102c 278AE2EE 		vfma.f32	s17, s4, s15
 1238 1030 2CBA9DED 		vldr.32	s22, [sp, #176]
 1239 1034 A70AECEE 		vfma.f32	s1, s25, s15
 1240 1038 2C4A34EE 		vadd.f32	s8, s8, s25
 1241 103c A79AECEE 		vfma.f32	s19, s25, s15
 1242 1040 A76AACEE 		vfma.f32	s12, s25, s15
 1243 1044 26CA68EE 		vmul.f32	s25, s16, s13
 1244 1048 30AA9DED 		vldr.32	s20, [sp, #192]
 1245 104c 0CCAE0EE 		vfma.f32	s25, s0, s24
 1246 1050 255A60EE 		vmul.f32	s11, s0, s11
 1247 1054 213AA0EE 		vfma.f32	s6, s0, s3
 1248 1058 A15AEAEE 		vfma.f32	s11, s21, s3
 1249 105c 273AA2EE 		vfma.f32	s6, s4, s15
 1250 1060 275AE2EE 		vfma.f32	s11, s4, s15
 1251 1064 823A73EE 		vadd.f32	s7, s7, s4
 1252 1068 641AB0EE 		vmov.f32	s2, s9
 1253 106c 459AB0EE 		vmov.f32	s18, s10
 1254 1070 A73AE2EE 		vfma.f32	s7, s5, s15
ARM GAS  C:\Users\ldebo\AppData\Local\Temp\cc9oeUFF.s 			page 23


 1255 1074 A73AA2EE 		vfma.f32	s6, s5, s15
 1256 1078 A75AE2EE 		vfma.f32	s11, s5, s15
 1257 107c 271AABEE 		vfma.f32	s2, s22, s15
 1258 1080 279AAAEE 		vfma.f32	s18, s20, s15
 1259 1084 291ADDED 		vldr.32	s3, [sp, #164]
 1260 1088 A28A78EE 		vadd.f32	s17, s17, s5
 1261 108c 2D2A9DED 		vldr.32	s4, [sp, #180]
 1262 1090 266A60EE 		vmul.f32	s13, s0, s13
 1263 1094 312ADDED 		vldr.32	s5, [sp, #196]
 1264 1098 078A28EE 		vmul.f32	s16, s16, s14
 1265 109c 077A20EE 		vmul.f32	s14, s0, s14
 1266 10a0 808AABEE 		vfma.f32	s16, s23, s0
 1267 10a4 8C6AEAEE 		vfma.f32	s13, s21, s24
 1268 10a8 AA7AABEE 		vfma.f32	s14, s23, s21
 1269 10ac 6C0AB0EE 		vmov.f32	s0, s25
 1270 10b0 8B4A74EE 		vadd.f32	s9, s9, s22
 1271 10b4 055A3AEE 		vadd.f32	s10, s20, s10
 1272 10b8 270AABEE 		vfma.f32	s0, s22, s15
 1273 10bc 276AEBEE 		vfma.f32	s13, s22, s15
 1274 10c0 278AAAEE 		vfma.f32	s16, s20, s15
 1275 10c4 277AAAEE 		vfma.f32	s14, s20, s15
 1276 10c8 A74AA1EE 		vfma.f32	s8, s3, s15
 1277 10cc 274AE2EE 		vfma.f32	s9, s4, s15
 1278 10d0 A75AA2EE 		vfma.f32	s10, s5, s15
 1279 10d4 A79AE1EE 		vfma.f32	s19, s3, s15
 1280 10d8 A76AA1EE 		vfma.f32	s12, s3, s15
 1281 10dc 270AA2EE 		vfma.f32	s0, s4, s15
 1282 10e0 276AE2EE 		vfma.f32	s13, s4, s15
 1283 10e4 A78AA2EE 		vfma.f32	s16, s5, s15
 1284 10e8 A77AA2EE 		vfma.f32	s14, s5, s15
 1285 10ec 358ACDED 		vstr.32	s17, [sp, #212]
 1286 10f0 343ACDED 		vstr.32	s7, [sp, #208]
 1287 10f4 323A8DED 		vstr.32	s6, [sp, #200]
 1288 10f8 335ACDED 		vstr.32	s11, [sp, #204]
 1289 10fc 0F00BAE8 		ldmia	r10!, {r0, r1, r2, r3}
 1290 1100 A11A70EE 		vadd.f32	s3, s1, s3
 1291 1104 022A31EE 		vadd.f32	s4, s2, s4
 1292 1108 892A72EE 		vadd.f32	s5, s5, s18
 1293 110c 0F00A7E8 		stmia	r7!, {r0, r1, r2, r3}
 1294 1110 384A8DED 		vstr.32	s8, [sp, #224]
 1295 1114 3C4ACDED 		vstr.32	s9, [sp, #240]
 1296 1118 405A8DED 		vstr.32	s10, [sp, #256]
 1297 111c 369ACDED 		vstr.32	s19, [sp, #216]
 1298 1120 391ACDED 		vstr.32	s3, [sp, #228]
 1299 1124 3D2A8DED 		vstr.32	s4, [sp, #244]
 1300 1128 412ACDED 		vstr.32	s5, [sp, #260]
 1301 112c 376A8DED 		vstr.32	s12, [sp, #220]
 1302 1130 3A0A8DED 		vstr.32	s0, [sp, #232]
 1303 1134 3B6ACDED 		vstr.32	s13, [sp, #236]
 1304 1138 3E8A8DED 		vstr.32	s16, [sp, #248]
 1305 113c 3F7A8DED 		vstr.32	s14, [sp, #252]
 1306 1140 0F00BAE8 		ldmia	r10!, {r0, r1, r2, r3}
 1307 1144 844096E5 		ldr	r4, [r6, #132]
 1308 1148 0F00A7E8 		stmia	r7!, {r0, r1, r2, r3}
 1309 114c 000054E3 		cmp	r4, #0
 1310 1150 0F00BAE8 		ldmia	r10!, {r0, r1, r2, r3}
 1311 1154 0F00A7E8 		stmia	r7!, {r0, r1, r2, r3}
ARM GAS  C:\Users\ldebo\AppData\Local\Temp\cc9oeUFF.s 			page 24


 1312 1158 0F0095E8 		ldm	r5, {r0, r1, r2, r3}
 1313 115c 0F0087E8 		stm	r7, {r0, r1, r2, r3}
 1314 1160 6200000A 		beq	.L150
 1315 1164 007ADDED 		vldr.32	s15, [sp]	@ int
 1316 1168 0010A0E3 		mov	r1, #0
 1317 116c 028ADDED 		vldr.32	s17, [sp, #8]
 1318 1170 038A9DED 		vldr.32	s16, [sp, #12]
 1319 1174 0100A0E1 		mov	r0, r1
 1320 1178 040A9DED 		vldr.32	s0, [sp, #16]
 1321 117c 000AF7EE 		vmov.f32	s1, #1.0e+0
 1322 1180 E75AF8EE 		vcvt.f32.s32	s11, s15
 1323 1184 017ADDED 		vldr.32	s15, [sp, #4]	@ int
 1324 1188 051A9DED 		vldr.32	s2, [sp, #20]
 1325 118c 8060A0E3 		mov	r6, #128
 1326 1190 061ADDED 		vldr.32	s3, [sp, #24]
 1327 1194 3F50A0E3 		mov	r5, #63
 1328 1198 072A9DED 		vldr.32	s4, [sp, #28]
 1329 119c E76AB8EE 		vcvt.f32.s32	s12, s15
 1330 11a0 082ADDED 		vldr.32	s5, [sp, #32]
 1331 11a4 093A9DED 		vldr.32	s6, [sp, #36]
 1332 11a8 0E3ADDED 		vldr.32	s7, [sp, #56]
 1333 11ac 0F4A9DED 		vldr.32	s8, [sp, #60]
 1334 11b0 104ADDED 		vldr.32	s9, [sp, #64]
 1335 11b4 115A9DED 		vldr.32	s10, [sp, #68]
 1336 11b8 040000EA 		b	.L174
 1337              	.L175:
 1338 11bc 00F020E3 		.align	3
 1339              	.L173:
 1340 11c0 4AD8124D 		.word	1293080650
 1341 11c4 FB211940 		.word	1075388923
 1342 11c8 00000000 		.word	0
 1343 11cc 04000000 		.word	.LANCHOR1+4
 1344              	.L174:
 1345              	.L156:
 1346 11d0 0520DCE5 		ldrb	r2, [ip, #5]	@ zero_extendqisi2
 1347 11d4 011081E2 		add	r1, r1, #1
 1348 11d8 0430DCE5 		ldrb	r3, [ip, #4]	@ zero_extendqisi2
 1349 11dc 18E08EE2 		add	lr, lr, #24
 1350 11e0 0180DCE5 		ldrb	r8, [ip, #1]	@ zero_extendqisi2
 1351 11e4 0CC08CE2 		add	ip, ip, #12
 1352 11e8 0C705CE5 		ldrb	r7, [ip, #-12]	@ zero_extendqisi2
 1353 11ec 06A05CE5 		ldrb	r10, [ip, #-6]	@ zero_extendqisi2
 1354 11f0 023483E1 		orr	r3, r3, r2, lsl #8
 1355 11f4 03905CE5 		ldrb	r9, [ip, #-3]	@ zero_extendqisi2
 1356 11f8 04205CE5 		ldrb	r2, [ip, #-4]	@ zero_extendqisi2
 1357 11fc 087487E1 		orr	r7, r7, r8, lsl #8
 1358 1200 05B05CE5 		ldrb	fp, [ip, #-5]	@ zero_extendqisi2
 1359 1204 0A3883E1 		orr	r3, r3, r10, lsl #16
 1360 1208 0A805CE5 		ldrb	r8, [ip, #-10]	@ zero_extendqisi2
 1361 120c 02A05CE5 		ldrb	r10, [ip, #-2]	@ zero_extendqisi2
 1362 1210 092482E1 		orr	r2, r2, r9, lsl #8
 1363 1214 09905CE5 		ldrb	r9, [ip, #-9]	@ zero_extendqisi2
 1364 1218 0B3C83E1 		orr	r3, r3, fp, lsl #24
 1365 121c 087887E1 		orr	r7, r7, r8, lsl #16
 1366 1220 01805CE5 		ldrb	r8, [ip, #-1]	@ zero_extendqisi2
 1367 1224 903A07EE 		vmov	s15, r3	@ int
 1368 1228 0A3882E1 		orr	r3, r2, r10, lsl #16
ARM GAS  C:\Users\ldebo\AppData\Local\Temp\cc9oeUFF.s 			page 25


 1369 122c 092C87E1 		orr	r2, r7, r9, lsl #24
 1370 1230 14004EE5 		strb	r0, [lr, #-20]
 1371 1234 083C83E1 		orr	r3, r3, r8, lsl #24
 1372 1238 902A09EE 		vmov	s19, r2	@ int
 1373 123c 103A09EE 		vmov	s18, r3	@ int
 1374 1240 13004EE5 		strb	r0, [lr, #-19]
 1375 1244 12604EE5 		strb	r6, [lr, #-18]
 1376 1248 846A67EE 		vmul.f32	s13, s15, s8
 1377 124c 887A27EE 		vmul.f32	s14, s15, s16
 1378 1250 827A67EE 		vmul.f32	s15, s15, s4
 1379 1254 11504EE5 		strb	r5, [lr, #-17]
 1380 1258 A36AE9EE 		vfma.f32	s13, s19, s7
 1381 125c A87AA9EE 		vfma.f32	s14, s19, s17
 1382 1260 246AE9EE 		vfma.f32	s13, s18, s9
 1383 1264 A17AE9EE 		vfma.f32	s15, s19, s3
 1384 1268 007AA9EE 		vfma.f32	s14, s18, s0
 1385 126c 227AE9EE 		vfma.f32	s15, s18, s5
 1386 1270 856A76EE 		vadd.f32	s13, s13, s10
 1387 1274 017A37EE 		vadd.f32	s14, s14, s2
 1388 1278 837A77EE 		vadd.f32	s15, s15, s6
 1389 127c 406AF5EE 		vcmp.f32	s13, #0
 1390 1280 10FAF1EE 		vmrs	APSR_nzcv, FPSCR
 1391 1284 606AF4EE 		vcmp.f32	s13, s1
 1392 1288 0130A013 		movne	r3, #1
 1393 128c 0030A003 		moveq	r3, #0
 1394 1290 10FAF1EE 		vmrs	APSR_nzcv, FPSCR
 1395 1294 0030A003 		moveq	r3, #0
 1396 1298 01300312 		andne	r3, r3, #1
 1397 129c 000053E3 		cmp	r3, #0
 1398 12a0 267A871E 		vdivne.f32	s14, s14, s13
 1399 12a4 A67AC71E 		vdivne.f32	s15, s15, s13
 1400 12a8 040051E1 		cmp	r1, r4
 1401 12ac 257A37EE 		vadd.f32	s14, s14, s11
 1402 12b0 867A77EE 		vadd.f32	s15, s15, s12
 1403 12b4 C77ABCEE 		vcvt.u32.f32	s14, s14
 1404 12b8 E77AFCEE 		vcvt.u32.f32	s15, s15
 1405 12bc 102A17EE 		vmov	r2, s14	@ int
 1406 12c0 903A17EE 		vmov	r3, s15	@ int
 1407 12c4 0222A0E1 		lsl	r2, r2, #4
 1408 12c8 0332A0E1 		lsl	r3, r3, #4
 1409 12cc 7220FFE6 		uxth	r2, r2
 1410 12d0 7330FFE6 		uxth	r3, r3
 1411 12d4 18204EE5 		strb	r2, [lr, #-24]
 1412 12d8 16304EE5 		strb	r3, [lr, #-22]
 1413 12dc 2224A0E1 		lsr	r2, r2, #8
 1414 12e0 2334A0E1 		lsr	r3, r3, #8
 1415 12e4 17204EE5 		strb	r2, [lr, #-23]
 1416 12e8 15304EE5 		strb	r3, [lr, #-21]
 1417 12ec B7FFFF1A 		bne	.L156
 1418              	.L150:
 1419 12f0 43DF8DE2 		add	sp, sp, #268
 1420              		@ sp needed
 1421 12f4 0C8BBDEC 		vldm	sp!, {d8-d13}
 1422 12f8 F08FBDE8 		pop	{r4, r5, r6, r7, r8, r9, r10, fp, pc}
 1423              		.size	DoRotate, .-DoRotate
 1424              		.align	2
 1425              		.global	RenderModel
ARM GAS  C:\Users\ldebo\AppData\Local\Temp\cc9oeUFF.s 			page 26


 1426              		.syntax unified
 1427              		.arm
 1428              		.fpu neon-vfpv4
 1429              		.type	RenderModel, %function
 1430              	RenderModel:
 1431              		@ args = 0, pretend = 0, frame = 0
 1432              		@ frame_needed = 0, uses_anonymous_args = 0
 1433              		@ link register save eliminated.
 1434 12fc 000050E3 		cmp	r0, #0
 1435 1300 1EFF2F01 		bxeq	lr
 1436 1304 001000E3 		movw	r1, #:lower16:RPi_IO_Base_Addr
 1437 1308 001040E3 		movt	r1, #:upper16:RPi_IO_Base_Addr
 1438 130c 0120A0E3 		mov	r2, #1
 1439 1310 003091E5 		ldr	r3, [r1]
 1440 1314 033583E2 		add	r3, r3, #12582912
 1441 1318 342183E5 		str	r2, [r3, #308]
 1442 131c 003091E5 		ldr	r3, [r1]
 1443 1320 042090E5 		ldr	r2, [r0, #4]
 1444 1324 033583E2 		add	r3, r3, #12582912
 1445 1328 102183E5 		str	r2, [r3, #272]
 1446 132c 003091E5 		ldr	r3, [r1]
 1447 1330 1CC090E5 		ldr	ip, [r0, #28]
 1448 1334 042090E5 		ldr	r2, [r0, #4]
 1449 1338 033583E2 		add	r3, r3, #12582912
 1450 133c 0C2082E0 		add	r2, r2, ip
 1451 1340 082183E5 		str	r2, [r3, #264]
 1452 1344 00C091E5 		ldr	ip, [r1]
 1453 1348 03C58CE2 		add	ip, ip, #12582912
 1454 134c 012C8CE2 		add	r2, ip, #256
 1455              	.L178:
 1456 1350 003092E5 		ldr	r3, [r2]
 1457 1354 200013E3 		tst	r3, #32
 1458 1358 FCFFFF1A 		bne	.L178
 1459 135c 4D2F8CE2 		add	r2, ip, #308
 1460              	.L179:
 1461 1360 003092E5 		ldr	r3, [r2]
 1462 1364 000053E3 		cmp	r3, #0
 1463 1368 FCFFFF0A 		beq	.L179
 1464 136c 2030A0E3 		mov	r3, #32
 1465 1370 0120A0E3 		mov	r2, #1
 1466 1374 00318CE5 		str	r3, [ip, #256]
 1467 1378 003091E5 		ldr	r3, [r1]
 1468 137c 033583E2 		add	r3, r3, #12582912
 1469 1380 382183E5 		str	r2, [r3, #312]
 1470 1384 003091E5 		ldr	r3, [r1]
 1471 1388 042090E5 		ldr	r2, [r0, #4]
 1472 138c 033583E2 		add	r3, r3, #12582912
 1473 1390 E22C82E2 		add	r2, r2, #57856
 1474 1394 142183E5 		str	r2, [r3, #276]
 1475 1398 002091E5 		ldr	r2, [r1]
 1476 139c 043090E5 		ldr	r3, [r0, #4]
 1477 13a0 200090E5 		ldr	r0, [r0, #32]
 1478 13a4 032582E2 		add	r2, r2, #12582912
 1479 13a8 003083E0 		add	r3, r3, r0
 1480 13ac E23C83E2 		add	r3, r3, #57856
 1481 13b0 0C3182E5 		str	r3, [r2, #268]
 1482 13b4 001091E5 		ldr	r1, [r1]
ARM GAS  C:\Users\ldebo\AppData\Local\Temp\cc9oeUFF.s 			page 27


 1483 13b8 031581E2 		add	r1, r1, #12582912
 1484 13bc 412F81E2 		add	r2, r1, #260
 1485              	.L180:
 1486 13c0 003092E5 		ldr	r3, [r2]
 1487 13c4 200013E3 		tst	r3, #32
 1488 13c8 FCFFFF1A 		bne	.L180
 1489 13cc 4E2F81E2 		add	r2, r1, #312
 1490              	.L181:
 1491 13d0 003092E5 		ldr	r3, [r2]
 1492 13d4 000053E3 		cmp	r3, #0
 1493 13d8 FCFFFF0A 		beq	.L181
 1494 13dc 2030A0E3 		mov	r3, #32
 1495 13e0 043181E5 		str	r3, [r1, #260]
 1496 13e4 1EFF2FE1 		bx	lr
 1497              		.size	RenderModel, .-RenderModel
 1498              		.align	2
 1499              		.global	SetupRenderer
 1500              		.syntax unified
 1501              		.arm
 1502              		.fpu neon-vfpv4
 1503              		.type	SetupRenderer, %function
 1504              	SetupRenderer:
 1505              		@ args = 0, pretend = 0, frame = 64
 1506              		@ frame_needed = 0, uses_anonymous_args = 0
 1507 13e8 000050E3 		cmp	r0, #0
 1508 13ec F04F2DE9 		push	{r4, r5, r6, r7, r8, r9, r10, fp, lr}
 1509 13f0 54D04DE2 		sub	sp, sp, #84
 1510 13f4 4401000A 		beq	.L195
 1511 13f8 0CC0A0E3 		mov	ip, #12
 1512 13fc 0240A0E1 		mov	r4, r2
 1513 1400 012AA0E3 		mov	r2, #4096
 1514 1404 03A0A0E1 		mov	r10, r3
 1515 1408 08208DE5 		str	r2, [sp, #8]
 1516 140c 1830A0E3 		mov	r3, #24
 1517 1410 0C20A0E1 		mov	r2, ip
 1518 1414 0150A0E1 		mov	r5, r1
 1519 1418 0215A0E3 		mov	r1, #8388608
 1520 141c 14008DE5 		str	r0, [sp, #20]
 1521 1420 0C308DE5 		str	r3, [sp, #12]
 1522 1424 0060A0E1 		mov	r6, r0
 1523 1428 0C30A0E1 		mov	r3, ip
 1524 142c 04108DE5 		str	r1, [sp, #4]
 1525 1430 38008DE2 		add	r0, sp, #56
 1526 1434 032040E3 		movt	r2, 3
 1527 1438 0610A0E3 		mov	r1, #6
 1528 143c 00C08DE5 		str	ip, [sp]
 1529 1440 FEFFFFEB 		bl	mailbox_tag_message
 1530 1444 003050E2 		subs	r3, r0, #0
 1531 1448 24308DE5 		str	r3, [sp, #36]
 1532 144c 2601000A 		beq	.L194
 1533 1450 44209DE5 		ldr	r2, [sp, #68]
 1534 1454 000052E3 		cmp	r2, #0
 1535 1458 002086E5 		str	r2, [r6]
 1536 145c 2A01000A 		beq	.L195
 1537 1460 0430A0E3 		mov	r3, #4
 1538 1464 04208DE5 		str	r2, [sp, #4]
 1539 1468 0310A0E1 		mov	r1, r3
ARM GAS  C:\Users\ldebo\AppData\Local\Temp\cc9oeUFF.s 			page 28


 1540 146c 00308DE5 		str	r3, [sp]
 1541 1470 38008DE2 		add	r0, sp, #56
 1542 1474 0D20A0E3 		mov	r2, #13
 1543 1478 032040E3 		movt	r2, 3
 1544 147c FEFFFFEB 		bl	mailbox_tag_message
 1545 1480 000050E3 		cmp	r0, #0
 1546 1484 14B09DE5 		ldr	fp, [sp, #20]
 1547 1488 0D90A0E3 		mov	r9, #13
 1548 148c 9580A0E3 		mov	r8, #149
 1549 1490 BF6D00E3 		movw	r6, #3519
 1550 1494 8E6549E3 		movt	r6, 38286
 1551 1498 44009D15 		ldrne	r0, [sp, #68]
 1552 149c D170A0E3 		mov	r7, #209
 1553 14a0 04008BE5 		str	r0, [fp, #4]
 1554 14a4 FEFFFFEB 		bl	GPUaddrToARMaddr
 1555 14a8 3F1085E2 		add	r1, r5, #63
 1556 14ac FE3C80E2 		add	r3, r0, #65024
 1557 14b0 3F2084E2 		add	r2, r4, #63
 1558 14b4 0C508BE5 		str	r5, [fp, #12]
 1559 14b8 2113A0E1 		lsr	r1, r1, #6
 1560 14bc 2223A0E1 		lsr	r2, r2, #6
 1561 14c0 625804E3 		movw	r5, #18530
 1562 14c4 025041E3 		movt	r5, 4098
 1563 14c8 08008BE5 		str	r0, [fp, #8]
 1564 14cc 23E804E3 		movw	lr, #18467
 1565 14d0 72E14DE3 		movt	lr, 53618
 1566 14d4 14108BE5 		str	r1, [fp, #20]
 1567 14d8 4000A0E3 		mov	r0, #64
 1568 14dc 10408BE5 		str	r4, [fp, #16]
 1569 14e0 21C804E3 		movw	ip, #18465
 1570 14e4 02C044E3 		movt	ip, 16386
 1571 14e8 18208BE5 		str	r2, [fp, #24]
 1572 14ec 7540A0E3 		mov	r4, #117
 1573 14f0 1450C3E5 		strb	r5, [r3, #20]
 1574 14f4 401507E3 		movw	r1, #30016
 1575 14f8 9E1148E3 		movt	r1, 33182
 1576 14fc 7150A0E3 		mov	r5, #113
 1577 1500 8E20A0E3 		mov	r2, #142
 1578 1504 0060C3E5 		strb	r6, [r3]
 1579 1508 4860A0E3 		mov	r6, #72
 1580 150c 0190C3E5 		strb	r9, [r3, #1]
 1581 1510 1090A0E3 		mov	r9, #16
 1582 1514 0380C3E5 		strb	r8, [r3, #3]
 1583 1518 768107E3 		movw	r8, #29046
 1584 151c 8E8148E3 		movt	r8, 33166
 1585 1520 04E0C3E5 		strb	lr, [r3, #4]
 1586 1524 81E0A0E3 		mov	lr, #129
 1587 1528 0CC0C3E5 		strb	ip, [r3, #12]
 1588 152c 02C0A0E3 		mov	ip, #2
 1589 1530 0F00C3E5 		strb	r0, [r3, #15]
 1590 1534 7300A0E3 		mov	r0, #115
 1591 1538 1810C3E5 		strb	r1, [r3, #24]
 1592 153c 9E10A0E3 		mov	r1, #158
 1593 1540 1940C3E5 		strb	r4, [r3, #25]
 1594 1544 A34804E3 		movw	r4, #18595
 1595 1548 424141E3 		movt	r4, 4418
 1596 154c 14B08DE5 		str	fp, [sp, #20]
ARM GAS  C:\Users\ldebo\AppData\Local\Temp\cc9oeUFF.s 			page 29


 1597 1550 72B0A0E3 		mov	fp, #114
 1598 1554 0770C3E5 		strb	r7, [r3, #7]
 1599 1558 097007E3 		movw	r7, #28681
 1600 155c 9E7048E3 		movt	r7, 32926
 1601 1560 0220C3E5 		strb	r2, [r3, #2]
 1602 1564 0A20C3E5 		strb	r2, [r3, #10]
 1603 1568 1220C3E5 		strb	r2, [r3, #18]
 1604 156c 122007E3 		movw	r2, #28690
 1605 1570 9E2048E3 		movt	r2, 32926
 1606 1574 0560C3E5 		strb	r6, [r3, #5]
 1607 1578 0D60C3E5 		strb	r6, [r3, #13]
 1608 157c 1560C3E5 		strb	r6, [r3, #21]
 1609 1580 06B0C3E5 		strb	fp, [r3, #6]
 1610 1584 0880C3E5 		strb	r8, [r3, #8]
 1611 1588 1080C3E5 		strb	r8, [r3, #16]
 1612 158c 6080A0E3 		mov	r8, #96
 1613 1590 0950C3E5 		strb	r5, [r3, #9]
 1614 1594 A75B00E3 		movw	r5, #2983
 1615 1598 025043E3 		movt	r5, 12290
 1616 159c 0BE0C3E5 		strb	lr, [r3, #11]
 1617 15a0 13E0C3E5 		strb	lr, [r3, #19]
 1618 15a4 0EC0C3E5 		strb	ip, [r3, #14]
 1619 15a8 16C0C3E5 		strb	ip, [r3, #22]
 1620 15ac 1790C3E5 		strb	r9, [r3, #23]
 1621 15b0 1100C3E5 		strb	r0, [r3, #17]
 1622 15b4 1A10C3E5 		strb	r1, [r3, #26]
 1623 15b8 1C40C3E5 		strb	r4, [r3, #28]
 1624 15bc 4240A0E3 		mov	r4, #66
 1625 15c0 1BE0C3E5 		strb	lr, [r3, #27]
 1626 15c4 C0E607E3 		movw	lr, #30400
 1627 15c8 9EE541E3 		movt	lr, 5534
 1628 15cc 1D60C3E5 		strb	r6, [r3, #29]
 1629 15d0 1560A0E3 		mov	r6, #21
 1630 15d4 36C0C3E5 		strb	ip, [r3, #54]
 1631 15d8 76C0A0E3 		mov	ip, #118
 1632 15dc 2070C3E5 		strb	r7, [r3, #32]
 1633 15e0 0B70A0E3 		mov	r7, #11
 1634 15e4 1E40C3E5 		strb	r4, [r3, #30]
 1635 15e8 1140A0E3 		mov	r4, #17
 1636 15ec 2820C3E5 		strb	r2, [r3, #40]
 1637 15f0 3020A0E3 		mov	r2, #48
 1638 15f4 2E80C3E5 		strb	r8, [r3, #46]
 1639 15f8 0080A0E3 		mov	r8, #0
 1640 15fc 30E0C3E5 		strb	lr, [r3, #48]
 1641 1600 70E0A0E3 		mov	lr, #112
 1642 1604 31C0C3E5 		strb	ip, [r3, #49]
 1643 1608 80C0A0E3 		mov	ip, #128
 1644 160c 3360C3E5 		strb	r6, [r3, #51]
 1645 1610 E36904E3 		movw	r6, #18915
 1646 1614 506141E3 		movt	r6, 4432
 1647 1618 3450C3E5 		strb	r5, [r3, #52]
 1648 161c 4950A0E3 		mov	r5, #73
 1649 1620 3570C3E5 		strb	r7, [r3, #53]
 1650 1624 5070A0E3 		mov	r7, #80
 1651 1628 2210C3E5 		strb	r1, [r3, #34]
 1652 162c 2A10C3E5 		strb	r1, [r3, #42]
 1653 1630 3210C3E5 		strb	r1, [r3, #50]
ARM GAS  C:\Users\ldebo\AppData\Local\Temp\cc9oeUFF.s 			page 30


 1654 1634 3A10C3E5 		strb	r1, [r3, #58]
 1655 1638 3720C3E5 		strb	r2, [r3, #55]
 1656 163c E72900E3 		movw	r2, #2535
 1657 1640 002041E3 		movt	r2, 4096
 1658 1644 21E0C3E5 		strb	lr, [r3, #33]
 1659 1648 29E0C3E5 		strb	lr, [r3, #41]
 1660 164c 39E0C3E5 		strb	lr, [r3, #57]
 1661 1650 23C0C3E5 		strb	ip, [r3, #35]
 1662 1654 2BC0C3E5 		strb	ip, [r3, #43]
 1663 1658 09C0A0E3 		mov	ip, #9
 1664 165c 2460C3E5 		strb	r6, [r3, #36]
 1665 1660 2C60C3E5 		strb	r6, [r3, #44]
 1666 1664 0460A0E3 		mov	r6, #4
 1667 1668 2550C3E5 		strb	r5, [r3, #37]
 1668 166c 2D50C3E5 		strb	r5, [r3, #45]
 1669 1670 5A54E7E7 		ubfx	r5, r10, #8, #8
 1670 1674 2670C3E5 		strb	r7, [r3, #38]
 1671 1678 1F40C3E5 		strb	r4, [r3, #31]
 1672 167c 2740C3E5 		strb	r4, [r3, #39]
 1673 1680 2F40C3E5 		strb	r4, [r3, #47]
 1674 1684 3880C3E5 		strb	r8, [r3, #56]
 1675 1688 3B80C3E5 		strb	r8, [r3, #59]
 1676 168c 3F90C3E5 		strb	r9, [r3, #63]
 1677 1690 14909DE5 		ldr	r9, [sp, #20]
 1678 1694 3C20C3E5 		strb	r2, [r3, #60]
 1679 1698 41E0C3E5 		strb	lr, [r3, #65]
 1680 169c 5AE8E7E7 		ubfx	lr, r10, #16, #8
 1681 16a0 4210C3E5 		strb	r1, [r3, #66]
 1682 16a4 5A1CE7E7 		ubfx	r1, r10, #24, #8
 1683 16a8 4420C3E5 		strb	r2, [r3, #68]
 1684 16ac FF20A0E3 		mov	r2, #255
 1685 16b0 4770C3E5 		strb	r7, [r3, #71]
 1686 16b4 1C70A0E3 		mov	r7, #28
 1687 16b8 3E80C3E5 		strb	r8, [r3, #62]
 1688 16bc 4080C3E5 		strb	r8, [r3, #64]
 1689 16c0 4380C3E5 		strb	r8, [r3, #67]
 1690 16c4 4680C3E5 		strb	r8, [r3, #70]
 1691 16c8 3DC0C3E5 		strb	ip, [r3, #61]
 1692 16cc 45C0C3E5 		strb	ip, [r3, #69]
 1693 16d0 08C099E5 		ldr	ip, [r9, #8]
 1694 16d4 E2CC8CE2 		add	ip, ip, #57856
 1695 16d8 23308CE2 		add	r3, ip, #35
 1696 16dc 00B0CCE5 		strb	fp, [ip]
 1697 16e0 71B0A0E3 		mov	fp, #113
 1698 16e4 1210CCE5 		strb	r1, [ip, #18]
 1699 16e8 0EB0CCE5 		strb	fp, [ip, #14]
 1700 16ec 09B0A0E1 		mov	fp, r9
 1701 16f0 0420CCE5 		strb	r2, [ip, #4]
 1702 16f4 0180CCE5 		strb	r8, [ip, #1]
 1703 16f8 0280CCE5 		strb	r8, [ip, #2]
 1704 16fc 0380CCE5 		strb	r8, [ip, #3]
 1705 1700 0580CCE5 		strb	r8, [ip, #5]
 1706 1704 0680CCE5 		strb	r8, [ip, #6]
 1707 1708 0780CCE5 		strb	r8, [ip, #7]
 1708 170c 0980CCE5 		strb	r8, [ip, #9]
 1709 1710 0A80CCE5 		strb	r8, [ip, #10]
 1710 1714 0B80CCE5 		strb	r8, [ip, #11]
ARM GAS  C:\Users\ldebo\AppData\Local\Temp\cc9oeUFF.s 			page 31


 1711 1718 0C80CCE5 		strb	r8, [ip, #12]
 1712 171c 0D80CCE5 		strb	r8, [ip, #13]
 1713 1720 0FA0CCE5 		strb	r10, [ip, #15]
 1714 1724 1050CCE5 		strb	r5, [ip, #16]
 1715 1728 11E0CCE5 		strb	lr, [ip, #17]
 1716 172c 0820CCE5 		strb	r2, [ip, #8]
 1717 1730 0C2099E5 		ldr	r2, [r9, #12]
 1718 1734 B823CDE1 		strh	r2, [sp, #56]	@ movhi
 1719 1738 1320CCE5 		strb	r2, [ip, #19]
 1720 173c 3920DDE5 		ldrb	r2, [sp, #57]	@ zero_extendqisi2
 1721 1740 1420CCE5 		strb	r2, [ip, #20]
 1722 1744 102099E5 		ldr	r2, [r9, #16]
 1723 1748 1880CCE5 		strb	r8, [ip, #24]
 1724 174c 5214E7E7 		ubfx	r1, r2, #8, #8
 1725 1750 1520CCE5 		strb	r2, [ip, #21]
 1726 1754 1610CCE5 		strb	r1, [ip, #22]
 1727 1758 1900CCE5 		strb	r0, [ip, #25]
 1728 175c 1A80CCE5 		strb	r8, [ip, #26]
 1729 1760 1B80CCE5 		strb	r8, [ip, #27]
 1730 1764 1D80CCE5 		strb	r8, [ip, #29]
 1731 1768 1E80CCE5 		strb	r8, [ip, #30]
 1732 176c 1F80CCE5 		strb	r8, [ip, #31]
 1733 1770 2080CCE5 		strb	r8, [ip, #32]
 1734 1774 2180CCE5 		strb	r8, [ip, #33]
 1735 1778 2280CCE5 		strb	r8, [ip, #34]
 1736 177c 1760CCE5 		strb	r6, [ip, #23]
 1737 1780 1C70CCE5 		strb	r7, [ip, #28]
 1738 1784 142099E5 		ldr	r2, [r9, #20]
 1739 1788 080052E1 		cmp	r2, r8
 1740 178c 18208DE5 		str	r2, [sp, #24]
 1741 1790 6200000A 		beq	.L208
 1742 1794 18C099E5 		ldr	ip, [r9, #24]
 1743 1798 0060A0E1 		mov	r6, r0
 1744 179c 10308DE5 		str	r3, [sp, #16]
 1745 17a0 0890A0E1 		mov	r9, r8
 1746 17a4 8252A0E1 		lsl	r5, r2, #5
 1747 17a8 1870A0E3 		mov	r7, #24
 1748 17ac 8C318CE0 		add	r3, ip, ip, lsl #3
 1749 17b0 1C308DE5 		str	r3, [sp, #28]
 1750 17b4 01304CE2 		sub	r3, ip, #1
 1751 17b8 2C308DE5 		str	r3, [sp, #44]
 1752 17bc 013042E2 		sub	r3, r2, #1
 1753 17c0 20308DE5 		str	r3, [sp, #32]
 1754              	.L198:
 1755 17c4 00005CE3 		cmp	ip, #0
 1756 17c8 3700000A 		beq	.L202
 1757 17cc 20309DE5 		ldr	r3, [sp, #32]
 1758 17d0 79E0EFE6 		uxtb	lr, r9
 1759 17d4 0010A0E3 		mov	r1, #0
 1760 17d8 090053E1 		cmp	r3, r9
 1761 17dc 14309DE5 		ldr	r3, [sp, #20]
 1762 17e0 28908D05 		streq	r9, [sp, #40]
 1763 17e4 2CB09D05 		ldreq	fp, [sp, #44]
 1764 17e8 042093E5 		ldr	r2, [r3, #4]
 1765 17ec 10309DE5 		ldr	r3, [sp, #16]
 1766 17f0 062A82E2 		add	r2, r2, #24576
 1767 17f4 082082E0 		add	r2, r2, r8
ARM GAS  C:\Users\ldebo\AppData\Local\Temp\cc9oeUFF.s 			page 32


 1768 17f8 1500000A 		beq	.L204
 1769              	.L205:
 1770 17fc 0210C3E5 		strb	r1, [r3, #2]
 1771 1800 011081E2 		add	r1, r1, #1
 1772 1804 0C0051E1 		cmp	r1, ip
 1773 1808 52B4E7E7 		ubfx	fp, r2, #8, #8
 1774 180c 52A8E7E7 		ubfx	r10, r2, #16, #8
 1775 1810 220CA0E1 		lsr	r0, r2, #24
 1776 1814 0420C3E5 		strb	r2, [r3, #4]
 1777 1818 052082E0 		add	r2, r2, r5
 1778 181c 0060C3E5 		strb	r6, [r3]
 1779 1820 093083E2 		add	r3, r3, #9
 1780 1824 08E043E5 		strb	lr, [r3, #-8]
 1781 1828 064043E5 		strb	r4, [r3, #-6]
 1782 182c 017043E5 		strb	r7, [r3, #-1]
 1783 1830 04B043E5 		strb	fp, [r3, #-4]
 1784 1834 03A043E5 		strb	r10, [r3, #-3]
 1785 1838 020043E5 		strb	r0, [r3, #-2]
 1786 183c EEFFFF1A 		bne	.L205
 1787 1840 150000EA 		b	.L201
 1788              	.L199:
 1789 1844 0C0051E1 		cmp	r1, ip
 1790 1848 0870C3E5 		strb	r7, [r3, #8]
 1791 184c 093083E2 		add	r3, r3, #9
 1792 1850 2B00000A 		beq	.L218
 1793              	.L204:
 1794 1854 01005BE1 		cmp	fp, r1
 1795 1858 52A4E7E7 		ubfx	r10, r2, #8, #8
 1796 185c 5298E7E7 		ubfx	r9, r2, #16, #8
 1797 1860 220CA0E1 		lsr	r0, r2, #24
 1798 1864 0210C3E5 		strb	r1, [r3, #2]
 1799 1868 011081E2 		add	r1, r1, #1
 1800 186c 0420C3E5 		strb	r2, [r3, #4]
 1801 1870 052082E0 		add	r2, r2, r5
 1802 1874 0060C3E5 		strb	r6, [r3]
 1803 1878 01E0C3E5 		strb	lr, [r3, #1]
 1804 187c 0340C3E5 		strb	r4, [r3, #3]
 1805 1880 05A0C3E5 		strb	r10, [r3, #5]
 1806 1884 0690C3E5 		strb	r9, [r3, #6]
 1807 1888 0700C3E5 		strb	r0, [r3, #7]
 1808 188c ECFFFF1A 		bne	.L199
 1809 1890 1920A0E3 		mov	r2, #25
 1810 1894 28909DE5 		ldr	r9, [sp, #40]
 1811 1898 0820C3E5 		strb	r2, [r3, #8]
 1812              	.L201:
 1813 189c 10309DE5 		ldr	r3, [sp, #16]
 1814 18a0 1C209DE5 		ldr	r2, [sp, #28]
 1815 18a4 023083E0 		add	r3, r3, r2
 1816 18a8 10308DE5 		str	r3, [sp, #16]
 1817              	.L202:
 1818 18ac 18309DE5 		ldr	r3, [sp, #24]
 1819 18b0 019089E2 		add	r9, r9, #1
 1820 18b4 208088E2 		add	r8, r8, #32
 1821 18b8 030059E1 		cmp	r9, r3
 1822 18bc C0FFFF1A 		bne	.L198
 1823              	.L197:
 1824 18c0 14109DE5 		ldr	r1, [sp, #20]
ARM GAS  C:\Users\ldebo\AppData\Local\Temp\cc9oeUFF.s 			page 33


 1825 18c4 1E3CA0E3 		mov	r3, #7680
 1826 18c8 FF3F4FE3 		movt	r3, 65535
 1827 18cc 24009DE5 		ldr	r0, [sp, #36]
 1828 18d0 082091E5 		ldr	r2, [r1, #8]
 1829 18d4 023043E0 		sub	r3, r3, r2
 1830 18d8 10209DE5 		ldr	r2, [sp, #16]
 1831 18dc 033082E0 		add	r3, r2, r3
 1832 18e0 203081E5 		str	r3, [r1, #32]
 1833 18e4 54D08DE2 		add	sp, sp, #84
 1834              		@ sp needed
 1835 18e8 F08FBDE8 		pop	{r4, r5, r6, r7, r8, r9, r10, fp, pc}
 1836              	.L194:
 1837 18ec 0320A0E1 		mov	r2, r3
 1838 18f0 14309DE5 		ldr	r3, [sp, #20]
 1839 18f4 0200A0E1 		mov	r0, r2
 1840 18f8 002083E5 		str	r2, [r3]
 1841 18fc 54D08DE2 		add	sp, sp, #84
 1842              		@ sp needed
 1843 1900 F08FBDE8 		pop	{r4, r5, r6, r7, r8, r9, r10, fp, pc}
 1844              	.L218:
 1845 1904 28909DE5 		ldr	r9, [sp, #40]
 1846 1908 E3FFFFEA 		b	.L201
 1847              	.L195:
 1848 190c 0030A0E3 		mov	r3, #0
 1849 1910 0300A0E1 		mov	r0, r3
 1850 1914 24308DE5 		str	r3, [sp, #36]
 1851 1918 54D08DE2 		add	sp, sp, #84
 1852              		@ sp needed
 1853 191c F08FBDE8 		pop	{r4, r5, r6, r7, r8, r9, r10, fp, pc}
 1854              	.L208:
 1855 1920 10308DE5 		str	r3, [sp, #16]
 1856 1924 E5FFFFEA 		b	.L197
 1857              		.size	SetupRenderer, .-SetupRenderer
 1858              		.align	2
 1859              		.global	DoneRenderer
 1860              		.syntax unified
 1861              		.arm
 1862              		.fpu neon-vfpv4
 1863              		.type	DoneRenderer, %function
 1864              	DoneRenderer:
 1865              		@ args = 0, pretend = 0, frame = 0
 1866              		@ frame_needed = 0, uses_anonymous_args = 0
 1867 1928 30402DE9 		push	{r4, r5, lr}
 1868 192c 004050E2 		subs	r4, r0, #0
 1869 1930 0400A001 		moveq	r0, r4
 1870 1934 0CD04DE2 		sub	sp, sp, #12
 1871 1938 1300000A 		beq	.L220
 1872 193c 002094E5 		ldr	r2, [r4]
 1873 1940 0450A0E3 		mov	r5, #4
 1874 1944 0530A0E1 		mov	r3, r5
 1875 1948 0510A0E1 		mov	r1, r5
 1876 194c 04208DE5 		str	r2, [sp, #4]
 1877 1950 0000A0E3 		mov	r0, #0
 1878 1954 00508DE5 		str	r5, [sp]
 1879 1958 0E20A0E3 		mov	r2, #14
 1880 195c 032040E3 		movt	r2, 3
 1881 1960 FEFFFFEB 		bl	mailbox_tag_message
ARM GAS  C:\Users\ldebo\AppData\Local\Temp\cc9oeUFF.s 			page 34


 1882 1964 002094E5 		ldr	r2, [r4]
 1883 1968 0530A0E1 		mov	r3, r5
 1884 196c 00508DE5 		str	r5, [sp]
 1885 1970 04208DE5 		str	r2, [sp, #4]
 1886 1974 0510A0E1 		mov	r1, r5
 1887 1978 0F20A0E3 		mov	r2, #15
 1888 197c 032040E3 		movt	r2, 3
 1889 1980 0000A0E3 		mov	r0, #0
 1890 1984 FEFFFFEB 		bl	mailbox_tag_message
 1891 1988 0100A0E3 		mov	r0, #1
 1892              	.L220:
 1893 198c 0CD08DE2 		add	sp, sp, #12
 1894              		@ sp needed
 1895 1990 3080BDE8 		pop	{r4, r5, pc}
 1896              		.size	DoneRenderer, .-DoneRenderer
 1897              		.align	2
 1898              		.global	CreateVertexData
 1899              		.syntax unified
 1900              		.arm
 1901              		.fpu neon-vfpv4
 1902              		.type	CreateVertexData, %function
 1903              	CreateVertexData:
 1904              		@ args = 0, pretend = 0, frame = 272
 1905              		@ frame_needed = 0, uses_anonymous_args = 0
 1906 1994 F04F2DE9 		push	{r4, r5, r6, r7, r8, r9, r10, fp, lr}
 1907 1998 004000E3 		movw	r4, #:lower16:.LANCHOR0
 1908 199c 004040E3 		movt	r4, #:upper16:.LANCHOR0
 1909 19a0 0E8B2DED 		vpush.64	{d8, d9, d10, d11, d12, d13, d14}
 1910 19a4 49DF4DE2 		sub	sp, sp, #292
 1911 19a8 DF0A9FED 		vldr.32	s0, .L241
 1912 19ac 0190A0E1 		mov	r9, r1
 1913 19b0 10008DE5 		str	r0, [sp, #16]
 1914 19b4 14208DE5 		str	r2, [sp, #20]
 1915 19b8 FEFFFFEB 		bl	sinf
 1916 19bc 408AB0EE 		vmov.f32	s16, s0
 1917 19c0 D90A9FED 		vldr.32	s0, .L241
 1918 19c4 FEFFFFEB 		bl	cosf
 1919 19c8 E0C08DE2 		add	ip, sp, #224
 1920 19cc 0F00B4E8 		ldmia	r4!, {r0, r1, r2, r3}
 1921 19d0 0C50A0E1 		mov	r5, ip
 1922 19d4 0F00ACE8 		stmia	ip!, {r0, r1, r2, r3}
 1923 19d8 407AF0EE 		vmov.f32	s15, s0
 1924 19dc 487AB1EE 		vneg.f32	s14, s16
 1925 19e0 20E08DE2 		add	lr, sp, #32
 1926 19e4 D00A9FED 		vldr.32	s0, .L241
 1927 19e8 0F00B4E8 		ldmia	r4!, {r0, r1, r2, r3}
 1928 19ec 0F00ACE8 		stmia	ip!, {r0, r1, r2, r3}
 1929 19f0 0F00B4E8 		ldmia	r4!, {r0, r1, r2, r3}
 1930 19f4 0F00ACE8 		stmia	ip!, {r0, r1, r2, r3}
 1931 19f8 0F0094E8 		ldm	r4, {r0, r1, r2, r3}
 1932 19fc 0F008CE8 		stm	ip, {r0, r1, r2, r3}
 1933 1a00 3D7ACDED 		vstr.32	s15, [sp, #244]
 1934 1a04 427ACDED 		vstr.32	s15, [sp, #264]
 1935 1a08 418A8DED 		vstr.32	s16, [sp, #260]
 1936 1a0c 3E7A8DED 		vstr.32	s14, [sp, #248]
 1937 1a10 0F00B5E8 		ldmia	r5!, {r0, r1, r2, r3}
 1938 1a14 0F00AEE8 		stmia	lr!, {r0, r1, r2, r3}
ARM GAS  C:\Users\ldebo\AppData\Local\Temp\cc9oeUFF.s 			page 35


 1939 1a18 0F00B5E8 		ldmia	r5!, {r0, r1, r2, r3}
 1940 1a1c 0F00AEE8 		stmia	lr!, {r0, r1, r2, r3}
 1941 1a20 0F00B5E8 		ldmia	r5!, {r0, r1, r2, r3}
 1942 1a24 0F00AEE8 		stmia	lr!, {r0, r1, r2, r3}
 1943 1a28 0F009CE8 		ldm	ip, {r0, r1, r2, r3}
 1944 1a2c 0F008EE8 		stm	lr, {r0, r1, r2, r3}
 1945 1a30 FEFFFFEB 		bl	sinf
 1946 1a34 408AB0EE 		vmov.f32	s16, s0
 1947 1a38 BB0A9FED 		vldr.32	s0, .L241
 1948 1a3c FEFFFFEB 		bl	cosf
 1949 1a40 000059E3 		cmp	r9, #0
 1950 1a44 B100000A 		beq	.L239
 1951 1a48 20508DE2 		add	r5, sp, #32
 1952 1a4c 60708DE2 		add	r7, sp, #96
 1953 1a50 30B044E2 		sub	fp, r4, #48
 1954 1a54 A0E08DE2 		add	lr, sp, #160
 1955 1a58 0EA0A0E1 		mov	r10, lr
 1956 1a5c B37ADFED 		vldr.32	s15, .L241+4
 1957 1a60 0F00B5E8 		ldmia	r5!, {r0, r1, r2, r3}
 1958 1a64 480AF1EE 		vneg.f32	s1, s16
 1959 1a68 0F00A7E8 		stmia	r7!, {r0, r1, r2, r3}
 1960 1a6c E0C08DE2 		add	ip, sp, #224
 1961 1a70 0C80A0E1 		mov	r8, ip
 1962 1a74 446089E2 		add	r6, r9, #68
 1963 1a78 0F00B5E8 		ldmia	r5!, {r0, r1, r2, r3}
 1964 1a7c 0F00A7E8 		stmia	r7!, {r0, r1, r2, r3}
 1965 1a80 0F00B5E8 		ldmia	r5!, {r0, r1, r2, r3}
 1966 1a84 0F00A7E8 		stmia	r7!, {r0, r1, r2, r3}
 1967 1a88 0F0095E8 		ldm	r5, {r0, r1, r2, r3}
 1968 1a8c 1850A0E3 		mov	r5, #24
 1969 1a90 0F0087E8 		stm	r7, {r0, r1, r2, r3}
 1970 1a94 0F00BBE8 		ldmia	fp!, {r0, r1, r2, r3}
 1971 1a98 0F00AEE8 		stmia	lr!, {r0, r1, r2, r3}
 1972 1a9c 0F00BBE8 		ldmia	fp!, {r0, r1, r2, r3}
 1973 1aa0 0F00AEE8 		stmia	lr!, {r0, r1, r2, r3}
 1974 1aa4 0F00BBE8 		ldmia	fp!, {r0, r1, r2, r3}
 1975 1aa8 0F00AEE8 		stmia	lr!, {r0, r1, r2, r3}
 1976 1aac 0F0094E8 		ldm	r4, {r0, r1, r2, r3}
 1977 1ab0 2440A0E3 		mov	r4, #36
 1978 1ab4 0F008EE8 		stm	lr, {r0, r1, r2, r3}
 1979 1ab8 18EA9DED 		vldr.32	s28, [sp, #96]
 1980 1abc 193ADDED 		vldr.32	s7, [sp, #100]
 1981 1ac0 1ADADDED 		vldr.32	s27, [sp, #104]
 1982 1ac4 1D4A9DED 		vldr.32	s8, [sp, #116]
 1983 1ac8 1BDA9DED 		vldr.32	s26, [sp, #108]
 1984 1acc A75A63EE 		vmul.f32	s11, s7, s15
 1985 1ad0 1CCADDED 		vldr.32	s25, [sp, #112]
 1986 1ad4 273AEEEE 		vfma.f32	s7, s28, s15
 1987 1ad8 1ECA9DED 		vldr.32	s24, [sp, #120]
 1988 1adc 276A24EE 		vmul.f32	s12, s8, s15
 1989 1ae0 A73AEDEE 		vfma.f32	s7, s27, s15
 1990 1ae4 273AEDEE 		vfma.f32	s7, s26, s15
 1991 1ae8 214ADDED 		vldr.32	s9, [sp, #132]
 1992 1aec 651AB0EE 		vmov.f32	s2, s11
 1993 1af0 653AB0EE 		vmov.f32	s6, s11
 1994 1af4 271AAEEE 		vfma.f32	s2, s28, s15
 1995 1af8 0E3AA0EE 		vfma.f32	s6, s0, s28
ARM GAS  C:\Users\ldebo\AppData\Local\Temp\cc9oeUFF.s 			page 36


 1996 1afc A71AADEE 		vfma.f32	s2, s27, s15
 1997 1b00 8E5AE0EE 		vfma.f32	s11, s1, s28
 1998 1b04 2D5AE0EE 		vfma.f32	s11, s0, s27
 1999 1b08 2D3AA8EE 		vfma.f32	s6, s16, s27
 2000 1b0c 273AADEE 		vfma.f32	s6, s26, s15
 2001 1b10 275AEDEE 		vfma.f32	s11, s26, s15
 2002 1b14 A74AACEE 		vfma.f32	s8, s25, s15
 2003 1b18 1FBADDED 		vldr.32	s23, [sp, #124]
 2004 1b1c A76A64EE 		vmul.f32	s13, s9, s15
 2005 1b20 20BA9DED 		vldr.32	s22, [sp, #128]
 2006 1b24 274AACEE 		vfma.f32	s8, s24, s15
 2007 1b28 255A9DED 		vldr.32	s10, [sp, #148]
 2008 1b2c 24AADDED 		vldr.32	s21, [sp, #144]
 2009 1b30 461AF0EE 		vmov.f32	s3, s12
 2010 1b34 A74AABEE 		vfma.f32	s8, s23, s15
 2011 1b38 0D1A31EE 		vadd.f32	s2, s2, s26
 2012 1b3c 46DAB0EE 		vmov.f32	s26, s12
 2013 1b40 2CDAA0EE 		vfma.f32	s26, s0, s25
 2014 1b44 A71AECEE 		vfma.f32	s3, s25, s15
 2015 1b48 AC6AA0EE 		vfma.f32	s12, s1, s25
 2016 1b4c 271AECEE 		vfma.f32	s3, s24, s15
 2017 1b50 0C6AA0EE 		vfma.f32	s12, s0, s24
 2018 1b54 277A25EE 		vmul.f32	s14, s10, s15
 2019 1b58 A76AABEE 		vfma.f32	s12, s23, s15
 2020 1b5c 22AA9DED 		vldr.32	s20, [sp, #136]
 2021 1b60 274AEBEE 		vfma.f32	s9, s22, s15
 2022 1b64 A75AAAEE 		vfma.f32	s10, s21, s15
 2023 1b68 269ADDED 		vldr.32	s19, [sp, #152]
 2024 1b6c 662AB0EE 		vmov.f32	s4, s13
 2025 1b70 239A9DED 		vldr.32	s18, [sp, #140]
 2026 1b74 272AABEE 		vfma.f32	s4, s22, s15
 2027 1b78 472AF0EE 		vmov.f32	s5, s14
 2028 1b7c A72AEAEE 		vfma.f32	s5, s21, s15
 2029 1b80 272AAAEE 		vfma.f32	s4, s20, s15
 2030 1b84 4DCAF0EE 		vmov.f32	s25, s26
 2031 1b88 A11A7BEE 		vadd.f32	s3, s23, s3
 2032 1b8c 0CCAE8EE 		vfma.f32	s25, s16, s24
 2033 1b90 A72AE9EE 		vfma.f32	s5, s19, s15
 2034 1b94 278ADDED 		vldr.32	s17, [sp, #156]
 2035 1b98 274AEAEE 		vfma.f32	s9, s20, s15
 2036 1b9c A75AA9EE 		vfma.f32	s10, s19, s15
 2037 1ba0 274AE9EE 		vfma.f32	s9, s18, s15
 2038 1ba4 2B1A8DED 		vstr.32	s2, [sp, #172]
 2039 1ba8 293ACDED 		vstr.32	s7, [sp, #164]
 2040 1bac A75AA8EE 		vfma.f32	s10, s17, s15
 2041 1bb0 2F1ACDED 		vstr.32	s3, [sp, #188]
 2042 1bb4 2D4A8DED 		vstr.32	s8, [sp, #180]
 2043 1bb8 022A39EE 		vadd.f32	s4, s18, s4
 2044 1bbc 283A8DED 		vstr.32	s6, [sp, #160]
 2045 1bc0 6CCAB0EE 		vmov.f32	s24, s25
 2046 1bc4 A22A78EE 		vadd.f32	s5, s17, s5
 2047 1bc8 A7CAABEE 		vfma.f32	s24, s23, s15
 2048 1bcc 66BAF0EE 		vmov.f32	s23, s13
 2049 1bd0 00BAEBEE 		vfma.f32	s23, s22, s0
 2050 1bd4 206AEBEE 		vfma.f32	s13, s22, s1
 2051 1bd8 47BAB0EE 		vmov.f32	s22, s14
 2052 1bdc 807AAAEE 		vfma.f32	s14, s21, s0
ARM GAS  C:\Users\ldebo\AppData\Local\Temp\cc9oeUFF.s 			page 37


 2053 1be0 A0BAAAEE 		vfma.f32	s22, s21, s1
 2054 1be4 0A6AE0EE 		vfma.f32	s13, s0, s20
 2055 1be8 297AA8EE 		vfma.f32	s14, s16, s19
 2056 1bec 276AE9EE 		vfma.f32	s13, s18, s15
 2057 1bf0 A77AA8EE 		vfma.f32	s14, s17, s15
 2058 1bf4 332A8DED 		vstr.32	s4, [sp, #204]
 2059 1bf8 314ACDED 		vstr.32	s9, [sp, #196]
 2060 1bfc 372ACDED 		vstr.32	s5, [sp, #220]
 2061 1c00 355A8DED 		vstr.32	s10, [sp, #212]
 2062 1c04 6BAAF0EE 		vmov.f32	s21, s23
 2063 1c08 2A5ACDED 		vstr.32	s11, [sp, #168]
 2064 1c0c 0AAAE8EE 		vfma.f32	s21, s16, s20
 2065 1c10 2E6A8DED 		vstr.32	s12, [sp, #184]
 2066 1c14 4B0AF0EE 		vmov.f32	s1, s22
 2067 1c18 2CCA8DED 		vstr.32	s24, [sp, #176]
 2068 1c1c 290AE0EE 		vfma.f32	s1, s0, s19
 2069 1c20 326ACDED 		vstr.32	s13, [sp, #200]
 2070 1c24 A70AE8EE 		vfma.f32	s1, s17, s15
 2071 1c28 347A8DED 		vstr.32	s14, [sp, #208]
 2072 1c2c 6A0AB0EE 		vmov.f32	s0, s21
 2073 1c30 270AA9EE 		vfma.f32	s0, s18, s15
 2074 1c34 360ACDED 		vstr.32	s1, [sp, #216]
 2075 1c38 300A8DED 		vstr.32	s0, [sp, #192]
 2076 1c3c 0F00BAE8 		ldmia	r10!, {r0, r1, r2, r3}
 2077 1c40 0F00ACE8 		stmia	ip!, {r0, r1, r2, r3}
 2078 1c44 0F00BAE8 		ldmia	r10!, {r0, r1, r2, r3}
 2079 1c48 0F00ACE8 		stmia	ip!, {r0, r1, r2, r3}
 2080 1c4c 0F00BAE8 		ldmia	r10!, {r0, r1, r2, r3}
 2081 1c50 0F00ACE8 		stmia	ip!, {r0, r1, r2, r3}
 2082 1c54 0F009EE8 		ldm	lr, {r0, r1, r2, r3}
 2083 1c58 0F008CE8 		stm	ip, {r0, r1, r2, r3}
 2084 1c5c 0F00B8E8 		ldmia	r8!, {r0, r1, r2, r3}
 2085 1c60 0F00A6E8 		stmia	r6!, {r0, r1, r2, r3}
 2086 1c64 0F00B8E8 		ldmia	r8!, {r0, r1, r2, r3}
 2087 1c68 0F00A6E8 		stmia	r6!, {r0, r1, r2, r3}
 2088 1c6c 0F00B8E8 		ldmia	r8!, {r0, r1, r2, r3}
 2089 1c70 0F00A6E8 		stmia	r6!, {r0, r1, r2, r3}
 2090 1c74 0F009CE8 		ldm	ip, {r0, r1, r2, r3}
 2091 1c78 0F0086E8 		stm	r6, {r0, r1, r2, r3}
 2092 1c7c 0020A0E3 		mov	r2, #0
 2093 1c80 0910A0E1 		mov	r1, r9
 2094 1c84 10009DE5 		ldr	r0, [sp, #16]
 2095 1c88 DCF8FFEB 		bl	ParseWaveFrontMesh
 2096 1c8c 9C0099E5 		ldr	r0, [r9, #156]
 2097 1c90 A03099E5 		ldr	r3, [r9, #160]
 2098 1c94 0610A0E3 		mov	r1, #6
 2099 1c98 A42099E5 		ldr	r2, [r9, #164]
 2100 1c9c 01EAA0E3 		mov	lr, #4096
 2101 1ca0 84C099E5 		ldr	ip, [r9, #132]
 2102 1ca4 800080E0 		add	r0, r0, r0, lsl #1
 2103 1ca8 0C508DE5 		str	r5, [sp, #12]
 2104 1cac 0C50A0E3 		mov	r5, #12
 2105 1cb0 910323E0 		mla	r3, r1, r3, r0
 2106 1cb4 822182E0 		add	r2, r2, r2, lsl #3
 2107 1cb8 A0008DE2 		add	r0, sp, #160
 2108 1cbc 023083E0 		add	r3, r3, r2
 2109 1cc0 943C22E0 		mla	r2, r4, ip, r3
ARM GAS  C:\Users\ldebo\AppData\Local\Temp\cc9oeUFF.s 			page 38


 2110 1cc4 303089E5 		str	r3, [r9, #48]
 2111 1cc8 0530A0E1 		mov	r3, r5
 2112 1ccc 00508DE5 		str	r5, [sp]
 2113 1cd0 04408DE9 		stmib	sp, {r2, lr}
 2114 1cd4 0520A0E1 		mov	r2, r5
 2115 1cd8 032040E3 		movt	r2, 3
 2116 1cdc FEFFFFEB 		bl	mailbox_tag_message
 2117 1ce0 004050E2 		subs	r4, r0, #0
 2118 1ce4 0E00000A 		beq	.L226
 2119 1ce8 AC209DE5 		ldr	r2, [sp, #172]
 2120 1cec 000052E3 		cmp	r2, #0
 2121 1cf0 242089E5 		str	r2, [r9, #36]
 2122 1cf4 0E00001A 		bne	.L240
 2123              	.L227:
 2124 1cf8 14309DE5 		ldr	r3, [sp, #20]
 2125 1cfc 000053E3 		cmp	r3, #0
 2126 1d00 0200000A 		beq	.L239
 2127 1d04 000000E3 		movw	r0, #:lower16:.LC21
 2128 1d08 000040E3 		movt	r0, #:upper16:.LC21
 2129 1d0c 33FF2FE1 		blx	r3
 2130              	.L239:
 2131 1d10 0040A0E3 		mov	r4, #0
 2132 1d14 0400A0E1 		mov	r0, r4
 2133 1d18 49DF8DE2 		add	sp, sp, #292
 2134              		@ sp needed
 2135 1d1c 0E8BBDEC 		vldm	sp!, {d8-d14}
 2136 1d20 F08FBDE8 		pop	{r4, r5, r6, r7, r8, r9, r10, fp, pc}
 2137              	.L226:
 2138 1d24 244089E5 		str	r4, [r9, #36]
 2139 1d28 F2FFFFEA 		b	.L227
 2140              	.L242:
 2141              		.align	2
 2142              	.L241:
 2143 1d2c DA0F493F 		.word	1061752794
 2144 1d30 00000000 		.word	0
 2145              	.L240:
 2146 1d34 0430A0E3 		mov	r3, #4
 2147 1d38 04208DE5 		str	r2, [sp, #4]
 2148 1d3c 00308DE5 		str	r3, [sp]
 2149 1d40 0310A0E1 		mov	r1, r3
 2150 1d44 A0008DE2 		add	r0, sp, #160
 2151 1d48 0D20A0E3 		mov	r2, #13
 2152 1d4c 032040E3 		movt	r2, 3
 2153 1d50 FEFFFFEB 		bl	mailbox_tag_message
 2154 1d54 000050E3 		cmp	r0, #0
 2155 1d58 1850A0E3 		mov	r5, #24
 2156 1d5c 3870A0E3 		mov	r7, #56
 2157 1d60 AC009D15 		ldrne	r0, [sp, #172]
 2158 1d64 280089E5 		str	r0, [r9, #40]
 2159 1d68 FEFFFFEB 		bl	GPUaddrToARMaddr
 2160 1d6c 84C099E5 		ldr	ip, [r9, #132]
 2161 1d70 30E099E5 		ldr	lr, [r9, #48]
 2162 1d74 0060A0E1 		mov	r6, r0
 2163 1d78 283099E5 		ldr	r3, [r9, #40]
 2164 1d7c 0120A0E3 		mov	r2, #1
 2165 1d80 0E1086E0 		add	r1, r6, lr
 2166 1d84 2C6089E5 		str	r6, [r9, #44]
ARM GAS  C:\Users\ldebo\AppData\Local\Temp\cc9oeUFF.s 			page 39


 2167 1d88 951C2CE0 		mla	ip, r5, ip, r1
 2168 1d8c 0E3083E0 		add	r3, r3, lr
 2169 1d90 3C1089E5 		str	r1, [r9, #60]
 2170 1d94 0910A0E1 		mov	r1, r9
 2171 1d98 40C089E5 		str	ip, [r9, #64]
 2172 1d9c 3260A0E3 		mov	r6, #50
 2173 1da0 383089E5 		str	r3, [r9, #56]
 2174 1da4 10009DE5 		ldr	r0, [sp, #16]
 2175 1da8 94F8FFEB 		bl	ParseWaveFrontMesh
 2176 1dac 083099E5 		ldr	r3, [r9, #8]
 2177 1db0 7010A0E3 		mov	r1, #112
 2178 1db4 40E0A0E3 		mov	lr, #64
 2179 1db8 0129A0E3 		mov	r2, #16384
 2180 1dbc 0000A0E3 		mov	r0, #0
 2181 1dc0 06C0A0E3 		mov	ip, #6
 2182 1dc4 0010C3E5 		strb	r1, [r3]
 2183 1dc8 041099E5 		ldr	r1, [r9, #4]
 2184 1dcc 06E0C3E5 		strb	lr, [r3, #6]
 2185 1dd0 061A81E2 		add	r1, r1, #24576
 2186 1dd4 0520C3E5 		strb	r2, [r3, #5]
 2187 1dd8 51E4E7E7 		ubfx	lr, r1, #8, #8
 2188 1ddc 0110C3E5 		strb	r1, [r3, #1]
 2189 1de0 02E0C3E5 		strb	lr, [r3, #2]
 2190 1de4 51E8E7E7 		ubfx	lr, r1, #16, #8
 2191 1de8 511CE7E7 		ubfx	r1, r1, #24, #8
 2192 1dec 03E0C3E5 		strb	lr, [r3, #3]
 2193 1df0 0700C3E5 		strb	r0, [r3, #7]
 2194 1df4 04E0A0E3 		mov	lr, #4
 2195 1df8 0800C3E5 		strb	r0, [r3, #8]
 2196 1dfc 0410C3E5 		strb	r1, [r3, #4]
 2197 1e00 041099E5 		ldr	r1, [r9, #4]
 2198 1e04 021C81E2 		add	r1, r1, #512
 2199 1e08 5104E7E7 		ubfx	r0, r1, #8, #8
 2200 1e0c 0910C3E5 		strb	r1, [r3, #9]
 2201 1e10 0A00C3E5 		strb	r0, [r3, #10]
 2202 1e14 5108E7E7 		ubfx	r0, r1, #16, #8
 2203 1e18 511CE7E7 		ubfx	r1, r1, #24, #8
 2204 1e1c 0B00C3E5 		strb	r0, [r3, #11]
 2205 1e20 0C10C3E5 		strb	r1, [r3, #12]
 2206 1e24 6610A0E3 		mov	r1, #102
 2207 1e28 140099E5 		ldr	r0, [r9, #20]
 2208 1e2c 0D00C3E5 		strb	r0, [r3, #13]
 2209 1e30 180099E5 		ldr	r0, [r9, #24]
 2210 1e34 1420C3E5 		strb	r2, [r3, #20]
 2211 1e38 0E00C3E5 		strb	r0, [r3, #14]
 2212 1e3c 6000A0E3 		mov	r0, #96
 2213 1e40 1520C3E5 		strb	r2, [r3, #21]
 2214 1e44 1620C3E5 		strb	r2, [r3, #22]
 2215 1e48 1720C3E5 		strb	r2, [r3, #23]
 2216 1e4c 10C0C3E5 		strb	ip, [r3, #16]
 2217 1e50 67C0A0E3 		mov	ip, #103
 2218 1e54 1170C3E5 		strb	r7, [r3, #17]
 2219 1e58 1260C3E5 		strb	r6, [r3, #18]
 2220 1e5c 0260A0E3 		mov	r6, #2
 2221 1e60 0FE0C3E5 		strb	lr, [r3, #15]
 2222 1e64 1310C3E5 		strb	r1, [r3, #19]
 2223 1e68 0C1099E5 		ldr	r1, [r9, #12]
ARM GAS  C:\Users\ldebo\AppData\Local\Temp\cc9oeUFF.s 			page 40


 2224 1e6c B01ACDE1 		strh	r1, [sp, #160]	@ movhi
 2225 1e70 1810C3E5 		strb	r1, [r3, #24]
 2226 1e74 A110DDE5 		ldrb	r1, [sp, #161]	@ zero_extendqisi2
 2227 1e78 1910C3E5 		strb	r1, [r3, #25]
 2228 1e7c 101099E5 		ldr	r1, [r9, #16]
 2229 1e80 1C00C3E5 		strb	r0, [r3, #28]
 2230 1e84 0300A0E3 		mov	r0, #3
 2231 1e88 1A10C3E5 		strb	r1, [r3, #26]
 2232 1e8c 5114E7E7 		ubfx	r1, r1, #8, #8
 2233 1e90 1B10C3E5 		strb	r1, [r3, #27]
 2234 1e94 4110A0E3 		mov	r1, #65
 2235 1e98 1E20C3E5 		strb	r2, [r3, #30]
 2236 1e9c 2120C3E5 		strb	r2, [r3, #33]
 2237 1ea0 2220C3E5 		strb	r2, [r3, #34]
 2238 1ea4 2320C3E5 		strb	r2, [r3, #35]
 2239 1ea8 2420C3E5 		strb	r2, [r3, #36]
 2240 1eac 1F60C3E5 		strb	r6, [r3, #31]
 2241 1eb0 2060A0E3 		mov	r6, #32
 2242 1eb4 20C0C3E5 		strb	ip, [r3, #32]
 2243 1eb8 05C0A0E3 		mov	ip, #5
 2244 1ebc 1D00C3E5 		strb	r0, [r3, #29]
 2245 1ec0 2510C3E5 		strb	r1, [r3, #37]
 2246 1ec4 041099E5 		ldr	r1, [r9, #4]
 2247 1ec8 2BE0C3E5 		strb	lr, [r3, #43]
 2248 1ecc 801081E2 		add	r1, r1, #128
 2249 1ed0 2A60C3E5 		strb	r6, [r3, #42]
 2250 1ed4 51E4E7E7 		ubfx	lr, r1, #8, #8
 2251 1ed8 2610C3E5 		strb	r1, [r3, #38]
 2252 1edc 27E0C3E5 		strb	lr, [r3, #39]
 2253 1ee0 51E8E7E7 		ubfx	lr, r1, #16, #8
 2254 1ee4 511CE7E7 		ubfx	r1, r1, #24, #8
 2255 1ee8 28E0C3E5 		strb	lr, [r3, #40]
 2256 1eec 2910C3E5 		strb	r1, [r3, #41]
 2257 1ef0 01E0A0E3 		mov	lr, #1
 2258 1ef4 301099E5 		ldr	r1, [r9, #48]
 2259 1ef8 5164E7E7 		ubfx	r6, r1, #8, #8
 2260 1efc 2C10C3E5 		strb	r1, [r3, #44]
 2261 1f00 2D60C3E5 		strb	r6, [r3, #45]
 2262 1f04 5168E7E7 		ubfx	r6, r1, #16, #8
 2263 1f08 511CE7E7 		ubfx	r1, r1, #24, #8
 2264 1f0c 2E60C3E5 		strb	r6, [r3, #46]
 2265 1f10 2F10C3E5 		strb	r1, [r3, #47]
 2266 1f14 281099E5 		ldr	r1, [r9, #40]
 2267 1f18 5164E7E7 		ubfx	r6, r1, #8, #8
 2268 1f1c 3010C3E5 		strb	r1, [r3, #48]
 2269 1f20 3160C3E5 		strb	r6, [r3, #49]
 2270 1f24 5168E7E7 		ubfx	r6, r1, #16, #8
 2271 1f28 511CE7E7 		ubfx	r1, r1, #24, #8
 2272 1f2c 3260C3E5 		strb	r6, [r3, #50]
 2273 1f30 3310C3E5 		strb	r1, [r3, #51]
 2274 1f34 3B6083E2 		add	r6, r3, #59
 2275 1f38 341099E5 		ldr	r1, [r9, #52]
 2276 1f3c 3A20C3E5 		strb	r2, [r3, #58]
 2277 1f40 022081E2 		add	r2, r1, #2
 2278 1f44 38C0C3E5 		strb	ip, [r3, #56]
 2279 1f48 5214E7E7 		ubfx	r1, r2, #8, #8
 2280 1f4c 3420C3E5 		strb	r2, [r3, #52]
ARM GAS  C:\Users\ldebo\AppData\Local\Temp\cc9oeUFF.s 			page 41


 2281 1f50 3510C3E5 		strb	r1, [r3, #53]
 2282 1f54 5218E7E7 		ubfx	r1, r2, #16, #8
 2283 1f58 522CE7E7 		ubfx	r2, r2, #24, #8
 2284 1f5c 3610C3E5 		strb	r1, [r3, #54]
 2285 1f60 3720C3E5 		strb	r2, [r3, #55]
 2286 1f64 33C0E0E3 		mvn	ip, #51
 2287 1f68 39E0C3E5 		strb	lr, [r3, #57]
 2288 1f6c 082099E5 		ldr	r2, [r9, #8]
 2289 1f70 021046E0 		sub	r1, r6, r2
 2290 1f74 803082E2 		add	r3, r2, #128
 2291 1f78 1C1089E5 		str	r1, [r9, #28]
 2292 1f7c 8300C2E5 		strb	r0, [r2, #131]
 2293 1f80 82C0C2E5 		strb	ip, [r2, #130]
 2294 1f84 80E0C2E5 		strb	lr, [r2, #128]
 2295 1f88 8150C2E5 		strb	r5, [r2, #129]
 2296 1f8c 042099E5 		ldr	r2, [r9, #4]
 2297 1f90 FE2C82E2 		add	r2, r2, #65024
 2298 1f94 52C4E7E7 		ubfx	ip, r2, #8, #8
 2299 1f98 5208E7E7 		ubfx	r0, r2, #16, #8
 2300 1f9c 521CE7E7 		ubfx	r1, r2, #24, #8
 2301 1fa0 05C0C3E5 		strb	ip, [r3, #5]
 2302 1fa4 0600C3E5 		strb	r0, [r3, #6]
 2303 1fa8 0710C3E5 		strb	r1, [r3, #7]
 2304 1fac 0420C3E5 		strb	r2, [r3, #4]
 2305 1fb0 042099E5 		ldr	r2, [r9, #4]
 2306 1fb4 FF2C82E2 		add	r2, r2, #65280
 2307 1fb8 52C4E7E7 		ubfx	ip, r2, #8, #8
 2308 1fbc 5208E7E7 		ubfx	r0, r2, #16, #8
 2309 1fc0 521CE7E7 		ubfx	r1, r2, #24, #8
 2310 1fc4 09C0C3E5 		strb	ip, [r3, #9]
 2311 1fc8 0A00C3E5 		strb	r0, [r3, #10]
 2312 1fcc 0B10C3E5 		strb	r1, [r3, #11]
 2313 1fd0 0820C3E5 		strb	r2, [r3, #8]
 2314 1fd4 382099E5 		ldr	r2, [r9, #56]
 2315 1fd8 5208E7E7 		ubfx	r0, r2, #16, #8
 2316 1fdc 52C4E7E7 		ubfx	ip, r2, #8, #8
 2317 1fe0 521CE7E7 		ubfx	r1, r2, #24, #8
 2318 1fe4 0E00C3E5 		strb	r0, [r3, #14]
 2319 1fe8 0C20C3E5 		strb	r2, [r3, #12]
 2320 1fec 0400A0E1 		mov	r0, r4
 2321 1ff0 0DC0C3E5 		strb	ip, [r3, #13]
 2322 1ff4 0F10C3E5 		strb	r1, [r3, #15]
 2323 1ff8 49DF8DE2 		add	sp, sp, #292
 2324              		@ sp needed
 2325 1ffc 0E8BBDEC 		vldm	sp!, {d8-d14}
 2326 2000 F08FBDE8 		pop	{r4, r5, r6, r7, r8, r9, r10, fp, pc}
 2327              		.size	CreateVertexData, .-CreateVertexData
 2328              		.global	IdentityMatrix3D
 2329              		.global	fShaderStr
 2330              		.global	vShaderStr
 2331              		.comm	__errno,4,4
 2332              		.section	.rodata
 2333              		.align	2
 2334              		.set	.LANCHOR0,. + 0
 2335              		.type	IdentityMatrix3D, %object
 2336              		.size	IdentityMatrix3D, 64
 2337              	IdentityMatrix3D:
ARM GAS  C:\Users\ldebo\AppData\Local\Temp\cc9oeUFF.s 			page 42


 2338 0000 0000803F 		.word	1065353216
 2339 0004 00000000 		.word	0
 2340 0008 00000000 		.word	0
 2341 000c 00000000 		.word	0
 2342 0010 00000000 		.word	0
 2343 0014 0000803F 		.word	1065353216
 2344 0018 00000000 		.word	0
 2345 001c 00000000 		.word	0
 2346 0020 00000000 		.word	0
 2347 0024 00000000 		.word	0
 2348 0028 0000803F 		.word	1065353216
 2349 002c 00000000 		.word	0
 2350 0030 00000000 		.word	0
 2351 0034 00000000 		.word	0
 2352 0038 00000000 		.word	0
 2353 003c 0000803F 		.word	1065353216
 2354              		.data
 2355              		.align	2
 2356              		.type	fShaderStr, %object
 2357              		.size	fShaderStr, 372
 2358              	fShaderStr:
 2359 0000 70726563 		.ascii	"precision mediump float;                           "
 2359      6973696F 
 2359      6E206D65 
 2359      6469756D 
 2359      7020666C 
 2360 0033 200A7661 		.ascii	" \012varying vec2 v_texCoord;                      "
 2360      7279696E 
 2360      67207665 
 2360      63322076 
 2360      5F746578 
 2361 0063 20202020 		.ascii	"      \012uniform sampler2D s_texture;             "
 2361      20200A75 
 2361      6E69666F 
 2361      726D2073 
 2361      616D706C 
 2362 0093 20202020 		.ascii	"           \012void main()                         "
 2362      20202020 
 2362      2020200A 
 2362      766F6964 
 2362      206D6169 
 2363 00c3 20202020 		.ascii	"                \012{                              "
 2363      20202020 
 2363      20202020 
 2363      20202020 
 2363      0A7B2020 
 2364 00f3 20202020 		.ascii	"                     \012  gl_FragColor = texture2D"
 2364      20202020 
 2364      20202020 
 2364      20202020 
 2364      20202020 
 2365 0123 2820735F 		.ascii	"( s_texture, v_texCoord );\012}                    "
 2365      74657874 
 2365      7572652C 
 2365      20765F74 
 2365      6578436F 
 2366 0153 20202020 		.ascii	"                               \012\000"
ARM GAS  C:\Users\ldebo\AppData\Local\Temp\cc9oeUFF.s 			page 43


 2366      20202020 
 2366      20202020 
 2366      20202020 
 2366      20202020 
 2367              		.type	vShaderStr, %object
 2368              		.size	vShaderStr, 281
 2369              	vShaderStr:
 2370 0174 756E6966 		.ascii	"uniform mat4 u_rotateMx;  \012attribute vec4 a_posi"
 2370      6F726D20 
 2370      6D617434 
 2370      20755F72 
 2370      6F746174 
 2371 01a4 74696F6E 		.ascii	"tion;   \012attribute vec2 a_texCoord;   \012varyin"
 2371      3B202020 
 2371      0A617474 
 2371      72696275 
 2371      74652076 
 2372 01d1 67207665 		.ascii	"g vec2 v_texCoord;     \012void main()             "
 2372      63322076 
 2372      5F746578 
 2372      436F6F72 
 2372      643B2020 
 2373 0201 20202020 		.ascii	"     \012{                            \012   gl_Pos"
 2373      200A7B20 
 2373      20202020 
 2373      20202020 
 2373      20202020 
 2374 022e 6974696F 		.ascii	"ition = u_rotateMx * a_position; \012   v_texCoord "
 2374      6E203D20 
 2374      755F726F 
 2374      74617465 
 2374      4D78202A 
 2375 025e 3D20615F 		.ascii	"= a_texCoord;  \012}                            \012"
 2375      74657843 
 2375      6F6F7264 
 2375      3B20200A 
 2375      7D202020 
 2376 028c 00       		.ascii	"\000"
 2377              		.bss
 2378              		.align	2
 2379              		.set	.LANCHOR1,. + 0
 2380              		.type	angle, %object
 2381              		.size	angle, 4
 2382              	angle:
 2383 0000 00000000 		.space	4
 2384              		.type	rotMat, %object
 2385              		.size	rotMat, 64
 2386              	rotMat:
 2387 0004 00000000 		.space	64
 2387      00000000 
 2387      00000000 
 2387      00000000 
 2387      00000000 
 2388              		.section	.rodata.str1.4,"aMS",%progbits,1
 2389              		.align	2
 2390              	.LC0:
 2391 0000 79657300 		.ascii	"yes\000"
ARM GAS  C:\Users\ldebo\AppData\Local\Temp\cc9oeUFF.s 			page 44


 2392              	.LC1:
 2393 0004 6E6F00   		.ascii	"no\000"
 2394 0007 00       		.space	1
 2395              	.LC2:
 2396 0008 25662025 		.ascii	"%f %f %f %f\000"
 2396      66202566 
 2396      20256600 
 2397              	.LC3:
 2398 0014 25662025 		.ascii	"%f %f %f\000"
 2398      66202566 
 2398      00
 2399 001d 000000   		.space	3
 2400              	.LC4:
 2401 0020 4572726F 		.ascii	"Error reading vertex data!\012\000"
 2401      72207265 
 2401      6164696E 
 2401      67207665 
 2401      72746578 
 2402              	.LC5:
 2403 003c 5761726E 		.ascii	"Warning: unknown token \"%s\"! (ignoring)\012\000"
 2403      696E673A 
 2403      20756E6B 
 2403      6E6F776E 
 2403      20746F6B 
 2404 0065 000000   		.space	3
 2405              	.LC6:
 2406 0068 25642F25 		.ascii	"%d/%d/%d\000"
 2406      642F2564 
 2406      00
 2407 0071 000000   		.space	3
 2408              	.LC7:
 2409 0074 25642F2F 		.ascii	"%d//%d\000"
 2409      256400
 2410 007b 00       		.space	1
 2411              	.LC8:
 2412 007c 25642F25 		.ascii	"%d/%d\000"
 2412      6400
 2413 0082 0000     		.space	2
 2414              	.LC9:
 2415 0084 256400   		.ascii	"%d\000"
 2416 0087 00       		.space	1
 2417              	.LC10:
 2418 0088 4572726F 		.ascii	"Error: found face with no vertex!\012\000"
 2418      723A2066 
 2418      6F756E64 
 2418      20666163 
 2418      65207769 
 2419 00ab 00       		.space	1
 2420              	.LC11:
 2421 00ac 4572726F 		.ascii	"Error: faces can only be triangles or quads !\012\000"
 2421      723A2066 
 2421      61636573 
 2421      2063616E 
 2421      206F6E6C 
 2422 00db 00       		.space	1
 2423              	.LC12:
 2424 00dc 6572726F 		.ascii	"error: contradiction between collected info!\012\000"
ARM GAS  C:\Users\ldebo\AppData\Local\Temp\cc9oeUFF.s 			page 45


 2424      723A2063 
 2424      6F6E7472 
 2424      61646963 
 2424      74696F6E 
 2425 010a 0000     		.space	2
 2426              	.LC13:
 2427 010c 2020202A 		.ascii	"   * %i texture coords.\012\000"
 2427      20256920 
 2427      74657874 
 2427      75726520 
 2427      636F6F72 
 2428 0125 000000   		.space	3
 2429              	.LC14:
 2430 0128 2020202A 		.ascii	"   * %i normal vectors\012\000"
 2430      20256920 
 2430      6E6F726D 
 2430      616C2076 
 2430      6563746F 
 2431              	.LC15:
 2432 0140 6572726F 		.ascii	"error: no vertex found!\012\000"
 2432      723A206E 
 2432      6F207665 
 2432      72746578 
 2432      20666F75 
 2433 0159 000000   		.space	3
 2434              	.LC16:
 2435 015c 66697273 		.ascii	"first pass results: found\012\000"
 2435      74207061 
 2435      73732072 
 2435      6573756C 
 2435      74733A20 
 2436 0177 00       		.space	1
 2437              	.LC17:
 2438 0178 2020202A 		.ascii	"   * %i vertices\012\000"
 2438      20256920 
 2438      76657274 
 2438      69636573 
 2438      0A00
 2439 018a 0000     		.space	2
 2440              	.LC18:
 2441 018c 2020202A 		.ascii	"   * %i faces being %i triangles, %i Quads, %i Poly"
 2441      20256920 
 2441      66616365 
 2441      73206265 
 2441      696E6720 
 2442 01bf 676F6E73 		.ascii	"gons\012\000"
 2442      0A00
 2443 01c5 000000   		.space	3
 2444              	.LC19:
 2445 01c8 2020202A 		.ascii	"   * has texture coords.: %s\012\000"
 2445      20686173 
 2445      20746578 
 2445      74757265 
 2445      20636F6F 
 2446 01e6 0000     		.space	2
 2447              	.LC20:
 2448 01e8 2020202A 		.ascii	"   * has normals: %s\012\000"
ARM GAS  C:\Users\ldebo\AppData\Local\Temp\cc9oeUFF.s 			page 46


 2448      20686173 
 2448      206E6F72 
 2448      6D616C73 
 2448      3A202573 
 2449 01fe 0000     		.space	2
 2450              	.LC21:
 2451 0200 4572726F 		.ascii	"Error: Unable to allocate vertex data memory\000"
 2451      723A2055 
 2451      6E61626C 
 2451      6520746F 
 2451      20616C6C 
 2452              		.ident	"GCC: (GNU Tools for ARM Embedded Processors 6-2017-q2-update) 6.3.1 20170620 (release) [AR
ARM GAS  C:\Users\ldebo\AppData\Local\Temp\cc9oeUFF.s 			page 47


DEFINED SYMBOLS
                            *ABS*:00000000 rpi-GLES.c
C:\Users\ldebo\AppData\Local\Temp\cc9oeUFF.s:14     .text:00000000 $a
C:\Users\ldebo\AppData\Local\Temp\cc9oeUFF.s:19     .text:00000000 ParseWaveFrontMesh
C:\Users\ldebo\AppData\Local\Temp\cc9oeUFF.s:2405   .rodata.str1.4:00000068 .LC6
C:\Users\ldebo\AppData\Local\Temp\cc9oeUFF.s:2434   .rodata.str1.4:0000015c .LC16
C:\Users\ldebo\AppData\Local\Temp\cc9oeUFF.s:2437   .rodata.str1.4:00000178 .LC17
C:\Users\ldebo\AppData\Local\Temp\cc9oeUFF.s:2426   .rodata.str1.4:0000010c .LC13
C:\Users\ldebo\AppData\Local\Temp\cc9oeUFF.s:2429   .rodata.str1.4:00000128 .LC14
C:\Users\ldebo\AppData\Local\Temp\cc9oeUFF.s:2392   .rodata.str1.4:00000004 .LC1
C:\Users\ldebo\AppData\Local\Temp\cc9oeUFF.s:2390   .rodata.str1.4:00000000 .LC0
C:\Users\ldebo\AppData\Local\Temp\cc9oeUFF.s:2440   .rodata.str1.4:0000018c .LC18
C:\Users\ldebo\AppData\Local\Temp\cc9oeUFF.s:2444   .rodata.str1.4:000001c8 .LC19
C:\Users\ldebo\AppData\Local\Temp\cc9oeUFF.s:2447   .rodata.str1.4:000001e8 .LC20
C:\Users\ldebo\AppData\Local\Temp\cc9oeUFF.s:2408   .rodata.str1.4:00000074 .LC7
C:\Users\ldebo\AppData\Local\Temp\cc9oeUFF.s:2411   .rodata.str1.4:0000007c .LC8
C:\Users\ldebo\AppData\Local\Temp\cc9oeUFF.s:2414   .rodata.str1.4:00000084 .LC9
C:\Users\ldebo\AppData\Local\Temp\cc9oeUFF.s:317    .text:0000044c $d
C:\Users\ldebo\AppData\Local\Temp\cc9oeUFF.s:322    .text:0000045c $a
C:\Users\ldebo\AppData\Local\Temp\cc9oeUFF.s:2402   .rodata.str1.4:0000003c .LC5
C:\Users\ldebo\AppData\Local\Temp\cc9oeUFF.s:2395   .rodata.str1.4:00000008 .LC2
C:\Users\ldebo\AppData\Local\Temp\cc9oeUFF.s:2397   .rodata.str1.4:00000014 .LC3
C:\Users\ldebo\AppData\Local\Temp\cc9oeUFF.s:2417   .rodata.str1.4:00000088 .LC10
C:\Users\ldebo\AppData\Local\Temp\cc9oeUFF.s:2423   .rodata.str1.4:000000dc .LC12
C:\Users\ldebo\AppData\Local\Temp\cc9oeUFF.s:2431   .rodata.str1.4:00000140 .LC15
C:\Users\ldebo\AppData\Local\Temp\cc9oeUFF.s:2420   .rodata.str1.4:000000ac .LC11
C:\Users\ldebo\AppData\Local\Temp\cc9oeUFF.s:2400   .rodata.str1.4:00000020 .LC4
C:\Users\ldebo\AppData\Local\Temp\cc9oeUFF.s:585    .text:0000080c XRotationMatrix3D
C:\Users\ldebo\AppData\Local\Temp\cc9oeUFF.s:2334   .rodata:00000000 .LANCHOR0
C:\Users\ldebo\AppData\Local\Temp\cc9oeUFF.s:622    .text:00000878 YRotationMatrix3D
C:\Users\ldebo\AppData\Local\Temp\cc9oeUFF.s:659    .text:000008e4 ZRotationMatrix3D
C:\Users\ldebo\AppData\Local\Temp\cc9oeUFF.s:696    .text:00000950 MultiplyMatrix3D
C:\Users\ldebo\AppData\Local\Temp\cc9oeUFF.s:844    .text:00000b78 TransformPoint3D
C:\Users\ldebo\AppData\Local\Temp\cc9oeUFF.s:914    .text:00000c64 InitV3D
C:\Users\ldebo\AppData\Local\Temp\cc9oeUFF.s:963    .text:00000cf8 V3D_mem_alloc
C:\Users\ldebo\AppData\Local\Temp\cc9oeUFF.s:991    .text:00000d3c V3D_mem_free
C:\Users\ldebo\AppData\Local\Temp\cc9oeUFF.s:1014   .text:00000d6c V3D_mem_lock
C:\Users\ldebo\AppData\Local\Temp\cc9oeUFF.s:1039   .text:00000da4 V3D_mem_unlock
C:\Users\ldebo\AppData\Local\Temp\cc9oeUFF.s:1062   .text:00000dd4 V3D_execute_code
C:\Users\ldebo\AppData\Local\Temp\cc9oeUFF.s:1095   .text:00000e2c V3D_execute_qpu
C:\Users\ldebo\AppData\Local\Temp\cc9oeUFF.s:1122   .text:00000e6c DoRotate
C:\Users\ldebo\AppData\Local\Temp\cc9oeUFF.s:2379   .bss:00000000 .LANCHOR1
C:\Users\ldebo\AppData\Local\Temp\cc9oeUFF.s:1340   .text:000011c0 $d
C:\Users\ldebo\AppData\Local\Temp\cc9oeUFF.s:1346   .text:000011d0 $a
C:\Users\ldebo\AppData\Local\Temp\cc9oeUFF.s:1430   .text:000012fc RenderModel
C:\Users\ldebo\AppData\Local\Temp\cc9oeUFF.s:1504   .text:000013e8 SetupRenderer
C:\Users\ldebo\AppData\Local\Temp\cc9oeUFF.s:1864   .text:00001928 DoneRenderer
C:\Users\ldebo\AppData\Local\Temp\cc9oeUFF.s:1903   .text:00001994 CreateVertexData
C:\Users\ldebo\AppData\Local\Temp\cc9oeUFF.s:2450   .rodata.str1.4:00000200 .LC21
C:\Users\ldebo\AppData\Local\Temp\cc9oeUFF.s:2143   .text:00001d2c $d
C:\Users\ldebo\AppData\Local\Temp\cc9oeUFF.s:2146   .text:00001d34 $a
C:\Users\ldebo\AppData\Local\Temp\cc9oeUFF.s:2337   .rodata:00000000 IdentityMatrix3D
C:\Users\ldebo\AppData\Local\Temp\cc9oeUFF.s:2358   .data:00000000 fShaderStr
C:\Users\ldebo\AppData\Local\Temp\cc9oeUFF.s:2369   .data:00000174 vShaderStr
                            *COM*:00000004 __errno
C:\Users\ldebo\AppData\Local\Temp\cc9oeUFF.s:2333   .rodata:00000000 $d
C:\Users\ldebo\AppData\Local\Temp\cc9oeUFF.s:2355   .data:00000000 $d
ARM GAS  C:\Users\ldebo\AppData\Local\Temp\cc9oeUFF.s 			page 48


C:\Users\ldebo\AppData\Local\Temp\cc9oeUFF.s:2378   .bss:00000000 $d
C:\Users\ldebo\AppData\Local\Temp\cc9oeUFF.s:2382   .bss:00000000 angle
C:\Users\ldebo\AppData\Local\Temp\cc9oeUFF.s:2386   .bss:00000004 rotMat
C:\Users\ldebo\AppData\Local\Temp\cc9oeUFF.s:2389   .rodata.str1.4:00000000 $d

UNDEFINED SYMBOLS
sdCreateFile
sdGetFileSize
sdReadFile
sdCloseHandle
printf
sscanf
strchr
sinf
cosf
mailbox_tag_message
RPi_IO_Base_Addr
GPUaddrToARMaddr
ARM GAS  C:\Users\ldebo\AppData\Local\Temp\cc9oeUFF.s 			page 1


   1              		.arch armv8-a
   2              		.eabi_attribute 28, 1
   3              		.eabi_attribute 20, 1
   4              		.eabi_attribute 21, 1
   5              		.eabi_attribute 23, 3
   6              		.eabi_attribute 24, 1
   7              		.eabi_attribute 25, 1
   8              		.eabi_attribute 26, 1
   9              		.eabi_attribute 30, 2
  10              		.eabi_attribute 34, 0
  11              		.eabi_attribute 18, 4
  12              		.file	"SdCard.c"
  13              		.text
  14              		.align	2
  15              		.syntax unified
  16              		.arm
  17              		.fpu neon-vfpv4
  18              		.type	sdWaitForData, %function
  19              	sdWaitForData:
  20              		@ args = 0, pretend = 0, frame = 0
  21              		@ frame_needed = 0, uses_anonymous_args = 0
  22 0000 F84F2DE9 		push	{r3, r4, r5, r6, r7, r8, r9, r10, fp, lr}
  23 0004 0040A0E3 		mov	r4, #0
  24 0008 0050A0E3 		mov	r5, #0
  25 000c E4908FE2 		adr	r9, .L17
  26 0010 D080C9E1 		ldrd	r8, [r9]
  27 0014 00A000E3 		movw	r10, #:lower16:RPi_IO_Base_Addr
  28 0018 00A040E3 		movt	r10, #:upper16:RPi_IO_Base_Addr
  29 001c 02B9A0E3 		mov	fp, #32768
  30 0020 7EB140E3 		movt	fp, 382
  31 0024 0460A0E1 		mov	r6, r4
  32 0028 0570A0E1 		mov	r7, r5
  33              	.L2:
  34 002c 00309AE5 		ldr	r3, [r10]
  35 0030 033683E2 		add	r3, r3, #3145728
  36 0034 241083E2 		add	r1, r3, #36
  37 0038 242093E5 		ldr	r2, [r3, #36]
  38 003c 020012E3 		tst	r2, #2
  39 0040 1400000A 		beq	.L5
  40 0044 302093E5 		ldr	r2, [r3, #48]
  41 0048 0B0012E1 		tst	r2, fp
  42 004c 1100001A 		bne	.L5
  43 0050 090057E1 		cmp	r7, r9
  44 0054 08005601 		cmpeq	r6, r8
  45 0058 1800008A 		bhi	.L9
  46 005c 053094E1 		orrs	r3, r4, r5
  47 0060 0300001A 		bne	.L3
  48 0064 FEFFFFEB 		bl	timer_getTickCount
  49 0068 0040A0E1 		mov	r4, r0
  50 006c 0150A0E1 		mov	r5, r1
  51 0070 EDFFFFEA 		b	.L2
  52              	.L3:
  53 0074 FEFFFFEB 		bl	timer_getTickCount
  54 0078 0020A0E1 		mov	r2, r0
  55 007c 0130A0E1 		mov	r3, r1
  56 0080 0400A0E1 		mov	r0, r4
  57 0084 0510A0E1 		mov	r1, r5
ARM GAS  C:\Users\ldebo\AppData\Local\Temp\cc9oeUFF.s 			page 2


  58 0088 FEFFFFEB 		bl	tick_difference
  59 008c 0060A0E1 		mov	r6, r0
  60 0090 0170A0E1 		mov	r7, r1
  61 0094 E4FFFFEA 		b	.L2
  62              	.L5:
  63 0098 58508FE2 		adr	r5, .L17
  64 009c D040C5E1 		ldrd	r4, [r5]
  65 00a0 050057E1 		cmp	r7, r5
  66 00a4 04005601 		cmpeq	r6, r4
  67 00a8 0400008A 		bhi	.L9
  68 00ac 300093E5 		ldr	r0, [r3, #48]
  69 00b0 0229A0E3 		mov	r2, #32768
  70 00b4 7E2140E3 		movt	r2, 382
  71 00b8 020010E0 		ands	r0, r0, r2
  72 00bc 0C00000A 		beq	.L16
  73              	.L9:
  74 00c0 002000E3 		movw	r2, #:lower16:.LANCHOR0
  75 00c4 002040E3 		movt	r2, #:upper16:.LANCHOR0
  76 00c8 004092E5 		ldr	r4, [r2]
  77 00cc 000054E3 		cmp	r4, #0
  78 00d0 0500000A 		beq	.L14
  79 00d4 001091E5 		ldr	r1, [r1]
  80 00d8 000000E3 		movw	r0, #:lower16:.LC0
  81 00dc 000040E3 		movt	r0, #:upper16:.LC0
  82 00e0 302093E5 		ldr	r2, [r3, #48]
  83 00e4 103093E5 		ldr	r3, [r3, #16]
  84 00e8 34FF2FE1 		blx	r4
  85              	.L14:
  86 00ec 0300A0E3 		mov	r0, #3
  87 00f0 F88FBDE8 		pop	{r3, r4, r5, r6, r7, r8, r9, r10, fp, pc}
  88              	.L16:
  89 00f4 F88FBDE8 		pop	{r3, r4, r5, r6, r7, r8, r9, r10, fp, pc}
  90              	.L18:
  91              		.align	3
  92              	.L17:
  93 00f8 1FA10700 		.word	499999
  94 00fc 00000000 		.word	0
  95              		.size	sdWaitForData, .-sdWaitForData
  96              		.align	2
  97              		.syntax unified
  98              		.arm
  99              		.fpu neon-vfpv4
 100              		.type	sdWaitForInterrupt, %function
 101              	sdWaitForInterrupt:
 102              		@ args = 0, pretend = 0, frame = 8
 103              		@ frame_needed = 0, uses_anonymous_args = 0
 104 0100 F04F2DE9 		push	{r4, r5, r6, r7, r8, r9, r10, fp, lr}
 105 0104 0040A0E3 		mov	r4, #0
 106 0108 0050A0E3 		mov	r5, #0
 107 010c 14D04DE2 		sub	sp, sp, #20
 108 0110 5F7780E3 		orr	r7, r0, #24903680
 109 0114 559F8FE2 		adr	r9, .L43
 110 0118 D080C9E1 		ldrd	r8, [r9]
 111 011c 006000E3 		movw	r6, #:lower16:RPi_IO_Base_Addr
 112 0120 006040E3 		movt	r6, #:upper16:RPi_IO_Base_Addr
 113 0124 0A7987E3 		orr	r7, r7, #163840
 114 0128 04A0A0E1 		mov	r10, r4
ARM GAS  C:\Users\ldebo\AppData\Local\Temp\cc9oeUFF.s 			page 3


 115 012c 05B0A0E1 		mov	fp, r5
 116 0130 0C008DE5 		str	r0, [sp, #12]
 117              	.L20:
 118 0134 00C096E5 		ldr	ip, [r6]
 119 0138 03C68CE2 		add	ip, ip, #3145728
 120 013c 30E08CE2 		add	lr, ip, #48
 121 0140 30109CE5 		ldr	r1, [ip, #48]
 122 0144 010017E1 		tst	r7, r1
 123 0148 1100001A 		bne	.L23
 124 014c 09005BE1 		cmp	fp, r9
 125 0150 08005A01 		cmpeq	r10, r8
 126 0154 2A00008A 		bhi	.L42
 127 0158 053094E1 		orrs	r3, r4, r5
 128 015c 0300001A 		bne	.L21
 129 0160 FEFFFFEB 		bl	timer_getTickCount
 130 0164 0040A0E1 		mov	r4, r0
 131 0168 0150A0E1 		mov	r5, r1
 132 016c F0FFFFEA 		b	.L20
 133              	.L21:
 134 0170 FEFFFFEB 		bl	timer_getTickCount
 135 0174 0020A0E1 		mov	r2, r0
 136 0178 0130A0E1 		mov	r3, r1
 137 017c 0400A0E1 		mov	r0, r4
 138 0180 0510A0E1 		mov	r1, r5
 139 0184 FEFFFFEB 		bl	tick_difference
 140 0188 00A0A0E1 		mov	r10, r0
 141 018c 01B0A0E1 		mov	fp, r1
 142 0190 E7FFFFEA 		b	.L20
 143              	.L23:
 144 0194 D4108FE2 		adr	r1, .L43
 145 0198 D000C1E1 		ldrd	r0, [r1]
 146 019c 00409EE5 		ldr	r4, [lr]
 147 01a0 01005BE1 		cmp	fp, r1
 148 01a4 00005A01 		cmpeq	r10, r0
 149 01a8 0100008A 		bhi	.L26
 150 01ac 110814E3 		tst	r4, #1114112
 151 01b0 1500000A 		beq	.L27
 152              	.L26:
 153 01b4 003000E3 		movw	r3, #:lower16:.LANCHOR0
 154 01b8 003040E3 		movt	r3, #:upper16:.LANCHOR0
 155 01bc 005093E5 		ldr	r5, [r3]
 156 01c0 000055E3 		cmp	r5, #0
 157 01c4 0A00000A 		beq	.L28
 158 01c8 24209CE5 		ldr	r2, [ip, #36]
 159 01cc 000000E3 		movw	r0, #:lower16:.LC1
 160 01d0 000040E3 		movt	r0, #:upper16:.LC1
 161 01d4 10309CE5 		ldr	r3, [ip, #16]
 162 01d8 0C109DE5 		ldr	r1, [sp, #12]
 163 01dc 00308DE5 		str	r3, [sp]
 164 01e0 0430A0E1 		mov	r3, r4
 165 01e4 35FF2FE1 		blx	r5
 166 01e8 00E096E5 		ldr	lr, [r6]
 167 01ec 03E68EE2 		add	lr, lr, #3145728
 168 01f0 30E08EE2 		add	lr, lr, #48
 169              	.L28:
 170 01f4 0200A0E3 		mov	r0, #2
 171 01f8 00408EE5 		str	r4, [lr]
ARM GAS  C:\Users\ldebo\AppData\Local\Temp\cc9oeUFF.s 			page 4


 172              	.L39:
 173 01fc 14D08DE2 		add	sp, sp, #20
 174              		@ sp needed
 175 0200 F08FBDE8 		pop	{r4, r5, r6, r7, r8, r9, r10, fp, pc}
 176              	.L42:
 177 0204 00409EE5 		ldr	r4, [lr]
 178 0208 E9FFFFEA 		b	.L26
 179              	.L27:
 180 020c 0239A0E3 		mov	r3, #32768
 181 0210 7E3140E3 		movt	r3, 382
 182 0214 030014E0 		ands	r0, r4, r3
 183 0218 1000000A 		beq	.L30
 184 021c 003000E3 		movw	r3, #:lower16:.LANCHOR0
 185 0220 003040E3 		movt	r3, #:upper16:.LANCHOR0
 186 0224 005093E5 		ldr	r5, [r3]
 187 0228 000055E3 		cmp	r5, #0
 188 022c 0800000A 		beq	.L31
 189 0230 24109CE5 		ldr	r1, [ip, #36]
 190 0234 000000E3 		movw	r0, #:lower16:.LC2
 191 0238 000040E3 		movt	r0, #:upper16:.LC2
 192 023c 10309CE5 		ldr	r3, [ip, #16]
 193 0240 0420A0E1 		mov	r2, r4
 194 0244 35FF2FE1 		blx	r5
 195 0248 00E096E5 		ldr	lr, [r6]
 196 024c 03E68EE2 		add	lr, lr, #3145728
 197 0250 30E08EE2 		add	lr, lr, #48
 198              	.L31:
 199 0254 00408EE5 		str	r4, [lr]
 200 0258 0100A0E3 		mov	r0, #1
 201 025c E6FFFFEA 		b	.L39
 202              	.L30:
 203 0260 0C309DE5 		ldr	r3, [sp, #12]
 204 0264 00308EE5 		str	r3, [lr]
 205 0268 E3FFFFEA 		b	.L39
 206              	.L44:
 207 026c 00F020E3 		.align	3
 208              	.L43:
 209 0270 3F420F00 		.word	999999
 210 0274 00000000 		.word	0
 211              		.size	sdWaitForInterrupt, .-sdWaitForInterrupt
 212              		.align	2
 213              		.syntax unified
 214              		.arm
 215              		.fpu neon-vfpv4
 216              		.type	sdSetClock, %function
 217              	sdSetClock:
 218              		@ args = 0, pretend = 0, frame = 0
 219              		@ frame_needed = 0, uses_anonymous_args = 0
 220 0278 F84F2DE9 		push	{r3, r4, r5, r6, r7, r8, r9, r10, fp, lr}
 221 027c 0040A0E3 		mov	r4, #0
 222 0280 0050A0E3 		mov	r5, #0
 223 0284 A79F8FE2 		adr	r9, .L84
 224 0288 D080C9E1 		ldrd	r8, [r9]
 225 028c 00A000E3 		movw	r10, #:lower16:RPi_IO_Base_Addr
 226 0290 00A040E3 		movt	r10, #:upper16:RPi_IO_Base_Addr
 227 0294 00B0A0E1 		mov	fp, r0
 228 0298 0460A0E1 		mov	r6, r4
ARM GAS  C:\Users\ldebo\AppData\Local\Temp\cc9oeUFF.s 			page 5


 229 029c 0570A0E1 		mov	r7, r5
 230              	.L46:
 231 02a0 00309AE5 		ldr	r3, [r10]
 232 02a4 033683E2 		add	r3, r3, #3145728
 233 02a8 24C083E2 		add	ip, r3, #36
 234 02ac 242093E5 		ldr	r2, [r3, #36]
 235 02b0 010012E3 		tst	r2, #1
 236 02b4 0300001A 		bne	.L49
 237 02b8 242093E5 		ldr	r2, [r3, #36]
 238 02bc D220E0E7 		ubfx	r2, r2, #1, #1
 239 02c0 000052E3 		cmp	r2, #0
 240 02c4 2600000A 		beq	.L50
 241              	.L49:
 242 02c8 090057E1 		cmp	r7, r9
 243 02cc 08005601 		cmpeq	r6, r8
 244 02d0 0E00008A 		bhi	.L52
 245 02d4 053094E1 		orrs	r3, r4, r5
 246 02d8 0300001A 		bne	.L47
 247 02dc FEFFFFEB 		bl	timer_getTickCount
 248 02e0 0040A0E1 		mov	r4, r0
 249 02e4 0150A0E1 		mov	r5, r1
 250 02e8 ECFFFFEA 		b	.L46
 251              	.L47:
 252 02ec FEFFFFEB 		bl	timer_getTickCount
 253 02f0 0020A0E1 		mov	r2, r0
 254 02f4 0130A0E1 		mov	r3, r1
 255 02f8 0400A0E1 		mov	r0, r4
 256 02fc 0510A0E1 		mov	r1, r5
 257 0300 FEFFFFEB 		bl	tick_difference
 258 0304 0060A0E1 		mov	r6, r0
 259 0308 0170A0E1 		mov	r7, r1
 260 030c E3FFFFEA 		b	.L46
 261              	.L52:
 262 0310 003000E3 		movw	r3, #:lower16:.LANCHOR0
 263 0314 003040E3 		movt	r3, #:upper16:.LANCHOR0
 264 0318 003093E5 		ldr	r3, [r3]
 265 031c 000053E3 		cmp	r3, #0
 266 0320 0D00000A 		beq	.L82
 267 0324 00109CE5 		ldr	r1, [ip]
 268 0328 000000E3 		movw	r0, #:lower16:.LC3
 269 032c 000040E3 		movt	r0, #:upper16:.LC3
 270 0330 33FF2FE1 		blx	r3
 271 0334 0700A0E3 		mov	r0, #7
 272 0338 F88FBDE8 		pop	{r3, r4, r5, r6, r7, r8, r9, r10, fp, pc}
 273              	.L71:
 274 033c 003000E3 		movw	r3, #:lower16:.LANCHOR0
 275 0340 003040E3 		movt	r3, #:upper16:.LANCHOR0
 276 0344 003093E5 		ldr	r3, [r3]
 277 0348 000053E3 		cmp	r3, #0
 278 034c 0200000A 		beq	.L82
 279 0350 000000E3 		movw	r0, #:lower16:.LC4
 280 0354 000040E3 		movt	r0, #:upper16:.LC4
 281 0358 33FF2FE1 		blx	r3
 282              	.L82:
 283 035c 0700A0E3 		mov	r0, #7
 284 0360 F88FBDE8 		pop	{r3, r4, r5, r6, r7, r8, r9, r10, fp, pc}
 285              	.L50:
ARM GAS  C:\Users\ldebo\AppData\Local\Temp\cc9oeUFF.s 			page 6


 286 0364 6F1F8FE2 		adr	r1, .L84
 287 0368 D000C1E1 		ldrd	r0, [r1]
 288 036c 010057E1 		cmp	r7, r1
 289 0370 00005601 		cmpeq	r6, r0
 290 0374 E5FFFF8A 		bhi	.L52
 291 0378 2CC093E5 		ldr	ip, [r3, #44]
 292 037c 0A00A0E3 		mov	r0, #10
 293 0380 0010A0E3 		mov	r1, #0
 294 0384 12C1C2E7 		bfi	ip, r2, #2, #1
 295 0388 2CC083E5 		str	ip, [r3, #44]
 296 038c FEFFFFEB 		bl	timer_wait
 297 0390 6A380CE3 		movw	r3, #51306
 298 0394 7B3240E3 		movt	r3, 635
 299 0398 03308BE0 		add	r3, fp, r3
 300 039c 00C09AE5 		ldr	ip, [r10]
 301 03a0 03C68CE2 		add	ip, ip, #3145728
 302 03a4 13FB3BE7 		udiv	fp, r3, fp
 303 03a8 FC309CE5 		ldr	r3, [ip, #252]
 304 03ac 010B5BE3 		cmp	fp, #1024
 305 03b0 5338E7E7 		ubfx	r3, r3, #16, #8
 306 03b4 2900002A 		bcs	.L56
 307 03b8 010053E3 		cmp	r3, #1
 308 03bc 4700009A 		bls	.L83
 309 03c0 02005BE3 		cmp	fp, #2
 310 03c4 013BA093 		movls	r3, #1024
 311 03c8 0B24A081 		lslhi	r2, fp, #8
 312 03cc 2B31A081 		lsrhi	r3, fp, #2
 313 03d0 C0300382 		andhi	r3, r3, #192
 314 03d4 7220FF86 		uxthhi	r2, r2
 315 03d8 02308381 		orrhi	r3, r3, r2
 316              	.L65:
 317 03dc 2C209CE5 		ldr	r2, [ip, #44]
 318 03e0 0A00A0E3 		mov	r0, #10
 319 03e4 0010A0E3 		mov	r1, #0
 320 03e8 0040A0E3 		mov	r4, #0
 321 03ec FF2CC2E3 		bic	r2, r2, #65280
 322 03f0 0050A0E3 		mov	r5, #0
 323 03f4 E020C2E3 		bic	r2, r2, #224
 324 03f8 0480A0E1 		mov	r8, r4
 325 03fc 033082E1 		orr	r3, r2, r3
 326 0400 0590A0E1 		mov	r9, r5
 327 0404 2C308CE5 		str	r3, [ip, #44]
 328 0408 FEFFFFEB 		bl	timer_wait
 329 040c 00309AE5 		ldr	r3, [r10]
 330 0410 117E8FE2 		adr	r7, .L84
 331 0414 D060C7E1 		ldrd	r6, [r7]
 332 0418 033683E2 		add	r3, r3, #3145728
 333 041c 2C2093E5 		ldr	r2, [r3, #44]
 334 0420 042082E3 		orr	r2, r2, #4
 335 0424 2C2083E5 		str	r2, [r3, #44]
 336              	.L66:
 337 0428 00309AE5 		ldr	r3, [r10]
 338 042c 033683E2 		add	r3, r3, #3145728
 339 0430 2C3093E5 		ldr	r3, [r3, #44]
 340 0434 020013E3 		tst	r3, #2
 341 0438 2100001A 		bne	.L69
 342 043c 070059E1 		cmp	r9, r7
ARM GAS  C:\Users\ldebo\AppData\Local\Temp\cc9oeUFF.s 			page 7


 343 0440 06005801 		cmpeq	r8, r6
 344 0444 BCFFFF8A 		bhi	.L71
 345 0448 053094E1 		orrs	r3, r4, r5
 346 044c 1300001A 		bne	.L67
 347 0450 FEFFFFEB 		bl	timer_getTickCount
 348 0454 0040A0E1 		mov	r4, r0
 349 0458 0150A0E1 		mov	r5, r1
 350 045c F1FFFFEA 		b	.L66
 351              	.L56:
 352 0460 010053E3 		cmp	r3, #1
 353 0464 C03F0F83 		movwhi	r3, #65472
 354 0468 DBFFFF8A 		bhi	.L65
 355 046c 0020A0E3 		mov	r2, #0
 356 0470 F02F43E3 		movt	r2, 16368
 357 0474 0C30A0E3 		mov	r3, #12
 358              	.L60:
 359 0478 0221A0E1 		lsl	r2, r2, #2
 360 047c 023043E2 		sub	r3, r3, #2
 361              	.L63:
 362 0480 000052E3 		cmp	r2, #0
 363 0484 013043A2 		subge	r3, r3, #1
 364 0488 012043E2 		sub	r2, r3, #1
 365 048c 013CA0E3 		mov	r3, #256
 366 0490 070052E3 		cmp	r2, #7
 367 0494 0720A023 		movcs	r2, #7
 368 0498 1332A0E1 		lsl	r3, r3, r2
 369 049c CEFFFFEA 		b	.L65
 370              	.L67:
 371 04a0 FEFFFFEB 		bl	timer_getTickCount
 372 04a4 0020A0E1 		mov	r2, r0
 373 04a8 0130A0E1 		mov	r3, r1
 374 04ac 0400A0E1 		mov	r0, r4
 375 04b0 0510A0E1 		mov	r1, r5
 376 04b4 FEFFFFEB 		bl	tick_difference
 377 04b8 0080A0E1 		mov	r8, r0
 378 04bc 0190A0E1 		mov	r9, r1
 379 04c0 D8FFFFEA 		b	.L66
 380              	.L69:
 381 04c4 5C308FE2 		adr	r3, .L84
 382 04c8 D020C3E1 		ldrd	r2, [r3]
 383 04cc 030059E1 		cmp	r9, r3
 384 04d0 02005801 		cmpeq	r8, r2
 385 04d4 98FFFF8A 		bhi	.L71
 386 04d8 0000A0E3 		mov	r0, #0
 387 04dc F88FBDE8 		pop	{r3, r4, r5, r6, r7, r8, r9, r10, fp, pc}
 388              	.L83:
 389 04e0 00005BE3 		cmp	fp, #0
 390 04e4 013CA003 		moveq	r3, #256
 391 04e8 BBFFFF0A 		beq	.L65
 392 04ec 0B38A0E1 		lsl	r3, fp, #16
 393 04f0 FF0413E3 		tst	r3, #-16777216
 394 04f4 0C30A013 		movne	r3, #12
 395 04f8 0B2AA011 		lslne	r2, fp, #20
 396 04fc DDFFFF1A 		bne	.L60
 397 0500 0B2CA0E1 		lsl	r2, fp, #24
 398 0504 0F0212E3 		tst	r2, #-268435456
 399 0508 03110212 		andne	r1, r2, #-1073741824
ARM GAS  C:\Users\ldebo\AppData\Local\Temp\cc9oeUFF.s 			page 8


 400 050c 0830A013 		movne	r3, #8
 401 0510 0B2EA001 		lsleq	r2, fp, #28
 402 0514 0430A003 		moveq	r3, #4
 403 0518 03110202 		andeq	r1, r2, #-1073741824
 404 051c 000051E3 		cmp	r1, #0
 405 0520 D6FFFF1A 		bne	.L63
 406 0524 D3FFFFEA 		b	.L60
 407              	.L85:
 408              		.align	3
 409              	.L84:
 410 0528 9F860100 		.word	99999
 411 052c 00000000 		.word	0
 412              		.size	sdSetClock, .-sdSetClock
 413              		.align	2
 414              		.syntax unified
 415              		.arm
 416              		.fpu neon-vfpv4
 417              		.type	ReadLFNEntry, %function
 418              	ReadLFNEntry:
 419              		@ args = 0, pretend = 0, frame = 0
 420              		@ frame_needed = 0, uses_anonymous_args = 0
 421 0530 F0412DE9 		push	{r4, r5, r6, r7, r8, lr}
 422 0534 006050E2 		subs	r6, r0, #0
 423 0538 0150A0E1 		mov	r5, r1
 424 053c 2200000A 		beq	.L96
 425 0540 0670A0E1 		mov	r7, r6
 426 0544 018041E2 		sub	r8, r1, #1
 427 0548 0040A0E3 		mov	r4, #0
 428              	.L89:
 429 054c 0230D7E5 		ldrb	r3, [r7, #2]	@ zero_extendqisi2
 430 0550 0100D7E5 		ldrb	r0, [r7, #1]	@ zero_extendqisi2
 431 0554 030490E1 		orrs	r0, r0, r3, lsl #8
 432 0558 0400001A 		bne	.L102
 433              	.L93:
 434 055c 0430A0E1 		mov	r3, r4
 435              	.L87:
 436 0560 0020A0E3 		mov	r2, #0
 437 0564 0400A0E1 		mov	r0, r4
 438 0568 0320C5E7 		strb	r2, [r5, r3]
 439 056c F081BDE8 		pop	{r4, r5, r6, r7, r8, pc}
 440              	.L102:
 441 0570 014084E2 		add	r4, r4, #1
 442 0574 FEFFFFEB 		bl	wctob
 443 0578 027087E2 		add	r7, r7, #2
 444 057c 0100E8E5 		strb	r0, [r8, #1]!
 445 0580 7440EFE6 		uxtb	r4, r4
 446 0584 050054E3 		cmp	r4, #5
 447 0588 EFFFFF1A 		bne	.L89
 448 058c 0070A0E3 		mov	r7, #0
 449              	.L92:
 450 0590 043087E2 		add	r3, r7, #4
 451 0594 833086E0 		add	r3, r6, r3, lsl #1
 452 0598 0600D3E5 		ldrb	r0, [r3, #6]	@ zero_extendqisi2
 453 059c 0730D3E5 		ldrb	r3, [r3, #7]	@ zero_extendqisi2
 454 05a0 030490E1 		orrs	r0, r0, r3, lsl #8
 455 05a4 ECFFFF0A 		beq	.L93
 456 05a8 017087E2 		add	r7, r7, #1
ARM GAS  C:\Users\ldebo\AppData\Local\Temp\cc9oeUFF.s 			page 9


 457 05ac FEFFFFEB 		bl	wctob
 458 05b0 060057E3 		cmp	r7, #6
 459 05b4 018084E2 		add	r8, r4, #1
 460 05b8 0400C5E7 		strb	r0, [r5, r4]
 461 05bc 7880EFE6 		uxtb	r8, r8
 462 05c0 0400000A 		beq	.L103
 463 05c4 0840A0E1 		mov	r4, r8
 464 05c8 F0FFFFEA 		b	.L92
 465              	.L96:
 466 05cc 0630A0E1 		mov	r3, r6
 467 05d0 0640A0E1 		mov	r4, r6
 468 05d4 E1FFFFEA 		b	.L87
 469              	.L103:
 470 05d8 1C00D6E5 		ldrb	r0, [r6, #28]	@ zero_extendqisi2
 471 05dc 1D30D6E5 		ldrb	r3, [r6, #29]	@ zero_extendqisi2
 472 05e0 030490E1 		orrs	r0, r0, r3, lsl #8
 473 05e4 0840A001 		moveq	r4, r8
 474 05e8 DBFFFF0A 		beq	.L93
 475 05ec 023084E2 		add	r3, r4, #2
 476 05f0 7370EFE6 		uxtb	r7, r3
 477 05f4 FEFFFFEB 		bl	wctob
 478 05f8 0800C5E7 		strb	r0, [r5, r8]
 479 05fc 1E00D6E5 		ldrb	r0, [r6, #30]	@ zero_extendqisi2
 480 0600 1F30D6E5 		ldrb	r3, [r6, #31]	@ zero_extendqisi2
 481 0604 030490E1 		orrs	r0, r0, r3, lsl #8
 482 0608 0740A001 		moveq	r4, r7
 483 060c D2FFFF0A 		beq	.L93
 484 0610 034084E2 		add	r4, r4, #3
 485 0614 FEFFFFEB 		bl	wctob
 486 0618 0700C5E7 		strb	r0, [r5, r7]
 487 061c 7440EFE6 		uxtb	r4, r4
 488 0620 0430A0E1 		mov	r3, r4
 489 0624 CDFFFFEA 		b	.L87
 490              		.size	ReadLFNEntry, .-ReadLFNEntry
 491              		.align	2
 492              		.syntax unified
 493              		.arm
 494              		.fpu neon-vfpv4
 495              		.type	SetFindDataFromFATEntry.part.0, %function
 496              	SetFindDataFromFATEntry.part.0:
 497              		@ args = 0, pretend = 0, frame = 0
 498              		@ frame_needed = 0, uses_anonymous_args = 0
 499 0628 0B30D0E5 		ldrb	r3, [r0, #11]	@ zero_extendqisi2
 500 062c 0020A0E3 		mov	r2, #0
 501 0630 10402DE9 		push	{r4, lr}
 502 0634 6C3081E5 		str	r3, [r1, #108]
 503 0638 19C0D0E5 		ldrb	ip, [r0, #25]	@ zero_extendqisi2
 504 063c 1830D0E5 		ldrb	r3, [r0, #24]	@ zero_extendqisi2
 505 0640 0C3483E1 		orr	r3, r3, ip, lsl #8
 506 0644 1FE003E2 		and	lr, r3, #31
 507 0648 D3C2E3E7 		ubfx	ip, r3, #5, #4
 508 064c A334A0E1 		lsr	r3, r3, #9
 509 0650 01C04CE2 		sub	ip, ip, #1
 510 0654 503083E2 		add	r3, r3, #80
 511 0658 0CE081E5 		str	lr, [r1, #12]
 512 065c 10C081E5 		str	ip, [r1, #16]
 513 0660 143081E5 		str	r3, [r1, #20]
ARM GAS  C:\Users\ldebo\AppData\Local\Temp\cc9oeUFF.s 			page 10


 514 0664 17C0D0E5 		ldrb	ip, [r0, #23]	@ zero_extendqisi2
 515 0668 1630D0E5 		ldrb	r3, [r0, #22]	@ zero_extendqisi2
 516 066c 0C3483E1 		orr	r3, r3, ip, lsl #8
 517 0670 D3E2E5E7 		ubfx	lr, r3, #5, #6
 518 0674 83C0A0E1 		lsl	ip, r3, #1
 519 0678 A335A0E1 		lsr	r3, r3, #11
 520 067c 3EC00CE2 		and	ip, ip, #62
 521 0680 083081E5 		str	r3, [r1, #8]
 522 0684 005081E8 		stm	r1, {ip, lr}
 523 0688 13C0D0E5 		ldrb	ip, [r0, #19]	@ zero_extendqisi2
 524 068c 1230D0E5 		ldrb	r3, [r0, #18]	@ zero_extendqisi2
 525 0690 0C3483E1 		orr	r3, r3, ip, lsl #8
 526 0694 1FE003E2 		and	lr, r3, #31
 527 0698 D3C2E3E7 		ubfx	ip, r3, #5, #4
 528 069c A334A0E1 		lsr	r3, r3, #9
 529 06a0 01C04CE2 		sub	ip, ip, #1
 530 06a4 503083E2 		add	r3, r3, #80
 531 06a8 30E081E5 		str	lr, [r1, #48]
 532 06ac 34C081E5 		str	ip, [r1, #52]
 533 06b0 383081E5 		str	r3, [r1, #56]
 534 06b4 11C0D0E5 		ldrb	ip, [r0, #17]	@ zero_extendqisi2
 535 06b8 1030D0E5 		ldrb	r3, [r0, #16]	@ zero_extendqisi2
 536 06bc 0C3483E1 		orr	r3, r3, ip, lsl #8
 537 06c0 1FE003E2 		and	lr, r3, #31
 538 06c4 D3C2E3E7 		ubfx	ip, r3, #5, #4
 539 06c8 A334A0E1 		lsr	r3, r3, #9
 540 06cc 01C04CE2 		sub	ip, ip, #1
 541 06d0 503083E2 		add	r3, r3, #80
 542 06d4 54E081E5 		str	lr, [r1, #84]
 543 06d8 58C081E5 		str	ip, [r1, #88]
 544 06dc 5C3081E5 		str	r3, [r1, #92]
 545 06e0 0FC0D0E5 		ldrb	ip, [r0, #15]	@ zero_extendqisi2
 546 06e4 0E30D0E5 		ldrb	r3, [r0, #14]	@ zero_extendqisi2
 547 06e8 0C3483E1 		orr	r3, r3, ip, lsl #8
 548 06ec D3E2E5E7 		ubfx	lr, r3, #5, #6
 549 06f0 83C0A0E1 		lsl	ip, r3, #1
 550 06f4 A335A0E1 		lsr	r3, r3, #11
 551 06f8 3EC00CE2 		and	ip, ip, #62
 552 06fc 503081E5 		str	r3, [r1, #80]
 553 0700 4CE081E5 		str	lr, [r1, #76]
 554 0704 48C081E5 		str	ip, [r1, #72]
 555 0708 1C30D0E5 		ldrb	r3, [r0, #28]	@ zero_extendqisi2
 556 070c 1D40D0E5 		ldrb	r4, [r0, #29]	@ zero_extendqisi2
 557 0710 1EE0D0E5 		ldrb	lr, [r0, #30]	@ zero_extendqisi2
 558 0714 1FC0D0E5 		ldrb	ip, [r0, #31]	@ zero_extendqisi2
 559 0718 043483E1 		orr	r3, r3, r4, lsl #8
 560 071c 0E3883E1 		orr	r3, r3, lr, lsl #16
 561 0720 0C3C83E1 		orr	r3, r3, ip, lsl #24
 562 0724 743081E5 		str	r3, [r1, #116]
 563 0728 702081E5 		str	r2, [r1, #112]
 564 072c 0030D0E5 		ldrb	r3, [r0]	@ zero_extendqisi2
 565 0730 7831C1E5 		strb	r3, [r1, #376]
 566 0734 0130D0E5 		ldrb	r3, [r0, #1]	@ zero_extendqisi2
 567 0738 7931C1E5 		strb	r3, [r1, #377]
 568 073c 0230D0E5 		ldrb	r3, [r0, #2]	@ zero_extendqisi2
 569 0740 7A31C1E5 		strb	r3, [r1, #378]
 570 0744 0330D0E5 		ldrb	r3, [r0, #3]	@ zero_extendqisi2
ARM GAS  C:\Users\ldebo\AppData\Local\Temp\cc9oeUFF.s 			page 11


 571 0748 7B31C1E5 		strb	r3, [r1, #379]
 572 074c 0430D0E5 		ldrb	r3, [r0, #4]	@ zero_extendqisi2
 573 0750 7C31C1E5 		strb	r3, [r1, #380]
 574 0754 0530D0E5 		ldrb	r3, [r0, #5]	@ zero_extendqisi2
 575 0758 7D31C1E5 		strb	r3, [r1, #381]
 576 075c 0630D0E5 		ldrb	r3, [r0, #6]	@ zero_extendqisi2
 577 0760 7E31C1E5 		strb	r3, [r1, #382]
 578 0764 0730D0E5 		ldrb	r3, [r0, #7]	@ zero_extendqisi2
 579 0768 7F31C1E5 		strb	r3, [r1, #383]
 580 076c 0830D0E5 		ldrb	r3, [r0, #8]	@ zero_extendqisi2
 581 0770 8031C1E5 		strb	r3, [r1, #384]
 582 0774 0930D0E5 		ldrb	r3, [r0, #9]	@ zero_extendqisi2
 583 0778 8131C1E5 		strb	r3, [r1, #385]
 584 077c 0A30D0E5 		ldrb	r3, [r0, #10]	@ zero_extendqisi2
 585 0780 8231C1E5 		strb	r3, [r1, #386]
 586 0784 1080BDE8 		pop	{r4, pc}
 587              		.size	SetFindDataFromFATEntry.part.0, .-SetFindDataFromFATEntry.part.0
 588              		.align	2
 589              		.syntax unified
 590              		.arm
 591              		.fpu neon-vfpv4
 592              		.type	sdSendCommandP, %function
 593              	sdSendCommandP:
 594              		@ args = 0, pretend = 0, frame = 24
 595              		@ frame_needed = 0, uses_anonymous_args = 0
 596 0788 F04F2DE9 		push	{r4, r5, r6, r7, r8, r9, r10, fp, lr}
 597 078c 0040A0E3 		mov	r4, #0
 598 0790 0050A0E3 		mov	r5, #0
 599 0794 1CD04DE2 		sub	sp, sp, #28
 600 0798 006000E3 		movw	r6, #:lower16:RPi_IO_Base_Addr
 601 079c 006040E3 		movt	r6, #:upper16:RPi_IO_Base_Addr
 602 07a0 8E9F8FE2 		adr	r9, .L140
 603 07a4 D080C9E1 		ldrd	r8, [r9]
 604 07a8 0279A0E3 		mov	r7, #32768
 605 07ac 7E7140E3 		movt	r7, 382
 606 07b0 04A0A0E1 		mov	r10, r4
 607 07b4 05B0A0E1 		mov	fp, r5
 608 07b8 03008DE8 		stm	sp, {r0, r1}
 609              	.L107:
 610 07bc 00C096E5 		ldr	ip, [r6]
 611 07c0 03C68CE2 		add	ip, ip, #3145728
 612 07c4 24E08CE2 		add	lr, ip, #36
 613 07c8 24109CE5 		ldr	r1, [ip, #36]
 614 07cc 010011E3 		tst	r1, #1
 615 07d0 1400000A 		beq	.L110
 616 07d4 30109CE5 		ldr	r1, [ip, #48]
 617 07d8 070011E1 		tst	r1, r7
 618 07dc 1100001A 		bne	.L110
 619 07e0 09005BE1 		cmp	fp, r9
 620 07e4 08005A01 		cmpeq	r10, r8
 621 07e8 1800008A 		bhi	.L112
 622 07ec 053094E1 		orrs	r3, r4, r5
 623 07f0 0300001A 		bne	.L108
 624 07f4 FEFFFFEB 		bl	timer_getTickCount
 625 07f8 0040A0E1 		mov	r4, r0
 626 07fc 0150A0E1 		mov	r5, r1
 627 0800 EDFFFFEA 		b	.L107
ARM GAS  C:\Users\ldebo\AppData\Local\Temp\cc9oeUFF.s 			page 12


 628              	.L108:
 629 0804 FEFFFFEB 		bl	timer_getTickCount
 630 0808 0020A0E1 		mov	r2, r0
 631 080c 0130A0E1 		mov	r3, r1
 632 0810 0400A0E1 		mov	r0, r4
 633 0814 0510A0E1 		mov	r1, r5
 634 0818 FEFFFFEB 		bl	tick_difference
 635 081c 00A0A0E1 		mov	r10, r0
 636 0820 01B0A0E1 		mov	fp, r1
 637 0824 E4FFFFEA 		b	.L107
 638              	.L110:
 639 0828 1B1E8FE2 		adr	r1, .L140
 640 082c D000C1E1 		ldrd	r0, [r1]
 641 0830 01005BE1 		cmp	fp, r1
 642 0834 00005A01 		cmpeq	r10, r0
 643 0838 0400008A 		bhi	.L112
 644 083c 30209CE5 		ldr	r2, [ip, #48]
 645 0840 0239A0E3 		mov	r3, #32768
 646 0844 7E3140E3 		movt	r3, 382
 647 0848 030012E1 		tst	r2, r3
 648 084c 0E00000A 		beq	.L113
 649              	.L112:
 650 0850 003000E3 		movw	r3, #:lower16:.LANCHOR0
 651 0854 003040E3 		movt	r3, #:upper16:.LANCHOR0
 652 0858 004093E5 		ldr	r4, [r3]
 653 085c 000054E3 		cmp	r4, #0
 654 0860 0300A003 		moveq	r0, #3
 655 0864 0600000A 		beq	.L106
 656 0868 00109EE5 		ldr	r1, [lr]
 657 086c 000000E3 		movw	r0, #:lower16:.LC5
 658 0870 000040E3 		movt	r0, #:upper16:.LC5
 659 0874 30209CE5 		ldr	r2, [ip, #48]
 660 0878 10309CE5 		ldr	r3, [ip, #16]
 661 087c 34FF2FE1 		blx	r4
 662 0880 0300A0E3 		mov	r0, #3
 663              	.L106:
 664 0884 1CD08DE2 		add	sp, sp, #28
 665              		@ sp needed
 666 0888 F08FBDE8 		pop	{r4, r5, r6, r7, r8, r9, r10, fp, pc}
 667              	.L113:
 668 088c 004000E3 		movw	r4, #:lower16:.LANCHOR0
 669 0890 004040E3 		movt	r4, #:upper16:.LANCHOR0
 670 0894 00209DE5 		ldr	r2, [sp]
 671 0898 04109DE5 		ldr	r1, [sp, #4]
 672 089c 502084E5 		str	r2, [r4, #80]
 673 08a0 30309CE5 		ldr	r3, [ip, #48]
 674 08a4 30308CE5 		str	r3, [ip, #48]
 675 08a8 003096E5 		ldr	r3, [r6]
 676 08ac B601D2E1 		ldrh	r0, [r2, #22]
 677 08b0 033683E2 		add	r3, r3, #3145728
 678 08b4 000050E3 		cmp	r0, #0
 679 08b8 081083E5 		str	r1, [r3, #8]
 680 08bc 003096E5 		ldr	r3, [r6]
 681 08c0 102092E5 		ldr	r2, [r2, #16]
 682 08c4 033683E2 		add	r3, r3, #3145728
 683 08c8 0C2083E5 		str	r2, [r3, #12]
 684 08cc 3600001A 		bne	.L137
ARM GAS  C:\Users\ldebo\AppData\Local\Temp\cc9oeUFF.s 			page 13


 685              	.L127:
 686 08d0 0100A0E3 		mov	r0, #1
 687 08d4 09FEFFEB 		bl	sdWaitForInterrupt
 688 08d8 000050E3 		cmp	r0, #0
 689 08dc E8FFFF1A 		bne	.L106
 690 08e0 003096E5 		ldr	r3, [r6]
 691 08e4 00209DE5 		ldr	r2, [sp]
 692 08e8 033683E2 		add	r3, r3, #3145728
 693 08ec 101093E5 		ldr	r1, [r3, #16]
 694 08f0 1220D2E5 		ldrb	r2, [r2, #18]	@ zero_extendqisi2
 695 08f4 032002E2 		and	r2, r2, #3
 696 08f8 020052E3 		cmp	r2, #2
 697 08fc 1000000A 		beq	.L116
 698 0900 2C00008A 		bhi	.L134
 699 0904 010052E3 		cmp	r2, #1
 700 0908 DDFFFF1A 		bne	.L106
 701 090c 00209DE5 		ldr	r2, [sp]
 702 0910 4C0084E5 		str	r0, [r4, #76]
 703 0914 102092E5 		ldr	r2, [r2, #16]
 704 0918 522CE5E7 		ubfx	r2, r2, #24, #6
 705 091c 090052E3 		cmp	r2, #9
 706 0920 3000000A 		beq	.L138
 707 0924 141084E5 		str	r1, [r4, #20]
 708 0928 142093E5 		ldr	r2, [r3, #20]
 709 092c 102084E5 		str	r2, [r4, #16]
 710 0930 182093E5 		ldr	r2, [r3, #24]
 711 0934 0C2084E5 		str	r2, [r4, #12]
 712 0938 1C3093E5 		ldr	r3, [r3, #28]
 713 093c 083084E5 		str	r3, [r4, #8]
 714 0940 CFFFFFEA 		b	.L106
 715              	.L116:
 716 0944 00309DE5 		ldr	r3, [sp]
 717 0948 103093E5 		ldr	r3, [r3, #16]
 718 094c 533CE5E7 		ubfx	r3, r3, #24, #6
 719 0950 080053E3 		cmp	r3, #8
 720 0954 1C00000A 		beq	.L120
 721 0958 290053E3 		cmp	r3, #41
 722 095c A400000A 		beq	.L121
 723 0960 030053E3 		cmp	r3, #3
 724 0964 1300001A 		bne	.L134
 725 0968 0124A0E1 		lsl	r2, r1, #8
 726 096c 0133A0E1 		lsl	r3, r1, #6
 727 0970 010502E2 		and	r0, r2, #4194304
 728 0974 023703E2 		and	r3, r3, #524288
 729 0978 003083E1 		orr	r3, r3, r0
 730 097c 5100ECE7 		ubfx	r0, r1, #0, #13
 731 0980 2118A0E1 		lsr	r1, r1, #16
 732 0984 003083E1 		orr	r3, r3, r0
 733 0988 022502E2 		and	r2, r2, #8388608
 734 098c 0400A0E3 		mov	r0, #4
 735 0990 C80040E3 		movt	r0, 200
 736 0994 023083E1 		orr	r3, r3, r2
 737 0998 0118A0E1 		lsl	r1, r1, #16
 738 099c 4C3084E5 		str	r3, [r4, #76]
 739 09a0 030000E0 		and	r0, r0, r3
 740 09a4 441084E5 		str	r1, [r4, #68]
 741 09a8 B5FFFFEA 		b	.L106
ARM GAS  C:\Users\ldebo\AppData\Local\Temp\cc9oeUFF.s 			page 14


 742              	.L137:
 743 09ac 0010A0E3 		mov	r1, #0
 744 09b0 FEFFFFEB 		bl	timer_wait
 745 09b4 C5FFFFEA 		b	.L127
 746              	.L134:
 747 09b8 04000CE3 		movw	r0, #49156
 748 09bc F90F4FE3 		movt	r0, 65529
 749 09c0 4C1084E5 		str	r1, [r4, #76]
 750 09c4 010000E0 		and	r0, r0, r1
 751 09c8 ADFFFFEA 		b	.L106
 752              	.L120:
 753 09cc 04309DE5 		ldr	r3, [sp, #4]
 754 09d0 4C0084E5 		str	r0, [r4, #76]
 755 09d4 010053E0 		subs	r0, r3, r1
 756 09d8 0100A013 		movne	r0, #1
 757 09dc A8FFFFEA 		b	.L106
 758              	.L141:
 759              		.align	3
 760              	.L140:
 761 09e0 3F420F00 		.word	999999
 762 09e4 00000000 		.word	0
 763              	.L138:
 764 09e8 108093E5 		ldr	r8, [r3, #16]
 765 09ec 146093E5 		ldr	r6, [r3, #20]
 766 09f0 182093E5 		ldr	r2, [r3, #24]
 767 09f4 1CC093E5 		ldr	ip, [r3, #28]
 768 09f8 0C208DE5 		str	r2, [sp, #12]
 769 09fc 5C08E7E7 		ubfx	r0, ip, #16, #8
 770 0a00 18E0D4E5 		ldrb	lr, [r4, #24]	@ zero_extendqisi2
 771 0a04 0C30DDE5 		ldrb	r3, [sp, #12]	@ zero_extendqisi2
 772 0a08 5C54E7E7 		ubfx	r5, ip, #8, #8
 773 0a0c 1E20D4E5 		ldrb	r2, [r4, #30]	@ zero_extendqisi2
 774 0a10 2073A0E1 		lsr	r7, r0, #6
 775 0a14 0D10DDE5 		ldrb	r1, [sp, #13]	@ zero_extendqisi2
 776 0a18 17E0C1E7 		bfi	lr, r7, #0, #2
 777 0a1c A373A0E1 		lsr	r7, r3, #7
 778 0a20 10E1C7E7 		bfi	lr, r0, #2, #6
 779 0a24 1720C0E7 		bfi	r2, r7, #0, #1
 780 0a28 0E70DDE5 		ldrb	r7, [sp, #14]	@ zero_extendqisi2
 781 0a2c 2102A0E1 		lsr	r0, r1, #4
 782 0a30 1AC0C4E5 		strb	ip, [r4, #26]
 783 0a34 53C3E0E7 		ubfx	ip, r3, #6, #1
 784 0a38 10608DE5 		str	r6, [sp, #16]
 785 0a3c 9C20C1E7 		bfi	r2, ip, #1, #1
 786 0a40 BCC1D4E1 		ldrh	ip, [r4, #28]
 787 0a44 070280E1 		orr	r0, r0, r7, lsl #4
 788 0a48 D362E0E7 		ubfx	r6, r3, #5, #1
 789 0a4c 10C0CBE7 		bfi	ip, r0, #0, #12
 790 0a50 03000EE2 		and	r0, lr, #3
 791 0a54 1950C4E5 		strb	r5, [r4, #25]
 792 0a58 1621C2E7 		bfi	r2, r6, #2, #1
 793 0a5c 5352E0E7 		ubfx	r5, r3, #4, #1
 794 0a60 010050E3 		cmp	r0, #1
 795 0a64 9521C3E7 		bfi	r2, r5, #3, #1
 796 0a68 0F1001E2 		and	r1, r1, #15
 797 0a6c 0F50DDE5 		ldrb	r5, [sp, #15]	@ zero_extendqisi2
 798 0a70 2C04A0E1 		lsr	r0, ip, #8
ARM GAS  C:\Users\ldebo\AppData\Local\Temp\cc9oeUFF.s 			page 15


 799 0a74 1102C7E7 		bfi	r0, r1, #4, #4
 800 0a78 14808DE5 		str	r8, [sp, #20]
 801 0a7c BCC1C4E1 		strh	ip, [r4, #28]	@ movhi
 802 0a80 1E20C4E5 		strb	r2, [r4, #30]
 803 0a84 18E0C4E5 		strb	lr, [r4, #24]
 804 0a88 1D00C4E5 		strb	r0, [r4, #29]
 805 0a8c 1B50C4E5 		strb	r5, [r4, #27]
 806 0a90 5A00000A 		beq	.L139
 807 0a94 1250DDE5 		ldrb	r5, [sp, #18]	@ zero_extendqisi2
 808 0a98 0334A0E1 		lsl	r3, r3, #8
 809 0a9c 1360DDE5 		ldrb	r6, [sp, #19]	@ zero_extendqisi2
 810 0aa0 033C03E2 		and	r3, r3, #768
 811 0aa4 11C0DDE5 		ldrb	ip, [sp, #17]	@ zero_extendqisi2
 812 0aa8 FCEF00E3 		movw	lr, #4092
 813 0aac 2000D4E5 		ldrb	r0, [r4, #32]	@ zero_extendqisi2
 814 0ab0 036086E0 		add	r6, r6, r3
 815 0ab4 C531A0E1 		asr	r3, r5, #3
 816 0ab8 1020DDE5 		ldrb	r2, [sp, #16]	@ zero_extendqisi2
 817 0abc 1300C2E7 		bfi	r0, r3, #0, #3
 818 0ac0 06E10EE0 		and	lr, lr, r6, lsl #2
 819 0ac4 0030A0E1 		mov	r3, r0
 820 0ac8 8C00A0E1 		lsl	r0, ip, #1
 821 0acc 060000E2 		and	r0, r0, #6
 822 0ad0 9531C5E7 		bfi	r3, r5, #3, #3
 823 0ad4 25E38EE0 		add	lr, lr, r5, lsr #6
 824 0ad8 2030C4E5 		strb	r3, [r4, #32]
 825 0adc A25380E1 		orr	r5, r0, r2, lsr #7
 826 0ae0 01008EE2 		add	r0, lr, #1
 827 0ae4 026085E2 		add	r6, r5, #2
 828 0ae8 B032D4E1 		ldrh	r3, [r4, #32]
 829 0aec AC72A0E1 		lsr	r7, ip, #5
 830 0af0 4CC1A0E1 		asr	ip, ip, #2
 831 0af4 1733C8E7 		bfi	r3, r7, #6, #3
 832 0af8 1006A0E1 		lsl	r0, r0, r6
 833 0afc B032C4E1 		strh	r3, [r4, #32]	@ movhi
 834 0b00 2334A0E1 		lsr	r3, r3, #8
 835 0b04 9C30C3E7 		bfi	r3, ip, #1, #3
 836 0b08 BEC1D4E1 		ldrh	ip, [r4, #30]
 837 0b0c 1001A0E1 		lsl	r0, r0, r1
 838 0b10 1532C6E7 		bfi	r3, r5, #4, #3
 839 0b14 1EC2CFE7 		bfi	ip, lr, #4, #12
 840 0b18 2130C4E5 		strb	r3, [r4, #33]
 841 0b1c C01FA0E1 		asr	r1, r0, #31
 842 0b20 BEC1C4E1 		strh	ip, [r4, #30]	@ movhi
 843 0b24 F803C4E1 		strd	r0, [r4, #56]
 844              	.L125:
 845 0b28 1630DDE5 		ldrb	r3, [sp, #22]	@ zero_extendqisi2
 846 0b2c 4253A0E1 		asr	r5, r2, #6
 847 0b30 17C0DDE5 		ldrb	ip, [sp, #23]	@ zero_extendqisi2
 848 0b34 3F2002E2 		and	r2, r2, #63
 849 0b38 2810D4E5 		ldrb	r1, [r4, #40]	@ zero_extendqisi2
 850 0b3c 0000A0E3 		mov	r0, #0
 851 0b40 A363A0E1 		lsr	r6, r3, #7
 852 0b44 2A70D4E5 		ldrb	r7, [r4, #42]	@ zero_extendqisi2
 853 0b48 1C10C6E7 		bfi	r1, ip, #0, #7
 854 0b4c CCC0A0E1 		asr	ip, ip, #1
 855 0b50 9613C7E7 		bfi	r1, r6, #7, #1
ARM GAS  C:\Users\ldebo\AppData\Local\Temp\cc9oeUFF.s 			page 16


 856 0b54 2960D4E5 		ldrb	r6, [r4, #41]	@ zero_extendqisi2
 857 0b58 2810C4E5 		strb	r1, [r4, #40]
 858 0b5c D312E1E7 		ubfx	r1, r3, #5, #2
 859 0b60 1171C6E7 		bfi	r7, r1, #2, #5
 860 0b64 4311A0E1 		asr	r1, r3, #2
 861 0b68 1161C4E7 		bfi	r6, r1, #2, #3
 862 0b6c 2A70C4E5 		strb	r7, [r4, #42]
 863 0b70 2960C4E5 		strb	r6, [r4, #41]
 864 0b74 40E00CE2 		and	lr, ip, #64
 865 0b78 0331A0E1 		lsl	r3, r3, #2
 866 0b7c 2410D4E5 		ldrb	r1, [r4, #36]	@ zero_extendqisi2
 867 0b80 15C0DDE5 		ldrb	ip, [sp, #21]	@ zero_extendqisi2
 868 0b84 0C3003E2 		and	r3, r3, #12
 869 0b88 287094E5 		ldr	r7, [r4, #40]
 870 0b8c 02E08EE1 		orr	lr, lr, r2
 871 0b90 1460DDE5 		ldrb	r6, [sp, #20]	@ zero_extendqisi2
 872 0b94 1510C0E7 		bfi	r1, r5, #0, #1
 873 0b98 2C3383E1 		orr	r3, r3, ip, lsr #6
 874 0b9c DCC2E0E7 		ubfx	ip, ip, #5, #1
 875 0ba0 9376D0E7 		bfi	r7, r3, #13, #4
 876 0ba4 5623E0E7 		ubfx	r2, r6, #6, #1
 877 0ba8 D652E0E7 		ubfx	r5, r6, #5, #1
 878 0bac 9E10C7E7 		bfi	r1, lr, #1, #7
 879 0bb0 273CA0E1 		lsr	r3, r7, #24
 880 0bb4 287084E5 		str	r7, [r4, #40]
 881 0bb8 1230C0E7 		bfi	r3, r2, #0, #1
 882 0bbc 2728A0E1 		lsr	r2, r7, #16
 883 0bc0 9C20C1E7 		bfi	r2, ip, #1, #1
 884 0bc4 9530C1E7 		bfi	r3, r5, #1, #1
 885 0bc8 56C2E0E7 		ubfx	ip, r6, #4, #1
 886 0bcc 2410C4E5 		strb	r1, [r4, #36]
 887 0bd0 1C31C2E7 		bfi	r3, ip, #2, #1
 888 0bd4 46C1A0E1 		asr	ip, r6, #2
 889 0bd8 9C31C4E7 		bfi	r3, ip, #3, #2
 890 0bdc A6C3A0E1 		lsr	ip, r6, #7
 891 0be0 9632C6E7 		bfi	r3, r6, #5, #2
 892 0be4 9C23C7E7 		bfi	r2, ip, #7, #1
 893 0be8 2B30C4E5 		strb	r3, [r4, #43]
 894 0bec 2A20C4E5 		strb	r2, [r4, #42]
 895 0bf0 23FFFFEA 		b	.L106
 896              	.L121:
 897 0bf4 4C0084E5 		str	r0, [r4, #76]
 898 0bf8 481084E5 		str	r1, [r4, #72]
 899 0bfc 20FFFFEA 		b	.L106
 900              	.L139:
 901 0c00 1310DDE5 		ldrb	r1, [sp, #19]	@ zero_extendqisi2
 902 0c04 12C0DDE5 		ldrb	ip, [sp, #18]	@ zero_extendqisi2
 903 0c08 1130DDE5 		ldrb	r3, [sp, #17]	@ zero_extendqisi2
 904 0c0c 0118A0E1 		lsl	r1, r1, #16
 905 0c10 200094E5 		ldr	r0, [r4, #32]
 906 0c14 3F1801E2 		and	r1, r1, #4128768
 907 0c18 1020DDE5 		ldrb	r2, [sp, #16]	@ zero_extendqisi2
 908 0c1c 0C3483E0 		add	r3, r3, ip, lsl #8
 909 0c20 013083E0 		add	r3, r3, r1
 910 0c24 903B80EE 		vdup.32	d16, r3
 911 0c28 1300D5E7 		bfi	r0, r3, #0, #22
 912 0c2c 200084E5 		str	r0, [r4, #32]
ARM GAS  C:\Users\ldebo\AppData\Local\Temp\cc9oeUFF.s 			page 17


 913 0c30 B000E0F3 		vshr.u64	d16, d16, #32
 914 0c34 B005D3F2 		vshl.u64	d16, d16, #19
 915 0c38 0E0BC4ED 		vstr.64	d16, [r4, #56]	@ int
 916 0c3c B9FFFFEA 		b	.L125
 917              		.size	sdSendCommandP, .-sdSendCommandP
 918              		.align	2
 919              		.syntax unified
 920              		.arm
 921              		.fpu neon-vfpv4
 922              		.type	sdAppSendOpCond, %function
 923              	sdAppSendOpCond:
 924              		@ args = 0, pretend = 0, frame = 0
 925              		@ frame_needed = 0, uses_anonymous_args = 0
 926 0c40 F84F2DE9 		push	{r3, r4, r5, r6, r7, r8, r9, r10, fp, lr}
 927 0c44 004000E3 		movw	r4, #:lower16:.LANCHOR0
 928 0c48 004040E3 		movt	r4, #:upper16:.LANCHOR0
 929 0c4c 0070A0E1 		mov	r7, r0
 930 0c50 441094E5 		ldr	r1, [r4, #68]
 931 0c54 000051E3 		cmp	r1, #0
 932 0c58 4D00000A 		beq	.L178
 933 0c5c 64019FE5 		ldr	r0, .L181
 934 0c60 C8FEFFEB 		bl	sdSendCommandP
 935 0c64 7050EFE6 		uxtb	r5, r0
 936 0c68 000055E3 		cmp	r5, #0
 937 0c6c 3200001A 		bne	.L145
 938 0c70 4C3094E5 		ldr	r3, [r4, #76]
 939 0c74 200013E3 		tst	r3, #32
 940 0c78 4000000A 		beq	.L161
 941              	.L144:
 942 0c7c 0710A0E1 		mov	r1, r7
 943 0c80 44019FE5 		ldr	r0, .L181+4
 944 0c84 BFFEFFEB 		bl	sdSendCommandP
 945 0c88 7050EFE6 		uxtb	r5, r0
 946 0c8c 000055E3 		cmp	r5, #0
 947 0c90 2900001A 		bne	.L145
 948 0c94 443094E5 		ldr	r3, [r4, #68]
 949 0c98 000053E3 		cmp	r3, #0
 950 0c9c 3F00001A 		bne	.L147
 951              	.L149:
 952 0ca0 24919FE5 		ldr	r9, .L181+4
 953 0ca4 6AADA0E3 		mov	r10, #6784
 954 0ca8 06A040E3 		movt	r10, 6
 955 0cac 0760A0E3 		mov	r6, #7
 956 0cb0 00B0A0E3 		mov	fp, #0
 957 0cb4 908049E2 		sub	r8, r9, #144
 958              	.L148:
 959 0cb8 DB34D4E1 		ldrsb	r3, [r4, #75]
 960 0cbc 0A00A0E1 		mov	r0, r10
 961 0cc0 0B10A0E1 		mov	r1, fp
 962 0cc4 000053E3 		cmp	r3, #0
 963 0cc8 380000BA 		blt	.L156
 964 0ccc 016056E2 		subs	r6, r6, #1
 965 0cd0 2C00000A 		beq	.L179
 966 0cd4 FEFFFFEB 		bl	timer_wait
 967 0cd8 443094E5 		ldr	r3, [r4, #68]
 968 0cdc 0800A0E1 		mov	r0, r8
 969 0ce0 001053E2 		subs	r1, r3, #0
ARM GAS  C:\Users\ldebo\AppData\Local\Temp\cc9oeUFF.s 			page 18


 970 0ce4 2200000A 		beq	.L180
 971 0ce8 A6FEFFEB 		bl	sdSendCommandP
 972 0cec 7050EFE6 		uxtb	r5, r0
 973 0cf0 000055E3 		cmp	r5, #0
 974 0cf4 1B00001A 		bne	.L152
 975 0cf8 4C3094E5 		ldr	r3, [r4, #76]
 976 0cfc 200013E3 		tst	r3, #32
 977 0d00 1E00000A 		beq	.L161
 978              	.L151:
 979 0d04 0710A0E1 		mov	r1, r7
 980 0d08 0900A0E1 		mov	r0, r9
 981 0d0c 9DFEFFEB 		bl	sdSendCommandP
 982 0d10 7050EFE6 		uxtb	r5, r0
 983 0d14 000055E3 		cmp	r5, #0
 984 0d18 1200001A 		bne	.L152
 985 0d1c 443094E5 		ldr	r3, [r4, #68]
 986 0d20 000053E3 		cmp	r3, #0
 987 0d24 E3FFFF0A 		beq	.L148
 988 0d28 4C3094E5 		ldr	r3, [r4, #76]
 989 0d2c 200013E3 		tst	r3, #32
 990 0d30 E0FFFF1A 		bne	.L148
 991              	.L162:
 992 0d34 0950A0E3 		mov	r5, #9
 993 0d38 010000EA 		b	.L159
 994              	.L145:
 995 0d3c 020055E3 		cmp	r5, #2
 996 0d40 D6FFFF0A 		beq	.L149
 997              	.L159:
 998 0d44 003094E5 		ldr	r3, [r4]
 999 0d48 000053E3 		cmp	r3, #0
 1000 0d4c 0300000A 		beq	.L165
 1001 0d50 000000E3 		movw	r0, #:lower16:.LC6
 1002 0d54 000040E3 		movt	r0, #:upper16:.LC6
 1003 0d58 0510A0E1 		mov	r1, r5
 1004 0d5c 33FF2FE1 		blx	r3
 1005              	.L165:
 1006 0d60 0500A0E1 		mov	r0, r5
 1007 0d64 F88FBDE8 		pop	{r3, r4, r5, r6, r7, r8, r9, r10, fp, pc}
 1008              	.L152:
 1009 0d68 020055E3 		cmp	r5, #2
 1010 0d6c D1FFFF0A 		beq	.L148
 1011 0d70 F3FFFFEA 		b	.L159
 1012              	.L180:
 1013 0d74 54009FE5 		ldr	r0, .L181+8
 1014 0d78 82FEFFEB 		bl	sdSendCommandP
 1015 0d7c E0FFFFEA 		b	.L151
 1016              	.L161:
 1017 0d80 0150A0E3 		mov	r5, #1
 1018 0d84 EEFFFFEA 		b	.L159
 1019              	.L179:
 1020 0d88 0250A0E3 		mov	r5, #2
 1021 0d8c 0500A0E1 		mov	r0, r5
 1022 0d90 F88FBDE8 		pop	{r3, r4, r5, r6, r7, r8, r9, r10, fp, pc}
 1023              	.L178:
 1024 0d94 34009FE5 		ldr	r0, .L181+8
 1025 0d98 7AFEFFEB 		bl	sdSendCommandP
 1026 0d9c B6FFFFEA 		b	.L144
ARM GAS  C:\Users\ldebo\AppData\Local\Temp\cc9oeUFF.s 			page 19


 1027              	.L147:
 1028 0da0 4C3094E5 		ldr	r3, [r4, #76]
 1029 0da4 200013E3 		tst	r3, #32
 1030 0da8 E1FFFF0A 		beq	.L162
 1031 0dac BBFFFFEA 		b	.L149
 1032              	.L156:
 1033 0db0 4A30D4E5 		ldrb	r3, [r4, #74]	@ zero_extendqisi2
 1034 0db4 300013E3 		tst	r3, #48
 1035 0db8 0850A003 		moveq	r5, #8
 1036 0dbc 0050A013 		movne	r5, #0
 1037 0dc0 0500A0E1 		mov	r0, r5
 1038 0dc4 F88FBDE8 		pop	{r3, r4, r5, r6, r7, r8, r9, r10, fp, pc}
 1039              	.L182:
 1040              		.align	2
 1041              	.L181:
 1042 0dc8 D0020000 		.word	.LANCHOR1+720
 1043 0dcc 60030000 		.word	.LANCHOR1+864
 1044 0dd0 B8020000 		.word	.LANCHOR1+696
 1045              		.size	sdAppSendOpCond, .-sdAppSendOpCond
 1046              		.align	2
 1047              		.syntax unified
 1048              		.arm
 1049              		.fpu neon-vfpv4
 1050              		.type	sdSendCommand, %function
 1051              	sdSendCommand:
 1052              		@ args = 0, pretend = 0, frame = 0
 1053              		@ frame_needed = 0, uses_anonymous_args = 0
 1054 0dd4 1F0050E3 		cmp	r0, #31
 1055 0dd8 70402DE9 		push	{r4, r5, r6, lr}
 1056 0ddc 0040A0E1 		mov	r4, r0
 1057 0de0 170000CA 		bgt	.L196
 1058              	.L185:
 1059 0de4 1800A0E3 		mov	r0, #24
 1060 0de8 003000E3 		movw	r3, #:lower16:.LANCHOR1
 1061 0dec 003040E3 		movt	r3, #:upper16:.LANCHOR1
 1062 0df0 903420E0 		mla	r0, r0, r4, r3
 1063 0df4 1410D0E5 		ldrb	r1, [r0, #20]	@ zero_extendqisi2
 1064 0df8 011011E2 		ands	r1, r1, #1
 1065 0dfc 00300013 		movwne	r3, #:lower16:.LANCHOR0
 1066 0e00 00304013 		movtne	r3, #:upper16:.LANCHOR0
 1067 0e04 44109315 		ldrne	r1, [r3, #68]
 1068 0e08 5EFEFFEB 		bl	sdSendCommandP
 1069 0e0c 7000EFE6 		uxtb	r0, r0
 1070 0e10 000050E3 		cmp	r0, #0
 1071 0e14 7080BD18 		popne	{r4, r5, r6, pc}
 1072 0e18 1F0054E3 		cmp	r4, #31
 1073 0e1c 7080BDD8 		pople	{r4, r5, r6, pc}
 1074 0e20 003000E3 		movw	r3, #:lower16:.LANCHOR0
 1075 0e24 003040E3 		movt	r3, #:upper16:.LANCHOR0
 1076 0e28 442093E5 		ldr	r2, [r3, #68]
 1077 0e2c 000052E3 		cmp	r2, #0
 1078 0e30 7080BD08 		popeq	{r4, r5, r6, pc}
 1079 0e34 4C3093E5 		ldr	r3, [r3, #76]
 1080 0e38 200013E3 		tst	r3, #32
 1081 0e3c 0900A003 		moveq	r0, #9
 1082 0e40 7080BDE8 		pop	{r4, r5, r6, pc}
 1083              	.L196:
ARM GAS  C:\Users\ldebo\AppData\Local\Temp\cc9oeUFF.s 			page 20


 1084 0e44 005000E3 		movw	r5, #:lower16:.LANCHOR0
 1085 0e48 005040E3 		movt	r5, #:upper16:.LANCHOR0
 1086 0e4c 441095E5 		ldr	r1, [r5, #68]
 1087 0e50 000051E3 		cmp	r1, #0
 1088 0e54 0900000A 		beq	.L197
 1089 0e58 2C009FE5 		ldr	r0, .L198
 1090 0e5c 49FEFFEB 		bl	sdSendCommandP
 1091 0e60 7000EFE6 		uxtb	r0, r0
 1092 0e64 000050E3 		cmp	r0, #0
 1093 0e68 7080BD18 		popne	{r4, r5, r6, pc}
 1094 0e6c 4C3095E5 		ldr	r3, [r5, #76]
 1095 0e70 200013E3 		tst	r3, #32
 1096 0e74 DAFFFF1A 		bne	.L185
 1097 0e78 0100A0E3 		mov	r0, #1
 1098 0e7c 7080BDE8 		pop	{r4, r5, r6, pc}
 1099              	.L197:
 1100 0e80 08009FE5 		ldr	r0, .L198+4
 1101 0e84 3FFEFFEB 		bl	sdSendCommandP
 1102 0e88 D5FFFFEA 		b	.L185
 1103              	.L199:
 1104              		.align	2
 1105              	.L198:
 1106 0e8c D0020000 		.word	.LANCHOR1+720
 1107 0e90 B8020000 		.word	.LANCHOR1+696
 1108              		.size	sdSendCommand, .-sdSendCommand
 1109              		.align	2
 1110              		.syntax unified
 1111              		.arm
 1112              		.fpu neon-vfpv4
 1113              		.type	sdResetCard, %function
 1114              	sdResetCard:
 1115              		@ args = 0, pretend = 0, frame = 0
 1116              		@ frame_needed = 0, uses_anonymous_args = 0
 1117 0e94 F0472DE9 		push	{r4, r5, r6, r7, r8, r9, r10, lr}
 1118 0e98 00A000E3 		movw	r10, #:lower16:RPi_IO_Base_Addr
 1119 0e9c 00A040E3 		movt	r10, #:upper16:RPi_IO_Base_Addr
 1120 0ea0 0020A0E3 		mov	r2, #0
 1121 0ea4 0040A0E3 		mov	r4, #0
 1122 0ea8 0050A0E3 		mov	r5, #0
 1123 0eac 0480A0E1 		mov	r8, r4
 1124 0eb0 00309AE5 		ldr	r3, [r10]
 1125 0eb4 0590A0E1 		mov	r9, r5
 1126 0eb8 5A7F8FE2 		adr	r7, .L211
 1127 0ebc D060C7E1 		ldrd	r6, [r7]
 1128 0ec0 033683E2 		add	r3, r3, #3145728
 1129 0ec4 0A00A0E3 		mov	r0, #10
 1130 0ec8 0010A0E3 		mov	r1, #0
 1131 0ecc 282083E5 		str	r2, [r3, #40]
 1132 0ed0 00309AE5 		ldr	r3, [r10]
 1133 0ed4 033683E2 		add	r3, r3, #3145728
 1134 0ed8 2C2083E5 		str	r2, [r3, #44]
 1135 0edc 00309AE5 		ldr	r3, [r10]
 1136 0ee0 033683E2 		add	r3, r3, #3145728
 1137 0ee4 2C2093E5 		ldr	r2, [r3, #44]
 1138 0ee8 012482E3 		orr	r2, r2, #16777216
 1139 0eec 2C2083E5 		str	r2, [r3, #44]
 1140 0ef0 FEFFFFEB 		bl	timer_wait
ARM GAS  C:\Users\ldebo\AppData\Local\Temp\cc9oeUFF.s 			page 21


 1141              	.L201:
 1142 0ef4 00309AE5 		ldr	r3, [r10]
 1143 0ef8 033683E2 		add	r3, r3, #3145728
 1144 0efc 2C2083E2 		add	r2, r3, #44
 1145 0f00 2C3093E5 		ldr	r3, [r3, #44]
 1146 0f04 010413E3 		tst	r3, #16777216
 1147 0f08 1100000A 		beq	.L204
 1148 0f0c 070059E1 		cmp	r9, r7
 1149 0f10 06005801 		cmpeq	r8, r6
 1150 0f14 1300008A 		bhi	.L206
 1151 0f18 053094E1 		orrs	r3, r4, r5
 1152 0f1c 0300001A 		bne	.L202
 1153 0f20 FEFFFFEB 		bl	timer_getTickCount
 1154 0f24 0040A0E1 		mov	r4, r0
 1155 0f28 0150A0E1 		mov	r5, r1
 1156 0f2c F0FFFFEA 		b	.L201
 1157              	.L202:
 1158 0f30 FEFFFFEB 		bl	timer_getTickCount
 1159 0f34 0020A0E1 		mov	r2, r0
 1160 0f38 0130A0E1 		mov	r3, r1
 1161 0f3c 0400A0E1 		mov	r0, r4
 1162 0f40 0510A0E1 		mov	r1, r5
 1163 0f44 FEFFFFEB 		bl	tick_difference
 1164 0f48 0080A0E1 		mov	r8, r0
 1165 0f4c 0190A0E1 		mov	r9, r1
 1166 0f50 E7FFFFEA 		b	.L201
 1167              	.L204:
 1168 0f54 CC108FE2 		adr	r1, .L211
 1169 0f58 D000C1E1 		ldrd	r0, [r1]
 1170 0f5c 010059E1 		cmp	r9, r1
 1171 0f60 00005801 		cmpeq	r8, r0
 1172 0f64 0B00009A 		bls	.L207
 1173              	.L206:
 1174 0f68 003000E3 		movw	r3, #:lower16:.LANCHOR0
 1175 0f6c 003040E3 		movt	r3, #:upper16:.LANCHOR0
 1176 0f70 003093E5 		ldr	r3, [r3]
 1177 0f74 000053E3 		cmp	r3, #0
 1178 0f78 0630A003 		moveq	r3, #6
 1179 0f7c 0300000A 		beq	.L208
 1180 0f80 000000E3 		movw	r0, #:lower16:.LC7
 1181 0f84 000040E3 		movt	r0, #:upper16:.LC7
 1182 0f88 33FF2FE1 		blx	r3
 1183 0f8c 0630A0E3 		mov	r3, #6
 1184              	.L208:
 1185 0f90 0300A0E1 		mov	r0, r3
 1186 0f94 F087BDE8 		pop	{r4, r5, r6, r7, r8, r9, r10, pc}
 1187              	.L207:
 1188 0f98 003092E5 		ldr	r3, [r2]
 1189 0f9c 0EC0A0E3 		mov	ip, #14
 1190 0fa0 0A00A0E3 		mov	r0, #10
 1191 0fa4 0010A0E3 		mov	r1, #0
 1192 0fa8 1C38D3E7 		bfi	r3, ip, #16, #4
 1193 0fac 003082E5 		str	r3, [r2]
 1194 0fb0 003092E5 		ldr	r3, [r2]
 1195 0fb4 013083E3 		orr	r3, r3, #1
 1196 0fb8 003082E5 		str	r3, [r2]
 1197 0fbc FEFFFFEB 		bl	timer_wait
ARM GAS  C:\Users\ldebo\AppData\Local\Temp\cc9oeUFF.s 			page 22


 1198 0fc0 6A0DA0E3 		mov	r0, #6784
 1199 0fc4 060040E3 		movt	r0, 6
 1200 0fc8 AAFCFFEB 		bl	sdSetClock
 1201 0fcc 003050E2 		subs	r3, r0, #0
 1202 0fd0 EEFFFF1A 		bne	.L208
 1203 0fd4 00C09AE5 		ldr	ip, [r10]
 1204 0fd8 00E0E0E3 		mvn	lr, #0
 1205 0fdc 002000E3 		movw	r2, #:lower16:.LANCHOR0
 1206 0fe0 002040E3 		movt	r2, #:upper16:.LANCHOR0
 1207 0fe4 03C68CE2 		add	ip, ip, #3145728
 1208 0fe8 0310A0E1 		mov	r1, r3
 1209 0fec 000000E3 		movw	r0, #:lower16:.LANCHOR1
 1210 0ff0 000040E3 		movt	r0, #:upper16:.LANCHOR1
 1211 0ff4 38E08CE5 		str	lr, [ip, #56]
 1212 0ff8 00C09AE5 		ldr	ip, [r10]
 1213 0ffc 03C68CE2 		add	ip, ip, #3145728
 1214 1000 34E08CE5 		str	lr, [ip, #52]
 1215 1004 443082E5 		str	r3, [r2, #68]
 1216 1008 483082E5 		str	r3, [r2, #72]
 1217 100c 503082E5 		str	r3, [r2, #80]
 1218 1010 4C3082E5 		str	r3, [r2, #76]
 1219 1014 4030C2E5 		strb	r3, [r2, #64]
 1220 1018 DAFDFFEB 		bl	sdSendCommandP
 1221 101c 7030EFE6 		uxtb	r3, r0
 1222 1020 0300A0E1 		mov	r0, r3
 1223 1024 F087BDE8 		pop	{r4, r5, r6, r7, r8, r9, r10, pc}
 1224              	.L212:
 1225              		.align	3
 1226              	.L211:
 1227 1028 9F860100 		.word	99999
 1228 102c 00000000 		.word	0
 1229              		.size	sdResetCard, .-sdResetCard
 1230              		.align	2
 1231              		.syntax unified
 1232              		.arm
 1233              		.fpu neon-vfpv4
 1234              		.type	sdTransferBlocks.part.5, %function
 1235              	sdTransferBlocks.part.5:
 1236              		@ args = 0, pretend = 0, frame = 8
 1237              		@ frame_needed = 0, uses_anonymous_args = 0
 1238 1030 F04F2DE9 		push	{r4, r5, r6, r7, r8, r9, r10, fp, lr}
 1239 1034 005053E2 		subs	r5, r3, #0
 1240 1038 00A0A0E1 		mov	r10, r0
 1241 103c 0CD04DE2 		sub	sp, sp, #12
 1242 1040 0140A0E1 		mov	r4, r1
 1243 1044 0280A0E1 		mov	r8, r2
 1244 1048 0400000A 		beq	.L269
 1245 104c 010051E3 		cmp	r1, #1
 1246 1050 8F00000A 		beq	.L241
 1247 1054 1070A0E3 		mov	r7, #16
 1248 1058 1EBEA0E3 		mov	fp, #480
 1249 105c 030000EA 		b	.L232
 1250              	.L269:
 1251 1060 010051E3 		cmp	r1, #1
 1252 1064 8F00000A 		beq	.L240
 1253 1068 2070A0E3 		mov	r7, #32
 1254 106c 5ABFA0E3 		mov	fp, #360
ARM GAS  C:\Users\ldebo\AppData\Local\Temp\cc9oeUFF.s 			page 23


 1255              	.L232:
 1256 1070 010054E3 		cmp	r4, #1
 1257 1074 006000E3 		movw	r6, #:lower16:.LANCHOR0
 1258 1078 006040E3 		movt	r6, #:upper16:.LANCHOR0
 1259 107c 0300009A 		bls	.L216
 1260 1080 2F30D6E5 		ldrb	r3, [r6, #47]	@ zero_extendqisi2
 1261 1084 033003E2 		and	r3, r3, #3
 1262 1088 020053E3 		cmp	r3, #2
 1263 108c 8A00000A 		beq	.L270
 1264              	.L216:
 1265 1090 4030D6E5 		ldrb	r3, [r6, #64]	@ zero_extendqisi2
 1266 1094 030053E3 		cmp	r3, #3
 1267 1098 6E00001A 		bne	.L262
 1268 109c 009000E3 		movw	r9, #:lower16:RPi_IO_Base_Addr
 1269 10a0 009040E3 		movt	r9, #:upper16:RPi_IO_Base_Addr
 1270 10a4 7410FFE6 		uxth	r1, r4
 1271 10a8 8AA4A0E1 		lsl	r10, r10, #9
 1272              	.L264:
 1273 10ac 003099E5 		ldr	r3, [r9]
 1274 10b0 020CA0E3 		mov	r0, #512
 1275 10b4 033683E2 		add	r3, r3, #3145728
 1276 10b8 04C093E5 		ldr	ip, [r3, #4]
 1277 10bc 11C8DFE7 		bfi	ip, r1, #16, #16
 1278 10c0 04C083E5 		str	ip, [r3, #4]
 1279 10c4 041093E5 		ldr	r1, [r3, #4]
 1280 10c8 1010C9E7 		bfi	r1, r0, #0, #10
 1281 10cc 041083E5 		str	r1, [r3, #4]
 1282 10d0 003000E3 		movw	r3, #:lower16:.LANCHOR1
 1283 10d4 003040E3 		movt	r3, #:upper16:.LANCHOR1
 1284 10d8 0B0083E0 		add	r0, r3, fp
 1285 10dc 0A10A0E1 		mov	r1, r10
 1286 10e0 04308DE5 		str	r3, [sp, #4]
 1287 10e4 A7FDFFEB 		bl	sdSendCommandP
 1288 10e8 7030EFE6 		uxtb	r3, r0
 1289 10ec 000053E3 		cmp	r3, #0
 1290 10f0 00308DE5 		str	r3, [sp]
 1291 10f4 2D00001A 		bne	.L243
 1292 10f8 000054E3 		cmp	r4, #0
 1293 10fc 7600000A 		beq	.L218
 1294 1100 03A0A0E1 		mov	r10, r3
 1295              	.L225:
 1296 1104 0700A0E1 		mov	r0, r7
 1297 1108 FCFBFFEB 		bl	sdWaitForInterrupt
 1298 110c 000050E3 		cmp	r0, #0
 1299 1110 5400001A 		bne	.L271
 1300 1114 030018E3 		tst	r8, #3
 1301 1118 3500000A 		beq	.L220
 1302 111c 000055E3 		cmp	r5, #0
 1303 1120 02EC88E2 		add	lr, r8, #512
 1304 1124 0800A0E1 		mov	r0, r8
 1305 1128 2300001A 		bne	.L224
 1306              	.L222:
 1307 112c 003099E5 		ldr	r3, [r9]
 1308 1130 033683E2 		add	r3, r3, #3145728
 1309 1134 203093E5 		ldr	r3, [r3, #32]
 1310 1138 0030C0E5 		strb	r3, [r0]
 1311 113c 2314A0E1 		lsr	r1, r3, #8
ARM GAS  C:\Users\ldebo\AppData\Local\Temp\cc9oeUFF.s 			page 24


 1312 1140 2328A0E1 		lsr	r2, r3, #16
 1313 1144 0110E0E5 		strb	r1, [r0, #1]!
 1314 1148 233CA0E1 		lsr	r3, r3, #24
 1315 114c 00005EE1 		cmp	lr, r0
 1316 1150 0120C0E5 		strb	r2, [r0, #1]
 1317 1154 0230C0E5 		strb	r3, [r0, #2]
 1318 1158 F3FFFF1A 		bne	.L222
 1319              	.L223:
 1320 115c 01A08AE2 		add	r10, r10, #1
 1321 1160 0E80A0E1 		mov	r8, lr
 1322 1164 0A0054E1 		cmp	r4, r10
 1323 1168 E5FFFF1A 		bne	.L225
 1324              	.L272:
 1325 116c 000055E3 		cmp	r5, #0
 1326 1170 5C00001A 		bne	.L236
 1327              	.L230:
 1328 1174 01005AE3 		cmp	r10, #1
 1329 1178 0C00009A 		bls	.L243
 1330 117c 2F30D6E5 		ldrb	r3, [r6, #47]	@ zero_extendqisi2
 1331 1180 033003E2 		and	r3, r3, #3
 1332 1184 020053E3 		cmp	r3, #2
 1333 1188 0800000A 		beq	.L243
 1334 118c 04309DE5 		ldr	r3, [sp, #4]
 1335 1190 88019FE5 		ldr	r0, .L275
 1336 1194 0431D3E5 		ldrb	r3, [r3, #260]	@ zero_extendqisi2
 1337 1198 013013E2 		ands	r3, r3, #1
 1338 119c 0310A001 		moveq	r1, r3
 1339 11a0 44109615 		ldrne	r1, [r6, #68]
 1340 11a4 77FDFFEB 		bl	sdSendCommandP
 1341 11a8 7030EFE6 		uxtb	r3, r0
 1342 11ac 00308DE5 		str	r3, [sp]
 1343              	.L243:
 1344 11b0 00009DE5 		ldr	r0, [sp]
 1345 11b4 0CD08DE2 		add	sp, sp, #12
 1346              		@ sp needed
 1347 11b8 F08FBDE8 		pop	{r4, r5, r6, r7, r8, r9, r10, fp, pc}
 1348              	.L224:
 1349 11bc 00C0D0E5 		ldrb	ip, [r0]	@ zero_extendqisi2
 1350 11c0 0180F0E5 		ldrb	r8, [r0, #1]!	@ zero_extendqisi2
 1351 11c4 002099E5 		ldr	r2, [r9]
 1352 11c8 00005EE1 		cmp	lr, r0
 1353 11cc 032682E2 		add	r2, r2, #3145728
 1354 11d0 0130D0E5 		ldrb	r3, [r0, #1]	@ zero_extendqisi2
 1355 11d4 0210D0E5 		ldrb	r1, [r0, #2]	@ zero_extendqisi2
 1356 11d8 0338A0E1 		lsl	r3, r3, #16
 1357 11dc 083483E1 		orr	r3, r3, r8, lsl #8
 1358 11e0 0C3083E1 		orr	r3, r3, ip
 1359 11e4 013C83E1 		orr	r3, r3, r1, lsl #24
 1360 11e8 203082E5 		str	r3, [r2, #32]
 1361 11ec F2FFFF1A 		bne	.L224
 1362 11f0 D9FFFFEA 		b	.L223
 1363              	.L220:
 1364 11f4 000055E3 		cmp	r5, #0
 1365 11f8 042048E2 		sub	r2, r8, #4
 1366 11fc 0C00001A 		bne	.L227
 1367 1200 7F1F88E2 		add	r1, r8, #508
 1368              	.L228:
ARM GAS  C:\Users\ldebo\AppData\Local\Temp\cc9oeUFF.s 			page 25


 1369 1204 003099E5 		ldr	r3, [r9]
 1370 1208 033683E2 		add	r3, r3, #3145728
 1371 120c 203093E5 		ldr	r3, [r3, #32]
 1372 1210 0430A2E5 		str	r3, [r2, #4]!
 1373 1214 020051E1 		cmp	r1, r2
 1374 1218 F9FFFF1A 		bne	.L228
 1375 121c 02EC88E2 		add	lr, r8, #512
 1376              	.L273:
 1377 1220 01A08AE2 		add	r10, r10, #1
 1378 1224 0E80A0E1 		mov	r8, lr
 1379 1228 0A0054E1 		cmp	r4, r10
 1380 122c B4FFFF1A 		bne	.L225
 1381 1230 CDFFFFEA 		b	.L272
 1382              	.L227:
 1383 1234 7F0F88E2 		add	r0, r8, #508
 1384              	.L229:
 1385 1238 003099E5 		ldr	r3, [r9]
 1386 123c 0410B2E5 		ldr	r1, [r2, #4]!
 1387 1240 033683E2 		add	r3, r3, #3145728
 1388 1244 020050E1 		cmp	r0, r2
 1389 1248 201083E5 		str	r1, [r3, #32]
 1390 124c F9FFFF1A 		bne	.L229
 1391 1250 02EC88E2 		add	lr, r8, #512
 1392 1254 F1FFFFEA 		b	.L273
 1393              	.L262:
 1394 1258 009000E3 		movw	r9, #:lower16:RPi_IO_Base_Addr
 1395 125c 009040E3 		movt	r9, #:upper16:RPi_IO_Base_Addr
 1396 1260 7410FFE6 		uxth	r1, r4
 1397 1264 90FFFFEA 		b	.L264
 1398              	.L271:
 1399 1268 002096E5 		ldr	r2, [r6]
 1400 126c 0030A0E1 		mov	r3, r0
 1401 1270 000052E3 		cmp	r2, #0
 1402 1274 2200000A 		beq	.L238
 1403 1278 00308DE5 		str	r3, [sp]
 1404 127c 000000E3 		movw	r0, #:lower16:.LC8
 1405 1280 000040E3 		movt	r0, #:upper16:.LC8
 1406 1284 32FF2FE1 		blx	r2
 1407 1288 00009DE5 		ldr	r0, [sp]
 1408 128c 0CD08DE2 		add	sp, sp, #12
 1409              		@ sp needed
 1410 1290 F08FBDE8 		pop	{r4, r5, r6, r7, r8, r9, r10, fp, pc}
 1411              	.L241:
 1412 1294 006000E3 		movw	r6, #:lower16:.LANCHOR0
 1413 1298 006040E3 		movt	r6, #:upper16:.LANCHOR0
 1414 129c 1070A0E3 		mov	r7, #16
 1415 12a0 72BFA0E3 		mov	fp, #456
 1416 12a4 79FFFFEA 		b	.L216
 1417              	.L240:
 1418 12a8 006000E3 		movw	r6, #:lower16:.LANCHOR0
 1419 12ac 006040E3 		movt	r6, #:upper16:.LANCHOR0
 1420 12b0 2070A0E3 		mov	r7, #32
 1421 12b4 15BEA0E3 		mov	fp, #336
 1422 12b8 74FFFFEA 		b	.L216
 1423              	.L270:
 1424 12bc 0410A0E1 		mov	r1, r4
 1425 12c0 5C009FE5 		ldr	r0, .L275+4
ARM GAS  C:\Users\ldebo\AppData\Local\Temp\cc9oeUFF.s 			page 26


 1426 12c4 2FFDFFEB 		bl	sdSendCommandP
 1427 12c8 7030EFE6 		uxtb	r3, r0
 1428 12cc 000053E3 		cmp	r3, #0
 1429 12d0 00308DE5 		str	r3, [sp]
 1430 12d4 6DFFFF0A 		beq	.L216
 1431 12d8 B4FFFFEA 		b	.L243
 1432              	.L218:
 1433 12dc 000055E3 		cmp	r5, #0
 1434 12e0 B2FFFF0A 		beq	.L243
 1435 12e4 03A0A0E1 		mov	r10, r3
 1436              	.L236:
 1437 12e8 0200A0E3 		mov	r0, #2
 1438 12ec 83FBFFEB 		bl	sdWaitForInterrupt
 1439 12f0 003050E2 		subs	r3, r0, #0
 1440 12f4 9EFFFF0A 		beq	.L230
 1441 12f8 002096E5 		ldr	r2, [r6]
 1442 12fc 000052E3 		cmp	r2, #0
 1443 1300 0100001A 		bne	.L274
 1444              	.L238:
 1445 1304 00308DE5 		str	r3, [sp]
 1446 1308 A8FFFFEA 		b	.L243
 1447              	.L274:
 1448 130c 000000E3 		movw	r0, #:lower16:.LC9
 1449 1310 000040E3 		movt	r0, #:upper16:.LC9
 1450 1314 00308DE5 		str	r3, [sp]
 1451 1318 32FF2FE1 		blx	r2
 1452 131c A3FFFFEA 		b	.L243
 1453              	.L276:
 1454              		.align	2
 1455              	.L275:
 1456 1320 F0000000 		.word	.LANCHOR1+240
 1457 1324 B0010000 		.word	.LANCHOR1+432
 1458              		.size	sdTransferBlocks.part.5, .-sdTransferBlocks.part.5
 1459              		.section	.text.unlikely,"ax",%progbits
 1460              		.align	2
 1461              		.syntax unified
 1462              		.arm
 1463              		.fpu neon-vfpv4
 1464              		.type	sdTransferBlocks.constprop.7, %function
 1465              	sdTransferBlocks.constprop.7:
 1466              		@ args = 0, pretend = 0, frame = 0
 1467              		@ frame_needed = 0, uses_anonymous_args = 0
 1468 0000 003000E3 		movw	r3, #:lower16:.LANCHOR0
 1469 0004 003040E3 		movt	r3, #:upper16:.LANCHOR0
 1470 0008 F0472DE9 		push	{r4, r5, r6, r7, r8, r9, r10, lr}
 1471 000c 0350A0E1 		mov	r5, r3
 1472 0010 4030D3E5 		ldrb	r3, [r3, #64]	@ zero_extendqisi2
 1473 0014 000053E3 		cmp	r3, #0
 1474 0018 0560A003 		moveq	r6, #5
 1475 001c 6800000A 		beq	.L298
 1476 0020 0060A0E1 		mov	r6, r0
 1477 0024 0180A0E1 		mov	r8, r1
 1478 0028 0240A0E1 		mov	r4, r2
 1479 002c FEFFFFEB 		bl	sdWaitForData
 1480 0030 000050E3 		cmp	r0, #0
 1481 0034 0260A013 		movne	r6, #2
 1482 0038 6100001A 		bne	.L298
ARM GAS  C:\Users\ldebo\AppData\Local\Temp\cc9oeUFF.s 			page 27


 1483 003c 4030D5E5 		ldrb	r3, [r5, #64]	@ zero_extendqisi2
 1484 0040 000054E3 		cmp	r4, #0
 1485 0044 1300A013 		movne	r0, #19
 1486 0048 0E00A003 		moveq	r0, #14
 1487 004c 1090A013 		movne	r9, #16
 1488 0050 2090A003 		moveq	r9, #32
 1489 0054 030053E3 		cmp	r3, #3
 1490 0058 003000E3 		movw	r3, #:lower16:RPi_IO_Base_Addr
 1491 005c 003040E3 		movt	r3, #:upper16:RPi_IO_Base_Addr
 1492 0060 0370A0E1 		mov	r7, r3
 1493 0064 18E0A0E3 		mov	lr, #24
 1494 0068 002000E3 		movw	r2, #:lower16:.LANCHOR1
 1495 006c 002040E3 		movt	r2, #:upper16:.LANCHOR1
 1496 0070 003093E5 		ldr	r3, [r3]
 1497 0074 02CCA0E3 		mov	ip, #512
 1498 0078 9E2020E0 		mla	r0, lr, r0, r2
 1499 007c 8664A001 		lsleq	r6, r6, #9
 1500 0080 033683E2 		add	r3, r3, #3145728
 1501 0084 0610A0E1 		mov	r1, r6
 1502 0088 042093E5 		ldr	r2, [r3, #4]
 1503 008c 012040E3 		movt	r2, 1
 1504 0090 042083E5 		str	r2, [r3, #4]
 1505 0094 042093E5 		ldr	r2, [r3, #4]
 1506 0098 1C20C9E7 		bfi	r2, ip, #0, #10
 1507 009c 042083E5 		str	r2, [r3, #4]
 1508 00a0 FEFFFFEB 		bl	sdSendCommandP
 1509 00a4 7060EFE6 		uxtb	r6, r0
 1510 00a8 000056E3 		cmp	r6, #0
 1511 00ac 4400001A 		bne	.L298
 1512 00b0 0900A0E1 		mov	r0, r9
 1513 00b4 FEFFFFEB 		bl	sdWaitForInterrupt
 1514 00b8 006050E2 		subs	r6, r0, #0
 1515 00bc 0600000A 		beq	.L308
 1516 00c0 003095E5 		ldr	r3, [r5]
 1517 00c4 000053E3 		cmp	r3, #0
 1518 00c8 3D00000A 		beq	.L298
 1519 00cc 000000E3 		movw	r0, #:lower16:.LC8
 1520 00d0 000040E3 		movt	r0, #:upper16:.LC8
 1521 00d4 33FF2FE1 		blx	r3
 1522 00d8 390000EA 		b	.L298
 1523              	.L308:
 1524 00dc 030018E3 		tst	r8, #3
 1525 00e0 0810A0E1 		mov	r1, r8
 1526 00e4 022C88E2 		add	r2, r8, #512
 1527 00e8 1D00000A 		beq	.L290
 1528              	.L285:
 1529 00ec 000054E3 		cmp	r4, #0
 1530 00f0 0B00000A 		beq	.L283
 1531 00f4 0230D1E5 		ldrb	r3, [r1, #2]	@ zero_extendqisi2
 1532 00f8 0180D1E5 		ldrb	r8, [r1, #1]	@ zero_extendqisi2
 1533 00fc 00E0D1E5 		ldrb	lr, [r1]	@ zero_extendqisi2
 1534 0100 0338A0E1 		lsl	r3, r3, #16
 1535 0104 000097E5 		ldr	r0, [r7]
 1536 0108 03C0D1E5 		ldrb	ip, [r1, #3]	@ zero_extendqisi2
 1537 010c 083483E1 		orr	r3, r3, r8, lsl #8
 1538 0110 030680E2 		add	r0, r0, #3145728
 1539 0114 0E3083E1 		orr	r3, r3, lr
ARM GAS  C:\Users\ldebo\AppData\Local\Temp\cc9oeUFF.s 			page 28


 1540 0118 0C3C83E1 		orr	r3, r3, ip, lsl #24
 1541 011c 203080E5 		str	r3, [r0, #32]
 1542 0120 090000EA 		b	.L284
 1543              	.L283:
 1544 0124 003097E5 		ldr	r3, [r7]
 1545 0128 033683E2 		add	r3, r3, #3145728
 1546 012c 203093E5 		ldr	r3, [r3, #32]
 1547 0130 0030C1E5 		strb	r3, [r1]
 1548 0134 23C4A0E1 		lsr	ip, r3, #8
 1549 0138 2308A0E1 		lsr	r0, r3, #16
 1550 013c 233CA0E1 		lsr	r3, r3, #24
 1551 0140 01C0C1E5 		strb	ip, [r1, #1]
 1552 0144 0200C1E5 		strb	r0, [r1, #2]
 1553 0148 0330C1E5 		strb	r3, [r1, #3]
 1554              	.L284:
 1555 014c 011081E2 		add	r1, r1, #1
 1556 0150 010052E1 		cmp	r2, r1
 1557 0154 E4FFFF1A 		bne	.L285
 1558              	.L291:
 1559 0158 000054E3 		cmp	r4, #0
 1560 015c 1800000A 		beq	.L298
 1561 0160 0B0000EA 		b	.L310
 1562              	.L290:
 1563 0164 003097E5 		ldr	r3, [r7]
 1564 0168 000054E3 		cmp	r4, #0
 1565 016c 041081E2 		add	r1, r1, #4
 1566 0170 03368302 		addeq	r3, r3, #3145728
 1567 0174 03368312 		addne	r3, r3, #3145728
 1568 0178 04001115 		ldrne	r0, [r1, #-4]
 1569 017c 20309305 		ldreq	r3, [r3, #32]
 1570 0180 20008315 		strne	r0, [r3, #32]
 1571 0184 04300105 		streq	r3, [r1, #-4]
 1572 0188 010052E1 		cmp	r2, r1
 1573 018c F4FFFF1A 		bne	.L290
 1574 0190 F0FFFFEA 		b	.L291
 1575              	.L310:
 1576 0194 0200A0E3 		mov	r0, #2
 1577 0198 FEFFFFEB 		bl	sdWaitForInterrupt
 1578 019c 003050E2 		subs	r3, r0, #0
 1579 01a0 0700000A 		beq	.L298
 1580 01a4 002095E5 		ldr	r2, [r5]
 1581 01a8 000052E3 		cmp	r2, #0
 1582 01ac 0360A001 		moveq	r6, r3
 1583 01b0 0300000A 		beq	.L298
 1584 01b4 000000E3 		movw	r0, #:lower16:.LC9
 1585 01b8 000040E3 		movt	r0, #:upper16:.LC9
 1586 01bc 0360A0E1 		mov	r6, r3
 1587 01c0 32FF2FE1 		blx	r2
 1588              	.L298:
 1589 01c4 0600A0E1 		mov	r0, r6
 1590 01c8 F087BDE8 		pop	{r4, r5, r6, r7, r8, r9, r10, pc}
 1591              		.size	sdTransferBlocks.constprop.7, .-sdTransferBlocks.constprop.7
 1592              		.align	2
 1593              		.syntax unified
 1594              		.arm
 1595              		.fpu neon-vfpv4
 1596              		.type	LoadDrivePartition, %function
ARM GAS  C:\Users\ldebo\AppData\Local\Temp\cc9oeUFF.s 			page 29


 1597              	LoadDrivePartition:
 1598              		@ args = 0, pretend = 0, frame = 512
 1599              		@ frame_needed = 0, uses_anonymous_args = 0
 1600 01cc 30402DE9 		push	{r4, r5, lr}
 1601 01d0 0020A0E3 		mov	r2, #0
 1602 01d4 0050A0E1 		mov	r5, r0
 1603 01d8 83DF4DE2 		sub	sp, sp, #524
 1604 01dc 0200A0E1 		mov	r0, r2
 1605 01e0 08108DE2 		add	r1, sp, #8
 1606 01e4 85FFFFEB 		bl	sdTransferBlocks.constprop.7
 1607 01e8 002050E2 		subs	r2, r0, #0
 1608 01ec 0100000A 		beq	.L312
 1609              	.L317:
 1610 01f0 0000A0E3 		mov	r0, #0
 1611 01f4 6B0000EA 		b	.L313
 1612              	.L312:
 1613 01f8 0830DDE5 		ldrb	r3, [sp, #8]	@ zero_extendqisi2
 1614 01fc FD3003E2 		and	r3, r3, #253
 1615 0200 E90053E3 		cmp	r3, #233
 1616 0204 1000001A 		bne	.L314
 1617              	.L318:
 1618 0208 BE11DDE1 		ldrh	r1, [sp, #30]
 1619 020c 003000E3 		movw	r3, #:lower16:.LANCHOR0
 1620 0210 003040E3 		movt	r3, #:upper16:.LANCHOR0
 1621 0214 1300DDE5 		ldrb	r0, [sp, #19]	@ zero_extendqisi2
 1622 0218 000051E3 		cmp	r1, #0
 1623 021c 14E0DDE5 		ldrb	lr, [sp, #20]	@ zero_extendqisi2
 1624 0220 0340A0E1 		mov	r4, r3
 1625 0224 B621DDE1 		ldrh	r2, [sp, #22]
 1626 0228 15C0DDE5 		ldrb	ip, [sp, #21]	@ zero_extendqisi2
 1627 022c 0E0480E1 		orr	r0, r0, lr, lsl #8
 1628 0230 6C2083E5 		str	r2, [r3, #108]
 1629 0234 58C083E5 		str	ip, [r3, #88]
 1630 0238 5C0083E5 		str	r0, [r3, #92]
 1631 023c 18C0DDE5 		ldrb	ip, [sp, #24]	@ zero_extendqisi2
 1632 0240 28309DE5 		ldr	r3, [sp, #40]
 1633 0244 1700000A 		beq	.L315
 1634 0248 2F0000EA 		b	.L316
 1635              	.L314:
 1636 024c 813F8DE2 		add	r3, sp, #516
 1637 0250 023083E2 		add	r3, r3, #2
 1638 0254 B010D3E1 		ldrh	r1, [r3]
 1639 0258 553A0AE3 		movw	r3, #43605
 1640 025c 030051E1 		cmp	r1, r3
 1641 0260 E2FFFF1A 		bne	.L317
 1642 0264 733F8DE2 		add	r3, sp, #460
 1643 0268 1D1E8DE2 		add	r1, sp, #464
 1644 026c 023083E2 		add	r3, r3, #2
 1645 0270 00C000E3 		movw	ip, #:lower16:.LANCHOR0
 1646 0274 00C040E3 		movt	ip, #:upper16:.LANCHOR0
 1647 0278 B0E0D1E1 		ldrh	lr, [r1]
 1648 027c 08108DE2 		add	r1, sp, #8
 1649 0280 B030D3E1 		ldrh	r3, [r3]
 1650 0284 0E3883E1 		orr	r3, r3, lr, lsl #16
 1651 0288 0300A0E1 		mov	r0, r3
 1652 028c 68308CE5 		str	r3, [ip, #104]
 1653 0290 5AFFFFEB 		bl	sdTransferBlocks.constprop.7
ARM GAS  C:\Users\ldebo\AppData\Local\Temp\cc9oeUFF.s 			page 30


 1654 0294 0830DDE5 		ldrb	r3, [sp, #8]	@ zero_extendqisi2
 1655 0298 FD3003E2 		and	r3, r3, #253
 1656 029c E90053E3 		cmp	r3, #233
 1657 02a0 D8FFFF0A 		beq	.L318
 1658 02a4 D1FFFFEA 		b	.L317
 1659              	.L315:
 1660 02a8 18009DE5 		ldr	r0, [sp, #24]
 1661 02ac 5004EFE7 		ubfx	r0, r0, #8, #16
 1662 02b0 000050E3 		cmp	r0, #0
 1663 02b4 1400001A 		bne	.L316
 1664 02b8 2C109DE5 		ldr	r1, [sp, #44]
 1665 02bc 000055E3 		cmp	r5, #0
 1666 02c0 24009DE5 		ldr	r0, [sp, #36]
 1667 02c4 023043E0 		sub	r3, r3, r2
 1668 02c8 002082E0 		add	r2, r2, r0
 1669 02cc 34009DE5 		ldr	r0, [sp, #52]
 1670 02d0 910C01E0 		mul	r1, r1, ip
 1671 02d4 540084E5 		str	r0, [r4, #84]
 1672 02d8 013043E0 		sub	r3, r3, r1
 1673 02dc 012082E0 		add	r2, r2, r1
 1674 02e0 643084E5 		str	r3, [r4, #100]
 1675 02e4 602084E5 		str	r2, [r4, #96]
 1676 02e8 2D00000A 		beq	.L321
 1677 02ec 4B30DDE5 		ldrb	r3, [sp, #75]	@ zero_extendqisi2
 1678 02f0 4F108DE2 		add	r1, sp, #79
 1679 02f4 4C209DE5 		ldr	r2, [sp, #76]
 1680 02f8 000000E3 		movw	r0, #:lower16:.LC10
 1681 02fc 000040E3 		movt	r0, #:upper16:.LC10
 1682 0300 022483E1 		orr	r2, r3, r2, lsl #8
 1683 0304 35FF2FE1 		blx	r5
 1684 0308 180000EA 		b	.L319
 1685              	.L316:
 1686 030c 2E00DDE5 		ldrb	r0, [sp, #46]	@ zero_extendqisi2
 1687 0310 000055E3 		cmp	r5, #0
 1688 0314 682094E5 		ldr	r2, [r4, #104]
 1689 0318 910C01E0 		mul	r1, r1, ip
 1690 031c 290040E2 		sub	r0, r0, #41
 1691 0320 213043E2 		sub	r3, r3, #33
 1692 0324 100F6FE1 		clz	r0, r0
 1693 0328 012082E2 		add	r2, r2, #1
 1694 032c 013043E0 		sub	r3, r3, r1
 1695 0330 012082E0 		add	r2, r2, r1
 1696 0334 A002A0E1 		lsr	r0, r0, #5
 1697 0338 0000A003 		moveq	r0, #0
 1698 033c 000050E3 		cmp	r0, #0
 1699 0340 0210A0E3 		mov	r1, #2
 1700 0344 643084E5 		str	r3, [r4, #100]
 1701 0348 602084E5 		str	r2, [r4, #96]
 1702 034c 541084E5 		str	r1, [r4, #84]
 1703 0350 0600000A 		beq	.L319
 1704 0354 2F30DDE5 		ldrb	r3, [sp, #47]	@ zero_extendqisi2
 1705 0358 000000E3 		movw	r0, #:lower16:.LC11
 1706 035c 000040E3 		movt	r0, #:upper16:.LC11
 1707 0360 30209DE5 		ldr	r2, [sp, #48]
 1708 0364 33108DE2 		add	r1, sp, #51
 1709 0368 022483E1 		orr	r2, r3, r2, lsl #8
 1710 036c 35FF2FE1 		blx	r5
ARM GAS  C:\Users\ldebo\AppData\Local\Temp\cc9oeUFF.s 			page 31


 1711              	.L319:
 1712 0370 642094E5 		ldr	r2, [r4, #100]
 1713 0374 000055E3 		cmp	r5, #0
 1714 0378 583094E5 		ldr	r3, [r4, #88]
 1715 037c 12F333E7 		udiv	r3, r2, r3
 1716 0380 0700000A 		beq	.L321
 1717 0384 540094E5 		ldr	r0, [r4, #84]
 1718 0388 601094E5 		ldr	r1, [r4, #96]
 1719 038c 00008DE5 		str	r0, [sp]
 1720 0390 000000E3 		movw	r0, #:lower16:.LC12
 1721 0394 000040E3 		movt	r0, #:upper16:.LC12
 1722 0398 35FF2FE1 		blx	r5
 1723 039c 0100A0E3 		mov	r0, #1
 1724 03a0 000000EA 		b	.L313
 1725              	.L321:
 1726 03a4 0100A0E3 		mov	r0, #1
 1727              	.L313:
 1728 03a8 83DF8DE2 		add	sp, sp, #524
 1729              		@ sp needed
 1730 03ac 3080BDE8 		pop	{r4, r5, pc}
 1731              		.size	LoadDrivePartition, .-LoadDrivePartition
 1732              		.text
 1733              		.align	2
 1734              		.global	sdTransferBlocks
 1735              		.syntax unified
 1736              		.arm
 1737              		.fpu neon-vfpv4
 1738              		.type	sdTransferBlocks, %function
 1739              	sdTransferBlocks:
 1740              		@ args = 0, pretend = 0, frame = 0
 1741              		@ frame_needed = 0, uses_anonymous_args = 0
 1742 1328 00C000E3 		movw	ip, #:lower16:.LANCHOR0
 1743 132c 00C040E3 		movt	ip, #:upper16:.LANCHOR0
 1744 1330 40C0DCE5 		ldrb	ip, [ip, #64]	@ zero_extendqisi2
 1745 1334 00005CE3 		cmp	ip, #0
 1746 1338 0100001A 		bne	.L334
 1747 133c 0500A0E3 		mov	r0, #5
 1748 1340 1EFF2FE1 		bx	lr
 1749              	.L334:
 1750 1344 F0412DE9 		push	{r4, r5, r6, r7, r8, lr}
 1751 1348 0370A0E1 		mov	r7, r3
 1752 134c 0260A0E1 		mov	r6, r2
 1753 1350 0150A0E1 		mov	r5, r1
 1754 1354 0040A0E1 		mov	r4, r0
 1755 1358 28FBFFEB 		bl	sdWaitForData
 1756 135c 000050E3 		cmp	r0, #0
 1757 1360 0100000A 		beq	.L335
 1758 1364 0200A0E3 		mov	r0, #2
 1759 1368 F081BDE8 		pop	{r4, r5, r6, r7, r8, pc}
 1760              	.L335:
 1761 136c 0730A0E1 		mov	r3, r7
 1762 1370 0620A0E1 		mov	r2, r6
 1763 1374 0510A0E1 		mov	r1, r5
 1764 1378 0400A0E1 		mov	r0, r4
 1765 137c F041BDE8 		pop	{r4, r5, r6, r7, r8, lr}
 1766 1380 2AFFFFEA 		b	sdTransferBlocks.part.5
 1767              		.size	sdTransferBlocks, .-sdTransferBlocks
ARM GAS  C:\Users\ldebo\AppData\Local\Temp\cc9oeUFF.s 			page 32


 1768              		.align	2
 1769              		.global	sdClearBlocks
 1770              		.syntax unified
 1771              		.arm
 1772              		.fpu neon-vfpv4
 1773              		.type	sdClearBlocks, %function
 1774              	sdClearBlocks:
 1775              		@ args = 0, pretend = 0, frame = 8
 1776              		@ frame_needed = 0, uses_anonymous_args = 0
 1777 1384 F0402DE9 		push	{r4, r5, r6, r7, lr}
 1778 1388 004000E3 		movw	r4, #:lower16:.LANCHOR0
 1779 138c 004040E3 		movt	r4, #:upper16:.LANCHOR0
 1780 1390 0CD04DE2 		sub	sp, sp, #12
 1781 1394 4030D4E5 		ldrb	r3, [r4, #64]	@ zero_extendqisi2
 1782 1398 000053E3 		cmp	r3, #0
 1783 139c 0550A003 		moveq	r5, #5
 1784 13a0 0200001A 		bne	.L355
 1785              	.L349:
 1786 13a4 0500A0E1 		mov	r0, r5
 1787 13a8 0CD08DE2 		add	sp, sp, #12
 1788              		@ sp needed
 1789 13ac F080BDE8 		pop	{r4, r5, r6, r7, pc}
 1790              	.L355:
 1791 13b0 04108DE5 		str	r1, [sp, #4]
 1792 13b4 0050A0E1 		mov	r5, r0
 1793 13b8 10FBFFEB 		bl	sdWaitForData
 1794 13bc 000050E3 		cmp	r0, #0
 1795 13c0 04109DE5 		ldr	r1, [sp, #4]
 1796 13c4 0300000A 		beq	.L338
 1797              	.L343:
 1798 13c8 0250A0E3 		mov	r5, #2
 1799 13cc 0500A0E1 		mov	r0, r5
 1800 13d0 0CD08DE2 		add	sp, sp, #12
 1801              		@ sp needed
 1802 13d4 F080BDE8 		pop	{r4, r5, r6, r7, pc}
 1803              	.L338:
 1804 13d8 4030D4E5 		ldrb	r3, [r4, #64]	@ zero_extendqisi2
 1805 13dc 007000E3 		movw	r7, #:lower16:.LANCHOR1
 1806 13e0 007040E3 		movt	r7, #:upper16:.LANCHOR1
 1807 13e4 030053E3 		cmp	r3, #3
 1808 13e8 960F87E2 		add	r0, r7, #600
 1809 13ec 01108500 		addeq	r1, r5, r1
 1810 13f0 01608510 		addne	r6, r5, r1
 1811 13f4 8554A001 		lsleq	r5, r5, #9
 1812 13f8 8164A001 		lsleq	r6, r1, #9
 1813 13fc 0510A0E1 		mov	r1, r5
 1814 1400 E0FCFFEB 		bl	sdSendCommandP
 1815 1404 7050EFE6 		uxtb	r5, r0
 1816 1408 000055E3 		cmp	r5, #0
 1817 140c E4FFFF1A 		bne	.L349
 1818 1410 0610A0E1 		mov	r1, r6
 1819 1414 270E87E2 		add	r0, r7, #624
 1820 1418 DAFCFFEB 		bl	sdSendCommandP
 1821 141c 7050EFE6 		uxtb	r5, r0
 1822 1420 000055E3 		cmp	r5, #0
 1823 1424 DEFFFF1A 		bne	.L349
 1824 1428 9C32D7E5 		ldrb	r3, [r7, #668]	@ zero_extendqisi2
ARM GAS  C:\Users\ldebo\AppData\Local\Temp\cc9oeUFF.s 			page 33


 1825 142c 8C009FE5 		ldr	r0, .L356
 1826 1430 011013E2 		ands	r1, r3, #1
 1827 1434 44109415 		ldrne	r1, [r4, #68]
 1828 1438 D2FCFFEB 		bl	sdSendCommandP
 1829 143c 7050EFE6 		uxtb	r5, r0
 1830 1440 000055E3 		cmp	r5, #0
 1831 1444 D6FFFF1A 		bne	.L349
 1832 1448 007000E3 		movw	r7, #:lower16:RPi_IO_Base_Addr
 1833 144c 007040E3 		movt	r7, #:upper16:RPi_IO_Base_Addr
 1834 1450 003097E5 		ldr	r3, [r7]
 1835 1454 033683E2 		add	r3, r3, #3145728
 1836 1458 243093E5 		ldr	r3, [r3, #36]
 1837 145c 020013E3 		tst	r3, #2
 1838 1460 3F620413 		movwne	r6, #16959
 1839 1464 0F604013 		movtne	r6, 15
 1840 1468 CDFFFF0A 		beq	.L349
 1841              	.L342:
 1842 146c 0010A0E3 		mov	r1, #0
 1843 1470 0A00A0E3 		mov	r0, #10
 1844 1474 FEFFFFEB 		bl	timer_wait
 1845 1478 003097E5 		ldr	r3, [r7]
 1846 147c 033683E2 		add	r3, r3, #3145728
 1847 1480 241083E2 		add	r1, r3, #36
 1848 1484 242093E5 		ldr	r2, [r3, #36]
 1849 1488 020012E3 		tst	r2, #2
 1850 148c C4FFFF0A 		beq	.L349
 1851 1490 016056E2 		subs	r6, r6, #1
 1852 1494 F4FFFF1A 		bne	.L342
 1853 1498 004094E5 		ldr	r4, [r4]
 1854 149c 000054E3 		cmp	r4, #0
 1855 14a0 C8FFFF0A 		beq	.L343
 1856 14a4 001091E5 		ldr	r1, [r1]
 1857 14a8 000000E3 		movw	r0, #:lower16:.LC13
 1858 14ac 000040E3 		movt	r0, #:upper16:.LC13
 1859 14b0 302093E5 		ldr	r2, [r3, #48]
 1860 14b4 0250A0E3 		mov	r5, #2
 1861 14b8 34FF2FE1 		blx	r4
 1862 14bc B8FFFFEA 		b	.L349
 1863              	.L357:
 1864              		.align	2
 1865              	.L356:
 1866 14c0 88020000 		.word	.LANCHOR1+648
 1867              		.size	sdClearBlocks, .-sdClearBlocks
 1868              		.align	2
 1869              		.global	getSetNextCluster
 1870              		.syntax unified
 1871              		.arm
 1872              		.fpu neon-vfpv4
 1873              		.type	getSetNextCluster, %function
 1874              	getSetNextCluster:
 1875              		@ args = 0, pretend = 0, frame = 520
 1876              		@ frame_needed = 0, uses_anonymous_args = 0
 1877 14c4 F04F2DE9 		push	{r4, r5, r6, r7, r8, r9, r10, fp, lr}
 1878 14c8 008000E3 		movw	r8, #:lower16:.LANCHOR0
 1879 14cc 008040E3 		movt	r8, #:upper16:.LANCHOR0
 1880 14d0 83DF4DE2 		sub	sp, sp, #524
 1881 14d4 40C0D8E5 		ldrb	ip, [r8, #64]	@ zero_extendqisi2
ARM GAS  C:\Users\ldebo\AppData\Local\Temp\cc9oeUFF.s 			page 34


 1882 14d8 00005CE3 		cmp	ip, #0
 1883 14dc 0200001A 		bne	.L399
 1884              	.L394:
 1885 14e0 0000E0E3 		mvn	r0, #0
 1886              	.L358:
 1887 14e4 83DF8DE2 		add	sp, sp, #524
 1888              		@ sp needed
 1889 14e8 F08FBDE8 		pop	{r4, r5, r6, r7, r8, r9, r10, fp, pc}
 1890              	.L399:
 1891 14ec 00208DE5 		str	r2, [sp]
 1892 14f0 0170A0E1 		mov	r7, r1
 1893 14f4 0060A0E1 		mov	r6, r0
 1894 14f8 684098E5 		ldr	r4, [r8, #104]
 1895 14fc 6CA098E5 		ldr	r10, [r8, #108]
 1896 1500 5C9098E5 		ldr	r9, [r8, #92]
 1897 1504 BDFAFFEB 		bl	sdWaitForData
 1898 1508 000050E3 		cmp	r0, #0
 1899 150c F3FFFF1A 		bne	.L394
 1900 1510 0A4084E0 		add	r4, r4, r10
 1901 1514 00A000E3 		movw	r10, #:lower16:RPi_IO_Base_Addr
 1902 1518 00A040E3 		movt	r10, #:upper16:RPi_IO_Base_Addr
 1903 151c 0661A0E1 		lsl	r6, r6, #2
 1904 1520 4020D8E5 		ldrb	r2, [r8, #64]	@ zero_extendqisi2
 1905 1524 7C019FE5 		ldr	r0, .L401
 1906 1528 00C09AE5 		ldr	ip, [r10]
 1907 152c 030052E3 		cmp	r2, #3
 1908 1530 16F93BE7 		udiv	fp, r6, r9
 1909 1534 03C68CE2 		add	ip, ip, #3145728
 1910 1538 04E09CE5 		ldr	lr, [ip, #4]
 1911 153c 0B3084E0 		add	r3, r4, fp
 1912 1540 04308DE5 		str	r3, [sp, #4]
 1913 1544 024CA0E3 		mov	r4, #512
 1914 1548 01E040E3 		movt	lr, 1
 1915 154c 8314A001 		lsleq	r1, r3, #9
 1916 1550 04E08CE5 		str	lr, [ip, #4]
 1917 1554 0310A011 		movne	r1, r3
 1918 1558 04E09CE5 		ldr	lr, [ip, #4]
 1919 155c 14E0C9E7 		bfi	lr, r4, #0, #10
 1920 1560 04E08CE5 		str	lr, [ip, #4]
 1921 1564 87FCFFEB 		bl	sdSendCommandP
 1922 1568 FF0010E3 		tst	r0, #255
 1923 156c DBFFFF1A 		bne	.L394
 1924 1570 2000A0E3 		mov	r0, #32
 1925 1574 E1FAFFEB 		bl	sdWaitForInterrupt
 1926 1578 000050E3 		cmp	r0, #0
 1927 157c 4100001A 		bne	.L371
 1928 1580 00009AE5 		ldr	r0, [r10]
 1929 1584 04508DE2 		add	r5, sp, #4
 1930 1588 0540A0E1 		mov	r4, r5
 1931 158c 81CF8DE2 		add	ip, sp, #516
 1932 1590 030680E2 		add	r0, r0, #3145728
 1933 1594 200080E2 		add	r0, r0, #32
 1934              	.L364:
 1935 1598 001090E5 		ldr	r1, [r0]
 1936 159c 0410A4E5 		str	r1, [r4, #4]!
 1937 15a0 0C0054E1 		cmp	r4, ip
 1938 15a4 FBFFFF1A 		bne	.L364
ARM GAS  C:\Users\ldebo\AppData\Local\Temp\cc9oeUFF.s 			page 35


 1939 15a8 000057E3 		cmp	r7, #0
 1940 15ac 996B66E0 		mls	r6, r9, fp, r6
 1941 15b0 0300001A 		bne	.L400
 1942 15b4 08308DE2 		add	r3, sp, #8
 1943 15b8 060093E7 		ldr	r0, [r3, r6]
 1944 15bc 83DF8DE2 		add	sp, sp, #524
 1945              		@ sp needed
 1946 15c0 F08FBDE8 		pop	{r4, r5, r6, r7, r8, r9, r10, fp, pc}
 1947              	.L400:
 1948 15c4 4010D8E5 		ldrb	r1, [r8, #64]	@ zero_extendqisi2
 1949 15c8 08208DE2 		add	r2, sp, #8
 1950 15cc 00309DE5 		ldr	r3, [sp]
 1951 15d0 000051E3 		cmp	r1, #0
 1952 15d4 063082E7 		str	r3, [r2, r6]
 1953 15d8 C0FFFF0A 		beq	.L394
 1954 15dc 87FAFFEB 		bl	sdWaitForData
 1955 15e0 000050E3 		cmp	r0, #0
 1956 15e4 BDFFFF1A 		bne	.L394
 1957 15e8 4010D8E5 		ldrb	r1, [r8, #64]	@ zero_extendqisi2
 1958 15ec 026CA0E3 		mov	r6, #512
 1959 15f0 00C09AE5 		ldr	ip, [r10]
 1960 15f4 030051E3 		cmp	r1, #3
 1961 15f8 AC009FE5 		ldr	r0, .L401+4
 1962 15fc 03C68CE2 		add	ip, ip, #3145728
 1963 1600 04309D05 		ldreq	r3, [sp, #4]
 1964 1604 04E09CE5 		ldr	lr, [ip, #4]
 1965 1608 8334A001 		lsleq	r3, r3, #9
 1966 160c 01E040E3 		movt	lr, 1
 1967 1610 04308D05 		streq	r3, [sp, #4]
 1968 1614 04E08CE5 		str	lr, [ip, #4]
 1969 1618 04109DE5 		ldr	r1, [sp, #4]
 1970 161c 04E09CE5 		ldr	lr, [ip, #4]
 1971 1620 16E0C9E7 		bfi	lr, r6, #0, #10
 1972 1624 04E08CE5 		str	lr, [ip, #4]
 1973 1628 56FCFFEB 		bl	sdSendCommandP
 1974 162c FF0010E3 		tst	r0, #255
 1975 1630 AAFFFF1A 		bne	.L394
 1976 1634 1000A0E3 		mov	r0, #16
 1977 1638 B0FAFFEB 		bl	sdWaitForInterrupt
 1978 163c 000050E3 		cmp	r0, #0
 1979 1640 1000001A 		bne	.L371
 1980              	.L368:
 1981 1644 00109AE5 		ldr	r1, [r10]
 1982 1648 0400B5E5 		ldr	r0, [r5, #4]!
 1983 164c 031681E2 		add	r1, r1, #3145728
 1984 1650 040055E1 		cmp	r5, r4
 1985 1654 200081E5 		str	r0, [r1, #32]
 1986 1658 F9FFFF1A 		bne	.L368
 1987 165c 0200A0E3 		mov	r0, #2
 1988 1660 A6FAFFEB 		bl	sdWaitForInterrupt
 1989 1664 000050E3 		cmp	r0, #0
 1990 1668 9DFFFF0A 		beq	.L358
 1991 166c 003098E5 		ldr	r3, [r8]
 1992 1670 000053E3 		cmp	r3, #0
 1993 1674 99FFFF0A 		beq	.L394
 1994 1678 000000E3 		movw	r0, #:lower16:.LC9
 1995 167c 000040E3 		movt	r0, #:upper16:.LC9
ARM GAS  C:\Users\ldebo\AppData\Local\Temp\cc9oeUFF.s 			page 36


 1996 1680 33FF2FE1 		blx	r3
 1997 1684 95FFFFEA 		b	.L394
 1998              	.L371:
 1999 1688 003098E5 		ldr	r3, [r8]
 2000 168c 000053E3 		cmp	r3, #0
 2001 1690 92FFFF0A 		beq	.L394
 2002 1694 000000E3 		movw	r0, #:lower16:.LC8
 2003 1698 000040E3 		movt	r0, #:upper16:.LC8
 2004 169c 33FF2FE1 		blx	r3
 2005 16a0 0000E0E3 		mvn	r0, #0
 2006 16a4 8EFFFFEA 		b	.L358
 2007              	.L402:
 2008              		.align	2
 2009              	.L401:
 2010 16a8 50010000 		.word	.LANCHOR1+336
 2011 16ac C8010000 		.word	.LANCHOR1+456
 2012              		.size	getSetNextCluster, .-getSetNextCluster
 2013              		.align	2
 2014              		.global	WildcardMatch
 2015              		.syntax unified
 2016              		.arm
 2017              		.fpu neon-vfpv4
 2018              		.type	WildcardMatch, %function
 2019              	WildcardMatch:
 2020              		@ args = 0, pretend = 0, frame = 0
 2021              		@ frame_needed = 0, uses_anonymous_args = 0
 2022 16b0 F0472DE9 		push	{r4, r5, r6, r7, r8, r9, r10, lr}
 2023 16b4 0050A0E3 		mov	r5, #0
 2024 16b8 0080A0E1 		mov	r8, r0
 2025 16bc 0170A0E1 		mov	r7, r1
 2026 16c0 0560A0E1 		mov	r6, r5
 2027 16c4 1E0000EA 		b	.L404
 2028              	.L407:
 2029 16c8 5B0053E3 		cmp	r3, #91
 2030 16cc 3500000A 		beq	.L411
 2031 16d0 5C0053E3 		cmp	r3, #92
 2032 16d4 2D00001A 		bne	.L405
 2033 16d8 0190D8E5 		ldrb	r9, [r8, #1]	@ zero_extendqisi2
 2034 16dc 024088E2 		add	r4, r8, #2
 2035 16e0 000059E3 		cmp	r9, #0
 2036 16e4 3700000A 		beq	.L414
 2037              	.L412:
 2038 16e8 0080D7E5 		ldrb	r8, [r7]	@ zero_extendqisi2
 2039 16ec FEFFFFEB 		bl	__locale_ctype_ptr
 2040 16f0 080080E0 		add	r0, r0, r8
 2041 16f4 0130D0E5 		ldrb	r3, [r0, #1]	@ zero_extendqisi2
 2042 16f8 033003E2 		and	r3, r3, #3
 2043 16fc 020053E3 		cmp	r3, #2
 2044 1700 20804802 		subeq	r8, r8, #32
 2045 1704 FEFFFFEB 		bl	__locale_ctype_ptr
 2046 1708 090080E0 		add	r0, r0, r9
 2047 170c 0130D0E5 		ldrb	r3, [r0, #1]	@ zero_extendqisi2
 2048 1710 033003E2 		and	r3, r3, #3
 2049 1714 020053E3 		cmp	r3, #2
 2050 1718 0030D7E5 		ldrb	r3, [r7]	@ zero_extendqisi2
 2051 171c 20904902 		subeq	r9, r9, #32
 2052 1720 090058E1 		cmp	r8, r9
ARM GAS  C:\Users\ldebo\AppData\Local\Temp\cc9oeUFF.s 			page 37


 2053 1724 3A00000A 		beq	.L448
 2054 1728 000053E3 		cmp	r3, #0
 2055 172c 2500000A 		beq	.L414
 2056 1730 015085E2 		add	r5, r5, #1
 2057 1734 0680A0E1 		mov	r8, r6
 2058 1738 0570A0E1 		mov	r7, r5
 2059              	.L408:
 2060 173c 000058E3 		cmp	r8, #0
 2061 1740 2000000A 		beq	.L414
 2062              	.L404:
 2063 1744 0040D7E5 		ldrb	r4, [r7]	@ zero_extendqisi2
 2064 1748 FEFFFFEB 		bl	__locale_ctype_ptr
 2065 174c 040080E0 		add	r0, r0, r4
 2066 1750 0130D0E5 		ldrb	r3, [r0, #1]	@ zero_extendqisi2
 2067 1754 033003E2 		and	r3, r3, #3
 2068 1758 020053E3 		cmp	r3, #2
 2069 175c 20404402 		subeq	r4, r4, #32
 2070 1760 000054E3 		cmp	r4, #0
 2071 1764 1900000A 		beq	.L449
 2072              	.L424:
 2073 1768 0030D8E5 		ldrb	r3, [r8]	@ zero_extendqisi2
 2074 176c 014088E2 		add	r4, r8, #1
 2075 1770 3F0053E3 		cmp	r3, #63
 2076 1774 2000000A 		beq	.L428
 2077 1778 D2FFFF8A 		bhi	.L407
 2078 177c 2A0053E3 		cmp	r3, #42
 2079 1780 0460A001 		moveq	r6, r4
 2080 1784 0750A001 		moveq	r5, r7
 2081 1788 0680A001 		moveq	r8, r6
 2082 178c EAFFFF0A 		beq	.L408
 2083              	.L405:
 2084 1790 0390A0E1 		mov	r9, r3
 2085 1794 D3FFFFEA 		b	.L412
 2086              	.L413:
 2087 1798 0130D4E5 		ldrb	r3, [r4, #1]	@ zero_extendqisi2
 2088 179c 024084E2 		add	r4, r4, #2
 2089 17a0 000053E3 		cmp	r3, #0
 2090 17a4 0700000A 		beq	.L414
 2091              	.L411:
 2092 17a8 0030D4E5 		ldrb	r3, [r4]	@ zero_extendqisi2
 2093 17ac 5D0053E3 		cmp	r3, #93
 2094 17b0 1C00000A 		beq	.L450
 2095 17b4 5C0053E3 		cmp	r3, #92
 2096 17b8 F6FFFF0A 		beq	.L413
 2097 17bc 000053E3 		cmp	r3, #0
 2098 17c0 014084E2 		add	r4, r4, #1
 2099 17c4 F7FFFF1A 		bne	.L411
 2100              	.L414:
 2101 17c8 0000A0E3 		mov	r0, #0
 2102 17cc F087BDE8 		pop	{r4, r5, r6, r7, r8, r9, r10, pc}
 2103              	.L449:
 2104 17d0 0040D8E5 		ldrb	r4, [r8]	@ zero_extendqisi2
 2105 17d4 FEFFFFEB 		bl	__locale_ctype_ptr
 2106 17d8 040080E0 		add	r0, r0, r4
 2107 17dc 0130D0E5 		ldrb	r3, [r0, #1]	@ zero_extendqisi2
 2108 17e0 033003E2 		and	r3, r3, #3
 2109 17e4 020053E3 		cmp	r3, #2
ARM GAS  C:\Users\ldebo\AppData\Local\Temp\cc9oeUFF.s 			page 38


 2110 17e8 20404402 		subeq	r4, r4, #32
 2111 17ec 000054E3 		cmp	r4, #0
 2112 17f0 DCFFFF1A 		bne	.L424
 2113 17f4 0100A0E3 		mov	r0, #1
 2114 17f8 F087BDE8 		pop	{r4, r5, r6, r7, r8, r9, r10, pc}
 2115              	.L428:
 2116 17fc 0480A0E1 		mov	r8, r4
 2117              	.L406:
 2118 1800 0030D7E5 		ldrb	r3, [r7]	@ zero_extendqisi2
 2119 1804 017087E2 		add	r7, r7, #1
 2120 1808 000053E3 		cmp	r3, #0
 2121 180c CAFFFF1A 		bne	.L408
 2122 1810 ECFFFFEA 		b	.L414
 2123              	.L448:
 2124 1814 000053E3 		cmp	r3, #0
 2125 1818 01708712 		addne	r7, r7, #1
 2126 181c 0480A011 		movne	r8, r4
 2127 1820 0480A001 		moveq	r8, r4
 2128 1824 C4FFFFEA 		b	.L408
 2129              	.L450:
 2130 1828 015085E2 		add	r5, r5, #1
 2131 182c 0680A0E1 		mov	r8, r6
 2132 1830 0570A0E1 		mov	r7, r5
 2133 1834 F1FFFFEA 		b	.L406
 2134              		.size	WildcardMatch, .-WildcardMatch
 2135              		.align	2
 2136              		.syntax unified
 2137              		.arm
 2138              		.fpu neon-vfpv4
 2139              		.type	LocateFATEntry, %function
 2140              	LocateFATEntry:
 2141              		@ args = 4, pretend = 0, frame = 32
 2142              		@ frame_needed = 0, uses_anonymous_args = 0
 2143 1838 F04F2DE9 		push	{r4, r5, r6, r7, r8, r9, r10, fp, lr}
 2144 183c 0040A0E3 		mov	r4, #0
 2145 1840 009000E3 		movw	r9, #:lower16:RPi_IO_Base_Addr
 2146 1844 009040E3 		movt	r9, #:upper16:RPi_IO_Base_Addr
 2147 1848 24D04DE2 		sub	sp, sp, #36
 2148 184c 0350A0E1 		mov	r5, r3
 2149 1850 0270A0E1 		mov	r7, r2
 2150 1854 003000E3 		movw	r3, #:lower16:.LANCHOR0
 2151 1858 003040E3 		movt	r3, #:upper16:.LANCHOR0
 2152 185c 0C908DE5 		str	r9, [sp, #12]
 2153 1860 04A0A0E1 		mov	r10, r4
 2154 1864 0190A0E1 		mov	r9, r1
 2155 1868 08008DE5 		str	r0, [sp, #8]
 2156 186c 04308DE5 		str	r3, [sp, #4]
 2157              	.L452:
 2158 1870 002099E5 		ldr	r2, [r9]
 2159 1874 012042E2 		sub	r2, r2, #1
 2160 1878 CF0272E3 		cmn	r2, #-268435444
 2161 187c A001008A 		bhi	.L484
 2162 1880 04309DE5 		ldr	r3, [sp, #4]
 2163 1884 0960A0E1 		mov	r6, r9
 2164 1888 088099E5 		ldr	r8, [r9, #8]
 2165 188c 582093E5 		ldr	r2, [r3, #88]
 2166 1890 0230A0E1 		mov	r3, r2
ARM GAS  C:\Users\ldebo\AppData\Local\Temp\cc9oeUFF.s 			page 39


 2167              	.L485:
 2168 1894 030058E1 		cmp	r8, r3
 2169 1898 6401002A 		bcs	.L476
 2170 189c 0C0096E5 		ldr	r0, [r6, #12]
 2171 18a0 020C50E3 		cmp	r0, #512
 2172 18a4 6100002A 		bcs	.L477
 2173 18a8 101080E2 		add	r1, r0, #16
 2174 18ac 01B086E0 		add	fp, r6, r1
 2175 18b0 0110D6E7 		ldrb	r1, [r6, r1]	@ zero_extendqisi2
 2176 18b4 000051E3 		cmp	r1, #0
 2177 18b8 E300000A 		beq	.L478
 2178 18bc 08809DE5 		ldr	r8, [sp, #8]
 2179 18c0 0790A0E1 		mov	r9, r7
 2180 18c4 4E0000EA 		b	.L453
 2181              	.L583:
 2182 18c8 0B30DBE5 		ldrb	r3, [fp, #11]	@ zero_extendqisi2
 2183 18cc 080053E3 		cmp	r3, #8
 2184 18d0 4D00000A 		beq	.L489
 2185 18d4 0F0053E3 		cmp	r3, #15
 2186 18d8 8400000A 		beq	.L581
 2187 18dc 000054E3 		cmp	r4, #0
 2188 18e0 6F00001A 		bne	.L459
 2189 18e4 200051E3 		cmp	r1, #32
 2190 18e8 F000000A 		beq	.L490
 2191 18ec 0010C5E5 		strb	r1, [r5]
 2192 18f0 0130DBE5 		ldrb	r3, [fp, #1]	@ zero_extendqisi2
 2193 18f4 DF0013E3 		tst	r3, #223
 2194 18f8 F100000A 		beq	.L491
 2195 18fc 0130C5E5 		strb	r3, [r5, #1]
 2196 1900 0230DBE5 		ldrb	r3, [fp, #2]	@ zero_extendqisi2
 2197 1904 DF0013E3 		tst	r3, #223
 2198 1908 F300000A 		beq	.L492
 2199 190c 0230C5E5 		strb	r3, [r5, #2]
 2200 1910 0330DBE5 		ldrb	r3, [fp, #3]	@ zero_extendqisi2
 2201 1914 DF0013E3 		tst	r3, #223
 2202 1918 F500000A 		beq	.L493
 2203 191c 0330C5E5 		strb	r3, [r5, #3]
 2204 1920 0430DBE5 		ldrb	r3, [fp, #4]	@ zero_extendqisi2
 2205 1924 DF0013E3 		tst	r3, #223
 2206 1928 F700000A 		beq	.L494
 2207 192c 0430C5E5 		strb	r3, [r5, #4]
 2208 1930 0530DBE5 		ldrb	r3, [fp, #5]	@ zero_extendqisi2
 2209 1934 DF0013E3 		tst	r3, #223
 2210 1938 F900000A 		beq	.L495
 2211 193c 0530C5E5 		strb	r3, [r5, #5]
 2212 1940 0630DBE5 		ldrb	r3, [fp, #6]	@ zero_extendqisi2
 2213 1944 DF0013E3 		tst	r3, #223
 2214 1948 FB00000A 		beq	.L496
 2215 194c 0630C5E5 		strb	r3, [r5, #6]
 2216 1950 0730DBE5 		ldrb	r3, [fp, #7]	@ zero_extendqisi2
 2217 1954 DF0013E3 		tst	r3, #223
 2218 1958 FD00000A 		beq	.L497
 2219 195c 0730C5E5 		strb	r3, [r5, #7]
 2220 1960 0CC0A0E3 		mov	ip, #12
 2221 1964 0A10A0E3 		mov	r1, #10
 2222 1968 0930A0E3 		mov	r3, #9
 2223 196c 0B00A0E3 		mov	r0, #11
ARM GAS  C:\Users\ldebo\AppData\Local\Temp\cc9oeUFF.s 			page 40


 2224 1970 0840A0E3 		mov	r4, #8
 2225              	.L460:
 2226 1974 000059E3 		cmp	r9, #0
 2227 1978 4700001A 		bne	.L500
 2228 197c 2E20A0E3 		mov	r2, #46
 2229 1980 0420C5E7 		strb	r2, [r5, r4]
 2230 1984 0BE0DBE5 		ldrb	lr, [fp, #11]	@ zero_extendqisi2
 2231 1988 10005EE3 		cmp	lr, #16
 2232 198c AB00000A 		beq	.L501
 2233 1990 08E0DBE5 		ldrb	lr, [fp, #8]	@ zero_extendqisi2
 2234 1994 DF001EE3 		tst	lr, #223
 2235 1998 F300000A 		beq	.L502
 2236 199c 03E0C5E7 		strb	lr, [r5, r3]
 2237 19a0 0930DBE5 		ldrb	r3, [fp, #9]	@ zero_extendqisi2
 2238 19a4 DF0013E3 		tst	r3, #223
 2239 19a8 F200000A 		beq	.L503
 2240 19ac 0130C5E7 		strb	r3, [r5, r1]
 2241 19b0 0A30DBE5 		ldrb	r3, [fp, #10]	@ zero_extendqisi2
 2242 19b4 DF0013E3 		tst	r3, #223
 2243 19b8 F100000A 		beq	.L504
 2244 19bc 0C40A0E1 		mov	r4, ip
 2245 19c0 0970A0E1 		mov	r7, r9
 2246 19c4 0030C5E7 		strb	r3, [r5, r0]
 2247              	.L465:
 2248 19c8 04A0C5E7 		strb	r10, [r5, r4]
 2249 19cc 0B30DBE5 		ldrb	r3, [fp, #11]	@ zero_extendqisi2
 2250 19d0 080053E3 		cmp	r3, #8
 2251 19d4 2900001A 		bne	.L466
 2252 19d8 0C3096E5 		ldr	r3, [r6, #12]
 2253 19dc 0040A0E3 		mov	r4, #0
 2254              	.L456:
 2255 19e0 200083E2 		add	r0, r3, #32
 2256 19e4 020C50E3 		cmp	r0, #512
 2257 19e8 0C0086E5 		str	r0, [r6, #12]
 2258 19ec 0B00002A 		bcs	.L582
 2259              	.L469:
 2260 19f0 303083E2 		add	r3, r3, #48
 2261 19f4 03B086E0 		add	fp, r6, r3
 2262 19f8 0310D6E7 		ldrb	r1, [r6, r3]	@ zero_extendqisi2
 2263 19fc 000051E3 		cmp	r1, #0
 2264 1a00 9100000A 		beq	.L478
 2265              	.L453:
 2266 1a04 E50051E3 		cmp	r1, #229
 2267 1a08 AEFFFF1A 		bne	.L583
 2268              	.L489:
 2269 1a0c 0030A0E1 		mov	r3, r0
 2270 1a10 200083E2 		add	r0, r3, #32
 2271 1a14 020C50E3 		cmp	r0, #512
 2272 1a18 0C0086E5 		str	r0, [r6, #12]
 2273 1a1c F3FFFF3A 		bcc	.L469
 2274              	.L582:
 2275 1a20 04309DE5 		ldr	r3, [sp, #4]
 2276 1a24 0970A0E1 		mov	r7, r9
 2277 1a28 088096E5 		ldr	r8, [r6, #8]
 2278 1a2c 583093E5 		ldr	r3, [r3, #88]
 2279              	.L477:
 2280 1a30 018088E2 		add	r8, r8, #1
ARM GAS  C:\Users\ldebo\AppData\Local\Temp\cc9oeUFF.s 			page 41


 2281 1a34 030058E1 		cmp	r8, r3
 2282 1a38 088086E5 		str	r8, [r6, #8]
 2283 1a3c 94FFFF2A 		bcs	.L485
 2284 1a40 04309DE5 		ldr	r3, [sp, #4]
 2285 1a44 4030D3E5 		ldrb	r3, [r3, #64]	@ zero_extendqisi2
 2286 1a48 0CA086E5 		str	r10, [r6, #12]
 2287 1a4c 000053E3 		cmp	r3, #0
 2288 1a50 CE00001A 		bne	.L584
 2289              	.L474:
 2290 1a54 48309DE5 		ldr	r3, [sp, #72]
 2291 1a58 000053E3 		cmp	r3, #0
 2292 1a5c 0320A011 		movne	r2, r3
 2293 1a60 0330A013 		movne	r3, #3
 2294 1a64 00B0A013 		movne	fp, #0
 2295 1a68 00308215 		strne	r3, [r2]
 2296 1a6c 7D00001A 		bne	.L451
 2297              	.L486:
 2298 1a70 00B0A0E3 		mov	fp, #0
 2299 1a74 0B00A0E1 		mov	r0, fp
 2300 1a78 24D08DE2 		add	sp, sp, #36
 2301              		@ sp needed
 2302 1a7c F08FBDE8 		pop	{r4, r5, r6, r7, r8, r9, r10, fp, pc}
 2303              	.L466:
 2304 1a80 0510A0E1 		mov	r1, r5
 2305 1a84 0800A0E1 		mov	r0, r8
 2306 1a88 FEFFFFEB 		bl	WildcardMatch
 2307 1a8c 004050E2 		subs	r4, r0, #0
 2308 1a90 7700001A 		bne	.L467
 2309              	.L577:
 2310 1a94 0C3096E5 		ldr	r3, [r6, #12]
 2311 1a98 D0FFFFEA 		b	.L456
 2312              	.L500:
 2313 1a9c 0070A0E3 		mov	r7, #0
 2314 1aa0 C8FFFFEA 		b	.L465
 2315              	.L459:
 2316 1aa4 FF0064E2 		rsb	r0, r4, #255
 2317 1aa8 0530A0E1 		mov	r3, r5
 2318 1aac 000085E0 		add	r0, r5, r0
 2319 1ab0 04E085E0 		add	lr, r5, r4
 2320 1ab4 00C0A0E3 		mov	ip, #0
 2321              	.L462:
 2322 1ab8 0120D0E4 		ldrb	r2, [r0], #1	@ zero_extendqisi2
 2323 1abc 0120C3E4 		strb	r2, [r3], #1
 2324 1ac0 2E0052E3 		cmp	r2, #46
 2325 1ac4 01C0A003 		moveq	ip, #1
 2326 1ac8 03005EE1 		cmp	lr, r3
 2327 1acc F9FFFF1A 		bne	.L462
 2328 1ad0 09C08CE1 		orr	ip, ip, r9
 2329 1ad4 FF001CE3 		tst	ip, #255
 2330 1ad8 EFFFFF1A 		bne	.L500
 2331 1adc 2E30A0E3 		mov	r3, #46
 2332 1ae0 0470A0E1 		mov	r7, r4
 2333 1ae4 014084E2 		add	r4, r4, #1
 2334 1ae8 0030CEE5 		strb	r3, [lr]
 2335 1aec B5FFFFEA 		b	.L465
 2336              	.L581:
 2337 1af0 0B00A0E1 		mov	r0, fp
ARM GAS  C:\Users\ldebo\AppData\Local\Temp\cc9oeUFF.s 			page 42


 2338 1af4 10108DE2 		add	r1, sp, #16
 2339 1af8 10A08DE5 		str	r10, [sp, #16]
 2340 1afc 14A08DE5 		str	r10, [sp, #20]
 2341 1b00 18A08DE5 		str	r10, [sp, #24]
 2342 1b04 BCA1CDE1 		strh	r10, [sp, #28]	@ movhi
 2343 1b08 88FAFFEB 		bl	ReadLFNEntry
 2344 1b0c 000050E3 		cmp	r0, #0
 2345 1b10 DFFFFF0A 		beq	.L577
 2346 1b14 004084E0 		add	r4, r4, r0
 2347 1b18 010050E3 		cmp	r0, #1
 2348 1b1c FF3064E2 		rsb	r3, r4, #255
 2349 1b20 1010DDE5 		ldrb	r1, [sp, #16]	@ zero_extendqisi2
 2350 1b24 0310C5E7 		strb	r1, [r5, r3]
 2351 1b28 D9FFFF0A 		beq	.L577
 2352 1b2c 013C64E2 		rsb	r3, r4, #256
 2353 1b30 020050E3 		cmp	r0, #2
 2354 1b34 1110DDE5 		ldrb	r1, [sp, #17]	@ zero_extendqisi2
 2355 1b38 0310C5E7 		strb	r1, [r5, r3]
 2356 1b3c D4FFFF0A 		beq	.L577
 2357 1b40 013083E2 		add	r3, r3, #1
 2358 1b44 030050E3 		cmp	r0, #3
 2359 1b48 1210DDE5 		ldrb	r1, [sp, #18]	@ zero_extendqisi2
 2360 1b4c 0310C5E7 		strb	r1, [r5, r3]
 2361 1b50 CFFFFF0A 		beq	.L577
 2362 1b54 013C64E2 		rsb	r3, r4, #256
 2363 1b58 040050E3 		cmp	r0, #4
 2364 1b5c 023083E2 		add	r3, r3, #2
 2365 1b60 1310DDE5 		ldrb	r1, [sp, #19]	@ zero_extendqisi2
 2366 1b64 0310C5E7 		strb	r1, [r5, r3]
 2367 1b68 C9FFFF0A 		beq	.L577
 2368 1b6c 013C64E2 		rsb	r3, r4, #256
 2369 1b70 050050E3 		cmp	r0, #5
 2370 1b74 033083E2 		add	r3, r3, #3
 2371 1b78 1410DDE5 		ldrb	r1, [sp, #20]	@ zero_extendqisi2
 2372 1b7c 0310C5E7 		strb	r1, [r5, r3]
 2373 1b80 C3FFFF0A 		beq	.L577
 2374 1b84 413F64E2 		rsb	r3, r4, #260
 2375 1b88 060050E3 		cmp	r0, #6
 2376 1b8c 1510DDE5 		ldrb	r1, [sp, #21]	@ zero_extendqisi2
 2377 1b90 0310C5E7 		strb	r1, [r5, r3]
 2378 1b94 BEFFFF0A 		beq	.L577
 2379 1b98 013083E2 		add	r3, r3, #1
 2380 1b9c 070050E3 		cmp	r0, #7
 2381 1ba0 1610DDE5 		ldrb	r1, [sp, #22]	@ zero_extendqisi2
 2382 1ba4 0310C5E7 		strb	r1, [r5, r3]
 2383 1ba8 B9FFFF0A 		beq	.L577
 2384 1bac 413F64E2 		rsb	r3, r4, #260
 2385 1bb0 080050E3 		cmp	r0, #8
 2386 1bb4 023083E2 		add	r3, r3, #2
 2387 1bb8 1710DDE5 		ldrb	r1, [sp, #23]	@ zero_extendqisi2
 2388 1bbc 0310C5E7 		strb	r1, [r5, r3]
 2389 1bc0 B3FFFF0A 		beq	.L577
 2390 1bc4 413F64E2 		rsb	r3, r4, #260
 2391 1bc8 090050E3 		cmp	r0, #9
 2392 1bcc 033083E2 		add	r3, r3, #3
 2393 1bd0 1810DDE5 		ldrb	r1, [sp, #24]	@ zero_extendqisi2
 2394 1bd4 0310C5E7 		strb	r1, [r5, r3]
ARM GAS  C:\Users\ldebo\AppData\Local\Temp\cc9oeUFF.s 			page 43


 2395 1bd8 ADFFFF0A 		beq	.L577
 2396 1bdc 423F64E2 		rsb	r3, r4, #264
 2397 1be0 0A0050E3 		cmp	r0, #10
 2398 1be4 1910DDE5 		ldrb	r1, [sp, #25]	@ zero_extendqisi2
 2399 1be8 0310C5E7 		strb	r1, [r5, r3]
 2400 1bec A8FFFF0A 		beq	.L577
 2401 1bf0 013083E2 		add	r3, r3, #1
 2402 1bf4 0B0050E3 		cmp	r0, #11
 2403 1bf8 1A10DDE5 		ldrb	r1, [sp, #26]	@ zero_extendqisi2
 2404 1bfc 0310C5E7 		strb	r1, [r5, r3]
 2405 1c00 A3FFFF0A 		beq	.L577
 2406 1c04 423F64E2 		rsb	r3, r4, #264
 2407 1c08 0C0050E3 		cmp	r0, #12
 2408 1c0c 023083E2 		add	r3, r3, #2
 2409 1c10 1B10DDE5 		ldrb	r1, [sp, #27]	@ zero_extendqisi2
 2410 1c14 0310C5E7 		strb	r1, [r5, r3]
 2411 1c18 9DFFFF0A 		beq	.L577
 2412 1c1c 423F64E2 		rsb	r3, r4, #264
 2413 1c20 0D0050E3 		cmp	r0, #13
 2414 1c24 033083E2 		add	r3, r3, #3
 2415 1c28 1C10DDE5 		ldrb	r1, [sp, #28]	@ zero_extendqisi2
 2416 1c2c 0310C5E7 		strb	r1, [r5, r3]
 2417 1c30 433F6412 		rsbne	r3, r4, #268
 2418 1c34 1D10DD15 		ldrbne	r1, [sp, #29]	@ zero_extendqisi2
 2419 1c38 0310C517 		strbne	r1, [r5, r3]
 2420 1c3c 94FFFFEA 		b	.L577
 2421              	.L501:
 2422 1c40 0470A0E1 		mov	r7, r4
 2423 1c44 0340A0E1 		mov	r4, r3
 2424 1c48 5EFFFFEA 		b	.L465
 2425              	.L478:
 2426 1c4c 48309DE5 		ldr	r3, [sp, #72]
 2427 1c50 000053E3 		cmp	r3, #0
 2428 1c54 85FFFF0A 		beq	.L486
 2429 1c58 0320A0E1 		mov	r2, r3
 2430 1c5c 00B0A0E3 		mov	fp, #0
 2431 1c60 0130A0E3 		mov	r3, #1
 2432 1c64 003082E5 		str	r3, [r2]
 2433              	.L451:
 2434 1c68 0B00A0E1 		mov	r0, fp
 2435 1c6c 24D08DE2 		add	sp, sp, #36
 2436              		@ sp needed
 2437 1c70 F08FBDE8 		pop	{r4, r5, r6, r7, r8, r9, r10, fp, pc}
 2438              	.L467:
 2439 1c74 000057E3 		cmp	r7, #0
 2440 1c78 0030A013 		movne	r3, #0
 2441 1c7c 0730C517 		strbne	r3, [r5, r7]
 2442 1c80 48309DE5 		ldr	r3, [sp, #72]
 2443 1c84 000053E3 		cmp	r3, #0
 2444 1c88 0C3096E5 		ldr	r3, [r6, #12]
 2445 1c8c 203083E2 		add	r3, r3, #32
 2446 1c90 0C3086E5 		str	r3, [r6, #12]
 2447 1c94 F3FFFF0A 		beq	.L451
 2448 1c98 48209DE5 		ldr	r2, [sp, #72]
 2449 1c9c 0030A0E3 		mov	r3, #0
 2450 1ca0 0B00A0E1 		mov	r0, fp
 2451 1ca4 003082E5 		str	r3, [r2]
ARM GAS  C:\Users\ldebo\AppData\Local\Temp\cc9oeUFF.s 			page 44


 2452 1ca8 24D08DE2 		add	sp, sp, #36
 2453              		@ sp needed
 2454 1cac F08FBDE8 		pop	{r4, r5, r6, r7, r8, r9, r10, fp, pc}
 2455              	.L490:
 2456 1cb0 04C0A0E3 		mov	ip, #4
 2457 1cb4 0210A0E3 		mov	r1, #2
 2458 1cb8 0130A0E3 		mov	r3, #1
 2459 1cbc 0300A0E3 		mov	r0, #3
 2460 1cc0 2BFFFFEA 		b	.L460
 2461              	.L491:
 2462 1cc4 05C0A0E3 		mov	ip, #5
 2463 1cc8 0310A0E3 		mov	r1, #3
 2464 1ccc 0230A0E3 		mov	r3, #2
 2465 1cd0 0400A0E3 		mov	r0, #4
 2466 1cd4 0140A0E3 		mov	r4, #1
 2467 1cd8 25FFFFEA 		b	.L460
 2468              	.L492:
 2469 1cdc 06C0A0E3 		mov	ip, #6
 2470 1ce0 0410A0E3 		mov	r1, #4
 2471 1ce4 0330A0E3 		mov	r3, #3
 2472 1ce8 0500A0E3 		mov	r0, #5
 2473 1cec 0240A0E3 		mov	r4, #2
 2474 1cf0 1FFFFFEA 		b	.L460
 2475              	.L493:
 2476 1cf4 07C0A0E3 		mov	ip, #7
 2477 1cf8 0510A0E3 		mov	r1, #5
 2478 1cfc 0430A0E3 		mov	r3, #4
 2479 1d00 0600A0E3 		mov	r0, #6
 2480 1d04 0340A0E3 		mov	r4, #3
 2481 1d08 19FFFFEA 		b	.L460
 2482              	.L494:
 2483 1d0c 08C0A0E3 		mov	ip, #8
 2484 1d10 0610A0E3 		mov	r1, #6
 2485 1d14 0530A0E3 		mov	r3, #5
 2486 1d18 0700A0E3 		mov	r0, #7
 2487 1d1c 0440A0E3 		mov	r4, #4
 2488 1d20 13FFFFEA 		b	.L460
 2489              	.L495:
 2490 1d24 09C0A0E3 		mov	ip, #9
 2491 1d28 0710A0E3 		mov	r1, #7
 2492 1d2c 0630A0E3 		mov	r3, #6
 2493 1d30 0800A0E3 		mov	r0, #8
 2494 1d34 0540A0E3 		mov	r4, #5
 2495 1d38 0DFFFFEA 		b	.L460
 2496              	.L496:
 2497 1d3c 0AC0A0E3 		mov	ip, #10
 2498 1d40 0810A0E3 		mov	r1, #8
 2499 1d44 0730A0E3 		mov	r3, #7
 2500 1d48 0900A0E3 		mov	r0, #9
 2501 1d4c 0640A0E3 		mov	r4, #6
 2502 1d50 07FFFFEA 		b	.L460
 2503              	.L497:
 2504 1d54 0BC0A0E3 		mov	ip, #11
 2505 1d58 0910A0E3 		mov	r1, #9
 2506 1d5c 0830A0E3 		mov	r3, #8
 2507 1d60 0A00A0E3 		mov	r0, #10
 2508 1d64 0740A0E3 		mov	r4, #7
ARM GAS  C:\Users\ldebo\AppData\Local\Temp\cc9oeUFF.s 			page 45


 2509 1d68 01FFFFEA 		b	.L460
 2510              	.L502:
 2511 1d6c 0340A0E1 		mov	r4, r3
 2512 1d70 0970A0E1 		mov	r7, r9
 2513 1d74 13FFFFEA 		b	.L465
 2514              	.L503:
 2515 1d78 0140A0E1 		mov	r4, r1
 2516 1d7c 0970A0E1 		mov	r7, r9
 2517 1d80 10FFFFEA 		b	.L465
 2518              	.L504:
 2519 1d84 0040A0E1 		mov	r4, r0
 2520 1d88 0970A0E1 		mov	r7, r9
 2521 1d8c 0DFFFFEA 		b	.L465
 2522              	.L584:
 2523 1d90 04B096E5 		ldr	fp, [r6, #4]
 2524 1d94 99F8FFEB 		bl	sdWaitForData
 2525 1d98 000050E3 		cmp	r0, #0
 2526 1d9c 2CFFFF1A 		bne	.L474
 2527 1da0 04309DE5 		ldr	r3, [sp, #4]
 2528 1da4 0B1088E0 		add	r1, r8, fp
 2529 1da8 02ECA0E3 		mov	lr, #512
 2530 1dac 90019FE5 		ldr	r0, .L585
 2531 1db0 4030D3E5 		ldrb	r3, [r3, #64]	@ zero_extendqisi2
 2532 1db4 030053E3 		cmp	r3, #3
 2533 1db8 0C309DE5 		ldr	r3, [sp, #12]
 2534 1dbc 8114A001 		lsleq	r1, r1, #9
 2535 1dc0 003093E5 		ldr	r3, [r3]
 2536 1dc4 033683E2 		add	r3, r3, #3145728
 2537 1dc8 04C093E5 		ldr	ip, [r3, #4]
 2538 1dcc 01C040E3 		movt	ip, 1
 2539 1dd0 04C083E5 		str	ip, [r3, #4]
 2540 1dd4 04C093E5 		ldr	ip, [r3, #4]
 2541 1dd8 1EC0C9E7 		bfi	ip, lr, #0, #10
 2542 1ddc 04C083E5 		str	ip, [r3, #4]
 2543 1de0 68FAFFEB 		bl	sdSendCommandP
 2544 1de4 FF0010E3 		tst	r0, #255
 2545 1de8 19FFFF1A 		bne	.L474
 2546 1dec 2000A0E3 		mov	r0, #32
 2547 1df0 C2F8FFEB 		bl	sdWaitForInterrupt
 2548 1df4 000050E3 		cmp	r0, #0
 2549 1df8 4900001A 		bne	.L580
 2550 1dfc 0C909DE5 		ldr	r9, [sp, #12]
 2551 1e00 0C1086E2 		add	r1, r6, #12
 2552 1e04 830F86E2 		add	r0, r6, #524
 2553              	.L475:
 2554 1e08 003099E5 		ldr	r3, [r9]
 2555 1e0c 033683E2 		add	r3, r3, #3145728
 2556 1e10 203093E5 		ldr	r3, [r3, #32]
 2557 1e14 0430A1E5 		str	r3, [r1, #4]!
 2558 1e18 000051E1 		cmp	r1, r0
 2559 1e1c F9FFFF1A 		bne	.L475
 2560 1e20 04309DE5 		ldr	r3, [sp, #4]
 2561 1e24 088096E5 		ldr	r8, [r6, #8]
 2562 1e28 583093E5 		ldr	r3, [r3, #88]
 2563 1e2c 98FEFFEA 		b	.L485
 2564              	.L476:
 2565 1e30 0020A0E3 		mov	r2, #0
ARM GAS  C:\Users\ldebo\AppData\Local\Temp\cc9oeUFF.s 			page 46


 2566 1e34 000096E5 		ldr	r0, [r6]
 2567 1e38 0210A0E1 		mov	r1, r2
 2568 1e3c 0690A0E1 		mov	r9, r6
 2569 1e40 FEFFFFEB 		bl	getSetNextCluster
 2570 1e44 04309DE5 		ldr	r3, [sp, #4]
 2571 1e48 028040E2 		sub	r8, r0, #2
 2572 1e4c 581093E5 		ldr	r1, [r3, #88]
 2573 1e50 40C0D3E5 		ldrb	ip, [r3, #64]	@ zero_extendqisi2
 2574 1e54 602093E5 		ldr	r2, [r3, #96]
 2575 1e58 00005CE3 		cmp	ip, #0
 2576 1e5c 000086E5 		str	r0, [r6]
 2577 1e60 912828E0 		mla	r8, r1, r8, r2
 2578 1e64 08A086E5 		str	r10, [r6, #8]
 2579 1e68 0CA086E5 		str	r10, [r6, #12]
 2580 1e6c 048086E5 		str	r8, [r6, #4]
 2581 1e70 F7FEFF0A 		beq	.L474
 2582 1e74 61F8FFEB 		bl	sdWaitForData
 2583 1e78 000050E3 		cmp	r0, #0
 2584 1e7c F4FEFF1A 		bne	.L474
 2585 1e80 04309DE5 		ldr	r3, [sp, #4]
 2586 1e84 02CCA0E3 		mov	ip, #512
 2587 1e88 B4009FE5 		ldr	r0, .L585
 2588 1e8c 4020D3E5 		ldrb	r2, [r3, #64]	@ zero_extendqisi2
 2589 1e90 0C309DE5 		ldr	r3, [sp, #12]
 2590 1e94 030052E3 		cmp	r2, #3
 2591 1e98 8884A001 		lsleq	r8, r8, #9
 2592 1e9c 002093E5 		ldr	r2, [r3]
 2593 1ea0 0810A0E1 		mov	r1, r8
 2594 1ea4 032682E2 		add	r2, r2, #3145728
 2595 1ea8 04E092E5 		ldr	lr, [r2, #4]
 2596 1eac 01E040E3 		movt	lr, 1
 2597 1eb0 04E082E5 		str	lr, [r2, #4]
 2598 1eb4 04E092E5 		ldr	lr, [r2, #4]
 2599 1eb8 1CE0C9E7 		bfi	lr, ip, #0, #10
 2600 1ebc 04E082E5 		str	lr, [r2, #4]
 2601 1ec0 30FAFFEB 		bl	sdSendCommandP
 2602 1ec4 FF0010E3 		tst	r0, #255
 2603 1ec8 E1FEFF1A 		bne	.L474
 2604 1ecc 2000A0E3 		mov	r0, #32
 2605 1ed0 8AF8FFEB 		bl	sdWaitForInterrupt
 2606 1ed4 000050E3 		cmp	r0, #0
 2607 1ed8 1100001A 		bne	.L580
 2608 1edc 0C1086E2 		add	r1, r6, #12
 2609 1ee0 830F86E2 		add	r0, r6, #524
 2610 1ee4 0C609DE5 		ldr	r6, [sp, #12]
 2611              	.L483:
 2612 1ee8 003096E5 		ldr	r3, [r6]
 2613 1eec 033683E2 		add	r3, r3, #3145728
 2614 1ef0 203093E5 		ldr	r3, [r3, #32]
 2615 1ef4 0430A1E5 		str	r3, [r1, #4]!
 2616 1ef8 010050E1 		cmp	r0, r1
 2617 1efc F9FFFF1A 		bne	.L483
 2618 1f00 5AFEFFEA 		b	.L452
 2619              	.L484:
 2620 1f04 48309DE5 		ldr	r3, [sp, #72]
 2621 1f08 000053E3 		cmp	r3, #0
 2622 1f0c D7FEFF0A 		beq	.L486
ARM GAS  C:\Users\ldebo\AppData\Local\Temp\cc9oeUFF.s 			page 47


 2623 1f10 0320A0E1 		mov	r2, r3
 2624 1f14 0230A0E3 		mov	r3, #2
 2625 1f18 00B0A0E3 		mov	fp, #0
 2626 1f1c 003082E5 		str	r3, [r2]
 2627 1f20 50FFFFEA 		b	.L451
 2628              	.L580:
 2629 1f24 04309DE5 		ldr	r3, [sp, #4]
 2630 1f28 003093E5 		ldr	r3, [r3]
 2631 1f2c 000053E3 		cmp	r3, #0
 2632 1f30 C7FEFF0A 		beq	.L474
 2633 1f34 000000E3 		movw	r0, #:lower16:.LC8
 2634 1f38 000040E3 		movt	r0, #:upper16:.LC8
 2635 1f3c 33FF2FE1 		blx	r3
 2636 1f40 C3FEFFEA 		b	.L474
 2637              	.L586:
 2638              		.align	2
 2639              	.L585:
 2640 1f44 50010000 		.word	.LANCHOR1+336
 2641              		.size	LocateFATEntry, .-LocateFATEntry
 2642              		.align	2
 2643              		.syntax unified
 2644              		.arm
 2645              		.fpu neon-vfpv4
 2646              		.type	LocateFATEntry.constprop.6, %function
 2647              	LocateFATEntry.constprop.6:
 2648              		@ args = 0, pretend = 0, frame = 24
 2649              		@ frame_needed = 0, uses_anonymous_args = 0
 2650 1f48 F04F2DE9 		push	{r4, r5, r6, r7, r8, r9, r10, fp, lr}
 2651 1f4c 0040A0E3 		mov	r4, #0
 2652 1f50 009000E3 		movw	r9, #:lower16:.LANCHOR0
 2653 1f54 009040E3 		movt	r9, #:upper16:.LANCHOR0
 2654 1f58 1CD04DE2 		sub	sp, sp, #28
 2655 1f5c 007000E3 		movw	r7, #:lower16:RPi_IO_Base_Addr
 2656 1f60 007040E3 		movt	r7, #:upper16:RPi_IO_Base_Addr
 2657 1f64 0080A0E1 		mov	r8, r0
 2658 1f68 0150A0E1 		mov	r5, r1
 2659 1f6c 0260A0E1 		mov	r6, r2
 2660 1f70 04B0A0E1 		mov	fp, r4
 2661 1f74 00308DE5 		str	r3, [sp]
 2662              	.L588:
 2663 1f78 003095E5 		ldr	r3, [r5]
 2664 1f7c 013043E2 		sub	r3, r3, #1
 2665 1f80 CF0273E3 		cmn	r3, #-268435444
 2666 1f84 3A01008A 		bhi	.L616
 2667              	.L699:
 2668 1f88 08A095E5 		ldr	r10, [r5, #8]
 2669 1f8c 582099E5 		ldr	r2, [r9, #88]
 2670              	.L617:
 2671 1f90 0A0052E1 		cmp	r2, r10
 2672 1f94 0601009A 		bls	.L608
 2673 1f98 0C1095E5 		ldr	r1, [r5, #12]
 2674 1f9c 020C51E3 		cmp	r1, #512
 2675 1fa0 4400002A 		bcs	.L609
 2676 1fa4 103081E2 		add	r3, r1, #16
 2677 1fa8 03A085E0 		add	r10, r5, r3
 2678 1fac 0330D5E7 		ldrb	r3, [r5, r3]	@ zero_extendqisi2
 2679 1fb0 000053E3 		cmp	r3, #0
ARM GAS  C:\Users\ldebo\AppData\Local\Temp\cc9oeUFF.s 			page 48


 2680 1fb4 3600001A 		bne	.L589
 2681 1fb8 B60000EA 		b	.L610
 2682              	.L705:
 2683 1fbc 0B00DAE5 		ldrb	r0, [r10, #11]	@ zero_extendqisi2
 2684 1fc0 080050E3 		cmp	r0, #8
 2685 1fc4 3400000A 		beq	.L621
 2686 1fc8 0F0050E3 		cmp	r0, #15
 2687 1fcc 5D00000A 		beq	.L703
 2688 1fd0 000054E3 		cmp	r4, #0
 2689 1fd4 5100001A 		bne	.L595
 2690 1fd8 200053E3 		cmp	r3, #32
 2691 1fdc 1D00000A 		beq	.L596
 2692 1fe0 0030C6E5 		strb	r3, [r6]
 2693 1fe4 0130DAE5 		ldrb	r3, [r10, #1]	@ zero_extendqisi2
 2694 1fe8 DF0013E3 		tst	r3, #223
 2695 1fec BE00000A 		beq	.L623
 2696 1ff0 0130C6E5 		strb	r3, [r6, #1]
 2697 1ff4 0230DAE5 		ldrb	r3, [r10, #2]	@ zero_extendqisi2
 2698 1ff8 DF0013E3 		tst	r3, #223
 2699 1ffc BC00000A 		beq	.L624
 2700 2000 0230C6E5 		strb	r3, [r6, #2]
 2701 2004 0330DAE5 		ldrb	r3, [r10, #3]	@ zero_extendqisi2
 2702 2008 DF0013E3 		tst	r3, #223
 2703 200c BA00000A 		beq	.L625
 2704 2010 0330C6E5 		strb	r3, [r6, #3]
 2705 2014 0430DAE5 		ldrb	r3, [r10, #4]	@ zero_extendqisi2
 2706 2018 DF0013E3 		tst	r3, #223
 2707 201c B800000A 		beq	.L626
 2708 2020 0430C6E5 		strb	r3, [r6, #4]
 2709 2024 0530DAE5 		ldrb	r3, [r10, #5]	@ zero_extendqisi2
 2710 2028 DF0013E3 		tst	r3, #223
 2711 202c B600000A 		beq	.L627
 2712 2030 0530C6E5 		strb	r3, [r6, #5]
 2713 2034 0630DAE5 		ldrb	r3, [r10, #6]	@ zero_extendqisi2
 2714 2038 DF0013E3 		tst	r3, #223
 2715 203c B400000A 		beq	.L628
 2716 2040 0630C6E5 		strb	r3, [r6, #6]
 2717 2044 0730DAE5 		ldrb	r3, [r10, #7]	@ zero_extendqisi2
 2718 2048 DF0013E3 		tst	r3, #223
 2719 204c B200000A 		beq	.L629
 2720 2050 0840A0E3 		mov	r4, #8
 2721 2054 0730C6E5 		strb	r3, [r6, #7]
 2722              	.L596:
 2723 2058 04B0C6E7 		strb	fp, [r6, r4]
 2724              	.L598:
 2725 205c 0B30DAE5 		ldrb	r3, [r10, #11]	@ zero_extendqisi2
 2726 2060 080053E3 		cmp	r3, #8
 2727 2064 2600001A 		bne	.L599
 2728 2068 0C3095E5 		ldr	r3, [r5, #12]
 2729 206c 0040A0E3 		mov	r4, #0
 2730              	.L592:
 2731 2070 201083E2 		add	r1, r3, #32
 2732 2074 020C51E3 		cmp	r1, #512
 2733 2078 0C1085E5 		str	r1, [r5, #12]
 2734 207c 0B00002A 		bcs	.L704
 2735              	.L601:
 2736 2080 303083E2 		add	r3, r3, #48
ARM GAS  C:\Users\ldebo\AppData\Local\Temp\cc9oeUFF.s 			page 49


 2737 2084 03A085E0 		add	r10, r5, r3
 2738 2088 0330D5E7 		ldrb	r3, [r5, r3]	@ zero_extendqisi2
 2739 208c 000053E3 		cmp	r3, #0
 2740 2090 8000000A 		beq	.L610
 2741              	.L589:
 2742 2094 E50053E3 		cmp	r3, #229
 2743 2098 C7FFFF1A 		bne	.L705
 2744              	.L621:
 2745 209c 0130A0E1 		mov	r3, r1
 2746 20a0 201083E2 		add	r1, r3, #32
 2747 20a4 020C51E3 		cmp	r1, #512
 2748 20a8 0C1085E5 		str	r1, [r5, #12]
 2749 20ac F3FFFF3A 		bcc	.L601
 2750              	.L704:
 2751 20b0 08A095E5 		ldr	r10, [r5, #8]
 2752 20b4 582099E5 		ldr	r2, [r9, #88]
 2753              	.L609:
 2754 20b8 01A08AE2 		add	r10, r10, #1
 2755 20bc 02005AE1 		cmp	r10, r2
 2756 20c0 08A085E5 		str	r10, [r5, #8]
 2757 20c4 B1FFFF2A 		bcs	.L617
 2758 20c8 4020D9E5 		ldrb	r2, [r9, #64]	@ zero_extendqisi2
 2759 20cc 0CB085E5 		str	fp, [r5, #12]
 2760 20d0 000052E3 		cmp	r2, #0
 2761 20d4 9200001A 		bne	.L706
 2762              	.L606:
 2763 20d8 00309DE5 		ldr	r3, [sp]
 2764 20dc 000053E3 		cmp	r3, #0
 2765 20e0 0320A011 		movne	r2, r3
 2766 20e4 0330A013 		movne	r3, #3
 2767 20e8 00A0A013 		movne	r10, #0
 2768 20ec 00308215 		strne	r3, [r2]
 2769 20f0 6F00001A 		bne	.L587
 2770              	.L618:
 2771 20f4 00A0A0E3 		mov	r10, #0
 2772 20f8 0A00A0E1 		mov	r0, r10
 2773 20fc 1CD08DE2 		add	sp, sp, #28
 2774              		@ sp needed
 2775 2100 F08FBDE8 		pop	{r4, r5, r6, r7, r8, r9, r10, fp, pc}
 2776              	.L599:
 2777 2104 0610A0E1 		mov	r1, r6
 2778 2108 0800A0E1 		mov	r0, r8
 2779 210c FEFFFFEB 		bl	WildcardMatch
 2780 2110 004050E2 		subs	r4, r0, #0
 2781 2114 6900001A 		bne	.L600
 2782              	.L698:
 2783 2118 0C3095E5 		ldr	r3, [r5, #12]
 2784 211c D3FFFFEA 		b	.L592
 2785              	.L595:
 2786 2120 FF1064E2 		rsb	r1, r4, #255
 2787 2124 0630A0E1 		mov	r3, r6
 2788 2128 044086E0 		add	r4, r6, r4
 2789 212c 011086E0 		add	r1, r6, r1
 2790              	.L597:
 2791 2130 01C0D1E4 		ldrb	ip, [r1], #1	@ zero_extendqisi2
 2792 2134 01C0C3E4 		strb	ip, [r3], #1
 2793 2138 030054E1 		cmp	r4, r3
ARM GAS  C:\Users\ldebo\AppData\Local\Temp\cc9oeUFF.s 			page 50


 2794 213c FBFFFF1A 		bne	.L597
 2795 2140 00B0C4E5 		strb	fp, [r4]
 2796 2144 C4FFFFEA 		b	.L598
 2797              	.L703:
 2798 2148 0A00A0E1 		mov	r0, r10
 2799 214c 08108DE2 		add	r1, sp, #8
 2800 2150 08B08DE5 		str	fp, [sp, #8]
 2801 2154 0CB08DE5 		str	fp, [sp, #12]
 2802 2158 10B08DE5 		str	fp, [sp, #16]
 2803 215c B4B1CDE1 		strh	fp, [sp, #20]	@ movhi
 2804 2160 F2F8FFEB 		bl	ReadLFNEntry
 2805 2164 000050E3 		cmp	r0, #0
 2806 2168 EAFFFF0A 		beq	.L698
 2807 216c 004084E0 		add	r4, r4, r0
 2808 2170 010050E3 		cmp	r0, #1
 2809 2174 FF3064E2 		rsb	r3, r4, #255
 2810 2178 0820DDE5 		ldrb	r2, [sp, #8]	@ zero_extendqisi2
 2811 217c 0320C6E7 		strb	r2, [r6, r3]
 2812 2180 E4FFFF0A 		beq	.L698
 2813 2184 013C64E2 		rsb	r3, r4, #256
 2814 2188 020050E3 		cmp	r0, #2
 2815 218c 0920DDE5 		ldrb	r2, [sp, #9]	@ zero_extendqisi2
 2816 2190 0320C6E7 		strb	r2, [r6, r3]
 2817 2194 DFFFFF0A 		beq	.L698
 2818 2198 013083E2 		add	r3, r3, #1
 2819 219c 030050E3 		cmp	r0, #3
 2820 21a0 0A20DDE5 		ldrb	r2, [sp, #10]	@ zero_extendqisi2
 2821 21a4 0320C6E7 		strb	r2, [r6, r3]
 2822 21a8 DAFFFF0A 		beq	.L698
 2823 21ac 013C64E2 		rsb	r3, r4, #256
 2824 21b0 040050E3 		cmp	r0, #4
 2825 21b4 023083E2 		add	r3, r3, #2
 2826 21b8 0B20DDE5 		ldrb	r2, [sp, #11]	@ zero_extendqisi2
 2827 21bc 0320C6E7 		strb	r2, [r6, r3]
 2828 21c0 D4FFFF0A 		beq	.L698
 2829 21c4 013C64E2 		rsb	r3, r4, #256
 2830 21c8 050050E3 		cmp	r0, #5
 2831 21cc 033083E2 		add	r3, r3, #3
 2832 21d0 0C20DDE5 		ldrb	r2, [sp, #12]	@ zero_extendqisi2
 2833 21d4 0320C6E7 		strb	r2, [r6, r3]
 2834 21d8 CEFFFF0A 		beq	.L698
 2835 21dc 413F64E2 		rsb	r3, r4, #260
 2836 21e0 060050E3 		cmp	r0, #6
 2837 21e4 0D20DDE5 		ldrb	r2, [sp, #13]	@ zero_extendqisi2
 2838 21e8 0320C6E7 		strb	r2, [r6, r3]
 2839 21ec C9FFFF0A 		beq	.L698
 2840 21f0 013083E2 		add	r3, r3, #1
 2841 21f4 070050E3 		cmp	r0, #7
 2842 21f8 0E20DDE5 		ldrb	r2, [sp, #14]	@ zero_extendqisi2
 2843 21fc 0320C6E7 		strb	r2, [r6, r3]
 2844 2200 C4FFFF0A 		beq	.L698
 2845 2204 413F64E2 		rsb	r3, r4, #260
 2846 2208 080050E3 		cmp	r0, #8
 2847 220c 023083E2 		add	r3, r3, #2
 2848 2210 0F20DDE5 		ldrb	r2, [sp, #15]	@ zero_extendqisi2
 2849 2214 0320C6E7 		strb	r2, [r6, r3]
 2850 2218 BEFFFF0A 		beq	.L698
ARM GAS  C:\Users\ldebo\AppData\Local\Temp\cc9oeUFF.s 			page 51


 2851 221c 413F64E2 		rsb	r3, r4, #260
 2852 2220 090050E3 		cmp	r0, #9
 2853 2224 033083E2 		add	r3, r3, #3
 2854 2228 1020DDE5 		ldrb	r2, [sp, #16]	@ zero_extendqisi2
 2855 222c 0320C6E7 		strb	r2, [r6, r3]
 2856 2230 B8FFFF0A 		beq	.L698
 2857 2234 423F64E2 		rsb	r3, r4, #264
 2858 2238 0A0050E3 		cmp	r0, #10
 2859 223c 1120DDE5 		ldrb	r2, [sp, #17]	@ zero_extendqisi2
 2860 2240 0320C6E7 		strb	r2, [r6, r3]
 2861 2244 B3FFFF0A 		beq	.L698
 2862 2248 013083E2 		add	r3, r3, #1
 2863 224c 0B0050E3 		cmp	r0, #11
 2864 2250 1220DDE5 		ldrb	r2, [sp, #18]	@ zero_extendqisi2
 2865 2254 0320C6E7 		strb	r2, [r6, r3]
 2866 2258 AEFFFF0A 		beq	.L698
 2867 225c 423F64E2 		rsb	r3, r4, #264
 2868 2260 0C0050E3 		cmp	r0, #12
 2869 2264 023083E2 		add	r3, r3, #2
 2870 2268 1320DDE5 		ldrb	r2, [sp, #19]	@ zero_extendqisi2
 2871 226c 0320C6E7 		strb	r2, [r6, r3]
 2872 2270 A8FFFF0A 		beq	.L698
 2873 2274 423F64E2 		rsb	r3, r4, #264
 2874 2278 0D0050E3 		cmp	r0, #13
 2875 227c 033083E2 		add	r3, r3, #3
 2876 2280 1420DDE5 		ldrb	r2, [sp, #20]	@ zero_extendqisi2
 2877 2284 0320C6E7 		strb	r2, [r6, r3]
 2878 2288 433F6412 		rsbne	r3, r4, #268
 2879 228c 1520DD15 		ldrbne	r2, [sp, #21]	@ zero_extendqisi2
 2880 2290 0320C617 		strbne	r2, [r6, r3]
 2881 2294 9FFFFFEA 		b	.L698
 2882              	.L610:
 2883 2298 00309DE5 		ldr	r3, [sp]
 2884 229c 000053E3 		cmp	r3, #0
 2885 22a0 93FFFF0A 		beq	.L618
 2886 22a4 0320A0E1 		mov	r2, r3
 2887 22a8 00A0A0E3 		mov	r10, #0
 2888 22ac 0130A0E3 		mov	r3, #1
 2889 22b0 003082E5 		str	r3, [r2]
 2890              	.L587:
 2891 22b4 0A00A0E1 		mov	r0, r10
 2892 22b8 1CD08DE2 		add	sp, sp, #28
 2893              		@ sp needed
 2894 22bc F08FBDE8 		pop	{r4, r5, r6, r7, r8, r9, r10, fp, pc}
 2895              	.L600:
 2896 22c0 00209DE5 		ldr	r2, [sp]
 2897 22c4 0C3095E5 		ldr	r3, [r5, #12]
 2898 22c8 000052E3 		cmp	r2, #0
 2899 22cc 203083E2 		add	r3, r3, #32
 2900 22d0 0C3085E5 		str	r3, [r5, #12]
 2901 22d4 F6FFFF0A 		beq	.L587
 2902 22d8 0030A0E3 		mov	r3, #0
 2903 22dc 0A00A0E1 		mov	r0, r10
 2904 22e0 003082E5 		str	r3, [r2]
 2905 22e4 1CD08DE2 		add	sp, sp, #28
 2906              		@ sp needed
 2907 22e8 F08FBDE8 		pop	{r4, r5, r6, r7, r8, r9, r10, fp, pc}
ARM GAS  C:\Users\ldebo\AppData\Local\Temp\cc9oeUFF.s 			page 52


 2908              	.L623:
 2909 22ec 0140A0E3 		mov	r4, #1
 2910 22f0 58FFFFEA 		b	.L596
 2911              	.L624:
 2912 22f4 0240A0E3 		mov	r4, #2
 2913 22f8 56FFFFEA 		b	.L596
 2914              	.L625:
 2915 22fc 0340A0E3 		mov	r4, #3
 2916 2300 54FFFFEA 		b	.L596
 2917              	.L626:
 2918 2304 0440A0E3 		mov	r4, #4
 2919 2308 52FFFFEA 		b	.L596
 2920              	.L627:
 2921 230c 0540A0E3 		mov	r4, #5
 2922 2310 50FFFFEA 		b	.L596
 2923              	.L628:
 2924 2314 0640A0E3 		mov	r4, #6
 2925 2318 4EFFFFEA 		b	.L596
 2926              	.L629:
 2927 231c 0740A0E3 		mov	r4, #7
 2928 2320 4CFFFFEA 		b	.L596
 2929              	.L706:
 2930 2324 041095E5 		ldr	r1, [r5, #4]
 2931 2328 04108DE5 		str	r1, [sp, #4]
 2932 232c 33F7FFEB 		bl	sdWaitForData
 2933 2330 000050E3 		cmp	r0, #0
 2934 2334 04109DE5 		ldr	r1, [sp, #4]
 2935 2338 66FFFF1A 		bne	.L606
 2936 233c 003097E5 		ldr	r3, [r7]
 2937 2340 01108AE0 		add	r1, r10, r1
 2938 2344 4020D9E5 		ldrb	r2, [r9, #64]	@ zero_extendqisi2
 2939 2348 033683E2 		add	r3, r3, #3145728
 2940 234c 58019FE5 		ldr	r0, .L707
 2941 2350 030052E3 		cmp	r2, #3
 2942 2354 022CA0E3 		mov	r2, #512
 2943 2358 04C093E5 		ldr	ip, [r3, #4]
 2944 235c 8114A001 		lsleq	r1, r1, #9
 2945 2360 01C040E3 		movt	ip, 1
 2946 2364 04C083E5 		str	ip, [r3, #4]
 2947 2368 04C093E5 		ldr	ip, [r3, #4]
 2948 236c 12C0C9E7 		bfi	ip, r2, #0, #10
 2949 2370 04C083E5 		str	ip, [r3, #4]
 2950 2374 03F9FFEB 		bl	sdSendCommandP
 2951 2378 FF0010E3 		tst	r0, #255
 2952 237c 55FFFF1A 		bne	.L606
 2953 2380 2000A0E3 		mov	r0, #32
 2954 2384 5DF7FFEB 		bl	sdWaitForInterrupt
 2955 2388 000050E3 		cmp	r0, #0
 2956 238c 3F00001A 		bne	.L702
 2957 2390 0C2085E2 		add	r2, r5, #12
 2958 2394 831F85E2 		add	r1, r5, #524
 2959              	.L607:
 2960 2398 003097E5 		ldr	r3, [r7]
 2961 239c 033683E2 		add	r3, r3, #3145728
 2962 23a0 203093E5 		ldr	r3, [r3, #32]
 2963 23a4 0430A2E5 		str	r3, [r2, #4]!
 2964 23a8 010052E1 		cmp	r2, r1
ARM GAS  C:\Users\ldebo\AppData\Local\Temp\cc9oeUFF.s 			page 53


 2965 23ac F9FFFF1A 		bne	.L607
 2966 23b0 F4FEFFEA 		b	.L699
 2967              	.L608:
 2968 23b4 0020A0E3 		mov	r2, #0
 2969 23b8 000095E5 		ldr	r0, [r5]
 2970 23bc 0210A0E1 		mov	r1, r2
 2971 23c0 FEFFFFEB 		bl	getSetNextCluster
 2972 23c4 582099E5 		ldr	r2, [r9, #88]
 2973 23c8 40C0D9E5 		ldrb	ip, [r9, #64]	@ zero_extendqisi2
 2974 23cc 021040E2 		sub	r1, r0, #2
 2975 23d0 603099E5 		ldr	r3, [r9, #96]
 2976 23d4 00005CE3 		cmp	ip, #0
 2977 23d8 000085E5 		str	r0, [r5]
 2978 23dc 92312AE0 		mla	r10, r2, r1, r3
 2979 23e0 08B085E5 		str	fp, [r5, #8]
 2980 23e4 0CB085E5 		str	fp, [r5, #12]
 2981 23e8 04A085E5 		str	r10, [r5, #4]
 2982 23ec 39FFFF0A 		beq	.L606
 2983 23f0 02F7FFEB 		bl	sdWaitForData
 2984 23f4 000050E3 		cmp	r0, #0
 2985 23f8 36FFFF1A 		bne	.L606
 2986 23fc 4030D9E5 		ldrb	r3, [r9, #64]	@ zero_extendqisi2
 2987 2400 022CA0E3 		mov	r2, #512
 2988 2404 A0009FE5 		ldr	r0, .L707
 2989 2408 030053E3 		cmp	r3, #3
 2990 240c 003097E5 		ldr	r3, [r7]
 2991 2410 033683E2 		add	r3, r3, #3145728
 2992 2414 8AA4A001 		lsleq	r10, r10, #9
 2993 2418 0A10A0E1 		mov	r1, r10
 2994 241c 04C093E5 		ldr	ip, [r3, #4]
 2995 2420 01C040E3 		movt	ip, 1
 2996 2424 04C083E5 		str	ip, [r3, #4]
 2997 2428 04C093E5 		ldr	ip, [r3, #4]
 2998 242c 12C0C9E7 		bfi	ip, r2, #0, #10
 2999 2430 04C083E5 		str	ip, [r3, #4]
 3000 2434 D3F8FFEB 		bl	sdSendCommandP
 3001 2438 FF0010E3 		tst	r0, #255
 3002 243c 25FFFF1A 		bne	.L606
 3003 2440 2000A0E3 		mov	r0, #32
 3004 2444 2DF7FFEB 		bl	sdWaitForInterrupt
 3005 2448 000050E3 		cmp	r0, #0
 3006 244c 0F00001A 		bne	.L702
 3007 2450 0C2085E2 		add	r2, r5, #12
 3008 2454 831F85E2 		add	r1, r5, #524
 3009              	.L615:
 3010 2458 003097E5 		ldr	r3, [r7]
 3011 245c 033683E2 		add	r3, r3, #3145728
 3012 2460 203093E5 		ldr	r3, [r3, #32]
 3013 2464 0430A2E5 		str	r3, [r2, #4]!
 3014 2468 020051E1 		cmp	r1, r2
 3015 246c F9FFFF1A 		bne	.L615
 3016 2470 C0FEFFEA 		b	.L588
 3017              	.L616:
 3018 2474 00209DE5 		ldr	r2, [sp]
 3019 2478 000052E3 		cmp	r2, #0
 3020 247c 1CFFFF0A 		beq	.L618
 3021 2480 0230A0E3 		mov	r3, #2
ARM GAS  C:\Users\ldebo\AppData\Local\Temp\cc9oeUFF.s 			page 54


 3022 2484 00A0A0E3 		mov	r10, #0
 3023 2488 003082E5 		str	r3, [r2]
 3024 248c 88FFFFEA 		b	.L587
 3025              	.L702:
 3026 2490 003099E5 		ldr	r3, [r9]
 3027 2494 000053E3 		cmp	r3, #0
 3028 2498 0EFFFF0A 		beq	.L606
 3029 249c 000000E3 		movw	r0, #:lower16:.LC8
 3030 24a0 000040E3 		movt	r0, #:upper16:.LC8
 3031 24a4 33FF2FE1 		blx	r3
 3032 24a8 0AFFFFEA 		b	.L606
 3033              	.L708:
 3034              		.align	2
 3035              	.L707:
 3036 24ac 50010000 		.word	.LANCHOR1+336
 3037              		.size	LocateFATEntry.constprop.6, .-LocateFATEntry.constprop.6
 3038              		.align	2
 3039              		.global	sdFindFirstFile
 3040              		.syntax unified
 3041              		.arm
 3042              		.fpu neon-vfpv4
 3043              		.type	sdFindFirstFile, %function
 3044              	sdFindFirstFile:
 3045              		@ args = 0, pretend = 0, frame = 288
 3046              		@ frame_needed = 0, uses_anonymous_args = 0
 3047 24b0 F04F2DE9 		push	{r4, r5, r6, r7, r8, r9, r10, fp, lr}
 3048 24b4 000051E3 		cmp	r1, #0
 3049 24b8 00005013 		cmpne	r0, #0
 3050 24bc 0030A0E3 		mov	r3, #0
 3051 24c0 4BDF4DE2 		sub	sp, sp, #300
 3052 24c4 24308DE5 		str	r3, [sp, #36]
 3053 24c8 3500000A 		beq	.L723
 3054 24cc 0030D0E5 		ldrb	r3, [r0]	@ zero_extendqisi2
 3055 24d0 28508DE2 		add	r5, sp, #40
 3056 24d4 0520A0E1 		mov	r2, r5
 3057 24d8 000053E3 		cmp	r3, #0
 3058 24dc 0300000A 		beq	.L712
 3059              	.L713:
 3060 24e0 0130C2E4 		strb	r3, [r2], #1
 3061 24e4 0130F0E5 		ldrb	r3, [r0, #1]!	@ zero_extendqisi2
 3062 24e8 000053E3 		cmp	r3, #0
 3063 24ec FBFFFF1A 		bne	.L713
 3064              	.L712:
 3065 24f0 0030A0E3 		mov	r3, #0
 3066 24f4 006000E3 		movw	r6, #:lower16:.LANCHOR0
 3067 24f8 006040E3 		movt	r6, #:upper16:.LANCHOR0
 3068 24fc 0030C2E5 		strb	r3, [r2]
 3069 2500 2830DDE5 		ldrb	r3, [sp, #40]	@ zero_extendqisi2
 3070 2504 848096E5 		ldr	r8, [r6, #132]
 3071 2508 5C0053E3 		cmp	r3, #92
 3072 250c 29508D02 		addeq	r5, sp, #41
 3073 2510 000058E3 		cmp	r8, #0
 3074 2514 C400000A 		beq	.L734
 3075 2518 943396E5 		ldr	r3, [r6, #916]
 3076 251c 000053E3 		cmp	r3, #0
 3077 2520 C500000A 		beq	.L735
 3078 2524 A43696E5 		ldr	r3, [r6, #1700]
ARM GAS  C:\Users\ldebo\AppData\Local\Temp\cc9oeUFF.s 			page 55


 3079 2528 000053E3 		cmp	r3, #0
 3080 252c 0330A013 		movne	r3, #3
 3081 2530 0230A003 		moveq	r3, #2
 3082 2534 10308DE5 		str	r3, [sp, #16]
 3083              	.L716:
 3084 2538 318EA0E3 		mov	r8, #784
 3085 253c 0390A0E1 		mov	r9, r3
 3086 2540 980308E0 		mul	r8, r8, r3
 3087 2544 104088E2 		add	r4, r8, #16
 3088              	.L715:
 3089 2548 540096E5 		ldr	r0, [r6, #84]
 3090 254c 313EA0E3 		mov	r3, #784
 3091 2550 58C096E5 		ldr	ip, [r6, #88]
 3092 2554 027040E2 		sub	r7, r0, #2
 3093 2558 40E0D6E5 		ldrb	lr, [r6, #64]	@ zero_extendqisi2
 3094 255c 936923E0 		mla	r3, r3, r9, r6
 3095 2560 602096E5 		ldr	r2, [r6, #96]
 3096 2564 00005EE3 		cmp	lr, #0
 3097 2568 9C2727E0 		mla	r7, ip, r7, r2
 3098 256c 0020A0E3 		mov	r2, #0
 3099 2570 800083E5 		str	r0, [r3, #128]
 3100 2574 847083E5 		str	r7, [r3, #132]
 3101 2578 882083E5 		str	r2, [r3, #136]
 3102 257c 8C2083E5 		str	r2, [r3, #140]
 3103 2580 0A00001A 		bne	.L762
 3104              	.L720:
 3105 2584 10109DE5 		ldr	r1, [sp, #16]
 3106 2588 313EA0E3 		mov	r3, #784
 3107 258c 0020A0E3 		mov	r2, #0
 3108 2590 0200A0E1 		mov	r0, r2
 3109 2594 936126E0 		mla	r6, r3, r1, r6
 3110 2598 842086E5 		str	r2, [r6, #132]
 3111              	.L709:
 3112 259c 4BDF8DE2 		add	sp, sp, #300
 3113              		@ sp needed
 3114 25a0 F08FBDE8 		pop	{r4, r5, r6, r7, r8, r9, r10, fp, pc}
 3115              	.L723:
 3116 25a4 0000A0E3 		mov	r0, #0
 3117 25a8 4BDF8DE2 		add	sp, sp, #300
 3118              		@ sp needed
 3119 25ac F08FBDE8 		pop	{r4, r5, r6, r7, r8, r9, r10, fp, pc}
 3120              	.L762:
 3121 25b0 1C108DE5 		str	r1, [sp, #28]
 3122 25b4 91F6FFEB 		bl	sdWaitForData
 3123 25b8 000050E3 		cmp	r0, #0
 3124 25bc F0FFFF1A 		bne	.L720
 3125 25c0 4030D6E5 		ldrb	r3, [r6, #64]	@ zero_extendqisi2
 3126 25c4 02CCA0E3 		mov	ip, #512
 3127 25c8 94029FE5 		ldr	r0, .L765
 3128 25cc 030053E3 		cmp	r3, #3
 3129 25d0 003000E3 		movw	r3, #:lower16:RPi_IO_Base_Addr
 3130 25d4 003040E3 		movt	r3, #:upper16:RPi_IO_Base_Addr
 3131 25d8 14308DE5 		str	r3, [sp, #20]
 3132 25dc 8774A001 		lsleq	r7, r7, #9
 3133 25e0 0710A0E1 		mov	r1, r7
 3134 25e4 003093E5 		ldr	r3, [r3]
 3135 25e8 033683E2 		add	r3, r3, #3145728
ARM GAS  C:\Users\ldebo\AppData\Local\Temp\cc9oeUFF.s 			page 56


 3136 25ec 042093E5 		ldr	r2, [r3, #4]
 3137 25f0 012040E3 		movt	r2, 1
 3138 25f4 042083E5 		str	r2, [r3, #4]
 3139 25f8 042093E5 		ldr	r2, [r3, #4]
 3140 25fc 1C20C9E7 		bfi	r2, ip, #0, #10
 3141 2600 042083E5 		str	r2, [r3, #4]
 3142 2604 5FF8FFEB 		bl	sdSendCommandP
 3143 2608 FF0010E3 		tst	r0, #255
 3144 260c DCFFFF1A 		bne	.L720
 3145 2610 2000A0E3 		mov	r0, #32
 3146 2614 B9F6FFEB 		bl	sdWaitForInterrupt
 3147 2618 000050E3 		cmp	r0, #0
 3148 261c 8900001A 		bne	.L763
 3149 2620 14309DE5 		ldr	r3, [sp, #20]
 3150 2624 001093E5 		ldr	r1, [r3]
 3151 2628 38329FE5 		ldr	r3, .L765+4
 3152 262c 031681E2 		add	r1, r1, #3145728
 3153 2630 042083E0 		add	r2, r3, r4
 3154 2634 201081E2 		add	r1, r1, #32
 3155 2638 043042E2 		sub	r3, r2, #4
 3156 263c 7F2F82E2 		add	r2, r2, #508
 3157 2640 0340A0E1 		mov	r4, r3
 3158 2644 18308DE5 		str	r3, [sp, #24]
 3159              	.L721:
 3160 2648 003091E5 		ldr	r3, [r1]
 3161 264c 0430A4E5 		str	r3, [r4, #4]!
 3162 2650 020054E1 		cmp	r4, r2
 3163 2654 FBFFFF1A 		bne	.L721
 3164 2658 08329FE5 		ldr	r3, .L765+4
 3165 265c 317EA0E3 		mov	r7, #784
 3166 2660 24B08DE2 		add	fp, sp, #36
 3167 2664 083083E0 		add	r3, r3, r8
 3168 2668 0C308DE5 		str	r3, [sp, #12]
 3169 266c 1C309DE5 		ldr	r3, [sp, #28]
 3170 2670 78A083E2 		add	r10, r3, #120
 3171 2674 10309DE5 		ldr	r3, [sp, #16]
 3172 2678 976327E0 		mla	r7, r7, r3, r6
 3173              	.L729:
 3174 267c 5C10A0E3 		mov	r1, #92
 3175 2680 0500A0E1 		mov	r0, r5
 3176 2684 FEFFFFEB 		bl	strchr
 3177 2688 009050E2 		subs	r9, r0, #0
 3178 268c 3F00000A 		beq	.L722
 3179 2690 0080A0E3 		mov	r8, #0
 3180 2694 0500A0E1 		mov	r0, r5
 3181 2698 0080C9E5 		strb	r8, [r9]
 3182 269c 0B30A0E1 		mov	r3, fp
 3183 26a0 0A20A0E1 		mov	r2, r10
 3184 26a4 0C109DE5 		ldr	r1, [sp, #12]
 3185 26a8 26FEFFEB 		bl	LocateFATEntry.constprop.6
 3186 26ac 000050E3 		cmp	r0, #0
 3187 26b0 BBFFFF0A 		beq	.L723
 3188 26b4 15C0D0E5 		ldrb	ip, [r0, #21]	@ zero_extendqisi2
 3189 26b8 1B10D0E5 		ldrb	r1, [r0, #27]	@ zero_extendqisi2
 3190 26bc 1420D0E5 		ldrb	r2, [r0, #20]	@ zero_extendqisi2
 3191 26c0 1A30D0E5 		ldrb	r3, [r0, #26]	@ zero_extendqisi2
 3192 26c4 580096E5 		ldr	r0, [r6, #88]
ARM GAS  C:\Users\ldebo\AppData\Local\Temp\cc9oeUFF.s 			page 57


 3193 26c8 0C2482E1 		orr	r2, r2, ip, lsl #8
 3194 26cc 888087E5 		str	r8, [r7, #136]
 3195 26d0 013483E1 		orr	r3, r3, r1, lsl #8
 3196 26d4 8C8087E5 		str	r8, [r7, #140]
 3197 26d8 40C0D6E5 		ldrb	ip, [r6, #64]	@ zero_extendqisi2
 3198 26dc 023883E1 		orr	r3, r3, r2, lsl #16
 3199 26e0 601096E5 		ldr	r1, [r6, #96]
 3200 26e4 028043E2 		sub	r8, r3, #2
 3201 26e8 00005CE3 		cmp	ip, #0
 3202 26ec 803087E5 		str	r3, [r7, #128]
 3203 26f0 901828E0 		mla	r8, r0, r8, r1
 3204 26f4 848087E5 		str	r8, [r7, #132]
 3205 26f8 A9FFFF0A 		beq	.L723
 3206 26fc 3FF6FFEB 		bl	sdWaitForData
 3207 2700 000050E3 		cmp	r0, #0
 3208 2704 A6FFFF1A 		bne	.L723
 3209 2708 4030D6E5 		ldrb	r3, [r6, #64]	@ zero_extendqisi2
 3210 270c 022CA0E3 		mov	r2, #512
 3211 2710 4C019FE5 		ldr	r0, .L765
 3212 2714 030053E3 		cmp	r3, #3
 3213 2718 14309DE5 		ldr	r3, [sp, #20]
 3214 271c 8884A001 		lsleq	r8, r8, #9
 3215 2720 0810A0E1 		mov	r1, r8
 3216 2724 003093E5 		ldr	r3, [r3]
 3217 2728 033683E2 		add	r3, r3, #3145728
 3218 272c 04C093E5 		ldr	ip, [r3, #4]
 3219 2730 01C040E3 		movt	ip, 1
 3220 2734 04C083E5 		str	ip, [r3, #4]
 3221 2738 04C093E5 		ldr	ip, [r3, #4]
 3222 273c 12C0C9E7 		bfi	ip, r2, #0, #10
 3223 2740 04C083E5 		str	ip, [r3, #4]
 3224 2744 0FF8FFEB 		bl	sdSendCommandP
 3225 2748 7080EFE6 		uxtb	r8, r0
 3226 274c 000058E3 		cmp	r8, #0
 3227 2750 93FFFF1A 		bne	.L723
 3228 2754 2000A0E3 		mov	r0, #32
 3229 2758 68F6FFEB 		bl	sdWaitForInterrupt
 3230 275c 000050E3 		cmp	r0, #0
 3231 2760 2900001A 		bne	.L764
 3232 2764 14309DE5 		ldr	r3, [sp, #20]
 3233 2768 001093E5 		ldr	r1, [r3]
 3234 276c 18309DE5 		ldr	r3, [sp, #24]
 3235 2770 031681E2 		add	r1, r1, #3145728
 3236 2774 201081E2 		add	r1, r1, #32
 3237              	.L726:
 3238 2778 002091E5 		ldr	r2, [r1]
 3239 277c 0420A3E5 		str	r2, [r3, #4]!
 3240 2780 030054E1 		cmp	r4, r3
 3241 2784 FBFFFF1A 		bne	.L726
 3242 2788 015089E2 		add	r5, r9, #1
 3243 278c BAFFFFEA 		b	.L729
 3244              	.L722:
 3245 2790 0A30A0E1 		mov	r3, r10
 3246 2794 00B08DE5 		str	fp, [sp]
 3247 2798 0920A0E1 		mov	r2, r9
 3248 279c 0C109DE5 		ldr	r1, [sp, #12]
 3249 27a0 0500A0E1 		mov	r0, r5
ARM GAS  C:\Users\ldebo\AppData\Local\Temp\cc9oeUFF.s 			page 58


 3250 27a4 23FCFFEB 		bl	LocateFATEntry
 3251 27a8 24309DE5 		ldr	r3, [sp, #36]
 3252 27ac 000050E3 		cmp	r0, #0
 3253 27b0 133F6FE1 		clz	r3, r3
 3254 27b4 A332A0E1 		lsr	r3, r3, #5
 3255 27b8 0030A003 		moveq	r3, #0
 3256 27bc 000053E3 		cmp	r3, #0
 3257 27c0 6FFFFF0A 		beq	.L720
 3258 27c4 0020D5E5 		ldrb	r2, [r5]	@ zero_extendqisi2
 3259 27c8 000052E3 		cmp	r2, #0
 3260 27cc 0900000A 		beq	.L731
 3261 27d0 10109DE5 		ldr	r1, [sp, #16]
 3262 27d4 313EA0E3 		mov	r3, #784
 3263 27d8 88C09FE5 		ldr	ip, .L765+4
 3264 27dc 93C123E0 		mla	r3, r3, r1, ip
 3265 27e0 833F83E2 		add	r3, r3, #524
 3266 27e4 033083E2 		add	r3, r3, #3
 3267              	.L728:
 3268 27e8 0120E3E5 		strb	r2, [r3, #1]!
 3269 27ec 0120F5E5 		ldrb	r2, [r5, #1]!	@ zero_extendqisi2
 3270 27f0 000052E3 		cmp	r2, #0
 3271 27f4 FBFFFF1A 		bne	.L728
 3272              	.L731:
 3273 27f8 1C109DE5 		ldr	r1, [sp, #28]
 3274 27fc 89F7FFEB 		bl	SetFindDataFromFATEntry.part.0
 3275 2800 10309DE5 		ldr	r3, [sp, #16]
 3276 2804 010083E2 		add	r0, r3, #1
 3277 2808 63FFFFEA 		b	.L709
 3278              	.L764:
 3279 280c 003096E5 		ldr	r3, [r6]
 3280 2810 000053E3 		cmp	r3, #0
 3281 2814 62FFFF0A 		beq	.L723
 3282 2818 000000E3 		movw	r0, #:lower16:.LC8
 3283 281c 000040E3 		movt	r0, #:upper16:.LC8
 3284 2820 33FF2FE1 		blx	r3
 3285 2824 0800A0E1 		mov	r0, r8
 3286 2828 5BFFFFEA 		b	.L709
 3287              	.L734:
 3288 282c 1040A0E3 		mov	r4, #16
 3289 2830 10808DE5 		str	r8, [sp, #16]
 3290 2834 0890A0E1 		mov	r9, r8
 3291 2838 42FFFFEA 		b	.L715
 3292              	.L735:
 3293 283c 0130A0E3 		mov	r3, #1
 3294 2840 10308DE5 		str	r3, [sp, #16]
 3295 2844 3BFFFFEA 		b	.L716
 3296              	.L763:
 3297 2848 003096E5 		ldr	r3, [r6]
 3298 284c 000053E3 		cmp	r3, #0
 3299 2850 4BFFFF0A 		beq	.L720
 3300 2854 000000E3 		movw	r0, #:lower16:.LC8
 3301 2858 000040E3 		movt	r0, #:upper16:.LC8
 3302 285c 33FF2FE1 		blx	r3
 3303 2860 47FFFFEA 		b	.L720
 3304              	.L766:
 3305              		.align	2
 3306              	.L765:
ARM GAS  C:\Users\ldebo\AppData\Local\Temp\cc9oeUFF.s 			page 59


 3307 2864 50010000 		.word	.LANCHOR1+336
 3308 2868 80000000 		.word	.LANCHOR0+128
 3309              		.size	sdFindFirstFile, .-sdFindFirstFile
 3310              		.align	2
 3311              		.global	sdFindNextFile
 3312              		.syntax unified
 3313              		.arm
 3314              		.fpu neon-vfpv4
 3315              		.type	sdFindNextFile, %function
 3316              	sdFindNextFile:
 3317              		@ args = 0, pretend = 0, frame = 8
 3318              		@ frame_needed = 0, uses_anonymous_args = 0
 3319 286c 70402DE9 		push	{r4, r5, r6, lr}
 3320 2870 01E040E2 		sub	lr, r0, #1
 3321 2874 03005EE3 		cmp	lr, #3
 3322 2878 10D04DE2 		sub	sp, sp, #16
 3323 287c 0020A0E3 		mov	r2, #0
 3324 2880 0200A081 		movhi	r0, r2
 3325 2884 0C208DE5 		str	r2, [sp, #12]
 3326 2888 0800008A 		bhi	.L767
 3327 288c 31CEA0E3 		mov	ip, #784
 3328 2890 003000E3 		movw	r3, #:lower16:.LANCHOR0
 3329 2894 003040E3 		movt	r3, #:upper16:.LANCHOR0
 3330 2898 9C0E0CE0 		mul	ip, ip, lr
 3331 289c 0C6083E0 		add	r6, r3, ip
 3332 28a0 84E096E5 		ldr	lr, [r6, #132]
 3333 28a4 02005EE1 		cmp	lr, r2
 3334 28a8 0E00A001 		moveq	r0, lr
 3335 28ac 0100001A 		bne	.L774
 3336              	.L767:
 3337 28b0 10D08DE2 		add	sp, sp, #16
 3338              		@ sp needed
 3339 28b4 7080BDE8 		pop	{r4, r5, r6, pc}
 3340              	.L774:
 3341 28b8 803083E2 		add	r3, r3, #128
 3342 28bc 0150A0E1 		mov	r5, r1
 3343 28c0 0CE08DE2 		add	lr, sp, #12
 3344 28c4 0040A0E1 		mov	r4, r0
 3345 28c8 210E8CE2 		add	r0, ip, #528
 3346 28cc 0C1083E0 		add	r1, r3, ip
 3347 28d0 000083E0 		add	r0, r3, r0
 3348 28d4 00E08DE5 		str	lr, [sp]
 3349 28d8 783085E2 		add	r3, r5, #120
 3350 28dc D5FBFFEB 		bl	LocateFATEntry
 3351 28e0 0C209DE5 		ldr	r2, [sp, #12]
 3352 28e4 000050E3 		cmp	r0, #0
 3353 28e8 122F6FE1 		clz	r2, r2
 3354 28ec A222A0E1 		lsr	r2, r2, #5
 3355 28f0 0020A003 		moveq	r2, #0
 3356 28f4 000052E3 		cmp	r2, #0
 3357 28f8 0600000A 		beq	.L769
 3358 28fc 000055E3 		cmp	r5, #0
 3359 2900 0400A001 		moveq	r0, r4
 3360 2904 E9FFFF0A 		beq	.L767
 3361 2908 0510A0E1 		mov	r1, r5
 3362 290c 45F7FFEB 		bl	SetFindDataFromFATEntry.part.0
 3363 2910 0400A0E1 		mov	r0, r4
ARM GAS  C:\Users\ldebo\AppData\Local\Temp\cc9oeUFF.s 			page 60


 3364 2914 E5FFFFEA 		b	.L767
 3365              	.L769:
 3366 2918 0200A0E1 		mov	r0, r2
 3367 291c 842086E5 		str	r2, [r6, #132]
 3368 2920 10D08DE2 		add	sp, sp, #16
 3369              		@ sp needed
 3370 2924 7080BDE8 		pop	{r4, r5, r6, pc}
 3371              		.size	sdFindNextFile, .-sdFindNextFile
 3372              		.align	2
 3373              		.global	sdFindClose
 3374              		.syntax unified
 3375              		.arm
 3376              		.fpu neon-vfpv4
 3377              		.type	sdFindClose, %function
 3378              	sdFindClose:
 3379              		@ args = 0, pretend = 0, frame = 0
 3380              		@ frame_needed = 0, uses_anonymous_args = 0
 3381              		@ link register save eliminated.
 3382 2928 010040E2 		sub	r0, r0, #1
 3383 292c 030050E3 		cmp	r0, #3
 3384 2930 0900008A 		bhi	.L777
 3385 2934 312EA0E3 		mov	r2, #784
 3386 2938 003000E3 		movw	r3, #:lower16:.LANCHOR0
 3387 293c 003040E3 		movt	r3, #:upper16:.LANCHOR0
 3388 2940 923023E0 		mla	r3, r2, r0, r3
 3389 2944 840093E5 		ldr	r0, [r3, #132]
 3390 2948 000050E3 		cmp	r0, #0
 3391 294c 0020A013 		movne	r2, #0
 3392 2950 0100A013 		movne	r0, #1
 3393 2954 84208315 		strne	r2, [r3, #132]
 3394 2958 1EFF2FE1 		bx	lr
 3395              	.L777:
 3396 295c 0000A0E3 		mov	r0, #0
 3397 2960 1EFF2FE1 		bx	lr
 3398              		.size	sdFindClose, .-sdFindClose
 3399              		.align	2
 3400              		.global	sdCreateFile
 3401              		.syntax unified
 3402              		.arm
 3403              		.fpu neon-vfpv4
 3404              		.type	sdCreateFile, %function
 3405              	sdCreateFile:
 3406              		@ args = 12, pretend = 0, frame = 528
 3407              		@ frame_needed = 0, uses_anonymous_args = 0
 3408 2964 F04F2DE9 		push	{r4, r5, r6, r7, r8, r9, r10, fp, lr}
 3409 2968 000050E3 		cmp	r0, #0
 3410 296c 0030A0E3 		mov	r3, #0
 3411 2970 87DF4DE2 		sub	sp, sp, #540
 3412 2974 14308DE5 		str	r3, [sp, #20]
 3413 2978 3C00000A 		beq	.L780
 3414 297c 0030D0E5 		ldrb	r3, [r0]	@ zero_extendqisi2
 3415 2980 461F8DE2 		add	r1, sp, #280
 3416 2984 0120A0E1 		mov	r2, r1
 3417 2988 000053E3 		cmp	r3, #0
 3418 298c 0300000A 		beq	.L781
 3419              	.L782:
 3420 2990 0130C2E4 		strb	r3, [r2], #1
ARM GAS  C:\Users\ldebo\AppData\Local\Temp\cc9oeUFF.s 			page 61


 3421 2994 0130F0E5 		ldrb	r3, [r0, #1]!	@ zero_extendqisi2
 3422 2998 000053E3 		cmp	r3, #0
 3423 299c FBFFFF1A 		bne	.L782
 3424              	.L781:
 3425 29a0 0030A0E3 		mov	r3, #0
 3426 29a4 005000E3 		movw	r5, #:lower16:.LANCHOR0
 3427 29a8 005040E3 		movt	r5, #:upper16:.LANCHOR0
 3428 29ac 0030C2E5 		strb	r3, [r2]
 3429 29b0 1831DDE5 		ldrb	r3, [sp, #280]	@ zero_extendqisi2
 3430 29b4 C46C95E5 		ldr	r6, [r5, #3268]
 3431 29b8 5C0053E3 		cmp	r3, #92
 3432 29bc 46BF8D02 		addeq	fp, sp, #280
 3433 29c0 01B0A011 		movne	fp, r1
 3434 29c4 01B08B02 		addeq	fp, fp, #1
 3435 29c8 000056E3 		cmp	r6, #0
 3436 29cc 0701000A 		beq	.L803
 3437 29d0 E03F95E5 		ldr	r3, [r5, #4064]
 3438 29d4 000053E3 		cmp	r3, #0
 3439 29d8 0101000A 		beq	.L804
 3440 29dc 013A85E2 		add	r3, r5, #4096
 3441 29e0 FC1293E5 		ldr	r1, [r3, #764]
 3442 29e4 000051E3 		cmp	r1, #0
 3443 29e8 FA00000A 		beq	.L805
 3444 29ec 181693E5 		ldr	r1, [r3, #1560]
 3445 29f0 000051E3 		cmp	r1, #0
 3446 29f4 F400000A 		beq	.L806
 3447 29f8 341993E5 		ldr	r1, [r3, #2356]
 3448 29fc 000051E3 		cmp	r1, #0
 3449 2a00 EE00000A 		beq	.L807
 3450 2a04 501C93E5 		ldr	r1, [r3, #3152]
 3451 2a08 000051E3 		cmp	r1, #0
 3452 2a0c E800000A 		beq	.L808
 3453 2a10 6C3F93E5 		ldr	r3, [r3, #3948]
 3454 2a14 000053E3 		cmp	r3, #0
 3455 2a18 0730A013 		movne	r3, #7
 3456 2a1c 0630A003 		moveq	r3, #6
 3457 2a20 08308DE5 		str	r3, [sp, #8]
 3458              	.L785:
 3459 2a24 C76FA0E3 		mov	r6, #796
 3460 2a28 0320A0E1 		mov	r2, r3
 3461 2a2c 960306E0 		mul	r6, r6, r3
 3462 2a30 104086E2 		add	r4, r6, #16
 3463              	.L784:
 3464 2a34 540095E5 		ldr	r0, [r5, #84]
 3465 2a38 C73FA0E3 		mov	r3, #796
 3466 2a3c 58C095E5 		ldr	ip, [r5, #88]
 3467 2a40 027040E2 		sub	r7, r0, #2
 3468 2a44 40E0D5E5 		ldrb	lr, [r5, #64]	@ zero_extendqisi2
 3469 2a48 935223E0 		mla	r3, r3, r2, r5
 3470 2a4c 601095E5 		ldr	r1, [r5, #96]
 3471 2a50 00005EE3 		cmp	lr, #0
 3472 2a54 9C1727E0 		mla	r7, ip, r7, r1
 3473 2a58 0010A0E3 		mov	r1, #0
 3474 2a5c C00C83E5 		str	r0, [r3, #3264]
 3475 2a60 C47C83E5 		str	r7, [r3, #3268]
 3476 2a64 C81C83E5 		str	r1, [r3, #3272]
 3477 2a68 CC1C83E5 		str	r1, [r3, #3276]
ARM GAS  C:\Users\ldebo\AppData\Local\Temp\cc9oeUFF.s 			page 62


 3478 2a6c 0200001A 		bne	.L844
 3479              	.L780:
 3480 2a70 0000A0E3 		mov	r0, #0
 3481              	.L779:
 3482 2a74 87DF8DE2 		add	sp, sp, #540
 3483              		@ sp needed
 3484 2a78 F08FBDE8 		pop	{r4, r5, r6, r7, r8, r9, r10, fp, pc}
 3485              	.L844:
 3486 2a7c 5FF5FFEB 		bl	sdWaitForData
 3487 2a80 000050E3 		cmp	r0, #0
 3488 2a84 F9FFFF1A 		bne	.L780
 3489 2a88 4030D5E5 		ldrb	r3, [r5, #64]	@ zero_extendqisi2
 3490 2a8c 02ECA0E3 		mov	lr, #512
 3491 2a90 98039FE5 		ldr	r0, .L848
 3492 2a94 030053E3 		cmp	r3, #3
 3493 2a98 003000E3 		movw	r3, #:lower16:RPi_IO_Base_Addr
 3494 2a9c 003040E3 		movt	r3, #:upper16:RPi_IO_Base_Addr
 3495 2aa0 0C308DE5 		str	r3, [sp, #12]
 3496 2aa4 8774A001 		lsleq	r7, r7, #9
 3497 2aa8 0710A0E1 		mov	r1, r7
 3498 2aac 003093E5 		ldr	r3, [r3]
 3499 2ab0 033683E2 		add	r3, r3, #3145728
 3500 2ab4 04C093E5 		ldr	ip, [r3, #4]
 3501 2ab8 01C040E3 		movt	ip, 1
 3502 2abc 04C083E5 		str	ip, [r3, #4]
 3503 2ac0 04C093E5 		ldr	ip, [r3, #4]
 3504 2ac4 1EC0C9E7 		bfi	ip, lr, #0, #10
 3505 2ac8 04C083E5 		str	ip, [r3, #4]
 3506 2acc 2DF7FFEB 		bl	sdSendCommandP
 3507 2ad0 7070EFE6 		uxtb	r7, r0
 3508 2ad4 000057E3 		cmp	r7, #0
 3509 2ad8 E4FFFF1A 		bne	.L780
 3510 2adc 2000A0E3 		mov	r0, #32
 3511 2ae0 86F5FFEB 		bl	sdWaitForInterrupt
 3512 2ae4 000050E3 		cmp	r0, #0
 3513 2ae8 C400001A 		bne	.L845
 3514 2aec 0C309DE5 		ldr	r3, [sp, #12]
 3515 2af0 3C939FE5 		ldr	r9, .L848+4
 3516 2af4 041089E0 		add	r1, r9, r4
 3517 2af8 000093E5 		ldr	r0, [r3]
 3518 2afc 04A041E2 		sub	r10, r1, #4
 3519 2b00 0A40A0E1 		mov	r4, r10
 3520 2b04 7F1F81E2 		add	r1, r1, #508
 3521 2b08 030680E2 		add	r0, r0, #3145728
 3522 2b0c 200080E2 		add	r0, r0, #32
 3523              	.L789:
 3524 2b10 003090E5 		ldr	r3, [r0]
 3525 2b14 0430A4E5 		str	r3, [r4, #4]!
 3526 2b18 010054E1 		cmp	r4, r1
 3527 2b1c FBFFFF1A 		bne	.L789
 3528 2b20 08309DE5 		ldr	r3, [sp, #8]
 3529 2b24 C77FA0E3 		mov	r7, #796
 3530 2b28 069089E0 		add	r9, r9, r6
 3531 2b2c 0B60A0E1 		mov	r6, fp
 3532 2b30 975327E0 		mla	r7, r7, r3, r5
 3533              	.L799:
 3534 2b34 5C10A0E3 		mov	r1, #92
ARM GAS  C:\Users\ldebo\AppData\Local\Temp\cc9oeUFF.s 			page 63


 3535 2b38 0600A0E1 		mov	r0, r6
 3536 2b3c FEFFFFEB 		bl	strchr
 3537 2b40 008050E2 		subs	r8, r0, #0
 3538 2b44 3F00000A 		beq	.L790
 3539 2b48 00B0A0E3 		mov	fp, #0
 3540 2b4c 0600A0E1 		mov	r0, r6
 3541 2b50 00B0C8E5 		strb	fp, [r8]
 3542 2b54 14308DE2 		add	r3, sp, #20
 3543 2b58 18208DE2 		add	r2, sp, #24
 3544 2b5c 0910A0E1 		mov	r1, r9
 3545 2b60 F8FCFFEB 		bl	LocateFATEntry.constprop.6
 3546 2b64 000050E3 		cmp	r0, #0
 3547 2b68 C0FFFF0A 		beq	.L780
 3548 2b6c 15C0D0E5 		ldrb	ip, [r0, #21]	@ zero_extendqisi2
 3549 2b70 1B10D0E5 		ldrb	r1, [r0, #27]	@ zero_extendqisi2
 3550 2b74 1420D0E5 		ldrb	r2, [r0, #20]	@ zero_extendqisi2
 3551 2b78 1A30D0E5 		ldrb	r3, [r0, #26]	@ zero_extendqisi2
 3552 2b7c 580095E5 		ldr	r0, [r5, #88]
 3553 2b80 0C2482E1 		orr	r2, r2, ip, lsl #8
 3554 2b84 C8BC87E5 		str	fp, [r7, #3272]
 3555 2b88 013483E1 		orr	r3, r3, r1, lsl #8
 3556 2b8c CCBC87E5 		str	fp, [r7, #3276]
 3557 2b90 40C0D5E5 		ldrb	ip, [r5, #64]	@ zero_extendqisi2
 3558 2b94 023883E1 		orr	r3, r3, r2, lsl #16
 3559 2b98 601095E5 		ldr	r1, [r5, #96]
 3560 2b9c 02B043E2 		sub	fp, r3, #2
 3561 2ba0 00005CE3 		cmp	ip, #0
 3562 2ba4 C03C87E5 		str	r3, [r7, #3264]
 3563 2ba8 901B2BE0 		mla	fp, r0, fp, r1
 3564 2bac C4BC87E5 		str	fp, [r7, #3268]
 3565 2bb0 AEFFFF0A 		beq	.L780
 3566 2bb4 11F5FFEB 		bl	sdWaitForData
 3567 2bb8 000050E3 		cmp	r0, #0
 3568 2bbc ABFFFF1A 		bne	.L780
 3569 2bc0 4030D5E5 		ldrb	r3, [r5, #64]	@ zero_extendqisi2
 3570 2bc4 02CCA0E3 		mov	ip, #512
 3571 2bc8 60029FE5 		ldr	r0, .L848
 3572 2bcc 030053E3 		cmp	r3, #3
 3573 2bd0 0C309DE5 		ldr	r3, [sp, #12]
 3574 2bd4 8BB4A001 		lsleq	fp, fp, #9
 3575 2bd8 0B10A0E1 		mov	r1, fp
 3576 2bdc 003093E5 		ldr	r3, [r3]
 3577 2be0 033683E2 		add	r3, r3, #3145728
 3578 2be4 042093E5 		ldr	r2, [r3, #4]
 3579 2be8 012040E3 		movt	r2, 1
 3580 2bec 042083E5 		str	r2, [r3, #4]
 3581 2bf0 042093E5 		ldr	r2, [r3, #4]
 3582 2bf4 1C20C9E7 		bfi	r2, ip, #0, #10
 3583 2bf8 042083E5 		str	r2, [r3, #4]
 3584 2bfc E1F6FFEB 		bl	sdSendCommandP
 3585 2c00 70B0EFE6 		uxtb	fp, r0
 3586 2c04 00005BE3 		cmp	fp, #0
 3587 2c08 98FFFF1A 		bne	.L780
 3588 2c0c 2000A0E3 		mov	r0, #32
 3589 2c10 3AF5FFEB 		bl	sdWaitForInterrupt
 3590 2c14 000050E3 		cmp	r0, #0
 3591 2c18 5C00001A 		bne	.L846
ARM GAS  C:\Users\ldebo\AppData\Local\Temp\cc9oeUFF.s 			page 64


 3592 2c1c 0C309DE5 		ldr	r3, [sp, #12]
 3593 2c20 001093E5 		ldr	r1, [r3]
 3594 2c24 0A30A0E1 		mov	r3, r10
 3595 2c28 031681E2 		add	r1, r1, #3145728
 3596 2c2c 201081E2 		add	r1, r1, #32
 3597              	.L793:
 3598 2c30 002091E5 		ldr	r2, [r1]
 3599 2c34 0420A3E5 		str	r2, [r3, #4]!
 3600 2c38 030054E1 		cmp	r4, r3
 3601 2c3c FBFFFF1A 		bne	.L793
 3602 2c40 016088E2 		add	r6, r8, #1
 3603 2c44 BAFFFFEA 		b	.L799
 3604              	.L790:
 3605 2c48 14308DE2 		add	r3, sp, #20
 3606 2c4c 0910A0E1 		mov	r1, r9
 3607 2c50 00308DE5 		str	r3, [sp]
 3608 2c54 0600A0E1 		mov	r0, r6
 3609 2c58 18308DE2 		add	r3, sp, #24
 3610 2c5c 0820A0E1 		mov	r2, r8
 3611 2c60 F4FAFFEB 		bl	LocateFATEntry
 3612 2c64 14309DE5 		ldr	r3, [sp, #20]
 3613 2c68 000050E3 		cmp	r0, #0
 3614 2c6c 133F6FE1 		clz	r3, r3
 3615 2c70 A332A0E1 		lsr	r3, r3, #5
 3616 2c74 0030A003 		moveq	r3, #0
 3617 2c78 000053E3 		cmp	r3, #0
 3618 2c7c 7BFFFF0A 		beq	.L780
 3619 2c80 08609DE5 		ldr	r6, [sp, #8]
 3620 2c84 C73FA0E3 		mov	r3, #796
 3621 2c88 15E0D0E5 		ldrb	lr, [r0, #21]	@ zero_extendqisi2
 3622 2c8c 1BC0D0E5 		ldrb	ip, [r0, #27]	@ zero_extendqisi2
 3623 2c90 1420D0E5 		ldrb	r2, [r0, #20]	@ zero_extendqisi2
 3624 2c94 1A10D0E5 		ldrb	r1, [r0, #26]	@ zero_extendqisi2
 3625 2c98 935623E0 		mla	r3, r3, r6, r5
 3626 2c9c 0E2482E1 		orr	r2, r2, lr, lsl #8
 3627 2ca0 58E095E5 		ldr	lr, [r5, #88]
 3628 2ca4 0C1481E1 		orr	r1, r1, ip, lsl #8
 3629 2ca8 D48F83E5 		str	r8, [r3, #4052]
 3630 2cac 021881E1 		orr	r1, r1, r2, lsl #16
 3631 2cb0 D01F83E5 		str	r1, [r3, #4048]
 3632 2cb4 02C041E2 		sub	ip, r1, #2
 3633 2cb8 1D70D0E5 		ldrb	r7, [r0, #29]	@ zero_extendqisi2
 3634 2cbc 1C20D0E5 		ldrb	r2, [r0, #28]	@ zero_extendqisi2
 3635 2cc0 1E60D0E5 		ldrb	r6, [r0, #30]	@ zero_extendqisi2
 3636 2cc4 1F00D0E5 		ldrb	r0, [r0, #31]	@ zero_extendqisi2
 3637 2cc8 072482E1 		orr	r2, r2, r7, lsl #8
 3638 2ccc 4070D5E5 		ldrb	r7, [r5, #64]	@ zero_extendqisi2
 3639 2cd0 C01C83E5 		str	r1, [r3, #3264]
 3640 2cd4 062882E1 		orr	r2, r2, r6, lsl #16
 3641 2cd8 000057E3 		cmp	r7, #0
 3642 2cdc 606095E5 		ldr	r6, [r5, #96]
 3643 2ce0 9E6C26E0 		mla	r6, lr, ip, r6
 3644 2ce4 002C82E1 		orr	r2, r2, r0, lsl #24
 3645 2ce8 D82F83E5 		str	r2, [r3, #4056]
 3646 2cec C88C83E5 		str	r8, [r3, #3272]
 3647 2cf0 CC8C83E5 		str	r8, [r3, #3276]
 3648 2cf4 C46C83E5 		str	r6, [r3, #3268]
ARM GAS  C:\Users\ldebo\AppData\Local\Temp\cc9oeUFF.s 			page 65


 3649 2cf8 5CFFFF0A 		beq	.L780
 3650 2cfc BFF4FFEB 		bl	sdWaitForData
 3651 2d00 000050E3 		cmp	r0, #0
 3652 2d04 59FFFF1A 		bne	.L780
 3653 2d08 4030D5E5 		ldrb	r3, [r5, #64]	@ zero_extendqisi2
 3654 2d0c 02CCA0E3 		mov	ip, #512
 3655 2d10 18019FE5 		ldr	r0, .L848
 3656 2d14 030053E3 		cmp	r3, #3
 3657 2d18 0C309DE5 		ldr	r3, [sp, #12]
 3658 2d1c 8664A001 		lsleq	r6, r6, #9
 3659 2d20 0610A0E1 		mov	r1, r6
 3660 2d24 003093E5 		ldr	r3, [r3]
 3661 2d28 033683E2 		add	r3, r3, #3145728
 3662 2d2c 042093E5 		ldr	r2, [r3, #4]
 3663 2d30 012040E3 		movt	r2, 1
 3664 2d34 042083E5 		str	r2, [r3, #4]
 3665 2d38 042093E5 		ldr	r2, [r3, #4]
 3666 2d3c 1C20C9E7 		bfi	r2, ip, #0, #10
 3667 2d40 042083E5 		str	r2, [r3, #4]
 3668 2d44 8FF6FFEB 		bl	sdSendCommandP
 3669 2d48 7060EFE6 		uxtb	r6, r0
 3670 2d4c 000056E3 		cmp	r6, #0
 3671 2d50 46FFFF1A 		bne	.L780
 3672 2d54 2000A0E3 		mov	r0, #32
 3673 2d58 E8F4FFEB 		bl	sdWaitForInterrupt
 3674 2d5c 000050E3 		cmp	r0, #0
 3675 2d60 2E00001A 		bne	.L847
 3676 2d64 0C309DE5 		ldr	r3, [sp, #12]
 3677 2d68 002093E5 		ldr	r2, [r3]
 3678 2d6c 032682E2 		add	r2, r2, #3145728
 3679 2d70 202082E2 		add	r2, r2, #32
 3680              	.L797:
 3681 2d74 003092E5 		ldr	r3, [r2]
 3682 2d78 0430AAE5 		str	r3, [r10, #4]!
 3683 2d7c 04005AE1 		cmp	r10, r4
 3684 2d80 FBFFFF1A 		bne	.L797
 3685 2d84 08309DE5 		ldr	r3, [sp, #8]
 3686 2d88 010083E2 		add	r0, r3, #1
 3687 2d8c 38FFFFEA 		b	.L779
 3688              	.L846:
 3689 2d90 003095E5 		ldr	r3, [r5]
 3690 2d94 0B60A0E1 		mov	r6, fp
 3691 2d98 000053E3 		cmp	r3, #0
 3692 2d9c 33FFFF0A 		beq	.L780
 3693              	.L841:
 3694 2da0 000000E3 		movw	r0, #:lower16:.LC8
 3695 2da4 000040E3 		movt	r0, #:upper16:.LC8
 3696 2da8 33FF2FE1 		blx	r3
 3697 2dac 0600A0E1 		mov	r0, r6
 3698 2db0 2FFFFFEA 		b	.L779
 3699              	.L808:
 3700 2db4 0530A0E3 		mov	r3, #5
 3701 2db8 08308DE5 		str	r3, [sp, #8]
 3702 2dbc 18FFFFEA 		b	.L785
 3703              	.L807:
 3704 2dc0 0430A0E3 		mov	r3, #4
 3705 2dc4 08308DE5 		str	r3, [sp, #8]
ARM GAS  C:\Users\ldebo\AppData\Local\Temp\cc9oeUFF.s 			page 66


 3706 2dc8 15FFFFEA 		b	.L785
 3707              	.L806:
 3708 2dcc 0330A0E3 		mov	r3, #3
 3709 2dd0 08308DE5 		str	r3, [sp, #8]
 3710 2dd4 12FFFFEA 		b	.L785
 3711              	.L805:
 3712 2dd8 0230A0E3 		mov	r3, #2
 3713 2ddc 08308DE5 		str	r3, [sp, #8]
 3714 2de0 0FFFFFEA 		b	.L785
 3715              	.L804:
 3716 2de4 0130A0E3 		mov	r3, #1
 3717 2de8 08308DE5 		str	r3, [sp, #8]
 3718 2dec 0CFFFFEA 		b	.L785
 3719              	.L803:
 3720 2df0 1040A0E3 		mov	r4, #16
 3721 2df4 08608DE5 		str	r6, [sp, #8]
 3722 2df8 0620A0E1 		mov	r2, r6
 3723 2dfc 0CFFFFEA 		b	.L784
 3724              	.L845:
 3725 2e00 003095E5 		ldr	r3, [r5]
 3726 2e04 000053E3 		cmp	r3, #0
 3727 2e08 18FFFF0A 		beq	.L780
 3728 2e0c 000000E3 		movw	r0, #:lower16:.LC8
 3729 2e10 000040E3 		movt	r0, #:upper16:.LC8
 3730 2e14 33FF2FE1 		blx	r3
 3731 2e18 0700A0E1 		mov	r0, r7
 3732 2e1c 14FFFFEA 		b	.L779
 3733              	.L847:
 3734 2e20 003095E5 		ldr	r3, [r5]
 3735 2e24 000053E3 		cmp	r3, #0
 3736 2e28 DCFFFF1A 		bne	.L841
 3737 2e2c 0FFFFFEA 		b	.L780
 3738              	.L849:
 3739              		.align	2
 3740              	.L848:
 3741 2e30 50010000 		.word	.LANCHOR1+336
 3742 2e34 C00C0000 		.word	.LANCHOR0+3264
 3743              		.size	sdCreateFile, .-sdCreateFile
 3744              		.align	2
 3745              		.global	sdReadFile
 3746              		.syntax unified
 3747              		.arm
 3748              		.fpu neon-vfpv4
 3749              		.type	sdReadFile, %function
 3750              	sdReadFile:
 3751              		@ args = 4, pretend = 0, frame = 16
 3752              		@ frame_needed = 0, uses_anonymous_args = 0
 3753 2e38 010040E2 		sub	r0, r0, #1
 3754 2e3c 070050E3 		cmp	r0, #7
 3755 2e40 5100008A 		bhi	.L895
 3756 2e44 C7CFA0E3 		mov	ip, #796
 3757 2e48 F04F2DE9 		push	{r4, r5, r6, r7, r8, r9, r10, fp, lr}
 3758 2e4c 008000E3 		movw	r8, #:lower16:.LANCHOR0
 3759 2e50 008040E3 		movt	r8, #:upper16:.LANCHOR0
 3760 2e54 9C0000E0 		mul	r0, ip, r0
 3761 2e58 14D04DE2 		sub	sp, sp, #20
 3762 2e5c 005088E0 		add	r5, r8, r0
ARM GAS  C:\Users\ldebo\AppData\Local\Temp\cc9oeUFF.s 			page 67


 3763 2e60 C4CC95E5 		ldr	ip, [r5, #3268]
 3764 2e64 00005CE3 		cmp	ip, #0
 3765 2e68 4400000A 		beq	.L851
 3766 2e6c FD6E85E2 		add	r6, r5, #4048
 3767 2e70 08308DE5 		str	r3, [sp, #8]
 3768 2e74 00A000E3 		movw	r10, #:lower16:RPi_IO_Base_Addr
 3769 2e78 00A040E3 		movt	r10, #:upper16:RPi_IO_Base_Addr
 3770 2e7c CD3E85E2 		add	r3, r5, #3280
 3771 2e80 0270A0E1 		mov	r7, r2
 3772 2e84 0190A0E1 		mov	r9, r1
 3773 2e88 0500A0E1 		mov	r0, r5
 3774 2e8c 086086E2 		add	r6, r6, #8
 3775 2e90 0040A0E3 		mov	r4, #0
 3776 2e94 04308DE5 		str	r3, [sp, #4]
 3777              	.L852:
 3778 2e98 C02C95E5 		ldr	r2, [r5, #3264]
 3779 2e9c 012042E2 		sub	r2, r2, #1
 3780 2ea0 CF0272E3 		cmn	r2, #-268435444
 3781 2ea4 3500008A 		bhi	.L851
 3782 2ea8 070054E1 		cmp	r4, r7
 3783 2eac 2300002A 		bcs	.L868
 3784 2eb0 D40F95E5 		ldr	r0, [r5, #4052]
 3785 2eb4 FD1E85E2 		add	r1, r5, #4048
 3786 2eb8 002096E5 		ldr	r2, [r6]
 3787 2ebc 041081E2 		add	r1, r1, #4
 3788 2ec0 020050E1 		cmp	r0, r2
 3789 2ec4 8D00002A 		bcs	.L870
 3790 2ec8 CC2C95E5 		ldr	r2, [r5, #3276]
 3791 2ecc 330D85E2 		add	r0, r5, #3264
 3792 2ed0 0C0080E2 		add	r0, r0, #12
 3793 2ed4 020C52E3 		cmp	r2, #512
 3794 2ed8 04C08930 		addcc	ip, r9, r4
 3795 2edc 0600003A 		bcc	.L855
 3796 2ee0 1B0000EA 		b	.L859
 3797              	.L901:
 3798 2ee4 00E096E5 		ldr	lr, [r6]
 3799 2ee8 02005EE1 		cmp	lr, r2
 3800 2eec 8300009A 		bls	.L870
 3801 2ef0 002090E5 		ldr	r2, [r0]
 3802 2ef4 020C52E3 		cmp	r2, #512
 3803 2ef8 1500002A 		bcs	.L859
 3804              	.L855:
 3805 2efc 02E085E0 		add	lr, r5, r2
 3806 2f00 012082E2 		add	r2, r2, #1
 3807 2f04 002080E5 		str	r2, [r0]
 3808 2f08 014084E2 		add	r4, r4, #1
 3809 2f0c 040057E1 		cmp	r7, r4
 3810 2f10 D02CDEE5 		ldrb	r2, [lr, #3280]	@ zero_extendqisi2
 3811 2f14 0120CCE4 		strb	r2, [ip], #1
 3812 2f18 002091E5 		ldr	r2, [r1]
 3813 2f1c 012082E2 		add	r2, r2, #1
 3814 2f20 002081E5 		str	r2, [r1]
 3815 2f24 EEFFFF1A 		bne	.L901
 3816              	.L853:
 3817 2f28 08309DE5 		ldr	r3, [sp, #8]
 3818 2f2c 000053E3 		cmp	r3, #0
 3819 2f30 0100A003 		moveq	r0, #1
ARM GAS  C:\Users\ldebo\AppData\Local\Temp\cc9oeUFF.s 			page 68


 3820 2f34 00708315 		strne	r7, [r3]
 3821 2f38 0100A013 		movne	r0, #1
 3822 2f3c 100000EA 		b	.L858
 3823              	.L868:
 3824 2f40 F8FFFF0A 		beq	.L853
 3825 2f44 D41F95E5 		ldr	r1, [r5, #4052]
 3826 2f48 002096E5 		ldr	r2, [r6]
 3827 2f4c 020051E1 		cmp	r1, r2
 3828 2f50 6A00002A 		bcs	.L870
 3829              	.L859:
 3830 2f54 C82C95E5 		ldr	r2, [r5, #3272]
 3831 2f58 581098E5 		ldr	r1, [r8, #88]
 3832 2f5c 01B082E2 		add	fp, r2, #1
 3833 2f60 01005BE1 		cmp	fp, r1
 3834 2f64 C8BC85E5 		str	fp, [r5, #3272]
 3835 2f68 3000002A 		bcs	.L860
 3836 2f6c 4010D8E5 		ldrb	r1, [r8, #64]	@ zero_extendqisi2
 3837 2f70 0000A0E3 		mov	r0, #0
 3838 2f74 CC0C85E5 		str	r0, [r5, #3276]
 3839 2f78 000051E1 		cmp	r1, r0
 3840 2f7c 0400001A 		bne	.L902
 3841              	.L851:
 3842 2f80 0000A0E3 		mov	r0, #0
 3843              	.L858:
 3844 2f84 14D08DE2 		add	sp, sp, #20
 3845              		@ sp needed
 3846 2f88 F08FBDE8 		pop	{r4, r5, r6, r7, r8, r9, r10, fp, pc}
 3847              	.L895:
 3848 2f8c 0000A0E3 		mov	r0, #0
 3849 2f90 1EFF2FE1 		bx	lr
 3850              	.L902:
 3851 2f94 C43C95E5 		ldr	r3, [r5, #3268]
 3852 2f98 0C308DE5 		str	r3, [sp, #12]
 3853 2f9c 17F4FFEB 		bl	sdWaitForData
 3854 2fa0 000050E3 		cmp	r0, #0
 3855 2fa4 F5FFFF1A 		bne	.L851
 3856 2fa8 00209AE5 		ldr	r2, [r10]
 3857 2fac 02CCA0E3 		mov	ip, #512
 3858 2fb0 4000D8E5 		ldrb	r0, [r8, #64]	@ zero_extendqisi2
 3859 2fb4 032682E2 		add	r2, r2, #3145728
 3860 2fb8 0C309DE5 		ldr	r3, [sp, #12]
 3861 2fbc 030050E3 		cmp	r0, #3
 3862 2fc0 70019FE5 		ldr	r0, .L903
 3863 2fc4 03108BE0 		add	r1, fp, r3
 3864 2fc8 04E092E5 		ldr	lr, [r2, #4]
 3865 2fcc 8114A001 		lsleq	r1, r1, #9
 3866 2fd0 01E040E3 		movt	lr, 1
 3867 2fd4 04E082E5 		str	lr, [r2, #4]
 3868 2fd8 04E092E5 		ldr	lr, [r2, #4]
 3869 2fdc 1CE0C9E7 		bfi	lr, ip, #0, #10
 3870 2fe0 04E082E5 		str	lr, [r2, #4]
 3871 2fe4 E7F5FFEB 		bl	sdSendCommandP
 3872 2fe8 70B0EFE6 		uxtb	fp, r0
 3873 2fec 00005BE3 		cmp	fp, #0
 3874 2ff0 E2FFFF1A 		bne	.L851
 3875 2ff4 2000A0E3 		mov	r0, #32
 3876 2ff8 40F4FFEB 		bl	sdWaitForInterrupt
ARM GAS  C:\Users\ldebo\AppData\Local\Temp\cc9oeUFF.s 			page 69


 3877 2ffc 000050E3 		cmp	r0, #0
 3878 3000 4400001A 		bne	.L900
 3879 3004 00009AE5 		ldr	r0, [r10]
 3880 3008 04309DE5 		ldr	r3, [sp, #4]
 3881 300c 030680E2 		add	r0, r0, #3145728
 3882 3010 042043E2 		sub	r2, r3, #4
 3883 3014 7FCF83E2 		add	ip, r3, #508
 3884 3018 200080E2 		add	r0, r0, #32
 3885              	.L863:
 3886 301c 001090E5 		ldr	r1, [r0]
 3887 3020 0410A2E5 		str	r1, [r2, #4]!
 3888 3024 0C0052E1 		cmp	r2, ip
 3889 3028 FBFFFF1A 		bne	.L863
 3890 302c 99FFFFEA 		b	.L852
 3891              	.L860:
 3892 3030 0020A0E3 		mov	r2, #0
 3893 3034 C00C95E5 		ldr	r0, [r5, #3264]
 3894 3038 0210A0E1 		mov	r1, r2
 3895 303c FEFFFFEB 		bl	getSetNextCluster
 3896 3040 582098E5 		ldr	r2, [r8, #88]
 3897 3044 02B040E2 		sub	fp, r0, #2
 3898 3048 40C0D8E5 		ldrb	ip, [r8, #64]	@ zero_extendqisi2
 3899 304c 601098E5 		ldr	r1, [r8, #96]
 3900 3050 00005CE3 		cmp	ip, #0
 3901 3054 C00C85E5 		str	r0, [r5, #3264]
 3902 3058 921B2BE0 		mla	fp, r2, fp, r1
 3903 305c 0020A0E3 		mov	r2, #0
 3904 3060 C82C85E5 		str	r2, [r5, #3272]
 3905 3064 C4BC85E5 		str	fp, [r5, #3268]
 3906 3068 CC2C85E5 		str	r2, [r5, #3276]
 3907 306c C3FFFF0A 		beq	.L851
 3908 3070 E2F3FFEB 		bl	sdWaitForData
 3909 3074 000050E3 		cmp	r0, #0
 3910 3078 C0FFFF1A 		bne	.L851
 3911 307c 4020D8E5 		ldrb	r2, [r8, #64]	@ zero_extendqisi2
 3912 3080 02CCA0E3 		mov	ip, #512
 3913 3084 AC009FE5 		ldr	r0, .L903
 3914 3088 030052E3 		cmp	r2, #3
 3915 308c 00209AE5 		ldr	r2, [r10]
 3916 3090 032682E2 		add	r2, r2, #3145728
 3917 3094 8BB4A001 		lsleq	fp, fp, #9
 3918 3098 0B10A0E1 		mov	r1, fp
 3919 309c 04E092E5 		ldr	lr, [r2, #4]
 3920 30a0 01E040E3 		movt	lr, 1
 3921 30a4 04E082E5 		str	lr, [r2, #4]
 3922 30a8 04E092E5 		ldr	lr, [r2, #4]
 3923 30ac 1CE0C9E7 		bfi	lr, ip, #0, #10
 3924 30b0 04E082E5 		str	lr, [r2, #4]
 3925 30b4 B3F5FFEB 		bl	sdSendCommandP
 3926 30b8 70B0EFE6 		uxtb	fp, r0
 3927 30bc 00005BE3 		cmp	fp, #0
 3928 30c0 AEFFFF1A 		bne	.L851
 3929 30c4 2000A0E3 		mov	r0, #32
 3930 30c8 0CF4FFEB 		bl	sdWaitForInterrupt
 3931 30cc 000050E3 		cmp	r0, #0
 3932 30d0 1000001A 		bne	.L900
 3933 30d4 00009AE5 		ldr	r0, [r10]
ARM GAS  C:\Users\ldebo\AppData\Local\Temp\cc9oeUFF.s 			page 70


 3934 30d8 04309DE5 		ldr	r3, [sp, #4]
 3935 30dc 030680E2 		add	r0, r0, #3145728
 3936 30e0 042043E2 		sub	r2, r3, #4
 3937 30e4 7FCF83E2 		add	ip, r3, #508
 3938 30e8 200080E2 		add	r0, r0, #32
 3939              	.L866:
 3940 30ec 001090E5 		ldr	r1, [r0]
 3941 30f0 0410A2E5 		str	r1, [r2, #4]!
 3942 30f4 02005CE1 		cmp	ip, r2
 3943 30f8 FBFFFF1A 		bne	.L866
 3944 30fc 65FFFFEA 		b	.L852
 3945              	.L870:
 3946 3100 08309DE5 		ldr	r3, [sp, #8]
 3947 3104 000053E3 		cmp	r3, #0
 3948 3108 9CFFFF0A 		beq	.L851
 3949 310c 004083E5 		str	r4, [r3]
 3950 3110 0000A0E3 		mov	r0, #0
 3951 3114 9AFFFFEA 		b	.L858
 3952              	.L900:
 3953 3118 003098E5 		ldr	r3, [r8]
 3954 311c 000053E3 		cmp	r3, #0
 3955 3120 96FFFF0A 		beq	.L851
 3956 3124 000000E3 		movw	r0, #:lower16:.LC8
 3957 3128 000040E3 		movt	r0, #:upper16:.LC8
 3958 312c 33FF2FE1 		blx	r3
 3959 3130 0B00A0E1 		mov	r0, fp
 3960 3134 92FFFFEA 		b	.L858
 3961              	.L904:
 3962              		.align	2
 3963              	.L903:
 3964 3138 50010000 		.word	.LANCHOR1+336
 3965              		.size	sdReadFile, .-sdReadFile
 3966              		.align	2
 3967              		.global	sdCloseHandle
 3968              		.syntax unified
 3969              		.arm
 3970              		.fpu neon-vfpv4
 3971              		.type	sdCloseHandle, %function
 3972              	sdCloseHandle:
 3973              		@ args = 0, pretend = 0, frame = 0
 3974              		@ frame_needed = 0, uses_anonymous_args = 0
 3975              		@ link register save eliminated.
 3976 313c 010040E2 		sub	r0, r0, #1
 3977 3140 070050E3 		cmp	r0, #7
 3978 3144 0900008A 		bhi	.L907
 3979 3148 C72FA0E3 		mov	r2, #796
 3980 314c 003000E3 		movw	r3, #:lower16:.LANCHOR0
 3981 3150 003040E3 		movt	r3, #:upper16:.LANCHOR0
 3982 3154 923023E0 		mla	r3, r2, r0, r3
 3983 3158 C40C93E5 		ldr	r0, [r3, #3268]
 3984 315c 000050E3 		cmp	r0, #0
 3985 3160 0020A013 		movne	r2, #0
 3986 3164 0100A013 		movne	r0, #1
 3987 3168 C42C8315 		strne	r2, [r3, #3268]
 3988 316c 1EFF2FE1 		bx	lr
 3989              	.L907:
 3990 3170 0000A0E3 		mov	r0, #0
ARM GAS  C:\Users\ldebo\AppData\Local\Temp\cc9oeUFF.s 			page 71


 3991 3174 1EFF2FE1 		bx	lr
 3992              		.size	sdCloseHandle, .-sdCloseHandle
 3993              		.align	2
 3994              		.global	sdSetFilePointer
 3995              		.syntax unified
 3996              		.arm
 3997              		.fpu neon-vfpv4
 3998              		.type	sdSetFilePointer, %function
 3999              	sdSetFilePointer:
 4000              		@ args = 0, pretend = 0, frame = 8
 4001              		@ frame_needed = 0, uses_anonymous_args = 0
 4002 3178 F04F2DE9 		push	{r4, r5, r6, r7, r8, r9, r10, fp, lr}
 4003 317c 014040E2 		sub	r4, r0, #1
 4004 3180 070054E3 		cmp	r4, #7
 4005 3184 0CD04DE2 		sub	sp, sp, #12
 4006 3188 0200009A 		bls	.L958
 4007              	.L955:
 4008 318c 0000E0E3 		mvn	r0, #0
 4009              	.L909:
 4010 3190 0CD08DE2 		add	sp, sp, #12
 4011              		@ sp needed
 4012 3194 F08FBDE8 		pop	{r4, r5, r6, r7, r8, r9, r10, fp, pc}
 4013              	.L958:
 4014 3198 0270A0E1 		mov	r7, r2
 4015 319c C72FA0E3 		mov	r2, #796
 4016 31a0 005000E3 		movw	r5, #:lower16:.LANCHOR0
 4017 31a4 005040E3 		movt	r5, #:upper16:.LANCHOR0
 4018 31a8 0160A0E1 		mov	r6, r1
 4019 31ac 925422E0 		mla	r2, r2, r4, r5
 4020 31b0 C41C92E5 		ldr	r1, [r2, #3268]
 4021 31b4 000051E3 		cmp	r1, #0
 4022 31b8 F3FFFF0A 		beq	.L955
 4023 31bc 010053E3 		cmp	r3, #1
 4024 31c0 A000000A 		beq	.L914
 4025 31c4 020053E3 		cmp	r3, #2
 4026 31c8 D83F92E5 		ldr	r3, [r2, #4056]
 4027 31cc 03608600 		addeq	r6, r6, r3
 4028              	.L916:
 4029 31d0 030056E1 		cmp	r6, r3
 4030 31d4 ECFFFF8A 		bhi	.L955
 4031 31d8 C79FA0E3 		mov	r9, #796
 4032 31dc 990409E0 		mul	r9, r9, r4
 4033 31e0 098085E0 		add	r8, r5, r9
 4034 31e4 D40F98E5 		ldr	r0, [r8, #4052]
 4035 31e8 000056E1 		cmp	r6, r0
 4036 31ec E7FFFF0A 		beq	.L909
 4037 31f0 D02F98E5 		ldr	r2, [r8, #4048]
 4038 31f4 0030A0E3 		mov	r3, #0
 4039 31f8 581095E5 		ldr	r1, [r5, #88]
 4040 31fc 02A042E2 		sub	r10, r2, #2
 4041 3200 4000D5E5 		ldrb	r0, [r5, #64]	@ zero_extendqisi2
 4042 3204 C02C88E5 		str	r2, [r8, #3264]
 4043 3208 030050E1 		cmp	r0, r3
 4044 320c 602095E5 		ldr	r2, [r5, #96]
 4045 3210 912A2AE0 		mla	r10, r1, r10, r2
 4046 3214 C83C88E5 		str	r3, [r8, #3272]
 4047 3218 CC3C88E5 		str	r3, [r8, #3276]
ARM GAS  C:\Users\ldebo\AppData\Local\Temp\cc9oeUFF.s 			page 72


 4048 321c C4AC88E5 		str	r10, [r8, #3268]
 4049 3220 D43F88E5 		str	r3, [r8, #4052]
 4050 3224 D8FFFF0A 		beq	.L955
 4051 3228 74F3FFEB 		bl	sdWaitForData
 4052 322c 003050E2 		subs	r3, r0, #0
 4053 3230 D5FFFF1A 		bne	.L955
 4054 3234 38229FE5 		ldr	r2, .L959
 4055 3238 0A00A0E1 		mov	r0, r10
 4056 323c 0110A0E3 		mov	r1, #1
 4057 3240 029089E0 		add	r9, r9, r2
 4058 3244 0920A0E1 		mov	r2, r9
 4059 3248 78F7FFEB 		bl	sdTransferBlocks.part.5
 4060 324c 000050E3 		cmp	r0, #0
 4061 3250 CDFFFF1A 		bne	.L955
 4062 3254 020C56E3 		cmp	r6, #512
 4063 3258 D43F9895 		ldrls	r3, [r8, #4052]
 4064 325c 3800009A 		bls	.L918
 4065 3260 33AD88E2 		add	r10, r8, #3264
 4066 3264 08A08AE2 		add	r10, r10, #8
 4067              	.L923:
 4068 3268 00309AE5 		ldr	r3, [r10]
 4069 326c 582095E5 		ldr	r2, [r5, #88]
 4070 3270 01B083E2 		add	fp, r3, #1
 4071 3274 02005BE1 		cmp	fp, r2
 4072 3278 00B08AE5 		str	fp, [r10]
 4073 327c 3C00002A 		bcs	.L919
 4074 3280 4020D5E5 		ldrb	r2, [r5, #64]	@ zero_extendqisi2
 4075 3284 0010A0E3 		mov	r1, #0
 4076 3288 CC1C88E5 		str	r1, [r8, #3276]
 4077 328c 010052E1 		cmp	r2, r1
 4078 3290 BDFFFF0A 		beq	.L955
 4079 3294 C43C98E5 		ldr	r3, [r8, #3268]
 4080 3298 04308DE5 		str	r3, [sp, #4]
 4081 329c 57F3FFEB 		bl	sdWaitForData
 4082 32a0 000050E3 		cmp	r0, #0
 4083 32a4 B8FFFF1A 		bne	.L955
 4084 32a8 04309DE5 		ldr	r3, [sp, #4]
 4085 32ac 4020D5E5 		ldrb	r2, [r5, #64]	@ zero_extendqisi2
 4086 32b0 03108BE0 		add	r1, fp, r3
 4087 32b4 00B000E3 		movw	fp, #:lower16:RPi_IO_Base_Addr
 4088 32b8 00B040E3 		movt	fp, #:upper16:RPi_IO_Base_Addr
 4089 32bc 030052E3 		cmp	r2, #3
 4090 32c0 022CA0E3 		mov	r2, #512
 4091 32c4 AC019FE5 		ldr	r0, .L959+4
 4092 32c8 00309BE5 		ldr	r3, [fp]
 4093 32cc 8114A001 		lsleq	r1, r1, #9
 4094 32d0 033683E2 		add	r3, r3, #3145728
 4095 32d4 04C093E5 		ldr	ip, [r3, #4]
 4096 32d8 01C040E3 		movt	ip, 1
 4097 32dc 04C083E5 		str	ip, [r3, #4]
 4098 32e0 04C093E5 		ldr	ip, [r3, #4]
 4099 32e4 12C0C9E7 		bfi	ip, r2, #0, #10
 4100 32e8 04C083E5 		str	ip, [r3, #4]
 4101 32ec 25F5FFEB 		bl	sdSendCommandP
 4102 32f0 FF0010E3 		tst	r0, #255
 4103 32f4 A4FFFF1A 		bne	.L955
 4104 32f8 2000A0E3 		mov	r0, #32
ARM GAS  C:\Users\ldebo\AppData\Local\Temp\cc9oeUFF.s 			page 73


 4105 32fc 7FF3FFEB 		bl	sdWaitForInterrupt
 4106 3300 000050E3 		cmp	r0, #0
 4107 3304 5300001A 		bne	.L957
 4108 3308 00109BE5 		ldr	r1, [fp]
 4109 330c 043049E2 		sub	r3, r9, #4
 4110 3310 7F0F89E2 		add	r0, r9, #508
 4111 3314 031681E2 		add	r1, r1, #3145728
 4112 3318 201081E2 		add	r1, r1, #32
 4113              	.L922:
 4114 331c 002091E5 		ldr	r2, [r1]
 4115 3320 0420A3E5 		str	r2, [r3, #4]!
 4116 3324 000053E1 		cmp	r3, r0
 4117 3328 FBFFFF1A 		bne	.L922
 4118              	.L927:
 4119 332c 026C46E2 		sub	r6, r6, #512
 4120 3330 D43F98E5 		ldr	r3, [r8, #4052]
 4121 3334 020C56E3 		cmp	r6, #512
 4122 3338 023C83E2 		add	r3, r3, #512
 4123 333c D43F88E5 		str	r3, [r8, #4052]
 4124 3340 C8FFFF8A 		bhi	.L923
 4125              	.L918:
 4126 3344 C72FA0E3 		mov	r2, #796
 4127 3348 063083E0 		add	r3, r3, r6
 4128 334c 000057E3 		cmp	r7, #0
 4129 3350 925422E0 		mla	r2, r2, r4, r5
 4130 3354 D43F82E5 		str	r3, [r2, #4052]
 4131 3358 0030A013 		movne	r3, #0
 4132 335c CC6C82E5 		str	r6, [r2, #3276]
 4133 3360 00308715 		strne	r3, [r7]
 4134 3364 C73FA0E3 		mov	r3, #796
 4135 3368 935424E0 		mla	r4, r3, r4, r5
 4136 336c D40F94E5 		ldr	r0, [r4, #4052]
 4137 3370 86FFFFEA 		b	.L909
 4138              	.L919:
 4139 3374 0020A0E3 		mov	r2, #0
 4140 3378 C00C98E5 		ldr	r0, [r8, #3264]
 4141 337c 0210A0E1 		mov	r1, r2
 4142 3380 FEFFFFEB 		bl	getSetNextCluster
 4143 3384 582095E5 		ldr	r2, [r5, #88]
 4144 3388 021040E2 		sub	r1, r0, #2
 4145 338c 40C0D5E5 		ldrb	ip, [r5, #64]	@ zero_extendqisi2
 4146 3390 603095E5 		ldr	r3, [r5, #96]
 4147 3394 00005CE3 		cmp	ip, #0
 4148 3398 C00C88E5 		str	r0, [r8, #3264]
 4149 339c 923121E0 		mla	r1, r2, r1, r3
 4150 33a0 0030A0E3 		mov	r3, #0
 4151 33a4 00308AE5 		str	r3, [r10]
 4152 33a8 C41C88E5 		str	r1, [r8, #3268]
 4153 33ac CC3C88E5 		str	r3, [r8, #3276]
 4154 33b0 75FFFF0A 		beq	.L955
 4155 33b4 04108DE5 		str	r1, [sp, #4]
 4156 33b8 10F3FFEB 		bl	sdWaitForData
 4157 33bc 000050E3 		cmp	r0, #0
 4158 33c0 04109DE5 		ldr	r1, [sp, #4]
 4159 33c4 70FFFF1A 		bne	.L955
 4160 33c8 00B000E3 		movw	fp, #:lower16:RPi_IO_Base_Addr
 4161 33cc 00B040E3 		movt	fp, #:upper16:RPi_IO_Base_Addr
ARM GAS  C:\Users\ldebo\AppData\Local\Temp\cc9oeUFF.s 			page 74


 4162 33d0 4030D5E5 		ldrb	r3, [r5, #64]	@ zero_extendqisi2
 4163 33d4 022CA0E3 		mov	r2, #512
 4164 33d8 98009FE5 		ldr	r0, .L959+4
 4165 33dc 030053E3 		cmp	r3, #3
 4166 33e0 00309BE5 		ldr	r3, [fp]
 4167 33e4 033683E2 		add	r3, r3, #3145728
 4168 33e8 8114A001 		lsleq	r1, r1, #9
 4169 33ec 04C093E5 		ldr	ip, [r3, #4]
 4170 33f0 01C040E3 		movt	ip, 1
 4171 33f4 04C083E5 		str	ip, [r3, #4]
 4172 33f8 04C093E5 		ldr	ip, [r3, #4]
 4173 33fc 12C0C9E7 		bfi	ip, r2, #0, #10
 4174 3400 04C083E5 		str	ip, [r3, #4]
 4175 3404 DFF4FFEB 		bl	sdSendCommandP
 4176 3408 FF0010E3 		tst	r0, #255
 4177 340c 5EFFFF1A 		bne	.L955
 4178 3410 2000A0E3 		mov	r0, #32
 4179 3414 39F3FFEB 		bl	sdWaitForInterrupt
 4180 3418 000050E3 		cmp	r0, #0
 4181 341c 0D00001A 		bne	.L957
 4182 3420 00109BE5 		ldr	r1, [fp]
 4183 3424 043049E2 		sub	r3, r9, #4
 4184 3428 7F0F89E2 		add	r0, r9, #508
 4185 342c 031681E2 		add	r1, r1, #3145728
 4186 3430 201081E2 		add	r1, r1, #32
 4187              	.L926:
 4188 3434 002091E5 		ldr	r2, [r1]
 4189 3438 0420A3E5 		str	r2, [r3, #4]!
 4190 343c 000053E1 		cmp	r3, r0
 4191 3440 FBFFFF1A 		bne	.L926
 4192 3444 B8FFFFEA 		b	.L927
 4193              	.L914:
 4194 3448 D41F92E5 		ldr	r1, [r2, #4052]
 4195 344c D83F92E5 		ldr	r3, [r2, #4056]
 4196 3450 016086E0 		add	r6, r6, r1
 4197 3454 5DFFFFEA 		b	.L916
 4198              	.L957:
 4199 3458 003095E5 		ldr	r3, [r5]
 4200 345c 000053E3 		cmp	r3, #0
 4201 3460 49FFFF0A 		beq	.L955
 4202 3464 000000E3 		movw	r0, #:lower16:.LC8
 4203 3468 000040E3 		movt	r0, #:upper16:.LC8
 4204 346c 33FF2FE1 		blx	r3
 4205 3470 45FFFFEA 		b	.L955
 4206              	.L960:
 4207              		.align	2
 4208              	.L959:
 4209 3474 D00C0000 		.word	.LANCHOR0+3280
 4210 3478 50010000 		.word	.LANCHOR1+336
 4211              		.size	sdSetFilePointer, .-sdSetFilePointer
 4212              		.align	2
 4213              		.global	sdGetFileSize
 4214              		.syntax unified
 4215              		.arm
 4216              		.fpu neon-vfpv4
 4217              		.type	sdGetFileSize, %function
 4218              	sdGetFileSize:
ARM GAS  C:\Users\ldebo\AppData\Local\Temp\cc9oeUFF.s 			page 75


 4219              		@ args = 0, pretend = 0, frame = 0
 4220              		@ frame_needed = 0, uses_anonymous_args = 0
 4221              		@ link register save eliminated.
 4222 347c 010040E2 		sub	r0, r0, #1
 4223 3480 070050E3 		cmp	r0, #7
 4224 3484 0700008A 		bhi	.L963
 4225 3488 C72FA0E3 		mov	r2, #796
 4226 348c 003000E3 		movw	r3, #:lower16:.LANCHOR0
 4227 3490 003040E3 		movt	r3, #:upper16:.LANCHOR0
 4228 3494 923023E0 		mla	r3, r2, r0, r3
 4229 3498 C40C93E5 		ldr	r0, [r3, #3268]
 4230 349c 000050E3 		cmp	r0, #0
 4231 34a0 D80F9315 		ldrne	r0, [r3, #4056]
 4232 34a4 1EFF2FE1 		bx	lr
 4233              	.L963:
 4234 34a8 0000A0E3 		mov	r0, #0
 4235 34ac 1EFF2FE1 		bx	lr
 4236              		.size	sdGetFileSize, .-sdGetFileSize
 4237              		.align	2
 4238              		.global	sdInitCard
 4239              		.syntax unified
 4240              		.arm
 4241              		.fpu neon-vfpv4
 4242              		.type	sdInitCard, %function
 4243              	sdInitCard:
 4244              		@ args = 0, pretend = 0, frame = 0
 4245              		@ frame_needed = 0, uses_anonymous_args = 0
 4246 34b0 F0432DE9 		push	{r4, r5, r6, r7, r8, r9, lr}
 4247 34b4 004000E3 		movw	r4, #:lower16:.LANCHOR0
 4248 34b8 004040E3 		movt	r4, #:upper16:.LANCHOR0
 4249 34bc 3CD04DE2 		sub	sp, sp, #60
 4250 34c0 0060A0E1 		mov	r6, r0
 4251 34c4 0270A0E1 		mov	r7, r2
 4252 34c8 001084E5 		str	r1, [r4]
 4253 34cc 70F6FFEB 		bl	sdResetCard
 4254 34d0 005050E2 		subs	r5, r0, #0
 4255 34d4 0200000A 		beq	.L1034
 4256              	.L1005:
 4257 34d8 0500A0E1 		mov	r0, r5
 4258 34dc 3CD08DE2 		add	sp, sp, #60
 4259              		@ sp needed
 4260 34e0 F083BDE8 		pop	{r4, r5, r6, r7, r8, r9, pc}
 4261              	.L1034:
 4262 34e4 AA1100E3 		movw	r1, #426
 4263 34e8 D0039FE5 		ldr	r0, .L1039
 4264 34ec A5F4FFEB 		bl	sdSendCommandP
 4265 34f0 7050EFE6 		uxtb	r5, r0
 4266 34f4 000055E3 		cmp	r5, #0
 4267 34f8 3F00000A 		beq	.L1035
 4268 34fc 030055E3 		cmp	r5, #3
 4269 3500 F4FFFF0A 		beq	.L1005
 4270 3504 003000E3 		movw	r3, #:lower16:RPi_IO_Base_Addr
 4271 3508 003040E3 		movt	r3, #:upper16:RPi_IO_Base_Addr
 4272 350c 003093E5 		ldr	r3, [r3]
 4273 3510 033683E2 		add	r3, r3, #3145728
 4274 3514 243093E5 		ldr	r3, [r3, #36]
 4275 3518 010013E3 		tst	r3, #1
ARM GAS  C:\Users\ldebo\AppData\Local\Temp\cc9oeUFF.s 			page 76


 4276 351c 3200001A 		bne	.L972
 4277              	.L974:
 4278 3520 0209A0E3 		mov	r0, #32768
 4279 3524 FF0040E3 		movt	r0, 255
 4280 3528 C4F5FFEB 		bl	sdAppSendOpCond
 4281 352c 005050E2 		subs	r5, r0, #0
 4282 3530 0230A003 		moveq	r3, #2
 4283 3534 4030C405 		strbeq	r3, [r4, #64]
 4284 3538 E6FFFF1A 		bne	.L1005
 4285              	.L971:
 4286 353c 008000E3 		movw	r8, #:lower16:.LANCHOR1
 4287 3540 008040E3 		movt	r8, #:upper16:.LANCHOR1
 4288 3544 78039FE5 		ldr	r0, .L1039+4
 4289 3548 2C10D8E5 		ldrb	r1, [r8, #44]	@ zero_extendqisi2
 4290 354c 011011E2 		ands	r1, r1, #1
 4291 3550 44109415 		ldrne	r1, [r4, #68]
 4292 3554 8BF4FFEB 		bl	sdSendCommandP
 4293 3558 7050EFE6 		uxtb	r5, r0
 4294 355c 000055E3 		cmp	r5, #0
 4295 3560 DCFFFF1A 		bne	.L1005
 4296 3564 4410D8E5 		ldrb	r1, [r8, #68]	@ zero_extendqisi2
 4297 3568 58039FE5 		ldr	r0, .L1039+8
 4298 356c 011011E2 		ands	r1, r1, #1
 4299 3570 44109415 		ldrne	r1, [r4, #68]
 4300 3574 83F4FFEB 		bl	sdSendCommandP
 4301 3578 7050EFE6 		uxtb	r5, r0
 4302 357c 000055E3 		cmp	r5, #0
 4303 3580 D4FFFF1A 		bne	.L1005
 4304 3584 BC30D8E5 		ldrb	r3, [r8, #188]	@ zero_extendqisi2
 4305 3588 3C039FE5 		ldr	r0, .L1039+12
 4306 358c 011013E2 		ands	r1, r3, #1
 4307 3590 44109415 		ldrne	r1, [r4, #68]
 4308 3594 7BF4FFEB 		bl	sdSendCommandP
 4309 3598 7050EFE6 		uxtb	r5, r0
 4310 359c 000055E3 		cmp	r5, #0
 4311 35a0 CCFFFF1A 		bne	.L1005
 4312 35a4 400807E3 		movw	r0, #30784
 4313 35a8 7D0140E3 		movt	r0, 381
 4314 35ac 31F3FFEB 		bl	sdSetClock
 4315 35b0 005050E2 		subs	r5, r0, #0
 4316 35b4 C7FFFF1A 		bne	.L1005
 4317 35b8 8C30D8E5 		ldrb	r3, [r8, #140]	@ zero_extendqisi2
 4318 35bc 0C039FE5 		ldr	r0, .L1039+16
 4319 35c0 011013E2 		ands	r1, r3, #1
 4320 35c4 44109415 		ldrne	r1, [r4, #68]
 4321 35c8 6EF4FFEB 		bl	sdSendCommandP
 4322 35cc 7050EFE6 		uxtb	r5, r0
 4323 35d0 000055E3 		cmp	r5, #0
 4324 35d4 BFFFFF1A 		bne	.L1005
 4325 35d8 88F2FFEB 		bl	sdWaitForData
 4326 35dc 000050E3 		cmp	r0, #0
 4327 35e0 1000000A 		beq	.L979
 4328              	.L990:
 4329 35e4 0250A0E3 		mov	r5, #2
 4330 35e8 BAFFFFEA 		b	.L1005
 4331              	.L972:
 4332 35ec 28F6FFEB 		bl	sdResetCard
ARM GAS  C:\Users\ldebo\AppData\Local\Temp\cc9oeUFF.s 			page 77


 4333 35f0 005050E2 		subs	r5, r0, #0
 4334 35f4 C9FFFF0A 		beq	.L974
 4335 35f8 B6FFFFEA 		b	.L1005
 4336              	.L1035:
 4337 35fc 0209A0E3 		mov	r0, #32768
 4338 3600 FF0045E3 		movt	r0, 20735
 4339 3604 8DF5FFEB 		bl	sdAppSendOpCond
 4340 3608 005050E2 		subs	r5, r0, #0
 4341 360c B1FFFF1A 		bne	.L1005
 4342 3610 4B30D4E5 		ldrb	r3, [r4, #75]	@ zero_extendqisi2
 4343 3614 400013E3 		tst	r3, #64
 4344 3618 0430A013 		movne	r3, #4
 4345 361c 0330A003 		moveq	r3, #3
 4346 3620 4030C4E5 		strb	r3, [r4, #64]
 4347 3624 C4FFFFEA 		b	.L971
 4348              	.L979:
 4349 3628 008000E3 		movw	r8, #:lower16:RPi_IO_Base_Addr
 4350 362c 008040E3 		movt	r8, #:upper16:RPi_IO_Base_Addr
 4351 3630 0810A0E3 		mov	r1, #8
 4352 3634 2600A0E3 		mov	r0, #38
 4353 3638 003098E5 		ldr	r3, [r8]
 4354 363c 033683E2 		add	r3, r3, #3145728
 4355 3640 042093E5 		ldr	r2, [r3, #4]
 4356 3644 012040E3 		movt	r2, 1
 4357 3648 042083E5 		str	r2, [r3, #4]
 4358 364c 042093E5 		ldr	r2, [r3, #4]
 4359 3650 1120C9E7 		bfi	r2, r1, #0, #10
 4360 3654 042083E5 		str	r2, [r3, #4]
 4361 3658 DDF5FFEB 		bl	sdSendCommand
 4362 365c 005050E2 		subs	r5, r0, #0
 4363 3660 9CFFFF1A 		bne	.L1005
 4364 3664 2000A0E3 		mov	r0, #32
 4365 3668 A4F2FFEB 		bl	sdWaitForInterrupt
 4366 366c 005050E2 		subs	r5, r0, #0
 4367 3670 6800001A 		bne	.L980
 4368 3674 0590A0E1 		mov	r9, r5
 4369 3678 A05608E3 		movw	r5, #34464
 4370 367c 015040E3 		movt	r5, 1
 4371              	.L981:
 4372 3680 003098E5 		ldr	r3, [r8]
 4373 3684 033683E2 		add	r3, r3, #3145728
 4374 3688 242093E5 		ldr	r2, [r3, #36]
 4375 368c 020C12E3 		tst	r2, #512
 4376 3690 4900000A 		beq	.L982
 4377 3694 203093E5 		ldr	r3, [r3, #32]
 4378 3698 000059E3 		cmp	r9, #0
 4379 369c 019089E2 		add	r9, r9, #1
 4380 36a0 2C308405 		streq	r3, [r4, #44]
 4381 36a4 30308415 		strne	r3, [r4, #48]
 4382 36a8 010059E3 		cmp	r9, #1
 4383 36ac F3FFFFDA 		ble	.L981
 4384 36b0 020059E3 		cmp	r9, #2
 4385 36b4 4500001A 		bne	.L987
 4386 36b8 2D30D4E5 		ldrb	r3, [r4, #45]	@ zero_extendqisi2
 4387 36bc 0F3003E2 		and	r3, r3, #15
 4388 36c0 040053E3 		cmp	r3, #4
 4389 36c4 5A00000A 		beq	.L1036
ARM GAS  C:\Users\ldebo\AppData\Local\Temp\cc9oeUFF.s 			page 78


 4390              	.L996:
 4391 36c8 021CA0E3 		mov	r1, #512
 4392 36cc 00029FE5 		ldr	r0, .L1039+20
 4393 36d0 2CF4FFEB 		bl	sdSendCommandP
 4394 36d4 7050EFE6 		uxtb	r5, r0
 4395 36d8 000055E3 		cmp	r5, #0
 4396 36dc 7DFFFF1A 		bne	.L1005
 4397 36e0 103094E5 		ldr	r3, [r4, #16]
 4398 36e4 000056E3 		cmp	r6, #0
 4399 36e8 14C094E5 		ldr	ip, [r4, #20]
 4400 36ec 2CC8A0E1 		lsr	ip, ip, #16
 4401 36f0 03C88CE1 		orr	ip, ip, r3, lsl #16
 4402 36f4 2900000A 		beq	.L994
 4403 36f8 D823C4E1 		ldrd	r2, [r4, #56]
 4404 36fc 001000E3 		movw	r1, #:lower16:.LANCHOR2
 4405 3700 001040E3 		movt	r1, #:upper16:.LANCHOR2
 4406 3704 0A00D4E5 		ldrb	r0, [r4, #10]	@ zero_extendqisi2
 4407 3708 222AA0E1 		lsr	r2, r2, #20
 4408 370c 0980D4E5 		ldrb	r8, [r4, #9]	@ zero_extendqisi2
 4409 3710 40E0D4E5 		ldrb	lr, [r4, #64]	@ zero_extendqisi2
 4410 3714 032682E1 		orr	r2, r2, r3, lsl #12
 4411 3718 0030A0E1 		mov	r3, r0
 4412 371c 0800D4E5 		ldrb	r0, [r4, #8]	@ zero_extendqisi2
 4413 3720 00808DE5 		str	r8, [sp]
 4414 3724 04008DE5 		str	r0, [sp, #4]
 4415 3728 0E1191E7 		ldr	r1, [r1, lr, lsl #2]
 4416 372c 0F00D4E5 		ldrb	r0, [r4, #15]	@ zero_extendqisi2
 4417 3730 0EE0D4E5 		ldrb	lr, [r4, #14]	@ zero_extendqisi2
 4418 3734 08008DE5 		str	r0, [sp, #8]
 4419 3738 000000E3 		movw	r0, #:lower16:.LC16
 4420 373c 000040E3 		movt	r0, #:upper16:.LC16
 4421 3740 0D90D4E5 		ldrb	r9, [r4, #13]	@ zero_extendqisi2
 4422 3744 2CC08DE5 		str	ip, [sp, #44]
 4423 3748 0C80D4E5 		ldrb	r8, [r4, #12]	@ zero_extendqisi2
 4424 374c 0CE08DE5 		str	lr, [sp, #12]
 4425 3750 13E0D4E5 		ldrb	lr, [r4, #19]	@ zero_extendqisi2
 4426 3754 10908DE5 		str	r9, [sp, #16]
 4427 3758 10C094E5 		ldr	ip, [r4, #16]
 4428 375c 14808DE5 		str	r8, [sp, #20]
 4429 3760 5CCAE3E7 		ubfx	ip, ip, #20, #4
 4430 3764 108094E5 		ldr	r8, [r4, #16]
 4431 3768 18E08DE5 		str	lr, [sp, #24]
 4432 376c 5888E3E7 		ubfx	r8, r8, #16, #4
 4433 3770 14E094E5 		ldr	lr, [r4, #20]
 4434 3774 1CC08DE5 		str	ip, [sp, #28]
 4435 3778 0FE00EE2 		and	lr, lr, #15
 4436 377c 14C094E5 		ldr	ip, [r4, #20]
 4437 3780 B644D4E1 		ldrh	r4, [r4, #70]
 4438 3784 5CC2E7E7 		ubfx	ip, ip, #4, #8
 4439 3788 20808DE5 		str	r8, [sp, #32]
 4440 378c 7DCE8CE2 		add	ip, ip, #2000
 4441 3790 24E08DE5 		str	lr, [sp, #36]
 4442 3794 28C08DE5 		str	ip, [sp, #40]
 4443 3798 30408DE5 		str	r4, [sp, #48]
 4444 379c 36FF2FE1 		blx	r6
 4445              	.L994:
 4446 37a0 000057E3 		cmp	r7, #0
ARM GAS  C:\Users\ldebo\AppData\Local\Temp\cc9oeUFF.s 			page 79


 4447 37a4 4BFFFF0A 		beq	.L1005
 4448 37a8 0600A0E1 		mov	r0, r6
 4449 37ac FEFFFFEB 		bl	LoadDrivePartition
 4450 37b0 000050E3 		cmp	r0, #0
 4451 37b4 0C50A003 		moveq	r5, #12
 4452 37b8 46FFFFEA 		b	.L1005
 4453              	.L982:
 4454 37bc 0100A0E3 		mov	r0, #1
 4455 37c0 0010A0E3 		mov	r1, #0
 4456 37c4 FEFFFFEB 		bl	timer_wait
 4457 37c8 015055E2 		subs	r5, r5, #1
 4458 37cc ABFFFF1A 		bne	.L981
 4459              	.L987:
 4460 37d0 006094E5 		ldr	r6, [r4]
 4461 37d4 000056E3 		cmp	r6, #0
 4462 37d8 81FFFF0A 		beq	.L990
 4463 37dc 003098E5 		ldr	r3, [r8]
 4464 37e0 000000E3 		movw	r0, #:lower16:.LC14
 4465 37e4 000040E3 		movt	r0, #:upper16:.LC14
 4466 37e8 033683E2 		add	r3, r3, #3145728
 4467 37ec 0250A0E3 		mov	r5, #2
 4468 37f0 241093E5 		ldr	r1, [r3, #36]
 4469 37f4 302093E5 		ldr	r2, [r3, #48]
 4470 37f8 103093E5 		ldr	r3, [r3, #16]
 4471 37fc 36FF2FE1 		blx	r6
 4472 3800 003094E5 		ldr	r3, [r4]
 4473 3804 0910A0E1 		mov	r1, r9
 4474 3808 000000E3 		movw	r0, #:lower16:.LC15
 4475 380c 000040E3 		movt	r0, #:upper16:.LC15
 4476 3810 33FF2FE1 		blx	r3
 4477 3814 2FFFFFEA 		b	.L1005
 4478              	.L980:
 4479 3818 003094E5 		ldr	r3, [r4]
 4480 381c 000053E3 		cmp	r3, #0
 4481 3820 2CFFFF0A 		beq	.L1005
 4482 3824 000000E3 		movw	r0, #:lower16:.LC8
 4483 3828 000040E3 		movt	r0, #:upper16:.LC8
 4484 382c 33FF2FE1 		blx	r3
 4485 3830 28FFFFEA 		b	.L1005
 4486              	.L1036:
 4487 3834 449094E5 		ldr	r9, [r4, #68]
 4488 3838 001059E2 		subs	r1, r9, #0
 4489 383c 1A00000A 		beq	.L1037
 4490 3840 90009FE5 		ldr	r0, .L1039+24
 4491 3844 CFF3FFEB 		bl	sdSendCommandP
 4492 3848 7050EFE6 		uxtb	r5, r0
 4493 384c 000055E3 		cmp	r5, #0
 4494 3850 20FFFF1A 		bne	.L1005
 4495 3854 4C3094E5 		ldr	r3, [r4, #76]
 4496 3858 200013E3 		tst	r3, #32
 4497 385c 1500000A 		beq	.L1038
 4498              	.L992:
 4499 3860 021089E3 		orr	r1, r9, #2
 4500 3864 70009FE5 		ldr	r0, .L1039+28
 4501 3868 C6F3FFEB 		bl	sdSendCommandP
 4502 386c 7050EFE6 		uxtb	r5, r0
 4503 3870 000055E3 		cmp	r5, #0
ARM GAS  C:\Users\ldebo\AppData\Local\Temp\cc9oeUFF.s 			page 80


 4504 3874 17FFFF1A 		bne	.L1005
 4505 3878 443094E5 		ldr	r3, [r4, #68]
 4506 387c 000053E3 		cmp	r3, #0
 4507 3880 0300000A 		beq	.L993
 4508 3884 4C3094E5 		ldr	r3, [r4, #76]
 4509 3888 200013E3 		tst	r3, #32
 4510 388c 0950A003 		moveq	r5, #9
 4511 3890 10FFFF0A 		beq	.L1005
 4512              	.L993:
 4513 3894 003098E5 		ldr	r3, [r8]
 4514 3898 033683E2 		add	r3, r3, #3145728
 4515 389c 282093E5 		ldr	r2, [r3, #40]
 4516 38a0 022082E3 		orr	r2, r2, #2
 4517 38a4 282083E5 		str	r2, [r3, #40]
 4518 38a8 86FFFFEA 		b	.L996
 4519              	.L1037:
 4520 38ac 2C009FE5 		ldr	r0, .L1039+32
 4521 38b0 B4F3FFEB 		bl	sdSendCommandP
 4522 38b4 E9FFFFEA 		b	.L992
 4523              	.L1038:
 4524 38b8 0150A0E3 		mov	r5, #1
 4525 38bc 05FFFFEA 		b	.L1005
 4526              	.L1040:
 4527              		.align	2
 4528              	.L1039:
 4529 38c0 90000000 		.word	.LANCHOR1+144
 4530 38c4 18000000 		.word	.LANCHOR1+24
 4531 38c8 30000000 		.word	.LANCHOR1+48
 4532 38cc A8000000 		.word	.LANCHOR1+168
 4533 38d0 78000000 		.word	.LANCHOR1+120
 4534 38d4 38010000 		.word	.LANCHOR1+312
 4535 38d8 D0020000 		.word	.LANCHOR1+720
 4536 38dc 00030000 		.word	.LANCHOR1+768
 4537 38e0 B8020000 		.word	.LANCHOR1+696
 4538              		.size	sdInitCard, .-sdInitCard
 4539              		.align	2
 4540              		.global	sdCardCSD
 4541              		.syntax unified
 4542              		.arm
 4543              		.fpu neon-vfpv4
 4544              		.type	sdCardCSD, %function
 4545              	sdCardCSD:
 4546              		@ args = 0, pretend = 0, frame = 0
 4547              		@ frame_needed = 0, uses_anonymous_args = 0
 4548              		@ link register save eliminated.
 4549 38e4 000000E3 		movw	r0, #:lower16:.LANCHOR0
 4550 38e8 000040E3 		movt	r0, #:upper16:.LANCHOR0
 4551 38ec 4030D0E5 		ldrb	r3, [r0, #64]	@ zero_extendqisi2
 4552 38f0 000053E3 		cmp	r3, #0
 4553 38f4 18008012 		addne	r0, r0, #24
 4554 38f8 0000A003 		moveq	r0, #0
 4555 38fc 1EFF2FE1 		bx	lr
 4556              		.size	sdCardCSD, .-sdCardCSD
 4557              		.global	LOG_ERROR
 4558              		.comm	__errno,4,4
 4559              		.section	.rodata
 4560              		.align	2
ARM GAS  C:\Users\ldebo\AppData\Local\Temp\cc9oeUFF.s 			page 81


 4561              		.set	.LANCHOR2,. + 0
 4562              		.type	SD_TYPE_NAME, %object
 4563              		.size	SD_TYPE_NAME, 20
 4564              	SD_TYPE_NAME:
 4565 0000 40030000 		.word	.LC17
 4566 0004 48030000 		.word	.LC18
 4567 0008 4C030000 		.word	.LC19
 4568 000c 54030000 		.word	.LC20
 4569 0010 60030000 		.word	.LC21
 4570              		.data
 4571              		.align	2
 4572              		.set	.LANCHOR1,. + 0
 4573              		.type	sdCommandTable, %object
 4574              		.size	sdCommandTable, 936
 4575              	sdCommandTable:
 4576 0000 474F5F49 		.ascii	"GO_IDLE_STATE\000"
 4576      444C455F 
 4576      53544154 
 4576      4500
 4577 000e 0000     		.space	2
 4578 0010 0000     		.space	2
 4579 0012 00       		.byte	0
 4580 0013 00       		.byte	0
 4581 0014 00       		.byte	0
 4582 0015 00       		.space	1
 4583 0016 0000     		.short	0
 4584 0018 414C4C5F 		.ascii	"ALL_SEND_CID\000"
 4584      53454E44 
 4584      5F434944 
 4584      00
 4585 0025 000000   		.space	3
 4586 0028 0000     		.space	2
 4587 002a 01       		.byte	1
 4588 002b 02       		.byte	2
 4589 002c 00       		.byte	0
 4590 002d 00       		.space	1
 4591 002e 0000     		.short	0
 4592 0030 53454E44 		.ascii	"SEND_REL_ADDR\000"
 4592      5F52454C 
 4592      5F414444 
 4592      5200
 4593 003e 0000     		.space	2
 4594 0040 0000     		.space	2
 4595 0042 02       		.byte	2
 4596 0043 03       		.byte	3
 4597 0044 00       		.byte	0
 4598 0045 00       		.space	1
 4599 0046 0000     		.short	0
 4600 0048 5345545F 		.ascii	"SET_DSR\000"
 4600      44535200 
 4601 0050 00000000 		.space	8
 4601      00000000 
 4602 0058 0000     		.space	2
 4603 005a 00       		.byte	0
 4604 005b 04       		.byte	4
 4605 005c 00       		.byte	0
 4606 005d 00       		.space	1
ARM GAS  C:\Users\ldebo\AppData\Local\Temp\cc9oeUFF.s 			page 82


 4607 005e 0000     		.short	0
 4608 0060 53574954 		.ascii	"SWITCH_FUNC\000"
 4608      43485F46 
 4608      554E4300 
 4609 006c 00000000 		.space	4
 4610 0070 0000     		.space	2
 4611 0072 02       		.byte	2
 4612 0073 06       		.byte	6
 4613 0074 00       		.byte	0
 4614 0075 00       		.space	1
 4615 0076 0000     		.short	0
 4616 0078 43415244 		.ascii	"CARD_SELECT\000"
 4616      5F53454C 
 4616      45435400 
 4617 0084 00000000 		.space	4
 4618 0088 0000     		.space	2
 4619 008a 03       		.byte	3
 4620 008b 07       		.byte	7
 4621 008c 01       		.byte	1
 4622 008d 00       		.space	1
 4623 008e 0000     		.short	0
 4624 0090 53454E44 		.ascii	"SEND_IF_COND\000"
 4624      5F49465F 
 4624      434F4E44 
 4624      00
 4625 009d 000000   		.space	3
 4626 00a0 0000     		.space	2
 4627 00a2 02       		.byte	2
 4628 00a3 08       		.byte	8
 4629 00a4 00       		.byte	0
 4630 00a5 00       		.space	1
 4631 00a6 6400     		.short	100
 4632 00a8 53454E44 		.ascii	"SEND_CSD\000"
 4632      5F435344 
 4632      00
 4633 00b1 00000000 		.space	7
 4633      000000
 4634 00b8 0000     		.space	2
 4635 00ba 01       		.byte	1
 4636 00bb 09       		.byte	9
 4637 00bc 01       		.byte	1
 4638 00bd 00       		.space	1
 4639 00be 0000     		.short	0
 4640 00c0 53454E44 		.ascii	"SEND_CID\000"
 4640      5F434944 
 4640      00
 4641 00c9 00000000 		.space	7
 4641      000000
 4642 00d0 0000     		.space	2
 4643 00d2 01       		.byte	1
 4644 00d3 0A       		.byte	10
 4645 00d4 01       		.byte	1
 4646 00d5 00       		.space	1
 4647 00d6 0000     		.short	0
 4648 00d8 564F4C54 		.ascii	"VOLT_SWITCH\000"
 4648      5F535749 
 4648      54434800 
ARM GAS  C:\Users\ldebo\AppData\Local\Temp\cc9oeUFF.s 			page 83


 4649 00e4 00000000 		.space	4
 4650 00e8 0000     		.space	2
 4651 00ea 02       		.byte	2
 4652 00eb 0B       		.byte	11
 4653 00ec 00       		.byte	0
 4654 00ed 00       		.space	1
 4655 00ee 0000     		.short	0
 4656 00f0 53544F50 		.ascii	"STOP_TRANS\000"
 4656      5F545241 
 4656      4E5300
 4657 00fb 00000000 		.space	5
 4657      00
 4658 0100 0000     		.space	2
 4659 0102 03       		.byte	3
 4660 0103 0C       		.byte	12
 4661 0104 00       		.byte	0
 4662 0105 00       		.space	1
 4663 0106 0000     		.short	0
 4664 0108 53454E44 		.ascii	"SEND_STATUS\000"
 4664      5F535441 
 4664      54555300 
 4665 0114 00000000 		.space	4
 4666 0118 0000     		.space	2
 4667 011a 02       		.byte	2
 4668 011b 0D       		.byte	13
 4669 011c 01       		.byte	1
 4670 011d 00       		.space	1
 4671 011e 0000     		.short	0
 4672 0120 474F5F49 		.ascii	"GO_INACTIVE\000"
 4672      4E414354 
 4672      49564500 
 4673 012c 00000000 		.space	4
 4674 0130 0000     		.space	2
 4675 0132 00       		.byte	0
 4676 0133 0F       		.byte	15
 4677 0134 01       		.byte	1
 4678 0135 00       		.space	1
 4679 0136 0000     		.short	0
 4680 0138 5345545F 		.ascii	"SET_BLOCKLEN\000"
 4680      424C4F43 
 4680      4B4C454E 
 4680      00
 4681 0145 000000   		.space	3
 4682 0148 0000     		.space	2
 4683 014a 02       		.byte	2
 4684 014b 10       		.byte	16
 4685 014c 00       		.byte	0
 4686 014d 00       		.space	1
 4687 014e 0000     		.short	0
 4688 0150 52454144 		.ascii	"READ_SINGLE\000"
 4688      5F53494E 
 4688      474C4500 
 4689 015c 00000000 		.space	4
 4690 0160 10       		.byte	16
 4691 0161 00       		.space	1
 4692 0162 22       		.byte	34
 4693 0163 11       		.byte	17
ARM GAS  C:\Users\ldebo\AppData\Local\Temp\cc9oeUFF.s 			page 84


 4694 0164 00       		.byte	0
 4695 0165 00       		.space	1
 4696 0166 0000     		.short	0
 4697 0168 52454144 		.ascii	"READ_MULTI\000"
 4697      5F4D554C 
 4697      544900
 4698 0173 00000000 		.space	5
 4698      00
 4699 0178 32       		.byte	50
 4700 0179 00       		.space	1
 4701 017a 22       		.byte	34
 4702 017b 12       		.byte	18
 4703 017c 00       		.byte	0
 4704 017d 00       		.space	1
 4705 017e 0000     		.short	0
 4706 0180 53454E44 		.ascii	"SEND_TUNING\000"
 4706      5F54554E 
 4706      494E4700 
 4707 018c 00000000 		.space	4
 4708 0190 0000     		.space	2
 4709 0192 02       		.byte	2
 4710 0193 13       		.byte	19
 4711 0194 00       		.byte	0
 4712 0195 00       		.space	1
 4713 0196 0000     		.short	0
 4714 0198 53504545 		.ascii	"SPEED_CLASS\000"
 4714      445F434C 
 4714      41535300 
 4715 01a4 00000000 		.space	4
 4716 01a8 0000     		.space	2
 4717 01aa 03       		.byte	3
 4718 01ab 14       		.byte	20
 4719 01ac 00       		.byte	0
 4720 01ad 00       		.space	1
 4721 01ae 0000     		.short	0
 4722 01b0 5345545F 		.ascii	"SET_BLOCKCNT\000"
 4722      424C4F43 
 4722      4B434E54 
 4722      00
 4723 01bd 000000   		.space	3
 4724 01c0 0000     		.space	2
 4725 01c2 02       		.byte	2
 4726 01c3 17       		.byte	23
 4727 01c4 00       		.byte	0
 4728 01c5 00       		.space	1
 4729 01c6 0000     		.short	0
 4730 01c8 57524954 		.ascii	"WRITE_SINGLE\000"
 4730      455F5349 
 4730      4E474C45 
 4730      00
 4731 01d5 000000   		.space	3
 4732 01d8 0000     		.space	2
 4733 01da 22       		.byte	34
 4734 01db 18       		.byte	24
 4735 01dc 00       		.byte	0
 4736 01dd 00       		.space	1
 4737 01de 0000     		.short	0
ARM GAS  C:\Users\ldebo\AppData\Local\Temp\cc9oeUFF.s 			page 85


 4738 01e0 57524954 		.ascii	"WRITE_MULTI\000"
 4738      455F4D55 
 4738      4C544900 
 4739 01ec 00000000 		.space	4
 4740 01f0 22       		.byte	34
 4741 01f1 00       		.space	1
 4742 01f2 22       		.byte	34
 4743 01f3 19       		.byte	25
 4744 01f4 00       		.byte	0
 4745 01f5 00       		.space	1
 4746 01f6 0000     		.short	0
 4747 01f8 50524F47 		.ascii	"PROGRAM_CSD\000"
 4747      52414D5F 
 4747      43534400 
 4748 0204 00000000 		.space	4
 4749 0208 0000     		.space	2
 4750 020a 02       		.byte	2
 4751 020b 1B       		.byte	27
 4752 020c 00       		.byte	0
 4753 020d 00       		.space	1
 4754 020e 0000     		.short	0
 4755 0210 5345545F 		.ascii	"SET_WRITE_PR\000"
 4755      57524954 
 4755      455F5052 
 4755      00
 4756 021d 000000   		.space	3
 4757 0220 0000     		.space	2
 4758 0222 03       		.byte	3
 4759 0223 1C       		.byte	28
 4760 0224 00       		.byte	0
 4761 0225 00       		.space	1
 4762 0226 0000     		.short	0
 4763 0228 434C525F 		.ascii	"CLR_WRITE_PR\000"
 4763      57524954 
 4763      455F5052 
 4763      00
 4764 0235 000000   		.space	3
 4765 0238 0000     		.space	2
 4766 023a 03       		.byte	3
 4767 023b 1D       		.byte	29
 4768 023c 00       		.byte	0
 4769 023d 00       		.space	1
 4770 023e 0000     		.short	0
 4771 0240 534E445F 		.ascii	"SND_WRITE_PR\000"
 4771      57524954 
 4771      455F5052 
 4771      00
 4772 024d 000000   		.space	3
 4773 0250 0000     		.space	2
 4774 0252 02       		.byte	2
 4775 0253 1E       		.byte	30
 4776 0254 00       		.byte	0
 4777 0255 00       		.space	1
 4778 0256 0000     		.short	0
 4779 0258 45524153 		.ascii	"ERASE_WR_ST\000"
 4779      455F5752 
 4779      5F535400 
ARM GAS  C:\Users\ldebo\AppData\Local\Temp\cc9oeUFF.s 			page 86


 4780 0264 00000000 		.space	4
 4781 0268 0000     		.space	2
 4782 026a 02       		.byte	2
 4783 026b 20       		.byte	32
 4784 026c 00       		.byte	0
 4785 026d 00       		.space	1
 4786 026e 0000     		.short	0
 4787 0270 45524153 		.ascii	"ERASE_WR_END\000"
 4787      455F5752 
 4787      5F454E44 
 4787      00
 4788 027d 000000   		.space	3
 4789 0280 0000     		.space	2
 4790 0282 02       		.byte	2
 4791 0283 21       		.byte	33
 4792 0284 00       		.byte	0
 4793 0285 00       		.space	1
 4794 0286 0000     		.short	0
 4795 0288 45524153 		.ascii	"ERASE\000"
 4795      4500
 4796 028e 00000000 		.space	10
 4796      00000000 
 4796      0000
 4797 0298 0000     		.space	2
 4798 029a 03       		.byte	3
 4799 029b 26       		.byte	38
 4800 029c 00       		.byte	0
 4801 029d 00       		.space	1
 4802 029e 0000     		.short	0
 4803 02a0 4C4F434B 		.ascii	"LOCK_UNLOCK\000"
 4803      5F554E4C 
 4803      4F434B00 
 4804 02ac 00000000 		.space	4
 4805 02b0 0000     		.space	2
 4806 02b2 02       		.byte	2
 4807 02b3 2A       		.byte	42
 4808 02b4 00       		.byte	0
 4809 02b5 00       		.space	1
 4810 02b6 0000     		.short	0
 4811 02b8 4150505F 		.ascii	"APP_CMD\000"
 4811      434D4400 
 4812 02c0 00000000 		.space	8
 4812      00000000 
 4813 02c8 0000     		.space	2
 4814 02ca 00       		.byte	0
 4815 02cb 37       		.byte	55
 4816 02cc 00       		.byte	0
 4817 02cd 00       		.space	1
 4818 02ce 6400     		.short	100
 4819 02d0 4150505F 		.ascii	"APP_CMD\000"
 4819      434D4400 
 4820 02d8 00000000 		.space	8
 4820      00000000 
 4821 02e0 0000     		.space	2
 4822 02e2 02       		.byte	2
 4823 02e3 37       		.byte	55
 4824 02e4 01       		.byte	1
ARM GAS  C:\Users\ldebo\AppData\Local\Temp\cc9oeUFF.s 			page 87


 4825 02e5 00       		.space	1
 4826 02e6 0000     		.short	0
 4827 02e8 47454E5F 		.ascii	"GEN_CMD\000"
 4827      434D4400 
 4828 02f0 00000000 		.space	8
 4828      00000000 
 4829 02f8 0000     		.space	2
 4830 02fa 02       		.byte	2
 4831 02fb 38       		.byte	56
 4832 02fc 00       		.byte	0
 4833 02fd 00       		.space	1
 4834 02fe 0000     		.short	0
 4835 0300 5345545F 		.ascii	"SET_BUS_WIDTH\000"
 4835      4255535F 
 4835      57494454 
 4835      4800
 4836 030e 0000     		.space	2
 4837 0310 0000     		.space	2
 4838 0312 02       		.byte	2
 4839 0313 06       		.byte	6
 4840 0314 00       		.byte	0
 4841 0315 00       		.space	1
 4842 0316 0000     		.short	0
 4843 0318 53445F53 		.ascii	"SD_STATUS\000"
 4843      54415455 
 4843      5300
 4844 0322 00000000 		.space	6
 4844      0000
 4845 0328 0000     		.space	2
 4846 032a 02       		.byte	2
 4847 032b 0D       		.byte	13
 4848 032c 01       		.byte	1
 4849 032d 00       		.space	1
 4850 032e 0000     		.short	0
 4851 0330 53454E44 		.ascii	"SEND_NUM_WRBL\000"
 4851      5F4E554D 
 4851      5F575242 
 4851      4C00
 4852 033e 0000     		.space	2
 4853 0340 0000     		.space	2
 4854 0342 02       		.byte	2
 4855 0343 16       		.byte	22
 4856 0344 00       		.byte	0
 4857 0345 00       		.space	1
 4858 0346 0000     		.short	0
 4859 0348 53454E44 		.ascii	"SEND_NUM_ERS\000"
 4859      5F4E554D 
 4859      5F455253 
 4859      00
 4860 0355 000000   		.space	3
 4861 0358 0000     		.space	2
 4862 035a 02       		.byte	2
 4863 035b 17       		.byte	23
 4864 035c 00       		.byte	0
 4865 035d 00       		.space	1
 4866 035e 0000     		.short	0
 4867 0360 53445F53 		.ascii	"SD_SENDOPCOND\000"
ARM GAS  C:\Users\ldebo\AppData\Local\Temp\cc9oeUFF.s 			page 88


 4867      454E444F 
 4867      50434F4E 
 4867      4400
 4868 036e 0000     		.space	2
 4869 0370 0000     		.space	2
 4870 0372 02       		.byte	2
 4871 0373 29       		.byte	41
 4872 0374 00       		.byte	0
 4873 0375 00       		.space	1
 4874 0376 E803     		.short	1000
 4875 0378 5345545F 		.ascii	"SET_CLR_DET\000"
 4875      434C525F 
 4875      44455400 
 4876 0384 00000000 		.space	4
 4877 0388 0000     		.space	2
 4878 038a 02       		.byte	2
 4879 038b 2A       		.byte	42
 4880 038c 00       		.byte	0
 4881 038d 00       		.space	1
 4882 038e 0000     		.short	0
 4883 0390 53454E44 		.ascii	"SEND_SCR\000"
 4883      5F534352 
 4883      00
 4884 0399 00000000 		.space	7
 4884      000000
 4885 03a0 10       		.byte	16
 4886 03a1 00       		.space	1
 4887 03a2 22       		.byte	34
 4888 03a3 33       		.byte	51
 4889 03a4 00       		.byte	0
 4890 03a5 00       		.space	1
 4891 03a6 0000     		.short	0
 4892              		.bss
 4893              		.align	3
 4894              		.set	.LANCHOR0,. + 0
 4895              		.type	LOG_ERROR, %object
 4896              		.size	LOG_ERROR, 4
 4897              	LOG_ERROR:
 4898 0000 00000000 		.space	4
 4899 0004 00000000 		.space	4
 4900              		.type	sdCard, %object
 4901              		.size	sdCard, 120
 4902              	sdCard:
 4903 0008 00000000 		.space	120
 4903      00000000 
 4903      00000000 
 4903      00000000 
 4903      00000000 
 4904              		.type	intSearchRecord, %object
 4905              		.size	intSearchRecord, 3136
 4906              	intSearchRecord:
 4907 0080 00000000 		.space	3136
 4907      00000000 
 4907      00000000 
 4907      00000000 
 4907      00000000 
 4908              		.type	intFileIORecord, %object
ARM GAS  C:\Users\ldebo\AppData\Local\Temp\cc9oeUFF.s 			page 89


 4909              		.size	intFileIORecord, 6368
 4910              	intFileIORecord:
 4911 0cc0 00000000 		.space	6368
 4911      00000000 
 4911      00000000 
 4911      00000000 
 4911      00000000 
 4912              		.section	.rodata.str1.4,"aMS",%progbits,1
 4913              		.align	2
 4914              	.LC0:
 4915 0000 454D4D43 		.ascii	"EMMC: Wait for data aborted: %08x %08x %08x\012\000"
 4915      3A205761 
 4915      69742066 
 4915      6F722064 
 4915      61746120 
 4916 002d 000000   		.space	3
 4917              	.LC1:
 4918 0030 454D4D43 		.ascii	"EMMC: Wait for interrupt %08x timeout: %08x %08x %0"
 4918      3A205761 
 4918      69742066 
 4918      6F722069 
 4918      6E746572 
 4919 0063 38780A00 		.ascii	"8x\012\000"
 4920 0067 00       		.space	1
 4921              	.LC2:
 4922 0068 454D4D43 		.ascii	"EMMC: Error waiting for interrupt: %08x %08x %08x\012"
 4922      3A204572 
 4922      726F7220 
 4922      77616974 
 4922      696E6720 
 4923 009a 00       		.ascii	"\000"
 4924 009b 00       		.space	1
 4925              	.LC3:
 4926 009c 454D4D43 		.ascii	"EMMC: Set clock: timeout waiting for inhibit flags."
 4926      3A205365 
 4926      7420636C 
 4926      6F636B3A 
 4926      2074696D 
 4927 00cf 20537461 		.ascii	" Status %08x.\012\000"
 4927      74757320 
 4927      25303878 
 4927      2E0A00
 4928 00de 0000     		.space	2
 4929              	.LC4:
 4930 00e0 454D4D43 		.ascii	"EMMC: ERROR: failed to get stable clock.\012\000"
 4930      3A204552 
 4930      524F523A 
 4930      20666169 
 4930      6C656420 
 4931 010a 0000     		.space	2
 4932              	.LC5:
 4933 010c 454D4D43 		.ascii	"EMMC: Wait for command aborted: %08x %08x %08x\012\000"
 4933      3A205761 
 4933      69742066 
 4933      6F722063 
 4933      6F6D6D61 
 4934              	.LC6:
ARM GAS  C:\Users\ldebo\AppData\Local\Temp\cc9oeUFF.s 			page 90


 4935 013c 454D4D43 		.ascii	"EMMC: ACMD41 returned non-timeout error %d\012\000"
 4935      3A204143 
 4935      4D443431 
 4935      20726574 
 4935      75726E65 
 4936              	.LC7:
 4937 0168 454D4D43 		.ascii	"EMMC: ERROR: failed to reset.\012\000"
 4937      3A204552 
 4937      524F523A 
 4937      20666169 
 4937      6C656420 
 4938 0187 00       		.space	1
 4939              	.LC8:
 4940 0188 454D4D43 		.ascii	"EMMC: Timeout waiting for ready to read\012\000"
 4940      3A205469 
 4940      6D656F75 
 4940      74207761 
 4940      6974696E 
 4941 01b1 000000   		.space	3
 4942              	.LC9:
 4943 01b4 454D4D43 		.ascii	"EMMC: Timeout waiting for data done\012\000"
 4943      3A205469 
 4943      6D656F75 
 4943      74207761 
 4943      6974696E 
 4944 01d9 000000   		.space	3
 4945              	.LC10:
 4946 01dc 46415433 		.ascii	"FAT32 Volume Label: %s, ID: %08x\012\000"
 4946      3220566F 
 4946      6C756D65 
 4946      204C6162 
 4946      656C3A20 
 4947 01fe 0000     		.space	2
 4948              	.LC11:
 4949 0200 46415431 		.ascii	"FAT12/16 Volume Label: %s, Volume ID %08x\012\000"
 4949      322F3136 
 4949      20566F6C 
 4949      756D6520 
 4949      4C616265 
 4950 022b 00       		.space	1
 4951              	.LC12:
 4952 022c 46697273 		.ascii	"First Sector: %lu, Data Sectors: %lu, TotalClusters"
 4952      74205365 
 4952      63746F72 
 4952      3A20256C 
 4952      752C2044 
 4953 025f 3A20256C 		.ascii	": %lu, RootCluster: %lu\012\000"
 4953      752C2052 
 4953      6F6F7443 
 4953      6C757374 
 4953      65723A20 
 4954              	.LC13:
 4955 0278 454D4D43 		.ascii	"EMMC: Timeout waiting for erase: %08x %08x\012\000"
 4955      3A205469 
 4955      6D656F75 
 4955      74207761 
 4955      6974696E 
ARM GAS  C:\Users\ldebo\AppData\Local\Temp\cc9oeUFF.s 			page 91


 4956              	.LC14:
 4957 02a4 454D4D43 		.ascii	"EMMC: SEND_SCR ERR: %08x %08x %08x\012\000"
 4957      3A205345 
 4957      4E445F53 
 4957      43522045 
 4957      52523A20 
 4958              	.LC15:
 4959 02c8 454D4D43 		.ascii	"EMMC: Reading SCR, only read %d words\012\000"
 4959      3A205265 
 4959      6164696E 
 4959      67205343 
 4959      522C206F 
 4960 02ef 00       		.space	1
 4961              	.LC16:
 4962 02f0 454D4D43 		.ascii	"EMMC: SD Card %s %dMb mfr %d '%c%c:%c%c%c%c%c' r%d."
 4962      3A205344 
 4962      20436172 
 4962      64202573 
 4962      2025644D 
 4963 0323 25642025 		.ascii	"%d %d/%d, #%08x RCA %04x\012\000"
 4963      642F2564 
 4963      2C202325 
 4963      30387820 
 4963      52434120 
 4964 033d 000000   		.space	3
 4965              	.LC17:
 4966 0340 556E6B6E 		.ascii	"Unknown\000"
 4966      6F776E00 
 4967              	.LC18:
 4968 0348 4D4D4300 		.ascii	"MMC\000"
 4969              	.LC19:
 4970 034c 54797065 		.ascii	"Type 1\000"
 4970      203100
 4971 0353 00       		.space	1
 4972              	.LC20:
 4973 0354 54797065 		.ascii	"Type 2 SC\000"
 4973      20322053 
 4973      4300
 4974 035e 0000     		.space	2
 4975              	.LC21:
 4976 0360 54797065 		.ascii	"Type 2 HC\000"
 4976      20322048 
 4976      4300
 4977              		.ident	"GCC: (GNU Tools for ARM Embedded Processors 6-2017-q2-update) 6.3.1 20170620 (release) [AR
ARM GAS  C:\Users\ldebo\AppData\Local\Temp\cc9oeUFF.s 			page 92


DEFINED SYMBOLS
                            *ABS*:00000000 SdCard.c
C:\Users\ldebo\AppData\Local\Temp\cc9oeUFF.s:14     .text:00000000 $a
C:\Users\ldebo\AppData\Local\Temp\cc9oeUFF.s:19     .text:00000000 sdWaitForData
C:\Users\ldebo\AppData\Local\Temp\cc9oeUFF.s:4894   .bss:00000000 .LANCHOR0
C:\Users\ldebo\AppData\Local\Temp\cc9oeUFF.s:4914   .rodata.str1.4:00000000 .LC0
C:\Users\ldebo\AppData\Local\Temp\cc9oeUFF.s:93     .text:000000f8 $d
C:\Users\ldebo\AppData\Local\Temp\cc9oeUFF.s:96     .text:00000100 $a
C:\Users\ldebo\AppData\Local\Temp\cc9oeUFF.s:101    .text:00000100 sdWaitForInterrupt
C:\Users\ldebo\AppData\Local\Temp\cc9oeUFF.s:4917   .rodata.str1.4:00000030 .LC1
C:\Users\ldebo\AppData\Local\Temp\cc9oeUFF.s:4921   .rodata.str1.4:00000068 .LC2
C:\Users\ldebo\AppData\Local\Temp\cc9oeUFF.s:209    .text:00000270 $d
C:\Users\ldebo\AppData\Local\Temp\cc9oeUFF.s:212    .text:00000278 $a
C:\Users\ldebo\AppData\Local\Temp\cc9oeUFF.s:217    .text:00000278 sdSetClock
C:\Users\ldebo\AppData\Local\Temp\cc9oeUFF.s:4925   .rodata.str1.4:0000009c .LC3
C:\Users\ldebo\AppData\Local\Temp\cc9oeUFF.s:4929   .rodata.str1.4:000000e0 .LC4
C:\Users\ldebo\AppData\Local\Temp\cc9oeUFF.s:410    .text:00000528 $d
C:\Users\ldebo\AppData\Local\Temp\cc9oeUFF.s:413    .text:00000530 $a
C:\Users\ldebo\AppData\Local\Temp\cc9oeUFF.s:418    .text:00000530 ReadLFNEntry
C:\Users\ldebo\AppData\Local\Temp\cc9oeUFF.s:496    .text:00000628 SetFindDataFromFATEntry.part.0
C:\Users\ldebo\AppData\Local\Temp\cc9oeUFF.s:593    .text:00000788 sdSendCommandP
C:\Users\ldebo\AppData\Local\Temp\cc9oeUFF.s:4932   .rodata.str1.4:0000010c .LC5
C:\Users\ldebo\AppData\Local\Temp\cc9oeUFF.s:761    .text:000009e0 $d
C:\Users\ldebo\AppData\Local\Temp\cc9oeUFF.s:764    .text:000009e8 $a
C:\Users\ldebo\AppData\Local\Temp\cc9oeUFF.s:923    .text:00000c40 sdAppSendOpCond
C:\Users\ldebo\AppData\Local\Temp\cc9oeUFF.s:4934   .rodata.str1.4:0000013c .LC6
C:\Users\ldebo\AppData\Local\Temp\cc9oeUFF.s:1042   .text:00000dc8 $d
C:\Users\ldebo\AppData\Local\Temp\cc9oeUFF.s:1046   .text:00000dd4 $a
C:\Users\ldebo\AppData\Local\Temp\cc9oeUFF.s:1051   .text:00000dd4 sdSendCommand
C:\Users\ldebo\AppData\Local\Temp\cc9oeUFF.s:4572   .data:00000000 .LANCHOR1
C:\Users\ldebo\AppData\Local\Temp\cc9oeUFF.s:1106   .text:00000e8c $d
C:\Users\ldebo\AppData\Local\Temp\cc9oeUFF.s:1109   .text:00000e94 $a
C:\Users\ldebo\AppData\Local\Temp\cc9oeUFF.s:1114   .text:00000e94 sdResetCard
C:\Users\ldebo\AppData\Local\Temp\cc9oeUFF.s:4936   .rodata.str1.4:00000168 .LC7
C:\Users\ldebo\AppData\Local\Temp\cc9oeUFF.s:1227   .text:00001028 $d
C:\Users\ldebo\AppData\Local\Temp\cc9oeUFF.s:1230   .text:00001030 $a
C:\Users\ldebo\AppData\Local\Temp\cc9oeUFF.s:1235   .text:00001030 sdTransferBlocks.part.5
C:\Users\ldebo\AppData\Local\Temp\cc9oeUFF.s:4939   .rodata.str1.4:00000188 .LC8
C:\Users\ldebo\AppData\Local\Temp\cc9oeUFF.s:4942   .rodata.str1.4:000001b4 .LC9
C:\Users\ldebo\AppData\Local\Temp\cc9oeUFF.s:1456   .text:00001320 $d
C:\Users\ldebo\AppData\Local\Temp\cc9oeUFF.s:1460   .text.unlikely:00000000 $a
C:\Users\ldebo\AppData\Local\Temp\cc9oeUFF.s:1465   .text.unlikely:00000000 sdTransferBlocks.constprop.7
C:\Users\ldebo\AppData\Local\Temp\cc9oeUFF.s:1597   .text.unlikely:000001cc LoadDrivePartition
C:\Users\ldebo\AppData\Local\Temp\cc9oeUFF.s:4945   .rodata.str1.4:000001dc .LC10
C:\Users\ldebo\AppData\Local\Temp\cc9oeUFF.s:4948   .rodata.str1.4:00000200 .LC11
C:\Users\ldebo\AppData\Local\Temp\cc9oeUFF.s:4951   .rodata.str1.4:0000022c .LC12
C:\Users\ldebo\AppData\Local\Temp\cc9oeUFF.s:1733   .text:00001328 $a
C:\Users\ldebo\AppData\Local\Temp\cc9oeUFF.s:1739   .text:00001328 sdTransferBlocks
C:\Users\ldebo\AppData\Local\Temp\cc9oeUFF.s:1774   .text:00001384 sdClearBlocks
C:\Users\ldebo\AppData\Local\Temp\cc9oeUFF.s:4954   .rodata.str1.4:00000278 .LC13
C:\Users\ldebo\AppData\Local\Temp\cc9oeUFF.s:1866   .text:000014c0 $d
C:\Users\ldebo\AppData\Local\Temp\cc9oeUFF.s:1868   .text:000014c4 $a
C:\Users\ldebo\AppData\Local\Temp\cc9oeUFF.s:1874   .text:000014c4 getSetNextCluster
C:\Users\ldebo\AppData\Local\Temp\cc9oeUFF.s:2010   .text:000016a8 $d
C:\Users\ldebo\AppData\Local\Temp\cc9oeUFF.s:2013   .text:000016b0 $a
C:\Users\ldebo\AppData\Local\Temp\cc9oeUFF.s:2019   .text:000016b0 WildcardMatch
C:\Users\ldebo\AppData\Local\Temp\cc9oeUFF.s:2140   .text:00001838 LocateFATEntry
ARM GAS  C:\Users\ldebo\AppData\Local\Temp\cc9oeUFF.s 			page 93


C:\Users\ldebo\AppData\Local\Temp\cc9oeUFF.s:2640   .text:00001f44 $d
C:\Users\ldebo\AppData\Local\Temp\cc9oeUFF.s:2642   .text:00001f48 $a
C:\Users\ldebo\AppData\Local\Temp\cc9oeUFF.s:2647   .text:00001f48 LocateFATEntry.constprop.6
C:\Users\ldebo\AppData\Local\Temp\cc9oeUFF.s:3036   .text:000024ac $d
C:\Users\ldebo\AppData\Local\Temp\cc9oeUFF.s:3038   .text:000024b0 $a
C:\Users\ldebo\AppData\Local\Temp\cc9oeUFF.s:3044   .text:000024b0 sdFindFirstFile
C:\Users\ldebo\AppData\Local\Temp\cc9oeUFF.s:3307   .text:00002864 $d
C:\Users\ldebo\AppData\Local\Temp\cc9oeUFF.s:3310   .text:0000286c $a
C:\Users\ldebo\AppData\Local\Temp\cc9oeUFF.s:3316   .text:0000286c sdFindNextFile
C:\Users\ldebo\AppData\Local\Temp\cc9oeUFF.s:3378   .text:00002928 sdFindClose
C:\Users\ldebo\AppData\Local\Temp\cc9oeUFF.s:3405   .text:00002964 sdCreateFile
C:\Users\ldebo\AppData\Local\Temp\cc9oeUFF.s:3741   .text:00002e30 $d
C:\Users\ldebo\AppData\Local\Temp\cc9oeUFF.s:3744   .text:00002e38 $a
C:\Users\ldebo\AppData\Local\Temp\cc9oeUFF.s:3750   .text:00002e38 sdReadFile
C:\Users\ldebo\AppData\Local\Temp\cc9oeUFF.s:3964   .text:00003138 $d
C:\Users\ldebo\AppData\Local\Temp\cc9oeUFF.s:3966   .text:0000313c $a
C:\Users\ldebo\AppData\Local\Temp\cc9oeUFF.s:3972   .text:0000313c sdCloseHandle
C:\Users\ldebo\AppData\Local\Temp\cc9oeUFF.s:3999   .text:00003178 sdSetFilePointer
C:\Users\ldebo\AppData\Local\Temp\cc9oeUFF.s:4209   .text:00003474 $d
C:\Users\ldebo\AppData\Local\Temp\cc9oeUFF.s:4212   .text:0000347c $a
C:\Users\ldebo\AppData\Local\Temp\cc9oeUFF.s:4218   .text:0000347c sdGetFileSize
C:\Users\ldebo\AppData\Local\Temp\cc9oeUFF.s:4243   .text:000034b0 sdInitCard
C:\Users\ldebo\AppData\Local\Temp\cc9oeUFF.s:4561   .rodata:00000000 .LANCHOR2
C:\Users\ldebo\AppData\Local\Temp\cc9oeUFF.s:4961   .rodata.str1.4:000002f0 .LC16
C:\Users\ldebo\AppData\Local\Temp\cc9oeUFF.s:4956   .rodata.str1.4:000002a4 .LC14
C:\Users\ldebo\AppData\Local\Temp\cc9oeUFF.s:4958   .rodata.str1.4:000002c8 .LC15
C:\Users\ldebo\AppData\Local\Temp\cc9oeUFF.s:4529   .text:000038c0 $d
C:\Users\ldebo\AppData\Local\Temp\cc9oeUFF.s:4539   .text:000038e4 $a
C:\Users\ldebo\AppData\Local\Temp\cc9oeUFF.s:4545   .text:000038e4 sdCardCSD
C:\Users\ldebo\AppData\Local\Temp\cc9oeUFF.s:4897   .bss:00000000 LOG_ERROR
                            *COM*:00000004 __errno
C:\Users\ldebo\AppData\Local\Temp\cc9oeUFF.s:4560   .rodata:00000000 $d
C:\Users\ldebo\AppData\Local\Temp\cc9oeUFF.s:4564   .rodata:00000000 SD_TYPE_NAME
C:\Users\ldebo\AppData\Local\Temp\cc9oeUFF.s:4571   .data:00000000 $d
C:\Users\ldebo\AppData\Local\Temp\cc9oeUFF.s:4575   .data:00000000 sdCommandTable
C:\Users\ldebo\AppData\Local\Temp\cc9oeUFF.s:4893   .bss:00000000 $d
C:\Users\ldebo\AppData\Local\Temp\cc9oeUFF.s:4902   .bss:00000008 sdCard
C:\Users\ldebo\AppData\Local\Temp\cc9oeUFF.s:4906   .bss:00000080 intSearchRecord
C:\Users\ldebo\AppData\Local\Temp\cc9oeUFF.s:4910   .bss:00000cc0 intFileIORecord
C:\Users\ldebo\AppData\Local\Temp\cc9oeUFF.s:4913   .rodata.str1.4:00000000 $d

UNDEFINED SYMBOLS
RPi_IO_Base_Addr
timer_getTickCount
tick_difference
timer_wait
wctob
__locale_ctype_ptr
strchr
