
kernel.elf:     file format elf32-littlearm


Disassembly of section .text:

00008000 <__text_start__>:
    8000:	e1a0c00f 	mov	ip, pc
    8004:	e10fb000 	mrs	fp, CPSR
    8008:	e20bb01f 	and	fp, fp, #31

0000800c <multicore_start>:
    800c:	e10f0000 	mrs	r0, CPSR
    8010:	e200101f 	and	r1, r0, #31
    8014:	e351001a 	cmp	r1, #26
    8018:	1a000005 	bne	8034 <.NotInHypMode>
    801c:	e3c0001f 	bic	r0, r0, #31
    8020:	e38000d3 	orr	r0, r0, #211	; 0xd3
    8024:	e16ff000 	msr	SPSR_fsxc, r0
    8028:	e28fe004 	add	lr, pc, #4
    802c:	e12ef30e 	.word	0xe12ef30e
    8030:	e160006e 	.word	0xe160006e

00008034 <.NotInHypMode>:
    8034:	e59f2248 	ldr	r2, [pc, #584]	; 8284 <hang+0x4>
    8038:	e59f3248 	ldr	r3, [pc, #584]	; 8288 <hang+0x8>
    803c:	e59f4248 	ldr	r4, [pc, #584]	; 828c <hang+0xc>
    8040:	ee100f10 	mrc	15, 0, r0, cr0, cr0, {0}
    8044:	e59f1244 	ldr	r1, [pc, #580]	; 8290 <hang+0x10>
    8048:	e1510000 	cmp	r1, r0
    804c:	0a00000f 	beq	8090 <set_svc_stack>
    8050:	ee105fb0 	mrc	15, 0, r5, cr0, cr0, {5}
    8054:	e2155003 	ands	r5, r5, #3
    8058:	0a00000c 	beq	8090 <set_svc_stack>
    805c:	e59f2230 	ldr	r2, [pc, #560]	; 8294 <hang+0x14>
    8060:	e59f3230 	ldr	r3, [pc, #560]	; 8298 <hang+0x18>
    8064:	e59f4230 	ldr	r4, [pc, #560]	; 829c <hang+0x1c>
    8068:	e3550001 	cmp	r5, #1
    806c:	0a000007 	beq	8090 <set_svc_stack>
    8070:	e59f2228 	ldr	r2, [pc, #552]	; 82a0 <hang+0x20>
    8074:	e59f3228 	ldr	r3, [pc, #552]	; 82a4 <hang+0x24>
    8078:	e59f4228 	ldr	r4, [pc, #552]	; 82a8 <hang+0x28>
    807c:	e3550002 	cmp	r5, #2
    8080:	0a000002 	beq	8090 <set_svc_stack>
    8084:	e59f2220 	ldr	r2, [pc, #544]	; 82ac <hang+0x2c>
    8088:	e59f3220 	ldr	r3, [pc, #544]	; 82b0 <hang+0x30>
    808c:	e59f4220 	ldr	r4, [pc, #544]	; 82b4 <hang+0x34>

00008090 <set_svc_stack>:
    8090:	e1a0d002 	mov	sp, r2
    8094:	e10f0000 	mrs	r0, CPSR
    8098:	e3c0001f 	bic	r0, r0, #31
    809c:	e38000d1 	orr	r0, r0, #209	; 0xd1
    80a0:	e121f000 	msr	CPSR_c, r0
    80a4:	e1a0d003 	mov	sp, r3
    80a8:	e3c0001f 	bic	r0, r0, #31
    80ac:	e38000d2 	orr	r0, r0, #210	; 0xd2
    80b0:	e121f000 	msr	CPSR_c, r0
    80b4:	e1a0d004 	mov	sp, r4
    80b8:	e3c0001f 	bic	r0, r0, #31
    80bc:	e38000d3 	orr	r0, r0, #211	; 0xd3
    80c0:	e121f000 	msr	CPSR_c, r0
    80c4:	ee110f51 	mrc	15, 0, r0, cr1, cr1, {2}
    80c8:	e3500b03 	cmp	r0, #3072	; 0xc00
    80cc:	0a000001 	beq	80d8 <.free_to_enable_fpu1>
    80d0:	e3800b03 	orr	r0, r0, #3072	; 0xc00
    80d4:	ee010f51 	mcr	15, 0, r0, cr1, cr1, {2}

000080d8 <.free_to_enable_fpu1>:
    80d8:	ee110f50 	mrc	15, 0, r0, cr1, cr0, {2}
    80dc:	e380060f 	orr	r0, r0, #15728640	; 0xf00000
    80e0:	ee010f50 	mcr	15, 0, r0, cr1, cr0, {2}
    80e4:	e3a00101 	mov	r0, #1073741824	; 0x40000000
    80e8:	eee80a10 	vmsr	fpexc, r0
    80ec:	ee110f10 	mrc	15, 0, r0, cr1, cr0, {0}
    80f0:	e3800b02 	orr	r0, r0, #2048	; 0x800
    80f4:	e3800004 	orr	r0, r0, #4
    80f8:	e3800a01 	orr	r0, r0, #4096	; 0x1000
    80fc:	ee010f10 	mcr	15, 0, r0, cr1, cr0, {0}
    8100:	ee100f10 	mrc	15, 0, r0, cr0, cr0, {0}
    8104:	e59f1184 	ldr	r1, [pc, #388]	; 8290 <hang+0x10>
    8108:	e1510000 	cmp	r1, r0
    810c:	0a000007 	beq	8130 <.cpu0_exit_multicore_park>
    8110:	ee100fb0 	mrc	15, 0, r0, cr0, cr0, {5}
    8114:	e2100003 	ands	r0, r0, #3
    8118:	0a000004 	beq	8130 <.cpu0_exit_multicore_park>
    811c:	e59f1194 	ldr	r1, [pc, #404]	; 82b8 <hang+0x38>
    8120:	e5910000 	ldr	r0, [r1]
    8124:	e2800001 	add	r0, r0, #1
    8128:	e5810000 	str	r0, [r1]
    812c:	ea000080 	b	8334 <SecondarySpin>

00008130 <.cpu0_exit_multicore_park>:
    8130:	e59f1184 	ldr	r1, [pc, #388]	; 82bc <hang+0x3c>
    8134:	e24cc008 	sub	ip, ip, #8
    8138:	e581c000 	str	ip, [r1]
    813c:	e59f117c 	ldr	r1, [pc, #380]	; 82c0 <hang+0x40>
    8140:	e581b000 	str	fp, [r1]
    8144:	e3a00001 	mov	r0, #1
    8148:	e59f1168 	ldr	r1, [pc, #360]	; 82b8 <hang+0x38>
    814c:	e5810000 	str	r0, [r1]
    8150:	e10f2000 	mrs	r2, CPSR
    8154:	e202201f 	and	r2, r2, #31
    8158:	e59f1164 	ldr	r1, [pc, #356]	; 82c4 <hang+0x44>
    815c:	e5812000 	str	r2, [r1]
    8160:	e59f1160 	ldr	r1, [pc, #352]	; 82c8 <hang+0x48>
    8164:	ee100f10 	mrc	15, 0, r0, cr0, cr0, {0}
    8168:	e5810000 	str	r0, [r1]
    816c:	e0200000 	eor	r0, r0, r0
    8170:	e3800080 	orr	r0, r0, #128	; 0x80
    8174:	e59f1150 	ldr	r1, [pc, #336]	; 82cc <hang+0x4c>
    8178:	e5810000 	str	r0, [r1]
    817c:	e59f214c 	ldr	r2, [pc, #332]	; 82d0 <hang+0x50>
    8180:	e59f114c 	ldr	r1, [pc, #332]	; 82d4 <hang+0x54>
    8184:	e5910000 	ldr	r0, [r1]
    8188:	e1520000 	cmp	r2, r0
    818c:	1a000006 	bne	81ac <.not_at_address_1>
    8190:	e59f1140 	ldr	r1, [pc, #320]	; 82d8 <hang+0x58>
    8194:	e3a00101 	mov	r0, #1073741824	; 0x40000000
    8198:	e5810000 	str	r0, [r1]
    819c:	e59f1138 	ldr	r1, [pc, #312]	; 82dc <hang+0x5c>
    81a0:	e3a00202 	mov	r0, #536870912	; 0x20000000
    81a4:	e5810000 	str	r0, [r1]
    81a8:	ea00000a 	b	81d8 <.autodetect_done>

000081ac <.not_at_address_1>:
    81ac:	e59f112c 	ldr	r1, [pc, #300]	; 82e0 <hang+0x60>
    81b0:	e5910000 	ldr	r0, [r1]
    81b4:	e1520000 	cmp	r2, r0
    81b8:	0a000000 	beq	81c0 <.At2ndAddress>

000081bc <.pi_detect_fail>:
    81bc:	eafffffe 	b	81bc <.pi_detect_fail>

000081c0 <.At2ndAddress>:
    81c0:	e59f1110 	ldr	r1, [pc, #272]	; 82d8 <hang+0x58>
    81c4:	e3a00103 	mov	r0, #-1073741824	; 0xc0000000
    81c8:	e5810000 	str	r0, [r1]
    81cc:	e59f1108 	ldr	r1, [pc, #264]	; 82dc <hang+0x5c>
    81d0:	e3a0043f 	mov	r0, #1056964608	; 0x3f000000
    81d4:	e5810000 	str	r0, [r1]

000081d8 <.autodetect_done>:
    81d8:	e59f0104 	ldr	r0, [pc, #260]	; 82e4 <hang+0x64>
    81dc:	e3a01000 	mov	r1, #0
    81e0:	e8b003fc 	ldm	r0!, {r2, r3, r4, r5, r6, r7, r8, r9}
    81e4:	e8a103fc 	stmia	r1!, {r2, r3, r4, r5, r6, r7, r8, r9}
    81e8:	e8b003fc 	ldm	r0!, {r2, r3, r4, r5, r6, r7, r8, r9}
    81ec:	e8a103fc 	stmia	r1!, {r2, r3, r4, r5, r6, r7, r8, r9}
    81f0:	e59f00f0 	ldr	r0, [pc, #240]	; 82e8 <hang+0x68>
    81f4:	e59f10f0 	ldr	r1, [pc, #240]	; 82ec <hang+0x6c>
    81f8:	e3a02000 	mov	r2, #0

000081fc <.clear_bss>:
    81fc:	e1500001 	cmp	r0, r1
    8200:	aa000002 	bge	8210 <.clear_bss_exit>
    8204:	e5802000 	str	r2, [r0]
    8208:	e2800004 	add	r0, r0, #4
    820c:	eafffffa 	b	81fc <.clear_bss>

00008210 <.clear_bss_exit>:
    8210:	ee100f10 	mrc	15, 0, r0, cr0, cr0, {0}
    8214:	e59f1074 	ldr	r1, [pc, #116]	; 8290 <hang+0x10>
    8218:	e1510000 	cmp	r1, r0
    821c:	0a000016 	beq	827c <.NoMultiCoreSetup>
    8220:	e59f1094 	ldr	r1, [pc, #148]	; 82bc <hang+0x3c>
    8224:	e5910000 	ldr	r0, [r1]
    8228:	e3a01902 	mov	r1, #32768	; 0x8000
    822c:	e1510000 	cmp	r1, r0
    8230:	1a000011 	bne	827c <.NoMultiCoreSetup>
    8234:	e3a01101 	mov	r1, #1073741824	; 0x40000000
    8238:	e59f20b0 	ldr	r2, [pc, #176]	; 82f0 <hang+0x70>
    823c:	e581209c 	str	r2, [r1, #156]	; 0x9c
    8240:	e59f3070 	ldr	r3, [pc, #112]	; 82b8 <hang+0x38>

00008244 <.WaitCore1ACK>:
    8244:	e5931000 	ldr	r1, [r3]
    8248:	e3510002 	cmp	r1, #2
    824c:	0afffffc 	beq	8244 <.WaitCore1ACK>
    8250:	e3a01101 	mov	r1, #1073741824	; 0x40000000
    8254:	e59f2094 	ldr	r2, [pc, #148]	; 82f0 <hang+0x70>
    8258:	e58120ac 	str	r2, [r1, #172]	; 0xac

0000825c <.WaitCore2ACK>:
    825c:	e5931000 	ldr	r1, [r3]
    8260:	e3510003 	cmp	r1, #3
    8264:	0afffffc 	beq	825c <.WaitCore2ACK>
    8268:	e3a01101 	mov	r1, #1073741824	; 0x40000000
    826c:	e58120bc 	str	r2, [r1, #188]	; 0xbc

00008270 <.WaitCore3ACK>:
    8270:	e5931000 	ldr	r1, [r3]
    8274:	e3510004 	cmp	r1, #4
    8278:	0afffffc 	beq	8270 <.WaitCore3ACK>

0000827c <.NoMultiCoreSetup>:
    827c:	eb00273f 	bl	11f80 <kernel_main>

00008280 <hang>:
    8280:	eafffffe 	b	8280 <hang>
    8284:	0001fd30 	.word	0x0001fd30
    8288:	00021d30 	.word	0x00021d30
    828c:	00020d30 	.word	0x00020d30
    8290:	410fb767 	.word	0x410fb767
    8294:	00022f30 	.word	0x00022f30
    8298:	00023330 	.word	0x00023330
    829c:	00023130 	.word	0x00023130
    82a0:	00024530 	.word	0x00024530
    82a4:	00024930 	.word	0x00024930
    82a8:	00024730 	.word	0x00024730
    82ac:	00025b30 	.word	0x00025b30
    82b0:	00025f30 	.word	0x00025f30
    82b4:	00025d30 	.word	0x00025d30
    82b8:	00017168 	.word	0x00017168
    82bc:	00017164 	.word	0x00017164
    82c0:	0001716c 	.word	0x0001716c
    82c4:	00017178 	.word	0x00017178
    82c8:	00017170 	.word	0x00017170
    82cc:	00017174 	.word	0x00017174
    82d0:	61757830 	.word	0x61757830
    82d4:	20215010 	.word	0x20215010
    82d8:	00017158 	.word	0x00017158
    82dc:	00017160 	.word	0x00017160
    82e0:	3f215010 	.word	0x3f215010
    82e4:	000082f4 	.word	0x000082f4
    82e8:	00015a48 	.word	0x00015a48
    82ec:	00015b08 	.word	0x00015b08
    82f0:	0000800c 	.word	0x0000800c

000082f4 <_isr_Table>:
    82f4:	e59ff018 	ldr	pc, [pc, #24]	; 8314 <_reset_h>
    82f8:	e59ff018 	ldr	pc, [pc, #24]	; 8318 <_undefined_instruction_vector_h>
    82fc:	e59ff018 	ldr	pc, [pc, #24]	; 831c <_software_interrupt_vector_h>
    8300:	e59ff018 	ldr	pc, [pc, #24]	; 8320 <_prefetch_abort_vector_h>
    8304:	e59ff018 	ldr	pc, [pc, #24]	; 8324 <_data_abort_vector_h>
    8308:	e59ff018 	ldr	pc, [pc, #24]	; 8328 <_unused_handler_h>
    830c:	e59ff018 	ldr	pc, [pc, #24]	; 832c <_interrupt_vector_h>
    8310:	e59ff018 	ldr	pc, [pc, #24]	; 8330 <_fast_interrupt_vector_h>

00008314 <_reset_h>:
    8314:	00008000 	.word	0x00008000

00008318 <_undefined_instruction_vector_h>:
    8318:	00008280 	.word	0x00008280

0000831c <_software_interrupt_vector_h>:
    831c:	00008280 	.word	0x00008280

00008320 <_prefetch_abort_vector_h>:
    8320:	00008280 	.word	0x00008280

00008324 <_data_abort_vector_h>:
    8324:	00008280 	.word	0x00008280

00008328 <_unused_handler_h>:
    8328:	00008280 	.word	0x00008280

0000832c <_interrupt_vector_h>:
    832c:	00008398 	.word	0x00008398

00008330 <_fast_interrupt_vector_h>:
    8330:	00008280 	.word	0x00008280

00008334 <SecondarySpin>:
    8334:	ee100fb0 	mrc	15, 0, r0, cr0, cr0, {5}
    8338:	e2100003 	ands	r0, r0, #3
    833c:	e59f5044 	ldr	r5, [pc, #68]	; 8388 <atags+0x4>
    8340:	e5955000 	ldr	r5, [r5]
    8344:	e3a03000 	mov	r3, #0

00008348 <SecondarySpinLoop>:
    8348:	e320f002 	wfe
    834c:	e7954200 	ldr	r4, [r5, r0, lsl #4]
    8350:	e1540003 	cmp	r4, r3
    8354:	0afffffb 	beq	8348 <SecondarySpinLoop>
    8358:	e7854200 	str	r4, [r5, r0, lsl #4]
    835c:	e3a00000 	mov	r0, #0
    8360:	e59f1024 	ldr	r1, [pc, #36]	; 838c <atags+0x8>
    8364:	e5911000 	ldr	r1, [r1]
    8368:	e59f2020 	ldr	r2, [pc, #32]	; 8390 <atags+0xc>
    836c:	e5922000 	ldr	r2, [r2]
    8370:	e59fe01c 	ldr	lr, [pc, #28]	; 8394 <atags+0x10>
    8374:	e12fff14 	bx	r4
    8378:	eaffffed 	b	8334 <SecondarySpin>

0000837c <mbox>:
    837c:	400000cc 	.word	0x400000cc

00008380 <machid>:
    8380:	00000c42 	.word	0x00000c42

00008384 <atags>:
    8384:	00000100 	.word	0x00000100
    8388:	0000837c 	.word	0x0000837c
    838c:	00008380 	.word	0x00008380
    8390:	00008384 	.word	0x00008384
    8394:	00008334 	.word	0x00008334

00008398 <_irq_handler_stub>:
    8398:	e24ee004 	sub	lr, lr, #4
    839c:	f96d0513 	srsdb	sp!, #19
    83a0:	f1020013 	cps	#19
    83a4:	e92d100f 	push	{r0, r1, r2, r3, ip}
    83a8:	e1a0100d 	mov	r1, sp
    83ac:	e2011004 	and	r1, r1, #4
    83b0:	e04dd001 	sub	sp, sp, r1
    83b4:	e92d4002 	push	{r1, lr}
    83b8:	e59f3054 	ldr	r3, [pc, #84]	; 8414 <no_irqset+0x14>
    83bc:	e5933000 	ldr	r3, [r3]
    83c0:	e2832cb2 	add	r2, r3, #45568	; 0xb200
    83c4:	e5921000 	ldr	r1, [r2]
    83c8:	e3110001 	tst	r1, #1
    83cc:	0a000005 	beq	83e8 <.NoTimerIrq>
    83d0:	e2833b2d 	add	r3, r3, #46080	; 0xb400
    83d4:	e3a01001 	mov	r1, #1
    83d8:	e583100c 	str	r1, [r3, #12]
    83dc:	e5923004 	ldr	r3, [r2, #4]
    83e0:	e3c33001 	bic	r3, r3, #1
    83e4:	e5823004 	str	r3, [r2, #4]

000083e8 <.NoTimerIrq>:
    83e8:	f1080080 	cpsie	i
    83ec:	e59f0024 	ldr	r0, [pc, #36]	; 8418 <no_irqset+0x18>
    83f0:	e5900000 	ldr	r0, [r0]
    83f4:	e3500000 	cmp	r0, #0
    83f8:	0a000000 	beq	8400 <no_irqset>
    83fc:	e12fff30 	blx	r0

00008400 <no_irqset>:
    8400:	f10c0080 	cpsid	i
    8404:	e8bd4002 	pop	{r1, lr}
    8408:	e08dd001 	add	sp, sp, r1
    840c:	e8bd100f 	pop	{r0, r1, r2, r3, ip}
    8410:	f8bd0a00 	rfeia	sp!
    8414:	00017160 	.word	0x00017160
    8418:	0001715c 	.word	0x0001715c

0000841c <setTimerIrqAddress>:
    841c:	f10c0080 	cpsid	i
    8420:	e59f100c 	ldr	r1, [pc, #12]	; 8434 <setTimerIrqAddress+0x18>
    8424:	e5912000 	ldr	r2, [r1]
    8428:	e5810000 	str	r0, [r1]
    842c:	e1a00002 	mov	r0, r2
    8430:	e12fff1e 	bx	lr
    8434:	0001715c 	.word	0x0001715c

00008438 <ARMaddrToGPUaddr>:
    8438:	e59f1008 	ldr	r1, [pc, #8]	; 8448 <ARMaddrToGPUaddr+0x10>
    843c:	e5911000 	ldr	r1, [r1]
    8440:	e1800001 	orr	r0, r0, r1
    8444:	e12fff1e 	bx	lr
    8448:	00017158 	.word	0x00017158

0000844c <GPUaddrToARMaddr>:
    844c:	e59f1008 	ldr	r1, [pc, #8]	; 845c <GPUaddrToARMaddr+0x10>
    8450:	e5911000 	ldr	r1, [r1]
    8454:	e1c00001 	bic	r0, r0, r1
    8458:	e12fff1e 	bx	lr
    845c:	00017158 	.word	0x00017158

00008460 <EnableInterrupts>:
    8460:	f1080080 	cpsie	i
    8464:	e12fff1e 	bx	lr

00008468 <DisableInterrupts>:
    8468:	f10c0080 	cpsid	i
    846c:	e12fff1e 	bx	lr

00008470 <CoreExecute>:
    8470:	e21000ff 	ands	r0, r0, #255	; 0xff
    8474:	0a000008 	beq	849c <CoreExecuteFail>
    8478:	e59f3024 	ldr	r3, [pc, #36]	; 84a4 <CoreExecuteFail+0x8>
    847c:	e5932000 	ldr	r2, [r3]
    8480:	e1500002 	cmp	r0, r2
    8484:	2a000004 	bcs	849c <CoreExecuteFail>
    8488:	e59f3018 	ldr	r3, [pc, #24]	; 84a8 <CoreExecuteFail+0xc>
    848c:	e7831200 	str	r1, [r3, r0, lsl #4]
    8490:	e320f004 	sev
    8494:	e3a00001 	mov	r0, #1
    8498:	e12fff1e 	bx	lr

0000849c <CoreExecuteFail>:
    849c:	e3a00000 	mov	r0, #0
    84a0:	e12fff1e 	bx	lr
    84a4:	00017168 	.word	0x00017168
    84a8:	4000008c 	.word	0x4000008c
    84ac:	00000000 	.word	0x00000000

000084b0 <cvt_int>:
    84b0:	e92d4ff0 	push	{r4, r5, r6, r7, r8, r9, sl, fp, lr}
    84b4:	e3120010 	tst	r2, #16
    84b8:	e2023001 	and	r3, r2, #1
    84bc:	e24dd03c 	sub	sp, sp, #60	; 0x3c
    84c0:	e1a0a002 	mov	sl, r2
    84c4:	13a08000 	movne	r8, #0
    84c8:	e7e46452 	ubfx	r6, r2, #8, #5
    84cc:	e1a05001 	mov	r5, r1
    84d0:	e1a02c42 	asr	r2, r2, #24
    84d4:	e58d3004 	str	r3, [sp, #4]
    84d8:	e7e4145a 	ubfx	r1, sl, #8, #5
    84dc:	11a03008 	movne	r3, r8
    84e0:	e58d2000 	str	r2, [sp]
    84e4:	e7c0a013 	bfi	sl, r3, #0, #1
    84e8:	e2412008 	sub	r2, r1, #8
    84ec:	e20220f7 	and	r2, r2, #247	; 0xf7
    84f0:	01a08003 	moveq	r8, r3
    84f4:	158d8004 	strne	r8, [sp, #4]
    84f8:	e6ef307a 	uxtb	r3, sl
    84fc:	e3510002 	cmp	r1, #2
    8500:	13520000 	cmpne	r2, #0
    8504:	e2032020 	and	r2, r3, #32
    8508:	13a0600a 	movne	r6, #10
    850c:	e3130001 	tst	r3, #1
    8510:	e58d200c 	str	r2, [sp, #12]
    8514:	03a0b020 	moveq	fp, #32
    8518:	13a0b030 	movne	fp, #48	; 0x30
    851c:	e2132002 	ands	r2, r3, #2
    8520:	e1a04000 	mov	r4, r0
    8524:	e7a7785a 	sbfx	r7, sl, #16, #8
    8528:	0a000009 	beq	8554 <cvt_int+0xa4>
    852c:	e3550000 	cmp	r5, #0
    8530:	ba000063 	blt	86c4 <cvt_int+0x214>
    8534:	e3130004 	tst	r3, #4
    8538:	1a00007a 	bne	8728 <cvt_int+0x278>
    853c:	e2133008 	ands	r3, r3, #8
    8540:	058d3008 	streq	r3, [sp, #8]
    8544:	13a03020 	movne	r3, #32
    8548:	12477001 	subne	r7, r7, #1
    854c:	158d3008 	strne	r3, [sp, #8]
    8550:	ea000000 	b	8558 <cvt_int+0xa8>
    8554:	e58d2008 	str	r2, [sp, #8]
    8558:	e3550000 	cmp	r5, #0
    855c:	1a00005c 	bne	86d4 <cvt_int+0x224>
    8560:	e3a03030 	mov	r3, #48	; 0x30
    8564:	e3a09001 	mov	r9, #1
    8568:	e5cd3014 	strb	r3, [sp, #20]
    856c:	e59d3000 	ldr	r3, [sp]
    8570:	e1590003 	cmp	r9, r3
    8574:	c6af3079 	sxtbgt	r3, r9
    8578:	c58d3000 	strgt	r3, [sp]
    857c:	e7e0325a 	ubfx	r3, sl, #4, #1
    8580:	e1730008 	cmn	r3, r8
    8584:	e59d2000 	ldr	r2, [sp]
    8588:	e0477002 	sub	r7, r7, r2
    858c:	1a00003d 	bne	8688 <cvt_int+0x1d8>
    8590:	e3570000 	cmp	r7, #0
    8594:	e2478001 	sub	r8, r7, #1
    8598:	da000039 	ble	8684 <cvt_int+0x1d4>
    859c:	e2488001 	sub	r8, r8, #1
    85a0:	e3a00020 	mov	r0, #32
    85a4:	e12fff34 	blx	r4
    85a8:	e3780001 	cmn	r8, #1
    85ac:	1afffffa 	bne	859c <cvt_int+0xec>
    85b0:	e59d3004 	ldr	r3, [sp, #4]
    85b4:	e7c0a013 	bfi	sl, r3, #0, #1
    85b8:	e6efa07a 	uxtb	sl, sl
    85bc:	e31a0011 	tst	sl, #17
    85c0:	03e08001 	mvneq	r8, #1
    85c4:	13e08000 	mvnne	r8, #0
    85c8:	e59d3000 	ldr	r3, [sp]
    85cc:	e1530009 	cmp	r3, r9
    85d0:	e2433001 	sub	r3, r3, #1
    85d4:	e6afb073 	sxtb	fp, r3
    85d8:	da000006 	ble	85f8 <cvt_int+0x148>
    85dc:	e3a00030 	mov	r0, #48	; 0x30
    85e0:	e2877001 	add	r7, r7, #1
    85e4:	e12fff34 	blx	r4
    85e8:	e159000b 	cmp	r9, fp
    85ec:	e24bb001 	sub	fp, fp, #1
    85f0:	e6afb07b 	sxtb	fp, fp
    85f4:	bafffff8 	blt	85dc <cvt_int+0x12c>
    85f8:	e59d3008 	ldr	r3, [sp, #8]
    85fc:	e3530000 	cmp	r3, #0
    8600:	1a000044 	bne	8718 <cvt_int+0x268>
    8604:	e31a0040 	tst	sl, #64	; 0x40
    8608:	0a000005 	beq	8624 <cvt_int+0x174>
    860c:	e3560008 	cmp	r6, #8
    8610:	0a000059 	beq	877c <cvt_int+0x2cc>
    8614:	e3560010 	cmp	r6, #16
    8618:	0a000050 	beq	8760 <cvt_int+0x2b0>
    861c:	e3560002 	cmp	r6, #2
    8620:	0a000047 	beq	8744 <cvt_int+0x294>
    8624:	e28d9014 	add	r9, sp, #20
    8628:	e2856001 	add	r6, r5, #1
    862c:	e0896006 	add	r6, r9, r6
    8630:	e5760001 	ldrb	r0, [r6, #-1]!
    8634:	e12fff34 	blx	r4
    8638:	e0463009 	sub	r3, r6, r9
    863c:	e3530000 	cmp	r3, #0
    8640:	cafffffa 	bgt	8630 <cvt_int+0x180>
    8644:	e3580000 	cmp	r8, #0
    8648:	e2877001 	add	r7, r7, #1
    864c:	e0855007 	add	r5, r5, r7
    8650:	e2488001 	sub	r8, r8, #1
    8654:	da000007 	ble	8678 <cvt_int+0x1c8>
    8658:	e1a06008 	mov	r6, r8
    865c:	e2466001 	sub	r6, r6, #1
    8660:	e3a00020 	mov	r0, #32
    8664:	e12fff34 	blx	r4
    8668:	e3760001 	cmn	r6, #1
    866c:	1afffffa 	bne	865c <cvt_int+0x1ac>
    8670:	e2855001 	add	r5, r5, #1
    8674:	e0885005 	add	r5, r8, r5
    8678:	e1a00005 	mov	r0, r5
    867c:	e28dd03c 	add	sp, sp, #60	; 0x3c
    8680:	e8bd8ff0 	pop	{r4, r5, r6, r7, r8, r9, sl, fp, pc}
    8684:	e1a07008 	mov	r7, r8
    8688:	e59d3004 	ldr	r3, [sp, #4]
    868c:	e7c0a013 	bfi	sl, r3, #0, #1
    8690:	e6efa07a 	uxtb	sl, sl
    8694:	e21a3011 	ands	r3, sl, #17
    8698:	1a000026 	bne	8738 <cvt_int+0x288>
    869c:	e3570000 	cmp	r7, #0
    86a0:	e2478001 	sub	r8, r7, #1
    86a4:	d1a07003 	movle	r7, r3
    86a8:	daffffc6 	ble	85c8 <cvt_int+0x118>
    86ac:	e2488001 	sub	r8, r8, #1
    86b0:	e1a0000b 	mov	r0, fp
    86b4:	e12fff34 	blx	r4
    86b8:	e3780001 	cmn	r8, #1
    86bc:	1afffffa 	bne	86ac <cvt_int+0x1fc>
    86c0:	eaffffc0 	b	85c8 <cvt_int+0x118>
    86c4:	e3a0302d 	mov	r3, #45	; 0x2d
    86c8:	e2477001 	sub	r7, r7, #1
    86cc:	e2655000 	rsb	r5, r5, #0
    86d0:	e58d3008 	str	r3, [sp, #8]
    86d4:	e305eb08 	movw	lr, #23304	; 0x5b08
    86d8:	e340e001 	movt	lr, #1
    86dc:	e28d0013 	add	r0, sp, #19
    86e0:	e3a01000 	mov	r1, #0
    86e4:	e59d200c 	ldr	r2, [sp, #12]
    86e8:	ea000000 	b	86f0 <cvt_int+0x240>
    86ec:	e1a01009 	mov	r1, r9
    86f0:	e713f615 	sdiv	r3, r5, r6
    86f4:	e2819001 	add	r9, r1, #1
    86f8:	e06c5396 	mls	ip, r6, r3, r5
    86fc:	e2535000 	subs	r5, r3, #0
    8700:	e7de300c 	ldrb	r3, [lr, ip]
    8704:	e1823003 	orr	r3, r2, r3
    8708:	e5e03001 	strb	r3, [r0, #1]!
    870c:	1afffff6 	bne	86ec <cvt_int+0x23c>
    8710:	e1a05001 	mov	r5, r1
    8714:	eaffff94 	b	856c <cvt_int+0xbc>
    8718:	e1a00003 	mov	r0, r3
    871c:	e2877001 	add	r7, r7, #1
    8720:	e12fff34 	blx	r4
    8724:	eaffffb6 	b	8604 <cvt_int+0x154>
    8728:	e3a0302b 	mov	r3, #43	; 0x2b
    872c:	e2477001 	sub	r7, r7, #1
    8730:	e58d3008 	str	r3, [sp, #8]
    8734:	eaffff87 	b	8558 <cvt_int+0xa8>
    8738:	e1a08007 	mov	r8, r7
    873c:	e3a07000 	mov	r7, #0
    8740:	eaffffa0 	b	85c8 <cvt_int+0x118>
    8744:	e3a00030 	mov	r0, #48	; 0x30
    8748:	e2877002 	add	r7, r7, #2
    874c:	e12fff34 	blx	r4
    8750:	e59d300c 	ldr	r3, [sp, #12]
    8754:	e3830042 	orr	r0, r3, #66	; 0x42
    8758:	e12fff34 	blx	r4
    875c:	eaffffb0 	b	8624 <cvt_int+0x174>
    8760:	e3a00030 	mov	r0, #48	; 0x30
    8764:	e2877002 	add	r7, r7, #2
    8768:	e12fff34 	blx	r4
    876c:	e59d300c 	ldr	r3, [sp, #12]
    8770:	e3830058 	orr	r0, r3, #88	; 0x58
    8774:	e12fff34 	blx	r4
    8778:	eaffffa9 	b	8624 <cvt_int+0x174>
    877c:	e3a00030 	mov	r0, #48	; 0x30
    8780:	e2877001 	add	r7, r7, #1
    8784:	e12fff34 	blx	r4
    8788:	eaffffa5 	b	8624 <cvt_int+0x174>

0000878c <number>:
    878c:	e92d4ff0 	push	{r4, r5, r6, r7, r8, r9, sl, fp, lr}
    8790:	e2023001 	and	r3, r2, #1
    8794:	e3120010 	tst	r2, #16
    8798:	e24dd09c 	sub	sp, sp, #156	; 0x9c
    879c:	e1a07002 	mov	r7, r2
    87a0:	e7e4a452 	ubfx	sl, r2, #8, #5
    87a4:	e1a05000 	mov	r5, r0
    87a8:	e1a02c42 	asr	r2, r2, #24
    87ac:	e7e40457 	ubfx	r0, r7, #8, #5
    87b0:	e58d3008 	str	r3, [sp, #8]
    87b4:	13a03000 	movne	r3, #0
    87b8:	e7c07013 	bfi	r7, r3, #0, #1
    87bc:	e58d2004 	str	r2, [sp, #4]
    87c0:	e2402008 	sub	r2, r0, #8
    87c4:	058d3010 	streq	r3, [sp, #16]
    87c8:	e20220f7 	and	r2, r2, #247	; 0xf7
    87cc:	158d3010 	strne	r3, [sp, #16]
    87d0:	158d3008 	strne	r3, [sp, #8]
    87d4:	e1a0c001 	mov	ip, r1
    87d8:	e3500002 	cmp	r0, #2
    87dc:	13520000 	cmpne	r2, #0
    87e0:	e6ef1077 	uxtb	r1, r7
    87e4:	13a0a00a 	movne	sl, #10
    87e8:	e3110001 	tst	r1, #1
    87ec:	03a02020 	moveq	r2, #32
    87f0:	13a02030 	movne	r2, #48	; 0x30
    87f4:	e2110002 	ands	r0, r1, #2
    87f8:	e7a73857 	sbfx	r3, r7, #16, #8
    87fc:	e201b020 	and	fp, r1, #32
    8800:	e58d2014 	str	r2, [sp, #20]
    8804:	0a000009 	beq	8830 <number+0xa4>
    8808:	e35c0000 	cmp	ip, #0
    880c:	ba00007c 	blt	8a04 <number+0x278>
    8810:	e3110004 	tst	r1, #4
    8814:	1a000092 	bne	8a64 <number+0x2d8>
    8818:	e2111008 	ands	r1, r1, #8
    881c:	058d100c 	streq	r1, [sp, #12]
    8820:	13a02020 	movne	r2, #32
    8824:	12433001 	subne	r3, r3, #1
    8828:	158d200c 	strne	r2, [sp, #12]
    882c:	ea000000 	b	8834 <number+0xa8>
    8830:	e58d000c 	str	r0, [sp, #12]
    8834:	e35c0000 	cmp	ip, #0
    8838:	1a000075 	bne	8a14 <number+0x288>
    883c:	e3a01001 	mov	r1, #1
    8840:	e3a00030 	mov	r0, #48	; 0x30
    8844:	e1a0600c 	mov	r6, ip
    8848:	e1a04001 	mov	r4, r1
    884c:	e5cd0018 	strb	r0, [sp, #24]
    8850:	e59d2004 	ldr	r2, [sp, #4]
    8854:	e7e00257 	ubfx	r0, r7, #4, #1
    8858:	e1510002 	cmp	r1, r2
    885c:	c6af2071 	sxtbgt	r2, r1
    8860:	e0438002 	sub	r8, r3, r2
    8864:	e59d3010 	ldr	r3, [sp, #16]
    8868:	c58d2004 	strgt	r2, [sp, #4]
    886c:	e1700003 	cmn	r0, r3
    8870:	1a00004a 	bne	89a0 <number+0x214>
    8874:	e3580000 	cmp	r8, #0
    8878:	e2489001 	sub	r9, r8, #1
    887c:	da000046 	ble	899c <number+0x210>
    8880:	e58d4010 	str	r4, [sp, #16]
    8884:	e1a04009 	mov	r4, r9
    8888:	e1a09001 	mov	r9, r1
    888c:	e2444001 	sub	r4, r4, #1
    8890:	e3a00020 	mov	r0, #32
    8894:	e12fff35 	blx	r5
    8898:	e3740001 	cmn	r4, #1
    889c:	1afffffa 	bne	888c <number+0x100>
    88a0:	e59d3008 	ldr	r3, [sp, #8]
    88a4:	e1a01009 	mov	r1, r9
    88a8:	e59d4010 	ldr	r4, [sp, #16]
    88ac:	e7c07013 	bfi	r7, r3, #0, #1
    88b0:	e6ef3077 	uxtb	r3, r7
    88b4:	e3130010 	tst	r3, #16
    88b8:	e58d3008 	str	r3, [sp, #8]
    88bc:	03e09001 	mvneq	r9, #1
    88c0:	13e09000 	mvnne	r9, #0
    88c4:	e59d3004 	ldr	r3, [sp, #4]
    88c8:	e1530001 	cmp	r3, r1
    88cc:	e2437001 	sub	r7, r3, #1
    88d0:	e6af7077 	sxtb	r7, r7
    88d4:	da00000d 	ble	8910 <number+0x184>
    88d8:	e58d6004 	str	r6, [sp, #4]
    88dc:	e1a06008 	mov	r6, r8
    88e0:	e1a08004 	mov	r8, r4
    88e4:	e1a04001 	mov	r4, r1
    88e8:	e3a00030 	mov	r0, #48	; 0x30
    88ec:	e2866001 	add	r6, r6, #1
    88f0:	e12fff35 	blx	r5
    88f4:	e1540007 	cmp	r4, r7
    88f8:	e2477001 	sub	r7, r7, #1
    88fc:	e6af7077 	sxtb	r7, r7
    8900:	bafffff8 	blt	88e8 <number+0x15c>
    8904:	e1a04008 	mov	r4, r8
    8908:	e1a08006 	mov	r8, r6
    890c:	e59d6004 	ldr	r6, [sp, #4]
    8910:	e59d300c 	ldr	r3, [sp, #12]
    8914:	e3530000 	cmp	r3, #0
    8918:	1a00004d 	bne	8a54 <number+0x2c8>
    891c:	e59d3008 	ldr	r3, [sp, #8]
    8920:	e3130040 	tst	r3, #64	; 0x40
    8924:	0a000005 	beq	8940 <number+0x1b4>
    8928:	e35a0008 	cmp	sl, #8
    892c:	0a00005f 	beq	8ab0 <number+0x324>
    8930:	e35a0010 	cmp	sl, #16
    8934:	0a000057 	beq	8a98 <number+0x30c>
    8938:	e35a0002 	cmp	sl, #2
    893c:	0a00004f 	beq	8a80 <number+0x2f4>
    8940:	e28d7018 	add	r7, sp, #24
    8944:	e0874004 	add	r4, r7, r4
    8948:	e5740001 	ldrb	r0, [r4, #-1]!
    894c:	e12fff35 	blx	r5
    8950:	e0443007 	sub	r3, r4, r7
    8954:	e3530000 	cmp	r3, #0
    8958:	cafffffa 	bgt	8948 <number+0x1bc>
    895c:	e3590000 	cmp	r9, #0
    8960:	e2888001 	add	r8, r8, #1
    8964:	e0866008 	add	r6, r6, r8
    8968:	e2499001 	sub	r9, r9, #1
    896c:	da000007 	ble	8990 <number+0x204>
    8970:	e1a04009 	mov	r4, r9
    8974:	e2444001 	sub	r4, r4, #1
    8978:	e3a00020 	mov	r0, #32
    897c:	e12fff35 	blx	r5
    8980:	e3740001 	cmn	r4, #1
    8984:	1afffffa 	bne	8974 <number+0x1e8>
    8988:	e2866001 	add	r6, r6, #1
    898c:	e0896006 	add	r6, r9, r6
    8990:	e1a00006 	mov	r0, r6
    8994:	e28dd09c 	add	sp, sp, #156	; 0x9c
    8998:	e8bd8ff0 	pop	{r4, r5, r6, r7, r8, r9, sl, fp, pc}
    899c:	e1a08009 	mov	r8, r9
    89a0:	e59d3008 	ldr	r3, [sp, #8]
    89a4:	e7c07013 	bfi	r7, r3, #0, #1
    89a8:	e6ef3077 	uxtb	r3, r7
    89ac:	e2130010 	ands	r0, r3, #16
    89b0:	e58d3008 	str	r3, [sp, #8]
    89b4:	1a00002e 	bne	8a74 <number+0x2e8>
    89b8:	e3580000 	cmp	r8, #0
    89bc:	e2489001 	sub	r9, r8, #1
    89c0:	d1a08000 	movle	r8, r0
    89c4:	daffffbe 	ble	88c4 <number+0x138>
    89c8:	e1a03004 	mov	r3, r4
    89cc:	e59d7014 	ldr	r7, [sp, #20]
    89d0:	e1a04009 	mov	r4, r9
    89d4:	e1a09003 	mov	r9, r3
    89d8:	e58d1010 	str	r1, [sp, #16]
    89dc:	e2444001 	sub	r4, r4, #1
    89e0:	e1a00007 	mov	r0, r7
    89e4:	e12fff35 	blx	r5
    89e8:	e3740001 	cmn	r4, #1
    89ec:	1afffffa 	bne	89dc <number+0x250>
    89f0:	e1a03009 	mov	r3, r9
    89f4:	e59d1010 	ldr	r1, [sp, #16]
    89f8:	e1a09004 	mov	r9, r4
    89fc:	e1a04003 	mov	r4, r3
    8a00:	eaffffaf 	b	88c4 <number+0x138>
    8a04:	e3a0202d 	mov	r2, #45	; 0x2d
    8a08:	e2433001 	sub	r3, r3, #1
    8a0c:	e26cc000 	rsb	ip, ip, #0
    8a10:	e58d200c 	str	r2, [sp, #12]
    8a14:	e3059b08 	movw	r9, #23304	; 0x5b08
    8a18:	e3409001 	movt	r9, #1
    8a1c:	e28de017 	add	lr, sp, #23
    8a20:	e3a06000 	mov	r6, #0
    8a24:	ea000000 	b	8a2c <number+0x2a0>
    8a28:	e1a06004 	mov	r6, r4
    8a2c:	e712fa1c 	sdiv	r2, ip, sl
    8a30:	e2864001 	add	r4, r6, #1
    8a34:	e1a01004 	mov	r1, r4
    8a38:	e060c29a 	mls	r0, sl, r2, ip
    8a3c:	e252c000 	subs	ip, r2, #0
    8a40:	e7d92000 	ldrb	r2, [r9, r0]
    8a44:	e18b2002 	orr	r2, fp, r2
    8a48:	e5ee2001 	strb	r2, [lr, #1]!
    8a4c:	1afffff5 	bne	8a28 <number+0x29c>
    8a50:	eaffff7e 	b	8850 <number+0xc4>
    8a54:	e1a00003 	mov	r0, r3
    8a58:	e2888001 	add	r8, r8, #1
    8a5c:	e12fff35 	blx	r5
    8a60:	eaffffad 	b	891c <number+0x190>
    8a64:	e3a0202b 	mov	r2, #43	; 0x2b
    8a68:	e2433001 	sub	r3, r3, #1
    8a6c:	e58d200c 	str	r2, [sp, #12]
    8a70:	eaffff6f 	b	8834 <number+0xa8>
    8a74:	e1a09008 	mov	r9, r8
    8a78:	e3a08000 	mov	r8, #0
    8a7c:	eaffff90 	b	88c4 <number+0x138>
    8a80:	e3a00030 	mov	r0, #48	; 0x30
    8a84:	e2888002 	add	r8, r8, #2
    8a88:	e12fff35 	blx	r5
    8a8c:	e38b0042 	orr	r0, fp, #66	; 0x42
    8a90:	e12fff35 	blx	r5
    8a94:	eaffffa9 	b	8940 <number+0x1b4>
    8a98:	e3a00030 	mov	r0, #48	; 0x30
    8a9c:	e2888002 	add	r8, r8, #2
    8aa0:	e12fff35 	blx	r5
    8aa4:	e38b0058 	orr	r0, fp, #88	; 0x58
    8aa8:	e12fff35 	blx	r5
    8aac:	eaffffa3 	b	8940 <number+0x1b4>
    8ab0:	e3a00030 	mov	r0, #48	; 0x30
    8ab4:	e2888001 	add	r8, r8, #1
    8ab8:	e12fff35 	blx	r5
    8abc:	eaffff9f 	b	8940 <number+0x1b4>

00008ac0 <Buffer_WriteChar>:
    8ac0:	e3053a48 	movw	r3, #23112	; 0x5a48
    8ac4:	e3403001 	movt	r3, #1
    8ac8:	e5932000 	ldr	r2, [r3]
    8acc:	e3720001 	cmn	r2, #1
    8ad0:	0a000002 	beq	8ae0 <Buffer_WriteChar+0x20>
    8ad4:	e5931004 	ldr	r1, [r3, #4]
    8ad8:	e1520001 	cmp	r2, r1
    8adc:	d12fff1e 	bxle	lr
    8ae0:	e5932008 	ldr	r2, [r3, #8]
    8ae4:	e3520000 	cmp	r2, #0
    8ae8:	15931004 	ldrne	r1, [r3, #4]
    8aec:	1281c001 	addne	ip, r1, #1
    8af0:	1583c004 	strne	ip, [r3, #4]
    8af4:	17c20001 	strbne	r0, [r2, r1]
    8af8:	e12fff1e 	bx	lr

00008afc <NumStr>:
    8afc:	e92d4ff0 	push	{r4, r5, r6, r7, r8, r9, sl, fp, lr}
    8b00:	e2505000 	subs	r5, r0, #0
    8b04:	01a0a005 	moveq	sl, r5
    8b08:	ed2d8b06 	vpush	{d8-d10}
    8b0c:	e24ddf47 	sub	sp, sp, #284	; 0x11c
    8b10:	0a000081 	beq	8d1c <NumStr+0x220>
    8b14:	eeb50bc0 	vcmpe.f64	d0, #0.0
    8b18:	e3a06000 	mov	r6, #0
    8b1c:	e28d0008 	add	r0, sp, #8
    8b20:	eef1fa10 	vmrs	APSR_nzcv, fpscr
    8b24:	43a03001 	movmi	r3, #1
    8b28:	4eb10b40 	vnegmi.f64	d0, d0
    8b2c:	458d3004 	strmi	r3, [sp, #4]
    8b30:	558d6004 	strpl	r6, [sp, #4]
    8b34:	fa002591 	blx	12180 <modf>
    8b38:	eddd1b02 	vldr	d17, [sp, #8]
    8b3c:	eeb08b40 	vmov.f64	d8, d0
    8b40:	eef51b40 	vcmp.f64	d17, #0.0
    8b44:	eef1fa10 	vmrs	APSR_nzcv, fpscr
    8b48:	1a000018 	bne	8bb0 <NumStr+0xb4>
    8b4c:	eeb50bc0 	vcmpe.f64	d0, #0.0
    8b50:	eef1fa10 	vmrs	APSR_nzcv, fpscr
    8b54:	da0000a8 	ble	8dfc <NumStr+0x300>
    8b58:	eef22b04 	vmov.f64	d18, #36	; 0x41200000  10.0
    8b5c:	eef71b00 	vmov.f64	d17, #112	; 0x3f800000  1.0
    8b60:	ee600b22 	vmul.f64	d16, d0, d18
    8b64:	eef40be1 	vcmpe.f64	d16, d17
    8b68:	edcd0b04 	vstr	d16, [sp, #16]
    8b6c:	eef1fa10 	vmrs	APSR_nzcv, fpscr
    8b70:	5a0000a1 	bpl	8dfc <NumStr+0x300>
    8b74:	eeb08b60 	vmov.f64	d8, d16
    8b78:	e3a0b000 	mov	fp, #0
    8b7c:	ea000000 	b	8b84 <NumStr+0x88>
    8b80:	eeb08b60 	vmov.f64	d8, d16
    8b84:	ee680b22 	vmul.f64	d16, d8, d18
    8b88:	e24bb001 	sub	fp, fp, #1
    8b8c:	eef40be1 	vcmpe.f64	d16, d17
    8b90:	eef1fa10 	vmrs	APSR_nzcv, fpscr
    8b94:	4afffff9 	bmi	8b80 <NumStr+0x84>
    8b98:	e28d9018 	add	r9, sp, #24
    8b9c:	edcd0b04 	vstr	d16, [sp, #16]
    8ba0:	e1a0a009 	mov	sl, r9
    8ba4:	e3a07000 	mov	r7, #0
    8ba8:	e20b107f 	and	r1, fp, #127	; 0x7f
    8bac:	ea000026 	b	8c4c <NumStr+0x150>
    8bb0:	e28d4098 	add	r4, sp, #152	; 0x98
    8bb4:	e3a0b000 	mov	fp, #0
    8bb8:	e1a08004 	mov	r8, r4
    8bbc:	eeb2ab04 	vmov.f64	d10, #36	; 0x41200000  10.0
    8bc0:	ed9f9b98 	vldr	d9, [pc, #608]	; 8e28 <NumStr+0x32c>
    8bc4:	ea000000 	b	8bcc <NumStr+0xd0>
    8bc8:	e1a08002 	mov	r8, r2
    8bcc:	ee810b8a 	vdiv.f64	d0, d17, d10
    8bd0:	e28d0008 	add	r0, sp, #8
    8bd4:	fa002569 	blx	12180 <modf>
    8bd8:	ee700b09 	vadd.f64	d16, d0, d9
    8bdc:	eddd1b02 	vldr	d17, [sp, #8]
    8be0:	e28bb001 	add	fp, fp, #1
    8be4:	e20b107f 	and	r1, fp, #127	; 0x7f
    8be8:	e2482001 	sub	r2, r8, #1
    8bec:	ed8d0b04 	vstr	d0, [sp, #16]
    8bf0:	ee600b8a 	vmul.f64	d16, d16, d10
    8bf4:	e6ef7071 	uxtb	r7, r1
    8bf8:	eef51b40 	vcmp.f64	d17, #0.0
    8bfc:	eefd7be0 	vcvt.s32.f64	s15, d16
    8c00:	eef1fa10 	vmrs	APSR_nzcv, fpscr
    8c04:	ee173a90 	vmov	r3, s15
    8c08:	e2833030 	add	r3, r3, #48	; 0x30
    8c0c:	e6ef3073 	uxtb	r3, r3
    8c10:	e5483001 	strb	r3, [r8, #-1]
    8c14:	1affffeb 	bne	8bc8 <NumStr+0xcc>
    8c18:	e1520004 	cmp	r2, r4
    8c1c:	e28d9018 	add	r9, sp, #24
    8c20:	2a00007d 	bcs	8e1c <NumStr+0x320>
    8c24:	e1a00009 	mov	r0, r9
    8c28:	e28dc097 	add	ip, sp, #151	; 0x97
    8c2c:	ea000000 	b	8c34 <NumStr+0x138>
    8c30:	e5f23001 	ldrb	r3, [r2, #1]!
    8c34:	e15c0002 	cmp	ip, r2
    8c38:	e4c03001 	strb	r3, [r0], #1
    8c3c:	1afffffb 	bne	8c30 <NumStr+0x134>
    8c40:	e28d2099 	add	r2, sp, #153	; 0x99
    8c44:	e0422008 	sub	r2, r2, r8
    8c48:	e089a002 	add	sl, r9, r2
    8c4c:	e59d3004 	ldr	r3, [sp, #4]
    8c50:	e7cd639f 	bfc	r6, #7, #7
    8c54:	e7ce6713 	bfi	r6, r3, #14, #1
    8c58:	e3160902 	tst	r6, #32768	; 0x8000
    8c5c:	1a00003b 	bne	8d50 <NumStr+0x254>
    8c60:	e28d3096 	add	r3, sp, #150	; 0x96
    8c64:	e6ef8071 	uxtb	r8, r1
    8c68:	e083b00b 	add	fp, r3, fp
    8c6c:	e15b0009 	cmp	fp, r9
    8c70:	33a03000 	movcc	r3, #0
    8c74:	35cd3018 	strbcc	r3, [sp, #24]
    8c78:	2a000058 	bcs	8de0 <NumStr+0x2e4>
    8c7c:	e59d3004 	ldr	r3, [sp, #4]
    8c80:	e7cd6398 	bfi	r6, r8, #7, #7
    8c84:	e7ce6713 	bfi	r6, r3, #14, #1
    8c88:	e7e73456 	ubfx	r3, r6, #8, #8
    8c8c:	e213a040 	ands	sl, r3, #64	; 0x40
    8c90:	03a04001 	moveq	r4, #1
    8c94:	01a0b00a 	moveq	fp, sl
    8c98:	1a000026 	bne	8d38 <NumStr+0x23c>
    8c9c:	e3160dfe 	tst	r6, #16256	; 0x3f80
    8ca0:	0a000021 	beq	8d2c <NumStr+0x230>
    8ca4:	e3580000 	cmp	r8, #0
    8ca8:	12486001 	subne	r6, r8, #1
    8cac:	12494001 	subne	r4, r9, #1
    8cb0:	10896006 	addne	r6, r9, r6
    8cb4:	0a000016 	beq	8d14 <NumStr+0x218>
    8cb8:	e5f40001 	ldrb	r0, [r4, #1]!
    8cbc:	e12fff35 	blx	r5
    8cc0:	e1540006 	cmp	r4, r6
    8cc4:	1afffffb 	bne	8cb8 <NumStr+0x1bc>
    8cc8:	e08b4008 	add	r4, fp, r8
    8ccc:	e3580000 	cmp	r8, #0
    8cd0:	01a0a004 	moveq	sl, r4
    8cd4:	0a00000e 	beq	8d14 <NumStr+0x218>
    8cd8:	e3a0002e 	mov	r0, #46	; 0x2e
    8cdc:	e284a001 	add	sl, r4, #1
    8ce0:	e12fff35 	blx	r5
    8ce4:	e1580007 	cmp	r8, r7
    8ce8:	2a000009 	bcs	8d14 <NumStr+0x218>
    8cec:	e2486001 	sub	r6, r8, #1
    8cf0:	e1a04008 	mov	r4, r8
    8cf4:	e0896006 	add	r6, r9, r6
    8cf8:	e2844001 	add	r4, r4, #1
    8cfc:	e5f60001 	ldrb	r0, [r6, #1]!
    8d00:	e12fff35 	blx	r5
    8d04:	e1540007 	cmp	r4, r7
    8d08:	3afffffa 	bcc	8cf8 <NumStr+0x1fc>
    8d0c:	e0477008 	sub	r7, r7, r8
    8d10:	e087a00a 	add	sl, r7, sl
    8d14:	e3a00000 	mov	r0, #0
    8d18:	e12fff35 	blx	r5
    8d1c:	e1a0000a 	mov	r0, sl
    8d20:	e28ddf47 	add	sp, sp, #284	; 0x11c
    8d24:	ecbd8b06 	vpop	{d8-d10}
    8d28:	e8bd8ff0 	pop	{r4, r5, r6, r7, r8, r9, sl, fp, pc}
    8d2c:	e3a00030 	mov	r0, #48	; 0x30
    8d30:	e12fff35 	blx	r5
    8d34:	eaffffe4 	b	8ccc <NumStr+0x1d0>
    8d38:	e3a0002d 	mov	r0, #45	; 0x2d
    8d3c:	e3a0a001 	mov	sl, #1
    8d40:	e12fff35 	blx	r5
    8d44:	e1a0b00a 	mov	fp, sl
    8d48:	e3a04002 	mov	r4, #2
    8d4c:	eaffffd2 	b	8c9c <NumStr+0x1a0>
    8d50:	e28db096 	add	fp, sp, #150	; 0x96
    8d54:	e28d4098 	add	r4, sp, #152	; 0x98
    8d58:	e15a000b 	cmp	sl, fp
    8d5c:	915a0004 	cmpls	sl, r4
    8d60:	e6ef8071 	uxtb	r8, r1
    8d64:	33a03001 	movcc	r3, #1
    8d68:	23a03000 	movcs	r3, #0
    8d6c:	e3530000 	cmp	r3, #0
    8d70:	0a000017 	beq	8dd4 <NumStr+0x2d8>
    8d74:	ed9f9b2d 	vldr	d9, [pc, #180]	; 8e30 <NumStr+0x334>
    8d78:	eeb48bc9 	vcmpe.f64	d8, d9
    8d7c:	eef1fa10 	vmrs	APSR_nzcv, fpscr
    8d80:	c28d4098 	addgt	r4, sp, #152	; 0x98
    8d84:	ceb2ab04 	vmovgt.f64	d10, #36	; 0x41200000  10.0
    8d88:	ca000003 	bgt	8d9c <NumStr+0x2a0>
    8d8c:	ea000010 	b	8dd4 <NumStr+0x2d8>
    8d90:	eeb40bc9 	vcmpe.f64	d0, d9
    8d94:	eef1fa10 	vmrs	APSR_nzcv, fpscr
    8d98:	da00000d 	ble	8dd4 <NumStr+0x2d8>
    8d9c:	ee280b0a 	vmul.f64	d0, d8, d10
    8da0:	e28d0010 	add	r0, sp, #16
    8da4:	fa0024f5 	blx	12180 <modf>
    8da8:	eddd0b04 	vldr	d16, [sp, #16]
    8dac:	e2877001 	add	r7, r7, #1
    8db0:	eeb08b40 	vmov.f64	d8, d0
    8db4:	e207707f 	and	r7, r7, #127	; 0x7f
    8db8:	eefd7be0 	vcvt.s32.f64	s15, d16
    8dbc:	ee173a90 	vmov	r3, s15
    8dc0:	e2833030 	add	r3, r3, #48	; 0x30
    8dc4:	e4ca3001 	strb	r3, [sl], #1
    8dc8:	e15a000b 	cmp	sl, fp
    8dcc:	915a0004 	cmpls	sl, r4
    8dd0:	3affffee 	bcc	8d90 <NumStr+0x294>
    8dd4:	e3a03000 	mov	r3, #0
    8dd8:	e5ca3000 	strb	r3, [sl]
    8ddc:	eaffffa6 	b	8c7c <NumStr+0x180>
    8de0:	e15b000a 	cmp	fp, sl
    8de4:	e28d4098 	add	r4, sp, #152	; 0x98
    8de8:	23a03001 	movcs	r3, #1
    8dec:	33a03000 	movcc	r3, #0
    8df0:	e15a0004 	cmp	sl, r4
    8df4:	23a03000 	movcs	r3, #0
    8df8:	eaffffdb 	b	8d6c <NumStr+0x270>
    8dfc:	e59d3004 	ldr	r3, [sp, #4]
    8e00:	e28d9018 	add	r9, sp, #24
    8e04:	e3a07000 	mov	r7, #0
    8e08:	e1a0a009 	mov	sl, r9
    8e0c:	e7ce6713 	bfi	r6, r3, #14, #1
    8e10:	e1a08007 	mov	r8, r7
    8e14:	e28db096 	add	fp, sp, #150	; 0x96
    8e18:	eaffffd5 	b	8d74 <NumStr+0x278>
    8e1c:	e1a0a009 	mov	sl, r9
    8e20:	eaffff89 	b	8c4c <NumStr+0x150>
    8e24:	e320f000 	nop	{0}
    8e28:	eb851eb8 	.word	0xeb851eb8
    8e2c:	3f9eb851 	.word	0x3f9eb851
    8e30:	00000000 	.word	0x00000000
    8e34:	3cb00000 	.word	0x3cb00000

00008e38 <Process_Out>:
    8e38:	e3520000 	cmp	r2, #0
    8e3c:	13510000 	cmpne	r1, #0
    8e40:	03a0c001 	moveq	ip, #1
    8e44:	13a0c000 	movne	ip, #0
    8e48:	e3500000 	cmp	r0, #0
    8e4c:	038cc001 	orreq	ip, ip, #1
    8e50:	e35c0000 	cmp	ip, #0
    8e54:	1a0000c4 	bne	916c <Process_Out+0x334>
    8e58:	e92d4ff0 	push	{r4, r5, r6, r7, r8, r9, sl, fp, lr}
    8e5c:	e5d1e000 	ldrb	lr, [r1]
    8e60:	e24dd024 	sub	sp, sp, #36	; 0x24
    8e64:	e35e0000 	cmp	lr, #0
    8e68:	0a00032e 	beq	9b28 <Process_Out+0xcf0>
    8e6c:	e58d0010 	str	r0, [sp, #16]
    8e70:	e1a07002 	mov	r7, r2
    8e74:	e58d3014 	str	r3, [sp, #20]
    8e78:	e1a08001 	mov	r8, r1
    8e7c:	e2423001 	sub	r3, r2, #1
    8e80:	e1a0600c 	mov	r6, ip
    8e84:	e1a0900c 	mov	r9, ip
    8e88:	e1a0000e 	mov	r0, lr
    8e8c:	e58d3018 	str	r3, [sp, #24]
    8e90:	e3500025 	cmp	r0, #37	; 0x25
    8e94:	0a00000a 	beq	8ec4 <Process_Out+0x8c>
    8e98:	e59d3010 	ldr	r3, [sp, #16]
    8e9c:	e2899001 	add	r9, r9, #1
    8ea0:	e12fff33 	blx	r3
    8ea4:	e2866001 	add	r6, r6, #1
    8ea8:	e7d80006 	ldrb	r0, [r8, r6]
    8eac:	e3500000 	cmp	r0, #0
    8eb0:	11570006 	cmpne	r7, r6
    8eb4:	8afffff5 	bhi	8e90 <Process_Out+0x58>
    8eb8:	e1a00009 	mov	r0, r9
    8ebc:	e28dd024 	add	sp, sp, #36	; 0x24
    8ec0:	e8bd8ff0 	pop	{r4, r5, r6, r7, r8, r9, sl, fp, pc}
    8ec4:	e3a05000 	mov	r5, #0
    8ec8:	e088c006 	add	ip, r8, r6
    8ecc:	e1a0a005 	mov	sl, r5
    8ed0:	e58d5008 	str	r5, [sp, #8]
    8ed4:	e58d500c 	str	r5, [sp, #12]
    8ed8:	e58d5004 	str	r5, [sp, #4]
    8edc:	e58d5000 	str	r5, [sp]
    8ee0:	e286b001 	add	fp, r6, #1
    8ee4:	e157000b 	cmp	r7, fp
    8ee8:	9afffff2 	bls	8eb8 <Process_Out+0x80>
    8eec:	e5fc0001 	ldrb	r0, [ip, #1]!
    8ef0:	e2403020 	sub	r3, r0, #32
    8ef4:	e3530010 	cmp	r3, #16
    8ef8:	979ff103 	ldrls	pc, [pc, r3, lsl #2]
    8efc:	ea00001f 	b	8f80 <Process_Out+0x148>
    8f00:	00008f54 	.word	0x00008f54
    8f04:	00008f80 	.word	0x00008f80
    8f08:	00008f80 	.word	0x00008f80
    8f0c:	00008f44 	.word	0x00008f44
    8f10:	00008f80 	.word	0x00008f80
    8f14:	00008f80 	.word	0x00008f80
    8f18:	00008f80 	.word	0x00008f80
    8f1c:	00008f80 	.word	0x00008f80
    8f20:	00008f80 	.word	0x00008f80
    8f24:	00008f80 	.word	0x00008f80
    8f28:	00008f80 	.word	0x00008f80
    8f2c:	00008f68 	.word	0x00008f68
    8f30:	00008f80 	.word	0x00008f80
    8f34:	00008f74 	.word	0x00008f74
    8f38:	00008f80 	.word	0x00008f80
    8f3c:	00008f80 	.word	0x00008f80
    8f40:	00008f5c 	.word	0x00008f5c
    8f44:	e3a03001 	mov	r3, #1
    8f48:	e58d3008 	str	r3, [sp, #8]
    8f4c:	e1a0600b 	mov	r6, fp
    8f50:	eaffffe2 	b	8ee0 <Process_Out+0xa8>
    8f54:	e3a0a001 	mov	sl, #1
    8f58:	eafffffb 	b	8f4c <Process_Out+0x114>
    8f5c:	e3a03001 	mov	r3, #1
    8f60:	e58d3000 	str	r3, [sp]
    8f64:	eafffff8 	b	8f4c <Process_Out+0x114>
    8f68:	e3a03001 	mov	r3, #1
    8f6c:	e58d3004 	str	r3, [sp, #4]
    8f70:	eafffff5 	b	8f4c <Process_Out+0x114>
    8f74:	e3a03001 	mov	r3, #1
    8f78:	e58d300c 	str	r3, [sp, #12]
    8f7c:	eafffff2 	b	8f4c <Process_Out+0x114>
    8f80:	e350002a 	cmp	r0, #42	; 0x2a
    8f84:	1088600b 	addne	r6, r8, fp
    8f88:	13e04000 	mvnne	r4, #0
    8f8c:	1a000004 	bne	8fa4 <Process_Out+0x16c>
    8f90:	ea0000e4 	b	9328 <Process_Out+0x4f0>
    8f94:	e28bb001 	add	fp, fp, #1
    8f98:	e6af4073 	sxtb	r4, r3
    8f9c:	e157000b 	cmp	r7, fp
    8fa0:	9affffc4 	bls	8eb8 <Process_Out+0x80>
    8fa4:	fa00241c 	blx	1201c <__locale_ctype_ptr>
    8fa8:	e4d6c001 	ldrb	ip, [r6], #1
    8fac:	e1c43fc4 	bic	r3, r4, r4, asr #31
    8fb0:	e080000c 	add	r0, r0, ip
    8fb4:	e24c2030 	sub	r2, ip, #48	; 0x30
    8fb8:	e0833103 	add	r3, r3, r3, lsl #2
    8fbc:	e5d01001 	ldrb	r1, [r0, #1]
    8fc0:	e0823083 	add	r3, r2, r3, lsl #1
    8fc4:	e3110004 	tst	r1, #4
    8fc8:	1afffff1 	bne	8f94 <Process_Out+0x15c>
    8fcc:	e35c002e 	cmp	ip, #46	; 0x2e
    8fd0:	13e03000 	mvnne	r3, #0
    8fd4:	158d301c 	strne	r3, [sp, #28]
    8fd8:	0a0002b4 	beq	9ab0 <Process_Out+0xc78>
    8fdc:	e20c10fb 	and	r1, ip, #251	; 0xfb
    8fe0:	e3510068 	cmp	r1, #104	; 0x68
    8fe4:	0a0000c0 	beq	92ec <Process_Out+0x4b4>
    8fe8:	e35c004c 	cmp	ip, #76	; 0x4c
    8fec:	135c0074 	cmpne	ip, #116	; 0x74
    8ff0:	e20c00ef 	and	r0, ip, #239	; 0xef
    8ff4:	03a01001 	moveq	r1, #1
    8ff8:	13a01000 	movne	r1, #0
    8ffc:	e350006a 	cmp	r0, #106	; 0x6a
    9000:	03811001 	orreq	r1, r1, #1
    9004:	e3510000 	cmp	r1, #0
    9008:	1a000059 	bne	9174 <Process_Out+0x33c>
    900c:	e24cc025 	sub	ip, ip, #37	; 0x25
    9010:	e35c0053 	cmp	ip, #83	; 0x53
    9014:	979ff10c 	ldrls	pc, [pc, ip, lsl #2]
    9018:	ea00029e 	b	9a98 <Process_Out+0xc60>
    901c:	00009624 	.word	0x00009624
    9020:	00009a98 	.word	0x00009a98
    9024:	00009a98 	.word	0x00009a98
    9028:	00009a98 	.word	0x00009a98
    902c:	00009a98 	.word	0x00009a98
    9030:	00009a98 	.word	0x00009a98
    9034:	00009a98 	.word	0x00009a98
    9038:	00009a98 	.word	0x00009a98
    903c:	00009a98 	.word	0x00009a98
    9040:	00009a98 	.word	0x00009a98
    9044:	00009a98 	.word	0x00009a98
    9048:	00009a98 	.word	0x00009a98
    904c:	00009a98 	.word	0x00009a98
    9050:	00009a98 	.word	0x00009a98
    9054:	00009a98 	.word	0x00009a98
    9058:	00009a98 	.word	0x00009a98
    905c:	00009a98 	.word	0x00009a98
    9060:	00009a98 	.word	0x00009a98
    9064:	00009a98 	.word	0x00009a98
    9068:	00009a98 	.word	0x00009a98
    906c:	00009a98 	.word	0x00009a98
    9070:	00009a98 	.word	0x00009a98
    9074:	00009a98 	.word	0x00009a98
    9078:	00009a98 	.word	0x00009a98
    907c:	00009a98 	.word	0x00009a98
    9080:	00009a98 	.word	0x00009a98
    9084:	00009a98 	.word	0x00009a98
    9088:	00009a98 	.word	0x00009a98
    908c:	00009a90 	.word	0x00009a90
    9090:	00009a98 	.word	0x00009a98
    9094:	00009a98 	.word	0x00009a98
    9098:	00009a98 	.word	0x00009a98
    909c:	00009a90 	.word	0x00009a90
    90a0:	00009a90 	.word	0x00009a90
    90a4:	00009a90 	.word	0x00009a90
    90a8:	00009a98 	.word	0x00009a98
    90ac:	00009a98 	.word	0x00009a98
    90b0:	00009a98 	.word	0x00009a98
    90b4:	00009a98 	.word	0x00009a98
    90b8:	00009a98 	.word	0x00009a98
    90bc:	00009a98 	.word	0x00009a98
    90c0:	00009a98 	.word	0x00009a98
    90c4:	00009a98 	.word	0x00009a98
    90c8:	00009a98 	.word	0x00009a98
    90cc:	00009a98 	.word	0x00009a98
    90d0:	00009a98 	.word	0x00009a98
    90d4:	00009a98 	.word	0x00009a98
    90d8:	00009a98 	.word	0x00009a98
    90dc:	00009a98 	.word	0x00009a98
    90e0:	00009a98 	.word	0x00009a98
    90e4:	00009a98 	.word	0x00009a98
    90e8:	0000995c 	.word	0x0000995c
    90ec:	00009a98 	.word	0x00009a98
    90f0:	00009a98 	.word	0x00009a98
    90f4:	00009a98 	.word	0x00009a98
    90f8:	00009a98 	.word	0x00009a98
    90fc:	00009a98 	.word	0x00009a98
    9100:	00009a98 	.word	0x00009a98
    9104:	00009a98 	.word	0x00009a98
    9108:	00009a98 	.word	0x00009a98
    910c:	00009a90 	.word	0x00009a90
    9110:	00009a98 	.word	0x00009a98
    9114:	0000951c 	.word	0x0000951c
    9118:	00009a78 	.word	0x00009a78
    911c:	00009a90 	.word	0x00009a90
    9120:	00009a90 	.word	0x00009a90
    9124:	00009a90 	.word	0x00009a90
    9128:	00009a98 	.word	0x00009a98
    912c:	00009a78 	.word	0x00009a78
    9130:	00009a98 	.word	0x00009a98
    9134:	00009a98 	.word	0x00009a98
    9138:	00009a98 	.word	0x00009a98
    913c:	00009a98 	.word	0x00009a98
    9140:	000099b8 	.word	0x000099b8
    9144:	00009a60 	.word	0x00009a60
    9148:	000094a4 	.word	0x000094a4
    914c:	00009a98 	.word	0x00009a98
    9150:	00009a98 	.word	0x00009a98
    9154:	0000936c 	.word	0x0000936c
    9158:	00009a98 	.word	0x00009a98
    915c:	00009a98 	.word	0x00009a98
    9160:	00009a98 	.word	0x00009a98
    9164:	00009a98 	.word	0x00009a98
    9168:	00009a48 	.word	0x00009a48
    916c:	e3a00000 	mov	r0, #0
    9170:	e12fff1e 	bx	lr
    9174:	e28b6001 	add	r6, fp, #1
    9178:	e1a0100c 	mov	r1, ip
    917c:	e3a0e000 	mov	lr, #0
    9180:	e1570006 	cmp	r7, r6
    9184:	9affff4b 	bls	8eb8 <Process_Out+0x80>
    9188:	e7d83006 	ldrb	r3, [r8, r6]
    918c:	e2433025 	sub	r3, r3, #37	; 0x25
    9190:	e3530053 	cmp	r3, #83	; 0x53
    9194:	979ff103 	ldrls	pc, [pc, r3, lsl #2]
    9198:	ea000202 	b	99a8 <Process_Out+0xb70>
    919c:	00009628 	.word	0x00009628
    91a0:	000099a8 	.word	0x000099a8
    91a4:	000099a8 	.word	0x000099a8
    91a8:	000099a8 	.word	0x000099a8
    91ac:	000099a8 	.word	0x000099a8
    91b0:	000099a8 	.word	0x000099a8
    91b4:	000099a8 	.word	0x000099a8
    91b8:	000099a8 	.word	0x000099a8
    91bc:	000099a8 	.word	0x000099a8
    91c0:	000099a8 	.word	0x000099a8
    91c4:	000099a8 	.word	0x000099a8
    91c8:	000099a8 	.word	0x000099a8
    91cc:	000099a8 	.word	0x000099a8
    91d0:	000099a8 	.word	0x000099a8
    91d4:	000099a8 	.word	0x000099a8
    91d8:	000099a8 	.word	0x000099a8
    91dc:	000099a8 	.word	0x000099a8
    91e0:	000099a8 	.word	0x000099a8
    91e4:	000099a8 	.word	0x000099a8
    91e8:	000099a8 	.word	0x000099a8
    91ec:	000099a8 	.word	0x000099a8
    91f0:	000099a8 	.word	0x000099a8
    91f4:	000099a8 	.word	0x000099a8
    91f8:	000099a8 	.word	0x000099a8
    91fc:	000099a8 	.word	0x000099a8
    9200:	000099a8 	.word	0x000099a8
    9204:	000099a8 	.word	0x000099a8
    9208:	000099a8 	.word	0x000099a8
    920c:	000096e4 	.word	0x000096e4
    9210:	000099a8 	.word	0x000099a8
    9214:	000099a8 	.word	0x000099a8
    9218:	000099a8 	.word	0x000099a8
    921c:	000096e4 	.word	0x000096e4
    9220:	000096e4 	.word	0x000096e4
    9224:	000096e4 	.word	0x000096e4
    9228:	000099a8 	.word	0x000099a8
    922c:	000099a8 	.word	0x000099a8
    9230:	000099a8 	.word	0x000099a8
    9234:	000099a8 	.word	0x000099a8
    9238:	000099a8 	.word	0x000099a8
    923c:	000099a8 	.word	0x000099a8
    9240:	000099a8 	.word	0x000099a8
    9244:	000099a8 	.word	0x000099a8
    9248:	000099a8 	.word	0x000099a8
    924c:	000099a8 	.word	0x000099a8
    9250:	000099a8 	.word	0x000099a8
    9254:	000099a8 	.word	0x000099a8
    9258:	000099a8 	.word	0x000099a8
    925c:	000099a8 	.word	0x000099a8
    9260:	000099a8 	.word	0x000099a8
    9264:	000099a8 	.word	0x000099a8
    9268:	00009630 	.word	0x00009630
    926c:	000099a8 	.word	0x000099a8
    9270:	000099a8 	.word	0x000099a8
    9274:	000099a8 	.word	0x000099a8
    9278:	000099a8 	.word	0x000099a8
    927c:	000099a8 	.word	0x000099a8
    9280:	000099a8 	.word	0x000099a8
    9284:	000099a8 	.word	0x000099a8
    9288:	000099a8 	.word	0x000099a8
    928c:	000096e4 	.word	0x000096e4
    9290:	000099a8 	.word	0x000099a8
    9294:	00009528 	.word	0x00009528
    9298:	0000972c 	.word	0x0000972c
    929c:	000096e4 	.word	0x000096e4
    92a0:	000096e4 	.word	0x000096e4
    92a4:	000096e4 	.word	0x000096e4
    92a8:	000099a8 	.word	0x000099a8
    92ac:	0000972c 	.word	0x0000972c
    92b0:	000099a8 	.word	0x000099a8
    92b4:	000099a8 	.word	0x000099a8
    92b8:	000099a8 	.word	0x000099a8
    92bc:	000099a8 	.word	0x000099a8
    92c0:	0000974c 	.word	0x0000974c
    92c4:	0000973c 	.word	0x0000973c
    92c8:	000094ac 	.word	0x000094ac
    92cc:	000099a8 	.word	0x000099a8
    92d0:	000099a8 	.word	0x000099a8
    92d4:	00009370 	.word	0x00009370
    92d8:	000099a8 	.word	0x000099a8
    92dc:	000099a8 	.word	0x000099a8
    92e0:	000099a8 	.word	0x000099a8
    92e4:	000099a8 	.word	0x000099a8
    92e8:	0000971c 	.word	0x0000971c
    92ec:	e59d3018 	ldr	r3, [sp, #24]
    92f0:	e28b6001 	add	r6, fp, #1
    92f4:	e1a0100c 	mov	r1, ip
    92f8:	e15b0003 	cmp	fp, r3
    92fc:	2a000007 	bcs	9320 <Process_Out+0x4e8>
    9300:	e7d80006 	ldrb	r0, [r8, r6]
    9304:	e150000c 	cmp	r0, ip
    9308:	1a000004 	bne	9320 <Process_Out+0x4e8>
    930c:	e1570006 	cmp	r7, r6
    9310:	9afffee8 	bls	8eb8 <Process_Out+0x80>
    9314:	e28b6002 	add	r6, fp, #2
    9318:	e3a0e001 	mov	lr, #1
    931c:	eaffff97 	b	9180 <Process_Out+0x348>
    9320:	e3a0e000 	mov	lr, #0
    9324:	eaffff95 	b	9180 <Process_Out+0x348>
    9328:	e286b002 	add	fp, r6, #2
    932c:	e157000b 	cmp	r7, fp
    9330:	9afffee0 	bls	8eb8 <Process_Out+0x80>
    9334:	e59d3014 	ldr	r3, [sp, #20]
    9338:	e2831004 	add	r1, r3, #4
    933c:	e5930000 	ldr	r0, [r3]
    9340:	e6af4070 	sxtb	r4, r0
    9344:	e3540000 	cmp	r4, #0
    9348:	b2600000 	rsblt	r0, r0, #0
    934c:	b3a03001 	movlt	r3, #1
    9350:	a58d1014 	strge	r1, [sp, #20]
    9354:	a7d8c00b 	ldrbge	ip, [r8, fp]
    9358:	b6af4070 	sxtblt	r4, r0
    935c:	b58d1014 	strlt	r1, [sp, #20]
    9360:	b7d8c00b 	ldrblt	ip, [r8, fp]
    9364:	b58d300c 	strlt	r3, [sp, #12]
    9368:	eaffff17 	b	8fcc <Process_Out+0x194>
    936c:	e1a0600b 	mov	r6, fp
    9370:	e59d3000 	ldr	r3, [sp]
    9374:	e59d2004 	ldr	r2, [sp, #4]
    9378:	e7c05013 	bfi	r5, r3, #0, #1
    937c:	e59d3014 	ldr	r3, [sp, #20]
    9380:	e7c25112 	bfi	r5, r2, #2, #1
    9384:	e59d200c 	ldr	r2, [sp, #12]
    9388:	e7c3519a 	bfi	r5, sl, #3, #1
    938c:	e59d101c 	ldr	r1, [sp, #28]
    9390:	e7c45212 	bfi	r5, r2, #4, #1
    9394:	e593b000 	ldr	fp, [r3]
    9398:	e1a0000b 	mov	r0, fp
    939c:	fa002443 	blx	124b0 <strnlen>
    93a0:	e59d3014 	ldr	r3, [sp, #20]
    93a4:	e2152010 	ands	r2, r5, #16
    93a8:	e1a0a000 	mov	sl, r0
    93ac:	e2833004 	add	r3, r3, #4
    93b0:	e58d3000 	str	r3, [sp]
    93b4:	1a0001e8 	bne	9b5c <Process_Out+0xd24>
    93b8:	e1500004 	cmp	r0, r4
    93bc:	aa0001e9 	bge	9b68 <Process_Out+0xd30>
    93c0:	e0444000 	sub	r4, r4, r0
    93c4:	e6af4074 	sxtb	r4, r4
    93c8:	e3540000 	cmp	r4, #0
    93cc:	da00000e 	ble	940c <Process_Out+0x5d4>
    93d0:	e1a05004 	mov	r5, r4
    93d4:	e58d4004 	str	r4, [sp, #4]
    93d8:	e59d4010 	ldr	r4, [sp, #16]
    93dc:	e3a00020 	mov	r0, #32
    93e0:	e12fff34 	blx	r4
    93e4:	e2452001 	sub	r2, r5, #1
    93e8:	e6ef3072 	uxtb	r3, r2
    93ec:	e3530000 	cmp	r3, #0
    93f0:	e6af5073 	sxtb	r5, r3
    93f4:	1afffff8 	bne	93dc <Process_Out+0x5a4>
    93f8:	e59d4004 	ldr	r4, [sp, #4]
    93fc:	e2899001 	add	r9, r9, #1
    9400:	e2442001 	sub	r2, r4, #1
    9404:	e1a04003 	mov	r4, r3
    9408:	e6a99072 	sxtab	r9, r9, r2
    940c:	e35a0000 	cmp	sl, #0
    9410:	da0001fc 	ble	9c08 <Process_Out+0xdd0>
    9414:	e049300b 	sub	r3, r9, fp
    9418:	e58d4004 	str	r4, [sp, #4]
    941c:	e1a0400b 	mov	r4, fp
    9420:	e59db010 	ldr	fp, [sp, #16]
    9424:	e3a05000 	mov	r5, #0
    9428:	e1a09003 	mov	r9, r3
    942c:	e4d40001 	ldrb	r0, [r4], #1
    9430:	e2855001 	add	r5, r5, #1
    9434:	e12fff3b 	blx	fp
    9438:	e15a0005 	cmp	sl, r5
    943c:	e0892004 	add	r2, r9, r4
    9440:	cafffff9 	bgt	942c <Process_Out+0x5f4>
    9444:	e59d4004 	ldr	r4, [sp, #4]
    9448:	e1a09002 	mov	r9, r2
    944c:	e3540000 	cmp	r4, #0
    9450:	da0001ec 	ble	9c08 <Process_Out+0xdd0>
    9454:	e15a0004 	cmp	sl, r4
    9458:	aa000003 	bge	946c <Process_Out+0x634>
    945c:	e044400a 	sub	r4, r4, sl
    9460:	e6af4074 	sxtb	r4, r4
    9464:	e3540000 	cmp	r4, #0
    9468:	da0001e6 	ble	9c08 <Process_Out+0xdd0>
    946c:	e6ef4074 	uxtb	r4, r4
    9470:	e59da010 	ldr	sl, [sp, #16]
    9474:	e1a05004 	mov	r5, r4
    9478:	e3a00020 	mov	r0, #32
    947c:	e12fff3a 	blx	sl
    9480:	e2453001 	sub	r3, r5, #1
    9484:	e21350ff 	ands	r5, r3, #255	; 0xff
    9488:	1afffffa 	bne	9478 <Process_Out+0x640>
    948c:	e2899001 	add	r9, r9, #1
    9490:	e2444001 	sub	r4, r4, #1
    9494:	e59d3000 	ldr	r3, [sp]
    9498:	e6a99074 	sxtab	r9, r9, r4
    949c:	e58d3014 	str	r3, [sp, #20]
    94a0:	eafffe7f 	b	8ea4 <Process_Out+0x6c>
    94a4:	e1a0600b 	mov	r6, fp
    94a8:	e3a0e000 	mov	lr, #0
    94ac:	e3740001 	cmn	r4, #1
    94b0:	e59d2004 	ldr	r2, [sp, #4]
    94b4:	03a03001 	moveq	r3, #1
    94b8:	e59d0010 	ldr	r0, [sp, #16]
    94bc:	058d3000 	streq	r3, [sp]
    94c0:	03a04008 	moveq	r4, #8
    94c4:	e59d3000 	ldr	r3, [sp]
    94c8:	e7c05013 	bfi	r5, r3, #0, #1
    94cc:	e3a03010 	mov	r3, #16
    94d0:	e7c25112 	bfi	r5, r2, #2, #1
    94d4:	e59d2014 	ldr	r2, [sp, #20]
    94d8:	e7c3519a 	bfi	r5, sl, #3, #1
    94dc:	e282b004 	add	fp, r2, #4
    94e0:	e58db014 	str	fp, [sp, #20]
    94e4:	e5921000 	ldr	r1, [r2]
    94e8:	e59d200c 	ldr	r2, [sp, #12]
    94ec:	e7c45212 	bfi	r5, r2, #4, #1
    94f0:	e59d2008 	ldr	r2, [sp, #8]
    94f4:	e7c65312 	bfi	r5, r2, #6, #1
    94f8:	e7c7539e 	bfi	r5, lr, #7, #1
    94fc:	e7cc5413 	bfi	r5, r3, #8, #5
    9500:	e59d301c 	ldr	r3, [sp, #28]
    9504:	e7d75814 	bfi	r5, r4, #16, #8
    9508:	e7df5c13 	bfi	r5, r3, #24, #8
    950c:	e1a02005 	mov	r2, r5
    9510:	ebfffc9d 	bl	878c <number>
    9514:	e0899000 	add	r9, r9, r0
    9518:	eafffe61 	b	8ea4 <Process_Out+0x6c>
    951c:	e1a0600b 	mov	r6, fp
    9520:	e3a0e000 	mov	lr, #0
    9524:	e3e01000 	mvn	r1, #0
    9528:	e59d3000 	ldr	r3, [sp]
    952c:	e3540000 	cmp	r4, #0
    9530:	e59d200c 	ldr	r2, [sp, #12]
    9534:	e7c05013 	bfi	r5, r3, #0, #1
    9538:	e59d3004 	ldr	r3, [sp, #4]
    953c:	e7c25113 	bfi	r5, r3, #2, #1
    9540:	c3a03001 	movgt	r3, #1
    9544:	e7c3519a 	bfi	r5, sl, #3, #1
    9548:	d3a03000 	movle	r3, #0
    954c:	e7c45212 	bfi	r5, r2, #4, #1
    9550:	e59d2008 	ldr	r2, [sp, #8]
    9554:	e7c65312 	bfi	r5, r2, #6, #1
    9558:	e7c7539e 	bfi	r5, lr, #7, #1
    955c:	e2252010 	eor	r2, r5, #16
    9560:	e0133222 	ands	r3, r3, r2, lsr #4
    9564:	0a000012 	beq	95b4 <Process_Out+0x77c>
    9568:	e6ef5074 	uxtb	r5, r4
    956c:	e2454001 	sub	r4, r5, #1
    9570:	e6af4074 	sxtb	r4, r4
    9574:	e3540000 	cmp	r4, #0
    9578:	0a00000d 	beq	95b4 <Process_Out+0x77c>
    957c:	e59da010 	ldr	sl, [sp, #16]
    9580:	e1a0b001 	mov	fp, r1
    9584:	e2444001 	sub	r4, r4, #1
    9588:	e3a00020 	mov	r0, #32
    958c:	e12fff3a 	blx	sl
    9590:	e6ef3074 	uxtb	r3, r4
    9594:	e3530000 	cmp	r3, #0
    9598:	e6af4073 	sxtb	r4, r3
    959c:	1afffff8 	bne	9584 <Process_Out+0x74c>
    95a0:	e2899001 	add	r9, r9, #1
    95a4:	e2455002 	sub	r5, r5, #2
    95a8:	e1a0100b 	mov	r1, fp
    95ac:	e1a04003 	mov	r4, r3
    95b0:	e6e99075 	uxtab	r9, r9, r5
    95b4:	e351006c 	cmp	r1, #108	; 0x6c
    95b8:	0a000188 	beq	9be0 <Process_Out+0xda8>
    95bc:	e59d2014 	ldr	r2, [sp, #20]
    95c0:	e2899001 	add	r9, r9, #1
    95c4:	e2823004 	add	r3, r2, #4
    95c8:	e58d3014 	str	r3, [sp, #20]
    95cc:	e5d20000 	ldrb	r0, [r2]
    95d0:	e59d3010 	ldr	r3, [sp, #16]
    95d4:	e12fff33 	blx	r3
    95d8:	e3540000 	cmp	r4, #0
    95dc:	dafffe30 	ble	8ea4 <Process_Out+0x6c>
    95e0:	e6ef4074 	uxtb	r4, r4
    95e4:	e2443001 	sub	r3, r4, #1
    95e8:	e6af5073 	sxtb	r5, r3
    95ec:	e3550000 	cmp	r5, #0
    95f0:	0afffe2b 	beq	8ea4 <Process_Out+0x6c>
    95f4:	e59da010 	ldr	sl, [sp, #16]
    95f8:	e3a00020 	mov	r0, #32
    95fc:	e12fff3a 	blx	sl
    9600:	e2453001 	sub	r3, r5, #1
    9604:	e6ef3073 	uxtb	r3, r3
    9608:	e3530000 	cmp	r3, #0
    960c:	e6af5073 	sxtb	r5, r3
    9610:	1afffff8 	bne	95f8 <Process_Out+0x7c0>
    9614:	e2899001 	add	r9, r9, #1
    9618:	e2444002 	sub	r4, r4, #2
    961c:	e6e99074 	uxtab	r9, r9, r4
    9620:	eafffe1f 	b	8ea4 <Process_Out+0x6c>
    9624:	e1a0600b 	mov	r6, fp
    9628:	e3a00025 	mov	r0, #37	; 0x25
    962c:	eafffe19 	b	8e98 <Process_Out+0x60>
    9630:	e3a0b000 	mov	fp, #0
    9634:	e3a02010 	mov	r2, #16
    9638:	e1a0300b 	mov	r3, fp
    963c:	e24cc068 	sub	ip, ip, #104	; 0x68
    9640:	e35c0012 	cmp	ip, #18
    9644:	979ff10c 	ldrls	pc, [pc, ip, lsl #2]
    9648:	ea0000c8 	b	9970 <Process_Out+0xb38>
    964c:	000098f0 	.word	0x000098f0
    9650:	00009970 	.word	0x00009970
    9654:	00009884 	.word	0x00009884
    9658:	00009970 	.word	0x00009970
    965c:	00009818 	.word	0x00009818
    9660:	00009970 	.word	0x00009970
    9664:	00009970 	.word	0x00009970
    9668:	00009970 	.word	0x00009970
    966c:	00009970 	.word	0x00009970
    9670:	00009970 	.word	0x00009970
    9674:	00009970 	.word	0x00009970
    9678:	00009970 	.word	0x00009970
    967c:	00009698 	.word	0x00009698
    9680:	00009970 	.word	0x00009970
    9684:	00009970 	.word	0x00009970
    9688:	00009970 	.word	0x00009970
    968c:	00009970 	.word	0x00009970
    9690:	00009970 	.word	0x00009970
    9694:	00009698 	.word	0x00009698
    9698:	e59d0014 	ldr	r0, [sp, #20]
    969c:	e59d1000 	ldr	r1, [sp]
    96a0:	e7c05011 	bfi	r5, r1, #0, #1
    96a4:	e7c15093 	bfi	r5, r3, #1, #1
    96a8:	e5901000 	ldr	r1, [r0]
    96ac:	e2803004 	add	r3, r0, #4
    96b0:	e59d0004 	ldr	r0, [sp, #4]
    96b4:	e58d3014 	str	r3, [sp, #20]
    96b8:	e7c25110 	bfi	r5, r0, #2, #1
    96bc:	e59d300c 	ldr	r3, [sp, #12]
    96c0:	e7c3519a 	bfi	r5, sl, #3, #1
    96c4:	e59d0010 	ldr	r0, [sp, #16]
    96c8:	e7c45213 	bfi	r5, r3, #4, #1
    96cc:	e59d3008 	ldr	r3, [sp, #8]
    96d0:	e7c5529b 	bfi	r5, fp, #5, #1
    96d4:	e7c65313 	bfi	r5, r3, #6, #1
    96d8:	e7c7539e 	bfi	r5, lr, #7, #1
    96dc:	e7cc5412 	bfi	r5, r2, #8, #5
    96e0:	eaffff86 	b	9500 <Process_Out+0x6c8>
    96e4:	e35c004c 	cmp	ip, #76	; 0x4c
    96e8:	0a000132 	beq	9bb8 <Process_Out+0xd80>
    96ec:	e59d3014 	ldr	r3, [sp, #20]
    96f0:	e59d0010 	ldr	r0, [sp, #16]
    96f4:	e283b007 	add	fp, r3, #7
    96f8:	e3cb3007 	bic	r3, fp, #7
    96fc:	e2832008 	add	r2, r3, #8
    9700:	e58d2014 	str	r2, [sp, #20]
    9704:	ed930b00 	vldr	d0, [r3]
    9708:	eeb70bc0 	vcvt.f32.f64	s0, d0
    970c:	eeb70ac0 	vcvt.f64.f32	d0, s0
    9710:	ebfffcf9 	bl	8afc <NumStr>
    9714:	e0899000 	add	r9, r9, r0
    9718:	eafffde1 	b	8ea4 <Process_Out+0x6c>
    971c:	e3a02010 	mov	r2, #16
    9720:	e3a0b001 	mov	fp, #1
    9724:	e3a03000 	mov	r3, #0
    9728:	eaffffc3 	b	963c <Process_Out+0x804>
    972c:	e3a0200a 	mov	r2, #10
    9730:	e3a0b000 	mov	fp, #0
    9734:	e3a03001 	mov	r3, #1
    9738:	eaffffbf 	b	963c <Process_Out+0x804>
    973c:	e3a0b000 	mov	fp, #0
    9740:	e3a02008 	mov	r2, #8
    9744:	e1a0300b 	mov	r3, fp
    9748:	eaffffbb 	b	963c <Process_Out+0x804>
    974c:	e24cc04c 	sub	ip, ip, #76	; 0x4c
    9750:	e35c002e 	cmp	ip, #46	; 0x2e
    9754:	979ff10c 	ldrls	pc, [pc, ip, lsl #2]
    9758:	ea000097 	b	99bc <Process_Out+0xb84>
    975c:	000099d4 	.word	0x000099d4
    9760:	000099bc 	.word	0x000099bc
    9764:	000099bc 	.word	0x000099bc
    9768:	000099bc 	.word	0x000099bc
    976c:	000099bc 	.word	0x000099bc
    9770:	000099bc 	.word	0x000099bc
    9774:	000099bc 	.word	0x000099bc
    9778:	000099bc 	.word	0x000099bc
    977c:	000099bc 	.word	0x000099bc
    9780:	000099bc 	.word	0x000099bc
    9784:	000099bc 	.word	0x000099bc
    9788:	000099bc 	.word	0x000099bc
    978c:	000099bc 	.word	0x000099bc
    9790:	000099bc 	.word	0x000099bc
    9794:	000099bc 	.word	0x000099bc
    9798:	000099bc 	.word	0x000099bc
    979c:	000099bc 	.word	0x000099bc
    97a0:	000099bc 	.word	0x000099bc
    97a4:	000099bc 	.word	0x000099bc
    97a8:	000099bc 	.word	0x000099bc
    97ac:	000099bc 	.word	0x000099bc
    97b0:	000099bc 	.word	0x000099bc
    97b4:	000099bc 	.word	0x000099bc
    97b8:	000099bc 	.word	0x000099bc
    97bc:	000099bc 	.word	0x000099bc
    97c0:	000099bc 	.word	0x000099bc
    97c4:	000099bc 	.word	0x000099bc
    97c8:	000099bc 	.word	0x000099bc
    97cc:	00009a28 	.word	0x00009a28
    97d0:	000099bc 	.word	0x000099bc
    97d4:	00009a1c 	.word	0x00009a1c
    97d8:	000099bc 	.word	0x000099bc
    97dc:	000099f4 	.word	0x000099f4
    97e0:	000099bc 	.word	0x000099bc
    97e4:	000099bc 	.word	0x000099bc
    97e8:	000099bc 	.word	0x000099bc
    97ec:	000099bc 	.word	0x000099bc
    97f0:	000099bc 	.word	0x000099bc
    97f4:	000099bc 	.word	0x000099bc
    97f8:	000099bc 	.word	0x000099bc
    97fc:	000099bc 	.word	0x000099bc
    9800:	000099bc 	.word	0x000099bc
    9804:	000099bc 	.word	0x000099bc
    9808:	000099bc 	.word	0x000099bc
    980c:	000099bc 	.word	0x000099bc
    9810:	000099bc 	.word	0x000099bc
    9814:	000099bc 	.word	0x000099bc
    9818:	e59d1000 	ldr	r1, [sp]
    981c:	e7c05011 	bfi	r5, r1, #0, #1
    9820:	e7c15093 	bfi	r5, r3, #1, #1
    9824:	e59d3004 	ldr	r3, [sp, #4]
    9828:	e7c25113 	bfi	r5, r3, #2, #1
    982c:	e59d300c 	ldr	r3, [sp, #12]
    9830:	e7c3519a 	bfi	r5, sl, #3, #1
    9834:	e7c45213 	bfi	r5, r3, #4, #1
    9838:	e59d3008 	ldr	r3, [sp, #8]
    983c:	e7c5529b 	bfi	r5, fp, #5, #1
    9840:	e7c65313 	bfi	r5, r3, #6, #1
    9844:	e7c7539e 	bfi	r5, lr, #7, #1
    9848:	e3150080 	tst	r5, #128	; 0x80
    984c:	1a0000ca 	bne	9b7c <Process_Out+0xd44>
    9850:	e59d3014 	ldr	r3, [sp, #20]
    9854:	e7cc5412 	bfi	r5, r2, #8, #5
    9858:	e7d75814 	bfi	r5, r4, #16, #8
    985c:	e59d0010 	ldr	r0, [sp, #16]
    9860:	e283b004 	add	fp, r3, #4
    9864:	e58db014 	str	fp, [sp, #20]
    9868:	e5931000 	ldr	r1, [r3]
    986c:	e59d301c 	ldr	r3, [sp, #28]
    9870:	e7df5c13 	bfi	r5, r3, #24, #8
    9874:	e1a02005 	mov	r2, r5
    9878:	ebfffbc3 	bl	878c <number>
    987c:	e0899000 	add	r9, r9, r0
    9880:	eafffd87 	b	8ea4 <Process_Out+0x6c>
    9884:	e59d1000 	ldr	r1, [sp]
    9888:	e59d0010 	ldr	r0, [sp, #16]
    988c:	e7c05011 	bfi	r5, r1, #0, #1
    9890:	e59d1014 	ldr	r1, [sp, #20]
    9894:	e7c15093 	bfi	r5, r3, #1, #1
    9898:	e2811007 	add	r1, r1, #7
    989c:	e3c13007 	bic	r3, r1, #7
    98a0:	e59d1004 	ldr	r1, [sp, #4]
    98a4:	e7c25111 	bfi	r5, r1, #2, #1
    98a8:	e2831008 	add	r1, r3, #8
    98ac:	e58d1014 	str	r1, [sp, #20]
    98b0:	e7c3519a 	bfi	r5, sl, #3, #1
    98b4:	e59d100c 	ldr	r1, [sp, #12]
    98b8:	e7c45211 	bfi	r5, r1, #4, #1
    98bc:	e5931000 	ldr	r1, [r3]
    98c0:	e59d3008 	ldr	r3, [sp, #8]
    98c4:	e7c5529b 	bfi	r5, fp, #5, #1
    98c8:	e7c65313 	bfi	r5, r3, #6, #1
    98cc:	e59d301c 	ldr	r3, [sp, #28]
    98d0:	e7c7539e 	bfi	r5, lr, #7, #1
    98d4:	e7cc5412 	bfi	r5, r2, #8, #5
    98d8:	e7d75814 	bfi	r5, r4, #16, #8
    98dc:	e7df5c13 	bfi	r5, r3, #24, #8
    98e0:	e1a02005 	mov	r2, r5
    98e4:	ebfffaf1 	bl	84b0 <cvt_int>
    98e8:	e0899000 	add	r9, r9, r0
    98ec:	eafffd6c 	b	8ea4 <Process_Out+0x6c>
    98f0:	e59d1000 	ldr	r1, [sp]
    98f4:	e59d0010 	ldr	r0, [sp, #16]
    98f8:	e7c05011 	bfi	r5, r1, #0, #1
    98fc:	e7c15093 	bfi	r5, r3, #1, #1
    9900:	e59d3004 	ldr	r3, [sp, #4]
    9904:	e7c25113 	bfi	r5, r3, #2, #1
    9908:	e59d300c 	ldr	r3, [sp, #12]
    990c:	e7c3519a 	bfi	r5, sl, #3, #1
    9910:	e7c45213 	bfi	r5, r3, #4, #1
    9914:	e59d3008 	ldr	r3, [sp, #8]
    9918:	e7c5529b 	bfi	r5, fp, #5, #1
    991c:	e7c65313 	bfi	r5, r3, #6, #1
    9920:	e59d3014 	ldr	r3, [sp, #20]
    9924:	e7c7539e 	bfi	r5, lr, #7, #1
    9928:	e3150080 	tst	r5, #128	; 0x80
    992c:	e283b004 	add	fp, r3, #4
    9930:	e7cc5412 	bfi	r5, r2, #8, #5
    9934:	e58db014 	str	fp, [sp, #20]
    9938:	e7d75814 	bfi	r5, r4, #16, #8
    993c:	11d310d0 	ldrsbne	r1, [r3]
    9940:	01d310f0 	ldrsheq	r1, [r3]
    9944:	e59d301c 	ldr	r3, [sp, #28]
    9948:	e7df5c13 	bfi	r5, r3, #24, #8
    994c:	e1a02005 	mov	r2, r5
    9950:	ebfffad6 	bl	84b0 <cvt_int>
    9954:	e0899000 	add	r9, r9, r0
    9958:	eafffd51 	b	8ea4 <Process_Out+0x6c>
    995c:	e3a0e000 	mov	lr, #0
    9960:	e1a0600b 	mov	r6, fp
    9964:	e1a0300e 	mov	r3, lr
    9968:	e1a0b00e 	mov	fp, lr
    996c:	e3a02010 	mov	r2, #16
    9970:	e59d0014 	ldr	r0, [sp, #20]
    9974:	e59d1000 	ldr	r1, [sp]
    9978:	e7c05011 	bfi	r5, r1, #0, #1
    997c:	e7c15093 	bfi	r5, r3, #1, #1
    9980:	e5901000 	ldr	r1, [r0]
    9984:	e2803004 	add	r3, r0, #4
    9988:	e59d0004 	ldr	r0, [sp, #4]
    998c:	e58d3014 	str	r3, [sp, #20]
    9990:	e7c25110 	bfi	r5, r0, #2, #1
    9994:	e59d300c 	ldr	r3, [sp, #12]
    9998:	e7c3519a 	bfi	r5, sl, #3, #1
    999c:	e59d0010 	ldr	r0, [sp, #16]
    99a0:	e7c45213 	bfi	r5, r3, #4, #1
    99a4:	eaffffc5 	b	98c0 <Process_Out+0xa88>
    99a8:	e3a0b000 	mov	fp, #0
    99ac:	e3a0200a 	mov	r2, #10
    99b0:	e1a0300b 	mov	r3, fp
    99b4:	eaffff20 	b	963c <Process_Out+0x804>
    99b8:	e1a0600b 	mov	r6, fp
    99bc:	e59d2014 	ldr	r2, [sp, #20]
    99c0:	e5923000 	ldr	r3, [r2]
    99c4:	e2822004 	add	r2, r2, #4
    99c8:	e58d2014 	str	r2, [sp, #20]
    99cc:	e5839000 	str	r9, [r3]
    99d0:	eafffd33 	b	8ea4 <Process_Out+0x6c>
    99d4:	ee079a90 	vmov	s15, r9
    99d8:	e59d2014 	ldr	r2, [sp, #20]
    99dc:	e2822004 	add	r2, r2, #4
    99e0:	e5123004 	ldr	r3, [r2, #-4]
    99e4:	e58d2014 	str	r2, [sp, #20]
    99e8:	eef80be7 	vcvt.f64.s32	d16, s15
    99ec:	edc30b00 	vstr	d16, [r3]
    99f0:	eafffd2b 	b	8ea4 <Process_Out+0x6c>
    99f4:	e59d2014 	ldr	r2, [sp, #20]
    99f8:	e35e0000 	cmp	lr, #0
    99fc:	e5923000 	ldr	r3, [r2]
    9a00:	0affffef 	beq	99c4 <Process_Out+0xb8c>
    9a04:	ee809b90 	vdup.32	d16, r9
    9a08:	e2822004 	add	r2, r2, #4
    9a0c:	e58d2014 	str	r2, [sp, #20]
    9a10:	f2e000b0 	vshr.s64	d16, d16, #32
    9a14:	edc30b00 	vstr	d16, [r3]
    9a18:	eafffd21 	b	8ea4 <Process_Out+0x6c>
    9a1c:	e59d2014 	ldr	r2, [sp, #20]
    9a20:	e5923000 	ldr	r3, [r2]
    9a24:	eafffff6 	b	9a04 <Process_Out+0xbcc>
    9a28:	e59d2014 	ldr	r2, [sp, #20]
    9a2c:	e35e0000 	cmp	lr, #0
    9a30:	e2822004 	add	r2, r2, #4
    9a34:	e5123004 	ldr	r3, [r2, #-4]
    9a38:	e58d2014 	str	r2, [sp, #20]
    9a3c:	15c39000 	strbne	r9, [r3]
    9a40:	01c390b0 	strheq	r9, [r3]
    9a44:	eafffd16 	b	8ea4 <Process_Out+0x6c>
    9a48:	e3a0e000 	mov	lr, #0
    9a4c:	e1a0600b 	mov	r6, fp
    9a50:	e1a0300e 	mov	r3, lr
    9a54:	e3a02010 	mov	r2, #16
    9a58:	e3a0b001 	mov	fp, #1
    9a5c:	eaffffc3 	b	9970 <Process_Out+0xb38>
    9a60:	e3a0e000 	mov	lr, #0
    9a64:	e1a0600b 	mov	r6, fp
    9a68:	e1a0300e 	mov	r3, lr
    9a6c:	e1a0b00e 	mov	fp, lr
    9a70:	e3a02008 	mov	r2, #8
    9a74:	eaffffbd 	b	9970 <Process_Out+0xb38>
    9a78:	e3a0e000 	mov	lr, #0
    9a7c:	e1a0600b 	mov	r6, fp
    9a80:	e3a0200a 	mov	r2, #10
    9a84:	e1a0b00e 	mov	fp, lr
    9a88:	e3a03001 	mov	r3, #1
    9a8c:	eaffffb7 	b	9970 <Process_Out+0xb38>
    9a90:	e1a0600b 	mov	r6, fp
    9a94:	eaffff14 	b	96ec <Process_Out+0x8b4>
    9a98:	e3a0e000 	mov	lr, #0
    9a9c:	e1a0600b 	mov	r6, fp
    9aa0:	e1a0300e 	mov	r3, lr
    9aa4:	e1a0b00e 	mov	fp, lr
    9aa8:	e3a0200a 	mov	r2, #10
    9aac:	eaffffaf 	b	9970 <Process_Out+0xb38>
    9ab0:	e28b1001 	add	r1, fp, #1
    9ab4:	e1570001 	cmp	r7, r1
    9ab8:	9afffcfe 	bls	8eb8 <Process_Out+0x80>
    9abc:	e7d80001 	ldrb	r0, [r8, r1]
    9ac0:	e350002a 	cmp	r0, #42	; 0x2a
    9ac4:	0a000019 	beq	9b30 <Process_Out+0xcf8>
    9ac8:	e088600b 	add	r6, r8, fp
    9acc:	e3e03000 	mvn	r3, #0
    9ad0:	e58d401c 	str	r4, [sp, #28]
    9ad4:	e1a0b001 	mov	fp, r1
    9ad8:	e1a04006 	mov	r4, r6
    9adc:	e1a06003 	mov	r6, r3
    9ae0:	ea000003 	b	9af4 <Process_Out+0xcbc>
    9ae4:	e28bb001 	add	fp, fp, #1
    9ae8:	e6af6073 	sxtb	r6, r3
    9aec:	e157000b 	cmp	r7, fp
    9af0:	9afffcf0 	bls	8eb8 <Process_Out+0x80>
    9af4:	fa002148 	blx	1201c <__locale_ctype_ptr>
    9af8:	e5f4c001 	ldrb	ip, [r4, #1]!
    9afc:	e1c63fc6 	bic	r3, r6, r6, asr #31
    9b00:	e080000c 	add	r0, r0, ip
    9b04:	e24c1030 	sub	r1, ip, #48	; 0x30
    9b08:	e0833103 	add	r3, r3, r3, lsl #2
    9b0c:	e5d00001 	ldrb	r0, [r0, #1]
    9b10:	e0813083 	add	r3, r1, r3, lsl #1
    9b14:	e3100004 	tst	r0, #4
    9b18:	1afffff1 	bne	9ae4 <Process_Out+0xcac>
    9b1c:	e59d401c 	ldr	r4, [sp, #28]
    9b20:	e58d601c 	str	r6, [sp, #28]
    9b24:	eafffd2c 	b	8fdc <Process_Out+0x1a4>
    9b28:	e1a0000e 	mov	r0, lr
    9b2c:	eafffce2 	b	8ebc <Process_Out+0x84>
    9b30:	e28bb002 	add	fp, fp, #2
    9b34:	e157000b 	cmp	r7, fp
    9b38:	9afffcde 	bls	8eb8 <Process_Out+0x80>
    9b3c:	e59d3014 	ldr	r3, [sp, #20]
    9b40:	e7d8c00b 	ldrb	ip, [r8, fp]
    9b44:	e2833004 	add	r3, r3, #4
    9b48:	e15310d4 	ldrsb	r1, [r3, #-4]
    9b4c:	e58d3014 	str	r3, [sp, #20]
    9b50:	e1c13fc1 	bic	r3, r1, r1, asr #31
    9b54:	e58d301c 	str	r3, [sp, #28]
    9b58:	eafffd1f 	b	8fdc <Process_Out+0x1a4>
    9b5c:	e3500000 	cmp	r0, #0
    9b60:	cafffe2b 	bgt	9414 <Process_Out+0x5dc>
    9b64:	eafffe38 	b	944c <Process_Out+0x614>
    9b68:	e3500000 	cmp	r0, #0
    9b6c:	c1a04002 	movgt	r4, r2
    9b70:	cafffe27 	bgt	9414 <Process_Out+0x5dc>
    9b74:	e58d3014 	str	r3, [sp, #20]
    9b78:	eafffcc9 	b	8ea4 <Process_Out+0x6c>
    9b7c:	e59d3014 	ldr	r3, [sp, #20]
    9b80:	e7cc5412 	bfi	r5, r2, #8, #5
    9b84:	e59d201c 	ldr	r2, [sp, #28]
    9b88:	e7d75814 	bfi	r5, r4, #16, #8
    9b8c:	e283b007 	add	fp, r3, #7
    9b90:	e59d0010 	ldr	r0, [sp, #16]
    9b94:	e3cb3007 	bic	r3, fp, #7
    9b98:	e7df5c12 	bfi	r5, r2, #24, #8
    9b9c:	e2831008 	add	r1, r3, #8
    9ba0:	e1a02005 	mov	r2, r5
    9ba4:	e58d1014 	str	r1, [sp, #20]
    9ba8:	e5931000 	ldr	r1, [r3]
    9bac:	ebfffaf6 	bl	878c <number>
    9bb0:	e0899000 	add	r9, r9, r0
    9bb4:	eafffcba 	b	8ea4 <Process_Out+0x6c>
    9bb8:	e59d3014 	ldr	r3, [sp, #20]
    9bbc:	e59d0010 	ldr	r0, [sp, #16]
    9bc0:	e283b007 	add	fp, r3, #7
    9bc4:	e3cb3007 	bic	r3, fp, #7
    9bc8:	e2832008 	add	r2, r3, #8
    9bcc:	e58d2014 	str	r2, [sp, #20]
    9bd0:	ed930b00 	vldr	d0, [r3]
    9bd4:	ebfffbc8 	bl	8afc <NumStr>
    9bd8:	e0899000 	add	r9, r9, r0
    9bdc:	eafffcb0 	b	8ea4 <Process_Out+0x6c>
    9be0:	e59d3014 	ldr	r3, [sp, #20]
    9be4:	e2899001 	add	r9, r9, #1
    9be8:	e283b004 	add	fp, r3, #4
    9bec:	e5930000 	ldr	r0, [r3]
    9bf0:	fa0027ea 	blx	13ba0 <wctob>
    9bf4:	e59d3010 	ldr	r3, [sp, #16]
    9bf8:	e6ef0070 	uxtb	r0, r0
    9bfc:	e12fff33 	blx	r3
    9c00:	e58db014 	str	fp, [sp, #20]
    9c04:	eafffe73 	b	95d8 <Process_Out+0x7a0>
    9c08:	e59d3000 	ldr	r3, [sp]
    9c0c:	eaffffd8 	b	9b74 <Process_Out+0xd3c>

00009c10 <Process_Out.constprop.1>:
    9c10:	e3510000 	cmp	r1, #0
    9c14:	13500000 	cmpne	r0, #0
    9c18:	03a0c001 	moveq	ip, #1
    9c1c:	13a0c000 	movne	ip, #0
    9c20:	0a0000d1 	beq	9f6c <Process_Out.constprop.1+0x35c>
    9c24:	e5d03000 	ldrb	r3, [r0]
    9c28:	e3530000 	cmp	r3, #0
    9c2c:	0a0000ce 	beq	9f6c <Process_Out.constprop.1+0x35c>
    9c30:	e92d4ff0 	push	{r4, r5, r6, r7, r8, r9, sl, fp, lr}
    9c34:	e3059a48 	movw	r9, #23112	; 0x5a48
    9c38:	e3409001 	movt	r9, #1
    9c3c:	e24dd0c4 	sub	sp, sp, #196	; 0xc4
    9c40:	e1a08001 	mov	r8, r1
    9c44:	e1a0700c 	mov	r7, ip
    9c48:	e58d0000 	str	r0, [sp]
    9c4c:	e58d2018 	str	r2, [sp, #24]
    9c50:	e58dc004 	str	ip, [sp, #4]
    9c54:	e3530025 	cmp	r3, #37	; 0x25
    9c58:	0a000017 	beq	9cbc <Process_Out.constprop.1+0xac>
    9c5c:	e5992000 	ldr	r2, [r9]
    9c60:	e3720001 	cmn	r2, #1
    9c64:	0a000002 	beq	9c74 <Process_Out.constprop.1+0x64>
    9c68:	e5991004 	ldr	r1, [r9, #4]
    9c6c:	e1520001 	cmp	r2, r1
    9c70:	da000005 	ble	9c8c <Process_Out.constprop.1+0x7c>
    9c74:	e5992008 	ldr	r2, [r9, #8]
    9c78:	e3520000 	cmp	r2, #0
    9c7c:	15991004 	ldrne	r1, [r9, #4]
    9c80:	12810001 	addne	r0, r1, #1
    9c84:	15890004 	strne	r0, [r9, #4]
    9c88:	17c23001 	strbne	r3, [r2, r1]
    9c8c:	e59d3004 	ldr	r3, [sp, #4]
    9c90:	e2833001 	add	r3, r3, #1
    9c94:	e58d3004 	str	r3, [sp, #4]
    9c98:	e59d3000 	ldr	r3, [sp]
    9c9c:	e2877001 	add	r7, r7, #1
    9ca0:	e7d33007 	ldrb	r3, [r3, r7]
    9ca4:	e3530000 	cmp	r3, #0
    9ca8:	11580007 	cmpne	r8, r7
    9cac:	8affffe8 	bhi	9c54 <Process_Out.constprop.1+0x44>
    9cb0:	e59d0004 	ldr	r0, [sp, #4]
    9cb4:	e28dd0c4 	add	sp, sp, #196	; 0xc4
    9cb8:	e8bd8ff0 	pop	{r4, r5, r6, r7, r8, r9, sl, fp, pc}
    9cbc:	e59d3000 	ldr	r3, [sp]
    9cc0:	e3a06000 	mov	r6, #0
    9cc4:	e1a0a006 	mov	sl, r6
    9cc8:	e58d6008 	str	r6, [sp, #8]
    9ccc:	e0831007 	add	r1, r3, r7
    9cd0:	e58d6014 	str	r6, [sp, #20]
    9cd4:	e58d600c 	str	r6, [sp, #12]
    9cd8:	e58d6010 	str	r6, [sp, #16]
    9cdc:	e2875001 	add	r5, r7, #1
    9ce0:	e1580005 	cmp	r8, r5
    9ce4:	9afffff1 	bls	9cb0 <Process_Out.constprop.1+0xa0>
    9ce8:	e5f12001 	ldrb	r2, [r1, #1]!
    9cec:	e2423020 	sub	r3, r2, #32
    9cf0:	e3530010 	cmp	r3, #16
    9cf4:	979ff103 	ldrls	pc, [pc, r3, lsl #2]
    9cf8:	ea00001f 	b	9d7c <Process_Out.constprop.1+0x16c>
    9cfc:	00009d50 	.word	0x00009d50
    9d00:	00009d7c 	.word	0x00009d7c
    9d04:	00009d7c 	.word	0x00009d7c
    9d08:	00009d40 	.word	0x00009d40
    9d0c:	00009d7c 	.word	0x00009d7c
    9d10:	00009d7c 	.word	0x00009d7c
    9d14:	00009d7c 	.word	0x00009d7c
    9d18:	00009d7c 	.word	0x00009d7c
    9d1c:	00009d7c 	.word	0x00009d7c
    9d20:	00009d7c 	.word	0x00009d7c
    9d24:	00009d7c 	.word	0x00009d7c
    9d28:	00009d64 	.word	0x00009d64
    9d2c:	00009d7c 	.word	0x00009d7c
    9d30:	00009d70 	.word	0x00009d70
    9d34:	00009d7c 	.word	0x00009d7c
    9d38:	00009d7c 	.word	0x00009d7c
    9d3c:	00009d5c 	.word	0x00009d5c
    9d40:	e3a03001 	mov	r3, #1
    9d44:	e58d3014 	str	r3, [sp, #20]
    9d48:	e1a07005 	mov	r7, r5
    9d4c:	eaffffe2 	b	9cdc <Process_Out.constprop.1+0xcc>
    9d50:	e3a03001 	mov	r3, #1
    9d54:	e58d300c 	str	r3, [sp, #12]
    9d58:	eafffffa 	b	9d48 <Process_Out.constprop.1+0x138>
    9d5c:	e3a0a001 	mov	sl, #1
    9d60:	eafffff8 	b	9d48 <Process_Out.constprop.1+0x138>
    9d64:	e3a03001 	mov	r3, #1
    9d68:	e58d3010 	str	r3, [sp, #16]
    9d6c:	eafffff5 	b	9d48 <Process_Out.constprop.1+0x138>
    9d70:	e3a03001 	mov	r3, #1
    9d74:	e58d3008 	str	r3, [sp, #8]
    9d78:	eafffff2 	b	9d48 <Process_Out.constprop.1+0x138>
    9d7c:	e352002a 	cmp	r2, #42	; 0x2a
    9d80:	0a0000ed 	beq	a13c <Process_Out.constprop.1+0x52c>
    9d84:	e59d3000 	ldr	r3, [sp]
    9d88:	e3e04000 	mvn	r4, #0
    9d8c:	e0837005 	add	r7, r3, r5
    9d90:	ea000003 	b	9da4 <Process_Out.constprop.1+0x194>
    9d94:	e2855001 	add	r5, r5, #1
    9d98:	e6af4073 	sxtb	r4, r3
    9d9c:	e1580005 	cmp	r8, r5
    9da0:	9affffc2 	bls	9cb0 <Process_Out.constprop.1+0xa0>
    9da4:	fa00209c 	blx	1201c <__locale_ctype_ptr>
    9da8:	e4d72001 	ldrb	r2, [r7], #1
    9dac:	e1c43fc4 	bic	r3, r4, r4, asr #31
    9db0:	e0800002 	add	r0, r0, r2
    9db4:	e2421030 	sub	r1, r2, #48	; 0x30
    9db8:	e0833103 	add	r3, r3, r3, lsl #2
    9dbc:	e5d00001 	ldrb	r0, [r0, #1]
    9dc0:	e0813083 	add	r3, r1, r3, lsl #1
    9dc4:	e3100004 	tst	r0, #4
    9dc8:	1afffff1 	bne	9d94 <Process_Out.constprop.1+0x184>
    9dcc:	e352002e 	cmp	r2, #46	; 0x2e
    9dd0:	13e03000 	mvnne	r3, #0
    9dd4:	158d301c 	strne	r3, [sp, #28]
    9dd8:	0a00090e 	beq	c218 <Process_Out.constprop.1+0x2608>
    9ddc:	e20230fb 	and	r3, r2, #251	; 0xfb
    9de0:	e3530068 	cmp	r3, #104	; 0x68
    9de4:	0a0000c2 	beq	a0f4 <Process_Out.constprop.1+0x4e4>
    9de8:	e352004c 	cmp	r2, #76	; 0x4c
    9dec:	13520074 	cmpne	r2, #116	; 0x74
    9df0:	e20210ef 	and	r1, r2, #239	; 0xef
    9df4:	03a03001 	moveq	r3, #1
    9df8:	13a03000 	movne	r3, #0
    9dfc:	e351006a 	cmp	r1, #106	; 0x6a
    9e00:	03833001 	orreq	r3, r3, #1
    9e04:	e3530000 	cmp	r3, #0
    9e08:	1a000059 	bne	9f74 <Process_Out.constprop.1+0x364>
    9e0c:	e2422025 	sub	r2, r2, #37	; 0x25
    9e10:	e3520053 	cmp	r2, #83	; 0x53
    9e14:	979ff102 	ldrls	pc, [pc, r2, lsl #2]
    9e18:	ea0008f7 	b	c1fc <Process_Out.constprop.1+0x25ec>
    9e1c:	0000a89c 	.word	0x0000a89c
    9e20:	0000c1fc 	.word	0x0000c1fc
    9e24:	0000c1fc 	.word	0x0000c1fc
    9e28:	0000c1fc 	.word	0x0000c1fc
    9e2c:	0000c1fc 	.word	0x0000c1fc
    9e30:	0000c1fc 	.word	0x0000c1fc
    9e34:	0000c1fc 	.word	0x0000c1fc
    9e38:	0000c1fc 	.word	0x0000c1fc
    9e3c:	0000c1fc 	.word	0x0000c1fc
    9e40:	0000c1fc 	.word	0x0000c1fc
    9e44:	0000c1fc 	.word	0x0000c1fc
    9e48:	0000c1fc 	.word	0x0000c1fc
    9e4c:	0000c1fc 	.word	0x0000c1fc
    9e50:	0000c1fc 	.word	0x0000c1fc
    9e54:	0000c1fc 	.word	0x0000c1fc
    9e58:	0000c1fc 	.word	0x0000c1fc
    9e5c:	0000c1fc 	.word	0x0000c1fc
    9e60:	0000c1fc 	.word	0x0000c1fc
    9e64:	0000c1fc 	.word	0x0000c1fc
    9e68:	0000c1fc 	.word	0x0000c1fc
    9e6c:	0000c1fc 	.word	0x0000c1fc
    9e70:	0000c1fc 	.word	0x0000c1fc
    9e74:	0000c1fc 	.word	0x0000c1fc
    9e78:	0000c1fc 	.word	0x0000c1fc
    9e7c:	0000c1fc 	.word	0x0000c1fc
    9e80:	0000c1fc 	.word	0x0000c1fc
    9e84:	0000c1fc 	.word	0x0000c1fc
    9e88:	0000c1fc 	.word	0x0000c1fc
    9e8c:	0000c1d4 	.word	0x0000c1d4
    9e90:	0000c1fc 	.word	0x0000c1fc
    9e94:	0000c1fc 	.word	0x0000c1fc
    9e98:	0000c1fc 	.word	0x0000c1fc
    9e9c:	0000c1d4 	.word	0x0000c1d4
    9ea0:	0000c1d4 	.word	0x0000c1d4
    9ea4:	0000c1d4 	.word	0x0000c1d4
    9ea8:	0000c1fc 	.word	0x0000c1fc
    9eac:	0000c1fc 	.word	0x0000c1fc
    9eb0:	0000c1fc 	.word	0x0000c1fc
    9eb4:	0000c1fc 	.word	0x0000c1fc
    9eb8:	0000c1fc 	.word	0x0000c1fc
    9ebc:	0000c1fc 	.word	0x0000c1fc
    9ec0:	0000c1fc 	.word	0x0000c1fc
    9ec4:	0000c1fc 	.word	0x0000c1fc
    9ec8:	0000c1fc 	.word	0x0000c1fc
    9ecc:	0000c1fc 	.word	0x0000c1fc
    9ed0:	0000c1fc 	.word	0x0000c1fc
    9ed4:	0000c1fc 	.word	0x0000c1fc
    9ed8:	0000c1fc 	.word	0x0000c1fc
    9edc:	0000c1fc 	.word	0x0000c1fc
    9ee0:	0000c1fc 	.word	0x0000c1fc
    9ee4:	0000c1fc 	.word	0x0000c1fc
    9ee8:	0000c1b8 	.word	0x0000c1b8
    9eec:	0000c1fc 	.word	0x0000c1fc
    9ef0:	0000c1fc 	.word	0x0000c1fc
    9ef4:	0000c1fc 	.word	0x0000c1fc
    9ef8:	0000c1fc 	.word	0x0000c1fc
    9efc:	0000c1fc 	.word	0x0000c1fc
    9f00:	0000c1fc 	.word	0x0000c1fc
    9f04:	0000c1fc 	.word	0x0000c1fc
    9f08:	0000c1fc 	.word	0x0000c1fc
    9f0c:	0000c1d4 	.word	0x0000c1d4
    9f10:	0000c1fc 	.word	0x0000c1fc
    9f14:	0000a6ec 	.word	0x0000a6ec
    9f18:	0000bc98 	.word	0x0000bc98
    9f1c:	0000c1d4 	.word	0x0000c1d4
    9f20:	0000c1d4 	.word	0x0000c1d4
    9f24:	0000c1d4 	.word	0x0000c1d4
    9f28:	0000c1fc 	.word	0x0000c1fc
    9f2c:	0000bc98 	.word	0x0000bc98
    9f30:	0000c1fc 	.word	0x0000c1fc
    9f34:	0000c1fc 	.word	0x0000c1fc
    9f38:	0000c1fc 	.word	0x0000c1fc
    9f3c:	0000c1fc 	.word	0x0000c1fc
    9f40:	0000c04c 	.word	0x0000c04c
    9f44:	0000c19c 	.word	0x0000c19c
    9f48:	0000a338 	.word	0x0000a338
    9f4c:	0000c1fc 	.word	0x0000c1fc
    9f50:	0000c1fc 	.word	0x0000c1fc
    9f54:	0000a188 	.word	0x0000a188
    9f58:	0000c1fc 	.word	0x0000c1fc
    9f5c:	0000c1fc 	.word	0x0000c1fc
    9f60:	0000c1fc 	.word	0x0000c1fc
    9f64:	0000c1fc 	.word	0x0000c1fc
    9f68:	0000c1dc 	.word	0x0000c1dc
    9f6c:	e3a00000 	mov	r0, #0
    9f70:	e12fff1e 	bx	lr
    9f74:	e3a01000 	mov	r1, #0
    9f78:	e2857001 	add	r7, r5, #1
    9f7c:	e1a03002 	mov	r3, r2
    9f80:	e58d1020 	str	r1, [sp, #32]
    9f84:	e1580007 	cmp	r8, r7
    9f88:	9affff48 	bls	9cb0 <Process_Out.constprop.1+0xa0>
    9f8c:	e59d1000 	ldr	r1, [sp]
    9f90:	e7d11007 	ldrb	r1, [r1, r7]
    9f94:	e2411025 	sub	r1, r1, #37	; 0x25
    9f98:	e3510053 	cmp	r1, #83	; 0x53
    9f9c:	979ff101 	ldrls	pc, [pc, r1, lsl #2]
    9fa0:	ea000824 	b	c038 <Process_Out.constprop.1+0x2428>
    9fa4:	0000a8a0 	.word	0x0000a8a0
    9fa8:	0000c038 	.word	0x0000c038
    9fac:	0000c038 	.word	0x0000c038
    9fb0:	0000c038 	.word	0x0000c038
    9fb4:	0000c038 	.word	0x0000c038
    9fb8:	0000c038 	.word	0x0000c038
    9fbc:	0000c038 	.word	0x0000c038
    9fc0:	0000c038 	.word	0x0000c038
    9fc4:	0000c038 	.word	0x0000c038
    9fc8:	0000c038 	.word	0x0000c038
    9fcc:	0000c038 	.word	0x0000c038
    9fd0:	0000c038 	.word	0x0000c038
    9fd4:	0000c038 	.word	0x0000c038
    9fd8:	0000c038 	.word	0x0000c038
    9fdc:	0000c038 	.word	0x0000c038
    9fe0:	0000c038 	.word	0x0000c038
    9fe4:	0000c038 	.word	0x0000c038
    9fe8:	0000c038 	.word	0x0000c038
    9fec:	0000c038 	.word	0x0000c038
    9ff0:	0000c038 	.word	0x0000c038
    9ff4:	0000c038 	.word	0x0000c038
    9ff8:	0000c038 	.word	0x0000c038
    9ffc:	0000c038 	.word	0x0000c038
    a000:	0000c038 	.word	0x0000c038
    a004:	0000c038 	.word	0x0000c038
    a008:	0000c038 	.word	0x0000c038
    a00c:	0000c038 	.word	0x0000c038
    a010:	0000c038 	.word	0x0000c038
    a014:	0000a944 	.word	0x0000a944
    a018:	0000c038 	.word	0x0000c038
    a01c:	0000c038 	.word	0x0000c038
    a020:	0000c038 	.word	0x0000c038
    a024:	0000a944 	.word	0x0000a944
    a028:	0000a944 	.word	0x0000a944
    a02c:	0000a944 	.word	0x0000a944
    a030:	0000c038 	.word	0x0000c038
    a034:	0000c038 	.word	0x0000c038
    a038:	0000c038 	.word	0x0000c038
    a03c:	0000c038 	.word	0x0000c038
    a040:	0000c038 	.word	0x0000c038
    a044:	0000c038 	.word	0x0000c038
    a048:	0000c038 	.word	0x0000c038
    a04c:	0000c038 	.word	0x0000c038
    a050:	0000c038 	.word	0x0000c038
    a054:	0000c038 	.word	0x0000c038
    a058:	0000c038 	.word	0x0000c038
    a05c:	0000c038 	.word	0x0000c038
    a060:	0000c038 	.word	0x0000c038
    a064:	0000c038 	.word	0x0000c038
    a068:	0000c038 	.word	0x0000c038
    a06c:	0000c038 	.word	0x0000c038
    a070:	0000a8d8 	.word	0x0000a8d8
    a074:	0000c038 	.word	0x0000c038
    a078:	0000c038 	.word	0x0000c038
    a07c:	0000c038 	.word	0x0000c038
    a080:	0000c038 	.word	0x0000c038
    a084:	0000c038 	.word	0x0000c038
    a088:	0000c038 	.word	0x0000c038
    a08c:	0000c038 	.word	0x0000c038
    a090:	0000c038 	.word	0x0000c038
    a094:	0000a944 	.word	0x0000a944
    a098:	0000c038 	.word	0x0000c038
    a09c:	0000a6fc 	.word	0x0000a6fc
    a0a0:	0000aa80 	.word	0x0000aa80
    a0a4:	0000a944 	.word	0x0000a944
    a0a8:	0000a944 	.word	0x0000a944
    a0ac:	0000a944 	.word	0x0000a944
    a0b0:	0000c038 	.word	0x0000c038
    a0b4:	0000aa80 	.word	0x0000aa80
    a0b8:	0000c038 	.word	0x0000c038
    a0bc:	0000c038 	.word	0x0000c038
    a0c0:	0000c038 	.word	0x0000c038
    a0c4:	0000c038 	.word	0x0000c038
    a0c8:	0000a9b4 	.word	0x0000a9b4
    a0cc:	0000a9a0 	.word	0x0000a9a0
    a0d0:	0000a344 	.word	0x0000a344
    a0d4:	0000c038 	.word	0x0000c038
    a0d8:	0000c038 	.word	0x0000c038
    a0dc:	0000a18c 	.word	0x0000a18c
    a0e0:	0000c038 	.word	0x0000c038
    a0e4:	0000c038 	.word	0x0000c038
    a0e8:	0000c038 	.word	0x0000c038
    a0ec:	0000c038 	.word	0x0000c038
    a0f0:	0000a988 	.word	0x0000a988
    a0f4:	e2481001 	sub	r1, r8, #1
    a0f8:	e1a03002 	mov	r3, r2
    a0fc:	e1550001 	cmp	r5, r1
    a100:	e2857001 	add	r7, r5, #1
    a104:	2a000009 	bcs	a130 <Process_Out.constprop.1+0x520>
    a108:	e59d1000 	ldr	r1, [sp]
    a10c:	e7d11007 	ldrb	r1, [r1, r7]
    a110:	e1510002 	cmp	r1, r2
    a114:	1a000005 	bne	a130 <Process_Out.constprop.1+0x520>
    a118:	e1580007 	cmp	r8, r7
    a11c:	9afffee3 	bls	9cb0 <Process_Out.constprop.1+0xa0>
    a120:	e3a01001 	mov	r1, #1
    a124:	e2857002 	add	r7, r5, #2
    a128:	e58d1020 	str	r1, [sp, #32]
    a12c:	eaffff94 	b	9f84 <Process_Out.constprop.1+0x374>
    a130:	e3a01000 	mov	r1, #0
    a134:	e58d1020 	str	r1, [sp, #32]
    a138:	eaffff91 	b	9f84 <Process_Out.constprop.1+0x374>
    a13c:	e2875002 	add	r5, r7, #2
    a140:	e1580005 	cmp	r8, r5
    a144:	9afffed9 	bls	9cb0 <Process_Out.constprop.1+0xa0>
    a148:	e59d3018 	ldr	r3, [sp, #24]
    a14c:	e283b004 	add	fp, r3, #4
    a150:	e5932000 	ldr	r2, [r3]
    a154:	e6af4072 	sxtb	r4, r2
    a158:	e3540000 	cmp	r4, #0
    a15c:	b2624000 	rsblt	r4, r2, #0
    a160:	a58db018 	strge	fp, [sp, #24]
    a164:	b58db018 	strlt	fp, [sp, #24]
    a168:	b59d3000 	ldrlt	r3, [sp]
    a16c:	b6af4074 	sxtblt	r4, r4
    a170:	a59d3000 	ldrge	r3, [sp]
    a174:	b7d32005 	ldrblt	r2, [r3, r5]
    a178:	b3a03001 	movlt	r3, #1
    a17c:	a7d32005 	ldrbge	r2, [r3, r5]
    a180:	b58d3008 	strlt	r3, [sp, #8]
    a184:	eaffff10 	b	9dcc <Process_Out.constprop.1+0x1bc>
    a188:	e1a07005 	mov	r7, r5
    a18c:	e59d3010 	ldr	r3, [sp, #16]
    a190:	e7c0601a 	bfi	r6, sl, #0, #1
    a194:	e59da018 	ldr	sl, [sp, #24]
    a198:	e7c26113 	bfi	r6, r3, #2, #1
    a19c:	e59d300c 	ldr	r3, [sp, #12]
    a1a0:	e59d101c 	ldr	r1, [sp, #28]
    a1a4:	e28ab004 	add	fp, sl, #4
    a1a8:	e7c36193 	bfi	r6, r3, #3, #1
    a1ac:	e59d3008 	ldr	r3, [sp, #8]
    a1b0:	e59a5000 	ldr	r5, [sl]
    a1b4:	e7c46213 	bfi	r6, r3, #4, #1
    a1b8:	e1a00005 	mov	r0, r5
    a1bc:	fa0020bb 	blx	124b0 <strnlen>
    a1c0:	e216e010 	ands	lr, r6, #16
    a1c4:	e1a0300a 	mov	r3, sl
    a1c8:	1a00083b 	bne	c2bc <Process_Out.constprop.1+0x26ac>
    a1cc:	e1500004 	cmp	r0, r4
    a1d0:	aa000a06 	bge	c9f0 <Process_Out.constprop.1+0x2de0>
    a1d4:	e0443000 	sub	r3, r4, r0
    a1d8:	e6ef3073 	uxtb	r3, r3
    a1dc:	e6af4073 	sxtb	r4, r3
    a1e0:	e3540000 	cmp	r4, #0
    a1e4:	da000019 	ble	a250 <Process_Out.constprop.1+0x640>
    a1e8:	e599a000 	ldr	sl, [r9]
    a1ec:	e5991004 	ldr	r1, [r9, #4]
    a1f0:	e37a0001 	cmn	sl, #1
    a1f4:	e599c008 	ldr	ip, [r9, #8]
    a1f8:	0a000ddf 	beq	d97c <Process_Out.constprop.1+0x3d6c>
    a1fc:	e35c0000 	cmp	ip, #0
    a200:	0a000f99 	beq	e06c <Process_Out.constprop.1+0x445c>
    a204:	e1a02004 	mov	r2, r4
    a208:	e3a06020 	mov	r6, #32
    a20c:	e2422001 	sub	r2, r2, #1
    a210:	e15a0001 	cmp	sl, r1
    a214:	c3a0e001 	movgt	lr, #1
    a218:	c7cc6001 	strbgt	r6, [ip, r1]
    a21c:	e6ef3072 	uxtb	r3, r2
    a220:	c081100e 	addgt	r1, r1, lr
    a224:	e3530000 	cmp	r3, #0
    a228:	e6af2073 	sxtb	r2, r3
    a22c:	1afffff6 	bne	a20c <Process_Out.constprop.1+0x5fc>
    a230:	e59d2004 	ldr	r2, [sp, #4]
    a234:	e244c001 	sub	ip, r4, #1
    a238:	e35e0000 	cmp	lr, #0
    a23c:	e1a04003 	mov	r4, r3
    a240:	e2822001 	add	r2, r2, #1
    a244:	e6a2307c 	sxtab	r3, r2, ip
    a248:	e58d3004 	str	r3, [sp, #4]
    a24c:	1a000ddd 	bne	d9c8 <Process_Out.constprop.1+0x3db8>
    a250:	e3500000 	cmp	r0, #0
    a254:	da000035 	ble	a330 <Process_Out.constprop.1+0x720>
    a258:	e599c000 	ldr	ip, [r9]
    a25c:	e5991008 	ldr	r1, [r9, #8]
    a260:	e37c0001 	cmn	ip, #1
    a264:	e5992004 	ldr	r2, [r9, #4]
    a268:	0a0009f1 	beq	ca34 <Process_Out.constprop.1+0x2e24>
    a26c:	e3510000 	cmp	r1, #0
    a270:	13a06000 	movne	r6, #0
    a274:	11a03006 	movne	r3, r6
    a278:	159de004 	ldrne	lr, [sp, #4]
    a27c:	0a000e1f 	beq	db00 <Process_Out.constprop.1+0x3ef0>
    a280:	e15c0002 	cmp	ip, r2
    a284:	e28ee001 	add	lr, lr, #1
    a288:	c3a06001 	movgt	r6, #1
    a28c:	c7d5a003 	ldrbgt	sl, [r5, r3]
    a290:	e2833001 	add	r3, r3, #1
    a294:	c7c1a002 	strbgt	sl, [r1, r2]
    a298:	c0822006 	addgt	r2, r2, r6
    a29c:	e1500003 	cmp	r0, r3
    a2a0:	cafffff6 	bgt	a280 <Process_Out.constprop.1+0x670>
    a2a4:	e3560000 	cmp	r6, #0
    a2a8:	e58de004 	str	lr, [sp, #4]
    a2ac:	1a000f7e 	bne	e0ac <Process_Out.constprop.1+0x449c>
    a2b0:	e3540000 	cmp	r4, #0
    a2b4:	da00001d 	ble	a330 <Process_Out.constprop.1+0x720>
    a2b8:	e1500004 	cmp	r0, r4
    a2bc:	aa000003 	bge	a2d0 <Process_Out.constprop.1+0x6c0>
    a2c0:	e0444000 	sub	r4, r4, r0
    a2c4:	e6af4074 	sxtb	r4, r4
    a2c8:	e3540000 	cmp	r4, #0
    a2cc:	da000017 	ble	a330 <Process_Out.constprop.1+0x720>
    a2d0:	e8990005 	ldm	r9, {r0, r2}
    a2d4:	e5991008 	ldr	r1, [r9, #8]
    a2d8:	e3700001 	cmn	r0, #1
    a2dc:	0a000c69 	beq	d488 <Process_Out.constprop.1+0x3878>
    a2e0:	e3510000 	cmp	r1, #0
    a2e4:	0a000e40 	beq	dbec <Process_Out.constprop.1+0x3fdc>
    a2e8:	e6ef4074 	uxtb	r4, r4
    a2ec:	e3a0c000 	mov	ip, #0
    a2f0:	e1a03004 	mov	r3, r4
    a2f4:	e3a0e020 	mov	lr, #32
    a2f8:	e1500002 	cmp	r0, r2
    a2fc:	e2433001 	sub	r3, r3, #1
    a300:	c3a0c001 	movgt	ip, #1
    a304:	c7c1e002 	strbgt	lr, [r1, r2]
    a308:	c082200c 	addgt	r2, r2, ip
    a30c:	e21330ff 	ands	r3, r3, #255	; 0xff
    a310:	1afffff8 	bne	a2f8 <Process_Out.constprop.1+0x6e8>
    a314:	e59d3004 	ldr	r3, [sp, #4]
    a318:	e2444001 	sub	r4, r4, #1
    a31c:	e35c0000 	cmp	ip, #0
    a320:	e2833001 	add	r3, r3, #1
    a324:	e6a33074 	sxtab	r3, r3, r4
    a328:	e58d3004 	str	r3, [sp, #4]
    a32c:	1a000c67 	bne	d4d0 <Process_Out.constprop.1+0x38c0>
    a330:	e58db018 	str	fp, [sp, #24]
    a334:	eafffe57 	b	9c98 <Process_Out.constprop.1+0x88>
    a338:	e3a03000 	mov	r3, #0
    a33c:	e1a07005 	mov	r7, r5
    a340:	e58d3020 	str	r3, [sp, #32]
    a344:	e3740001 	cmn	r4, #1
    a348:	e59d2010 	ldr	r2, [sp, #16]
    a34c:	03a0a001 	moveq	sl, #1
    a350:	e3a03010 	mov	r3, #16
    a354:	e7c0601a 	bfi	r6, sl, #0, #1
    a358:	03a04008 	moveq	r4, #8
    a35c:	e7c26112 	bfi	r6, r2, #2, #1
    a360:	e59d2018 	ldr	r2, [sp, #24]
    a364:	e58d4024 	str	r4, [sp, #36]	; 0x24
    a368:	e2821004 	add	r1, r2, #4
    a36c:	e58d1030 	str	r1, [sp, #48]	; 0x30
    a370:	e59d100c 	ldr	r1, [sp, #12]
    a374:	e7c36191 	bfi	r6, r1, #3, #1
    a378:	e5921000 	ldr	r1, [r2]
    a37c:	e59d2008 	ldr	r2, [sp, #8]
    a380:	e7c46212 	bfi	r6, r2, #4, #1
    a384:	e59d2014 	ldr	r2, [sp, #20]
    a388:	e7c66312 	bfi	r6, r2, #6, #1
    a38c:	e59d2020 	ldr	r2, [sp, #32]
    a390:	e7c76392 	bfi	r6, r2, #7, #1
    a394:	e7cc6413 	bfi	r6, r3, #8, #5
    a398:	e59d301c 	ldr	r3, [sp, #28]
    a39c:	e7d76814 	bfi	r6, r4, #16, #8
    a3a0:	e7df6c13 	bfi	r6, r3, #24, #8
    a3a4:	e3160010 	tst	r6, #16
    a3a8:	e1a0b006 	mov	fp, r6
    a3ac:	13a0a000 	movne	sl, #0
    a3b0:	e7e46456 	ubfx	r6, r6, #8, #5
    a3b4:	e2463008 	sub	r3, r6, #8
    a3b8:	e7c0b01a 	bfi	fp, sl, #0, #1
    a3bc:	e20330f7 	and	r3, r3, #247	; 0xf7
    a3c0:	e58da018 	str	sl, [sp, #24]
    a3c4:	e3560002 	cmp	r6, #2
    a3c8:	13530000 	cmpne	r3, #0
    a3cc:	e6ef307b 	uxtb	r3, fp
    a3d0:	03a0c010 	moveq	ip, #16
    a3d4:	13a0c00a 	movne	ip, #10
    a3d8:	e3130001 	tst	r3, #1
    a3dc:	e58dc034 	str	ip, [sp, #52]	; 0x34
    a3e0:	03a02020 	moveq	r2, #32
    a3e4:	13a02030 	movne	r2, #48	; 0x30
    a3e8:	e58d202c 	str	r2, [sp, #44]	; 0x2c
    a3ec:	e2132002 	ands	r2, r3, #2
    a3f0:	e2035020 	and	r5, r3, #32
    a3f4:	0a0007c8 	beq	c31c <Process_Out.constprop.1+0x270c>
    a3f8:	e3510000 	cmp	r1, #0
    a3fc:	ba0007b1 	blt	c2c8 <Process_Out.constprop.1+0x26b8>
    a400:	e3130004 	tst	r3, #4
    a404:	0a000c07 	beq	d428 <Process_Out.constprop.1+0x3818>
    a408:	e59d3024 	ldr	r3, [sp, #36]	; 0x24
    a40c:	e2433001 	sub	r3, r3, #1
    a410:	e58d3024 	str	r3, [sp, #36]	; 0x24
    a414:	e3a0302b 	mov	r3, #43	; 0x2b
    a418:	e58d3028 	str	r3, [sp, #40]	; 0x28
    a41c:	e3510000 	cmp	r1, #0
    a420:	1a0007ae 	bne	c2e0 <Process_Out.constprop.1+0x26d0>
    a424:	e3a03030 	mov	r3, #48	; 0x30
    a428:	e1a04001 	mov	r4, r1
    a42c:	e3a00001 	mov	r0, #1
    a430:	e5cd3040 	strb	r3, [sp, #64]	; 0x40
    a434:	e59d301c 	ldr	r3, [sp, #28]
    a438:	e59d2018 	ldr	r2, [sp, #24]
    a43c:	e1530000 	cmp	r3, r0
    a440:	b6af3070 	sxtblt	r3, r0
    a444:	b58d301c 	strlt	r3, [sp, #28]
    a448:	e59d3008 	ldr	r3, [sp, #8]
    a44c:	e0936002 	adds	r6, r3, r2
    a450:	e59d3024 	ldr	r3, [sp, #36]	; 0x24
    a454:	e59d201c 	ldr	r2, [sp, #28]
    a458:	13a06000 	movne	r6, #0
    a45c:	e0433002 	sub	r3, r3, r2
    a460:	e58d3018 	str	r3, [sp, #24]
    a464:	1a000017 	bne	a4c8 <Process_Out.constprop.1+0x8b8>
    a468:	e3530000 	cmp	r3, #0
    a46c:	e2432001 	sub	r2, r3, #1
    a470:	da000e57 	ble	ddd4 <Process_Out.constprop.1+0x41c4>
    a474:	e5991000 	ldr	r1, [r9]
    a478:	e599e008 	ldr	lr, [r9, #8]
    a47c:	e3710001 	cmn	r1, #1
    a480:	e5993004 	ldr	r3, [r9, #4]
    a484:	0a000cfd 	beq	d880 <Process_Out.constprop.1+0x3c70>
    a488:	e35e0000 	cmp	lr, #0
    a48c:	0a000e54 	beq	dde4 <Process_Out.constprop.1+0x41d4>
    a490:	e1a0c006 	mov	ip, r6
    a494:	e3a06020 	mov	r6, #32
    a498:	e1510003 	cmp	r1, r3
    a49c:	e2422001 	sub	r2, r2, #1
    a4a0:	c3a0c001 	movgt	ip, #1
    a4a4:	c7ce6003 	strbgt	r6, [lr, r3]
    a4a8:	c083300c 	addgt	r3, r3, ip
    a4ac:	e3720001 	cmn	r2, #1
    a4b0:	1afffff8 	bne	a498 <Process_Out.constprop.1+0x888>
    a4b4:	e35c0000 	cmp	ip, #0
    a4b8:	e3e01000 	mvn	r1, #0
    a4bc:	1a000cfc 	bne	d8b4 <Process_Out.constprop.1+0x3ca4>
    a4c0:	e59d6018 	ldr	r6, [sp, #24]
    a4c4:	e58d1018 	str	r1, [sp, #24]
    a4c8:	e59d3010 	ldr	r3, [sp, #16]
    a4cc:	e7c0b01a 	bfi	fp, sl, #0, #1
    a4d0:	e7c1b09f 	bfc	fp, #1, #1
    a4d4:	e7c2b113 	bfi	fp, r3, #2, #1
    a4d8:	e59d300c 	ldr	r3, [sp, #12]
    a4dc:	e7c3b193 	bfi	fp, r3, #3, #1
    a4e0:	e59d3008 	ldr	r3, [sp, #8]
    a4e4:	e7c4b213 	bfi	fp, r3, #4, #1
    a4e8:	e59d3014 	ldr	r3, [sp, #20]
    a4ec:	e7c5b29f 	bfc	fp, #5, #1
    a4f0:	e7c6b313 	bfi	fp, r3, #6, #1
    a4f4:	e59d3020 	ldr	r3, [sp, #32]
    a4f8:	e7c7b393 	bfi	fp, r3, #7, #1
    a4fc:	e6ef307b 	uxtb	r3, fp
    a500:	e213e010 	ands	lr, r3, #16
    a504:	e58d3008 	str	r3, [sp, #8]
    a508:	1a000018 	bne	a570 <Process_Out.constprop.1+0x960>
    a50c:	e59d3018 	ldr	r3, [sp, #24]
    a510:	e3530000 	cmp	r3, #0
    a514:	e243a001 	sub	sl, r3, #1
    a518:	da000eb3 	ble	dfec <Process_Out.constprop.1+0x43dc>
    a51c:	e599c000 	ldr	ip, [r9]
    a520:	e5993004 	ldr	r3, [r9, #4]
    a524:	e37c0001 	cmn	ip, #1
    a528:	e5991008 	ldr	r1, [r9, #8]
    a52c:	0a000c8c 	beq	d764 <Process_Out.constprop.1+0x3b54>
    a530:	e3510000 	cmp	r1, #0
    a534:	0a000ea7 	beq	dfd8 <Process_Out.constprop.1+0x43c8>
    a538:	e59db02c 	ldr	fp, [sp, #44]	; 0x2c
    a53c:	e1a0200a 	mov	r2, sl
    a540:	e15c0003 	cmp	ip, r3
    a544:	e2422001 	sub	r2, r2, #1
    a548:	c3a0e001 	movgt	lr, #1
    a54c:	c7c1b003 	strbgt	fp, [r1, r3]
    a550:	c083300e 	addgt	r3, r3, lr
    a554:	e3720001 	cmn	r2, #1
    a558:	1afffff8 	bne	a540 <Process_Out.constprop.1+0x930>
    a55c:	e35e0000 	cmp	lr, #0
    a560:	e286c001 	add	ip, r6, #1
    a564:	e08a600c 	add	r6, sl, ip
    a568:	e58d2018 	str	r2, [sp, #24]
    a56c:	1a000c8c 	bne	d7a4 <Process_Out.constprop.1+0x3b94>
    a570:	e59d301c 	ldr	r3, [sp, #28]
    a574:	e1500003 	cmp	r0, r3
    a578:	e2433001 	sub	r3, r3, #1
    a57c:	e6af3073 	sxtb	r3, r3
    a580:	aa000014 	bge	a5d8 <Process_Out.constprop.1+0x9c8>
    a584:	e599e000 	ldr	lr, [r9]
    a588:	e599c008 	ldr	ip, [r9, #8]
    a58c:	e37e0001 	cmn	lr, #1
    a590:	e5991004 	ldr	r1, [r9, #4]
    a594:	0a00081e 	beq	c614 <Process_Out.constprop.1+0x2a04>
    a598:	e35c0000 	cmp	ip, #0
    a59c:	13a0a000 	movne	sl, #0
    a5a0:	13a0b030 	movne	fp, #48	; 0x30
    a5a4:	0a0006b0 	beq	c06c <Process_Out.constprop.1+0x245c>
    a5a8:	e15e0001 	cmp	lr, r1
    a5ac:	e2432001 	sub	r2, r3, #1
    a5b0:	c3a0a001 	movgt	sl, #1
    a5b4:	c7ccb001 	strbgt	fp, [ip, r1]
    a5b8:	c081100a 	addgt	r1, r1, sl
    a5bc:	e1500003 	cmp	r0, r3
    a5c0:	e6af2072 	sxtb	r2, r2
    a5c4:	e2866001 	add	r6, r6, #1
    a5c8:	e1a03002 	mov	r3, r2
    a5cc:	bafffff5 	blt	a5a8 <Process_Out.constprop.1+0x998>
    a5d0:	e35a0000 	cmp	sl, #0
    a5d4:	1a000819 	bne	c640 <Process_Out.constprop.1+0x2a30>
    a5d8:	e59d3028 	ldr	r3, [sp, #40]	; 0x28
    a5dc:	e3530000 	cmp	r3, #0
    a5e0:	1a0007d8 	bne	c548 <Process_Out.constprop.1+0x2938>
    a5e4:	e59d3008 	ldr	r3, [sp, #8]
    a5e8:	e3130040 	tst	r3, #64	; 0x40
    a5ec:	0a000007 	beq	a610 <Process_Out.constprop.1+0xa00>
    a5f0:	e59d3034 	ldr	r3, [sp, #52]	; 0x34
    a5f4:	e3530010 	cmp	r3, #16
    a5f8:	1a000004 	bne	a610 <Process_Out.constprop.1+0xa00>
    a5fc:	e3a00030 	mov	r0, #48	; 0x30
    a600:	e2866002 	add	r6, r6, #2
    a604:	ebfff92d 	bl	8ac0 <Buffer_WriteChar>
    a608:	e3850058 	orr	r0, r5, #88	; 0x58
    a60c:	ebfff92b 	bl	8ac0 <Buffer_WriteChar>
    a610:	e599c000 	ldr	ip, [r9]
    a614:	e599e008 	ldr	lr, [r9, #8]
    a618:	e37c0001 	cmn	ip, #1
    a61c:	e5991004 	ldr	r1, [r9, #4]
    a620:	0a000ade 	beq	d1a0 <Process_Out.constprop.1+0x3590>
    a624:	e35e0000 	cmp	lr, #0
    a628:	0a000c6f 	beq	d7ec <Process_Out.constprop.1+0x3bdc>
    a62c:	e28d3040 	add	r3, sp, #64	; 0x40
    a630:	e3a05000 	mov	r5, #0
    a634:	e0832004 	add	r2, r3, r4
    a638:	e2633001 	rsb	r3, r3, #1
    a63c:	e15c0001 	cmp	ip, r1
    a640:	e2422001 	sub	r2, r2, #1
    a644:	c3a05001 	movgt	r5, #1
    a648:	c5d20001 	ldrbgt	r0, [r2, #1]
    a64c:	c7ce0001 	strbgt	r0, [lr, r1]
    a650:	e0830002 	add	r0, r3, r2
    a654:	c0811005 	addgt	r1, r1, r5
    a658:	e3500000 	cmp	r0, #0
    a65c:	cafffff6 	bgt	a63c <Process_Out.constprop.1+0xa2c>
    a660:	e3550000 	cmp	r5, #0
    a664:	e2860001 	add	r0, r6, #1
    a668:	e0840000 	add	r0, r4, r0
    a66c:	1a000adb 	bne	d1e0 <Process_Out.constprop.1+0x35d0>
    a670:	e59d3018 	ldr	r3, [sp, #24]
    a674:	e3530000 	cmp	r3, #0
    a678:	e243e001 	sub	lr, r3, #1
    a67c:	da000014 	ble	a6d4 <Process_Out.constprop.1+0xac4>
    a680:	e599c000 	ldr	ip, [r9]
    a684:	e5993004 	ldr	r3, [r9, #4]
    a688:	e37c0001 	cmn	ip, #1
    a68c:	e5991008 	ldr	r1, [r9, #8]
    a690:	0a0007f2 	beq	c660 <Process_Out.constprop.1+0x2a50>
    a694:	e3510000 	cmp	r1, #0
    a698:	0a000c2e 	beq	d758 <Process_Out.constprop.1+0x3b48>
    a69c:	e3a04000 	mov	r4, #0
    a6a0:	e1a0200e 	mov	r2, lr
    a6a4:	e3a05020 	mov	r5, #32
    a6a8:	e15c0003 	cmp	ip, r3
    a6ac:	e2422001 	sub	r2, r2, #1
    a6b0:	c3a04001 	movgt	r4, #1
    a6b4:	c7c15003 	strbgt	r5, [r1, r3]
    a6b8:	c0833004 	addgt	r3, r3, r4
    a6bc:	e3720001 	cmn	r2, #1
    a6c0:	1afffff8 	bne	a6a8 <Process_Out.constprop.1+0xa98>
    a6c4:	e3540000 	cmp	r4, #0
    a6c8:	e2800001 	add	r0, r0, #1
    a6cc:	e08e0000 	add	r0, lr, r0
    a6d0:	1a0007f0 	bne	c698 <Process_Out.constprop.1+0x2a88>
    a6d4:	e59d3004 	ldr	r3, [sp, #4]
    a6d8:	e0833000 	add	r3, r3, r0
    a6dc:	e58d3004 	str	r3, [sp, #4]
    a6e0:	e59d3030 	ldr	r3, [sp, #48]	; 0x30
    a6e4:	e58d3018 	str	r3, [sp, #24]
    a6e8:	eafffd6a 	b	9c98 <Process_Out.constprop.1+0x88>
    a6ec:	e3a03000 	mov	r3, #0
    a6f0:	e1a07005 	mov	r7, r5
    a6f4:	e58d3020 	str	r3, [sp, #32]
    a6f8:	e3e03000 	mvn	r3, #0
    a6fc:	e59d2010 	ldr	r2, [sp, #16]
    a700:	e7c0601a 	bfi	r6, sl, #0, #1
    a704:	e3540000 	cmp	r4, #0
    a708:	e7c26112 	bfi	r6, r2, #2, #1
    a70c:	e59d200c 	ldr	r2, [sp, #12]
    a710:	c3a0e001 	movgt	lr, #1
    a714:	d3a0e000 	movle	lr, #0
    a718:	e7c36192 	bfi	r6, r2, #3, #1
    a71c:	e59d2008 	ldr	r2, [sp, #8]
    a720:	e7c46212 	bfi	r6, r2, #4, #1
    a724:	e59d2014 	ldr	r2, [sp, #20]
    a728:	e7c66312 	bfi	r6, r2, #6, #1
    a72c:	e59d2020 	ldr	r2, [sp, #32]
    a730:	e7c76392 	bfi	r6, r2, #7, #1
    a734:	e2266010 	eor	r6, r6, #16
    a738:	e01ee226 	ands	lr, lr, r6, lsr #4
    a73c:	0a00001e 	beq	a7bc <Process_Out.constprop.1+0xbac>
    a740:	e6ef0074 	uxtb	r0, r4
    a744:	e2404001 	sub	r4, r0, #1
    a748:	e6af4074 	sxtb	r4, r4
    a74c:	e3540000 	cmp	r4, #0
    a750:	0a000019 	beq	a7bc <Process_Out.constprop.1+0xbac>
    a754:	e5995000 	ldr	r5, [r9]
    a758:	e599c008 	ldr	ip, [r9, #8]
    a75c:	e3750001 	cmn	r5, #1
    a760:	e5991004 	ldr	r1, [r9, #4]
    a764:	0a000cbb 	beq	da58 <Process_Out.constprop.1+0x3e48>
    a768:	e35c0000 	cmp	ip, #0
    a76c:	0a000dae 	beq	de2c <Process_Out.constprop.1+0x421c>
    a770:	e3a06000 	mov	r6, #0
    a774:	e3a0a020 	mov	sl, #32
    a778:	e2444001 	sub	r4, r4, #1
    a77c:	e1550001 	cmp	r5, r1
    a780:	c7cca001 	strbgt	sl, [ip, r1]
    a784:	c1a0600e 	movgt	r6, lr
    a788:	e6ef2074 	uxtb	r2, r4
    a78c:	c2811001 	addgt	r1, r1, #1
    a790:	e3520000 	cmp	r2, #0
    a794:	e6af4072 	sxtb	r4, r2
    a798:	1afffff6 	bne	a778 <Process_Out.constprop.1+0xb68>
    a79c:	e59dc004 	ldr	ip, [sp, #4]
    a7a0:	e2400002 	sub	r0, r0, #2
    a7a4:	e3560000 	cmp	r6, #0
    a7a8:	e1a04002 	mov	r4, r2
    a7ac:	e28cc001 	add	ip, ip, #1
    a7b0:	e6ec2070 	uxtab	r2, ip, r0
    a7b4:	e58d2004 	str	r2, [sp, #4]
    a7b8:	1a000cb8 	bne	daa0 <Process_Out.constprop.1+0x3e90>
    a7bc:	e353006c 	cmp	r3, #108	; 0x6c
    a7c0:	0a00076f 	beq	c584 <Process_Out.constprop.1+0x2974>
    a7c4:	e5991000 	ldr	r1, [r9]
    a7c8:	e59d3018 	ldr	r3, [sp, #24]
    a7cc:	e3710001 	cmn	r1, #1
    a7d0:	e2830004 	add	r0, r3, #4
    a7d4:	0a000002 	beq	a7e4 <Process_Out.constprop.1+0xbd4>
    a7d8:	e5993004 	ldr	r3, [r9, #4]
    a7dc:	e1510003 	cmp	r1, r3
    a7e0:	da000008 	ble	a808 <Process_Out.constprop.1+0xbf8>
    a7e4:	e5992008 	ldr	r2, [r9, #8]
    a7e8:	e3520000 	cmp	r2, #0
    a7ec:	0a000005 	beq	a808 <Process_Out.constprop.1+0xbf8>
    a7f0:	e59dc018 	ldr	ip, [sp, #24]
    a7f4:	e5993004 	ldr	r3, [r9, #4]
    a7f8:	e283e001 	add	lr, r3, #1
    a7fc:	e59cc000 	ldr	ip, [ip]
    a800:	e589e004 	str	lr, [r9, #4]
    a804:	e7c2c003 	strb	ip, [r2, r3]
    a808:	e59d3004 	ldr	r3, [sp, #4]
    a80c:	e58d0018 	str	r0, [sp, #24]
    a810:	e2833001 	add	r3, r3, #1
    a814:	e58d3004 	str	r3, [sp, #4]
    a818:	e3540000 	cmp	r4, #0
    a81c:	dafffd1d 	ble	9c98 <Process_Out.constprop.1+0x88>
    a820:	e6ef4074 	uxtb	r4, r4
    a824:	e2443001 	sub	r3, r4, #1
    a828:	e6af3073 	sxtb	r3, r3
    a82c:	e3530000 	cmp	r3, #0
    a830:	0afffd18 	beq	9c98 <Process_Out.constprop.1+0x88>
    a834:	e3710001 	cmn	r1, #1
    a838:	e5992004 	ldr	r2, [r9, #4]
    a83c:	e5990008 	ldr	r0, [r9, #8]
    a840:	0a000ad8 	beq	d3a8 <Process_Out.constprop.1+0x3798>
    a844:	e3500000 	cmp	r0, #0
    a848:	0a000da8 	beq	def0 <Process_Out.constprop.1+0x42e0>
    a84c:	e3a0c000 	mov	ip, #0
    a850:	e3a0e020 	mov	lr, #32
    a854:	e2433001 	sub	r3, r3, #1
    a858:	e1510002 	cmp	r1, r2
    a85c:	c3a0c001 	movgt	ip, #1
    a860:	c7c0e002 	strbgt	lr, [r0, r2]
    a864:	e6ef3073 	uxtb	r3, r3
    a868:	c082200c 	addgt	r2, r2, ip
    a86c:	e3530000 	cmp	r3, #0
    a870:	e6af3073 	sxtb	r3, r3
    a874:	1afffff6 	bne	a854 <Process_Out.constprop.1+0xc44>
    a878:	e59d3004 	ldr	r3, [sp, #4]
    a87c:	e2444002 	sub	r4, r4, #2
    a880:	e35c0000 	cmp	ip, #0
    a884:	e2833001 	add	r3, r3, #1
    a888:	e6e33074 	uxtab	r3, r3, r4
    a88c:	e58d3004 	str	r3, [sp, #4]
    a890:	0afffd00 	beq	9c98 <Process_Out.constprop.1+0x88>
    a894:	e5892004 	str	r2, [r9, #4]
    a898:	eafffcfe 	b	9c98 <Process_Out.constprop.1+0x88>
    a89c:	e1a07005 	mov	r7, r5
    a8a0:	e5993000 	ldr	r3, [r9]
    a8a4:	e3730001 	cmn	r3, #1
    a8a8:	0a000002 	beq	a8b8 <Process_Out.constprop.1+0xca8>
    a8ac:	e5992004 	ldr	r2, [r9, #4]
    a8b0:	e1530002 	cmp	r3, r2
    a8b4:	dafffcf4 	ble	9c8c <Process_Out.constprop.1+0x7c>
    a8b8:	e5992008 	ldr	r2, [r9, #8]
    a8bc:	e3520000 	cmp	r2, #0
    a8c0:	13a01025 	movne	r1, #37	; 0x25
    a8c4:	15993004 	ldrne	r3, [r9, #4]
    a8c8:	12830001 	addne	r0, r3, #1
    a8cc:	15890004 	strne	r0, [r9, #4]
    a8d0:	17c21003 	strbne	r1, [r2, r3]
    a8d4:	eafffcec 	b	9c8c <Process_Out.constprop.1+0x7c>
    a8d8:	e3a03000 	mov	r3, #0
    a8dc:	e3a05010 	mov	r5, #16
    a8e0:	e58d3028 	str	r3, [sp, #40]	; 0x28
    a8e4:	e58d3024 	str	r3, [sp, #36]	; 0x24
    a8e8:	e2422068 	sub	r2, r2, #104	; 0x68
    a8ec:	e3520012 	cmp	r2, #18
    a8f0:	979ff102 	ldrls	pc, [pc, r2, lsl #2]
    a8f4:	ea0004ee 	b	bcb4 <Process_Out.constprop.1+0x20a4>
    a8f8:	0000b204 	.word	0x0000b204
    a8fc:	0000bcb4 	.word	0x0000bcb4
    a900:	0000ae54 	.word	0x0000ae54
    a904:	0000bcb4 	.word	0x0000bcb4
    a908:	0000aa98 	.word	0x0000aa98
    a90c:	0000bcb4 	.word	0x0000bcb4
    a910:	0000bcb4 	.word	0x0000bcb4
    a914:	0000bcb4 	.word	0x0000bcb4
    a918:	0000bcb4 	.word	0x0000bcb4
    a91c:	0000bcb4 	.word	0x0000bcb4
    a920:	0000bcb4 	.word	0x0000bcb4
    a924:	0000bcb4 	.word	0x0000bcb4
    a928:	0000b910 	.word	0x0000b910
    a92c:	0000bcb4 	.word	0x0000bcb4
    a930:	0000bcb4 	.word	0x0000bcb4
    a934:	0000bcb4 	.word	0x0000bcb4
    a938:	0000bcb4 	.word	0x0000bcb4
    a93c:	0000bcb4 	.word	0x0000bcb4
    a940:	0000b580 	.word	0x0000b580
    a944:	e352004c 	cmp	r2, #76	; 0x4c
    a948:	0a00082c 	beq	ca00 <Process_Out.constprop.1+0x2df0>
    a94c:	e59d3018 	ldr	r3, [sp, #24]
    a950:	e3080ac0 	movw	r0, #35520	; 0x8ac0
    a954:	e3400000 	movt	r0, #0
    a958:	e283b007 	add	fp, r3, #7
    a95c:	e3cb3007 	bic	r3, fp, #7
    a960:	e2832008 	add	r2, r3, #8
    a964:	e58d2018 	str	r2, [sp, #24]
    a968:	ed930b00 	vldr	d0, [r3]
    a96c:	eeb70bc0 	vcvt.f32.f64	s0, d0
    a970:	eeb70ac0 	vcvt.f64.f32	d0, s0
    a974:	ebfff860 	bl	8afc <NumStr>
    a978:	e59d3004 	ldr	r3, [sp, #4]
    a97c:	e0833000 	add	r3, r3, r0
    a980:	e58d3004 	str	r3, [sp, #4]
    a984:	eafffcc3 	b	9c98 <Process_Out.constprop.1+0x88>
    a988:	e3a03001 	mov	r3, #1
    a98c:	e3a05010 	mov	r5, #16
    a990:	e58d3028 	str	r3, [sp, #40]	; 0x28
    a994:	e3a03000 	mov	r3, #0
    a998:	e58d3024 	str	r3, [sp, #36]	; 0x24
    a99c:	eaffffd1 	b	a8e8 <Process_Out.constprop.1+0xcd8>
    a9a0:	e3a03000 	mov	r3, #0
    a9a4:	e3a05008 	mov	r5, #8
    a9a8:	e58d3028 	str	r3, [sp, #40]	; 0x28
    a9ac:	e58d3024 	str	r3, [sp, #36]	; 0x24
    a9b0:	eaffffcc 	b	a8e8 <Process_Out.constprop.1+0xcd8>
    a9b4:	e242204c 	sub	r2, r2, #76	; 0x4c
    a9b8:	e352002e 	cmp	r2, #46	; 0x2e
    a9bc:	979ff102 	ldrls	pc, [pc, r2, lsl #2]
    a9c0:	ea0005a2 	b	c050 <Process_Out.constprop.1+0x2440>
    a9c4:	0000c114 	.word	0x0000c114
    a9c8:	0000c050 	.word	0x0000c050
    a9cc:	0000c050 	.word	0x0000c050
    a9d0:	0000c050 	.word	0x0000c050
    a9d4:	0000c050 	.word	0x0000c050
    a9d8:	0000c050 	.word	0x0000c050
    a9dc:	0000c050 	.word	0x0000c050
    a9e0:	0000c050 	.word	0x0000c050
    a9e4:	0000c050 	.word	0x0000c050
    a9e8:	0000c050 	.word	0x0000c050
    a9ec:	0000c050 	.word	0x0000c050
    a9f0:	0000c050 	.word	0x0000c050
    a9f4:	0000c050 	.word	0x0000c050
    a9f8:	0000c050 	.word	0x0000c050
    a9fc:	0000c050 	.word	0x0000c050
    aa00:	0000c050 	.word	0x0000c050
    aa04:	0000c050 	.word	0x0000c050
    aa08:	0000c050 	.word	0x0000c050
    aa0c:	0000c050 	.word	0x0000c050
    aa10:	0000c050 	.word	0x0000c050
    aa14:	0000c050 	.word	0x0000c050
    aa18:	0000c050 	.word	0x0000c050
    aa1c:	0000c050 	.word	0x0000c050
    aa20:	0000c050 	.word	0x0000c050
    aa24:	0000c050 	.word	0x0000c050
    aa28:	0000c050 	.word	0x0000c050
    aa2c:	0000c050 	.word	0x0000c050
    aa30:	0000c050 	.word	0x0000c050
    aa34:	0000c158 	.word	0x0000c158
    aa38:	0000c050 	.word	0x0000c050
    aa3c:	0000c134 	.word	0x0000c134
    aa40:	0000c050 	.word	0x0000c050
    aa44:	0000c184 	.word	0x0000c184
    aa48:	0000c050 	.word	0x0000c050
    aa4c:	0000c050 	.word	0x0000c050
    aa50:	0000c050 	.word	0x0000c050
    aa54:	0000c050 	.word	0x0000c050
    aa58:	0000c050 	.word	0x0000c050
    aa5c:	0000c050 	.word	0x0000c050
    aa60:	0000c050 	.word	0x0000c050
    aa64:	0000c050 	.word	0x0000c050
    aa68:	0000c050 	.word	0x0000c050
    aa6c:	0000c050 	.word	0x0000c050
    aa70:	0000c050 	.word	0x0000c050
    aa74:	0000c050 	.word	0x0000c050
    aa78:	0000c050 	.word	0x0000c050
    aa7c:	0000c050 	.word	0x0000c050
    aa80:	e3a03000 	mov	r3, #0
    aa84:	e3a0500a 	mov	r5, #10
    aa88:	e58d3028 	str	r3, [sp, #40]	; 0x28
    aa8c:	e3a03001 	mov	r3, #1
    aa90:	e58d3024 	str	r3, [sp, #36]	; 0x24
    aa94:	eaffff93 	b	a8e8 <Process_Out.constprop.1+0xcd8>
    aa98:	e59d3024 	ldr	r3, [sp, #36]	; 0x24
    aa9c:	e7c0601a 	bfi	r6, sl, #0, #1
    aaa0:	e7c16093 	bfi	r6, r3, #1, #1
    aaa4:	e59d3010 	ldr	r3, [sp, #16]
    aaa8:	e7c26113 	bfi	r6, r3, #2, #1
    aaac:	e59d300c 	ldr	r3, [sp, #12]
    aab0:	e7c36193 	bfi	r6, r3, #3, #1
    aab4:	e59d3008 	ldr	r3, [sp, #8]
    aab8:	e7c46213 	bfi	r6, r3, #4, #1
    aabc:	e59d3028 	ldr	r3, [sp, #40]	; 0x28
    aac0:	e7c56293 	bfi	r6, r3, #5, #1
    aac4:	e59d3014 	ldr	r3, [sp, #20]
    aac8:	e7c66313 	bfi	r6, r3, #6, #1
    aacc:	e59d3020 	ldr	r3, [sp, #32]
    aad0:	e7c76393 	bfi	r6, r3, #7, #1
    aad4:	e6ef2076 	uxtb	r2, r6
    aad8:	e3120080 	tst	r2, #128	; 0x80
    aadc:	1a000806 	bne	cafc <Process_Out.constprop.1+0x2eec>
    aae0:	e59d3018 	ldr	r3, [sp, #24]
    aae4:	e3120010 	tst	r2, #16
    aae8:	e7cc6415 	bfi	r6, r5, #8, #5
    aaec:	13a0a000 	movne	sl, #0
    aaf0:	e2832004 	add	r2, r3, #4
    aaf4:	e7d76814 	bfi	r6, r4, #16, #8
    aaf8:	e58d2038 	str	r2, [sp, #56]	; 0x38
    aafc:	e1a0b00a 	mov	fp, sl
    ab00:	e59d201c 	ldr	r2, [sp, #28]
    ab04:	e5931000 	ldr	r1, [r3]
    ab08:	e7df6c12 	bfi	r6, r2, #24, #8
    ab0c:	e58d4018 	str	r4, [sp, #24]
    ab10:	e58d6034 	str	r6, [sp, #52]	; 0x34
    ab14:	e1a03006 	mov	r3, r6
    ab18:	e7e46456 	ubfx	r6, r6, #8, #5
    ab1c:	e7c0301a 	bfi	r3, sl, #0, #1
    ab20:	e2462008 	sub	r2, r6, #8
    ab24:	e58d3034 	str	r3, [sp, #52]	; 0x34
    ab28:	e20220f7 	and	r2, r2, #247	; 0xf7
    ab2c:	e6ef3073 	uxtb	r3, r3
    ab30:	e3560002 	cmp	r6, #2
    ab34:	13520000 	cmpne	r2, #0
    ab38:	e2036020 	and	r6, r3, #32
    ab3c:	13a0500a 	movne	r5, #10
    ab40:	e3130001 	tst	r3, #1
    ab44:	03a02020 	moveq	r2, #32
    ab48:	13a02030 	movne	r2, #48	; 0x30
    ab4c:	e58d2030 	str	r2, [sp, #48]	; 0x30
    ab50:	e2132002 	ands	r2, r3, #2
    ab54:	0a000662 	beq	c4e4 <Process_Out.constprop.1+0x28d4>
    ab58:	e3510000 	cmp	r1, #0
    ab5c:	ba000662 	blt	c4ec <Process_Out.constprop.1+0x28dc>
    ab60:	e3130004 	tst	r3, #4
    ab64:	0a000b7a 	beq	d954 <Process_Out.constprop.1+0x3d44>
    ab68:	e2443001 	sub	r3, r4, #1
    ab6c:	e58d3018 	str	r3, [sp, #24]
    ab70:	e3a0302b 	mov	r3, #43	; 0x2b
    ab74:	e58d302c 	str	r3, [sp, #44]	; 0x2c
    ab78:	e3510000 	cmp	r1, #0
    ab7c:	1a00065f 	bne	c500 <Process_Out.constprop.1+0x28f0>
    ab80:	e3a03030 	mov	r3, #48	; 0x30
    ab84:	e1a04001 	mov	r4, r1
    ab88:	e3a00001 	mov	r0, #1
    ab8c:	e5cd3040 	strb	r3, [sp, #64]	; 0x40
    ab90:	e59d301c 	ldr	r3, [sp, #28]
    ab94:	e1530000 	cmp	r3, r0
    ab98:	b6af3070 	sxtblt	r3, r0
    ab9c:	b58d301c 	strlt	r3, [sp, #28]
    aba0:	e59d3008 	ldr	r3, [sp, #8]
    aba4:	e59d201c 	ldr	r2, [sp, #28]
    aba8:	e093b00b 	adds	fp, r3, fp
    abac:	e59d3018 	ldr	r3, [sp, #24]
    abb0:	13a0b000 	movne	fp, #0
    abb4:	e0433002 	sub	r3, r3, r2
    abb8:	e58d3018 	str	r3, [sp, #24]
    abbc:	1a000017 	bne	ac20 <Process_Out.constprop.1+0x1010>
    abc0:	e3530000 	cmp	r3, #0
    abc4:	e2432001 	sub	r2, r3, #1
    abc8:	da000c78 	ble	ddb0 <Process_Out.constprop.1+0x41a0>
    abcc:	e599c000 	ldr	ip, [r9]
    abd0:	e599e008 	ldr	lr, [r9, #8]
    abd4:	e37c0001 	cmn	ip, #1
    abd8:	e5993004 	ldr	r3, [r9, #4]
    abdc:	0a000be1 	beq	db68 <Process_Out.constprop.1+0x3f58>
    abe0:	e35e0000 	cmp	lr, #0
    abe4:	0a000c76 	beq	ddc4 <Process_Out.constprop.1+0x41b4>
    abe8:	e1a0100b 	mov	r1, fp
    abec:	e3a0b020 	mov	fp, #32
    abf0:	e153000c 	cmp	r3, ip
    abf4:	e2422001 	sub	r2, r2, #1
    abf8:	b3a01001 	movlt	r1, #1
    abfc:	b7ceb003 	strblt	fp, [lr, r3]
    ac00:	b0833001 	addlt	r3, r3, r1
    ac04:	e3720001 	cmn	r2, #1
    ac08:	1afffff8 	bne	abf0 <Process_Out.constprop.1+0xfe0>
    ac0c:	e3510000 	cmp	r1, #0
    ac10:	e3e01000 	mvn	r1, #0
    ac14:	1a000be0 	bne	db9c <Process_Out.constprop.1+0x3f8c>
    ac18:	e59db018 	ldr	fp, [sp, #24]
    ac1c:	e58d1018 	str	r1, [sp, #24]
    ac20:	e59d3034 	ldr	r3, [sp, #52]	; 0x34
    ac24:	e59d2024 	ldr	r2, [sp, #36]	; 0x24
    ac28:	e7c0301a 	bfi	r3, sl, #0, #1
    ac2c:	e7c13092 	bfi	r3, r2, #1, #1
    ac30:	e59d2010 	ldr	r2, [sp, #16]
    ac34:	e7c23112 	bfi	r3, r2, #2, #1
    ac38:	e59d200c 	ldr	r2, [sp, #12]
    ac3c:	e7c33192 	bfi	r3, r2, #3, #1
    ac40:	e59d2008 	ldr	r2, [sp, #8]
    ac44:	e7c43212 	bfi	r3, r2, #4, #1
    ac48:	e59d2028 	ldr	r2, [sp, #40]	; 0x28
    ac4c:	e7c53292 	bfi	r3, r2, #5, #1
    ac50:	e59d2014 	ldr	r2, [sp, #20]
    ac54:	e7c63312 	bfi	r3, r2, #6, #1
    ac58:	e59d2020 	ldr	r2, [sp, #32]
    ac5c:	e7c73392 	bfi	r3, r2, #7, #1
    ac60:	e6ef3073 	uxtb	r3, r3
    ac64:	e213c010 	ands	ip, r3, #16
    ac68:	e58d3008 	str	r3, [sp, #8]
    ac6c:	1a000018 	bne	acd4 <Process_Out.constprop.1+0x10c4>
    ac70:	e59d3018 	ldr	r3, [sp, #24]
    ac74:	e3530000 	cmp	r3, #0
    ac78:	e243a001 	sub	sl, r3, #1
    ac7c:	da000c66 	ble	de1c <Process_Out.constprop.1+0x420c>
    ac80:	e599e000 	ldr	lr, [r9]
    ac84:	e5993004 	ldr	r3, [r9, #4]
    ac88:	e37e0001 	cmn	lr, #1
    ac8c:	e5991008 	ldr	r1, [r9, #8]
    ac90:	0a000bc3 	beq	dba4 <Process_Out.constprop.1+0x3f94>
    ac94:	e3510000 	cmp	r1, #0
    ac98:	0a000be0 	beq	dc20 <Process_Out.constprop.1+0x4010>
    ac9c:	e1a0200a 	mov	r2, sl
    aca0:	e153000e 	cmp	r3, lr
    aca4:	e2422001 	sub	r2, r2, #1
    aca8:	b5ddc030 	ldrblt	ip, [sp, #48]	; 0x30
    acac:	b7c1c003 	strblt	ip, [r1, r3]
    acb0:	b3a0c001 	movlt	ip, #1
    acb4:	b083300c 	addlt	r3, r3, ip
    acb8:	e3720001 	cmn	r2, #1
    acbc:	1afffff7 	bne	aca0 <Process_Out.constprop.1+0x1090>
    acc0:	e35c0000 	cmp	ip, #0
    acc4:	e28b1001 	add	r1, fp, #1
    acc8:	e08ab001 	add	fp, sl, r1
    accc:	e58d2018 	str	r2, [sp, #24]
    acd0:	1a000bc3 	bne	dbe4 <Process_Out.constprop.1+0x3fd4>
    acd4:	e59d301c 	ldr	r3, [sp, #28]
    acd8:	e1500003 	cmp	r0, r3
    acdc:	e2433001 	sub	r3, r3, #1
    ace0:	e6af3073 	sxtb	r3, r3
    ace4:	aa000014 	bge	ad3c <Process_Out.constprop.1+0x112c>
    ace8:	e599c000 	ldr	ip, [r9]
    acec:	e599a008 	ldr	sl, [r9, #8]
    acf0:	e37c0001 	cmn	ip, #1
    acf4:	e5991004 	ldr	r1, [r9, #4]
    acf8:	0a000976 	beq	d2d8 <Process_Out.constprop.1+0x36c8>
    acfc:	e35a0000 	cmp	sl, #0
    ad00:	13a0e000 	movne	lr, #0
    ad04:	0a0004fc 	beq	c0fc <Process_Out.constprop.1+0x24ec>
    ad08:	e151000c 	cmp	r1, ip
    ad0c:	e2432001 	sub	r2, r3, #1
    ad10:	e28bb001 	add	fp, fp, #1
    ad14:	e6af2072 	sxtb	r2, r2
    ad18:	b3a0e030 	movlt	lr, #48	; 0x30
    ad1c:	b7cae001 	strblt	lr, [sl, r1]
    ad20:	b3a0e001 	movlt	lr, #1
    ad24:	b081100e 	addlt	r1, r1, lr
    ad28:	e1530000 	cmp	r3, r0
    ad2c:	e1a03002 	mov	r3, r2
    ad30:	cafffff4 	bgt	ad08 <Process_Out.constprop.1+0x10f8>
    ad34:	e35e0000 	cmp	lr, #0
    ad38:	1a000971 	bne	d304 <Process_Out.constprop.1+0x36f4>
    ad3c:	e59d302c 	ldr	r3, [sp, #44]	; 0x2c
    ad40:	e3530000 	cmp	r3, #0
    ad44:	1a000954 	bne	d29c <Process_Out.constprop.1+0x368c>
    ad48:	e59d3008 	ldr	r3, [sp, #8]
    ad4c:	e3130040 	tst	r3, #64	; 0x40
    ad50:	0a000008 	beq	ad78 <Process_Out.constprop.1+0x1168>
    ad54:	e3550008 	cmp	r5, #8
    ad58:	0a000b52 	beq	daa8 <Process_Out.constprop.1+0x3e98>
    ad5c:	e3550010 	cmp	r5, #16
    ad60:	1a000004 	bne	ad78 <Process_Out.constprop.1+0x1168>
    ad64:	e3a00030 	mov	r0, #48	; 0x30
    ad68:	e28bb002 	add	fp, fp, #2
    ad6c:	ebfff753 	bl	8ac0 <Buffer_WriteChar>
    ad70:	e3860058 	orr	r0, r6, #88	; 0x58
    ad74:	ebfff751 	bl	8ac0 <Buffer_WriteChar>
    ad78:	e599c000 	ldr	ip, [r9]
    ad7c:	e5991004 	ldr	r1, [r9, #4]
    ad80:	e37c0001 	cmn	ip, #1
    ad84:	e599e008 	ldr	lr, [r9, #8]
    ad88:	0a000931 	beq	d254 <Process_Out.constprop.1+0x3644>
    ad8c:	e35e0000 	cmp	lr, #0
    ad90:	0a000c2c 	beq	de48 <Process_Out.constprop.1+0x4238>
    ad94:	e28d3040 	add	r3, sp, #64	; 0x40
    ad98:	e3a05000 	mov	r5, #0
    ad9c:	e0832004 	add	r2, r3, r4
    ada0:	e2633001 	rsb	r3, r3, #1
    ada4:	e151000c 	cmp	r1, ip
    ada8:	e2422001 	sub	r2, r2, #1
    adac:	b3a05001 	movlt	r5, #1
    adb0:	b5d20001 	ldrblt	r0, [r2, #1]
    adb4:	b7ce0001 	strblt	r0, [lr, r1]
    adb8:	e0830002 	add	r0, r3, r2
    adbc:	b0811005 	addlt	r1, r1, r5
    adc0:	e3500000 	cmp	r0, #0
    adc4:	cafffff6 	bgt	ada4 <Process_Out.constprop.1+0x1194>
    adc8:	e3550000 	cmp	r5, #0
    adcc:	e28b0001 	add	r0, fp, #1
    add0:	e0840000 	add	r0, r4, r0
    add4:	1a00092e 	bne	d294 <Process_Out.constprop.1+0x3684>
    add8:	e59d3018 	ldr	r3, [sp, #24]
    addc:	e3530000 	cmp	r3, #0
    ade0:	e243c001 	sub	ip, r3, #1
    ade4:	da000014 	ble	ae3c <Process_Out.constprop.1+0x122c>
    ade8:	e599e000 	ldr	lr, [r9]
    adec:	e5991008 	ldr	r1, [r9, #8]
    adf0:	e37e0001 	cmn	lr, #1
    adf4:	e5993004 	ldr	r3, [r9, #4]
    adf8:	0a00090a 	beq	d228 <Process_Out.constprop.1+0x3618>
    adfc:	e3510000 	cmp	r1, #0
    ae00:	0a0005cd 	beq	c53c <Process_Out.constprop.1+0x292c>
    ae04:	e3a04000 	mov	r4, #0
    ae08:	e1a0200c 	mov	r2, ip
    ae0c:	e3a05020 	mov	r5, #32
    ae10:	e153000e 	cmp	r3, lr
    ae14:	e2422001 	sub	r2, r2, #1
    ae18:	b3a04001 	movlt	r4, #1
    ae1c:	b7c15003 	strblt	r5, [r1, r3]
    ae20:	b0833004 	addlt	r3, r3, r4
    ae24:	e3720001 	cmn	r2, #1
    ae28:	1afffff8 	bne	ae10 <Process_Out.constprop.1+0x1200>
    ae2c:	e3540000 	cmp	r4, #0
    ae30:	e2800001 	add	r0, r0, #1
    ae34:	e08c0000 	add	r0, ip, r0
    ae38:	1a000863 	bne	cfcc <Process_Out.constprop.1+0x33bc>
    ae3c:	e59d3004 	ldr	r3, [sp, #4]
    ae40:	e0833000 	add	r3, r3, r0
    ae44:	e58d3004 	str	r3, [sp, #4]
    ae48:	e59d3038 	ldr	r3, [sp, #56]	; 0x38
    ae4c:	e58d3018 	str	r3, [sp, #24]
    ae50:	eafffb90 	b	9c98 <Process_Out.constprop.1+0x88>
    ae54:	e59d3018 	ldr	r3, [sp, #24]
    ae58:	e7c0601a 	bfi	r6, sl, #0, #1
    ae5c:	e59d2024 	ldr	r2, [sp, #36]	; 0x24
    ae60:	e2833007 	add	r3, r3, #7
    ae64:	e58d402c 	str	r4, [sp, #44]	; 0x2c
    ae68:	e7c16092 	bfi	r6, r2, #1, #1
    ae6c:	e59d2010 	ldr	r2, [sp, #16]
    ae70:	e3c33007 	bic	r3, r3, #7
    ae74:	e7c26112 	bfi	r6, r2, #2, #1
    ae78:	e2832008 	add	r2, r3, #8
    ae7c:	e58d2018 	str	r2, [sp, #24]
    ae80:	e59d200c 	ldr	r2, [sp, #12]
    ae84:	e593b000 	ldr	fp, [r3]
    ae88:	e7c36192 	bfi	r6, r2, #3, #1
    ae8c:	e59d2008 	ldr	r2, [sp, #8]
    ae90:	e59d3028 	ldr	r3, [sp, #40]	; 0x28
    ae94:	e7c46212 	bfi	r6, r2, #4, #1
    ae98:	e7c56293 	bfi	r6, r3, #5, #1
    ae9c:	e59d3014 	ldr	r3, [sp, #20]
    aea0:	e7c66313 	bfi	r6, r3, #6, #1
    aea4:	e59d3020 	ldr	r3, [sp, #32]
    aea8:	e7c76393 	bfi	r6, r3, #7, #1
    aeac:	e59d301c 	ldr	r3, [sp, #28]
    aeb0:	e7cc6415 	bfi	r6, r5, #8, #5
    aeb4:	e7d76814 	bfi	r6, r4, #16, #8
    aeb8:	e7df6c13 	bfi	r6, r3, #24, #8
    aebc:	e3160010 	tst	r6, #16
    aec0:	e1a0c006 	mov	ip, r6
    aec4:	13a0a000 	movne	sl, #0
    aec8:	e7e46456 	ubfx	r6, r6, #8, #5
    aecc:	e2462008 	sub	r2, r6, #8
    aed0:	e7c0c01a 	bfi	ip, sl, #0, #1
    aed4:	e20220f7 	and	r2, r2, #247	; 0xf7
    aed8:	e58da038 	str	sl, [sp, #56]	; 0x38
    aedc:	e3560002 	cmp	r6, #2
    aee0:	13520000 	cmpne	r2, #0
    aee4:	e6ef307c 	uxtb	r3, ip
    aee8:	13a0500a 	movne	r5, #10
    aeec:	e3130001 	tst	r3, #1
    aef0:	03a02020 	moveq	r2, #32
    aef4:	13a02030 	movne	r2, #48	; 0x30
    aef8:	e58d2034 	str	r2, [sp, #52]	; 0x34
    aefc:	e2132002 	ands	r2, r3, #2
    af00:	e2036020 	and	r6, r3, #32
    af04:	0a00055e 	beq	c484 <Process_Out.constprop.1+0x2874>
    af08:	e35b0000 	cmp	fp, #0
    af0c:	ba000547 	blt	c430 <Process_Out.constprop.1+0x2820>
    af10:	e3130004 	tst	r3, #4
    af14:	0a00096f 	beq	d4d8 <Process_Out.constprop.1+0x38c8>
    af18:	e2443001 	sub	r3, r4, #1
    af1c:	e58d302c 	str	r3, [sp, #44]	; 0x2c
    af20:	e3a0302b 	mov	r3, #43	; 0x2b
    af24:	e58d3030 	str	r3, [sp, #48]	; 0x30
    af28:	e35b0000 	cmp	fp, #0
    af2c:	1a000544 	bne	c444 <Process_Out.constprop.1+0x2834>
    af30:	e3a03030 	mov	r3, #48	; 0x30
    af34:	e3a01001 	mov	r1, #1
    af38:	e5cd3040 	strb	r3, [sp, #64]	; 0x40
    af3c:	e59d301c 	ldr	r3, [sp, #28]
    af40:	e59d2038 	ldr	r2, [sp, #56]	; 0x38
    af44:	e1530001 	cmp	r3, r1
    af48:	b6af3071 	sxtblt	r3, r1
    af4c:	b58d301c 	strlt	r3, [sp, #28]
    af50:	e59d3008 	ldr	r3, [sp, #8]
    af54:	e0934002 	adds	r4, r3, r2
    af58:	e59d302c 	ldr	r3, [sp, #44]	; 0x2c
    af5c:	e59d201c 	ldr	r2, [sp, #28]
    af60:	13a04000 	movne	r4, #0
    af64:	e0433002 	sub	r3, r3, r2
    af68:	e58d302c 	str	r3, [sp, #44]	; 0x2c
    af6c:	1a00001a 	bne	afdc <Process_Out.constprop.1+0x13cc>
    af70:	e3530000 	cmp	r3, #0
    af74:	e2432001 	sub	r2, r3, #1
    af78:	da000bfb 	ble	df6c <Process_Out.constprop.1+0x435c>
    af7c:	e5990000 	ldr	r0, [r9]
    af80:	e5993008 	ldr	r3, [r9, #8]
    af84:	e3700001 	cmn	r0, #1
    af88:	e1a0e003 	mov	lr, r3
    af8c:	e58d3038 	str	r3, [sp, #56]	; 0x38
    af90:	e5993004 	ldr	r3, [r9, #4]
    af94:	0a0009b8 	beq	d67c <Process_Out.constprop.1+0x3a6c>
    af98:	e35e0000 	cmp	lr, #0
    af9c:	0a000c09 	beq	dfc8 <Process_Out.constprop.1+0x43b8>
    afa0:	e1a0e004 	mov	lr, r4
    afa4:	e3a04020 	mov	r4, #32
    afa8:	e1530000 	cmp	r3, r0
    afac:	e2422001 	sub	r2, r2, #1
    afb0:	b59de038 	ldrlt	lr, [sp, #56]	; 0x38
    afb4:	b7ce4003 	strblt	r4, [lr, r3]
    afb8:	b3a0e001 	movlt	lr, #1
    afbc:	b083300e 	addlt	r3, r3, lr
    afc0:	e3720001 	cmn	r2, #1
    afc4:	1afffff7 	bne	afa8 <Process_Out.constprop.1+0x1398>
    afc8:	e35e0000 	cmp	lr, #0
    afcc:	e3e00000 	mvn	r0, #0
    afd0:	1a0009b7 	bne	d6b4 <Process_Out.constprop.1+0x3aa4>
    afd4:	e59d402c 	ldr	r4, [sp, #44]	; 0x2c
    afd8:	e58d002c 	str	r0, [sp, #44]	; 0x2c
    afdc:	e59d3024 	ldr	r3, [sp, #36]	; 0x24
    afe0:	e7c0c01a 	bfi	ip, sl, #0, #1
    afe4:	e7c1c093 	bfi	ip, r3, #1, #1
    afe8:	e59d3010 	ldr	r3, [sp, #16]
    afec:	e7c2c113 	bfi	ip, r3, #2, #1
    aff0:	e59d300c 	ldr	r3, [sp, #12]
    aff4:	e7c3c193 	bfi	ip, r3, #3, #1
    aff8:	e59d3008 	ldr	r3, [sp, #8]
    affc:	e7c4c213 	bfi	ip, r3, #4, #1
    b000:	e59d3028 	ldr	r3, [sp, #40]	; 0x28
    b004:	e7c5c293 	bfi	ip, r3, #5, #1
    b008:	e59d3014 	ldr	r3, [sp, #20]
    b00c:	e7c6c313 	bfi	ip, r3, #6, #1
    b010:	e59d3020 	ldr	r3, [sp, #32]
    b014:	e7c7c393 	bfi	ip, r3, #7, #1
    b018:	e6ef307c 	uxtb	r3, ip
    b01c:	e213c011 	ands	ip, r3, #17
    b020:	e58d3008 	str	r3, [sp, #8]
    b024:	1a000018 	bne	b08c <Process_Out.constprop.1+0x147c>
    b028:	e59d302c 	ldr	r3, [sp, #44]	; 0x2c
    b02c:	e3530000 	cmp	r3, #0
    b030:	e243a001 	sub	sl, r3, #1
    b034:	da000b1d 	ble	dcb0 <Process_Out.constprop.1+0x40a0>
    b038:	e599e000 	ldr	lr, [r9]
    b03c:	e5990008 	ldr	r0, [r9, #8]
    b040:	e37e0001 	cmn	lr, #1
    b044:	e5993004 	ldr	r3, [r9, #4]
    b048:	0a000960 	beq	d5d0 <Process_Out.constprop.1+0x39c0>
    b04c:	e3500000 	cmp	r0, #0
    b050:	0a000afe 	beq	dc50 <Process_Out.constprop.1+0x4040>
    b054:	e1a0200a 	mov	r2, sl
    b058:	e153000e 	cmp	r3, lr
    b05c:	e2422001 	sub	r2, r2, #1
    b060:	b5ddc034 	ldrblt	ip, [sp, #52]	; 0x34
    b064:	b7c0c003 	strblt	ip, [r0, r3]
    b068:	b3a0c001 	movlt	ip, #1
    b06c:	b083300c 	addlt	r3, r3, ip
    b070:	e3720001 	cmn	r2, #1
    b074:	1afffff7 	bne	b058 <Process_Out.constprop.1+0x1448>
    b078:	e35c0000 	cmp	ip, #0
    b07c:	e284e001 	add	lr, r4, #1
    b080:	e08e400a 	add	r4, lr, sl
    b084:	e58d202c 	str	r2, [sp, #44]	; 0x2c
    b088:	1a000960 	bne	d610 <Process_Out.constprop.1+0x3a00>
    b08c:	e59d301c 	ldr	r3, [sp, #28]
    b090:	e1510003 	cmp	r1, r3
    b094:	e2433001 	sub	r3, r3, #1
    b098:	e6af3073 	sxtb	r3, r3
    b09c:	aa000014 	bge	b0f4 <Process_Out.constprop.1+0x14e4>
    b0a0:	e599e000 	ldr	lr, [r9]
    b0a4:	e599c008 	ldr	ip, [r9, #8]
    b0a8:	e37e0001 	cmn	lr, #1
    b0ac:	e5990004 	ldr	r0, [r9, #4]
    b0b0:	0a0007ec 	beq	d068 <Process_Out.constprop.1+0x3458>
    b0b4:	e35c0000 	cmp	ip, #0
    b0b8:	13a0a000 	movne	sl, #0
    b0bc:	0a0003f6 	beq	c09c <Process_Out.constprop.1+0x248c>
    b0c0:	e150000e 	cmp	r0, lr
    b0c4:	e2432001 	sub	r2, r3, #1
    b0c8:	e2844001 	add	r4, r4, #1
    b0cc:	e6af2072 	sxtb	r2, r2
    b0d0:	b3a0a030 	movlt	sl, #48	; 0x30
    b0d4:	b7cca000 	strblt	sl, [ip, r0]
    b0d8:	b3a0a001 	movlt	sl, #1
    b0dc:	b080000a 	addlt	r0, r0, sl
    b0e0:	e1510003 	cmp	r1, r3
    b0e4:	e1a03002 	mov	r3, r2
    b0e8:	bafffff4 	blt	b0c0 <Process_Out.constprop.1+0x14b0>
    b0ec:	e35a0000 	cmp	sl, #0
    b0f0:	1a0007e7 	bne	d094 <Process_Out.constprop.1+0x3484>
    b0f4:	e59d3030 	ldr	r3, [sp, #48]	; 0x30
    b0f8:	e3530000 	cmp	r3, #0
    b0fc:	1a000782 	bne	cf0c <Process_Out.constprop.1+0x32fc>
    b100:	e59d3008 	ldr	r3, [sp, #8]
    b104:	e3130040 	tst	r3, #64	; 0x40
    b108:	0a000008 	beq	b130 <Process_Out.constprop.1+0x1520>
    b10c:	e3550008 	cmp	r5, #8
    b110:	0a00092a 	beq	d5c0 <Process_Out.constprop.1+0x39b0>
    b114:	e3550010 	cmp	r5, #16
    b118:	1a000004 	bne	b130 <Process_Out.constprop.1+0x1520>
    b11c:	e3a00030 	mov	r0, #48	; 0x30
    b120:	e2844002 	add	r4, r4, #2
    b124:	ebfff665 	bl	8ac0 <Buffer_WriteChar>
    b128:	e3860058 	orr	r0, r6, #88	; 0x58
    b12c:	ebfff663 	bl	8ac0 <Buffer_WriteChar>
    b130:	e599c000 	ldr	ip, [r9]
    b134:	e599e008 	ldr	lr, [r9, #8]
    b138:	e37c0001 	cmn	ip, #1
    b13c:	e5991004 	ldr	r1, [r9, #4]
    b140:	0a0007b6 	beq	d020 <Process_Out.constprop.1+0x3410>
    b144:	e35e0000 	cmp	lr, #0
    b148:	0a000919 	beq	d5b4 <Process_Out.constprop.1+0x39a4>
    b14c:	e28d3040 	add	r3, sp, #64	; 0x40
    b150:	e3a05000 	mov	r5, #0
    b154:	e083200b 	add	r2, r3, fp
    b158:	e2633001 	rsb	r3, r3, #1
    b15c:	e151000c 	cmp	r1, ip
    b160:	e2422001 	sub	r2, r2, #1
    b164:	b3a05001 	movlt	r5, #1
    b168:	b5d20001 	ldrblt	r0, [r2, #1]
    b16c:	b7ce0001 	strblt	r0, [lr, r1]
    b170:	e0830002 	add	r0, r3, r2
    b174:	b0811005 	addlt	r1, r1, r5
    b178:	e3500000 	cmp	r0, #0
    b17c:	cafffff6 	bgt	b15c <Process_Out.constprop.1+0x154c>
    b180:	e3550000 	cmp	r5, #0
    b184:	e2840001 	add	r0, r4, #1
    b188:	e080000b 	add	r0, r0, fp
    b18c:	1a0007b3 	bne	d060 <Process_Out.constprop.1+0x3450>
    b190:	e59d302c 	ldr	r3, [sp, #44]	; 0x2c
    b194:	e3530000 	cmp	r3, #0
    b198:	e243c001 	sub	ip, r3, #1
    b19c:	da000014 	ble	b1f4 <Process_Out.constprop.1+0x15e4>
    b1a0:	e599e000 	ldr	lr, [r9]
    b1a4:	e5993004 	ldr	r3, [r9, #4]
    b1a8:	e37e0001 	cmn	lr, #1
    b1ac:	e5991008 	ldr	r1, [r9, #8]
    b1b0:	0a00080c 	beq	d1e8 <Process_Out.constprop.1+0x35d8>
    b1b4:	e3510000 	cmp	r1, #0
    b1b8:	0a0009ec 	beq	d970 <Process_Out.constprop.1+0x3d60>
    b1bc:	e3a04000 	mov	r4, #0
    b1c0:	e1a0200c 	mov	r2, ip
    b1c4:	e3a05020 	mov	r5, #32
    b1c8:	e153000e 	cmp	r3, lr
    b1cc:	e2422001 	sub	r2, r2, #1
    b1d0:	b3a04001 	movlt	r4, #1
    b1d4:	b7c15003 	strblt	r5, [r1, r3]
    b1d8:	b0833004 	addlt	r3, r3, r4
    b1dc:	e3720001 	cmn	r2, #1
    b1e0:	1afffff8 	bne	b1c8 <Process_Out.constprop.1+0x15b8>
    b1e4:	e3540000 	cmp	r4, #0
    b1e8:	e2800001 	add	r0, r0, #1
    b1ec:	e08c0000 	add	r0, ip, r0
    b1f0:	1a00080a 	bne	d220 <Process_Out.constprop.1+0x3610>
    b1f4:	e59d3004 	ldr	r3, [sp, #4]
    b1f8:	e0833000 	add	r3, r3, r0
    b1fc:	e58d3004 	str	r3, [sp, #4]
    b200:	eafffaa4 	b	9c98 <Process_Out.constprop.1+0x88>
    b204:	e59d3024 	ldr	r3, [sp, #36]	; 0x24
    b208:	e7c0601a 	bfi	r6, sl, #0, #1
    b20c:	e7c16093 	bfi	r6, r3, #1, #1
    b210:	e59d3010 	ldr	r3, [sp, #16]
    b214:	e7c26113 	bfi	r6, r3, #2, #1
    b218:	e59d300c 	ldr	r3, [sp, #12]
    b21c:	e7c36193 	bfi	r6, r3, #3, #1
    b220:	e59d3008 	ldr	r3, [sp, #8]
    b224:	e7c46213 	bfi	r6, r3, #4, #1
    b228:	e59d3028 	ldr	r3, [sp, #40]	; 0x28
    b22c:	e7c56293 	bfi	r6, r3, #5, #1
    b230:	e59d3014 	ldr	r3, [sp, #20]
    b234:	e7c66313 	bfi	r6, r3, #6, #1
    b238:	e59d3020 	ldr	r3, [sp, #32]
    b23c:	e7c76393 	bfi	r6, r3, #7, #1
    b240:	e6ef3076 	uxtb	r3, r6
    b244:	e7cc6415 	bfi	r6, r5, #8, #5
    b248:	e3130080 	tst	r3, #128	; 0x80
    b24c:	1a000513 	bne	c6a0 <Process_Out.constprop.1+0x2a90>
    b250:	e3130010 	tst	r3, #16
    b254:	e59d3018 	ldr	r3, [sp, #24]
    b258:	e7d76814 	bfi	r6, r4, #16, #8
    b25c:	13a0a000 	movne	sl, #0
    b260:	e2832004 	add	r2, r3, #4
    b264:	e58da018 	str	sl, [sp, #24]
    b268:	e58d2020 	str	r2, [sp, #32]
    b26c:	e59d201c 	ldr	r2, [sp, #28]
    b270:	e1d3b0f0 	ldrsh	fp, [r3]
    b274:	e7df6c12 	bfi	r6, r2, #24, #8
    b278:	e1a03006 	mov	r3, r6
    b27c:	e7e46456 	ubfx	r6, r6, #8, #5
    b280:	e7c0301a 	bfi	r3, sl, #0, #1
    b284:	e2462008 	sub	r2, r6, #8
    b288:	e20220f7 	and	r2, r2, #247	; 0xf7
    b28c:	e1a0a004 	mov	sl, r4
    b290:	e3560002 	cmp	r6, #2
    b294:	13520000 	cmpne	r2, #0
    b298:	e6ef3073 	uxtb	r3, r3
    b29c:	13a0500a 	movne	r5, #10
    b2a0:	e3130001 	tst	r3, #1
    b2a4:	03a02020 	moveq	r2, #32
    b2a8:	13a02030 	movne	r2, #48	; 0x30
    b2ac:	e58d3010 	str	r3, [sp, #16]
    b2b0:	e2036020 	and	r6, r3, #32
    b2b4:	e2133002 	ands	r3, r3, #2
    b2b8:	e58d2014 	str	r2, [sp, #20]
    b2bc:	0a000472 	beq	c48c <Process_Out.constprop.1+0x287c>
    b2c0:	e35b0000 	cmp	fp, #0
    b2c4:	ba000472 	blt	c494 <Process_Out.constprop.1+0x2884>
    b2c8:	e59d3010 	ldr	r3, [sp, #16]
    b2cc:	e3130004 	tst	r3, #4
    b2d0:	0a00091a 	beq	d740 <Process_Out.constprop.1+0x3b30>
    b2d4:	e3a0302b 	mov	r3, #43	; 0x2b
    b2d8:	e244a001 	sub	sl, r4, #1
    b2dc:	e58d300c 	str	r3, [sp, #12]
    b2e0:	e35b0000 	cmp	fp, #0
    b2e4:	1a00046e 	bne	c4a4 <Process_Out.constprop.1+0x2894>
    b2e8:	e3a03030 	mov	r3, #48	; 0x30
    b2ec:	e3a02001 	mov	r2, #1
    b2f0:	e5cd3040 	strb	r3, [sp, #64]	; 0x40
    b2f4:	e59d301c 	ldr	r3, [sp, #28]
    b2f8:	e59d1018 	ldr	r1, [sp, #24]
    b2fc:	e1530002 	cmp	r3, r2
    b300:	b6af3072 	sxtblt	r3, r2
    b304:	b58d301c 	strlt	r3, [sp, #28]
    b308:	e59d3008 	ldr	r3, [sp, #8]
    b30c:	e0934001 	adds	r4, r3, r1
    b310:	e59d301c 	ldr	r3, [sp, #28]
    b314:	13a04000 	movne	r4, #0
    b318:	e04aa003 	sub	sl, sl, r3
    b31c:	1a000016 	bne	b37c <Process_Out.constprop.1+0x176c>
    b320:	e35a0000 	cmp	sl, #0
    b324:	e24a1001 	sub	r1, sl, #1
    b328:	da000a9e 	ble	dda8 <Process_Out.constprop.1+0x4198>
    b32c:	e599c000 	ldr	ip, [r9]
    b330:	e5990008 	ldr	r0, [r9, #8]
    b334:	e37c0001 	cmn	ip, #1
    b338:	e5993004 	ldr	r3, [r9, #4]
    b33c:	0a0009fb 	beq	db30 <Process_Out.constprop.1+0x3f20>
    b340:	e3500000 	cmp	r0, #0
    b344:	0a000a48 	beq	dc6c <Process_Out.constprop.1+0x405c>
    b348:	e3a0e020 	mov	lr, #32
    b34c:	e153000c 	cmp	r3, ip
    b350:	e2411001 	sub	r1, r1, #1
    b354:	b3a04001 	movlt	r4, #1
    b358:	b7c0e003 	strblt	lr, [r0, r3]
    b35c:	b0833004 	addlt	r3, r3, r4
    b360:	e3710001 	cmn	r1, #1
    b364:	1afffff8 	bne	b34c <Process_Out.constprop.1+0x173c>
    b368:	e3540000 	cmp	r4, #0
    b36c:	e3e00000 	mvn	r0, #0
    b370:	1a0009fa 	bne	db60 <Process_Out.constprop.1+0x3f50>
    b374:	e1a0400a 	mov	r4, sl
    b378:	e1a0a000 	mov	sl, r0
    b37c:	e59d3010 	ldr	r3, [sp, #16]
    b380:	e213c011 	ands	ip, r3, #17
    b384:	1a00001a 	bne	b3f4 <Process_Out.constprop.1+0x17e4>
    b388:	e35a0000 	cmp	sl, #0
    b38c:	e24ae001 	sub	lr, sl, #1
    b390:	da000a4e 	ble	dcd0 <Process_Out.constprop.1+0x40c0>
    b394:	e5993000 	ldr	r3, [r9]
    b398:	e5990008 	ldr	r0, [r9, #8]
    b39c:	e1a01003 	mov	r1, r3
    b3a0:	e58d3008 	str	r3, [sp, #8]
    b3a4:	e3710001 	cmn	r1, #1
    b3a8:	e5993004 	ldr	r3, [r9, #4]
    b3ac:	0a000987 	beq	d9d0 <Process_Out.constprop.1+0x3dc0>
    b3b0:	e3500000 	cmp	r0, #0
    b3b4:	0a000a12 	beq	dc04 <Process_Out.constprop.1+0x3ff4>
    b3b8:	e1a0a001 	mov	sl, r1
    b3bc:	e1a0100e 	mov	r1, lr
    b3c0:	e153000a 	cmp	r3, sl
    b3c4:	e2411001 	sub	r1, r1, #1
    b3c8:	b5ddc014 	ldrblt	ip, [sp, #20]
    b3cc:	b7c0c003 	strblt	ip, [r0, r3]
    b3d0:	b3a0c001 	movlt	ip, #1
    b3d4:	b083300c 	addlt	r3, r3, ip
    b3d8:	e3710001 	cmn	r1, #1
    b3dc:	1afffff7 	bne	b3c0 <Process_Out.constprop.1+0x17b0>
    b3e0:	e35c0000 	cmp	ip, #0
    b3e4:	e2844001 	add	r4, r4, #1
    b3e8:	e084400e 	add	r4, r4, lr
    b3ec:	e3e0a000 	mvn	sl, #0
    b3f0:	1a000984 	bne	da08 <Process_Out.constprop.1+0x3df8>
    b3f4:	e59d301c 	ldr	r3, [sp, #28]
    b3f8:	e1520003 	cmp	r2, r3
    b3fc:	e2433001 	sub	r3, r3, #1
    b400:	e6af3073 	sxtb	r3, r3
    b404:	aa000018 	bge	b46c <Process_Out.constprop.1+0x185c>
    b408:	e599e000 	ldr	lr, [r9]
    b40c:	e599c008 	ldr	ip, [r9, #8]
    b410:	e37e0001 	cmn	lr, #1
    b414:	e5990004 	ldr	r0, [r9, #4]
    b418:	0a00083e 	beq	d518 <Process_Out.constprop.1+0x3908>
    b41c:	e35c0000 	cmp	ip, #0
    b420:	13a01000 	movne	r1, #0
    b424:	158d5008 	strne	r5, [sp, #8]
    b428:	11a05001 	movne	r5, r1
    b42c:	0a00032c 	beq	c0e4 <Process_Out.constprop.1+0x24d4>
    b430:	e150000e 	cmp	r0, lr
    b434:	e2431001 	sub	r1, r3, #1
    b438:	e2844001 	add	r4, r4, #1
    b43c:	e6af1071 	sxtb	r1, r1
    b440:	b3a05030 	movlt	r5, #48	; 0x30
    b444:	b7cc5000 	strblt	r5, [ip, r0]
    b448:	b3a05001 	movlt	r5, #1
    b44c:	b0800005 	addlt	r0, r0, r5
    b450:	e1520003 	cmp	r2, r3
    b454:	e1a03001 	mov	r3, r1
    b458:	bafffff4 	blt	b430 <Process_Out.constprop.1+0x1820>
    b45c:	e1a03005 	mov	r3, r5
    b460:	e59d5008 	ldr	r5, [sp, #8]
    b464:	e3530000 	cmp	r3, #0
    b468:	1a000835 	bne	d544 <Process_Out.constprop.1+0x3934>
    b46c:	e59d300c 	ldr	r3, [sp, #12]
    b470:	e3530000 	cmp	r3, #0
    b474:	1a0007bc 	bne	d36c <Process_Out.constprop.1+0x375c>
    b478:	e59d3010 	ldr	r3, [sp, #16]
    b47c:	e3130040 	tst	r3, #64	; 0x40
    b480:	0a000008 	beq	b4a8 <Process_Out.constprop.1+0x1898>
    b484:	e3550008 	cmp	r5, #8
    b488:	0a0009a4 	beq	db20 <Process_Out.constprop.1+0x3f10>
    b48c:	e3550010 	cmp	r5, #16
    b490:	1a000004 	bne	b4a8 <Process_Out.constprop.1+0x1898>
    b494:	e3a00030 	mov	r0, #48	; 0x30
    b498:	e2844002 	add	r4, r4, #2
    b49c:	ebfff587 	bl	8ac0 <Buffer_WriteChar>
    b4a0:	e3860058 	orr	r0, r6, #88	; 0x58
    b4a4:	ebfff585 	bl	8ac0 <Buffer_WriteChar>
    b4a8:	e599c000 	ldr	ip, [r9]
    b4ac:	e5991004 	ldr	r1, [r9, #4]
    b4b0:	e37c0001 	cmn	ip, #1
    b4b4:	e599e008 	ldr	lr, [r9, #8]
    b4b8:	0a000799 	beq	d324 <Process_Out.constprop.1+0x3714>
    b4bc:	e35e0000 	cmp	lr, #0
    b4c0:	0a0009d3 	beq	dc14 <Process_Out.constprop.1+0x4004>
    b4c4:	e28d3040 	add	r3, sp, #64	; 0x40
    b4c8:	e3a05000 	mov	r5, #0
    b4cc:	e083200b 	add	r2, r3, fp
    b4d0:	e2633001 	rsb	r3, r3, #1
    b4d4:	e151000c 	cmp	r1, ip
    b4d8:	e2422001 	sub	r2, r2, #1
    b4dc:	b3a05001 	movlt	r5, #1
    b4e0:	b5d20001 	ldrblt	r0, [r2, #1]
    b4e4:	b7ce0001 	strblt	r0, [lr, r1]
    b4e8:	e0830002 	add	r0, r3, r2
    b4ec:	b0811005 	addlt	r1, r1, r5
    b4f0:	e3500000 	cmp	r0, #0
    b4f4:	cafffff6 	bgt	b4d4 <Process_Out.constprop.1+0x18c4>
    b4f8:	e3550000 	cmp	r5, #0
    b4fc:	e2840001 	add	r0, r4, #1
    b500:	e080000b 	add	r0, r0, fp
    b504:	1a000796 	bne	d364 <Process_Out.constprop.1+0x3754>
    b508:	e35a0000 	cmp	sl, #0
    b50c:	e24ac001 	sub	ip, sl, #1
    b510:	da000014 	ble	b568 <Process_Out.constprop.1+0x1958>
    b514:	e599e000 	ldr	lr, [r9]
    b518:	e5991008 	ldr	r1, [r9, #8]
    b51c:	e37e0001 	cmn	lr, #1
    b520:	e5993004 	ldr	r3, [r9, #4]
    b524:	0a0007c8 	beq	d44c <Process_Out.constprop.1+0x383c>
    b528:	e3510000 	cmp	r1, #0
    b52c:	0a000a21 	beq	ddb8 <Process_Out.constprop.1+0x41a8>
    b530:	e3a04000 	mov	r4, #0
    b534:	e1a0200c 	mov	r2, ip
    b538:	e3a05020 	mov	r5, #32
    b53c:	e153000e 	cmp	r3, lr
    b540:	e2422001 	sub	r2, r2, #1
    b544:	b3a04001 	movlt	r4, #1
    b548:	b7c15003 	strblt	r5, [r1, r3]
    b54c:	b0833004 	addlt	r3, r3, r4
    b550:	e3720001 	cmn	r2, #1
    b554:	1afffff8 	bne	b53c <Process_Out.constprop.1+0x192c>
    b558:	e3540000 	cmp	r4, #0
    b55c:	e2800001 	add	r0, r0, #1
    b560:	e08c0000 	add	r0, ip, r0
    b564:	1a0007c5 	bne	d480 <Process_Out.constprop.1+0x3870>
    b568:	e59d3004 	ldr	r3, [sp, #4]
    b56c:	e0833000 	add	r3, r3, r0
    b570:	e58d3004 	str	r3, [sp, #4]
    b574:	e59d3020 	ldr	r3, [sp, #32]
    b578:	e58d3018 	str	r3, [sp, #24]
    b57c:	eafff9c5 	b	9c98 <Process_Out.constprop.1+0x88>
    b580:	e59d3018 	ldr	r3, [sp, #24]
    b584:	e7c0601a 	bfi	r6, sl, #0, #1
    b588:	e58d4018 	str	r4, [sp, #24]
    b58c:	e2832004 	add	r2, r3, #4
    b590:	e58d2038 	str	r2, [sp, #56]	; 0x38
    b594:	e59d2024 	ldr	r2, [sp, #36]	; 0x24
    b598:	e5931000 	ldr	r1, [r3]
    b59c:	e59d3010 	ldr	r3, [sp, #16]
    b5a0:	e7c16092 	bfi	r6, r2, #1, #1
    b5a4:	e7c26113 	bfi	r6, r3, #2, #1
    b5a8:	e59d300c 	ldr	r3, [sp, #12]
    b5ac:	e7c36193 	bfi	r6, r3, #3, #1
    b5b0:	e59d3008 	ldr	r3, [sp, #8]
    b5b4:	e7c46213 	bfi	r6, r3, #4, #1
    b5b8:	e59d3028 	ldr	r3, [sp, #40]	; 0x28
    b5bc:	e7c56293 	bfi	r6, r3, #5, #1
    b5c0:	e59d3014 	ldr	r3, [sp, #20]
    b5c4:	e7c66313 	bfi	r6, r3, #6, #1
    b5c8:	e59d3020 	ldr	r3, [sp, #32]
    b5cc:	e7c76393 	bfi	r6, r3, #7, #1
    b5d0:	e59d301c 	ldr	r3, [sp, #28]
    b5d4:	e7cc6415 	bfi	r6, r5, #8, #5
    b5d8:	e7d76814 	bfi	r6, r4, #16, #8
    b5dc:	e7df6c13 	bfi	r6, r3, #24, #8
    b5e0:	e3160010 	tst	r6, #16
    b5e4:	e1a0c006 	mov	ip, r6
    b5e8:	13a0a000 	movne	sl, #0
    b5ec:	e7e46456 	ubfx	r6, r6, #8, #5
    b5f0:	e2462008 	sub	r2, r6, #8
    b5f4:	e7c0c01a 	bfi	ip, sl, #0, #1
    b5f8:	e20220f7 	and	r2, r2, #247	; 0xf7
    b5fc:	e58da034 	str	sl, [sp, #52]	; 0x34
    b600:	e3560002 	cmp	r6, #2
    b604:	13520000 	cmpne	r2, #0
    b608:	e6ef307c 	uxtb	r3, ip
    b60c:	13a0500a 	movne	r5, #10
    b610:	e3130001 	tst	r3, #1
    b614:	03a02020 	moveq	r2, #32
    b618:	13a02030 	movne	r2, #48	; 0x30
    b61c:	e58d2030 	str	r2, [sp, #48]	; 0x30
    b620:	e2132002 	ands	r2, r3, #2
    b624:	e2036020 	and	r6, r3, #32
    b628:	0a00037e 	beq	c428 <Process_Out.constprop.1+0x2818>
    b62c:	e3510000 	cmp	r1, #0
    b630:	ba000368 	blt	c3d8 <Process_Out.constprop.1+0x27c8>
    b634:	e3130004 	tst	r3, #4
    b638:	0a0007ad 	beq	d4f4 <Process_Out.constprop.1+0x38e4>
    b63c:	e2443001 	sub	r3, r4, #1
    b640:	e58d3018 	str	r3, [sp, #24]
    b644:	e3a0302b 	mov	r3, #43	; 0x2b
    b648:	e58d302c 	str	r3, [sp, #44]	; 0x2c
    b64c:	e3510000 	cmp	r1, #0
    b650:	1a000365 	bne	c3ec <Process_Out.constprop.1+0x27dc>
    b654:	e3a03030 	mov	r3, #48	; 0x30
    b658:	e1a04001 	mov	r4, r1
    b65c:	e3a00001 	mov	r0, #1
    b660:	e5cd3040 	strb	r3, [sp, #64]	; 0x40
    b664:	e59d301c 	ldr	r3, [sp, #28]
    b668:	e59d2034 	ldr	r2, [sp, #52]	; 0x34
    b66c:	e1530000 	cmp	r3, r0
    b670:	b6af3070 	sxtblt	r3, r0
    b674:	b58d301c 	strlt	r3, [sp, #28]
    b678:	e59d3008 	ldr	r3, [sp, #8]
    b67c:	e093b002 	adds	fp, r3, r2
    b680:	e59d3018 	ldr	r3, [sp, #24]
    b684:	e59d201c 	ldr	r2, [sp, #28]
    b688:	13a0b000 	movne	fp, #0
    b68c:	e0433002 	sub	r3, r3, r2
    b690:	e58d3018 	str	r3, [sp, #24]
    b694:	1a00001a 	bne	b704 <Process_Out.constprop.1+0x1af4>
    b698:	e3530000 	cmp	r3, #0
    b69c:	e2432001 	sub	r2, r3, #1
    b6a0:	da000a53 	ble	dff4 <Process_Out.constprop.1+0x43e4>
    b6a4:	e5991000 	ldr	r1, [r9]
    b6a8:	e5993008 	ldr	r3, [r9, #8]
    b6ac:	e3710001 	cmn	r1, #1
    b6b0:	e1a0e003 	mov	lr, r3
    b6b4:	e58d3034 	str	r3, [sp, #52]	; 0x34
    b6b8:	e5993004 	ldr	r3, [r9, #4]
    b6bc:	0a000882 	beq	d8cc <Process_Out.constprop.1+0x3cbc>
    b6c0:	e35e0000 	cmp	lr, #0
    b6c4:	0a000a4e 	beq	e004 <Process_Out.constprop.1+0x43f4>
    b6c8:	e1a0e00b 	mov	lr, fp
    b6cc:	e3a0b020 	mov	fp, #32
    b6d0:	e1510003 	cmp	r1, r3
    b6d4:	e2422001 	sub	r2, r2, #1
    b6d8:	c59de034 	ldrgt	lr, [sp, #52]	; 0x34
    b6dc:	c7ceb003 	strbgt	fp, [lr, r3]
    b6e0:	c3a0e001 	movgt	lr, #1
    b6e4:	c083300e 	addgt	r3, r3, lr
    b6e8:	e3720001 	cmn	r2, #1
    b6ec:	1afffff7 	bne	b6d0 <Process_Out.constprop.1+0x1ac0>
    b6f0:	e35e0000 	cmp	lr, #0
    b6f4:	e3e01000 	mvn	r1, #0
    b6f8:	1a000881 	bne	d904 <Process_Out.constprop.1+0x3cf4>
    b6fc:	e59db018 	ldr	fp, [sp, #24]
    b700:	e58d1018 	str	r1, [sp, #24]
    b704:	e59d3024 	ldr	r3, [sp, #36]	; 0x24
    b708:	e7c0c01a 	bfi	ip, sl, #0, #1
    b70c:	e7c1c093 	bfi	ip, r3, #1, #1
    b710:	e59d3010 	ldr	r3, [sp, #16]
    b714:	e7c2c113 	bfi	ip, r3, #2, #1
    b718:	e59d300c 	ldr	r3, [sp, #12]
    b71c:	e7c3c193 	bfi	ip, r3, #3, #1
    b720:	e59d3008 	ldr	r3, [sp, #8]
    b724:	e7c4c213 	bfi	ip, r3, #4, #1
    b728:	e59d3028 	ldr	r3, [sp, #40]	; 0x28
    b72c:	e7c5c293 	bfi	ip, r3, #5, #1
    b730:	e59d3014 	ldr	r3, [sp, #20]
    b734:	e7c6c313 	bfi	ip, r3, #6, #1
    b738:	e59d3020 	ldr	r3, [sp, #32]
    b73c:	e7c7c393 	bfi	ip, r3, #7, #1
    b740:	e6ef307c 	uxtb	r3, ip
    b744:	e213c010 	ands	ip, r3, #16
    b748:	e58d3008 	str	r3, [sp, #8]
    b74c:	1a000018 	bne	b7b4 <Process_Out.constprop.1+0x1ba4>
    b750:	e59d3018 	ldr	r3, [sp, #24]
    b754:	e3530000 	cmp	r3, #0
    b758:	e243a001 	sub	sl, r3, #1
    b75c:	da000a26 	ble	dffc <Process_Out.constprop.1+0x43ec>
    b760:	e599e000 	ldr	lr, [r9]
    b764:	e5991008 	ldr	r1, [r9, #8]
    b768:	e37e0001 	cmn	lr, #1
    b76c:	e5993004 	ldr	r3, [r9, #4]
    b770:	0a000865 	beq	d90c <Process_Out.constprop.1+0x3cfc>
    b774:	e3510000 	cmp	r1, #0
    b778:	0a0009f6 	beq	df58 <Process_Out.constprop.1+0x4348>
    b77c:	e1a0200a 	mov	r2, sl
    b780:	e15e0003 	cmp	lr, r3
    b784:	e2422001 	sub	r2, r2, #1
    b788:	c5ddc030 	ldrbgt	ip, [sp, #48]	; 0x30
    b78c:	c7c1c003 	strbgt	ip, [r1, r3]
    b790:	c3a0c001 	movgt	ip, #1
    b794:	c083300c 	addgt	r3, r3, ip
    b798:	e3720001 	cmn	r2, #1
    b79c:	1afffff7 	bne	b780 <Process_Out.constprop.1+0x1b70>
    b7a0:	e35c0000 	cmp	ip, #0
    b7a4:	e28be001 	add	lr, fp, #1
    b7a8:	e08eb00a 	add	fp, lr, sl
    b7ac:	e58d2018 	str	r2, [sp, #24]
    b7b0:	1a000865 	bne	d94c <Process_Out.constprop.1+0x3d3c>
    b7b4:	e59d301c 	ldr	r3, [sp, #28]
    b7b8:	e1500003 	cmp	r0, r3
    b7bc:	e2433001 	sub	r3, r3, #1
    b7c0:	e6af3073 	sxtb	r3, r3
    b7c4:	aa000014 	bge	b81c <Process_Out.constprop.1+0x1c0c>
    b7c8:	e599e000 	ldr	lr, [r9]
    b7cc:	e599c008 	ldr	ip, [r9, #8]
    b7d0:	e37e0001 	cmn	lr, #1
    b7d4:	e5991004 	ldr	r1, [r9, #4]
    b7d8:	0a0005da 	beq	cf48 <Process_Out.constprop.1+0x3338>
    b7dc:	e35c0000 	cmp	ip, #0
    b7e0:	13a0a000 	movne	sl, #0
    b7e4:	0a000226 	beq	c084 <Process_Out.constprop.1+0x2474>
    b7e8:	e15e0001 	cmp	lr, r1
    b7ec:	e2432001 	sub	r2, r3, #1
    b7f0:	e28bb001 	add	fp, fp, #1
    b7f4:	e6af2072 	sxtb	r2, r2
    b7f8:	c3a0a030 	movgt	sl, #48	; 0x30
    b7fc:	c7cca001 	strbgt	sl, [ip, r1]
    b800:	c3a0a001 	movgt	sl, #1
    b804:	c081100a 	addgt	r1, r1, sl
    b808:	e1500003 	cmp	r0, r3
    b80c:	e1a03002 	mov	r3, r2
    b810:	bafffff4 	blt	b7e8 <Process_Out.constprop.1+0x1bd8>
    b814:	e35a0000 	cmp	sl, #0
    b818:	1a0005d5 	bne	cf74 <Process_Out.constprop.1+0x3364>
    b81c:	e59d302c 	ldr	r3, [sp, #44]	; 0x2c
    b820:	e3530000 	cmp	r3, #0
    b824:	1a000597 	bne	ce88 <Process_Out.constprop.1+0x3278>
    b828:	e59d3008 	ldr	r3, [sp, #8]
    b82c:	e3130040 	tst	r3, #64	; 0x40
    b830:	0a000008 	beq	b858 <Process_Out.constprop.1+0x1c48>
    b834:	e3550008 	cmp	r5, #8
    b838:	0a000776 	beq	d618 <Process_Out.constprop.1+0x3a08>
    b83c:	e3550010 	cmp	r5, #16
    b840:	1a000004 	bne	b858 <Process_Out.constprop.1+0x1c48>
    b844:	e3a00030 	mov	r0, #48	; 0x30
    b848:	e28bb002 	add	fp, fp, #2
    b84c:	ebfff49b 	bl	8ac0 <Buffer_WriteChar>
    b850:	e3860058 	orr	r0, r6, #88	; 0x58
    b854:	ebfff499 	bl	8ac0 <Buffer_WriteChar>
    b858:	e599c000 	ldr	ip, [r9]
    b85c:	e599e008 	ldr	lr, [r9, #8]
    b860:	e37c0001 	cmn	ip, #1
    b864:	e5991004 	ldr	r1, [r9, #4]
    b868:	0a000595 	beq	cec4 <Process_Out.constprop.1+0x32b4>
    b86c:	e35e0000 	cmp	lr, #0
    b870:	0a00076c 	beq	d628 <Process_Out.constprop.1+0x3a18>
    b874:	e28d3040 	add	r3, sp, #64	; 0x40
    b878:	e3a05000 	mov	r5, #0
    b87c:	e0832004 	add	r2, r3, r4
    b880:	e2633001 	rsb	r3, r3, #1
    b884:	e15c0001 	cmp	ip, r1
    b888:	e2422001 	sub	r2, r2, #1
    b88c:	c3a05001 	movgt	r5, #1
    b890:	c5d20001 	ldrbgt	r0, [r2, #1]
    b894:	c7ce0001 	strbgt	r0, [lr, r1]
    b898:	e0830002 	add	r0, r3, r2
    b89c:	c0811005 	addgt	r1, r1, r5
    b8a0:	e3500000 	cmp	r0, #0
    b8a4:	cafffff6 	bgt	b884 <Process_Out.constprop.1+0x1c74>
    b8a8:	e3550000 	cmp	r5, #0
    b8ac:	e28b0001 	add	r0, fp, #1
    b8b0:	e0800004 	add	r0, r0, r4
    b8b4:	1a000592 	bne	cf04 <Process_Out.constprop.1+0x32f4>
    b8b8:	e59d3018 	ldr	r3, [sp, #24]
    b8bc:	e3530000 	cmp	r3, #0
    b8c0:	e243c001 	sub	ip, r3, #1
    b8c4:	dafffd5c 	ble	ae3c <Process_Out.constprop.1+0x122c>
    b8c8:	e599e000 	ldr	lr, [r9]
    b8cc:	e5991008 	ldr	r1, [r9, #8]
    b8d0:	e37e0001 	cmn	lr, #1
    b8d4:	e5993004 	ldr	r3, [r9, #4]
    b8d8:	0a000625 	beq	d174 <Process_Out.constprop.1+0x3564>
    b8dc:	e3510000 	cmp	r1, #0
    b8e0:	0a000315 	beq	c53c <Process_Out.constprop.1+0x292c>
    b8e4:	e3a04000 	mov	r4, #0
    b8e8:	e1a0200c 	mov	r2, ip
    b8ec:	e3a05020 	mov	r5, #32
    b8f0:	e15e0003 	cmp	lr, r3
    b8f4:	e2422001 	sub	r2, r2, #1
    b8f8:	c3a04001 	movgt	r4, #1
    b8fc:	c7c15003 	strbgt	r5, [r1, r3]
    b900:	c0833004 	addgt	r3, r3, r4
    b904:	e3720001 	cmn	r2, #1
    b908:	1afffff8 	bne	b8f0 <Process_Out.constprop.1+0x1ce0>
    b90c:	eafffd46 	b	ae2c <Process_Out.constprop.1+0x121c>
    b910:	e59d3018 	ldr	r3, [sp, #24]
    b914:	e7c0601a 	bfi	r6, sl, #0, #1
    b918:	e58d4018 	str	r4, [sp, #24]
    b91c:	e2832004 	add	r2, r3, #4
    b920:	e58d2038 	str	r2, [sp, #56]	; 0x38
    b924:	e59d2024 	ldr	r2, [sp, #36]	; 0x24
    b928:	e5931000 	ldr	r1, [r3]
    b92c:	e59d3010 	ldr	r3, [sp, #16]
    b930:	e7c16092 	bfi	r6, r2, #1, #1
    b934:	e7c26113 	bfi	r6, r3, #2, #1
    b938:	e59d300c 	ldr	r3, [sp, #12]
    b93c:	e7c36193 	bfi	r6, r3, #3, #1
    b940:	e59d3008 	ldr	r3, [sp, #8]
    b944:	e7c46213 	bfi	r6, r3, #4, #1
    b948:	e59d3028 	ldr	r3, [sp, #40]	; 0x28
    b94c:	e7c56293 	bfi	r6, r3, #5, #1
    b950:	e59d3014 	ldr	r3, [sp, #20]
    b954:	e7c66313 	bfi	r6, r3, #6, #1
    b958:	e59d3020 	ldr	r3, [sp, #32]
    b95c:	e7c76393 	bfi	r6, r3, #7, #1
    b960:	e59d301c 	ldr	r3, [sp, #28]
    b964:	e7cc6415 	bfi	r6, r5, #8, #5
    b968:	e7d76814 	bfi	r6, r4, #16, #8
    b96c:	e7df6c13 	bfi	r6, r3, #24, #8
    b970:	e3160010 	tst	r6, #16
    b974:	e1a0c006 	mov	ip, r6
    b978:	13a0a000 	movne	sl, #0
    b97c:	e7e46456 	ubfx	r6, r6, #8, #5
    b980:	e2462008 	sub	r2, r6, #8
    b984:	e7c0c01a 	bfi	ip, sl, #0, #1
    b988:	e20220f7 	and	r2, r2, #247	; 0xf7
    b98c:	e58da034 	str	sl, [sp, #52]	; 0x34
    b990:	e3560002 	cmp	r6, #2
    b994:	13520000 	cmpne	r2, #0
    b998:	e6ef307c 	uxtb	r3, ip
    b99c:	13a0500a 	movne	r5, #10
    b9a0:	e3130001 	tst	r3, #1
    b9a4:	03a02020 	moveq	r2, #32
    b9a8:	13a02030 	movne	r2, #48	; 0x30
    b9ac:	e58d2030 	str	r2, [sp, #48]	; 0x30
    b9b0:	e2132002 	ands	r2, r3, #2
    b9b4:	e2036020 	and	r6, r3, #32
    b9b8:	0a000284 	beq	c3d0 <Process_Out.constprop.1+0x27c0>
    b9bc:	e3510000 	cmp	r1, #0
    b9c0:	ba00026e 	blt	c380 <Process_Out.constprop.1+0x2770>
    b9c4:	e3130004 	tst	r3, #4
    b9c8:	0a000688 	beq	d3f0 <Process_Out.constprop.1+0x37e0>
    b9cc:	e2443001 	sub	r3, r4, #1
    b9d0:	e58d3018 	str	r3, [sp, #24]
    b9d4:	e3a0302b 	mov	r3, #43	; 0x2b
    b9d8:	e58d302c 	str	r3, [sp, #44]	; 0x2c
    b9dc:	e3510000 	cmp	r1, #0
    b9e0:	1a00026b 	bne	c394 <Process_Out.constprop.1+0x2784>
    b9e4:	e3a03030 	mov	r3, #48	; 0x30
    b9e8:	e1a04001 	mov	r4, r1
    b9ec:	e3a00001 	mov	r0, #1
    b9f0:	e5cd3040 	strb	r3, [sp, #64]	; 0x40
    b9f4:	e59d301c 	ldr	r3, [sp, #28]
    b9f8:	e59d2034 	ldr	r2, [sp, #52]	; 0x34
    b9fc:	e1530000 	cmp	r3, r0
    ba00:	b6af3070 	sxtblt	r3, r0
    ba04:	b58d301c 	strlt	r3, [sp, #28]
    ba08:	e59d3008 	ldr	r3, [sp, #8]
    ba0c:	e093b002 	adds	fp, r3, r2
    ba10:	e59d3018 	ldr	r3, [sp, #24]
    ba14:	e59d201c 	ldr	r2, [sp, #28]
    ba18:	13a0b000 	movne	fp, #0
    ba1c:	e0433002 	sub	r3, r3, r2
    ba20:	e58d3018 	str	r3, [sp, #24]
    ba24:	1a000018 	bne	ba8c <Process_Out.constprop.1+0x1e7c>
    ba28:	e3530000 	cmp	r3, #0
    ba2c:	e2432001 	sub	r2, r3, #1
    ba30:	da0008a0 	ble	dcb8 <Process_Out.constprop.1+0x40a8>
    ba34:	e899000a 	ldm	r9, {r1, r3}
    ba38:	e599e008 	ldr	lr, [r9, #8]
    ba3c:	e3710001 	cmn	r1, #1
    ba40:	e58de034 	str	lr, [sp, #52]	; 0x34
    ba44:	0a00076b 	beq	d7f8 <Process_Out.constprop.1+0x3be8>
    ba48:	e35e0000 	cmp	lr, #0
    ba4c:	0a0008de 	beq	ddcc <Process_Out.constprop.1+0x41bc>
    ba50:	e1a0e00b 	mov	lr, fp
    ba54:	e3a0b020 	mov	fp, #32
    ba58:	e1510003 	cmp	r1, r3
    ba5c:	e2422001 	sub	r2, r2, #1
    ba60:	c59de034 	ldrgt	lr, [sp, #52]	; 0x34
    ba64:	c7ceb003 	strbgt	fp, [lr, r3]
    ba68:	c3a0e001 	movgt	lr, #1
    ba6c:	c083300e 	addgt	r3, r3, lr
    ba70:	e3720001 	cmn	r2, #1
    ba74:	1afffff7 	bne	ba58 <Process_Out.constprop.1+0x1e48>
    ba78:	e35e0000 	cmp	lr, #0
    ba7c:	e3e01000 	mvn	r1, #0
    ba80:	1a00076a 	bne	d830 <Process_Out.constprop.1+0x3c20>
    ba84:	e59db018 	ldr	fp, [sp, #24]
    ba88:	e58d1018 	str	r1, [sp, #24]
    ba8c:	e59d3024 	ldr	r3, [sp, #36]	; 0x24
    ba90:	e7c0c01a 	bfi	ip, sl, #0, #1
    ba94:	e7c1c093 	bfi	ip, r3, #1, #1
    ba98:	e59d3010 	ldr	r3, [sp, #16]
    ba9c:	e7c2c113 	bfi	ip, r3, #2, #1
    baa0:	e59d300c 	ldr	r3, [sp, #12]
    baa4:	e7c3c193 	bfi	ip, r3, #3, #1
    baa8:	e59d3008 	ldr	r3, [sp, #8]
    baac:	e7c4c213 	bfi	ip, r3, #4, #1
    bab0:	e59d3028 	ldr	r3, [sp, #40]	; 0x28
    bab4:	e7c5c293 	bfi	ip, r3, #5, #1
    bab8:	e59d3014 	ldr	r3, [sp, #20]
    babc:	e7c6c313 	bfi	ip, r3, #6, #1
    bac0:	e59d3020 	ldr	r3, [sp, #32]
    bac4:	e7c7c393 	bfi	ip, r3, #7, #1
    bac8:	e6ef307c 	uxtb	r3, ip
    bacc:	e213c010 	ands	ip, r3, #16
    bad0:	e58d3008 	str	r3, [sp, #8]
    bad4:	1a000018 	bne	bb3c <Process_Out.constprop.1+0x1f2c>
    bad8:	e59d3018 	ldr	r3, [sp, #24]
    badc:	e3530000 	cmp	r3, #0
    bae0:	e243a001 	sub	sl, r3, #1
    bae4:	da0008ce 	ble	de24 <Process_Out.constprop.1+0x4214>
    bae8:	e599e000 	ldr	lr, [r9]
    baec:	e5991008 	ldr	r1, [r9, #8]
    baf0:	e37e0001 	cmn	lr, #1
    baf4:	e5993004 	ldr	r3, [r9, #4]
    baf8:	0a0006cd 	beq	d634 <Process_Out.constprop.1+0x3a24>
    bafc:	e3510000 	cmp	r1, #0
    bb00:	0a00092b 	beq	dfb4 <Process_Out.constprop.1+0x43a4>
    bb04:	e1a0200a 	mov	r2, sl
    bb08:	e153000e 	cmp	r3, lr
    bb0c:	e2422001 	sub	r2, r2, #1
    bb10:	b5ddc030 	ldrblt	ip, [sp, #48]	; 0x30
    bb14:	b7c1c003 	strblt	ip, [r1, r3]
    bb18:	b3a0c001 	movlt	ip, #1
    bb1c:	b083300c 	addlt	r3, r3, ip
    bb20:	e3720001 	cmn	r2, #1
    bb24:	1afffff7 	bne	bb08 <Process_Out.constprop.1+0x1ef8>
    bb28:	e35c0000 	cmp	ip, #0
    bb2c:	e28be001 	add	lr, fp, #1
    bb30:	e08eb00a 	add	fp, lr, sl
    bb34:	e58d2018 	str	r2, [sp, #24]
    bb38:	1a0006cd 	bne	d674 <Process_Out.constprop.1+0x3a64>
    bb3c:	e59d301c 	ldr	r3, [sp, #28]
    bb40:	e1500003 	cmp	r0, r3
    bb44:	e2433001 	sub	r3, r3, #1
    bb48:	e6af3073 	sxtb	r3, r3
    bb4c:	aa000014 	bge	bba4 <Process_Out.constprop.1+0x1f94>
    bb50:	e599e000 	ldr	lr, [r9]
    bb54:	e5991004 	ldr	r1, [r9, #4]
    bb58:	e37e0001 	cmn	lr, #1
    bb5c:	e599c008 	ldr	ip, [r9, #8]
    bb60:	0a000553 	beq	d0b4 <Process_Out.constprop.1+0x34a4>
    bb64:	e35c0000 	cmp	ip, #0
    bb68:	13a0a000 	movne	sl, #0
    bb6c:	0a000150 	beq	c0b4 <Process_Out.constprop.1+0x24a4>
    bb70:	e151000e 	cmp	r1, lr
    bb74:	e2432001 	sub	r2, r3, #1
    bb78:	e28bb001 	add	fp, fp, #1
    bb7c:	e6af2072 	sxtb	r2, r2
    bb80:	b3a0a030 	movlt	sl, #48	; 0x30
    bb84:	b7cca001 	strblt	sl, [ip, r1]
    bb88:	b3a0a001 	movlt	sl, #1
    bb8c:	b081100a 	addlt	r1, r1, sl
    bb90:	e1500003 	cmp	r0, r3
    bb94:	e1a03002 	mov	r3, r2
    bb98:	bafffff4 	blt	bb70 <Process_Out.constprop.1+0x1f60>
    bb9c:	e35a0000 	cmp	sl, #0
    bba0:	1a00054e 	bne	d0e0 <Process_Out.constprop.1+0x34d0>
    bba4:	e59d302c 	ldr	r3, [sp, #44]	; 0x2c
    bba8:	e3530000 	cmp	r3, #0
    bbac:	1a0003c3 	bne	cac0 <Process_Out.constprop.1+0x2eb0>
    bbb0:	e59d3008 	ldr	r3, [sp, #8]
    bbb4:	e3130040 	tst	r3, #64	; 0x40
    bbb8:	0a000008 	beq	bbe0 <Process_Out.constprop.1+0x1fd0>
    bbbc:	e3550008 	cmp	r5, #8
    bbc0:	0a0006d7 	beq	d724 <Process_Out.constprop.1+0x3b14>
    bbc4:	e3550010 	cmp	r5, #16
    bbc8:	1a000004 	bne	bbe0 <Process_Out.constprop.1+0x1fd0>
    bbcc:	e3a00030 	mov	r0, #48	; 0x30
    bbd0:	e28bb002 	add	fp, fp, #2
    bbd4:	ebfff3b9 	bl	8ac0 <Buffer_WriteChar>
    bbd8:	e3860058 	orr	r0, r6, #88	; 0x58
    bbdc:	ebfff3b7 	bl	8ac0 <Buffer_WriteChar>
    bbe0:	e599c000 	ldr	ip, [r9]
    bbe4:	e599e008 	ldr	lr, [r9, #8]
    bbe8:	e37c0001 	cmn	ip, #1
    bbec:	e5991004 	ldr	r1, [r9, #4]
    bbf0:	0a0003a0 	beq	ca78 <Process_Out.constprop.1+0x2e68>
    bbf4:	e35e0000 	cmp	lr, #0
    bbf8:	0a0006c6 	beq	d718 <Process_Out.constprop.1+0x3b08>
    bbfc:	e28d3040 	add	r3, sp, #64	; 0x40
    bc00:	e3a05000 	mov	r5, #0
    bc04:	e0832004 	add	r2, r3, r4
    bc08:	e2633001 	rsb	r3, r3, #1
    bc0c:	e151000c 	cmp	r1, ip
    bc10:	e2422001 	sub	r2, r2, #1
    bc14:	b3a05001 	movlt	r5, #1
    bc18:	b5d20001 	ldrblt	r0, [r2, #1]
    bc1c:	b7ce0001 	strblt	r0, [lr, r1]
    bc20:	e0830002 	add	r0, r3, r2
    bc24:	b0811005 	addlt	r1, r1, r5
    bc28:	e3500000 	cmp	r0, #0
    bc2c:	cafffff6 	bgt	bc0c <Process_Out.constprop.1+0x1ffc>
    bc30:	e3550000 	cmp	r5, #0
    bc34:	e28b0001 	add	r0, fp, #1
    bc38:	e0800004 	add	r0, r0, r4
    bc3c:	1a00039d 	bne	cab8 <Process_Out.constprop.1+0x2ea8>
    bc40:	e59d3018 	ldr	r3, [sp, #24]
    bc44:	e3530000 	cmp	r3, #0
    bc48:	e243c001 	sub	ip, r3, #1
    bc4c:	dafffc7a 	ble	ae3c <Process_Out.constprop.1+0x122c>
    bc50:	e599e000 	ldr	lr, [r9]
    bc54:	e5993004 	ldr	r3, [r9, #4]
    bc58:	e37e0001 	cmn	lr, #1
    bc5c:	e5991008 	ldr	r1, [r9, #8]
    bc60:	0a0004cb 	beq	cf94 <Process_Out.constprop.1+0x3384>
    bc64:	e3510000 	cmp	r1, #0
    bc68:	0a000233 	beq	c53c <Process_Out.constprop.1+0x292c>
    bc6c:	e3a04000 	mov	r4, #0
    bc70:	e1a0200c 	mov	r2, ip
    bc74:	e3a05020 	mov	r5, #32
    bc78:	e15e0003 	cmp	lr, r3
    bc7c:	e2422001 	sub	r2, r2, #1
    bc80:	c3a04001 	movgt	r4, #1
    bc84:	c7c15003 	strbgt	r5, [r1, r3]
    bc88:	c0833004 	addgt	r3, r3, r4
    bc8c:	e3720001 	cmn	r2, #1
    bc90:	1afffff8 	bne	bc78 <Process_Out.constprop.1+0x2068>
    bc94:	eafffc64 	b	ae2c <Process_Out.constprop.1+0x121c>
    bc98:	e3a03000 	mov	r3, #0
    bc9c:	e1a07005 	mov	r7, r5
    bca0:	e58d3028 	str	r3, [sp, #40]	; 0x28
    bca4:	e3a0500a 	mov	r5, #10
    bca8:	e58d3020 	str	r3, [sp, #32]
    bcac:	e3a03001 	mov	r3, #1
    bcb0:	e58d3024 	str	r3, [sp, #36]	; 0x24
    bcb4:	e59d3018 	ldr	r3, [sp, #24]
    bcb8:	e7c0601a 	bfi	r6, sl, #0, #1
    bcbc:	e58d4018 	str	r4, [sp, #24]
    bcc0:	e2832004 	add	r2, r3, #4
    bcc4:	e58d2038 	str	r2, [sp, #56]	; 0x38
    bcc8:	e59d2024 	ldr	r2, [sp, #36]	; 0x24
    bccc:	e593b000 	ldr	fp, [r3]
    bcd0:	e59d3010 	ldr	r3, [sp, #16]
    bcd4:	e7c16092 	bfi	r6, r2, #1, #1
    bcd8:	e7c26113 	bfi	r6, r3, #2, #1
    bcdc:	e59d300c 	ldr	r3, [sp, #12]
    bce0:	e7c36193 	bfi	r6, r3, #3, #1
    bce4:	e59d3008 	ldr	r3, [sp, #8]
    bce8:	e7c46213 	bfi	r6, r3, #4, #1
    bcec:	e59d3028 	ldr	r3, [sp, #40]	; 0x28
    bcf0:	e7c56293 	bfi	r6, r3, #5, #1
    bcf4:	e59d3014 	ldr	r3, [sp, #20]
    bcf8:	e7c66313 	bfi	r6, r3, #6, #1
    bcfc:	e59d3020 	ldr	r3, [sp, #32]
    bd00:	e7c76393 	bfi	r6, r3, #7, #1
    bd04:	e59d301c 	ldr	r3, [sp, #28]
    bd08:	e7cc6415 	bfi	r6, r5, #8, #5
    bd0c:	e7d76814 	bfi	r6, r4, #16, #8
    bd10:	e7df6c13 	bfi	r6, r3, #24, #8
    bd14:	e3160010 	tst	r6, #16
    bd18:	e1a0c006 	mov	ip, r6
    bd1c:	13a0a000 	movne	sl, #0
    bd20:	e7e46456 	ubfx	r6, r6, #8, #5
    bd24:	e2462008 	sub	r2, r6, #8
    bd28:	e7c0c01a 	bfi	ip, sl, #0, #1
    bd2c:	e20220f7 	and	r2, r2, #247	; 0xf7
    bd30:	e58da034 	str	sl, [sp, #52]	; 0x34
    bd34:	e3560002 	cmp	r6, #2
    bd38:	13520000 	cmpne	r2, #0
    bd3c:	e6ef307c 	uxtb	r3, ip
    bd40:	13a0500a 	movne	r5, #10
    bd44:	e3130001 	tst	r3, #1
    bd48:	03a02020 	moveq	r2, #32
    bd4c:	13a02030 	movne	r2, #48	; 0x30
    bd50:	e58d2030 	str	r2, [sp, #48]	; 0x30
    bd54:	e2132002 	ands	r2, r3, #2
    bd58:	e2036020 	and	r6, r3, #32
    bd5c:	0a000185 	beq	c378 <Process_Out.constprop.1+0x2768>
    bd60:	e35b0000 	cmp	fp, #0
    bd64:	ba00016e 	blt	c324 <Process_Out.constprop.1+0x2714>
    bd68:	e3130004 	tst	r3, #4
    bd6c:	0a0005a6 	beq	d40c <Process_Out.constprop.1+0x37fc>
    bd70:	e2443001 	sub	r3, r4, #1
    bd74:	e58d3018 	str	r3, [sp, #24]
    bd78:	e3a0302b 	mov	r3, #43	; 0x2b
    bd7c:	e58d302c 	str	r3, [sp, #44]	; 0x2c
    bd80:	e35b0000 	cmp	fp, #0
    bd84:	1a00016b 	bne	c338 <Process_Out.constprop.1+0x2728>
    bd88:	e3a03030 	mov	r3, #48	; 0x30
    bd8c:	e3a01001 	mov	r1, #1
    bd90:	e5cd3040 	strb	r3, [sp, #64]	; 0x40
    bd94:	e59d301c 	ldr	r3, [sp, #28]
    bd98:	e59d2034 	ldr	r2, [sp, #52]	; 0x34
    bd9c:	e1530001 	cmp	r3, r1
    bda0:	b6af3071 	sxtblt	r3, r1
    bda4:	b58d301c 	strlt	r3, [sp, #28]
    bda8:	e59d3008 	ldr	r3, [sp, #8]
    bdac:	e0934002 	adds	r4, r3, r2
    bdb0:	e59d3018 	ldr	r3, [sp, #24]
    bdb4:	e59d201c 	ldr	r2, [sp, #28]
    bdb8:	13a04000 	movne	r4, #0
    bdbc:	e0433002 	sub	r3, r3, r2
    bdc0:	e58d3018 	str	r3, [sp, #24]
    bdc4:	1a000018 	bne	be2c <Process_Out.constprop.1+0x221c>
    bdc8:	e3530000 	cmp	r3, #0
    bdcc:	e2432001 	sub	r2, r3, #1
    bdd0:	da0007a3 	ble	dc64 <Process_Out.constprop.1+0x4054>
    bdd4:	e8990009 	ldm	r9, {r0, r3}
    bdd8:	e599e008 	ldr	lr, [r9, #8]
    bddc:	e3700001 	cmn	r0, #1
    bde0:	e58de034 	str	lr, [sp, #52]	; 0x34
    bde4:	0a000670 	beq	d7ac <Process_Out.constprop.1+0x3b9c>
    bde8:	e35e0000 	cmp	lr, #0
    bdec:	0a000877 	beq	dfd0 <Process_Out.constprop.1+0x43c0>
    bdf0:	e1a0e004 	mov	lr, r4
    bdf4:	e3a04020 	mov	r4, #32
    bdf8:	e1530000 	cmp	r3, r0
    bdfc:	e2422001 	sub	r2, r2, #1
    be00:	b59de034 	ldrlt	lr, [sp, #52]	; 0x34
    be04:	b7ce4003 	strblt	r4, [lr, r3]
    be08:	b3a0e001 	movlt	lr, #1
    be0c:	b083300e 	addlt	r3, r3, lr
    be10:	e3720001 	cmn	r2, #1
    be14:	1afffff7 	bne	bdf8 <Process_Out.constprop.1+0x21e8>
    be18:	e35e0000 	cmp	lr, #0
    be1c:	e3e00000 	mvn	r0, #0
    be20:	1a00066f 	bne	d7e4 <Process_Out.constprop.1+0x3bd4>
    be24:	e59d4018 	ldr	r4, [sp, #24]
    be28:	e58d0018 	str	r0, [sp, #24]
    be2c:	e59d3024 	ldr	r3, [sp, #36]	; 0x24
    be30:	e7c0c01a 	bfi	ip, sl, #0, #1
    be34:	e7c1c093 	bfi	ip, r3, #1, #1
    be38:	e59d3010 	ldr	r3, [sp, #16]
    be3c:	e7c2c113 	bfi	ip, r3, #2, #1
    be40:	e59d300c 	ldr	r3, [sp, #12]
    be44:	e7c3c193 	bfi	ip, r3, #3, #1
    be48:	e59d3008 	ldr	r3, [sp, #8]
    be4c:	e7c4c213 	bfi	ip, r3, #4, #1
    be50:	e59d3028 	ldr	r3, [sp, #40]	; 0x28
    be54:	e7c5c293 	bfi	ip, r3, #5, #1
    be58:	e59d3014 	ldr	r3, [sp, #20]
    be5c:	e7c6c313 	bfi	ip, r3, #6, #1
    be60:	e59d3020 	ldr	r3, [sp, #32]
    be64:	e7c7c393 	bfi	ip, r3, #7, #1
    be68:	e6ef307c 	uxtb	r3, ip
    be6c:	e213c011 	ands	ip, r3, #17
    be70:	e58d3008 	str	r3, [sp, #8]
    be74:	1a000018 	bne	bedc <Process_Out.constprop.1+0x22cc>
    be78:	e59d3018 	ldr	r3, [sp, #24]
    be7c:	e3530000 	cmp	r3, #0
    be80:	e243a001 	sub	sl, r3, #1
    be84:	da0007d4 	ble	dddc <Process_Out.constprop.1+0x41cc>
    be88:	e599e000 	ldr	lr, [r9]
    be8c:	e5990008 	ldr	r0, [r9, #8]
    be90:	e37e0001 	cmn	lr, #1
    be94:	e5993004 	ldr	r3, [r9, #4]
    be98:	0a000666 	beq	d838 <Process_Out.constprop.1+0x3c28>
    be9c:	e3500000 	cmp	r0, #0
    bea0:	0a0007d1 	beq	ddec <Process_Out.constprop.1+0x41dc>
    bea4:	e1a0200a 	mov	r2, sl
    bea8:	e153000e 	cmp	r3, lr
    beac:	e2422001 	sub	r2, r2, #1
    beb0:	b5ddc030 	ldrblt	ip, [sp, #48]	; 0x30
    beb4:	b7c0c003 	strblt	ip, [r0, r3]
    beb8:	b3a0c001 	movlt	ip, #1
    bebc:	b083300c 	addlt	r3, r3, ip
    bec0:	e3720001 	cmn	r2, #1
    bec4:	1afffff7 	bne	bea8 <Process_Out.constprop.1+0x2298>
    bec8:	e35c0000 	cmp	ip, #0
    becc:	e284e001 	add	lr, r4, #1
    bed0:	e08a400e 	add	r4, sl, lr
    bed4:	e58d2018 	str	r2, [sp, #24]
    bed8:	1a000666 	bne	d878 <Process_Out.constprop.1+0x3c68>
    bedc:	e59d301c 	ldr	r3, [sp, #28]
    bee0:	e1510003 	cmp	r1, r3
    bee4:	e2433001 	sub	r3, r3, #1
    bee8:	e6af3073 	sxtb	r3, r3
    beec:	aa000014 	bge	bf44 <Process_Out.constprop.1+0x2334>
    bef0:	e599e000 	ldr	lr, [r9]
    bef4:	e5990004 	ldr	r0, [r9, #4]
    bef8:	e37e0001 	cmn	lr, #1
    befc:	e599c008 	ldr	ip, [r9, #8]
    bf00:	0a000433 	beq	cfd4 <Process_Out.constprop.1+0x33c4>
    bf04:	e35c0000 	cmp	ip, #0
    bf08:	13a0a000 	movne	sl, #0
    bf0c:	0a00006e 	beq	c0cc <Process_Out.constprop.1+0x24bc>
    bf10:	e150000e 	cmp	r0, lr
    bf14:	e2432001 	sub	r2, r3, #1
    bf18:	e2844001 	add	r4, r4, #1
    bf1c:	e6af2072 	sxtb	r2, r2
    bf20:	b3a0a030 	movlt	sl, #48	; 0x30
    bf24:	b7cca000 	strblt	sl, [ip, r0]
    bf28:	b3a0a001 	movlt	sl, #1
    bf2c:	b080000a 	addlt	r0, r0, sl
    bf30:	e1510003 	cmp	r1, r3
    bf34:	e1a03002 	mov	r3, r2
    bf38:	bafffff4 	blt	bf10 <Process_Out.constprop.1+0x2300>
    bf3c:	e35a0000 	cmp	sl, #0
    bf40:	1a00042e 	bne	d000 <Process_Out.constprop.1+0x33f0>
    bf44:	e59d302c 	ldr	r3, [sp, #44]	; 0x2c
    bf48:	e3530000 	cmp	r3, #0
    bf4c:	1a0001a1 	bne	c5d8 <Process_Out.constprop.1+0x29c8>
    bf50:	e59d3008 	ldr	r3, [sp, #8]
    bf54:	e3130040 	tst	r3, #64	; 0x40
    bf58:	0a000008 	beq	bf80 <Process_Out.constprop.1+0x2370>
    bf5c:	e3550008 	cmp	r5, #8
    bf60:	0a000655 	beq	d8bc <Process_Out.constprop.1+0x3cac>
    bf64:	e3550010 	cmp	r5, #16
    bf68:	1a000004 	bne	bf80 <Process_Out.constprop.1+0x2370>
    bf6c:	e3a00030 	mov	r0, #48	; 0x30
    bf70:	e2844002 	add	r4, r4, #2
    bf74:	ebfff2d1 	bl	8ac0 <Buffer_WriteChar>
    bf78:	e3860058 	orr	r0, r6, #88	; 0x58
    bf7c:	ebfff2cf 	bl	8ac0 <Buffer_WriteChar>
    bf80:	e599c000 	ldr	ip, [r9]
    bf84:	e599e008 	ldr	lr, [r9, #8]
    bf88:	e37c0001 	cmn	ip, #1
    bf8c:	e5991004 	ldr	r1, [r9, #4]
    bf90:	0a00045a 	beq	d100 <Process_Out.constprop.1+0x34f0>
    bf94:	e35e0000 	cmp	lr, #0
    bf98:	0a0005e5 	beq	d734 <Process_Out.constprop.1+0x3b24>
    bf9c:	e28d3040 	add	r3, sp, #64	; 0x40
    bfa0:	e3a05000 	mov	r5, #0
    bfa4:	e083200b 	add	r2, r3, fp
    bfa8:	e2633001 	rsb	r3, r3, #1
    bfac:	e151000c 	cmp	r1, ip
    bfb0:	e2422001 	sub	r2, r2, #1
    bfb4:	b3a05001 	movlt	r5, #1
    bfb8:	b5d20001 	ldrblt	r0, [r2, #1]
    bfbc:	b7ce0001 	strblt	r0, [lr, r1]
    bfc0:	e0830002 	add	r0, r3, r2
    bfc4:	b0811005 	addlt	r1, r1, r5
    bfc8:	e3500000 	cmp	r0, #0
    bfcc:	cafffff6 	bgt	bfac <Process_Out.constprop.1+0x239c>
    bfd0:	e3550000 	cmp	r5, #0
    bfd4:	e2840001 	add	r0, r4, #1
    bfd8:	e08b0000 	add	r0, fp, r0
    bfdc:	1a000457 	bne	d140 <Process_Out.constprop.1+0x3530>
    bfe0:	e59d3018 	ldr	r3, [sp, #24]
    bfe4:	e3530000 	cmp	r3, #0
    bfe8:	e243c001 	sub	ip, r3, #1
    bfec:	dafffb92 	ble	ae3c <Process_Out.constprop.1+0x122c>
    bff0:	e599e000 	ldr	lr, [r9]
    bff4:	e5993004 	ldr	r3, [r9, #4]
    bff8:	e37e0001 	cmn	lr, #1
    bffc:	e5991008 	ldr	r1, [r9, #8]
    c000:	0a000450 	beq	d148 <Process_Out.constprop.1+0x3538>
    c004:	e3510000 	cmp	r1, #0
    c008:	0a00014b 	beq	c53c <Process_Out.constprop.1+0x292c>
    c00c:	e3a04000 	mov	r4, #0
    c010:	e1a0200c 	mov	r2, ip
    c014:	e3a05020 	mov	r5, #32
    c018:	e15e0003 	cmp	lr, r3
    c01c:	e2422001 	sub	r2, r2, #1
    c020:	c3a04001 	movgt	r4, #1
    c024:	c7c15003 	strbgt	r5, [r1, r3]
    c028:	c0833004 	addgt	r3, r3, r4
    c02c:	e3720001 	cmn	r2, #1
    c030:	1afffff8 	bne	c018 <Process_Out.constprop.1+0x2408>
    c034:	eafffb7c 	b	ae2c <Process_Out.constprop.1+0x121c>
    c038:	e3a03000 	mov	r3, #0
    c03c:	e3a0500a 	mov	r5, #10
    c040:	e58d3028 	str	r3, [sp, #40]	; 0x28
    c044:	e58d3024 	str	r3, [sp, #36]	; 0x24
    c048:	eafffa26 	b	a8e8 <Process_Out.constprop.1+0xcd8>
    c04c:	e1a07005 	mov	r7, r5
    c050:	e59d2018 	ldr	r2, [sp, #24]
    c054:	e5923000 	ldr	r3, [r2]
    c058:	e2822004 	add	r2, r2, #4
    c05c:	e58d2018 	str	r2, [sp, #24]
    c060:	e59d2004 	ldr	r2, [sp, #4]
    c064:	e5832000 	str	r2, [r3]
    c068:	eafff70a 	b	9c98 <Process_Out.constprop.1+0x88>
    c06c:	e1500003 	cmp	r0, r3
    c070:	e2432001 	sub	r2, r3, #1
    c074:	e2866001 	add	r6, r6, #1
    c078:	e6af3072 	sxtb	r3, r2
    c07c:	bafffffa 	blt	c06c <Process_Out.constprop.1+0x245c>
    c080:	eafff954 	b	a5d8 <Process_Out.constprop.1+0x9c8>
    c084:	e1500003 	cmp	r0, r3
    c088:	e2432001 	sub	r2, r3, #1
    c08c:	e28bb001 	add	fp, fp, #1
    c090:	e6af3072 	sxtb	r3, r2
    c094:	bafffffa 	blt	c084 <Process_Out.constprop.1+0x2474>
    c098:	eafffddf 	b	b81c <Process_Out.constprop.1+0x1c0c>
    c09c:	e1510003 	cmp	r1, r3
    c0a0:	e2432001 	sub	r2, r3, #1
    c0a4:	e2844001 	add	r4, r4, #1
    c0a8:	e6af3072 	sxtb	r3, r2
    c0ac:	bafffffa 	blt	c09c <Process_Out.constprop.1+0x248c>
    c0b0:	eafffc0f 	b	b0f4 <Process_Out.constprop.1+0x14e4>
    c0b4:	e1500003 	cmp	r0, r3
    c0b8:	e2432001 	sub	r2, r3, #1
    c0bc:	e28bb001 	add	fp, fp, #1
    c0c0:	e6af3072 	sxtb	r3, r2
    c0c4:	bafffffa 	blt	c0b4 <Process_Out.constprop.1+0x24a4>
    c0c8:	eafffeb5 	b	bba4 <Process_Out.constprop.1+0x1f94>
    c0cc:	e1530001 	cmp	r3, r1
    c0d0:	e2432001 	sub	r2, r3, #1
    c0d4:	e2844001 	add	r4, r4, #1
    c0d8:	e6af3072 	sxtb	r3, r2
    c0dc:	cafffffa 	bgt	c0cc <Process_Out.constprop.1+0x24bc>
    c0e0:	eaffff97 	b	bf44 <Process_Out.constprop.1+0x2334>
    c0e4:	e1520003 	cmp	r2, r3
    c0e8:	e2431001 	sub	r1, r3, #1
    c0ec:	e2844001 	add	r4, r4, #1
    c0f0:	e6af3071 	sxtb	r3, r1
    c0f4:	bafffffa 	blt	c0e4 <Process_Out.constprop.1+0x24d4>
    c0f8:	eafffcdb 	b	b46c <Process_Out.constprop.1+0x185c>
    c0fc:	e1530000 	cmp	r3, r0
    c100:	e2432001 	sub	r2, r3, #1
    c104:	e28bb001 	add	fp, fp, #1
    c108:	e6af3072 	sxtb	r3, r2
    c10c:	cafffffa 	bgt	c0fc <Process_Out.constprop.1+0x24ec>
    c110:	eafffb09 	b	ad3c <Process_Out.constprop.1+0x112c>
    c114:	eddd7a01 	vldr	s15, [sp, #4]
    c118:	e59d2018 	ldr	r2, [sp, #24]
    c11c:	e2822004 	add	r2, r2, #4
    c120:	eef80be7 	vcvt.f64.s32	d16, s15
    c124:	e5123004 	ldr	r3, [r2, #-4]
    c128:	e58d2018 	str	r2, [sp, #24]
    c12c:	edc30b00 	vstr	d16, [r3]
    c130:	eafff6d8 	b	9c98 <Process_Out.constprop.1+0x88>
    c134:	e59d2018 	ldr	r2, [sp, #24]
    c138:	e5923000 	ldr	r3, [r2]
    c13c:	e59d1004 	ldr	r1, [sp, #4]
    c140:	e2822004 	add	r2, r2, #4
    c144:	e58d2018 	str	r2, [sp, #24]
    c148:	ee801b90 	vdup.32	d16, r1
    c14c:	f2e000b0 	vshr.s64	d16, d16, #32
    c150:	edc30b00 	vstr	d16, [r3]
    c154:	eafff6cf 	b	9c98 <Process_Out.constprop.1+0x88>
    c158:	e59d2018 	ldr	r2, [sp, #24]
    c15c:	e59d3020 	ldr	r3, [sp, #32]
    c160:	e2822004 	add	r2, r2, #4
    c164:	e3530000 	cmp	r3, #0
    c168:	e5123004 	ldr	r3, [r2, #-4]
    c16c:	e58d2018 	str	r2, [sp, #24]
    c170:	15dd2004 	ldrbne	r2, [sp, #4]
    c174:	01dd20b4 	ldrheq	r2, [sp, #4]
    c178:	15c32000 	strbne	r2, [r3]
    c17c:	01c320b0 	strheq	r2, [r3]
    c180:	eafff6c4 	b	9c98 <Process_Out.constprop.1+0x88>
    c184:	e59d3020 	ldr	r3, [sp, #32]
    c188:	e59d2018 	ldr	r2, [sp, #24]
    c18c:	e3530000 	cmp	r3, #0
    c190:	e5923000 	ldr	r3, [r2]
    c194:	0affffaf 	beq	c058 <Process_Out.constprop.1+0x2448>
    c198:	eaffffe7 	b	c13c <Process_Out.constprop.1+0x252c>
    c19c:	e3a03000 	mov	r3, #0
    c1a0:	e1a07005 	mov	r7, r5
    c1a4:	e58d3028 	str	r3, [sp, #40]	; 0x28
    c1a8:	e3a05008 	mov	r5, #8
    c1ac:	e58d3024 	str	r3, [sp, #36]	; 0x24
    c1b0:	e58d3020 	str	r3, [sp, #32]
    c1b4:	eafffebe 	b	bcb4 <Process_Out.constprop.1+0x20a4>
    c1b8:	e3a03000 	mov	r3, #0
    c1bc:	e1a07005 	mov	r7, r5
    c1c0:	e58d3028 	str	r3, [sp, #40]	; 0x28
    c1c4:	e3a05010 	mov	r5, #16
    c1c8:	e58d3024 	str	r3, [sp, #36]	; 0x24
    c1cc:	e58d3020 	str	r3, [sp, #32]
    c1d0:	eafffeb7 	b	bcb4 <Process_Out.constprop.1+0x20a4>
    c1d4:	e1a07005 	mov	r7, r5
    c1d8:	eafff9db 	b	a94c <Process_Out.constprop.1+0xd3c>
    c1dc:	e3a03000 	mov	r3, #0
    c1e0:	e1a07005 	mov	r7, r5
    c1e4:	e58d3024 	str	r3, [sp, #36]	; 0x24
    c1e8:	e3a05010 	mov	r5, #16
    c1ec:	e58d3020 	str	r3, [sp, #32]
    c1f0:	e3a03001 	mov	r3, #1
    c1f4:	e58d3028 	str	r3, [sp, #40]	; 0x28
    c1f8:	eafffead 	b	bcb4 <Process_Out.constprop.1+0x20a4>
    c1fc:	e3a03000 	mov	r3, #0
    c200:	e1a07005 	mov	r7, r5
    c204:	e58d3028 	str	r3, [sp, #40]	; 0x28
    c208:	e3a0500a 	mov	r5, #10
    c20c:	e58d3024 	str	r3, [sp, #36]	; 0x24
    c210:	e58d3020 	str	r3, [sp, #32]
    c214:	eafffea6 	b	bcb4 <Process_Out.constprop.1+0x20a4>
    c218:	e2853001 	add	r3, r5, #1
    c21c:	e1580003 	cmp	r8, r3
    c220:	9afff6a2 	bls	9cb0 <Process_Out.constprop.1+0xa0>
    c224:	e59d2000 	ldr	r2, [sp]
    c228:	e7d22003 	ldrb	r2, [r2, r3]
    c22c:	e352002a 	cmp	r2, #42	; 0x2a
    c230:	0a000015 	beq	c28c <Process_Out.constprop.1+0x267c>
    c234:	e59d2000 	ldr	r2, [sp]
    c238:	e0827005 	add	r7, r2, r5
    c23c:	e1a05003 	mov	r5, r3
    c240:	e3e03000 	mvn	r3, #0
    c244:	e1a0b003 	mov	fp, r3
    c248:	ea000003 	b	c25c <Process_Out.constprop.1+0x264c>
    c24c:	e2855001 	add	r5, r5, #1
    c250:	e6afb073 	sxtb	fp, r3
    c254:	e1580005 	cmp	r8, r5
    c258:	9afff694 	bls	9cb0 <Process_Out.constprop.1+0xa0>
    c25c:	fa00176e 	blx	1201c <__locale_ctype_ptr>
    c260:	e5f72001 	ldrb	r2, [r7, #1]!
    c264:	e1cb3fcb 	bic	r3, fp, fp, asr #31
    c268:	e0800002 	add	r0, r0, r2
    c26c:	e2421030 	sub	r1, r2, #48	; 0x30
    c270:	e0833103 	add	r3, r3, r3, lsl #2
    c274:	e5d00001 	ldrb	r0, [r0, #1]
    c278:	e0813083 	add	r3, r1, r3, lsl #1
    c27c:	e3100004 	tst	r0, #4
    c280:	1afffff1 	bne	c24c <Process_Out.constprop.1+0x263c>
    c284:	e58db01c 	str	fp, [sp, #28]
    c288:	eafff6d3 	b	9ddc <Process_Out.constprop.1+0x1cc>
    c28c:	e2855002 	add	r5, r5, #2
    c290:	e1580005 	cmp	r8, r5
    c294:	9afff685 	bls	9cb0 <Process_Out.constprop.1+0xa0>
    c298:	e59d2018 	ldr	r2, [sp, #24]
    c29c:	e2822004 	add	r2, r2, #4
    c2a0:	e15230d4 	ldrsb	r3, [r2, #-4]
    c2a4:	e58d2018 	str	r2, [sp, #24]
    c2a8:	e59d2000 	ldr	r2, [sp]
    c2ac:	e1c33fc3 	bic	r3, r3, r3, asr #31
    c2b0:	e58d301c 	str	r3, [sp, #28]
    c2b4:	e7d22005 	ldrb	r2, [r2, r5]
    c2b8:	eafff6c7 	b	9ddc <Process_Out.constprop.1+0x1cc>
    c2bc:	e3500000 	cmp	r0, #0
    c2c0:	cafff7e4 	bgt	a258 <Process_Out.constprop.1+0x648>
    c2c4:	eafff7f9 	b	a2b0 <Process_Out.constprop.1+0x6a0>
    c2c8:	e59d3024 	ldr	r3, [sp, #36]	; 0x24
    c2cc:	e2611000 	rsb	r1, r1, #0
    c2d0:	e2433001 	sub	r3, r3, #1
    c2d4:	e58d3024 	str	r3, [sp, #36]	; 0x24
    c2d8:	e3a0302d 	mov	r3, #45	; 0x2d
    c2dc:	e58d3028 	str	r3, [sp, #40]	; 0x28
    c2e0:	e3053b08 	movw	r3, #23304	; 0x5b08
    c2e4:	e3403001 	movt	r3, #1
    c2e8:	e28de03f 	add	lr, sp, #63	; 0x3f
    c2ec:	e3a04000 	mov	r4, #0
    c2f0:	ea000000 	b	c2f8 <Process_Out.constprop.1+0x26e8>
    c2f4:	e1a04000 	mov	r4, r0
    c2f8:	e712fc11 	sdiv	r2, r1, ip
    c2fc:	e2840001 	add	r0, r4, #1
    c300:	e066129c 	mls	r6, ip, r2, r1
    c304:	e2521000 	subs	r1, r2, #0
    c308:	e7d32006 	ldrb	r2, [r3, r6]
    c30c:	e1852002 	orr	r2, r5, r2
    c310:	e5ee2001 	strb	r2, [lr, #1]!
    c314:	1afffff6 	bne	c2f4 <Process_Out.constprop.1+0x26e4>
    c318:	eafff845 	b	a434 <Process_Out.constprop.1+0x824>
    c31c:	e58d2028 	str	r2, [sp, #40]	; 0x28
    c320:	eafff83d 	b	a41c <Process_Out.constprop.1+0x80c>
    c324:	e2443001 	sub	r3, r4, #1
    c328:	e26bb000 	rsb	fp, fp, #0
    c32c:	e58d3018 	str	r3, [sp, #24]
    c330:	e3a0302d 	mov	r3, #45	; 0x2d
    c334:	e58d302c 	str	r3, [sp, #44]	; 0x2c
    c338:	e3053b08 	movw	r3, #23304	; 0x5b08
    c33c:	e3403001 	movt	r3, #1
    c340:	e28de03f 	add	lr, sp, #63	; 0x3f
    c344:	e3a00000 	mov	r0, #0
    c348:	ea000000 	b	c350 <Process_Out.constprop.1+0x2740>
    c34c:	e1a00001 	mov	r0, r1
    c350:	e712f51b 	sdiv	r2, fp, r5
    c354:	e2801001 	add	r1, r0, #1
    c358:	e064b295 	mls	r4, r5, r2, fp
    c35c:	e252b000 	subs	fp, r2, #0
    c360:	e7d32004 	ldrb	r2, [r3, r4]
    c364:	e1862002 	orr	r2, r6, r2
    c368:	e5ee2001 	strb	r2, [lr, #1]!
    c36c:	1afffff6 	bne	c34c <Process_Out.constprop.1+0x273c>
    c370:	e1a0b000 	mov	fp, r0
    c374:	eafffe86 	b	bd94 <Process_Out.constprop.1+0x2184>
    c378:	e58d202c 	str	r2, [sp, #44]	; 0x2c
    c37c:	eafffe7f 	b	bd80 <Process_Out.constprop.1+0x2170>
    c380:	e2443001 	sub	r3, r4, #1
    c384:	e2611000 	rsb	r1, r1, #0
    c388:	e58d3018 	str	r3, [sp, #24]
    c38c:	e3a0302d 	mov	r3, #45	; 0x2d
    c390:	e58d302c 	str	r3, [sp, #44]	; 0x2c
    c394:	e3053b08 	movw	r3, #23304	; 0x5b08
    c398:	e3403001 	movt	r3, #1
    c39c:	e28de03f 	add	lr, sp, #63	; 0x3f
    c3a0:	e3a04000 	mov	r4, #0
    c3a4:	ea000000 	b	c3ac <Process_Out.constprop.1+0x279c>
    c3a8:	e1a04000 	mov	r4, r0
    c3ac:	e712f511 	sdiv	r2, r1, r5
    c3b0:	e2840001 	add	r0, r4, #1
    c3b4:	e06b1295 	mls	fp, r5, r2, r1
    c3b8:	e2521000 	subs	r1, r2, #0
    c3bc:	e7d3200b 	ldrb	r2, [r3, fp]
    c3c0:	e1862002 	orr	r2, r6, r2
    c3c4:	e5ee2001 	strb	r2, [lr, #1]!
    c3c8:	1afffff6 	bne	c3a8 <Process_Out.constprop.1+0x2798>
    c3cc:	eafffd88 	b	b9f4 <Process_Out.constprop.1+0x1de4>
    c3d0:	e58d202c 	str	r2, [sp, #44]	; 0x2c
    c3d4:	eafffd80 	b	b9dc <Process_Out.constprop.1+0x1dcc>
    c3d8:	e2443001 	sub	r3, r4, #1
    c3dc:	e2611000 	rsb	r1, r1, #0
    c3e0:	e58d3018 	str	r3, [sp, #24]
    c3e4:	e3a0302d 	mov	r3, #45	; 0x2d
    c3e8:	e58d302c 	str	r3, [sp, #44]	; 0x2c
    c3ec:	e3053b08 	movw	r3, #23304	; 0x5b08
    c3f0:	e3403001 	movt	r3, #1
    c3f4:	e28de03f 	add	lr, sp, #63	; 0x3f
    c3f8:	e3a04000 	mov	r4, #0
    c3fc:	ea000000 	b	c404 <Process_Out.constprop.1+0x27f4>
    c400:	e1a04000 	mov	r4, r0
    c404:	e712f511 	sdiv	r2, r1, r5
    c408:	e2840001 	add	r0, r4, #1
    c40c:	e06b1295 	mls	fp, r5, r2, r1
    c410:	e2521000 	subs	r1, r2, #0
    c414:	e7d3200b 	ldrb	r2, [r3, fp]
    c418:	e1862002 	orr	r2, r6, r2
    c41c:	e5ee2001 	strb	r2, [lr, #1]!
    c420:	1afffff6 	bne	c400 <Process_Out.constprop.1+0x27f0>
    c424:	eafffc8e 	b	b664 <Process_Out.constprop.1+0x1a54>
    c428:	e58d202c 	str	r2, [sp, #44]	; 0x2c
    c42c:	eafffc86 	b	b64c <Process_Out.constprop.1+0x1a3c>
    c430:	e2443001 	sub	r3, r4, #1
    c434:	e26bb000 	rsb	fp, fp, #0
    c438:	e58d302c 	str	r3, [sp, #44]	; 0x2c
    c43c:	e3a0302d 	mov	r3, #45	; 0x2d
    c440:	e58d3030 	str	r3, [sp, #48]	; 0x30
    c444:	e3053b08 	movw	r3, #23304	; 0x5b08
    c448:	e3403001 	movt	r3, #1
    c44c:	e28de03f 	add	lr, sp, #63	; 0x3f
    c450:	e3a00000 	mov	r0, #0
    c454:	ea000000 	b	c45c <Process_Out.constprop.1+0x284c>
    c458:	e1a00001 	mov	r0, r1
    c45c:	e712f51b 	sdiv	r2, fp, r5
    c460:	e2801001 	add	r1, r0, #1
    c464:	e064b295 	mls	r4, r5, r2, fp
    c468:	e252b000 	subs	fp, r2, #0
    c46c:	e7d32004 	ldrb	r2, [r3, r4]
    c470:	e1862002 	orr	r2, r6, r2
    c474:	e5ee2001 	strb	r2, [lr, #1]!
    c478:	1afffff6 	bne	c458 <Process_Out.constprop.1+0x2848>
    c47c:	e1a0b000 	mov	fp, r0
    c480:	eafffaad 	b	af3c <Process_Out.constprop.1+0x132c>
    c484:	e58d2030 	str	r2, [sp, #48]	; 0x30
    c488:	eafffaa6 	b	af28 <Process_Out.constprop.1+0x1318>
    c48c:	e58d300c 	str	r3, [sp, #12]
    c490:	eafffb92 	b	b2e0 <Process_Out.constprop.1+0x16d0>
    c494:	e3a0302d 	mov	r3, #45	; 0x2d
    c498:	e244a001 	sub	sl, r4, #1
    c49c:	e26bb000 	rsb	fp, fp, #0
    c4a0:	e58d300c 	str	r3, [sp, #12]
    c4a4:	e3053b08 	movw	r3, #23304	; 0x5b08
    c4a8:	e3403001 	movt	r3, #1
    c4ac:	e28dc03f 	add	ip, sp, #63	; 0x3f
    c4b0:	e3a00000 	mov	r0, #0
    c4b4:	ea000000 	b	c4bc <Process_Out.constprop.1+0x28ac>
    c4b8:	e1a00002 	mov	r0, r2
    c4bc:	e711f51b 	sdiv	r1, fp, r5
    c4c0:	e2802001 	add	r2, r0, #1
    c4c4:	e06eb195 	mls	lr, r5, r1, fp
    c4c8:	e251b000 	subs	fp, r1, #0
    c4cc:	e7d3100e 	ldrb	r1, [r3, lr]
    c4d0:	e1861001 	orr	r1, r6, r1
    c4d4:	e5ec1001 	strb	r1, [ip, #1]!
    c4d8:	1afffff6 	bne	c4b8 <Process_Out.constprop.1+0x28a8>
    c4dc:	e1a0b000 	mov	fp, r0
    c4e0:	eafffb83 	b	b2f4 <Process_Out.constprop.1+0x16e4>
    c4e4:	e58d202c 	str	r2, [sp, #44]	; 0x2c
    c4e8:	eafff9a2 	b	ab78 <Process_Out.constprop.1+0xf68>
    c4ec:	e2443001 	sub	r3, r4, #1
    c4f0:	e2611000 	rsb	r1, r1, #0
    c4f4:	e58d3018 	str	r3, [sp, #24]
    c4f8:	e3a0302d 	mov	r3, #45	; 0x2d
    c4fc:	e58d302c 	str	r3, [sp, #44]	; 0x2c
    c500:	e3053b08 	movw	r3, #23304	; 0x5b08
    c504:	e3403001 	movt	r3, #1
    c508:	e28dc03f 	add	ip, sp, #63	; 0x3f
    c50c:	e3a04000 	mov	r4, #0
    c510:	ea000000 	b	c518 <Process_Out.constprop.1+0x2908>
    c514:	e1a04000 	mov	r4, r0
    c518:	e712f511 	sdiv	r2, r1, r5
    c51c:	e2840001 	add	r0, r4, #1
    c520:	e06e1295 	mls	lr, r5, r2, r1
    c524:	e2521000 	subs	r1, r2, #0
    c528:	e7d3200e 	ldrb	r2, [r3, lr]
    c52c:	e1862002 	orr	r2, r6, r2
    c530:	e5ec2001 	strb	r2, [ip, #1]!
    c534:	1afffff6 	bne	c514 <Process_Out.constprop.1+0x2904>
    c538:	eafff994 	b	ab90 <Process_Out.constprop.1+0xf80>
    c53c:	e2800001 	add	r0, r0, #1
    c540:	e08c0000 	add	r0, ip, r0
    c544:	eafffa3c 	b	ae3c <Process_Out.constprop.1+0x122c>
    c548:	e5993000 	ldr	r3, [r9]
    c54c:	e3730001 	cmn	r3, #1
    c550:	0a000002 	beq	c560 <Process_Out.constprop.1+0x2950>
    c554:	e5992004 	ldr	r2, [r9, #4]
    c558:	e1530002 	cmp	r3, r2
    c55c:	da000006 	ble	c57c <Process_Out.constprop.1+0x296c>
    c560:	e5992008 	ldr	r2, [r9, #8]
    c564:	e3520000 	cmp	r2, #0
    c568:	15993004 	ldrne	r3, [r9, #4]
    c56c:	12831001 	addne	r1, r3, #1
    c570:	15891004 	strne	r1, [r9, #4]
    c574:	15dd1028 	ldrbne	r1, [sp, #40]	; 0x28
    c578:	17c21003 	strbne	r1, [r2, r3]
    c57c:	e2866001 	add	r6, r6, #1
    c580:	eafff817 	b	a5e4 <Process_Out.constprop.1+0x9d4>
    c584:	e59d3018 	ldr	r3, [sp, #24]
    c588:	e283b004 	add	fp, r3, #4
    c58c:	e5930000 	ldr	r0, [r3]
    c590:	fa001d82 	blx	13ba0 <wctob>
    c594:	e5991000 	ldr	r1, [r9]
    c598:	e3710001 	cmn	r1, #1
    c59c:	0a000002 	beq	c5ac <Process_Out.constprop.1+0x299c>
    c5a0:	e5993004 	ldr	r3, [r9, #4]
    c5a4:	e1510003 	cmp	r1, r3
    c5a8:	da000005 	ble	c5c4 <Process_Out.constprop.1+0x29b4>
    c5ac:	e5992008 	ldr	r2, [r9, #8]
    c5b0:	e3520000 	cmp	r2, #0
    c5b4:	15993004 	ldrne	r3, [r9, #4]
    c5b8:	1283c001 	addne	ip, r3, #1
    c5bc:	1589c004 	strne	ip, [r9, #4]
    c5c0:	17c20003 	strbne	r0, [r2, r3]
    c5c4:	e59d3004 	ldr	r3, [sp, #4]
    c5c8:	e58db018 	str	fp, [sp, #24]
    c5cc:	e2833001 	add	r3, r3, #1
    c5d0:	e58d3004 	str	r3, [sp, #4]
    c5d4:	eafff88f 	b	a818 <Process_Out.constprop.1+0xc08>
    c5d8:	e5993000 	ldr	r3, [r9]
    c5dc:	e3730001 	cmn	r3, #1
    c5e0:	0a000002 	beq	c5f0 <Process_Out.constprop.1+0x29e0>
    c5e4:	e5992004 	ldr	r2, [r9, #4]
    c5e8:	e1530002 	cmp	r3, r2
    c5ec:	da000006 	ble	c60c <Process_Out.constprop.1+0x29fc>
    c5f0:	e5992008 	ldr	r2, [r9, #8]
    c5f4:	e3520000 	cmp	r2, #0
    c5f8:	15993004 	ldrne	r3, [r9, #4]
    c5fc:	12831001 	addne	r1, r3, #1
    c600:	15891004 	strne	r1, [r9, #4]
    c604:	15dd102c 	ldrbne	r1, [sp, #44]	; 0x2c
    c608:	17c21003 	strbne	r1, [r2, r3]
    c60c:	e2844001 	add	r4, r4, #1
    c610:	eafffe4e 	b	bf50 <Process_Out.constprop.1+0x2340>
    c614:	e35c0000 	cmp	ip, #0
    c618:	108c2001 	addne	r2, ip, r1
    c61c:	13a0e030 	movne	lr, #48	; 0x30
    c620:	0a000008 	beq	c648 <Process_Out.constprop.1+0x2a38>
    c624:	e1500003 	cmp	r0, r3
    c628:	e4c2e001 	strb	lr, [r2], #1
    c62c:	e2433001 	sub	r3, r3, #1
    c630:	e2866001 	add	r6, r6, #1
    c634:	e042100c 	sub	r1, r2, ip
    c638:	e6af3073 	sxtb	r3, r3
    c63c:	bafffff8 	blt	c624 <Process_Out.constprop.1+0x2a14>
    c640:	e5891004 	str	r1, [r9, #4]
    c644:	eafff7e3 	b	a5d8 <Process_Out.constprop.1+0x9c8>
    c648:	e1500003 	cmp	r0, r3
    c64c:	e2432001 	sub	r2, r3, #1
    c650:	e2866001 	add	r6, r6, #1
    c654:	e6af3072 	sxtb	r3, r2
    c658:	bafffffa 	blt	c648 <Process_Out.constprop.1+0x2a38>
    c65c:	eafff7dd 	b	a5d8 <Process_Out.constprop.1+0x9c8>
    c660:	e3510000 	cmp	r1, #0
    c664:	0a00043b 	beq	d758 <Process_Out.constprop.1+0x3b48>
    c668:	e59d2018 	ldr	r2, [sp, #24]
    c66c:	e082c003 	add	ip, r2, r3
    c670:	e0812003 	add	r2, r1, r3
    c674:	e081100c 	add	r1, r1, ip
    c678:	e3a0c020 	mov	ip, #32
    c67c:	e4c2c001 	strb	ip, [r2], #1
    c680:	e1520001 	cmp	r2, r1
    c684:	1afffffc 	bne	c67c <Process_Out.constprop.1+0x2a6c>
    c688:	e2800001 	add	r0, r0, #1
    c68c:	e2833001 	add	r3, r3, #1
    c690:	e08e0000 	add	r0, lr, r0
    c694:	e083300e 	add	r3, r3, lr
    c698:	e5893004 	str	r3, [r9, #4]
    c69c:	eafff80c 	b	a6d4 <Process_Out.constprop.1+0xac4>
    c6a0:	e3130010 	tst	r3, #16
    c6a4:	e59d3018 	ldr	r3, [sp, #24]
    c6a8:	e7d76814 	bfi	r6, r4, #16, #8
    c6ac:	13a0a000 	movne	sl, #0
    c6b0:	e2832004 	add	r2, r3, #4
    c6b4:	e58da018 	str	sl, [sp, #24]
    c6b8:	e58d2020 	str	r2, [sp, #32]
    c6bc:	e59d201c 	ldr	r2, [sp, #28]
    c6c0:	e1d3b0d0 	ldrsb	fp, [r3]
    c6c4:	e7df6c12 	bfi	r6, r2, #24, #8
    c6c8:	e7e43456 	ubfx	r3, r6, #8, #5
    c6cc:	e1a02006 	mov	r2, r6
    c6d0:	e2431008 	sub	r1, r3, #8
    c6d4:	e7c0201a 	bfi	r2, sl, #0, #1
    c6d8:	e20110f7 	and	r1, r1, #247	; 0xf7
    c6dc:	e1a06004 	mov	r6, r4
    c6e0:	e3530002 	cmp	r3, #2
    c6e4:	13510000 	cmpne	r1, #0
    c6e8:	e6ef2072 	uxtb	r2, r2
    c6ec:	13a0500a 	movne	r5, #10
    c6f0:	e3120001 	tst	r2, #1
    c6f4:	03a03020 	moveq	r3, #32
    c6f8:	13a03030 	movne	r3, #48	; 0x30
    c6fc:	e58d3014 	str	r3, [sp, #20]
    c700:	e2123002 	ands	r3, r2, #2
    c704:	e58d2010 	str	r2, [sp, #16]
    c708:	e202a020 	and	sl, r2, #32
    c70c:	0a00037f 	beq	d510 <Process_Out.constprop.1+0x3900>
    c710:	e35b0000 	cmp	fp, #0
    c714:	ba000392 	blt	d564 <Process_Out.constprop.1+0x3954>
    c718:	e3120004 	tst	r2, #4
    c71c:	0a0005f9 	beq	df08 <Process_Out.constprop.1+0x42f8>
    c720:	e3a0302b 	mov	r3, #43	; 0x2b
    c724:	e2446001 	sub	r6, r4, #1
    c728:	e58d300c 	str	r3, [sp, #12]
    c72c:	e35b0000 	cmp	fp, #0
    c730:	1a00038f 	bne	d574 <Process_Out.constprop.1+0x3964>
    c734:	e3a03030 	mov	r3, #48	; 0x30
    c738:	e3a01001 	mov	r1, #1
    c73c:	e5cd3040 	strb	r3, [sp, #64]	; 0x40
    c740:	e59d301c 	ldr	r3, [sp, #28]
    c744:	e59d2018 	ldr	r2, [sp, #24]
    c748:	e1530001 	cmp	r3, r1
    c74c:	b6af3071 	sxtblt	r3, r1
    c750:	b58d301c 	strlt	r3, [sp, #28]
    c754:	e59d3008 	ldr	r3, [sp, #8]
    c758:	e0934002 	adds	r4, r3, r2
    c75c:	e59d301c 	ldr	r3, [sp, #28]
    c760:	13a04000 	movne	r4, #0
    c764:	e0466003 	sub	r6, r6, r3
    c768:	1a000016 	bne	c7c8 <Process_Out.constprop.1+0x2bb8>
    c76c:	e3560000 	cmp	r6, #0
    c770:	e246e001 	sub	lr, r6, #1
    c774:	da00062e 	ble	e034 <Process_Out.constprop.1+0x4424>
    c778:	e5990000 	ldr	r0, [r9]
    c77c:	e5992008 	ldr	r2, [r9, #8]
    c780:	e3700001 	cmn	r0, #1
    c784:	e5993004 	ldr	r3, [r9, #4]
    c788:	0a0005e4 	beq	df20 <Process_Out.constprop.1+0x4310>
    c78c:	e3520000 	cmp	r2, #0
    c790:	0a000625 	beq	e02c <Process_Out.constprop.1+0x441c>
    c794:	e3a0c020 	mov	ip, #32
    c798:	e1530000 	cmp	r3, r0
    c79c:	e24ee001 	sub	lr, lr, #1
    c7a0:	b3a04001 	movlt	r4, #1
    c7a4:	b7c2c003 	strblt	ip, [r2, r3]
    c7a8:	b0833004 	addlt	r3, r3, r4
    c7ac:	e37e0001 	cmn	lr, #1
    c7b0:	1afffff8 	bne	c798 <Process_Out.constprop.1+0x2b88>
    c7b4:	e3540000 	cmp	r4, #0
    c7b8:	e3e02000 	mvn	r2, #0
    c7bc:	1a0005e3 	bne	df50 <Process_Out.constprop.1+0x4340>
    c7c0:	e1a04006 	mov	r4, r6
    c7c4:	e1a06002 	mov	r6, r2
    c7c8:	e59d3010 	ldr	r3, [sp, #16]
    c7cc:	e2130011 	ands	r0, r3, #17
    c7d0:	1a000019 	bne	c83c <Process_Out.constprop.1+0x2c2c>
    c7d4:	e3560000 	cmp	r6, #0
    c7d8:	e246e001 	sub	lr, r6, #1
    c7dc:	da000610 	ble	e024 <Process_Out.constprop.1+0x4414>
    c7e0:	e5993000 	ldr	r3, [r9]
    c7e4:	e5992008 	ldr	r2, [r9, #8]
    c7e8:	e3730001 	cmn	r3, #1
    c7ec:	e58d3008 	str	r3, [sp, #8]
    c7f0:	e5993004 	ldr	r3, [r9, #4]
    c7f4:	0a00059a 	beq	de64 <Process_Out.constprop.1+0x4254>
    c7f8:	e3520000 	cmp	r2, #0
    c7fc:	0a000611 	beq	e048 <Process_Out.constprop.1+0x4438>
    c800:	e1a0c00e 	mov	ip, lr
    c804:	e59d6008 	ldr	r6, [sp, #8]
    c808:	e24cc001 	sub	ip, ip, #1
    c80c:	e1530006 	cmp	r3, r6
    c810:	b5dd0014 	ldrblt	r0, [sp, #20]
    c814:	b7c20003 	strblt	r0, [r2, r3]
    c818:	b3a00001 	movlt	r0, #1
    c81c:	b0833000 	addlt	r3, r3, r0
    c820:	e37c0001 	cmn	ip, #1
    c824:	1afffff6 	bne	c804 <Process_Out.constprop.1+0x2bf4>
    c828:	e3500000 	cmp	r0, #0
    c82c:	e2844001 	add	r4, r4, #1
    c830:	e08e4004 	add	r4, lr, r4
    c834:	e3e06000 	mvn	r6, #0
    c838:	1a000597 	bne	de9c <Process_Out.constprop.1+0x428c>
    c83c:	e59d301c 	ldr	r3, [sp, #28]
    c840:	e1510003 	cmp	r1, r3
    c844:	e2433001 	sub	r3, r3, #1
    c848:	e6af3073 	sxtb	r3, r3
    c84c:	aa000019 	bge	c8b8 <Process_Out.constprop.1+0x2ca8>
    c850:	e599c000 	ldr	ip, [r9]
    c854:	e5990004 	ldr	r0, [r9, #4]
    c858:	e37c0001 	cmn	ip, #1
    c85c:	e599e008 	ldr	lr, [r9, #8]
    c860:	0a00058f 	beq	dea4 <Process_Out.constprop.1+0x4294>
    c864:	e35e0000 	cmp	lr, #0
    c868:	13a02000 	movne	r2, #0
    c86c:	158d5014 	strne	r5, [sp, #20]
    c870:	158d2008 	strne	r2, [sp, #8]
    c874:	0a000057 	beq	c9d8 <Process_Out.constprop.1+0x2dc8>
    c878:	e150000c 	cmp	r0, ip
    c87c:	e2432001 	sub	r2, r3, #1
    c880:	e2844001 	add	r4, r4, #1
    c884:	e6af2072 	sxtb	r2, r2
    c888:	b3a05030 	movlt	r5, #48	; 0x30
    c88c:	b7ce5000 	strblt	r5, [lr, r0]
    c890:	b3a05001 	movlt	r5, #1
    c894:	b58d5008 	strlt	r5, [sp, #8]
    c898:	b0800005 	addlt	r0, r0, r5
    c89c:	e1510003 	cmp	r1, r3
    c8a0:	e1a03002 	mov	r3, r2
    c8a4:	bafffff3 	blt	c878 <Process_Out.constprop.1+0x2c68>
    c8a8:	e59d3008 	ldr	r3, [sp, #8]
    c8ac:	e59d5014 	ldr	r5, [sp, #20]
    c8b0:	e3530000 	cmp	r3, #0
    c8b4:	1a000585 	bne	ded0 <Process_Out.constprop.1+0x42c0>
    c8b8:	e59d300c 	ldr	r3, [sp, #12]
    c8bc:	e3530000 	cmp	r3, #0
    c8c0:	0a000002 	beq	c8d0 <Process_Out.constprop.1+0x2cc0>
    c8c4:	e1a00003 	mov	r0, r3
    c8c8:	e2844001 	add	r4, r4, #1
    c8cc:	ebfff07b 	bl	8ac0 <Buffer_WriteChar>
    c8d0:	e59d3010 	ldr	r3, [sp, #16]
    c8d4:	e3130040 	tst	r3, #64	; 0x40
    c8d8:	0a000008 	beq	c900 <Process_Out.constprop.1+0x2cf0>
    c8dc:	e3550008 	cmp	r5, #8
    c8e0:	0a00055b 	beq	de54 <Process_Out.constprop.1+0x4244>
    c8e4:	e3550010 	cmp	r5, #16
    c8e8:	1a000004 	bne	c900 <Process_Out.constprop.1+0x2cf0>
    c8ec:	e3a00030 	mov	r0, #48	; 0x30
    c8f0:	e2844002 	add	r4, r4, #2
    c8f4:	ebfff071 	bl	8ac0 <Buffer_WriteChar>
    c8f8:	e38a0058 	orr	r0, sl, #88	; 0x58
    c8fc:	ebfff06f 	bl	8ac0 <Buffer_WriteChar>
    c900:	e599c000 	ldr	ip, [r9]
    c904:	e5991004 	ldr	r1, [r9, #4]
    c908:	e37c0001 	cmn	ip, #1
    c90c:	e599e008 	ldr	lr, [r9, #8]
    c910:	0a000468 	beq	dab8 <Process_Out.constprop.1+0x3ea8>
    c914:	e35e0000 	cmp	lr, #0
    c918:	0a0005c7 	beq	e03c <Process_Out.constprop.1+0x442c>
    c91c:	e28d3040 	add	r3, sp, #64	; 0x40
    c920:	e3a05000 	mov	r5, #0
    c924:	e083200b 	add	r2, r3, fp
    c928:	e2633001 	rsb	r3, r3, #1
    c92c:	e151000c 	cmp	r1, ip
    c930:	e2422001 	sub	r2, r2, #1
    c934:	b3a05001 	movlt	r5, #1
    c938:	b5d20001 	ldrblt	r0, [r2, #1]
    c93c:	b7ce0001 	strblt	r0, [lr, r1]
    c940:	e0830002 	add	r0, r3, r2
    c944:	b0811005 	addlt	r1, r1, r5
    c948:	e3500000 	cmp	r0, #0
    c94c:	cafffff6 	bgt	c92c <Process_Out.constprop.1+0x2d1c>
    c950:	e3550000 	cmp	r5, #0
    c954:	e2843001 	add	r3, r4, #1
    c958:	e083300b 	add	r3, r3, fp
    c95c:	1a000465 	bne	daf8 <Process_Out.constprop.1+0x3ee8>
    c960:	e3560000 	cmp	r6, #0
    c964:	e246c001 	sub	ip, r6, #1
    c968:	da000014 	ble	c9c0 <Process_Out.constprop.1+0x2db0>
    c96c:	e599e000 	ldr	lr, [r9]
    c970:	e5990008 	ldr	r0, [r9, #8]
    c974:	e37e0001 	cmn	lr, #1
    c978:	e5992004 	ldr	r2, [r9, #4]
    c97c:	0a0004d5 	beq	dcd8 <Process_Out.constprop.1+0x40c8>
    c980:	e3500000 	cmp	r0, #0
    c984:	0a0005bf 	beq	e088 <Process_Out.constprop.1+0x4478>
    c988:	e3a04000 	mov	r4, #0
    c98c:	e1a0100c 	mov	r1, ip
    c990:	e3a05020 	mov	r5, #32
    c994:	e152000e 	cmp	r2, lr
    c998:	e2411001 	sub	r1, r1, #1
    c99c:	b3a04001 	movlt	r4, #1
    c9a0:	b7c05002 	strblt	r5, [r0, r2]
    c9a4:	b0822004 	addlt	r2, r2, r4
    c9a8:	e3710001 	cmn	r1, #1
    c9ac:	1afffff8 	bne	c994 <Process_Out.constprop.1+0x2d84>
    c9b0:	e3540000 	cmp	r4, #0
    c9b4:	e2833001 	add	r3, r3, #1
    c9b8:	e08c3003 	add	r3, ip, r3
    c9bc:	1a0004d2 	bne	dd0c <Process_Out.constprop.1+0x40fc>
    c9c0:	e59d2004 	ldr	r2, [sp, #4]
    c9c4:	e0823003 	add	r3, r2, r3
    c9c8:	e58d3004 	str	r3, [sp, #4]
    c9cc:	e59d3020 	ldr	r3, [sp, #32]
    c9d0:	e58d3018 	str	r3, [sp, #24]
    c9d4:	eafff4af 	b	9c98 <Process_Out.constprop.1+0x88>
    c9d8:	e1510003 	cmp	r1, r3
    c9dc:	e2432001 	sub	r2, r3, #1
    c9e0:	e2844001 	add	r4, r4, #1
    c9e4:	e6af3072 	sxtb	r3, r2
    c9e8:	bafffffa 	blt	c9d8 <Process_Out.constprop.1+0x2dc8>
    c9ec:	eaffffb1 	b	c8b8 <Process_Out.constprop.1+0x2ca8>
    c9f0:	e3500000 	cmp	r0, #0
    c9f4:	c1a0400e 	movgt	r4, lr
    c9f8:	cafff616 	bgt	a258 <Process_Out.constprop.1+0x648>
    c9fc:	eafff64b 	b	a330 <Process_Out.constprop.1+0x720>
    ca00:	e59d3018 	ldr	r3, [sp, #24]
    ca04:	e3080ac0 	movw	r0, #35520	; 0x8ac0
    ca08:	e3400000 	movt	r0, #0
    ca0c:	e283b007 	add	fp, r3, #7
    ca10:	e3cb3007 	bic	r3, fp, #7
    ca14:	e2832008 	add	r2, r3, #8
    ca18:	e58d2018 	str	r2, [sp, #24]
    ca1c:	ed930b00 	vldr	d0, [r3]
    ca20:	ebfff035 	bl	8afc <NumStr>
    ca24:	e59d3004 	ldr	r3, [sp, #4]
    ca28:	e0833000 	add	r3, r3, r0
    ca2c:	e58d3004 	str	r3, [sp, #4]
    ca30:	eafff498 	b	9c98 <Process_Out.constprop.1+0x88>
    ca34:	e3510000 	cmp	r1, #0
    ca38:	0a0004f0 	beq	de00 <Process_Out.constprop.1+0x41f0>
    ca3c:	e59d3004 	ldr	r3, [sp, #4]
    ca40:	e0811002 	add	r1, r1, r2
    ca44:	e042c005 	sub	ip, r2, r5
    ca48:	e043e005 	sub	lr, r3, r5
    ca4c:	e3a03000 	mov	r3, #0
    ca50:	e2833001 	add	r3, r3, #1
    ca54:	e4d52001 	ldrb	r2, [r5], #1
    ca58:	e1500003 	cmp	r0, r3
    ca5c:	e4c12001 	strb	r2, [r1], #1
    ca60:	e08e6005 	add	r6, lr, r5
    ca64:	e08c2005 	add	r2, ip, r5
    ca68:	cafffff8 	bgt	ca50 <Process_Out.constprop.1+0x2e40>
    ca6c:	e58d6004 	str	r6, [sp, #4]
    ca70:	e5892004 	str	r2, [r9, #4]
    ca74:	eafff60d 	b	a2b0 <Process_Out.constprop.1+0x6a0>
    ca78:	e35e0000 	cmp	lr, #0
    ca7c:	0a000325 	beq	d718 <Process_Out.constprop.1+0x3b08>
    ca80:	e28d3040 	add	r3, sp, #64	; 0x40
    ca84:	e2842001 	add	r2, r4, #1
    ca88:	e2410001 	sub	r0, r1, #1
    ca8c:	e0832002 	add	r2, r3, r2
    ca90:	e08ee000 	add	lr, lr, r0
    ca94:	e572c001 	ldrb	ip, [r2, #-1]!
    ca98:	e0420003 	sub	r0, r2, r3
    ca9c:	e5eec001 	strb	ip, [lr, #1]!
    caa0:	e3500000 	cmp	r0, #0
    caa4:	cafffffa 	bgt	ca94 <Process_Out.constprop.1+0x2e84>
    caa8:	e28b0001 	add	r0, fp, #1
    caac:	e2811001 	add	r1, r1, #1
    cab0:	e0800004 	add	r0, r0, r4
    cab4:	e0811004 	add	r1, r1, r4
    cab8:	e5891004 	str	r1, [r9, #4]
    cabc:	eafffc5f 	b	bc40 <Process_Out.constprop.1+0x2030>
    cac0:	e5993000 	ldr	r3, [r9]
    cac4:	e3730001 	cmn	r3, #1
    cac8:	0a000002 	beq	cad8 <Process_Out.constprop.1+0x2ec8>
    cacc:	e5992004 	ldr	r2, [r9, #4]
    cad0:	e1530002 	cmp	r3, r2
    cad4:	da000006 	ble	caf4 <Process_Out.constprop.1+0x2ee4>
    cad8:	e5992008 	ldr	r2, [r9, #8]
    cadc:	e3520000 	cmp	r2, #0
    cae0:	15993004 	ldrne	r3, [r9, #4]
    cae4:	12831001 	addne	r1, r3, #1
    cae8:	15891004 	strne	r1, [r9, #4]
    caec:	15dd102c 	ldrbne	r1, [sp, #44]	; 0x2c
    caf0:	17c21003 	strbne	r1, [r2, r3]
    caf4:	e28bb001 	add	fp, fp, #1
    caf8:	eafffc2c 	b	bbb0 <Process_Out.constprop.1+0x1fa0>
    cafc:	e59d3018 	ldr	r3, [sp, #24]
    cb00:	e3120010 	tst	r2, #16
    cb04:	e7cc6415 	bfi	r6, r5, #8, #5
    cb08:	13a0a000 	movne	sl, #0
    cb0c:	e2833007 	add	r3, r3, #7
    cb10:	e7d76814 	bfi	r6, r4, #16, #8
    cb14:	e3c33007 	bic	r3, r3, #7
    cb18:	e58da03c 	str	sl, [sp, #60]	; 0x3c
    cb1c:	e2832008 	add	r2, r3, #8
    cb20:	e58d402c 	str	r4, [sp, #44]	; 0x2c
    cb24:	e58d2018 	str	r2, [sp, #24]
    cb28:	e59d201c 	ldr	r2, [sp, #28]
    cb2c:	e5931000 	ldr	r1, [r3]
    cb30:	e7df6c12 	bfi	r6, r2, #24, #8
    cb34:	e1a0b006 	mov	fp, r6
    cb38:	e7e46456 	ubfx	r6, r6, #8, #5
    cb3c:	e7c0b01a 	bfi	fp, sl, #0, #1
    cb40:	e2462008 	sub	r2, r6, #8
    cb44:	e20220f7 	and	r2, r2, #247	; 0xf7
    cb48:	e6ef307b 	uxtb	r3, fp
    cb4c:	e3560002 	cmp	r6, #2
    cb50:	13520000 	cmpne	r2, #0
    cb54:	13a0500a 	movne	r5, #10
    cb58:	e2032020 	and	r2, r3, #32
    cb5c:	e3130001 	tst	r3, #1
    cb60:	e58d2034 	str	r2, [sp, #52]	; 0x34
    cb64:	03a02020 	moveq	r2, #32
    cb68:	13a02030 	movne	r2, #48	; 0x30
    cb6c:	e58d2038 	str	r2, [sp, #56]	; 0x38
    cb70:	e2132002 	ands	r2, r3, #2
    cb74:	0a0002d0 	beq	d6bc <Process_Out.constprop.1+0x3aac>
    cb78:	e3510000 	cmp	r1, #0
    cb7c:	ba0002d0 	blt	d6c4 <Process_Out.constprop.1+0x3ab4>
    cb80:	e3130004 	tst	r3, #4
    cb84:	0a00042a 	beq	dc34 <Process_Out.constprop.1+0x4024>
    cb88:	e2443001 	sub	r3, r4, #1
    cb8c:	e58d302c 	str	r3, [sp, #44]	; 0x2c
    cb90:	e3a0302b 	mov	r3, #43	; 0x2b
    cb94:	e58d3030 	str	r3, [sp, #48]	; 0x30
    cb98:	e3510000 	cmp	r1, #0
    cb9c:	1a0002cd 	bne	d6d8 <Process_Out.constprop.1+0x3ac8>
    cba0:	e3a03030 	mov	r3, #48	; 0x30
    cba4:	e1a04001 	mov	r4, r1
    cba8:	e3a0e001 	mov	lr, #1
    cbac:	e5cd3040 	strb	r3, [sp, #64]	; 0x40
    cbb0:	e59d301c 	ldr	r3, [sp, #28]
    cbb4:	e59d203c 	ldr	r2, [sp, #60]	; 0x3c
    cbb8:	e153000e 	cmp	r3, lr
    cbbc:	b6af307e 	sxtblt	r3, lr
    cbc0:	b58d301c 	strlt	r3, [sp, #28]
    cbc4:	e59d3008 	ldr	r3, [sp, #8]
    cbc8:	e0936002 	adds	r6, r3, r2
    cbcc:	e59d302c 	ldr	r3, [sp, #44]	; 0x2c
    cbd0:	e59d201c 	ldr	r2, [sp, #28]
    cbd4:	13a06000 	movne	r6, #0
    cbd8:	e0433002 	sub	r3, r3, r2
    cbdc:	e58d302c 	str	r3, [sp, #44]	; 0x2c
    cbe0:	1a000016 	bne	cc40 <Process_Out.constprop.1+0x3030>
    cbe4:	e3530000 	cmp	r3, #0
    cbe8:	e243c001 	sub	ip, r3, #1
    cbec:	da00052a 	ble	e09c <Process_Out.constprop.1+0x448c>
    cbf0:	e5993000 	ldr	r3, [r9]
    cbf4:	e5991008 	ldr	r1, [r9, #8]
    cbf8:	e3730001 	cmn	r3, #1
    cbfc:	e5990004 	ldr	r0, [r9, #4]
    cc00:	0a00041b 	beq	dc74 <Process_Out.constprop.1+0x4064>
    cc04:	e3510000 	cmp	r1, #0
    cc08:	0a000525 	beq	e0a4 <Process_Out.constprop.1+0x4494>
    cc0c:	e3a02020 	mov	r2, #32
    cc10:	e1500003 	cmp	r0, r3
    cc14:	e24cc001 	sub	ip, ip, #1
    cc18:	b3a06001 	movlt	r6, #1
    cc1c:	b7c12000 	strblt	r2, [r1, r0]
    cc20:	b0800006 	addlt	r0, r0, r6
    cc24:	e37c0001 	cmn	ip, #1
    cc28:	1afffff8 	bne	cc10 <Process_Out.constprop.1+0x3000>
    cc2c:	e3560000 	cmp	r6, #0
    cc30:	e3e03000 	mvn	r3, #0
    cc34:	1a00041b 	bne	dca8 <Process_Out.constprop.1+0x4098>
    cc38:	e59d602c 	ldr	r6, [sp, #44]	; 0x2c
    cc3c:	e58d302c 	str	r3, [sp, #44]	; 0x2c
    cc40:	e59d3024 	ldr	r3, [sp, #36]	; 0x24
    cc44:	e7c0b01a 	bfi	fp, sl, #0, #1
    cc48:	e7c1b093 	bfi	fp, r3, #1, #1
    cc4c:	e59d3010 	ldr	r3, [sp, #16]
    cc50:	e7c2b113 	bfi	fp, r3, #2, #1
    cc54:	e59d300c 	ldr	r3, [sp, #12]
    cc58:	e7c3b193 	bfi	fp, r3, #3, #1
    cc5c:	e59d3008 	ldr	r3, [sp, #8]
    cc60:	e7c4b213 	bfi	fp, r3, #4, #1
    cc64:	e59d3028 	ldr	r3, [sp, #40]	; 0x28
    cc68:	e7c5b293 	bfi	fp, r3, #5, #1
    cc6c:	e59d3014 	ldr	r3, [sp, #20]
    cc70:	e7c6b313 	bfi	fp, r3, #6, #1
    cc74:	e59d3020 	ldr	r3, [sp, #32]
    cc78:	e7c7b393 	bfi	fp, r3, #7, #1
    cc7c:	e6efb07b 	uxtb	fp, fp
    cc80:	e21b1010 	ands	r1, fp, #16
    cc84:	1a000019 	bne	ccf0 <Process_Out.constprop.1+0x30e0>
    cc88:	e59d302c 	ldr	r3, [sp, #44]	; 0x2c
    cc8c:	e3530000 	cmp	r3, #0
    cc90:	e243c001 	sub	ip, r3, #1
    cc94:	da0004fe 	ble	e094 <Process_Out.constprop.1+0x4484>
    cc98:	e599a000 	ldr	sl, [r9]
    cc9c:	e5992008 	ldr	r2, [r9, #8]
    cca0:	e37a0001 	cmn	sl, #1
    cca4:	e5993004 	ldr	r3, [r9, #4]
    cca8:	0a000419 	beq	dd14 <Process_Out.constprop.1+0x4104>
    ccac:	e3520000 	cmp	r2, #0
    ccb0:	0a0004e8 	beq	e058 <Process_Out.constprop.1+0x4448>
    ccb4:	e1a0000c 	mov	r0, ip
    ccb8:	e153000a 	cmp	r3, sl
    ccbc:	e2400001 	sub	r0, r0, #1
    ccc0:	b5dd1038 	ldrblt	r1, [sp, #56]	; 0x38
    ccc4:	b7c21003 	strblt	r1, [r2, r3]
    ccc8:	b3a01001 	movlt	r1, #1
    cccc:	b0833001 	addlt	r3, r3, r1
    ccd0:	e3700001 	cmn	r0, #1
    ccd4:	1afffff7 	bne	ccb8 <Process_Out.constprop.1+0x30a8>
    ccd8:	e3510000 	cmp	r1, #0
    ccdc:	e3e02000 	mvn	r2, #0
    cce0:	e2866001 	add	r6, r6, #1
    cce4:	e08c6006 	add	r6, ip, r6
    cce8:	e58d202c 	str	r2, [sp, #44]	; 0x2c
    ccec:	1a000418 	bne	dd54 <Process_Out.constprop.1+0x4144>
    ccf0:	e59d301c 	ldr	r3, [sp, #28]
    ccf4:	e15e0003 	cmp	lr, r3
    ccf8:	e2433001 	sub	r3, r3, #1
    ccfc:	e6af3073 	sxtb	r3, r3
    cd00:	aa000013 	bge	cd54 <Process_Out.constprop.1+0x3144>
    cd04:	e8990003 	ldm	r9, {r0, r1}
    cd08:	e599a008 	ldr	sl, [r9, #8]
    cd0c:	e3700001 	cmn	r0, #1
    cd10:	0a000411 	beq	dd5c <Process_Out.constprop.1+0x414c>
    cd14:	e35a0000 	cmp	sl, #0
    cd18:	13a0c000 	movne	ip, #0
    cd1c:	0a000053 	beq	ce70 <Process_Out.constprop.1+0x3260>
    cd20:	e1510000 	cmp	r1, r0
    cd24:	e2432001 	sub	r2, r3, #1
    cd28:	e2866001 	add	r6, r6, #1
    cd2c:	e6af2072 	sxtb	r2, r2
    cd30:	b3a0c030 	movlt	ip, #48	; 0x30
    cd34:	b7cac001 	strblt	ip, [sl, r1]
    cd38:	b3a0c001 	movlt	ip, #1
    cd3c:	b081100c 	addlt	r1, r1, ip
    cd40:	e15e0003 	cmp	lr, r3
    cd44:	e1a03002 	mov	r3, r2
    cd48:	bafffff4 	blt	cd20 <Process_Out.constprop.1+0x3110>
    cd4c:	e35c0000 	cmp	ip, #0
    cd50:	1a00040c 	bne	dd88 <Process_Out.constprop.1+0x4178>
    cd54:	e59d3030 	ldr	r3, [sp, #48]	; 0x30
    cd58:	e3530000 	cmp	r3, #0
    cd5c:	0a000002 	beq	cd6c <Process_Out.constprop.1+0x315c>
    cd60:	e1a00003 	mov	r0, r3
    cd64:	e2866001 	add	r6, r6, #1
    cd68:	ebffef54 	bl	8ac0 <Buffer_WriteChar>
    cd6c:	e31b0040 	tst	fp, #64	; 0x40
    cd70:	0a000009 	beq	cd9c <Process_Out.constprop.1+0x318c>
    cd74:	e3550008 	cmp	r5, #8
    cd78:	0a0003d0 	beq	dcc0 <Process_Out.constprop.1+0x40b0>
    cd7c:	e3550010 	cmp	r5, #16
    cd80:	1a000005 	bne	cd9c <Process_Out.constprop.1+0x318c>
    cd84:	e3a00030 	mov	r0, #48	; 0x30
    cd88:	e2866002 	add	r6, r6, #2
    cd8c:	ebffef4b 	bl	8ac0 <Buffer_WriteChar>
    cd90:	e59d3034 	ldr	r3, [sp, #52]	; 0x34
    cd94:	e3830058 	orr	r0, r3, #88	; 0x58
    cd98:	ebffef48 	bl	8ac0 <Buffer_WriteChar>
    cd9c:	e599c000 	ldr	ip, [r9]
    cda0:	e5991004 	ldr	r1, [r9, #4]
    cda4:	e37c0001 	cmn	ip, #1
    cda8:	e599e008 	ldr	lr, [r9, #8]
    cdac:	0a000317 	beq	da10 <Process_Out.constprop.1+0x3e00>
    cdb0:	e35e0000 	cmp	lr, #0
    cdb4:	0a000497 	beq	e018 <Process_Out.constprop.1+0x4408>
    cdb8:	e28d3040 	add	r3, sp, #64	; 0x40
    cdbc:	e3a05000 	mov	r5, #0
    cdc0:	e0832004 	add	r2, r3, r4
    cdc4:	e2633001 	rsb	r3, r3, #1
    cdc8:	e151000c 	cmp	r1, ip
    cdcc:	e2422001 	sub	r2, r2, #1
    cdd0:	b3a05001 	movlt	r5, #1
    cdd4:	b5d20001 	ldrblt	r0, [r2, #1]
    cdd8:	b7ce0001 	strblt	r0, [lr, r1]
    cddc:	e0830002 	add	r0, r3, r2
    cde0:	b0811005 	addlt	r1, r1, r5
    cde4:	e3500000 	cmp	r0, #0
    cde8:	cafffff6 	bgt	cdc8 <Process_Out.constprop.1+0x31b8>
    cdec:	e3550000 	cmp	r5, #0
    cdf0:	e2863001 	add	r3, r6, #1
    cdf4:	e0843003 	add	r3, r4, r3
    cdf8:	1a000314 	bne	da50 <Process_Out.constprop.1+0x3e40>
    cdfc:	e59d202c 	ldr	r2, [sp, #44]	; 0x2c
    ce00:	e3520000 	cmp	r2, #0
    ce04:	e242c001 	sub	ip, r2, #1
    ce08:	da000014 	ble	ce60 <Process_Out.constprop.1+0x3250>
    ce0c:	e599e000 	ldr	lr, [r9]
    ce10:	e5990008 	ldr	r0, [r9, #8]
    ce14:	e37e0001 	cmn	lr, #1
    ce18:	e5992004 	ldr	r2, [r9, #4]
    ce1c:	0a000454 	beq	df74 <Process_Out.constprop.1+0x4364>
    ce20:	e3500000 	cmp	r0, #0
    ce24:	0a000478 	beq	e00c <Process_Out.constprop.1+0x43fc>
    ce28:	e3a04000 	mov	r4, #0
    ce2c:	e1a0100c 	mov	r1, ip
    ce30:	e3a05020 	mov	r5, #32
    ce34:	e152000e 	cmp	r2, lr
    ce38:	e2411001 	sub	r1, r1, #1
    ce3c:	b3a04001 	movlt	r4, #1
    ce40:	b7c05002 	strblt	r5, [r0, r2]
    ce44:	b0822004 	addlt	r2, r2, r4
    ce48:	e3710001 	cmn	r1, #1
    ce4c:	1afffff8 	bne	ce34 <Process_Out.constprop.1+0x3224>
    ce50:	e3540000 	cmp	r4, #0
    ce54:	e2833001 	add	r3, r3, #1
    ce58:	e08c3003 	add	r3, ip, r3
    ce5c:	1a000452 	bne	dfac <Process_Out.constprop.1+0x439c>
    ce60:	e59d2004 	ldr	r2, [sp, #4]
    ce64:	e0823003 	add	r3, r2, r3
    ce68:	e58d3004 	str	r3, [sp, #4]
    ce6c:	eafff389 	b	9c98 <Process_Out.constprop.1+0x88>
    ce70:	e153000e 	cmp	r3, lr
    ce74:	e2432001 	sub	r2, r3, #1
    ce78:	e2866001 	add	r6, r6, #1
    ce7c:	e6af3072 	sxtb	r3, r2
    ce80:	cafffffa 	bgt	ce70 <Process_Out.constprop.1+0x3260>
    ce84:	eaffffb2 	b	cd54 <Process_Out.constprop.1+0x3144>
    ce88:	e5993000 	ldr	r3, [r9]
    ce8c:	e3730001 	cmn	r3, #1
    ce90:	0a000002 	beq	cea0 <Process_Out.constprop.1+0x3290>
    ce94:	e5992004 	ldr	r2, [r9, #4]
    ce98:	e1530002 	cmp	r3, r2
    ce9c:	da000006 	ble	cebc <Process_Out.constprop.1+0x32ac>
    cea0:	e5992008 	ldr	r2, [r9, #8]
    cea4:	e3520000 	cmp	r2, #0
    cea8:	15993004 	ldrne	r3, [r9, #4]
    ceac:	12831001 	addne	r1, r3, #1
    ceb0:	15891004 	strne	r1, [r9, #4]
    ceb4:	15dd102c 	ldrbne	r1, [sp, #44]	; 0x2c
    ceb8:	17c21003 	strbne	r1, [r2, r3]
    cebc:	e28bb001 	add	fp, fp, #1
    cec0:	eafffa58 	b	b828 <Process_Out.constprop.1+0x1c18>
    cec4:	e35e0000 	cmp	lr, #0
    cec8:	0a0001d6 	beq	d628 <Process_Out.constprop.1+0x3a18>
    cecc:	e28d3040 	add	r3, sp, #64	; 0x40
    ced0:	e2842001 	add	r2, r4, #1
    ced4:	e2410001 	sub	r0, r1, #1
    ced8:	e0832002 	add	r2, r3, r2
    cedc:	e08ee000 	add	lr, lr, r0
    cee0:	e572c001 	ldrb	ip, [r2, #-1]!
    cee4:	e0420003 	sub	r0, r2, r3
    cee8:	e5eec001 	strb	ip, [lr, #1]!
    ceec:	e3500000 	cmp	r0, #0
    cef0:	cafffffa 	bgt	cee0 <Process_Out.constprop.1+0x32d0>
    cef4:	e28b0001 	add	r0, fp, #1
    cef8:	e2811001 	add	r1, r1, #1
    cefc:	e0800004 	add	r0, r0, r4
    cf00:	e0811004 	add	r1, r1, r4
    cf04:	e5891004 	str	r1, [r9, #4]
    cf08:	eafffa6a 	b	b8b8 <Process_Out.constprop.1+0x1ca8>
    cf0c:	e5993000 	ldr	r3, [r9]
    cf10:	e3730001 	cmn	r3, #1
    cf14:	0a000002 	beq	cf24 <Process_Out.constprop.1+0x3314>
    cf18:	e5992004 	ldr	r2, [r9, #4]
    cf1c:	e1530002 	cmp	r3, r2
    cf20:	da000006 	ble	cf40 <Process_Out.constprop.1+0x3330>
    cf24:	e5992008 	ldr	r2, [r9, #8]
    cf28:	e3520000 	cmp	r2, #0
    cf2c:	15993004 	ldrne	r3, [r9, #4]
    cf30:	12831001 	addne	r1, r3, #1
    cf34:	15891004 	strne	r1, [r9, #4]
    cf38:	15dd1030 	ldrbne	r1, [sp, #48]	; 0x30
    cf3c:	17c21003 	strbne	r1, [r2, r3]
    cf40:	e2844001 	add	r4, r4, #1
    cf44:	eafff86d 	b	b100 <Process_Out.constprop.1+0x14f0>
    cf48:	e35c0000 	cmp	ip, #0
    cf4c:	108c2001 	addne	r2, ip, r1
    cf50:	13a0e030 	movne	lr, #48	; 0x30
    cf54:	0a000008 	beq	cf7c <Process_Out.constprop.1+0x336c>
    cf58:	e1500003 	cmp	r0, r3
    cf5c:	e4c2e001 	strb	lr, [r2], #1
    cf60:	e2433001 	sub	r3, r3, #1
    cf64:	e28bb001 	add	fp, fp, #1
    cf68:	e042100c 	sub	r1, r2, ip
    cf6c:	e6af3073 	sxtb	r3, r3
    cf70:	bafffff8 	blt	cf58 <Process_Out.constprop.1+0x3348>
    cf74:	e5891004 	str	r1, [r9, #4]
    cf78:	eafffa27 	b	b81c <Process_Out.constprop.1+0x1c0c>
    cf7c:	e1500003 	cmp	r0, r3
    cf80:	e2432001 	sub	r2, r3, #1
    cf84:	e28bb001 	add	fp, fp, #1
    cf88:	e6af3072 	sxtb	r3, r2
    cf8c:	bafffffa 	blt	cf7c <Process_Out.constprop.1+0x336c>
    cf90:	eafffa21 	b	b81c <Process_Out.constprop.1+0x1c0c>
    cf94:	e3510000 	cmp	r1, #0
    cf98:	0afffd67 	beq	c53c <Process_Out.constprop.1+0x292c>
    cf9c:	e59d2018 	ldr	r2, [sp, #24]
    cfa0:	e082e003 	add	lr, r2, r3
    cfa4:	e0812003 	add	r2, r1, r3
    cfa8:	e081100e 	add	r1, r1, lr
    cfac:	e3a0e020 	mov	lr, #32
    cfb0:	e4c2e001 	strb	lr, [r2], #1
    cfb4:	e1520001 	cmp	r2, r1
    cfb8:	1afffffc 	bne	cfb0 <Process_Out.constprop.1+0x33a0>
    cfbc:	e2800001 	add	r0, r0, #1
    cfc0:	e2833001 	add	r3, r3, #1
    cfc4:	e08c0000 	add	r0, ip, r0
    cfc8:	e083300c 	add	r3, r3, ip
    cfcc:	e5893004 	str	r3, [r9, #4]
    cfd0:	eafff799 	b	ae3c <Process_Out.constprop.1+0x122c>
    cfd4:	e35c0000 	cmp	ip, #0
    cfd8:	108c2000 	addne	r2, ip, r0
    cfdc:	13a0e030 	movne	lr, #48	; 0x30
    cfe0:	0a000008 	beq	d008 <Process_Out.constprop.1+0x33f8>
    cfe4:	e1510003 	cmp	r1, r3
    cfe8:	e4c2e001 	strb	lr, [r2], #1
    cfec:	e2433001 	sub	r3, r3, #1
    cff0:	e2844001 	add	r4, r4, #1
    cff4:	e042000c 	sub	r0, r2, ip
    cff8:	e6af3073 	sxtb	r3, r3
    cffc:	bafffff8 	blt	cfe4 <Process_Out.constprop.1+0x33d4>
    d000:	e5890004 	str	r0, [r9, #4]
    d004:	eafffbce 	b	bf44 <Process_Out.constprop.1+0x2334>
    d008:	e1510003 	cmp	r1, r3
    d00c:	e2432001 	sub	r2, r3, #1
    d010:	e2844001 	add	r4, r4, #1
    d014:	e6af3072 	sxtb	r3, r2
    d018:	bafffffa 	blt	d008 <Process_Out.constprop.1+0x33f8>
    d01c:	eafffbc8 	b	bf44 <Process_Out.constprop.1+0x2334>
    d020:	e35e0000 	cmp	lr, #0
    d024:	0a000162 	beq	d5b4 <Process_Out.constprop.1+0x39a4>
    d028:	e28d3040 	add	r3, sp, #64	; 0x40
    d02c:	e28b2001 	add	r2, fp, #1
    d030:	e2410001 	sub	r0, r1, #1
    d034:	e0832002 	add	r2, r3, r2
    d038:	e08ee000 	add	lr, lr, r0
    d03c:	e572c001 	ldrb	ip, [r2, #-1]!
    d040:	e0420003 	sub	r0, r2, r3
    d044:	e5eec001 	strb	ip, [lr, #1]!
    d048:	e3500000 	cmp	r0, #0
    d04c:	cafffffa 	bgt	d03c <Process_Out.constprop.1+0x342c>
    d050:	e2840001 	add	r0, r4, #1
    d054:	e2811001 	add	r1, r1, #1
    d058:	e080000b 	add	r0, r0, fp
    d05c:	e081100b 	add	r1, r1, fp
    d060:	e5891004 	str	r1, [r9, #4]
    d064:	eafff849 	b	b190 <Process_Out.constprop.1+0x1580>
    d068:	e35c0000 	cmp	ip, #0
    d06c:	108c2000 	addne	r2, ip, r0
    d070:	13a0e030 	movne	lr, #48	; 0x30
    d074:	0a000008 	beq	d09c <Process_Out.constprop.1+0x348c>
    d078:	e1510003 	cmp	r1, r3
    d07c:	e4c2e001 	strb	lr, [r2], #1
    d080:	e2433001 	sub	r3, r3, #1
    d084:	e2844001 	add	r4, r4, #1
    d088:	e042000c 	sub	r0, r2, ip
    d08c:	e6af3073 	sxtb	r3, r3
    d090:	bafffff8 	blt	d078 <Process_Out.constprop.1+0x3468>
    d094:	e5890004 	str	r0, [r9, #4]
    d098:	eafff815 	b	b0f4 <Process_Out.constprop.1+0x14e4>
    d09c:	e1510003 	cmp	r1, r3
    d0a0:	e2432001 	sub	r2, r3, #1
    d0a4:	e2844001 	add	r4, r4, #1
    d0a8:	e6af3072 	sxtb	r3, r2
    d0ac:	bafffffa 	blt	d09c <Process_Out.constprop.1+0x348c>
    d0b0:	eafff80f 	b	b0f4 <Process_Out.constprop.1+0x14e4>
    d0b4:	e35c0000 	cmp	ip, #0
    d0b8:	108c2001 	addne	r2, ip, r1
    d0bc:	13a0e030 	movne	lr, #48	; 0x30
    d0c0:	0a000008 	beq	d0e8 <Process_Out.constprop.1+0x34d8>
    d0c4:	e1500003 	cmp	r0, r3
    d0c8:	e4c2e001 	strb	lr, [r2], #1
    d0cc:	e2433001 	sub	r3, r3, #1
    d0d0:	e28bb001 	add	fp, fp, #1
    d0d4:	e042100c 	sub	r1, r2, ip
    d0d8:	e6af3073 	sxtb	r3, r3
    d0dc:	bafffff8 	blt	d0c4 <Process_Out.constprop.1+0x34b4>
    d0e0:	e5891004 	str	r1, [r9, #4]
    d0e4:	eafffaae 	b	bba4 <Process_Out.constprop.1+0x1f94>
    d0e8:	e1500003 	cmp	r0, r3
    d0ec:	e2432001 	sub	r2, r3, #1
    d0f0:	e28bb001 	add	fp, fp, #1
    d0f4:	e6af3072 	sxtb	r3, r2
    d0f8:	bafffffa 	blt	d0e8 <Process_Out.constprop.1+0x34d8>
    d0fc:	eafffaa8 	b	bba4 <Process_Out.constprop.1+0x1f94>
    d100:	e35e0000 	cmp	lr, #0
    d104:	0a00018a 	beq	d734 <Process_Out.constprop.1+0x3b24>
    d108:	e28d3040 	add	r3, sp, #64	; 0x40
    d10c:	e28b2001 	add	r2, fp, #1
    d110:	e2410001 	sub	r0, r1, #1
    d114:	e0832002 	add	r2, r3, r2
    d118:	e08ee000 	add	lr, lr, r0
    d11c:	e572c001 	ldrb	ip, [r2, #-1]!
    d120:	e0420003 	sub	r0, r2, r3
    d124:	e5eec001 	strb	ip, [lr, #1]!
    d128:	e3500000 	cmp	r0, #0
    d12c:	cafffffa 	bgt	d11c <Process_Out.constprop.1+0x350c>
    d130:	e2840001 	add	r0, r4, #1
    d134:	e2811001 	add	r1, r1, #1
    d138:	e08b0000 	add	r0, fp, r0
    d13c:	e081100b 	add	r1, r1, fp
    d140:	e5891004 	str	r1, [r9, #4]
    d144:	eafffba5 	b	bfe0 <Process_Out.constprop.1+0x23d0>
    d148:	e3510000 	cmp	r1, #0
    d14c:	0afffcfa 	beq	c53c <Process_Out.constprop.1+0x292c>
    d150:	e59d2018 	ldr	r2, [sp, #24]
    d154:	e082e003 	add	lr, r2, r3
    d158:	e0812003 	add	r2, r1, r3
    d15c:	e081100e 	add	r1, r1, lr
    d160:	e3a0e020 	mov	lr, #32
    d164:	e4c2e001 	strb	lr, [r2], #1
    d168:	e1510002 	cmp	r1, r2
    d16c:	1afffffc 	bne	d164 <Process_Out.constprop.1+0x3554>
    d170:	eaffff91 	b	cfbc <Process_Out.constprop.1+0x33ac>
    d174:	e3510000 	cmp	r1, #0
    d178:	0afffcef 	beq	c53c <Process_Out.constprop.1+0x292c>
    d17c:	e59d2018 	ldr	r2, [sp, #24]
    d180:	e082e003 	add	lr, r2, r3
    d184:	e0812003 	add	r2, r1, r3
    d188:	e081100e 	add	r1, r1, lr
    d18c:	e3a0e020 	mov	lr, #32
    d190:	e4c2e001 	strb	lr, [r2], #1
    d194:	e1520001 	cmp	r2, r1
    d198:	1afffffc 	bne	d190 <Process_Out.constprop.1+0x3580>
    d19c:	eaffff86 	b	cfbc <Process_Out.constprop.1+0x33ac>
    d1a0:	e35e0000 	cmp	lr, #0
    d1a4:	0a000190 	beq	d7ec <Process_Out.constprop.1+0x3bdc>
    d1a8:	e28d3040 	add	r3, sp, #64	; 0x40
    d1ac:	e2842001 	add	r2, r4, #1
    d1b0:	e2410001 	sub	r0, r1, #1
    d1b4:	e0832002 	add	r2, r3, r2
    d1b8:	e08ee000 	add	lr, lr, r0
    d1bc:	e572c001 	ldrb	ip, [r2, #-1]!
    d1c0:	e0420003 	sub	r0, r2, r3
    d1c4:	e5eec001 	strb	ip, [lr, #1]!
    d1c8:	e3500000 	cmp	r0, #0
    d1cc:	cafffffa 	bgt	d1bc <Process_Out.constprop.1+0x35ac>
    d1d0:	e2860001 	add	r0, r6, #1
    d1d4:	e2811001 	add	r1, r1, #1
    d1d8:	e0840000 	add	r0, r4, r0
    d1dc:	e0811004 	add	r1, r1, r4
    d1e0:	e5891004 	str	r1, [r9, #4]
    d1e4:	eafff521 	b	a670 <Process_Out.constprop.1+0xa60>
    d1e8:	e3510000 	cmp	r1, #0
    d1ec:	0a0001df 	beq	d970 <Process_Out.constprop.1+0x3d60>
    d1f0:	e59d202c 	ldr	r2, [sp, #44]	; 0x2c
    d1f4:	e082e003 	add	lr, r2, r3
    d1f8:	e0812003 	add	r2, r1, r3
    d1fc:	e081100e 	add	r1, r1, lr
    d200:	e3a0e020 	mov	lr, #32
    d204:	e4c2e001 	strb	lr, [r2], #1
    d208:	e1510002 	cmp	r1, r2
    d20c:	1afffffc 	bne	d204 <Process_Out.constprop.1+0x35f4>
    d210:	e2800001 	add	r0, r0, #1
    d214:	e2833001 	add	r3, r3, #1
    d218:	e08c0000 	add	r0, ip, r0
    d21c:	e083300c 	add	r3, r3, ip
    d220:	e5893004 	str	r3, [r9, #4]
    d224:	eafff7f2 	b	b1f4 <Process_Out.constprop.1+0x15e4>
    d228:	e3510000 	cmp	r1, #0
    d22c:	0afffcc2 	beq	c53c <Process_Out.constprop.1+0x292c>
    d230:	e59d2018 	ldr	r2, [sp, #24]
    d234:	e082e003 	add	lr, r2, r3
    d238:	e0812003 	add	r2, r1, r3
    d23c:	e081100e 	add	r1, r1, lr
    d240:	e3a0e020 	mov	lr, #32
    d244:	e4c2e001 	strb	lr, [r2], #1
    d248:	e1520001 	cmp	r2, r1
    d24c:	1afffffc 	bne	d244 <Process_Out.constprop.1+0x3634>
    d250:	eaffff59 	b	cfbc <Process_Out.constprop.1+0x33ac>
    d254:	e35e0000 	cmp	lr, #0
    d258:	0a0002fa 	beq	de48 <Process_Out.constprop.1+0x4238>
    d25c:	e28d3040 	add	r3, sp, #64	; 0x40
    d260:	e2842001 	add	r2, r4, #1
    d264:	e2410001 	sub	r0, r1, #1
    d268:	e0832002 	add	r2, r3, r2
    d26c:	e08ee000 	add	lr, lr, r0
    d270:	e572c001 	ldrb	ip, [r2, #-1]!
    d274:	e0420003 	sub	r0, r2, r3
    d278:	e5eec001 	strb	ip, [lr, #1]!
    d27c:	e3500000 	cmp	r0, #0
    d280:	cafffffa 	bgt	d270 <Process_Out.constprop.1+0x3660>
    d284:	e28b0001 	add	r0, fp, #1
    d288:	e2811001 	add	r1, r1, #1
    d28c:	e0840000 	add	r0, r4, r0
    d290:	e0811004 	add	r1, r1, r4
    d294:	e5891004 	str	r1, [r9, #4]
    d298:	eafff6ce 	b	add8 <Process_Out.constprop.1+0x11c8>
    d29c:	e5993000 	ldr	r3, [r9]
    d2a0:	e3730001 	cmn	r3, #1
    d2a4:	0a000002 	beq	d2b4 <Process_Out.constprop.1+0x36a4>
    d2a8:	e5992004 	ldr	r2, [r9, #4]
    d2ac:	e1530002 	cmp	r3, r2
    d2b0:	da000006 	ble	d2d0 <Process_Out.constprop.1+0x36c0>
    d2b4:	e5992008 	ldr	r2, [r9, #8]
    d2b8:	e3520000 	cmp	r2, #0
    d2bc:	15993004 	ldrne	r3, [r9, #4]
    d2c0:	12831001 	addne	r1, r3, #1
    d2c4:	15891004 	strne	r1, [r9, #4]
    d2c8:	15dd102c 	ldrbne	r1, [sp, #44]	; 0x2c
    d2cc:	17c21003 	strbne	r1, [r2, r3]
    d2d0:	e28bb001 	add	fp, fp, #1
    d2d4:	eafff69b 	b	ad48 <Process_Out.constprop.1+0x1138>
    d2d8:	e35a0000 	cmp	sl, #0
    d2dc:	108a2001 	addne	r2, sl, r1
    d2e0:	13a0c030 	movne	ip, #48	; 0x30
    d2e4:	0a000008 	beq	d30c <Process_Out.constprop.1+0x36fc>
    d2e8:	e1500003 	cmp	r0, r3
    d2ec:	e4c2c001 	strb	ip, [r2], #1
    d2f0:	e2433001 	sub	r3, r3, #1
    d2f4:	e28bb001 	add	fp, fp, #1
    d2f8:	e042100a 	sub	r1, r2, sl
    d2fc:	e6af3073 	sxtb	r3, r3
    d300:	bafffff8 	blt	d2e8 <Process_Out.constprop.1+0x36d8>
    d304:	e5891004 	str	r1, [r9, #4]
    d308:	eafff68b 	b	ad3c <Process_Out.constprop.1+0x112c>
    d30c:	e1500003 	cmp	r0, r3
    d310:	e2432001 	sub	r2, r3, #1
    d314:	e28bb001 	add	fp, fp, #1
    d318:	e6af3072 	sxtb	r3, r2
    d31c:	bafffffa 	blt	d30c <Process_Out.constprop.1+0x36fc>
    d320:	eafff685 	b	ad3c <Process_Out.constprop.1+0x112c>
    d324:	e35e0000 	cmp	lr, #0
    d328:	0a000239 	beq	dc14 <Process_Out.constprop.1+0x4004>
    d32c:	e28d3040 	add	r3, sp, #64	; 0x40
    d330:	e28b2001 	add	r2, fp, #1
    d334:	e2410001 	sub	r0, r1, #1
    d338:	e0832002 	add	r2, r3, r2
    d33c:	e08ee000 	add	lr, lr, r0
    d340:	e572c001 	ldrb	ip, [r2, #-1]!
    d344:	e0420003 	sub	r0, r2, r3
    d348:	e5eec001 	strb	ip, [lr, #1]!
    d34c:	e3500000 	cmp	r0, #0
    d350:	cafffffa 	bgt	d340 <Process_Out.constprop.1+0x3730>
    d354:	e2840001 	add	r0, r4, #1
    d358:	e2811001 	add	r1, r1, #1
    d35c:	e080000b 	add	r0, r0, fp
    d360:	e081100b 	add	r1, r1, fp
    d364:	e5891004 	str	r1, [r9, #4]
    d368:	eafff866 	b	b508 <Process_Out.constprop.1+0x18f8>
    d36c:	e5993000 	ldr	r3, [r9]
    d370:	e3730001 	cmn	r3, #1
    d374:	0a000002 	beq	d384 <Process_Out.constprop.1+0x3774>
    d378:	e5992004 	ldr	r2, [r9, #4]
    d37c:	e1530002 	cmp	r3, r2
    d380:	da000006 	ble	d3a0 <Process_Out.constprop.1+0x3790>
    d384:	e5992008 	ldr	r2, [r9, #8]
    d388:	e3520000 	cmp	r2, #0
    d38c:	15993004 	ldrne	r3, [r9, #4]
    d390:	12831001 	addne	r1, r3, #1
    d394:	15891004 	strne	r1, [r9, #4]
    d398:	15dd100c 	ldrbne	r1, [sp, #12]
    d39c:	17c21003 	strbne	r1, [r2, r3]
    d3a0:	e2844001 	add	r4, r4, #1
    d3a4:	eafff833 	b	b478 <Process_Out.constprop.1+0x1868>
    d3a8:	e3500000 	cmp	r0, #0
    d3ac:	0a0002cf 	beq	def0 <Process_Out.constprop.1+0x42e0>
    d3b0:	e2444002 	sub	r4, r4, #2
    d3b4:	e282c001 	add	ip, r2, #1
    d3b8:	e3a01020 	mov	r1, #32
    d3bc:	e0802002 	add	r2, r0, r2
    d3c0:	e6ef3074 	uxtb	r3, r4
    d3c4:	e08ce003 	add	lr, ip, r3
    d3c8:	e080000e 	add	r0, r0, lr
    d3cc:	e4c21001 	strb	r1, [r2], #1
    d3d0:	e1520000 	cmp	r2, r0
    d3d4:	1afffffc 	bne	d3cc <Process_Out.constprop.1+0x37bc>
    d3d8:	e59d2004 	ldr	r2, [sp, #4]
    d3dc:	e2821001 	add	r1, r2, #1
    d3e0:	e08c2003 	add	r2, ip, r3
    d3e4:	e0813003 	add	r3, r1, r3
    d3e8:	e58d3004 	str	r3, [sp, #4]
    d3ec:	eafff528 	b	a894 <Process_Out.constprop.1+0xc84>
    d3f0:	e2133008 	ands	r3, r3, #8
    d3f4:	058d302c 	streq	r3, [sp, #44]	; 0x2c
    d3f8:	12443001 	subne	r3, r4, #1
    d3fc:	158d3018 	strne	r3, [sp, #24]
    d400:	13a03020 	movne	r3, #32
    d404:	158d302c 	strne	r3, [sp, #44]	; 0x2c
    d408:	eafff973 	b	b9dc <Process_Out.constprop.1+0x1dcc>
    d40c:	e2133008 	ands	r3, r3, #8
    d410:	058d302c 	streq	r3, [sp, #44]	; 0x2c
    d414:	12443001 	subne	r3, r4, #1
    d418:	158d3018 	strne	r3, [sp, #24]
    d41c:	13a03020 	movne	r3, #32
    d420:	158d302c 	strne	r3, [sp, #44]	; 0x2c
    d424:	eafffa55 	b	bd80 <Process_Out.constprop.1+0x2170>
    d428:	e2133008 	ands	r3, r3, #8
    d42c:	058d3028 	streq	r3, [sp, #40]	; 0x28
    d430:	0afff3f9 	beq	a41c <Process_Out.constprop.1+0x80c>
    d434:	e59d3024 	ldr	r3, [sp, #36]	; 0x24
    d438:	e2433001 	sub	r3, r3, #1
    d43c:	e58d3024 	str	r3, [sp, #36]	; 0x24
    d440:	e3a03020 	mov	r3, #32
    d444:	e58d3028 	str	r3, [sp, #40]	; 0x28
    d448:	eafff3f3 	b	a41c <Process_Out.constprop.1+0x80c>
    d44c:	e3510000 	cmp	r1, #0
    d450:	108ae003 	addne	lr, sl, r3
    d454:	10812003 	addne	r2, r1, r3
    d458:	1081100e 	addne	r1, r1, lr
    d45c:	13a0e020 	movne	lr, #32
    d460:	0a000254 	beq	ddb8 <Process_Out.constprop.1+0x41a8>
    d464:	e4c2e001 	strb	lr, [r2], #1
    d468:	e1510002 	cmp	r1, r2
    d46c:	1afffffc 	bne	d464 <Process_Out.constprop.1+0x3854>
    d470:	e2800001 	add	r0, r0, #1
    d474:	e2833001 	add	r3, r3, #1
    d478:	e08c0000 	add	r0, ip, r0
    d47c:	e083300c 	add	r3, r3, ip
    d480:	e5893004 	str	r3, [r9, #4]
    d484:	eafff837 	b	b568 <Process_Out.constprop.1+0x1958>
    d488:	e3510000 	cmp	r1, #0
    d48c:	10811002 	addne	r1, r1, r2
    d490:	11a03004 	movne	r3, r4
    d494:	13a00020 	movne	r0, #32
    d498:	0a0001d3 	beq	dbec <Process_Out.constprop.1+0x3fdc>
    d49c:	e2433001 	sub	r3, r3, #1
    d4a0:	e4c10001 	strb	r0, [r1], #1
    d4a4:	e6af3073 	sxtb	r3, r3
    d4a8:	e3530000 	cmp	r3, #0
    d4ac:	1afffffa 	bne	d49c <Process_Out.constprop.1+0x388c>
    d4b0:	e59d1004 	ldr	r1, [sp, #4]
    d4b4:	e2443001 	sub	r3, r4, #1
    d4b8:	e2822001 	add	r2, r2, #1
    d4bc:	e6af3073 	sxtb	r3, r3
    d4c0:	e2811001 	add	r1, r1, #1
    d4c4:	e0811003 	add	r1, r1, r3
    d4c8:	e0822003 	add	r2, r2, r3
    d4cc:	e58d1004 	str	r1, [sp, #4]
    d4d0:	e5892004 	str	r2, [r9, #4]
    d4d4:	eafff395 	b	a330 <Process_Out.constprop.1+0x720>
    d4d8:	e2133008 	ands	r3, r3, #8
    d4dc:	058d3030 	streq	r3, [sp, #48]	; 0x30
    d4e0:	12443001 	subne	r3, r4, #1
    d4e4:	158d302c 	strne	r3, [sp, #44]	; 0x2c
    d4e8:	13a03020 	movne	r3, #32
    d4ec:	158d3030 	strne	r3, [sp, #48]	; 0x30
    d4f0:	eafff68c 	b	af28 <Process_Out.constprop.1+0x1318>
    d4f4:	e2133008 	ands	r3, r3, #8
    d4f8:	058d302c 	streq	r3, [sp, #44]	; 0x2c
    d4fc:	12443001 	subne	r3, r4, #1
    d500:	158d3018 	strne	r3, [sp, #24]
    d504:	13a03020 	movne	r3, #32
    d508:	158d302c 	strne	r3, [sp, #44]	; 0x2c
    d50c:	eafff84e 	b	b64c <Process_Out.constprop.1+0x1a3c>
    d510:	e58d300c 	str	r3, [sp, #12]
    d514:	eafffc84 	b	c72c <Process_Out.constprop.1+0x2b1c>
    d518:	e35c0000 	cmp	ip, #0
    d51c:	108c1000 	addne	r1, ip, r0
    d520:	13a0e030 	movne	lr, #48	; 0x30
    d524:	0a000008 	beq	d54c <Process_Out.constprop.1+0x393c>
    d528:	e1520003 	cmp	r2, r3
    d52c:	e4c1e001 	strb	lr, [r1], #1
    d530:	e2433001 	sub	r3, r3, #1
    d534:	e2844001 	add	r4, r4, #1
    d538:	e041000c 	sub	r0, r1, ip
    d53c:	e6af3073 	sxtb	r3, r3
    d540:	bafffff8 	blt	d528 <Process_Out.constprop.1+0x3918>
    d544:	e5890004 	str	r0, [r9, #4]
    d548:	eafff7c7 	b	b46c <Process_Out.constprop.1+0x185c>
    d54c:	e1520003 	cmp	r2, r3
    d550:	e2431001 	sub	r1, r3, #1
    d554:	e2844001 	add	r4, r4, #1
    d558:	e6af3071 	sxtb	r3, r1
    d55c:	bafffffa 	blt	d54c <Process_Out.constprop.1+0x393c>
    d560:	eafff7c1 	b	b46c <Process_Out.constprop.1+0x185c>
    d564:	e3a0302d 	mov	r3, #45	; 0x2d
    d568:	e2446001 	sub	r6, r4, #1
    d56c:	e26bb000 	rsb	fp, fp, #0
    d570:	e58d300c 	str	r3, [sp, #12]
    d574:	e3053b08 	movw	r3, #23304	; 0x5b08
    d578:	e3403001 	movt	r3, #1
    d57c:	e28dc03f 	add	ip, sp, #63	; 0x3f
    d580:	e3a00000 	mov	r0, #0
    d584:	ea000000 	b	d58c <Process_Out.constprop.1+0x397c>
    d588:	e1a00001 	mov	r0, r1
    d58c:	e712f51b 	sdiv	r2, fp, r5
    d590:	e2801001 	add	r1, r0, #1
    d594:	e06eb295 	mls	lr, r5, r2, fp
    d598:	e252b000 	subs	fp, r2, #0
    d59c:	e7d3200e 	ldrb	r2, [r3, lr]
    d5a0:	e18a2002 	orr	r2, sl, r2
    d5a4:	e5ec2001 	strb	r2, [ip, #1]!
    d5a8:	1afffff6 	bne	d588 <Process_Out.constprop.1+0x3978>
    d5ac:	e1a0b000 	mov	fp, r0
    d5b0:	eafffc62 	b	c740 <Process_Out.constprop.1+0x2b30>
    d5b4:	e2840001 	add	r0, r4, #1
    d5b8:	e080000b 	add	r0, r0, fp
    d5bc:	eafff6f3 	b	b190 <Process_Out.constprop.1+0x1580>
    d5c0:	e3a00030 	mov	r0, #48	; 0x30
    d5c4:	e2844001 	add	r4, r4, #1
    d5c8:	ebffed3c 	bl	8ac0 <Buffer_WriteChar>
    d5cc:	eafff6d7 	b	b130 <Process_Out.constprop.1+0x1520>
    d5d0:	e3500000 	cmp	r0, #0
    d5d4:	0a00019d 	beq	dc50 <Process_Out.constprop.1+0x4040>
    d5d8:	e59d202c 	ldr	r2, [sp, #44]	; 0x2c
    d5dc:	e082c003 	add	ip, r2, r3
    d5e0:	e0802003 	add	r2, r0, r3
    d5e4:	e080000c 	add	r0, r0, ip
    d5e8:	e59dc034 	ldr	ip, [sp, #52]	; 0x34
    d5ec:	e4c2c001 	strb	ip, [r2], #1
    d5f0:	e1520000 	cmp	r2, r0
    d5f4:	1afffffc 	bne	d5ec <Process_Out.constprop.1+0x39dc>
    d5f8:	e284e001 	add	lr, r4, #1
    d5fc:	e2833001 	add	r3, r3, #1
    d600:	e3e02000 	mvn	r2, #0
    d604:	e08a400e 	add	r4, sl, lr
    d608:	e083300a 	add	r3, r3, sl
    d60c:	e58d202c 	str	r2, [sp, #44]	; 0x2c
    d610:	e5893004 	str	r3, [r9, #4]
    d614:	eafff69c 	b	b08c <Process_Out.constprop.1+0x147c>
    d618:	e3a00030 	mov	r0, #48	; 0x30
    d61c:	e28bb001 	add	fp, fp, #1
    d620:	ebffed26 	bl	8ac0 <Buffer_WriteChar>
    d624:	eafff88b 	b	b858 <Process_Out.constprop.1+0x1c48>
    d628:	e28b0001 	add	r0, fp, #1
    d62c:	e0800004 	add	r0, r0, r4
    d630:	eafff8a0 	b	b8b8 <Process_Out.constprop.1+0x1ca8>
    d634:	e3510000 	cmp	r1, #0
    d638:	0a00025d 	beq	dfb4 <Process_Out.constprop.1+0x43a4>
    d63c:	e59d2018 	ldr	r2, [sp, #24]
    d640:	e082c003 	add	ip, r2, r3
    d644:	e0812003 	add	r2, r1, r3
    d648:	e081100c 	add	r1, r1, ip
    d64c:	e59dc030 	ldr	ip, [sp, #48]	; 0x30
    d650:	e4c2c001 	strb	ip, [r2], #1
    d654:	e1520001 	cmp	r2, r1
    d658:	1afffffc 	bne	d650 <Process_Out.constprop.1+0x3a40>
    d65c:	e28be001 	add	lr, fp, #1
    d660:	e2833001 	add	r3, r3, #1
    d664:	e3e02000 	mvn	r2, #0
    d668:	e08ab00e 	add	fp, sl, lr
    d66c:	e083300a 	add	r3, r3, sl
    d670:	e58d2018 	str	r2, [sp, #24]
    d674:	e5893004 	str	r3, [r9, #4]
    d678:	eafff92f 	b	bb3c <Process_Out.constprop.1+0x1f2c>
    d67c:	e35e0000 	cmp	lr, #0
    d680:	0a000250 	beq	dfc8 <Process_Out.constprop.1+0x43b8>
    d684:	e59d002c 	ldr	r0, [sp, #44]	; 0x2c
    d688:	e1a0400e 	mov	r4, lr
    d68c:	e08ee003 	add	lr, lr, r3
    d690:	e0800003 	add	r0, r0, r3
    d694:	e0840000 	add	r0, r4, r0
    d698:	e3a04020 	mov	r4, #32
    d69c:	e4ce4001 	strb	r4, [lr], #1
    d6a0:	e15e0000 	cmp	lr, r0
    d6a4:	1afffffc 	bne	d69c <Process_Out.constprop.1+0x3a8c>
    d6a8:	e2833001 	add	r3, r3, #1
    d6ac:	e3e00000 	mvn	r0, #0
    d6b0:	e0833002 	add	r3, r3, r2
    d6b4:	e5893004 	str	r3, [r9, #4]
    d6b8:	eafff645 	b	afd4 <Process_Out.constprop.1+0x13c4>
    d6bc:	e58d2030 	str	r2, [sp, #48]	; 0x30
    d6c0:	eafffd34 	b	cb98 <Process_Out.constprop.1+0x2f88>
    d6c4:	e2443001 	sub	r3, r4, #1
    d6c8:	e2611000 	rsb	r1, r1, #0
    d6cc:	e58d302c 	str	r3, [sp, #44]	; 0x2c
    d6d0:	e3a0302d 	mov	r3, #45	; 0x2d
    d6d4:	e58d3030 	str	r3, [sp, #48]	; 0x30
    d6d8:	e3053b08 	movw	r3, #23304	; 0x5b08
    d6dc:	e3403001 	movt	r3, #1
    d6e0:	e28d003f 	add	r0, sp, #63	; 0x3f
    d6e4:	e3a04000 	mov	r4, #0
    d6e8:	e59dc034 	ldr	ip, [sp, #52]	; 0x34
    d6ec:	ea000000 	b	d6f4 <Process_Out.constprop.1+0x3ae4>
    d6f0:	e1a0400e 	mov	r4, lr
    d6f4:	e712f511 	sdiv	r2, r1, r5
    d6f8:	e284e001 	add	lr, r4, #1
    d6fc:	e0661295 	mls	r6, r5, r2, r1
    d700:	e2521000 	subs	r1, r2, #0
    d704:	e7d32006 	ldrb	r2, [r3, r6]
    d708:	e18c2002 	orr	r2, ip, r2
    d70c:	e5e02001 	strb	r2, [r0, #1]!
    d710:	1afffff6 	bne	d6f0 <Process_Out.constprop.1+0x3ae0>
    d714:	eafffd25 	b	cbb0 <Process_Out.constprop.1+0x2fa0>
    d718:	e28b0001 	add	r0, fp, #1
    d71c:	e0800004 	add	r0, r0, r4
    d720:	eafff946 	b	bc40 <Process_Out.constprop.1+0x2030>
    d724:	e3a00030 	mov	r0, #48	; 0x30
    d728:	e28bb001 	add	fp, fp, #1
    d72c:	ebffece3 	bl	8ac0 <Buffer_WriteChar>
    d730:	eafff92a 	b	bbe0 <Process_Out.constprop.1+0x1fd0>
    d734:	e2840001 	add	r0, r4, #1
    d738:	e08b0000 	add	r0, fp, r0
    d73c:	eafffa27 	b	bfe0 <Process_Out.constprop.1+0x23d0>
    d740:	e2133008 	ands	r3, r3, #8
    d744:	0afffb50 	beq	c48c <Process_Out.constprop.1+0x287c>
    d748:	e3a03020 	mov	r3, #32
    d74c:	e244a001 	sub	sl, r4, #1
    d750:	e58d300c 	str	r3, [sp, #12]
    d754:	eafff6e1 	b	b2e0 <Process_Out.constprop.1+0x16d0>
    d758:	e2800001 	add	r0, r0, #1
    d75c:	e08e0000 	add	r0, lr, r0
    d760:	eafff3db 	b	a6d4 <Process_Out.constprop.1+0xac4>
    d764:	e3510000 	cmp	r1, #0
    d768:	0a00021a 	beq	dfd8 <Process_Out.constprop.1+0x43c8>
    d76c:	e59d2018 	ldr	r2, [sp, #24]
    d770:	e082c003 	add	ip, r2, r3
    d774:	e0812003 	add	r2, r1, r3
    d778:	e081100c 	add	r1, r1, ip
    d77c:	e59dc02c 	ldr	ip, [sp, #44]	; 0x2c
    d780:	e4c2c001 	strb	ip, [r2], #1
    d784:	e1520001 	cmp	r2, r1
    d788:	1afffffc 	bne	d780 <Process_Out.constprop.1+0x3b70>
    d78c:	e286c001 	add	ip, r6, #1
    d790:	e2833001 	add	r3, r3, #1
    d794:	e3e02000 	mvn	r2, #0
    d798:	e08a600c 	add	r6, sl, ip
    d79c:	e083300a 	add	r3, r3, sl
    d7a0:	e58d2018 	str	r2, [sp, #24]
    d7a4:	e5893004 	str	r3, [r9, #4]
    d7a8:	eafff370 	b	a570 <Process_Out.constprop.1+0x960>
    d7ac:	e35e0000 	cmp	lr, #0
    d7b0:	0a000206 	beq	dfd0 <Process_Out.constprop.1+0x43c0>
    d7b4:	e59d0018 	ldr	r0, [sp, #24]
    d7b8:	e1a0400e 	mov	r4, lr
    d7bc:	e08ee003 	add	lr, lr, r3
    d7c0:	e0800003 	add	r0, r0, r3
    d7c4:	e0840000 	add	r0, r4, r0
    d7c8:	e3a04020 	mov	r4, #32
    d7cc:	e4ce4001 	strb	r4, [lr], #1
    d7d0:	e150000e 	cmp	r0, lr
    d7d4:	1afffffc 	bne	d7cc <Process_Out.constprop.1+0x3bbc>
    d7d8:	e2833001 	add	r3, r3, #1
    d7dc:	e3e00000 	mvn	r0, #0
    d7e0:	e0833002 	add	r3, r3, r2
    d7e4:	e5893004 	str	r3, [r9, #4]
    d7e8:	eafff98d 	b	be24 <Process_Out.constprop.1+0x2214>
    d7ec:	e2860001 	add	r0, r6, #1
    d7f0:	e0840000 	add	r0, r4, r0
    d7f4:	eafff39d 	b	a670 <Process_Out.constprop.1+0xa60>
    d7f8:	e35e0000 	cmp	lr, #0
    d7fc:	0a000172 	beq	ddcc <Process_Out.constprop.1+0x41bc>
    d800:	e59d1018 	ldr	r1, [sp, #24]
    d804:	e1a0b00e 	mov	fp, lr
    d808:	e08ee003 	add	lr, lr, r3
    d80c:	e0811003 	add	r1, r1, r3
    d810:	e08b1001 	add	r1, fp, r1
    d814:	e3a0b020 	mov	fp, #32
    d818:	e4ceb001 	strb	fp, [lr], #1
    d81c:	e15e0001 	cmp	lr, r1
    d820:	1afffffc 	bne	d818 <Process_Out.constprop.1+0x3c08>
    d824:	e2833001 	add	r3, r3, #1
    d828:	e3e01000 	mvn	r1, #0
    d82c:	e0833002 	add	r3, r3, r2
    d830:	e5893004 	str	r3, [r9, #4]
    d834:	eafff892 	b	ba84 <Process_Out.constprop.1+0x1e74>
    d838:	e3500000 	cmp	r0, #0
    d83c:	0a00016a 	beq	ddec <Process_Out.constprop.1+0x41dc>
    d840:	e59d2018 	ldr	r2, [sp, #24]
    d844:	e082c003 	add	ip, r2, r3
    d848:	e0802003 	add	r2, r0, r3
    d84c:	e080000c 	add	r0, r0, ip
    d850:	e59dc030 	ldr	ip, [sp, #48]	; 0x30
    d854:	e4c2c001 	strb	ip, [r2], #1
    d858:	e1500002 	cmp	r0, r2
    d85c:	1afffffc 	bne	d854 <Process_Out.constprop.1+0x3c44>
    d860:	e284e001 	add	lr, r4, #1
    d864:	e2833001 	add	r3, r3, #1
    d868:	e3e02000 	mvn	r2, #0
    d86c:	e08a400e 	add	r4, sl, lr
    d870:	e083300a 	add	r3, r3, sl
    d874:	e58d2018 	str	r2, [sp, #24]
    d878:	e5893004 	str	r3, [r9, #4]
    d87c:	eafff996 	b	bedc <Process_Out.constprop.1+0x22cc>
    d880:	e35e0000 	cmp	lr, #0
    d884:	0a000156 	beq	dde4 <Process_Out.constprop.1+0x41d4>
    d888:	e59d1018 	ldr	r1, [sp, #24]
    d88c:	e081c003 	add	ip, r1, r3
    d890:	e08e1003 	add	r1, lr, r3
    d894:	e08ec00c 	add	ip, lr, ip
    d898:	e3a0e020 	mov	lr, #32
    d89c:	e4c1e001 	strb	lr, [r1], #1
    d8a0:	e151000c 	cmp	r1, ip
    d8a4:	1afffffc 	bne	d89c <Process_Out.constprop.1+0x3c8c>
    d8a8:	e2833001 	add	r3, r3, #1
    d8ac:	e3e01000 	mvn	r1, #0
    d8b0:	e0833002 	add	r3, r3, r2
    d8b4:	e5893004 	str	r3, [r9, #4]
    d8b8:	eafff300 	b	a4c0 <Process_Out.constprop.1+0x8b0>
    d8bc:	e3a00030 	mov	r0, #48	; 0x30
    d8c0:	e2844001 	add	r4, r4, #1
    d8c4:	ebffec7d 	bl	8ac0 <Buffer_WriteChar>
    d8c8:	eafff9ac 	b	bf80 <Process_Out.constprop.1+0x2370>
    d8cc:	e35e0000 	cmp	lr, #0
    d8d0:	0a0001cb 	beq	e004 <Process_Out.constprop.1+0x43f4>
    d8d4:	e59d1018 	ldr	r1, [sp, #24]
    d8d8:	e1a0b00e 	mov	fp, lr
    d8dc:	e08ee003 	add	lr, lr, r3
    d8e0:	e0811003 	add	r1, r1, r3
    d8e4:	e08b1001 	add	r1, fp, r1
    d8e8:	e3a0b020 	mov	fp, #32
    d8ec:	e4ceb001 	strb	fp, [lr], #1
    d8f0:	e15e0001 	cmp	lr, r1
    d8f4:	1afffffc 	bne	d8ec <Process_Out.constprop.1+0x3cdc>
    d8f8:	e2833001 	add	r3, r3, #1
    d8fc:	e3e01000 	mvn	r1, #0
    d900:	e0833002 	add	r3, r3, r2
    d904:	e5893004 	str	r3, [r9, #4]
    d908:	eafff77b 	b	b6fc <Process_Out.constprop.1+0x1aec>
    d90c:	e3510000 	cmp	r1, #0
    d910:	0a000190 	beq	df58 <Process_Out.constprop.1+0x4348>
    d914:	e59d2018 	ldr	r2, [sp, #24]
    d918:	e082c003 	add	ip, r2, r3
    d91c:	e0812003 	add	r2, r1, r3
    d920:	e081100c 	add	r1, r1, ip
    d924:	e59dc030 	ldr	ip, [sp, #48]	; 0x30
    d928:	e4c2c001 	strb	ip, [r2], #1
    d92c:	e1520001 	cmp	r2, r1
    d930:	1afffffc 	bne	d928 <Process_Out.constprop.1+0x3d18>
    d934:	e28be001 	add	lr, fp, #1
    d938:	e2833001 	add	r3, r3, #1
    d93c:	e3e02000 	mvn	r2, #0
    d940:	e08eb00a 	add	fp, lr, sl
    d944:	e083300a 	add	r3, r3, sl
    d948:	e58d2018 	str	r2, [sp, #24]
    d94c:	e5893004 	str	r3, [r9, #4]
    d950:	eafff797 	b	b7b4 <Process_Out.constprop.1+0x1ba4>
    d954:	e2133008 	ands	r3, r3, #8
    d958:	058d302c 	streq	r3, [sp, #44]	; 0x2c
    d95c:	12443001 	subne	r3, r4, #1
    d960:	158d3018 	strne	r3, [sp, #24]
    d964:	13a03020 	movne	r3, #32
    d968:	158d302c 	strne	r3, [sp, #44]	; 0x2c
    d96c:	eafff481 	b	ab78 <Process_Out.constprop.1+0xf68>
    d970:	e2800001 	add	r0, r0, #1
    d974:	e080000c 	add	r0, r0, ip
    d978:	eafff61d 	b	b1f4 <Process_Out.constprop.1+0x15e4>
    d97c:	e35c0000 	cmp	ip, #0
    d980:	0a0001b9 	beq	e06c <Process_Out.constprop.1+0x445c>
    d984:	e2812001 	add	r2, r1, #1
    d988:	e2433001 	sub	r3, r3, #1
    d98c:	e08c1001 	add	r1, ip, r1
    d990:	e3a0e020 	mov	lr, #32
    d994:	e6e23073 	uxtab	r3, r2, r3
    d998:	e08cc003 	add	ip, ip, r3
    d99c:	e4c1e001 	strb	lr, [r1], #1
    d9a0:	e151000c 	cmp	r1, ip
    d9a4:	1afffffc 	bne	d99c <Process_Out.constprop.1+0x3d8c>
    d9a8:	e59d1004 	ldr	r1, [sp, #4]
    d9ac:	e2443001 	sub	r3, r4, #1
    d9b0:	e3a04000 	mov	r4, #0
    d9b4:	e281c001 	add	ip, r1, #1
    d9b8:	e6af3073 	sxtb	r3, r3
    d9bc:	e0821003 	add	r1, r2, r3
    d9c0:	e08c3003 	add	r3, ip, r3
    d9c4:	e58d3004 	str	r3, [sp, #4]
    d9c8:	e5891004 	str	r1, [r9, #4]
    d9cc:	eafff21f 	b	a250 <Process_Out.constprop.1+0x640>
    d9d0:	e3500000 	cmp	r0, #0
    d9d4:	0a00008a 	beq	dc04 <Process_Out.constprop.1+0x3ff4>
    d9d8:	e08ac003 	add	ip, sl, r3
    d9dc:	e0801003 	add	r1, r0, r3
    d9e0:	e080000c 	add	r0, r0, ip
    d9e4:	e59dc014 	ldr	ip, [sp, #20]
    d9e8:	e4c1c001 	strb	ip, [r1], #1
    d9ec:	e1500001 	cmp	r0, r1
    d9f0:	1afffffc 	bne	d9e8 <Process_Out.constprop.1+0x3dd8>
    d9f4:	e2844001 	add	r4, r4, #1
    d9f8:	e2833001 	add	r3, r3, #1
    d9fc:	e08e4004 	add	r4, lr, r4
    da00:	e083300e 	add	r3, r3, lr
    da04:	e3e0a000 	mvn	sl, #0
    da08:	e5893004 	str	r3, [r9, #4]
    da0c:	eafff678 	b	b3f4 <Process_Out.constprop.1+0x17e4>
    da10:	e35e0000 	cmp	lr, #0
    da14:	0a00017f 	beq	e018 <Process_Out.constprop.1+0x4408>
    da18:	e28d3040 	add	r3, sp, #64	; 0x40
    da1c:	e2842001 	add	r2, r4, #1
    da20:	e2410001 	sub	r0, r1, #1
    da24:	e0832002 	add	r2, r3, r2
    da28:	e08ee000 	add	lr, lr, r0
    da2c:	e572c001 	ldrb	ip, [r2, #-1]!
    da30:	e0420003 	sub	r0, r2, r3
    da34:	e5eec001 	strb	ip, [lr, #1]!
    da38:	e3500000 	cmp	r0, #0
    da3c:	cafffffa 	bgt	da2c <Process_Out.constprop.1+0x3e1c>
    da40:	e2863001 	add	r3, r6, #1
    da44:	e2811001 	add	r1, r1, #1
    da48:	e0843003 	add	r3, r4, r3
    da4c:	e0811004 	add	r1, r1, r4
    da50:	e5891004 	str	r1, [r9, #4]
    da54:	eafffce8 	b	cdfc <Process_Out.constprop.1+0x31ec>
    da58:	e35c0000 	cmp	ip, #0
    da5c:	0a0000f2 	beq	de2c <Process_Out.constprop.1+0x421c>
    da60:	e2402002 	sub	r2, r0, #2
    da64:	e2810001 	add	r0, r1, #1
    da68:	e3a0e020 	mov	lr, #32
    da6c:	e08c1001 	add	r1, ip, r1
    da70:	e6ef2072 	uxtb	r2, r2
    da74:	e0804002 	add	r4, r0, r2
    da78:	e08cc004 	add	ip, ip, r4
    da7c:	e4c1e001 	strb	lr, [r1], #1
    da80:	e151000c 	cmp	r1, ip
    da84:	1afffffc 	bne	da7c <Process_Out.constprop.1+0x3e6c>
    da88:	e59d1004 	ldr	r1, [sp, #4]
    da8c:	e3a04000 	mov	r4, #0
    da90:	e281c001 	add	ip, r1, #1
    da94:	e0801002 	add	r1, r0, r2
    da98:	e08c2002 	add	r2, ip, r2
    da9c:	e58d2004 	str	r2, [sp, #4]
    daa0:	e5891004 	str	r1, [r9, #4]
    daa4:	eafff344 	b	a7bc <Process_Out.constprop.1+0xbac>
    daa8:	e3a00030 	mov	r0, #48	; 0x30
    daac:	e28bb001 	add	fp, fp, #1
    dab0:	ebffec02 	bl	8ac0 <Buffer_WriteChar>
    dab4:	eafff4af 	b	ad78 <Process_Out.constprop.1+0x1168>
    dab8:	e35e0000 	cmp	lr, #0
    dabc:	0a00015e 	beq	e03c <Process_Out.constprop.1+0x442c>
    dac0:	e28d3040 	add	r3, sp, #64	; 0x40
    dac4:	e28b2001 	add	r2, fp, #1
    dac8:	e2410001 	sub	r0, r1, #1
    dacc:	e0832002 	add	r2, r3, r2
    dad0:	e08ee000 	add	lr, lr, r0
    dad4:	e572c001 	ldrb	ip, [r2, #-1]!
    dad8:	e0420003 	sub	r0, r2, r3
    dadc:	e5eec001 	strb	ip, [lr, #1]!
    dae0:	e3500000 	cmp	r0, #0
    dae4:	cafffffa 	bgt	dad4 <Process_Out.constprop.1+0x3ec4>
    dae8:	e2843001 	add	r3, r4, #1
    daec:	e2811001 	add	r1, r1, #1
    daf0:	e083300b 	add	r3, r3, fp
    daf4:	e081100b 	add	r1, r1, fp
    daf8:	e5891004 	str	r1, [r9, #4]
    dafc:	eafffb97 	b	c960 <Process_Out.constprop.1+0x2d50>
    db00:	e59d3004 	ldr	r3, [sp, #4]
    db04:	e59d2004 	ldr	r2, [sp, #4]
    db08:	e2833001 	add	r3, r3, #1
    db0c:	e0432002 	sub	r2, r3, r2
    db10:	e1500002 	cmp	r0, r2
    db14:	cafffffa 	bgt	db04 <Process_Out.constprop.1+0x3ef4>
    db18:	e58d3004 	str	r3, [sp, #4]
    db1c:	eafff1e3 	b	a2b0 <Process_Out.constprop.1+0x6a0>
    db20:	e3a00030 	mov	r0, #48	; 0x30
    db24:	e2844001 	add	r4, r4, #1
    db28:	ebffebe4 	bl	8ac0 <Buffer_WriteChar>
    db2c:	eafff65d 	b	b4a8 <Process_Out.constprop.1+0x1898>
    db30:	e3500000 	cmp	r0, #0
    db34:	108ae003 	addne	lr, sl, r3
    db38:	1080c003 	addne	ip, r0, r3
    db3c:	1080000e 	addne	r0, r0, lr
    db40:	13a0e020 	movne	lr, #32
    db44:	0a000048 	beq	dc6c <Process_Out.constprop.1+0x405c>
    db48:	e4cce001 	strb	lr, [ip], #1
    db4c:	e150000c 	cmp	r0, ip
    db50:	1afffffc 	bne	db48 <Process_Out.constprop.1+0x3f38>
    db54:	e2833001 	add	r3, r3, #1
    db58:	e3e00000 	mvn	r0, #0
    db5c:	e0833001 	add	r3, r3, r1
    db60:	e5893004 	str	r3, [r9, #4]
    db64:	eafff602 	b	b374 <Process_Out.constprop.1+0x1764>
    db68:	e35e0000 	cmp	lr, #0
    db6c:	0a000094 	beq	ddc4 <Process_Out.constprop.1+0x41b4>
    db70:	e59d1018 	ldr	r1, [sp, #24]
    db74:	e08ec003 	add	ip, lr, r3
    db78:	e0811003 	add	r1, r1, r3
    db7c:	e08e1001 	add	r1, lr, r1
    db80:	e3a0e020 	mov	lr, #32
    db84:	e4cce001 	strb	lr, [ip], #1
    db88:	e15c0001 	cmp	ip, r1
    db8c:	1afffffc 	bne	db84 <Process_Out.constprop.1+0x3f74>
    db90:	e2833001 	add	r3, r3, #1
    db94:	e3e01000 	mvn	r1, #0
    db98:	e0833002 	add	r3, r3, r2
    db9c:	e5893004 	str	r3, [r9, #4]
    dba0:	eafff41c 	b	ac18 <Process_Out.constprop.1+0x1008>
    dba4:	e3510000 	cmp	r1, #0
    dba8:	0a00001c 	beq	dc20 <Process_Out.constprop.1+0x4010>
    dbac:	e59d2018 	ldr	r2, [sp, #24]
    dbb0:	e082c003 	add	ip, r2, r3
    dbb4:	e0812003 	add	r2, r1, r3
    dbb8:	e081100c 	add	r1, r1, ip
    dbbc:	e59dc030 	ldr	ip, [sp, #48]	; 0x30
    dbc0:	e4c2c001 	strb	ip, [r2], #1
    dbc4:	e1520001 	cmp	r2, r1
    dbc8:	1afffffc 	bne	dbc0 <Process_Out.constprop.1+0x3fb0>
    dbcc:	e28b1001 	add	r1, fp, #1
    dbd0:	e2833001 	add	r3, r3, #1
    dbd4:	e3e02000 	mvn	r2, #0
    dbd8:	e08ab001 	add	fp, sl, r1
    dbdc:	e083300a 	add	r3, r3, sl
    dbe0:	e58d2018 	str	r2, [sp, #24]
    dbe4:	e5893004 	str	r3, [r9, #4]
    dbe8:	eafff439 	b	acd4 <Process_Out.constprop.1+0x10c4>
    dbec:	e59d3004 	ldr	r3, [sp, #4]
    dbf0:	e2444001 	sub	r4, r4, #1
    dbf4:	e2833001 	add	r3, r3, #1
    dbf8:	e6a33074 	sxtab	r3, r3, r4
    dbfc:	e58d3004 	str	r3, [sp, #4]
    dc00:	eafff1ca 	b	a330 <Process_Out.constprop.1+0x720>
    dc04:	e2844001 	add	r4, r4, #1
    dc08:	e3e0a000 	mvn	sl, #0
    dc0c:	e084400e 	add	r4, r4, lr
    dc10:	eafff5f7 	b	b3f4 <Process_Out.constprop.1+0x17e4>
    dc14:	e2840001 	add	r0, r4, #1
    dc18:	e080000b 	add	r0, r0, fp
    dc1c:	eafff639 	b	b508 <Process_Out.constprop.1+0x18f8>
    dc20:	e3e03000 	mvn	r3, #0
    dc24:	e28b1001 	add	r1, fp, #1
    dc28:	e08ab001 	add	fp, sl, r1
    dc2c:	e58d3018 	str	r3, [sp, #24]
    dc30:	eafff427 	b	acd4 <Process_Out.constprop.1+0x10c4>
    dc34:	e2133008 	ands	r3, r3, #8
    dc38:	058d3030 	streq	r3, [sp, #48]	; 0x30
    dc3c:	12443001 	subne	r3, r4, #1
    dc40:	158d302c 	strne	r3, [sp, #44]	; 0x2c
    dc44:	13a03020 	movne	r3, #32
    dc48:	158d3030 	strne	r3, [sp, #48]	; 0x30
    dc4c:	eafffbd1 	b	cb98 <Process_Out.constprop.1+0x2f88>
    dc50:	e3e03000 	mvn	r3, #0
    dc54:	e284e001 	add	lr, r4, #1
    dc58:	e08a400e 	add	r4, sl, lr
    dc5c:	e58d302c 	str	r3, [sp, #44]	; 0x2c
    dc60:	eafff509 	b	b08c <Process_Out.constprop.1+0x147c>
    dc64:	e58d2018 	str	r2, [sp, #24]
    dc68:	eafff86f 	b	be2c <Process_Out.constprop.1+0x221c>
    dc6c:	e3e00000 	mvn	r0, #0
    dc70:	eafff5bf 	b	b374 <Process_Out.constprop.1+0x1764>
    dc74:	e3510000 	cmp	r1, #0
    dc78:	0a000109 	beq	e0a4 <Process_Out.constprop.1+0x4494>
    dc7c:	e59d302c 	ldr	r3, [sp, #44]	; 0x2c
    dc80:	e0812000 	add	r2, r1, r0
    dc84:	e0833000 	add	r3, r3, r0
    dc88:	e0813003 	add	r3, r1, r3
    dc8c:	e3a01020 	mov	r1, #32
    dc90:	e4c21001 	strb	r1, [r2], #1
    dc94:	e1520003 	cmp	r2, r3
    dc98:	1afffffc 	bne	dc90 <Process_Out.constprop.1+0x4080>
    dc9c:	e2800001 	add	r0, r0, #1
    dca0:	e3e03000 	mvn	r3, #0
    dca4:	e080000c 	add	r0, r0, ip
    dca8:	e5890004 	str	r0, [r9, #4]
    dcac:	eafffbe1 	b	cc38 <Process_Out.constprop.1+0x3028>
    dcb0:	e58da02c 	str	sl, [sp, #44]	; 0x2c
    dcb4:	eafff4f4 	b	b08c <Process_Out.constprop.1+0x147c>
    dcb8:	e58d2018 	str	r2, [sp, #24]
    dcbc:	eafff772 	b	ba8c <Process_Out.constprop.1+0x1e7c>
    dcc0:	e3a00030 	mov	r0, #48	; 0x30
    dcc4:	e2866001 	add	r6, r6, #1
    dcc8:	ebffeb7c 	bl	8ac0 <Buffer_WriteChar>
    dccc:	eafffc32 	b	cd9c <Process_Out.constprop.1+0x318c>
    dcd0:	e1a0a00e 	mov	sl, lr
    dcd4:	eafff5c6 	b	b3f4 <Process_Out.constprop.1+0x17e4>
    dcd8:	e3500000 	cmp	r0, #0
    dcdc:	10861002 	addne	r1, r6, r2
    dce0:	1080e002 	addne	lr, r0, r2
    dce4:	10801001 	addne	r1, r0, r1
    dce8:	13a00020 	movne	r0, #32
    dcec:	0a0000e5 	beq	e088 <Process_Out.constprop.1+0x4478>
    dcf0:	e4ce0001 	strb	r0, [lr], #1
    dcf4:	e151000e 	cmp	r1, lr
    dcf8:	1afffffc 	bne	dcf0 <Process_Out.constprop.1+0x40e0>
    dcfc:	e2833001 	add	r3, r3, #1
    dd00:	e2822001 	add	r2, r2, #1
    dd04:	e083300c 	add	r3, r3, ip
    dd08:	e082200c 	add	r2, r2, ip
    dd0c:	e5892004 	str	r2, [r9, #4]
    dd10:	eafffb2a 	b	c9c0 <Process_Out.constprop.1+0x2db0>
    dd14:	e3520000 	cmp	r2, #0
    dd18:	0a0000ce 	beq	e058 <Process_Out.constprop.1+0x4448>
    dd1c:	e59d102c 	ldr	r1, [sp, #44]	; 0x2c
    dd20:	e0810003 	add	r0, r1, r3
    dd24:	e0821003 	add	r1, r2, r3
    dd28:	e0822000 	add	r2, r2, r0
    dd2c:	e5dd0038 	ldrb	r0, [sp, #56]	; 0x38
    dd30:	e4c10001 	strb	r0, [r1], #1
    dd34:	e1510002 	cmp	r1, r2
    dd38:	1afffffb 	bne	dd2c <Process_Out.constprop.1+0x411c>
    dd3c:	e2866001 	add	r6, r6, #1
    dd40:	e2833001 	add	r3, r3, #1
    dd44:	e3e02000 	mvn	r2, #0
    dd48:	e08c6006 	add	r6, ip, r6
    dd4c:	e083300c 	add	r3, r3, ip
    dd50:	e58d202c 	str	r2, [sp, #44]	; 0x2c
    dd54:	e5893004 	str	r3, [r9, #4]
    dd58:	eafffbe4 	b	ccf0 <Process_Out.constprop.1+0x30e0>
    dd5c:	e35a0000 	cmp	sl, #0
    dd60:	108a2001 	addne	r2, sl, r1
    dd64:	13a00030 	movne	r0, #48	; 0x30
    dd68:	0a000008 	beq	dd90 <Process_Out.constprop.1+0x4180>
    dd6c:	e15e0003 	cmp	lr, r3
    dd70:	e4c20001 	strb	r0, [r2], #1
    dd74:	e2433001 	sub	r3, r3, #1
    dd78:	e2866001 	add	r6, r6, #1
    dd7c:	e042100a 	sub	r1, r2, sl
    dd80:	e6af3073 	sxtb	r3, r3
    dd84:	bafffff8 	blt	dd6c <Process_Out.constprop.1+0x415c>
    dd88:	e5891004 	str	r1, [r9, #4]
    dd8c:	eafffbf0 	b	cd54 <Process_Out.constprop.1+0x3144>
    dd90:	e153000e 	cmp	r3, lr
    dd94:	e2432001 	sub	r2, r3, #1
    dd98:	e2866001 	add	r6, r6, #1
    dd9c:	e6af3072 	sxtb	r3, r2
    dda0:	cafffffa 	bgt	dd90 <Process_Out.constprop.1+0x4180>
    dda4:	eafffbea 	b	cd54 <Process_Out.constprop.1+0x3144>
    dda8:	e1a0a001 	mov	sl, r1
    ddac:	eafff572 	b	b37c <Process_Out.constprop.1+0x176c>
    ddb0:	e58d2018 	str	r2, [sp, #24]
    ddb4:	eafff399 	b	ac20 <Process_Out.constprop.1+0x1010>
    ddb8:	e2800001 	add	r0, r0, #1
    ddbc:	e08c0000 	add	r0, ip, r0
    ddc0:	eafff5e8 	b	b568 <Process_Out.constprop.1+0x1958>
    ddc4:	e3e01000 	mvn	r1, #0
    ddc8:	eafff392 	b	ac18 <Process_Out.constprop.1+0x1008>
    ddcc:	e3e01000 	mvn	r1, #0
    ddd0:	eafff72b 	b	ba84 <Process_Out.constprop.1+0x1e74>
    ddd4:	e58d2018 	str	r2, [sp, #24]
    ddd8:	eafff1ba 	b	a4c8 <Process_Out.constprop.1+0x8b8>
    dddc:	e58da018 	str	sl, [sp, #24]
    dde0:	eafff83d 	b	bedc <Process_Out.constprop.1+0x22cc>
    dde4:	e3e01000 	mvn	r1, #0
    dde8:	eafff1b4 	b	a4c0 <Process_Out.constprop.1+0x8b0>
    ddec:	e3e03000 	mvn	r3, #0
    ddf0:	e284e001 	add	lr, r4, #1
    ddf4:	e08a400e 	add	r4, sl, lr
    ddf8:	e58d3018 	str	r3, [sp, #24]
    ddfc:	eafff836 	b	bedc <Process_Out.constprop.1+0x22cc>
    de00:	e59d3004 	ldr	r3, [sp, #4]
    de04:	e59d2004 	ldr	r2, [sp, #4]
    de08:	e2833001 	add	r3, r3, #1
    de0c:	e0432002 	sub	r2, r3, r2
    de10:	e1500002 	cmp	r0, r2
    de14:	cafffffa 	bgt	de04 <Process_Out.constprop.1+0x41f4>
    de18:	eaffff3e 	b	db18 <Process_Out.constprop.1+0x3f08>
    de1c:	e58da018 	str	sl, [sp, #24]
    de20:	eafff3ab 	b	acd4 <Process_Out.constprop.1+0x10c4>
    de24:	e58da018 	str	sl, [sp, #24]
    de28:	eafff743 	b	bb3c <Process_Out.constprop.1+0x1f2c>
    de2c:	e59d2004 	ldr	r2, [sp, #4]
    de30:	e2400002 	sub	r0, r0, #2
    de34:	e1a0400c 	mov	r4, ip
    de38:	e2822001 	add	r2, r2, #1
    de3c:	e6e22070 	uxtab	r2, r2, r0
    de40:	e58d2004 	str	r2, [sp, #4]
    de44:	eafff25c 	b	a7bc <Process_Out.constprop.1+0xbac>
    de48:	e28b1001 	add	r1, fp, #1
    de4c:	e0840001 	add	r0, r4, r1
    de50:	eafff3e0 	b	add8 <Process_Out.constprop.1+0x11c8>
    de54:	e3a00030 	mov	r0, #48	; 0x30
    de58:	e2844001 	add	r4, r4, #1
    de5c:	ebffeb17 	bl	8ac0 <Buffer_WriteChar>
    de60:	eafffaa6 	b	c900 <Process_Out.constprop.1+0x2cf0>
    de64:	e3520000 	cmp	r2, #0
    de68:	10866003 	addne	r6, r6, r3
    de6c:	10820003 	addne	r0, r2, r3
    de70:	10826006 	addne	r6, r2, r6
    de74:	0a000073 	beq	e048 <Process_Out.constprop.1+0x4438>
    de78:	e5dd2014 	ldrb	r2, [sp, #20]
    de7c:	e4c02001 	strb	r2, [r0], #1
    de80:	e1500006 	cmp	r0, r6
    de84:	1afffffb 	bne	de78 <Process_Out.constprop.1+0x4268>
    de88:	e2844001 	add	r4, r4, #1
    de8c:	e2833001 	add	r3, r3, #1
    de90:	e08e4004 	add	r4, lr, r4
    de94:	e083300e 	add	r3, r3, lr
    de98:	e3e06000 	mvn	r6, #0
    de9c:	e5893004 	str	r3, [r9, #4]
    dea0:	eafffa65 	b	c83c <Process_Out.constprop.1+0x2c2c>
    dea4:	e35e0000 	cmp	lr, #0
    dea8:	108e2000 	addne	r2, lr, r0
    deac:	13a0c030 	movne	ip, #48	; 0x30
    deb0:	0a000008 	beq	ded8 <Process_Out.constprop.1+0x42c8>
    deb4:	e1510003 	cmp	r1, r3
    deb8:	e4c2c001 	strb	ip, [r2], #1
    debc:	e2433001 	sub	r3, r3, #1
    dec0:	e2844001 	add	r4, r4, #1
    dec4:	e042000e 	sub	r0, r2, lr
    dec8:	e6af3073 	sxtb	r3, r3
    decc:	bafffff8 	blt	deb4 <Process_Out.constprop.1+0x42a4>
    ded0:	e5890004 	str	r0, [r9, #4]
    ded4:	eafffa77 	b	c8b8 <Process_Out.constprop.1+0x2ca8>
    ded8:	e1510003 	cmp	r1, r3
    dedc:	e2432001 	sub	r2, r3, #1
    dee0:	e2844001 	add	r4, r4, #1
    dee4:	e6af3072 	sxtb	r3, r2
    dee8:	bafffffa 	blt	ded8 <Process_Out.constprop.1+0x42c8>
    deec:	eafffa71 	b	c8b8 <Process_Out.constprop.1+0x2ca8>
    def0:	e59d3004 	ldr	r3, [sp, #4]
    def4:	e2444002 	sub	r4, r4, #2
    def8:	e2833001 	add	r3, r3, #1
    defc:	e6e33074 	uxtab	r3, r3, r4
    df00:	e58d3004 	str	r3, [sp, #4]
    df04:	eaffef63 	b	9c98 <Process_Out.constprop.1+0x88>
    df08:	e2123008 	ands	r3, r2, #8
    df0c:	0afffd7f 	beq	d510 <Process_Out.constprop.1+0x3900>
    df10:	e3a03020 	mov	r3, #32
    df14:	e2446001 	sub	r6, r4, #1
    df18:	e58d300c 	str	r3, [sp, #12]
    df1c:	eafffa02 	b	c72c <Process_Out.constprop.1+0x2b1c>
    df20:	e3520000 	cmp	r2, #0
    df24:	1086c003 	addne	ip, r6, r3
    df28:	10820003 	addne	r0, r2, r3
    df2c:	1082200c 	addne	r2, r2, ip
    df30:	13a0c020 	movne	ip, #32
    df34:	0a00003c 	beq	e02c <Process_Out.constprop.1+0x441c>
    df38:	e4c0c001 	strb	ip, [r0], #1
    df3c:	e1520000 	cmp	r2, r0
    df40:	1afffffc 	bne	df38 <Process_Out.constprop.1+0x4328>
    df44:	e2833001 	add	r3, r3, #1
    df48:	e3e02000 	mvn	r2, #0
    df4c:	e083300e 	add	r3, r3, lr
    df50:	e5893004 	str	r3, [r9, #4]
    df54:	eafffa19 	b	c7c0 <Process_Out.constprop.1+0x2bb0>
    df58:	e3e03000 	mvn	r3, #0
    df5c:	e28be001 	add	lr, fp, #1
    df60:	e08eb00a 	add	fp, lr, sl
    df64:	e58d3018 	str	r3, [sp, #24]
    df68:	eafff611 	b	b7b4 <Process_Out.constprop.1+0x1ba4>
    df6c:	e58d202c 	str	r2, [sp, #44]	; 0x2c
    df70:	eafff419 	b	afdc <Process_Out.constprop.1+0x13cc>
    df74:	e3500000 	cmp	r0, #0
    df78:	0a000023 	beq	e00c <Process_Out.constprop.1+0x43fc>
    df7c:	e59d102c 	ldr	r1, [sp, #44]	; 0x2c
    df80:	e080e002 	add	lr, r0, r2
    df84:	e0811002 	add	r1, r1, r2
    df88:	e0801001 	add	r1, r0, r1
    df8c:	e3a00020 	mov	r0, #32
    df90:	e4ce0001 	strb	r0, [lr], #1
    df94:	e15e0001 	cmp	lr, r1
    df98:	1afffffc 	bne	df90 <Process_Out.constprop.1+0x4380>
    df9c:	e2833001 	add	r3, r3, #1
    dfa0:	e2822001 	add	r2, r2, #1
    dfa4:	e08c3003 	add	r3, ip, r3
    dfa8:	e082200c 	add	r2, r2, ip
    dfac:	e5892004 	str	r2, [r9, #4]
    dfb0:	eafffbaa 	b	ce60 <Process_Out.constprop.1+0x3250>
    dfb4:	e3e03000 	mvn	r3, #0
    dfb8:	e28be001 	add	lr, fp, #1
    dfbc:	e08ab00e 	add	fp, sl, lr
    dfc0:	e58d3018 	str	r3, [sp, #24]
    dfc4:	eafff6dc 	b	bb3c <Process_Out.constprop.1+0x1f2c>
    dfc8:	e3e00000 	mvn	r0, #0
    dfcc:	eafff400 	b	afd4 <Process_Out.constprop.1+0x13c4>
    dfd0:	e3e00000 	mvn	r0, #0
    dfd4:	eafff792 	b	be24 <Process_Out.constprop.1+0x2214>
    dfd8:	e3e03000 	mvn	r3, #0
    dfdc:	e286c001 	add	ip, r6, #1
    dfe0:	e08a600c 	add	r6, sl, ip
    dfe4:	e58d3018 	str	r3, [sp, #24]
    dfe8:	eafff160 	b	a570 <Process_Out.constprop.1+0x960>
    dfec:	e58da018 	str	sl, [sp, #24]
    dff0:	eafff15e 	b	a570 <Process_Out.constprop.1+0x960>
    dff4:	e58d2018 	str	r2, [sp, #24]
    dff8:	eafff5c1 	b	b704 <Process_Out.constprop.1+0x1af4>
    dffc:	e58da018 	str	sl, [sp, #24]
    e000:	eafff5eb 	b	b7b4 <Process_Out.constprop.1+0x1ba4>
    e004:	e3e01000 	mvn	r1, #0
    e008:	eafff5bb 	b	b6fc <Process_Out.constprop.1+0x1aec>
    e00c:	e2833001 	add	r3, r3, #1
    e010:	e083300c 	add	r3, r3, ip
    e014:	eafffb91 	b	ce60 <Process_Out.constprop.1+0x3250>
    e018:	e2863001 	add	r3, r6, #1
    e01c:	e0843003 	add	r3, r4, r3
    e020:	eafffb75 	b	cdfc <Process_Out.constprop.1+0x31ec>
    e024:	e1a0600e 	mov	r6, lr
    e028:	eafffa03 	b	c83c <Process_Out.constprop.1+0x2c2c>
    e02c:	e3e02000 	mvn	r2, #0
    e030:	eafff9e2 	b	c7c0 <Process_Out.constprop.1+0x2bb0>
    e034:	e1a0600e 	mov	r6, lr
    e038:	eafff9e2 	b	c7c8 <Process_Out.constprop.1+0x2bb8>
    e03c:	e2843001 	add	r3, r4, #1
    e040:	e083300b 	add	r3, r3, fp
    e044:	eafffa45 	b	c960 <Process_Out.constprop.1+0x2d50>
    e048:	e2844001 	add	r4, r4, #1
    e04c:	e3e06000 	mvn	r6, #0
    e050:	e08e4004 	add	r4, lr, r4
    e054:	eafff9f8 	b	c83c <Process_Out.constprop.1+0x2c2c>
    e058:	e3e03000 	mvn	r3, #0
    e05c:	e2866001 	add	r6, r6, #1
    e060:	e08c6006 	add	r6, ip, r6
    e064:	e58d302c 	str	r3, [sp, #44]	; 0x2c
    e068:	eafffb20 	b	ccf0 <Process_Out.constprop.1+0x30e0>
    e06c:	e59d3004 	ldr	r3, [sp, #4]
    e070:	e2442001 	sub	r2, r4, #1
    e074:	e1a0400c 	mov	r4, ip
    e078:	e2833001 	add	r3, r3, #1
    e07c:	e6a33072 	sxtab	r3, r3, r2
    e080:	e58d3004 	str	r3, [sp, #4]
    e084:	eafff071 	b	a250 <Process_Out.constprop.1+0x640>
    e088:	e2833001 	add	r3, r3, #1
    e08c:	e083300c 	add	r3, r3, ip
    e090:	eafffa4a 	b	c9c0 <Process_Out.constprop.1+0x2db0>
    e094:	e58dc02c 	str	ip, [sp, #44]	; 0x2c
    e098:	eafffb14 	b	ccf0 <Process_Out.constprop.1+0x30e0>
    e09c:	e58dc02c 	str	ip, [sp, #44]	; 0x2c
    e0a0:	eafffae6 	b	cc40 <Process_Out.constprop.1+0x3030>
    e0a4:	e3e03000 	mvn	r3, #0
    e0a8:	eafffae2 	b	cc38 <Process_Out.constprop.1+0x3028>
    e0ac:	e59d6004 	ldr	r6, [sp, #4]
    e0b0:	eafffa6d 	b	ca6c <Process_Out.constprop.1+0x2e5c>

0000e0b4 <snprintf.constprop.0>:
    e0b4:	e92d000c 	push	{r2, r3}
    e0b8:	e3a01000 	mov	r1, #0
    e0bc:	e3a02c02 	mov	r2, #512	; 0x200
    e0c0:	e92d4030 	push	{r4, r5, lr}
    e0c4:	e3054a48 	movw	r4, #23112	; 0x5a48
    e0c8:	e3404001 	movt	r4, #1
    e0cc:	e24dd00c 	sub	sp, sp, #12
    e0d0:	e1a05000 	mov	r5, r0
    e0d4:	e28d301c 	add	r3, sp, #28
    e0d8:	e9840022 	stmib	r4, {r1, r5}
    e0dc:	e59d0018 	ldr	r0, [sp, #24]
    e0e0:	e58d3004 	str	r3, [sp, #4]
    e0e4:	e5842000 	str	r2, [r4]
    e0e8:	fa0010bd 	blx	123e4 <strlen>
    e0ec:	e59d2004 	ldr	r2, [sp, #4]
    e0f0:	e1a01000 	mov	r1, r0
    e0f4:	e59d0018 	ldr	r0, [sp, #24]
    e0f8:	ebffeec4 	bl	9c10 <Process_Out.constprop.1>
    e0fc:	e5943000 	ldr	r3, [r4]
    e100:	e3730001 	cmn	r3, #1
    e104:	0a00000a 	beq	e134 <snprintf.constprop.0+0x80>
    e108:	e5942004 	ldr	r2, [r4, #4]
    e10c:	e1530002 	cmp	r3, r2
    e110:	d5943008 	ldrle	r3, [r4, #8]
    e114:	ca000006 	bgt	e134 <snprintf.constprop.0+0x80>
    e118:	e1530005 	cmp	r3, r5
    e11c:	03a03000 	moveq	r3, #0
    e120:	05843008 	streq	r3, [r4, #8]
    e124:	e28dd00c 	add	sp, sp, #12
    e128:	e8bd4030 	pop	{r4, r5, lr}
    e12c:	e28dd008 	add	sp, sp, #8
    e130:	e12fff1e 	bx	lr
    e134:	e5943008 	ldr	r3, [r4, #8]
    e138:	e3530000 	cmp	r3, #0
    e13c:	13a01000 	movne	r1, #0
    e140:	15942004 	ldrne	r2, [r4, #4]
    e144:	1282c001 	addne	ip, r2, #1
    e148:	1584c004 	strne	ip, [r4, #4]
    e14c:	17c31002 	strbne	r1, [r3, r2]
    e150:	eafffff0 	b	e118 <snprintf.constprop.0+0x64>

0000e154 <vsscanf>:
    e154:	e92d4ff0 	push	{r4, r5, r6, r7, r8, r9, sl, fp, lr}
    e158:	e3500000 	cmp	r0, #0
    e15c:	13510000 	cmpne	r1, #0
    e160:	03a03001 	moveq	r3, #1
    e164:	e24dde52 	sub	sp, sp, #1312	; 0x520
    e168:	03a03000 	moveq	r3, #0
    e16c:	e24dd00c 	sub	sp, sp, #12
    e170:	13a03000 	movne	r3, #0
    e174:	058d3004 	streq	r3, [sp, #4]
    e178:	0a000021 	beq	e204 <vsscanf+0xb0>
    e17c:	e58d3018 	str	r3, [sp, #24]
    e180:	e1a04001 	mov	r4, r1
    e184:	e58d301c 	str	r3, [sp, #28]
    e188:	e1a05000 	mov	r5, r0
    e18c:	e58d3014 	str	r3, [sp, #20]
    e190:	e58d3004 	str	r3, [sp, #4]
    e194:	e28d3024 	add	r3, sp, #36	; 0x24
    e198:	e58d300c 	str	r3, [sp, #12]
    e19c:	e3a0300a 	mov	r3, #10
    e1a0:	e58d2008 	str	r2, [sp, #8]
    e1a4:	e58d3010 	str	r3, [sp, #16]
    e1a8:	e5d53000 	ldrb	r3, [r5]
    e1ac:	e3530000 	cmp	r3, #0
    e1b0:	0a000013 	beq	e204 <vsscanf+0xb0>
    e1b4:	e5d43000 	ldrb	r3, [r4]
    e1b8:	e3530000 	cmp	r3, #0
    e1bc:	0a000010 	beq	e204 <vsscanf+0xb0>
    e1c0:	fa000f95 	blx	1201c <__locale_ctype_ptr>
    e1c4:	e1a06004 	mov	r6, r4
    e1c8:	e4d43001 	ldrb	r3, [r4], #1
    e1cc:	e0800003 	add	r0, r0, r3
    e1d0:	e5d02001 	ldrb	r2, [r0, #1]
    e1d4:	e3120008 	tst	r2, #8
    e1d8:	1afffff8 	bne	e1c0 <vsscanf+0x6c>
    e1dc:	e3530025 	cmp	r3, #37	; 0x25
    e1e0:	0a00000b 	beq	e214 <vsscanf+0xc0>
    e1e4:	e5d52000 	ldrb	r2, [r5]
    e1e8:	e1520003 	cmp	r2, r3
    e1ec:	1a000004 	bne	e204 <vsscanf+0xb0>
    e1f0:	e2855001 	add	r5, r5, #1
    e1f4:	e5d53000 	ldrb	r3, [r5]
    e1f8:	e2864001 	add	r4, r6, #1
    e1fc:	e3530000 	cmp	r3, #0
    e200:	1affffeb 	bne	e1b4 <vsscanf+0x60>
    e204:	e59d0004 	ldr	r0, [sp, #4]
    e208:	e28dde52 	add	sp, sp, #1312	; 0x520
    e20c:	e28dd00c 	add	sp, sp, #12
    e210:	e8bd8ff0 	pop	{r4, r5, r6, r7, r8, r9, sl, fp, pc}
    e214:	e5d63001 	ldrb	r3, [r6, #1]
    e218:	e1a09004 	mov	r9, r4
    e21c:	e353002a 	cmp	r3, #42	; 0x2a
    e220:	03a03001 	moveq	r3, #1
    e224:	02855001 	addeq	r5, r5, #1
    e228:	058d3014 	streq	r3, [sp, #20]
    e22c:	fa000f7a 	blx	1201c <__locale_ctype_ptr>
    e230:	e5d68001 	ldrb	r8, [r6, #1]
    e234:	e0800008 	add	r0, r0, r8
    e238:	e5d03001 	ldrb	r3, [r0, #1]
    e23c:	e3130004 	tst	r3, #4
    e240:	11a08004 	movne	r8, r4
    e244:	1a000011 	bne	e290 <vsscanf+0x13c>
    e248:	e20830fb 	and	r3, r8, #251	; 0xfb
    e24c:	e3a07c01 	mov	r7, #256	; 0x100
    e250:	e3530068 	cmp	r3, #104	; 0x68
    e254:	0a000028 	beq	e2fc <vsscanf+0x1a8>
    e258:	e3580074 	cmp	r8, #116	; 0x74
    e25c:	1358004c 	cmpne	r8, #76	; 0x4c
    e260:	e20820ef 	and	r2, r8, #239	; 0xef
    e264:	03a03001 	moveq	r3, #1
    e268:	13a03000 	movne	r3, #0
    e26c:	e352006a 	cmp	r2, #106	; 0x6a
    e270:	03833001 	orreq	r3, r3, #1
    e274:	e3530000 	cmp	r3, #0
    e278:	15d9a001 	ldrbne	sl, [r9, #1]
    e27c:	1a000024 	bne	e314 <vsscanf+0x1c0>
    e280:	e1a0a008 	mov	sl, r8
    e284:	e1a08003 	mov	r8, r3
    e288:	ea000022 	b	e318 <vsscanf+0x1c4>
    e28c:	e1a08002 	mov	r8, r2
    e290:	fa000f61 	blx	1201c <__locale_ctype_ptr>
    e294:	e5d83000 	ldrb	r3, [r8]
    e298:	e2882001 	add	r2, r8, #1
    e29c:	e0800003 	add	r0, r0, r3
    e2a0:	e5d03001 	ldrb	r3, [r0, #1]
    e2a4:	e2133004 	ands	r3, r3, #4
    e2a8:	1afffff7 	bne	e28c <vsscanf+0x138>
    e2ac:	e0487004 	sub	r7, r8, r4
    e2b0:	e1a01004 	mov	r1, r4
    e2b4:	e1a02007 	mov	r2, r7
    e2b8:	e28d0028 	add	r0, sp, #40	; 0x28
    e2bc:	e1a06003 	mov	r6, r3
    e2c0:	fa00105e 	blx	12440 <strncpy>
    e2c4:	e28d3e52 	add	r3, sp, #1312	; 0x520
    e2c8:	e1a00004 	mov	r0, r4
    e2cc:	e2833008 	add	r3, r3, #8
    e2d0:	e3a0200a 	mov	r2, #10
    e2d4:	e0837007 	add	r7, r3, r7
    e2d8:	e59d100c 	ldr	r1, [sp, #12]
    e2dc:	e1a09008 	mov	r9, r8
    e2e0:	e5476500 	strb	r6, [r7, #-1280]	; 0xfffffb00
    e2e4:	fa0014bf 	blx	135e8 <strtol>
    e2e8:	e5d88000 	ldrb	r8, [r8]
    e2ec:	e1a07000 	mov	r7, r0
    e2f0:	e20830fb 	and	r3, r8, #251	; 0xfb
    e2f4:	e3530068 	cmp	r3, #104	; 0x68
    e2f8:	1affffd6 	bne	e258 <vsscanf+0x104>
    e2fc:	e5d9a001 	ldrb	sl, [r9, #1]
    e300:	e15a0008 	cmp	sl, r8
    e304:	03a03001 	moveq	r3, #1
    e308:	058d3018 	streq	r3, [sp, #24]
    e30c:	05d9a002 	ldrbeq	sl, [r9, #2]
    e310:	00899003 	addeq	r9, r9, r3
    e314:	e2899001 	add	r9, r9, #1
    e318:	e2894001 	add	r4, r9, #1
    e31c:	e35a0078 	cmp	sl, #120	; 0x78
    e320:	979ff10a 	ldrls	pc, [pc, sl, lsl #2]
    e324:	ea000247 	b	ec48 <vsscanf+0xaf4>
    e328:	0000e204 	.word	0x0000e204
    e32c:	0000ec48 	.word	0x0000ec48
    e330:	0000ec48 	.word	0x0000ec48
    e334:	0000ec48 	.word	0x0000ec48
    e338:	0000ec48 	.word	0x0000ec48
    e33c:	0000ec48 	.word	0x0000ec48
    e340:	0000ec48 	.word	0x0000ec48
    e344:	0000ec48 	.word	0x0000ec48
    e348:	0000ec48 	.word	0x0000ec48
    e34c:	0000ec48 	.word	0x0000ec48
    e350:	0000ec48 	.word	0x0000ec48
    e354:	0000ec48 	.word	0x0000ec48
    e358:	0000ec48 	.word	0x0000ec48
    e35c:	0000ec48 	.word	0x0000ec48
    e360:	0000ec48 	.word	0x0000ec48
    e364:	0000ec48 	.word	0x0000ec48
    e368:	0000ec48 	.word	0x0000ec48
    e36c:	0000ec48 	.word	0x0000ec48
    e370:	0000ec48 	.word	0x0000ec48
    e374:	0000ec48 	.word	0x0000ec48
    e378:	0000ec48 	.word	0x0000ec48
    e37c:	0000ec48 	.word	0x0000ec48
    e380:	0000ec48 	.word	0x0000ec48
    e384:	0000ec48 	.word	0x0000ec48
    e388:	0000ec48 	.word	0x0000ec48
    e38c:	0000ec48 	.word	0x0000ec48
    e390:	0000ec48 	.word	0x0000ec48
    e394:	0000ec48 	.word	0x0000ec48
    e398:	0000ec48 	.word	0x0000ec48
    e39c:	0000ec48 	.word	0x0000ec48
    e3a0:	0000ec48 	.word	0x0000ec48
    e3a4:	0000ec48 	.word	0x0000ec48
    e3a8:	0000ec48 	.word	0x0000ec48
    e3ac:	0000ec48 	.word	0x0000ec48
    e3b0:	0000ec48 	.word	0x0000ec48
    e3b4:	0000ec48 	.word	0x0000ec48
    e3b8:	0000ec48 	.word	0x0000ec48
    e3bc:	0000ec48 	.word	0x0000ec48
    e3c0:	0000ec48 	.word	0x0000ec48
    e3c4:	0000ec48 	.word	0x0000ec48
    e3c8:	0000ec48 	.word	0x0000ec48
    e3cc:	0000ec48 	.word	0x0000ec48
    e3d0:	0000ec48 	.word	0x0000ec48
    e3d4:	0000ec48 	.word	0x0000ec48
    e3d8:	0000ec48 	.word	0x0000ec48
    e3dc:	0000ec48 	.word	0x0000ec48
    e3e0:	0000ec48 	.word	0x0000ec48
    e3e4:	0000ec48 	.word	0x0000ec48
    e3e8:	0000ec48 	.word	0x0000ec48
    e3ec:	0000ec48 	.word	0x0000ec48
    e3f0:	0000ec48 	.word	0x0000ec48
    e3f4:	0000ec48 	.word	0x0000ec48
    e3f8:	0000ec48 	.word	0x0000ec48
    e3fc:	0000ec48 	.word	0x0000ec48
    e400:	0000ec48 	.word	0x0000ec48
    e404:	0000ec48 	.word	0x0000ec48
    e408:	0000ec48 	.word	0x0000ec48
    e40c:	0000ec48 	.word	0x0000ec48
    e410:	0000ec48 	.word	0x0000ec48
    e414:	0000ec48 	.word	0x0000ec48
    e418:	0000ec48 	.word	0x0000ec48
    e41c:	0000ec48 	.word	0x0000ec48
    e420:	0000ec48 	.word	0x0000ec48
    e424:	0000ec48 	.word	0x0000ec48
    e428:	0000ec48 	.word	0x0000ec48
    e42c:	0000e6a8 	.word	0x0000e6a8
    e430:	0000ec48 	.word	0x0000ec48
    e434:	0000ec48 	.word	0x0000ec48
    e438:	0000ec48 	.word	0x0000ec48
    e43c:	0000e6a8 	.word	0x0000e6a8
    e440:	0000e6a8 	.word	0x0000e6a8
    e444:	0000e6a8 	.word	0x0000e6a8
    e448:	0000ec48 	.word	0x0000ec48
    e44c:	0000ec48 	.word	0x0000ec48
    e450:	0000ec48 	.word	0x0000ec48
    e454:	0000ec48 	.word	0x0000ec48
    e458:	0000ec48 	.word	0x0000ec48
    e45c:	0000ec48 	.word	0x0000ec48
    e460:	0000ec48 	.word	0x0000ec48
    e464:	0000ec48 	.word	0x0000ec48
    e468:	0000ec48 	.word	0x0000ec48
    e46c:	0000ec48 	.word	0x0000ec48
    e470:	0000ec48 	.word	0x0000ec48
    e474:	0000ec48 	.word	0x0000ec48
    e478:	0000ec48 	.word	0x0000ec48
    e47c:	0000ec48 	.word	0x0000ec48
    e480:	0000ec48 	.word	0x0000ec48
    e484:	0000ec48 	.word	0x0000ec48
    e488:	0000e64c 	.word	0x0000e64c
    e48c:	0000ec48 	.word	0x0000ec48
    e490:	0000ec48 	.word	0x0000ec48
    e494:	0000e798 	.word	0x0000e798
    e498:	0000ec48 	.word	0x0000ec48
    e49c:	0000ec48 	.word	0x0000ec48
    e4a0:	0000ec48 	.word	0x0000ec48
    e4a4:	0000ec48 	.word	0x0000ec48
    e4a8:	0000ec48 	.word	0x0000ec48
    e4ac:	0000e6a8 	.word	0x0000e6a8
    e4b0:	0000ec48 	.word	0x0000ec48
    e4b4:	0000e6ec 	.word	0x0000e6ec
    e4b8:	0000e50c 	.word	0x0000e50c
    e4bc:	0000e6a8 	.word	0x0000e6a8
    e4c0:	0000e6a8 	.word	0x0000e6a8
    e4c4:	0000e6a8 	.word	0x0000e6a8
    e4c8:	0000ec48 	.word	0x0000ec48
    e4cc:	0000e50c 	.word	0x0000e50c
    e4d0:	0000ec48 	.word	0x0000ec48
    e4d4:	0000ec48 	.word	0x0000ec48
    e4d8:	0000ec48 	.word	0x0000ec48
    e4dc:	0000ec48 	.word	0x0000ec48
    e4e0:	0000ec48 	.word	0x0000ec48
    e4e4:	0000e64c 	.word	0x0000e64c
    e4e8:	0000e64c 	.word	0x0000e64c
    e4ec:	0000ec48 	.word	0x0000ec48
    e4f0:	0000ec48 	.word	0x0000ec48
    e4f4:	0000e6ec 	.word	0x0000e6ec
    e4f8:	0000ec48 	.word	0x0000ec48
    e4fc:	0000e64c 	.word	0x0000e64c
    e500:	0000ec48 	.word	0x0000ec48
    e504:	0000ec48 	.word	0x0000ec48
    e508:	0000e64c 	.word	0x0000e64c
    e50c:	fa000ec2 	blx	1201c <__locale_ctype_ptr>
    e510:	e1a06005 	mov	r6, r5
    e514:	e4d53001 	ldrb	r3, [r5], #1
    e518:	e0800003 	add	r0, r0, r3
    e51c:	e243202b 	sub	r2, r3, #43	; 0x2b
    e520:	e20220fd 	and	r2, r2, #253	; 0xfd
    e524:	e3530000 	cmp	r3, #0
    e528:	13520000 	cmpne	r2, #0
    e52c:	e5d01001 	ldrb	r1, [r0, #1]
    e530:	13a02001 	movne	r2, #1
    e534:	03a02000 	moveq	r2, #0
    e538:	e2211004 	eor	r1, r1, #4
    e53c:	e0122121 	ands	r2, r2, r1, lsr #2
    e540:	1afffff1 	bne	e50c <vsscanf+0x3b8>
    e544:	e3530000 	cmp	r3, #0
    e548:	0affff2d 	beq	e204 <vsscanf+0xb0>
    e54c:	e5d62001 	ldrb	r2, [r6, #1]
    e550:	e2865001 	add	r5, r6, #1
    e554:	e3520000 	cmp	r2, #0
    e558:	0affff29 	beq	e204 <vsscanf+0xb0>
    e55c:	e24a2041 	sub	r2, sl, #65	; 0x41
    e560:	e3520037 	cmp	r2, #55	; 0x37
    e564:	979ff102 	ldrls	pc, [pc, r2, lsl #2]
    e568:	ea000076 	b	e748 <vsscanf+0x5f4>
    e56c:	0000e7e0 	.word	0x0000e7e0
    e570:	0000e748 	.word	0x0000e748
    e574:	0000e748 	.word	0x0000e748
    e578:	0000e748 	.word	0x0000e748
    e57c:	0000e7e0 	.word	0x0000e7e0
    e580:	0000e7e0 	.word	0x0000e7e0
    e584:	0000e7e0 	.word	0x0000e7e0
    e588:	0000e748 	.word	0x0000e748
    e58c:	0000e748 	.word	0x0000e748
    e590:	0000e748 	.word	0x0000e748
    e594:	0000e748 	.word	0x0000e748
    e598:	0000e748 	.word	0x0000e748
    e59c:	0000e748 	.word	0x0000e748
    e5a0:	0000e748 	.word	0x0000e748
    e5a4:	0000e748 	.word	0x0000e748
    e5a8:	0000e748 	.word	0x0000e748
    e5ac:	0000e748 	.word	0x0000e748
    e5b0:	0000e748 	.word	0x0000e748
    e5b4:	0000e748 	.word	0x0000e748
    e5b8:	0000e748 	.word	0x0000e748
    e5bc:	0000e748 	.word	0x0000e748
    e5c0:	0000e748 	.word	0x0000e748
    e5c4:	0000e748 	.word	0x0000e748
    e5c8:	0000e70c 	.word	0x0000e70c
    e5cc:	0000e748 	.word	0x0000e748
    e5d0:	0000e748 	.word	0x0000e748
    e5d4:	0000e7b8 	.word	0x0000e7b8
    e5d8:	0000e748 	.word	0x0000e748
    e5dc:	0000e748 	.word	0x0000e748
    e5e0:	0000e748 	.word	0x0000e748
    e5e4:	0000e748 	.word	0x0000e748
    e5e8:	0000e748 	.word	0x0000e748
    e5ec:	0000e7e0 	.word	0x0000e7e0
    e5f0:	0000e748 	.word	0x0000e748
    e5f4:	0000e748 	.word	0x0000e748
    e5f8:	0000e864 	.word	0x0000e864
    e5fc:	0000e7e0 	.word	0x0000e7e0
    e600:	0000e7e0 	.word	0x0000e7e0
    e604:	0000e7e0 	.word	0x0000e7e0
    e608:	0000e748 	.word	0x0000e748
    e60c:	0000e990 	.word	0x0000e990
    e610:	0000e748 	.word	0x0000e748
    e614:	0000e748 	.word	0x0000e748
    e618:	0000e748 	.word	0x0000e748
    e61c:	0000e748 	.word	0x0000e748
    e620:	0000e748 	.word	0x0000e748
    e624:	0000e9c0 	.word	0x0000e9c0
    e628:	0000e990 	.word	0x0000e990
    e62c:	0000e748 	.word	0x0000e748
    e630:	0000e748 	.word	0x0000e748
    e634:	0000e9ec 	.word	0x0000e9ec
    e638:	0000e748 	.word	0x0000e748
    e63c:	0000e864 	.word	0x0000e864
    e640:	0000e748 	.word	0x0000e748
    e644:	0000e748 	.word	0x0000e748
    e648:	0000e70c 	.word	0x0000e70c
    e64c:	fa000e72 	blx	1201c <__locale_ctype_ptr>
    e650:	e1a06005 	mov	r6, r5
    e654:	e4d53001 	ldrb	r3, [r5], #1
    e658:	e0800003 	add	r0, r0, r3
    e65c:	e2933000 	adds	r3, r3, #0
    e660:	13a03001 	movne	r3, #1
    e664:	e5d02001 	ldrb	r2, [r0, #1]
    e668:	e2222004 	eor	r2, r2, #4
    e66c:	e0133122 	ands	r3, r3, r2, lsr #2
    e670:	1afffff5 	bne	e64c <vsscanf+0x4f8>
    e674:	e35a005b 	cmp	sl, #91	; 0x5b
    e678:	15d63000 	ldrbne	r3, [r6]
    e67c:	1affffb0 	bne	e544 <vsscanf+0x3f0>
    e680:	e5d93001 	ldrb	r3, [r9, #1]
    e684:	e1a05006 	mov	r5, r6
    e688:	e1a06004 	mov	r6, r4
    e68c:	e3530000 	cmp	r3, #0
    e690:	0afffedb 	beq	e204 <vsscanf+0xb0>
    e694:	e5d62001 	ldrb	r2, [r6, #1]
    e698:	e2864001 	add	r4, r6, #1
    e69c:	e3520000 	cmp	r2, #0
    e6a0:	1affffad 	bne	e55c <vsscanf+0x408>
    e6a4:	eafffed6 	b	e204 <vsscanf+0xb0>
    e6a8:	fa000e5b 	blx	1201c <__locale_ctype_ptr>
    e6ac:	e1a06005 	mov	r6, r5
    e6b0:	e4d53001 	ldrb	r3, [r5], #1
    e6b4:	e0800003 	add	r0, r0, r3
    e6b8:	e353002b 	cmp	r3, #43	; 0x2b
    e6bc:	13530000 	cmpne	r3, #0
    e6c0:	13a02001 	movne	r2, #1
    e6c4:	03a02000 	moveq	r2, #0
    e6c8:	e243302d 	sub	r3, r3, #45	; 0x2d
    e6cc:	e3530001 	cmp	r3, #1
    e6d0:	93a03000 	movls	r3, #0
    e6d4:	82023001 	andhi	r3, r2, #1
    e6d8:	e5d02001 	ldrb	r2, [r0, #1]
    e6dc:	e2222004 	eor	r2, r2, #4
    e6e0:	e0133122 	ands	r3, r3, r2, lsr #2
    e6e4:	1affffef 	bne	e6a8 <vsscanf+0x554>
    e6e8:	eaffffe1 	b	e674 <vsscanf+0x520>
    e6ec:	fa000e4a 	blx	1201c <__locale_ctype_ptr>
    e6f0:	e1a06005 	mov	r6, r5
    e6f4:	e4d53001 	ldrb	r3, [r5], #1
    e6f8:	e0800003 	add	r0, r0, r3
    e6fc:	e5d02001 	ldrb	r2, [r0, #1]
    e700:	e3120008 	tst	r2, #8
    e704:	1afffff8 	bne	e6ec <vsscanf+0x598>
    e708:	eaffff8d 	b	e544 <vsscanf+0x3f0>
    e70c:	e1a09005 	mov	r9, r5
    e710:	fa000e41 	blx	1201c <__locale_ctype_ptr>
    e714:	e5d93000 	ldrb	r3, [r9]
    e718:	e1a05009 	mov	r5, r9
    e71c:	e2899001 	add	r9, r9, #1
    e720:	e0800003 	add	r0, r0, r3
    e724:	e3c33020 	bic	r3, r3, #32
    e728:	e2433041 	sub	r3, r3, #65	; 0x41
    e72c:	e5d02001 	ldrb	r2, [r0, #1]
    e730:	e3120004 	tst	r2, #4
    e734:	1afffff5 	bne	e710 <vsscanf+0x5bc>
    e738:	e3530005 	cmp	r3, #5
    e73c:	9afffff3 	bls	e710 <vsscanf+0x5bc>
    e740:	e3a03010 	mov	r3, #16
    e744:	e58d3010 	str	r3, [sp, #16]
    e748:	e35a0063 	cmp	sl, #99	; 0x63
    e74c:	1a000139 	bne	ec38 <vsscanf+0xae4>
    e750:	e59d3014 	ldr	r3, [sp, #20]
    e754:	e3530000 	cmp	r3, #0
    e758:	1a0000ce 	bne	ea98 <vsscanf+0x944>
    e75c:	e3580000 	cmp	r8, #0
    e760:	0a000194 	beq	edb8 <vsscanf+0xc64>
    e764:	e358006c 	cmp	r8, #108	; 0x6c
    e768:	1a0000ca 	bne	ea98 <vsscanf+0x944>
    e76c:	e1a01006 	mov	r1, r6
    e770:	e3a02001 	mov	r2, #1
    e774:	e28d0f4a 	add	r0, sp, #296	; 0x128
    e778:	fa000e2f 	blx	1203c <mbstowcs>
    e77c:	e59d1008 	ldr	r1, [sp, #8]
    e780:	e59d2128 	ldr	r2, [sp, #296]	; 0x128
    e784:	e2811004 	add	r1, r1, #4
    e788:	e5113004 	ldr	r3, [r1, #-4]
    e78c:	e58d1008 	str	r1, [sp, #8]
    e790:	e5832000 	str	r2, [r3]
    e794:	ea0000bf 	b	ea98 <vsscanf+0x944>
    e798:	e5d93001 	ldrb	r3, [r9, #1]
    e79c:	e353005e 	cmp	r3, #94	; 0x5e
    e7a0:	11a06004 	movne	r6, r4
    e7a4:	03a02001 	moveq	r2, #1
    e7a8:	02896002 	addeq	r6, r9, #2
    e7ac:	05d93002 	ldrbeq	r3, [r9, #2]
    e7b0:	058d201c 	streq	r2, [sp, #28]
    e7b4:	eaffffb4 	b	e68c <vsscanf+0x538>
    e7b8:	e5d43000 	ldrb	r3, [r4]
    e7bc:	e353005d 	cmp	r3, #93	; 0x5d
    e7c0:	13530000 	cmpne	r3, #0
    e7c4:	0a000003 	beq	e7d8 <vsscanf+0x684>
    e7c8:	e5f43001 	ldrb	r3, [r4, #1]!
    e7cc:	e353005d 	cmp	r3, #93	; 0x5d
    e7d0:	13530000 	cmpne	r3, #0
    e7d4:	1afffffb 	bne	e7c8 <vsscanf+0x674>
    e7d8:	e0449006 	sub	r9, r4, r6
    e7dc:	ea00002a 	b	e88c <vsscanf+0x738>
    e7e0:	e243b02e 	sub	fp, r3, #46	; 0x2e
    e7e4:	e3a09000 	mov	r9, #0
    e7e8:	e16fbf1b 	clz	fp, fp
    e7ec:	e1a0b2ab 	lsr	fp, fp, #5
    e7f0:	ea000000 	b	e7f8 <vsscanf+0x6a4>
    e7f4:	e2855001 	add	r5, r5, #1
    e7f8:	e35b0000 	cmp	fp, #0
    e7fc:	1a000003 	bne	e810 <vsscanf+0x6bc>
    e800:	e5d53000 	ldrb	r3, [r5]
    e804:	e353002e 	cmp	r3, #46	; 0x2e
    e808:	02855001 	addeq	r5, r5, #1
    e80c:	03a0b001 	moveq	fp, #1
    e810:	e3590000 	cmp	r9, #0
    e814:	1a000009 	bne	e840 <vsscanf+0x6ec>
    e818:	e5d53000 	ldrb	r3, [r5]
    e81c:	e20330df 	and	r3, r3, #223	; 0xdf
    e820:	e3530045 	cmp	r3, #69	; 0x45
    e824:	1a000005 	bne	e840 <vsscanf+0x6ec>
    e828:	e5d53001 	ldrb	r3, [r5, #1]
    e82c:	e3a09001 	mov	r9, #1
    e830:	e353002d 	cmp	r3, #45	; 0x2d
    e834:	10855009 	addne	r5, r5, r9
    e838:	02855002 	addeq	r5, r5, #2
    e83c:	03a09001 	moveq	r9, #1
    e840:	fa000df5 	blx	1201c <__locale_ctype_ptr>
    e844:	e5d53000 	ldrb	r3, [r5]
    e848:	e0800003 	add	r0, r0, r3
    e84c:	e5d03001 	ldrb	r3, [r0, #1]
    e850:	e3130004 	tst	r3, #4
    e854:	1affffe6 	bne	e7f4 <vsscanf+0x6a0>
    e858:	e35a0063 	cmp	sl, #99	; 0x63
    e85c:	0affffbb 	beq	e750 <vsscanf+0x5fc>
    e860:	ea0000f4 	b	ec38 <vsscanf+0xae4>
    e864:	e1a09005 	mov	r9, r5
    e868:	e1a05009 	mov	r5, r9
    e86c:	fa000dea 	blx	1201c <__locale_ctype_ptr>
    e870:	e2899001 	add	r9, r9, #1
    e874:	e5d53000 	ldrb	r3, [r5]
    e878:	e0800003 	add	r0, r0, r3
    e87c:	e5d03001 	ldrb	r3, [r0, #1]
    e880:	e3130004 	tst	r3, #4
    e884:	1afffff7 	bne	e868 <vsscanf+0x714>
    e888:	e0459006 	sub	r9, r5, r6
    e88c:	e1a02009 	mov	r2, r9
    e890:	e1a01006 	mov	r1, r6
    e894:	e28d0028 	add	r0, sp, #40	; 0x28
    e898:	fa000ee8 	blx	12440 <strncpy>
    e89c:	e28d3e52 	add	r3, sp, #1312	; 0x520
    e8a0:	e2833008 	add	r3, r3, #8
    e8a4:	e3a02000 	mov	r2, #0
    e8a8:	e0839009 	add	r9, r3, r9
    e8ac:	e24a3045 	sub	r3, sl, #69	; 0x45
    e8b0:	e5492500 	strb	r2, [r9, #-1280]	; 0xfffffb00
    e8b4:	e3530033 	cmp	r3, #51	; 0x33
    e8b8:	979ff103 	ldrls	pc, [pc, r3, lsl #2]
    e8bc:	ea0000c8 	b	ebe4 <vsscanf+0xa90>
    e8c0:	0000ebf0 	.word	0x0000ebf0
    e8c4:	0000ebf0 	.word	0x0000ebf0
    e8c8:	0000ebf0 	.word	0x0000ebf0
    e8cc:	0000ebe4 	.word	0x0000ebe4
    e8d0:	0000ebe4 	.word	0x0000ebe4
    e8d4:	0000ebe4 	.word	0x0000ebe4
    e8d8:	0000ebe4 	.word	0x0000ebe4
    e8dc:	0000ebe4 	.word	0x0000ebe4
    e8e0:	0000ebe4 	.word	0x0000ebe4
    e8e4:	0000ebe4 	.word	0x0000ebe4
    e8e8:	0000ebe4 	.word	0x0000ebe4
    e8ec:	0000ebe4 	.word	0x0000ebe4
    e8f0:	0000ebe4 	.word	0x0000ebe4
    e8f4:	0000ebe4 	.word	0x0000ebe4
    e8f8:	0000ebe4 	.word	0x0000ebe4
    e8fc:	0000ebe4 	.word	0x0000ebe4
    e900:	0000ebe4 	.word	0x0000ebe4
    e904:	0000ebe4 	.word	0x0000ebe4
    e908:	0000ebe4 	.word	0x0000ebe4
    e90c:	0000eb84 	.word	0x0000eb84
    e910:	0000ebe4 	.word	0x0000ebe4
    e914:	0000ebe4 	.word	0x0000ebe4
    e918:	0000eb0c 	.word	0x0000eb0c
    e91c:	0000ebe4 	.word	0x0000ebe4
    e920:	0000ebe4 	.word	0x0000ebe4
    e924:	0000ebe4 	.word	0x0000ebe4
    e928:	0000ebe4 	.word	0x0000ebe4
    e92c:	0000ebe4 	.word	0x0000ebe4
    e930:	0000ebe4 	.word	0x0000ebe4
    e934:	0000ebe4 	.word	0x0000ebe4
    e938:	0000e750 	.word	0x0000e750
    e93c:	0000eaa8 	.word	0x0000eaa8
    e940:	0000ebf0 	.word	0x0000ebf0
    e944:	0000ebf0 	.word	0x0000ebf0
    e948:	0000ebf0 	.word	0x0000ebf0
    e94c:	0000ebe4 	.word	0x0000ebe4
    e950:	0000eaa8 	.word	0x0000eaa8
    e954:	0000ebe4 	.word	0x0000ebe4
    e958:	0000ebe4 	.word	0x0000ebe4
    e95c:	0000ebe4 	.word	0x0000ebe4
    e960:	0000ebe4 	.word	0x0000ebe4
    e964:	0000ebe4 	.word	0x0000ebe4
    e968:	0000eb84 	.word	0x0000eb84
    e96c:	0000ea7c 	.word	0x0000ea7c
    e970:	0000ebe4 	.word	0x0000ebe4
    e974:	0000ebe4 	.word	0x0000ebe4
    e978:	0000ea2c 	.word	0x0000ea2c
    e97c:	0000ebe4 	.word	0x0000ebe4
    e980:	0000eb84 	.word	0x0000eb84
    e984:	0000ebe4 	.word	0x0000ebe4
    e988:	0000ebe4 	.word	0x0000ebe4
    e98c:	0000eb84 	.word	0x0000eb84
    e990:	e3530030 	cmp	r3, #48	; 0x30
    e994:	11a09005 	movne	r9, r5
    e998:	0a0000b9 	beq	ec84 <vsscanf+0xb30>
    e99c:	e1a05009 	mov	r5, r9
    e9a0:	fa000d9d 	blx	1201c <__locale_ctype_ptr>
    e9a4:	e2899001 	add	r9, r9, #1
    e9a8:	e5d53000 	ldrb	r3, [r5]
    e9ac:	e0800003 	add	r0, r0, r3
    e9b0:	e5d03001 	ldrb	r3, [r0, #1]
    e9b4:	e3130004 	tst	r3, #4
    e9b8:	1afffff7 	bne	e99c <vsscanf+0x848>
    e9bc:	eaffffb1 	b	e888 <vsscanf+0x734>
    e9c0:	e5d53000 	ldrb	r3, [r5]
    e9c4:	e2433030 	sub	r3, r3, #48	; 0x30
    e9c8:	e3530007 	cmp	r3, #7
    e9cc:	8a000003 	bhi	e9e0 <vsscanf+0x88c>
    e9d0:	e5f53001 	ldrb	r3, [r5, #1]!
    e9d4:	e2433030 	sub	r3, r3, #48	; 0x30
    e9d8:	e3530007 	cmp	r3, #7
    e9dc:	9afffffb 	bls	e9d0 <vsscanf+0x87c>
    e9e0:	e3a03008 	mov	r3, #8
    e9e4:	e58d3010 	str	r3, [sp, #16]
    e9e8:	eaffffa6 	b	e888 <vsscanf+0x734>
    e9ec:	e1a09005 	mov	r9, r5
    e9f0:	ea000002 	b	ea00 <vsscanf+0x8ac>
    e9f4:	e3570000 	cmp	r7, #0
    e9f8:	0affffa2 	beq	e888 <vsscanf+0x734>
    e9fc:	e2477001 	sub	r7, r7, #1
    ea00:	fa000d85 	blx	1201c <__locale_ctype_ptr>
    ea04:	e1a05009 	mov	r5, r9
    ea08:	e4d93001 	ldrb	r3, [r9], #1
    ea0c:	e0800003 	add	r0, r0, r3
    ea10:	e2933000 	adds	r3, r3, #0
    ea14:	13a03001 	movne	r3, #1
    ea18:	e5d02001 	ldrb	r2, [r0, #1]
    ea1c:	e2222008 	eor	r2, r2, #8
    ea20:	e01331a2 	ands	r3, r3, r2, lsr #3
    ea24:	1afffff2 	bne	e9f4 <vsscanf+0x8a0>
    ea28:	eaffff96 	b	e888 <vsscanf+0x734>
    ea2c:	e59d3014 	ldr	r3, [sp, #20]
    ea30:	e3530000 	cmp	r3, #0
    ea34:	1a000017 	bne	ea98 <vsscanf+0x944>
    ea38:	e3580000 	cmp	r8, #0
    ea3c:	0a0000e4 	beq	edd4 <vsscanf+0xc80>
    ea40:	e358006c 	cmp	r8, #108	; 0x6c
    ea44:	1a000013 	bne	ea98 <vsscanf+0x944>
    ea48:	e59d7008 	ldr	r7, [sp, #8]
    ea4c:	e28d0028 	add	r0, sp, #40	; 0x28
    ea50:	fa000e63 	blx	123e4 <strlen>
    ea54:	e28d1028 	add	r1, sp, #40	; 0x28
    ea58:	e2802001 	add	r2, r0, #1
    ea5c:	e28d0f4a 	add	r0, sp, #296	; 0x128
    ea60:	fa000d75 	blx	1203c <mbstowcs>
    ea64:	e2876004 	add	r6, r7, #4
    ea68:	e5970000 	ldr	r0, [r7]
    ea6c:	e28d1f4a 	add	r1, sp, #296	; 0x128
    ea70:	e58d6008 	str	r6, [sp, #8]
    ea74:	fa001442 	blx	13b84 <wcscpy>
    ea78:	ea000006 	b	ea98 <vsscanf+0x944>
    ea7c:	e3a02010 	mov	r2, #16
    ea80:	e59d100c 	ldr	r1, [sp, #12]
    ea84:	e28d0028 	add	r0, sp, #40	; 0x28
    ea88:	fa0012d6 	blx	135e8 <strtol>
    ea8c:	e59d3014 	ldr	r3, [sp, #20]
    ea90:	e3530000 	cmp	r3, #0
    ea94:	0a000074 	beq	ec6c <vsscanf+0xb18>
    ea98:	e59d3004 	ldr	r3, [sp, #4]
    ea9c:	e2833001 	add	r3, r3, #1
    eaa0:	e58d3004 	str	r3, [sp, #4]
    eaa4:	eafffdbf 	b	e1a8 <vsscanf+0x54>
    eaa8:	e59d3014 	ldr	r3, [sp, #20]
    eaac:	e3530000 	cmp	r3, #0
    eab0:	1afffff8 	bne	ea98 <vsscanf+0x944>
    eab4:	e358006a 	cmp	r8, #106	; 0x6a
    eab8:	0a0000e3 	beq	ee4c <vsscanf+0xcf8>
    eabc:	9a000085 	bls	ecd8 <vsscanf+0xb84>
    eac0:	e3580074 	cmp	r8, #116	; 0x74
    eac4:	0a000064 	beq	ec5c <vsscanf+0xb08>
    eac8:	e358007a 	cmp	r8, #122	; 0x7a
    eacc:	0a000062 	beq	ec5c <vsscanf+0xb08>
    ead0:	e358006c 	cmp	r8, #108	; 0x6c
    ead4:	1affffef 	bne	ea98 <vsscanf+0x944>
    ead8:	e59d3018 	ldr	r3, [sp, #24]
    eadc:	e28d0028 	add	r0, sp, #40	; 0x28
    eae0:	e59d2010 	ldr	r2, [sp, #16]
    eae4:	e3530000 	cmp	r3, #0
    eae8:	e59d100c 	ldr	r1, [sp, #12]
    eaec:	0a00005d 	beq	ec68 <vsscanf+0xb14>
    eaf0:	fa001347 	blx	13814 <strtoll>
    eaf4:	e59d2008 	ldr	r2, [sp, #8]
    eaf8:	e2822004 	add	r2, r2, #4
    eafc:	e5123004 	ldr	r3, [r2, #-4]
    eb00:	e58d2008 	str	r2, [sp, #8]
    eb04:	e1c300f0 	strd	r0, [r3]
    eb08:	eaffffe2 	b	ea98 <vsscanf+0x944>
    eb0c:	e59d301c 	ldr	r3, [sp, #28]
    eb10:	e1a06005 	mov	r6, r5
    eb14:	e3530000 	cmp	r3, #0
    eb18:	0a00000c 	beq	eb50 <vsscanf+0x9fc>
    eb1c:	e1a05006 	mov	r5, r6
    eb20:	e28d0028 	add	r0, sp, #40	; 0x28
    eb24:	e2866001 	add	r6, r6, #1
    eb28:	e5d51000 	ldrb	r1, [r5]
    eb2c:	fa000dc3 	blx	12240 <strchr>
    eb30:	e2973000 	adds	r3, r7, #0
    eb34:	13a03001 	movne	r3, #1
    eb38:	e3500000 	cmp	r0, #0
    eb3c:	13a03000 	movne	r3, #0
    eb40:	e2477001 	sub	r7, r7, #1
    eb44:	e3530000 	cmp	r3, #0
    eb48:	1afffff3 	bne	eb1c <vsscanf+0x9c8>
    eb4c:	eafffd95 	b	e1a8 <vsscanf+0x54>
    eb50:	e1a05006 	mov	r5, r6
    eb54:	e28d0028 	add	r0, sp, #40	; 0x28
    eb58:	e2866001 	add	r6, r6, #1
    eb5c:	e5d51000 	ldrb	r1, [r5]
    eb60:	fa000db6 	blx	12240 <strchr>
    eb64:	e3500000 	cmp	r0, #0
    eb68:	13570000 	cmpne	r7, #0
    eb6c:	13a00001 	movne	r0, #1
    eb70:	03a00000 	moveq	r0, #0
    eb74:	e2477001 	sub	r7, r7, #1
    eb78:	1afffff4 	bne	eb50 <vsscanf+0x9fc>
    eb7c:	e58d001c 	str	r0, [sp, #28]
    eb80:	eafffd88 	b	e1a8 <vsscanf+0x54>
    eb84:	e59d3014 	ldr	r3, [sp, #20]
    eb88:	e3530000 	cmp	r3, #0
    eb8c:	1a000014 	bne	ebe4 <vsscanf+0xa90>
    eb90:	e358006a 	cmp	r8, #106	; 0x6a
    eb94:	0a0000b8 	beq	ee7c <vsscanf+0xd28>
    eb98:	9a00005f 	bls	ed1c <vsscanf+0xbc8>
    eb9c:	e3580074 	cmp	r8, #116	; 0x74
    eba0:	0a00007a 	beq	ed90 <vsscanf+0xc3c>
    eba4:	e358007a 	cmp	r8, #122	; 0x7a
    eba8:	0a000078 	beq	ed90 <vsscanf+0xc3c>
    ebac:	e358006c 	cmp	r8, #108	; 0x6c
    ebb0:	1a00000b 	bne	ebe4 <vsscanf+0xa90>
    ebb4:	e59d3018 	ldr	r3, [sp, #24]
    ebb8:	e28d0028 	add	r0, sp, #40	; 0x28
    ebbc:	e59d2010 	ldr	r2, [sp, #16]
    ebc0:	e3530000 	cmp	r3, #0
    ebc4:	e59d100c 	ldr	r1, [sp, #12]
    ebc8:	0a000073 	beq	ed9c <vsscanf+0xc48>
    ebcc:	fa0013e0 	blx	13b54 <strtoull>
    ebd0:	e59d2008 	ldr	r2, [sp, #8]
    ebd4:	e2822004 	add	r2, r2, #4
    ebd8:	e5123004 	ldr	r3, [r2, #-4]
    ebdc:	e58d2008 	str	r2, [sp, #8]
    ebe0:	e1c300f0 	strd	r0, [r3]
    ebe4:	e35a005b 	cmp	sl, #91	; 0x5b
    ebe8:	1affffaa 	bne	ea98 <vsscanf+0x944>
    ebec:	eafffd6d 	b	e1a8 <vsscanf+0x54>
    ebf0:	e59d3014 	ldr	r3, [sp, #20]
    ebf4:	e3530000 	cmp	r3, #0
    ebf8:	1afffff9 	bne	ebe4 <vsscanf+0xa90>
    ebfc:	e358004c 	cmp	r8, #76	; 0x4c
    ec00:	0a000083 	beq	ee14 <vsscanf+0xcc0>
    ec04:	e358006c 	cmp	r8, #108	; 0x6c
    ec08:	0a000078 	beq	edf0 <vsscanf+0xc9c>
    ec0c:	e3580000 	cmp	r8, #0
    ec10:	1afffff3 	bne	ebe4 <vsscanf+0xa90>
    ec14:	e59d100c 	ldr	r1, [sp, #12]
    ec18:	e28d0028 	add	r0, sp, #40	; 0x28
    ec1c:	fa0011f7 	blx	13400 <strtof>
    ec20:	e59d2008 	ldr	r2, [sp, #8]
    ec24:	e2822004 	add	r2, r2, #4
    ec28:	e5123004 	ldr	r3, [r2, #-4]
    ec2c:	e58d2008 	str	r2, [sp, #8]
    ec30:	ed830a00 	vstr	s0, [r3]
    ec34:	eaffffea 	b	ebe4 <vsscanf+0xa90>
    ec38:	e35a005b 	cmp	sl, #91	; 0x5b
    ec3c:	1affff11 	bne	e888 <vsscanf+0x734>
    ec40:	e0449006 	sub	r9, r4, r6
    ec44:	eaffff10 	b	e88c <vsscanf+0x738>
    ec48:	e1a06005 	mov	r6, r5
    ec4c:	e35a005b 	cmp	sl, #91	; 0x5b
    ec50:	15d63000 	ldrbne	r3, [r6]
    ec54:	1afffe3a 	bne	e544 <vsscanf+0x3f0>
    ec58:	eafffe88 	b	e680 <vsscanf+0x52c>
    ec5c:	e59d2010 	ldr	r2, [sp, #16]
    ec60:	e28d0028 	add	r0, sp, #40	; 0x28
    ec64:	e59d100c 	ldr	r1, [sp, #12]
    ec68:	fa00125e 	blx	135e8 <strtol>
    ec6c:	e59d2008 	ldr	r2, [sp, #8]
    ec70:	e2822004 	add	r2, r2, #4
    ec74:	e5123004 	ldr	r3, [r2, #-4]
    ec78:	e58d2008 	str	r2, [sp, #8]
    ec7c:	e5830000 	str	r0, [r3]
    ec80:	eaffff84 	b	ea98 <vsscanf+0x944>
    ec84:	e5d53000 	ldrb	r3, [r5]
    ec88:	e3530062 	cmp	r3, #98	; 0x62
    ec8c:	0a000033 	beq	ed60 <vsscanf+0xc0c>
    ec90:	e3530078 	cmp	r3, #120	; 0x78
    ec94:	1a000062 	bne	ee24 <vsscanf+0xcd0>
    ec98:	e2859001 	add	r9, r5, #1
    ec9c:	fa000cde 	blx	1201c <__locale_ctype_ptr>
    eca0:	e5d93000 	ldrb	r3, [r9]
    eca4:	e1a05009 	mov	r5, r9
    eca8:	e2899001 	add	r9, r9, #1
    ecac:	e0800003 	add	r0, r0, r3
    ecb0:	e3c33020 	bic	r3, r3, #32
    ecb4:	e2433041 	sub	r3, r3, #65	; 0x41
    ecb8:	e5d02001 	ldrb	r2, [r0, #1]
    ecbc:	e3120004 	tst	r2, #4
    ecc0:	1afffff5 	bne	ec9c <vsscanf+0xb48>
    ecc4:	e3530005 	cmp	r3, #5
    ecc8:	9afffff3 	bls	ec9c <vsscanf+0xb48>
    eccc:	e3a03010 	mov	r3, #16
    ecd0:	e58d3010 	str	r3, [sp, #16]
    ecd4:	eafffeeb 	b	e888 <vsscanf+0x734>
    ecd8:	e3580000 	cmp	r8, #0
    ecdc:	0affffde 	beq	ec5c <vsscanf+0xb08>
    ece0:	e3580068 	cmp	r8, #104	; 0x68
    ece4:	1affff6b 	bne	ea98 <vsscanf+0x944>
    ece8:	e59d3018 	ldr	r3, [sp, #24]
    ecec:	e28d0028 	add	r0, sp, #40	; 0x28
    ecf0:	e59d2010 	ldr	r2, [sp, #16]
    ecf4:	e3530000 	cmp	r3, #0
    ecf8:	e59d100c 	ldr	r1, [sp, #12]
    ecfc:	0a00006a 	beq	eeac <vsscanf+0xd58>
    ed00:	fa001238 	blx	135e8 <strtol>
    ed04:	e59d2008 	ldr	r2, [sp, #8]
    ed08:	e2822004 	add	r2, r2, #4
    ed0c:	e5123004 	ldr	r3, [r2, #-4]
    ed10:	e58d2008 	str	r2, [sp, #8]
    ed14:	e5c30000 	strb	r0, [r3]
    ed18:	eaffff5e 	b	ea98 <vsscanf+0x944>
    ed1c:	e3580000 	cmp	r8, #0
    ed20:	0a00001a 	beq	ed90 <vsscanf+0xc3c>
    ed24:	e3580068 	cmp	r8, #104	; 0x68
    ed28:	1affffad 	bne	ebe4 <vsscanf+0xa90>
    ed2c:	e59d3018 	ldr	r3, [sp, #24]
    ed30:	e28d0028 	add	r0, sp, #40	; 0x28
    ed34:	e59d2010 	ldr	r2, [sp, #16]
    ed38:	e3530000 	cmp	r3, #0
    ed3c:	e59d100c 	ldr	r1, [sp, #12]
    ed40:	0a000060 	beq	eec8 <vsscanf+0xd74>
    ed44:	fa00130d 	blx	13980 <strtoul>
    ed48:	e59d2008 	ldr	r2, [sp, #8]
    ed4c:	e2822004 	add	r2, r2, #4
    ed50:	e5123004 	ldr	r3, [r2, #-4]
    ed54:	e58d2008 	str	r2, [sp, #8]
    ed58:	e5c30000 	strb	r0, [r3]
    ed5c:	eaffffa0 	b	ebe4 <vsscanf+0xa90>
    ed60:	e5d53001 	ldrb	r3, [r5, #1]
    ed64:	e2855001 	add	r5, r5, #1
    ed68:	e2433030 	sub	r3, r3, #48	; 0x30
    ed6c:	e3530001 	cmp	r3, #1
    ed70:	8a000003 	bhi	ed84 <vsscanf+0xc30>
    ed74:	e5f53001 	ldrb	r3, [r5, #1]!
    ed78:	e2433030 	sub	r3, r3, #48	; 0x30
    ed7c:	e3530001 	cmp	r3, #1
    ed80:	9afffffb 	bls	ed74 <vsscanf+0xc20>
    ed84:	e3a03002 	mov	r3, #2
    ed88:	e58d3010 	str	r3, [sp, #16]
    ed8c:	eafffebd 	b	e888 <vsscanf+0x734>
    ed90:	e59d2010 	ldr	r2, [sp, #16]
    ed94:	e28d0028 	add	r0, sp, #40	; 0x28
    ed98:	e59d100c 	ldr	r1, [sp, #12]
    ed9c:	fa0012f7 	blx	13980 <strtoul>
    eda0:	e59d2008 	ldr	r2, [sp, #8]
    eda4:	e2822004 	add	r2, r2, #4
    eda8:	e5123004 	ldr	r3, [r2, #-4]
    edac:	e58d2008 	str	r2, [sp, #8]
    edb0:	e5830000 	str	r0, [r3]
    edb4:	eaffff8a 	b	ebe4 <vsscanf+0xa90>
    edb8:	e59d2008 	ldr	r2, [sp, #8]
    edbc:	e2822004 	add	r2, r2, #4
    edc0:	e5123004 	ldr	r3, [r2, #-4]
    edc4:	e58d2008 	str	r2, [sp, #8]
    edc8:	e5d62000 	ldrb	r2, [r6]
    edcc:	e5c32000 	strb	r2, [r3]
    edd0:	eaffff30 	b	ea98 <vsscanf+0x944>
    edd4:	e59d2008 	ldr	r2, [sp, #8]
    edd8:	e28d1028 	add	r1, sp, #40	; 0x28
    eddc:	e2823004 	add	r3, r2, #4
    ede0:	e58d3008 	str	r3, [sp, #8]
    ede4:	e5920000 	ldr	r0, [r2]
    ede8:	fa000d4e 	blx	12328 <strcpy>
    edec:	eaffff29 	b	ea98 <vsscanf+0x944>
    edf0:	e59d100c 	ldr	r1, [sp, #12]
    edf4:	e28d0028 	add	r0, sp, #40	; 0x28
    edf8:	fa001175 	blx	133d4 <strtod>
    edfc:	e59d2008 	ldr	r2, [sp, #8]
    ee00:	e2822004 	add	r2, r2, #4
    ee04:	e5123004 	ldr	r3, [r2, #-4]
    ee08:	e58d2008 	str	r2, [sp, #8]
    ee0c:	ed830b00 	vstr	d0, [r3]
    ee10:	eaffff73 	b	ebe4 <vsscanf+0xa90>
    ee14:	e59d100c 	ldr	r1, [sp, #12]
    ee18:	e28d0028 	add	r0, sp, #40	; 0x28
    ee1c:	fa0011fd 	blx	13618 <strtold>
    ee20:	eafffff5 	b	edfc <vsscanf+0xca8>
    ee24:	e5d53001 	ldrb	r3, [r5, #1]
    ee28:	e2855001 	add	r5, r5, #1
    ee2c:	e2433030 	sub	r3, r3, #48	; 0x30
    ee30:	e3530007 	cmp	r3, #7
    ee34:	8afffee9 	bhi	e9e0 <vsscanf+0x88c>
    ee38:	e5f53001 	ldrb	r3, [r5, #1]!
    ee3c:	e2433030 	sub	r3, r3, #48	; 0x30
    ee40:	e3530007 	cmp	r3, #7
    ee44:	9afffffb 	bls	ee38 <vsscanf+0xce4>
    ee48:	eafffee4 	b	e9e0 <vsscanf+0x88c>
    ee4c:	e59d2010 	ldr	r2, [sp, #16]
    ee50:	e28d0028 	add	r0, sp, #40	; 0x28
    ee54:	e59d100c 	ldr	r1, [sp, #12]
    ee58:	fa0011e2 	blx	135e8 <strtol>
    ee5c:	ee800b90 	vdup.32	d16, r0
    ee60:	e59d2008 	ldr	r2, [sp, #8]
    ee64:	e2822004 	add	r2, r2, #4
    ee68:	e5123004 	ldr	r3, [r2, #-4]
    ee6c:	f2e000b0 	vshr.s64	d16, d16, #32
    ee70:	e58d2008 	str	r2, [sp, #8]
    ee74:	edc30b00 	vstr	d16, [r3]
    ee78:	eaffff06 	b	ea98 <vsscanf+0x944>
    ee7c:	e59d2010 	ldr	r2, [sp, #16]
    ee80:	e28d0028 	add	r0, sp, #40	; 0x28
    ee84:	e59d100c 	ldr	r1, [sp, #12]
    ee88:	fa0012bc 	blx	13980 <strtoul>
    ee8c:	e59d2008 	ldr	r2, [sp, #8]
    ee90:	e2822004 	add	r2, r2, #4
    ee94:	e5123004 	ldr	r3, [r2, #-4]
    ee98:	e58d2008 	str	r2, [sp, #8]
    ee9c:	e59d2014 	ldr	r2, [sp, #20]
    eea0:	e5830000 	str	r0, [r3]
    eea4:	e5832004 	str	r2, [r3, #4]
    eea8:	eaffff4d 	b	ebe4 <vsscanf+0xa90>
    eeac:	fa0011cd 	blx	135e8 <strtol>
    eeb0:	e59d2008 	ldr	r2, [sp, #8]
    eeb4:	e2822004 	add	r2, r2, #4
    eeb8:	e5123004 	ldr	r3, [r2, #-4]
    eebc:	e58d2008 	str	r2, [sp, #8]
    eec0:	e1c300b0 	strh	r0, [r3]
    eec4:	eafffef3 	b	ea98 <vsscanf+0x944>
    eec8:	fa0012ac 	blx	13980 <strtoul>
    eecc:	e59d2008 	ldr	r2, [sp, #8]
    eed0:	e2822004 	add	r2, r2, #4
    eed4:	e5123004 	ldr	r3, [r2, #-4]
    eed8:	e58d2008 	str	r2, [sp, #8]
    eedc:	e1c300b0 	strh	r0, [r3]
    eee0:	eaffff3f 	b	ebe4 <vsscanf+0xa90>

0000eee4 <sscanf>:
    eee4:	e92d000e 	push	{r1, r2, r3}
    eee8:	e2503000 	subs	r3, r0, #0
    eeec:	01a00003 	moveq	r0, r3
    eef0:	e52de004 	push	{lr}		; (str lr, [sp, #-4]!)
    eef4:	e24dd008 	sub	sp, sp, #8
    eef8:	0a000004 	beq	ef10 <sscanf+0x2c>
    eefc:	e28d3010 	add	r3, sp, #16
    ef00:	e59d100c 	ldr	r1, [sp, #12]
    ef04:	e1a02003 	mov	r2, r3
    ef08:	e58d3004 	str	r3, [sp, #4]
    ef0c:	ebfffc90 	bl	e154 <vsscanf>
    ef10:	e28dd008 	add	sp, sp, #8
    ef14:	e49de004 	pop	{lr}		; (ldr lr, [sp], #4)
    ef18:	e28dd00c 	add	sp, sp, #12
    ef1c:	e12fff1e 	bx	lr

0000ef20 <Init_EmbStdio>:
    ef20:	e3053a48 	movw	r3, #23112	; 0x5a48
    ef24:	e3403001 	movt	r3, #1
    ef28:	e593200c 	ldr	r2, [r3, #12]
    ef2c:	e583000c 	str	r0, [r3, #12]
    ef30:	e1a00002 	mov	r0, r2
    ef34:	e12fff1e 	bx	lr

0000ef38 <printf>:
    ef38:	e92d000f 	push	{r0, r1, r2, r3}
    ef3c:	e3053a48 	movw	r3, #23112	; 0x5a48
    ef40:	e3403001 	movt	r3, #1
    ef44:	e92d4010 	push	{r4, lr}
    ef48:	e24dd008 	sub	sp, sp, #8
    ef4c:	e593400c 	ldr	r4, [r3, #12]
    ef50:	e28d2014 	add	r2, sp, #20
    ef54:	e59d0010 	ldr	r0, [sp, #16]
    ef58:	e58d2004 	str	r2, [sp, #4]
    ef5c:	fa000d20 	blx	123e4 <strlen>
    ef60:	e59d1010 	ldr	r1, [sp, #16]
    ef64:	e1a02000 	mov	r2, r0
    ef68:	e59d3004 	ldr	r3, [sp, #4]
    ef6c:	e1a00004 	mov	r0, r4
    ef70:	ebffe7b0 	bl	8e38 <Process_Out>
    ef74:	e28dd008 	add	sp, sp, #8
    ef78:	e8bd4010 	pop	{r4, lr}
    ef7c:	e28dd010 	add	sp, sp, #16
    ef80:	e12fff1e 	bx	lr

0000ef84 <sprintf>:
    ef84:	e92d000e 	push	{r1, r2, r3}
    ef88:	e3e02000 	mvn	r2, #0
    ef8c:	e3a01000 	mov	r1, #0
    ef90:	e92d4030 	push	{r4, r5, lr}
    ef94:	e3054a48 	movw	r4, #23112	; 0x5a48
    ef98:	e3404001 	movt	r4, #1
    ef9c:	e24dd008 	sub	sp, sp, #8
    efa0:	e1a05000 	mov	r5, r0
    efa4:	e28d3018 	add	r3, sp, #24
    efa8:	e9840022 	stmib	r4, {r1, r5}
    efac:	e59d0014 	ldr	r0, [sp, #20]
    efb0:	e58d3004 	str	r3, [sp, #4]
    efb4:	e5842000 	str	r2, [r4]
    efb8:	fa000d09 	blx	123e4 <strlen>
    efbc:	e59d2004 	ldr	r2, [sp, #4]
    efc0:	e1a01000 	mov	r1, r0
    efc4:	e59d0014 	ldr	r0, [sp, #20]
    efc8:	ebffeb10 	bl	9c10 <Process_Out.constprop.1>
    efcc:	e5943000 	ldr	r3, [r4]
    efd0:	e3730001 	cmn	r3, #1
    efd4:	0a00000a 	beq	f004 <sprintf+0x80>
    efd8:	e5942004 	ldr	r2, [r4, #4]
    efdc:	e1530002 	cmp	r3, r2
    efe0:	d5943008 	ldrle	r3, [r4, #8]
    efe4:	ca000006 	bgt	f004 <sprintf+0x80>
    efe8:	e1550003 	cmp	r5, r3
    efec:	03a03000 	moveq	r3, #0
    eff0:	05843008 	streq	r3, [r4, #8]
    eff4:	e28dd008 	add	sp, sp, #8
    eff8:	e8bd4030 	pop	{r4, r5, lr}
    effc:	e28dd00c 	add	sp, sp, #12
    f000:	e12fff1e 	bx	lr
    f004:	e5943008 	ldr	r3, [r4, #8]
    f008:	e3530000 	cmp	r3, #0
    f00c:	13a01000 	movne	r1, #0
    f010:	15942004 	ldrne	r2, [r4, #4]
    f014:	1282c001 	addne	ip, r2, #1
    f018:	1584c004 	strne	ip, [r4, #4]
    f01c:	17c31002 	strbne	r1, [r3, r2]
    f020:	eafffff0 	b	efe8 <sprintf+0x64>

0000f024 <snprintf>:
    f024:	e92d000c 	push	{r2, r3}
    f028:	e3a02000 	mov	r2, #0
    f02c:	e92d4030 	push	{r4, r5, lr}
    f030:	e3054a48 	movw	r4, #23112	; 0x5a48
    f034:	e3404001 	movt	r4, #1
    f038:	e24dd00c 	sub	sp, sp, #12
    f03c:	e1a05000 	mov	r5, r0
    f040:	e28d301c 	add	r3, sp, #28
    f044:	e8840026 	stm	r4, {r1, r2, r5}
    f048:	e59d0018 	ldr	r0, [sp, #24]
    f04c:	e58d3004 	str	r3, [sp, #4]
    f050:	fa000ce3 	blx	123e4 <strlen>
    f054:	e59d2004 	ldr	r2, [sp, #4]
    f058:	e1a01000 	mov	r1, r0
    f05c:	e59d0018 	ldr	r0, [sp, #24]
    f060:	ebffeaea 	bl	9c10 <Process_Out.constprop.1>
    f064:	e5943000 	ldr	r3, [r4]
    f068:	e3730001 	cmn	r3, #1
    f06c:	0a00000a 	beq	f09c <snprintf+0x78>
    f070:	e5942004 	ldr	r2, [r4, #4]
    f074:	e1530002 	cmp	r3, r2
    f078:	d5943008 	ldrle	r3, [r4, #8]
    f07c:	ca000006 	bgt	f09c <snprintf+0x78>
    f080:	e1550003 	cmp	r5, r3
    f084:	03a03000 	moveq	r3, #0
    f088:	05843008 	streq	r3, [r4, #8]
    f08c:	e28dd00c 	add	sp, sp, #12
    f090:	e8bd4030 	pop	{r4, r5, lr}
    f094:	e28dd008 	add	sp, sp, #8
    f098:	e12fff1e 	bx	lr
    f09c:	e5943008 	ldr	r3, [r4, #8]
    f0a0:	e3530000 	cmp	r3, #0
    f0a4:	13a01000 	movne	r1, #0
    f0a8:	15942004 	ldrne	r2, [r4, #4]
    f0ac:	1282c001 	addne	ip, r2, #1
    f0b0:	1584c004 	strne	ip, [r4, #4]
    f0b4:	17c31002 	strbne	r1, [r3, r2]
    f0b8:	eafffff0 	b	f080 <snprintf+0x5c>

0000f0bc <vprintf>:
    f0bc:	e3052a48 	movw	r2, #23112	; 0x5a48
    f0c0:	e3402001 	movt	r2, #1
    f0c4:	e92d4070 	push	{r4, r5, r6, lr}
    f0c8:	e1a06001 	mov	r6, r1
    f0cc:	e1a05000 	mov	r5, r0
    f0d0:	e592400c 	ldr	r4, [r2, #12]
    f0d4:	fa000cc2 	blx	123e4 <strlen>
    f0d8:	e1a03006 	mov	r3, r6
    f0dc:	e1a02000 	mov	r2, r0
    f0e0:	e1a01005 	mov	r1, r5
    f0e4:	e1a00004 	mov	r0, r4
    f0e8:	e8bd4070 	pop	{r4, r5, r6, lr}
    f0ec:	eaffe751 	b	8e38 <Process_Out>

0000f0f0 <vsprintf>:
    f0f0:	e92d41f0 	push	{r4, r5, r6, r7, r8, lr}
    f0f4:	e3054a48 	movw	r4, #23112	; 0x5a48
    f0f8:	e3404001 	movt	r4, #1
    f0fc:	e3e03000 	mvn	r3, #0
    f100:	e1a06001 	mov	r6, r1
    f104:	e1a05000 	mov	r5, r0
    f108:	e1a07002 	mov	r7, r2
    f10c:	e1a00001 	mov	r0, r1
    f110:	e3a02000 	mov	r2, #0
    f114:	e5843000 	str	r3, [r4]
    f118:	e9840024 	stmib	r4, {r2, r5}
    f11c:	fa000cb0 	blx	123e4 <strlen>
    f120:	e1a02007 	mov	r2, r7
    f124:	e1a01000 	mov	r1, r0
    f128:	e1a00006 	mov	r0, r6
    f12c:	ebffeab7 	bl	9c10 <Process_Out.constprop.1>
    f130:	e5943000 	ldr	r3, [r4]
    f134:	e3730001 	cmn	r3, #1
    f138:	0a000007 	beq	f15c <vsprintf+0x6c>
    f13c:	e5942004 	ldr	r2, [r4, #4]
    f140:	e1530002 	cmp	r3, r2
    f144:	d5943008 	ldrle	r3, [r4, #8]
    f148:	ca000003 	bgt	f15c <vsprintf+0x6c>
    f14c:	e1550003 	cmp	r5, r3
    f150:	03a03000 	moveq	r3, #0
    f154:	05843008 	streq	r3, [r4, #8]
    f158:	e8bd81f0 	pop	{r4, r5, r6, r7, r8, pc}
    f15c:	e5943008 	ldr	r3, [r4, #8]
    f160:	e3530000 	cmp	r3, #0
    f164:	13a01000 	movne	r1, #0
    f168:	15942004 	ldrne	r2, [r4, #4]
    f16c:	1282c001 	addne	ip, r2, #1
    f170:	1584c004 	strne	ip, [r4, #4]
    f174:	17c31002 	strbne	r1, [r3, r2]
    f178:	eafffff3 	b	f14c <vsprintf+0x5c>

0000f17c <vsnprintf>:
    f17c:	e92d41f0 	push	{r4, r5, r6, r7, r8, lr}
    f180:	e3054a48 	movw	r4, #23112	; 0x5a48
    f184:	e3404001 	movt	r4, #1
    f188:	e1a06002 	mov	r6, r2
    f18c:	e1a05000 	mov	r5, r0
    f190:	e1a07003 	mov	r7, r3
    f194:	e1a00002 	mov	r0, r2
    f198:	e3a03000 	mov	r3, #0
    f19c:	e884002a 	stm	r4, {r1, r3, r5}
    f1a0:	fa000c8f 	blx	123e4 <strlen>
    f1a4:	e1a02007 	mov	r2, r7
    f1a8:	e1a01000 	mov	r1, r0
    f1ac:	e1a00006 	mov	r0, r6
    f1b0:	ebffea96 	bl	9c10 <Process_Out.constprop.1>
    f1b4:	e5943000 	ldr	r3, [r4]
    f1b8:	e3730001 	cmn	r3, #1
    f1bc:	0a000007 	beq	f1e0 <vsnprintf+0x64>
    f1c0:	e5942004 	ldr	r2, [r4, #4]
    f1c4:	e1530002 	cmp	r3, r2
    f1c8:	d5943008 	ldrle	r3, [r4, #8]
    f1cc:	ca000003 	bgt	f1e0 <vsnprintf+0x64>
    f1d0:	e1550003 	cmp	r5, r3
    f1d4:	03a03000 	moveq	r3, #0
    f1d8:	05843008 	streq	r3, [r4, #8]
    f1dc:	e8bd81f0 	pop	{r4, r5, r6, r7, r8, pc}
    f1e0:	e5943008 	ldr	r3, [r4, #8]
    f1e4:	e3530000 	cmp	r3, #0
    f1e8:	13a01000 	movne	r1, #0
    f1ec:	15942004 	ldrne	r2, [r4, #4]
    f1f0:	1282c001 	addne	ip, r2, #1
    f1f4:	1584c004 	strne	ip, [r4, #4]
    f1f8:	17c31002 	strbne	r1, [r3, r2]
    f1fc:	eafffff3 	b	f1d0 <vsnprintf+0x54>

0000f200 <check_buffer>:
    f200:	e92d4070 	push	{r4, r5, r6, lr}
    f204:	e5905000 	ldr	r5, [r0]
    f208:	e2855001 	add	r5, r5, #1
    f20c:	e5805000 	str	r5, [r0]
    f210:	e5d13000 	ldrb	r3, [r1]
    f214:	e3530000 	cmp	r3, #0
    f218:	0a00000f 	beq	f25c <check_buffer+0x5c>
    f21c:	e5d20000 	ldrb	r0, [r2]
    f220:	e3500000 	cmp	r0, #0
    f224:	0a00000c 	beq	f25c <check_buffer+0x5c>
    f228:	e1530000 	cmp	r3, r0
    f22c:	01a04002 	moveq	r4, r2
    f230:	01a0e001 	moveq	lr, r1
    f234:	0a000005 	beq	f250 <check_buffer+0x50>
    f238:	ea000009 	b	f264 <check_buffer+0x64>
    f23c:	e5f4c001 	ldrb	ip, [r4, #1]!
    f240:	e35c0000 	cmp	ip, #0
    f244:	0a000004 	beq	f25c <check_buffer+0x5c>
    f248:	e150000c 	cmp	r0, ip
    f24c:	1a000004 	bne	f264 <check_buffer+0x64>
    f250:	e5fe0001 	ldrb	r0, [lr, #1]!
    f254:	e3500000 	cmp	r0, #0
    f258:	1afffff7 	bne	f23c <check_buffer+0x3c>
    f25c:	e3a00001 	mov	r0, #1
    f260:	e8bd8070 	pop	{r4, r5, r6, pc}
    f264:	e1a03002 	mov	r3, r2
    f268:	e3050b18 	movw	r0, #23320	; 0x5b18
    f26c:	e3400001 	movt	r0, #1
    f270:	e1a02001 	mov	r2, r1
    f274:	e1a01005 	mov	r1, r5
    f278:	ebffff2e 	bl	ef38 <printf>
    f27c:	e3a00000 	mov	r0, #0
    f280:	e8bd8070 	pop	{r4, r5, r6, pc}

0000f284 <BENCHTEST_snprintf>:
    f284:	e92d4030 	push	{r4, r5, lr}
    f288:	e3a03000 	mov	r3, #0
    f28c:	e3052b38 	movw	r2, #23352	; 0x5b38
    f290:	e3402001 	movt	r2, #1
    f294:	e24ddf83 	sub	sp, sp, #524	; 0x20c
    f298:	e3a01c02 	mov	r1, #512	; 0x200
    f29c:	e28d0008 	add	r0, sp, #8
    f2a0:	ebfffb83 	bl	e0b4 <snprintf.constprop.0>
    f2a4:	e5dd3008 	ldrb	r3, [sp, #8]
    f2a8:	e3530000 	cmp	r3, #0
    f2ac:	0a00000d 	beq	f2e8 <BENCHTEST_snprintf+0x64>
    f2b0:	e3530020 	cmp	r3, #32
    f2b4:	028d0008 	addeq	r0, sp, #8
    f2b8:	03051b3c 	movweq	r1, #23356	; 0x5b3c
    f2bc:	03401001 	movteq	r1, #1
    f2c0:	0a000005 	beq	f2dc <BENCHTEST_snprintf+0x58>
    f2c4:	ea000163 	b	f858 <BENCHTEST_snprintf+0x5d4>
    f2c8:	e5f12001 	ldrb	r2, [r1, #1]!
    f2cc:	e3520000 	cmp	r2, #0
    f2d0:	0a000004 	beq	f2e8 <BENCHTEST_snprintf+0x64>
    f2d4:	e1530002 	cmp	r3, r2
    f2d8:	1a00015e 	bne	f858 <BENCHTEST_snprintf+0x5d4>
    f2dc:	e5f03001 	ldrb	r3, [r0, #1]!
    f2e0:	e3530000 	cmp	r3, #0
    f2e4:	1afffff7 	bne	f2c8 <BENCHTEST_snprintf+0x44>
    f2e8:	e3a04002 	mov	r4, #2
    f2ec:	e3a05001 	mov	r5, #1
    f2f0:	e30c3d15 	movw	r3, #52501	; 0xcd15
    f2f4:	e340375b 	movt	r3, #1883	; 0x75b
    f2f8:	e3052b38 	movw	r2, #23352	; 0x5b38
    f2fc:	e3402001 	movt	r2, #1
    f300:	e3a01c02 	mov	r1, #512	; 0x200
    f304:	e28d0008 	add	r0, sp, #8
    f308:	ebfffb69 	bl	e0b4 <snprintf.constprop.0>
    f30c:	e5dd3008 	ldrb	r3, [sp, #8]
    f310:	e3530000 	cmp	r3, #0
    f314:	0a00000d 	beq	f350 <BENCHTEST_snprintf+0xcc>
    f318:	e3530031 	cmp	r3, #49	; 0x31
    f31c:	028d0008 	addeq	r0, sp, #8
    f320:	03051b40 	movweq	r1, #23360	; 0x5b40
    f324:	03401001 	movteq	r1, #1
    f328:	0a000005 	beq	f344 <BENCHTEST_snprintf+0xc0>
    f32c:	ea0001b3 	b	fa00 <BENCHTEST_snprintf+0x77c>
    f330:	e5f12001 	ldrb	r2, [r1, #1]!
    f334:	e3520000 	cmp	r2, #0
    f338:	0a000004 	beq	f350 <BENCHTEST_snprintf+0xcc>
    f33c:	e1530002 	cmp	r3, r2
    f340:	1a0001ae 	bne	fa00 <BENCHTEST_snprintf+0x77c>
    f344:	e5f03001 	ldrb	r3, [r0, #1]!
    f348:	e3530000 	cmp	r3, #0
    f34c:	1afffff7 	bne	f330 <BENCHTEST_snprintf+0xac>
    f350:	e3e03009 	mvn	r3, #9
    f354:	e3052b4c 	movw	r2, #23372	; 0x5b4c
    f358:	e3402001 	movt	r2, #1
    f35c:	e3a01c02 	mov	r1, #512	; 0x200
    f360:	e28d0008 	add	r0, sp, #8
    f364:	ebfffb52 	bl	e0b4 <snprintf.constprop.0>
    f368:	e5dd3008 	ldrb	r3, [sp, #8]
    f36c:	e3530000 	cmp	r3, #0
    f370:	0a00000d 	beq	f3ac <BENCHTEST_snprintf+0x128>
    f374:	e353002d 	cmp	r3, #45	; 0x2d
    f378:	028d0008 	addeq	r0, sp, #8
    f37c:	03051b54 	movweq	r1, #23380	; 0x5b54
    f380:	03401001 	movteq	r1, #1
    f384:	0a000005 	beq	f3a0 <BENCHTEST_snprintf+0x11c>
    f388:	ea000194 	b	f9e0 <BENCHTEST_snprintf+0x75c>
    f38c:	e5f12001 	ldrb	r2, [r1, #1]!
    f390:	e3520000 	cmp	r2, #0
    f394:	0a000004 	beq	f3ac <BENCHTEST_snprintf+0x128>
    f398:	e1530002 	cmp	r3, r2
    f39c:	1a00018f 	bne	f9e0 <BENCHTEST_snprintf+0x75c>
    f3a0:	e5f03001 	ldrb	r3, [r0, #1]!
    f3a4:	e3530000 	cmp	r3, #0
    f3a8:	1afffff7 	bne	f38c <BENCHTEST_snprintf+0x108>
    f3ac:	e2844001 	add	r4, r4, #1
    f3b0:	e3a0300a 	mov	r3, #10
    f3b4:	e3052b5c 	movw	r2, #23388	; 0x5b5c
    f3b8:	e3402001 	movt	r2, #1
    f3bc:	e3a01c02 	mov	r1, #512	; 0x200
    f3c0:	e28d0008 	add	r0, sp, #8
    f3c4:	ebfffb3a 	bl	e0b4 <snprintf.constprop.0>
    f3c8:	e5dd3008 	ldrb	r3, [sp, #8]
    f3cc:	e3530000 	cmp	r3, #0
    f3d0:	0a00000d 	beq	f40c <BENCHTEST_snprintf+0x188>
    f3d4:	e3530027 	cmp	r3, #39	; 0x27
    f3d8:	028d0008 	addeq	r0, sp, #8
    f3dc:	03051b64 	movweq	r1, #23396	; 0x5b64
    f3e0:	03401001 	movteq	r1, #1
    f3e4:	0a000005 	beq	f400 <BENCHTEST_snprintf+0x17c>
    f3e8:	ea000174 	b	f9c0 <BENCHTEST_snprintf+0x73c>
    f3ec:	e5f12001 	ldrb	r2, [r1, #1]!
    f3f0:	e3520000 	cmp	r2, #0
    f3f4:	0a000004 	beq	f40c <BENCHTEST_snprintf+0x188>
    f3f8:	e1530002 	cmp	r3, r2
    f3fc:	1a00016f 	bne	f9c0 <BENCHTEST_snprintf+0x73c>
    f400:	e5f03001 	ldrb	r3, [r0, #1]!
    f404:	e3530000 	cmp	r3, #0
    f408:	1afffff7 	bne	f3ec <BENCHTEST_snprintf+0x168>
    f40c:	e2844001 	add	r4, r4, #1
    f410:	e3a0300a 	mov	r3, #10
    f414:	e3052b6c 	movw	r2, #23404	; 0x5b6c
    f418:	e3402001 	movt	r2, #1
    f41c:	e3a01c02 	mov	r1, #512	; 0x200
    f420:	e28d0008 	add	r0, sp, #8
    f424:	ebfffb22 	bl	e0b4 <snprintf.constprop.0>
    f428:	e5dd3008 	ldrb	r3, [sp, #8]
    f42c:	e3530000 	cmp	r3, #0
    f430:	0a00000d 	beq	f46c <BENCHTEST_snprintf+0x1e8>
    f434:	e3530027 	cmp	r3, #39	; 0x27
    f438:	028d0008 	addeq	r0, sp, #8
    f43c:	03051b74 	movweq	r1, #23412	; 0x5b74
    f440:	03401001 	movteq	r1, #1
    f444:	0a000005 	beq	f460 <BENCHTEST_snprintf+0x1dc>
    f448:	ea000154 	b	f9a0 <BENCHTEST_snprintf+0x71c>
    f44c:	e5f12001 	ldrb	r2, [r1, #1]!
    f450:	e3520000 	cmp	r2, #0
    f454:	0a000004 	beq	f46c <BENCHTEST_snprintf+0x1e8>
    f458:	e1530002 	cmp	r3, r2
    f45c:	1a00014f 	bne	f9a0 <BENCHTEST_snprintf+0x71c>
    f460:	e5f03001 	ldrb	r3, [r0, #1]!
    f464:	e3530000 	cmp	r3, #0
    f468:	1afffff7 	bne	f44c <BENCHTEST_snprintf+0x1c8>
    f46c:	e2844001 	add	r4, r4, #1
    f470:	e3a0300c 	mov	r3, #12
    f474:	e3052b7c 	movw	r2, #23420	; 0x5b7c
    f478:	e3402001 	movt	r2, #1
    f47c:	e3a01c02 	mov	r1, #512	; 0x200
    f480:	e28d0008 	add	r0, sp, #8
    f484:	ebfffb0a 	bl	e0b4 <snprintf.constprop.0>
    f488:	e5dd3008 	ldrb	r3, [sp, #8]
    f48c:	e3530000 	cmp	r3, #0
    f490:	0a00000d 	beq	f4cc <BENCHTEST_snprintf+0x248>
    f494:	e353003c 	cmp	r3, #60	; 0x3c
    f498:	028d0008 	addeq	r0, sp, #8
    f49c:	03051b84 	movweq	r1, #23428	; 0x5b84
    f4a0:	03401001 	movteq	r1, #1
    f4a4:	0a000005 	beq	f4c0 <BENCHTEST_snprintf+0x23c>
    f4a8:	ea000134 	b	f980 <BENCHTEST_snprintf+0x6fc>
    f4ac:	e5f12001 	ldrb	r2, [r1, #1]!
    f4b0:	e3520000 	cmp	r2, #0
    f4b4:	0a000004 	beq	f4cc <BENCHTEST_snprintf+0x248>
    f4b8:	e1530002 	cmp	r3, r2
    f4bc:	1a00012f 	bne	f980 <BENCHTEST_snprintf+0x6fc>
    f4c0:	e5f03001 	ldrb	r3, [r0, #1]!
    f4c4:	e3530000 	cmp	r3, #0
    f4c8:	1afffff7 	bne	f4ac <BENCHTEST_snprintf+0x228>
    f4cc:	e2844001 	add	r4, r4, #1
    f4d0:	e30134e5 	movw	r3, #5349	; 0x14e5
    f4d4:	e3052b8c 	movw	r2, #23436	; 0x5b8c
    f4d8:	e3402001 	movt	r2, #1
    f4dc:	e3a01c02 	mov	r1, #512	; 0x200
    f4e0:	e28d0008 	add	r0, sp, #8
    f4e4:	ebfffaf2 	bl	e0b4 <snprintf.constprop.0>
    f4e8:	e5dd3008 	ldrb	r3, [sp, #8]
    f4ec:	e3530000 	cmp	r3, #0
    f4f0:	0a00000d 	beq	f52c <BENCHTEST_snprintf+0x2a8>
    f4f4:	e353003c 	cmp	r3, #60	; 0x3c
    f4f8:	028d0008 	addeq	r0, sp, #8
    f4fc:	03051b94 	movweq	r1, #23444	; 0x5b94
    f500:	03401001 	movteq	r1, #1
    f504:	0a000005 	beq	f520 <BENCHTEST_snprintf+0x29c>
    f508:	ea000114 	b	f960 <BENCHTEST_snprintf+0x6dc>
    f50c:	e5f12001 	ldrb	r2, [r1, #1]!
    f510:	e3520000 	cmp	r2, #0
    f514:	0a000004 	beq	f52c <BENCHTEST_snprintf+0x2a8>
    f518:	e1530002 	cmp	r3, r2
    f51c:	1a00010f 	bne	f960 <BENCHTEST_snprintf+0x6dc>
    f520:	e5f03001 	ldrb	r3, [r0, #1]!
    f524:	e3530000 	cmp	r3, #0
    f528:	1afffff7 	bne	f50c <BENCHTEST_snprintf+0x288>
    f52c:	e2844001 	add	r4, r4, #1
    f530:	e3053ba0 	movw	r3, #23456	; 0x5ba0
    f534:	e3403001 	movt	r3, #1
    f538:	e3052ba4 	movw	r2, #23460	; 0x5ba4
    f53c:	e3402001 	movt	r2, #1
    f540:	e3a01c02 	mov	r1, #512	; 0x200
    f544:	e28d0008 	add	r0, sp, #8
    f548:	ebfffad9 	bl	e0b4 <snprintf.constprop.0>
    f54c:	e5dd3008 	ldrb	r3, [sp, #8]
    f550:	e3530000 	cmp	r3, #0
    f554:	0a00000d 	beq	f590 <BENCHTEST_snprintf+0x30c>
    f558:	e353003c 	cmp	r3, #60	; 0x3c
    f55c:	028d0008 	addeq	r0, sp, #8
    f560:	03051bac 	movweq	r1, #23468	; 0x5bac
    f564:	03401001 	movteq	r1, #1
    f568:	0a000005 	beq	f584 <BENCHTEST_snprintf+0x300>
    f56c:	ea0000f3 	b	f940 <BENCHTEST_snprintf+0x6bc>
    f570:	e5f12001 	ldrb	r2, [r1, #1]!
    f574:	e3520000 	cmp	r2, #0
    f578:	0a000004 	beq	f590 <BENCHTEST_snprintf+0x30c>
    f57c:	e1530002 	cmp	r3, r2
    f580:	1a0000ee 	bne	f940 <BENCHTEST_snprintf+0x6bc>
    f584:	e5f03001 	ldrb	r3, [r0, #1]!
    f588:	e3530000 	cmp	r3, #0
    f58c:	1afffff7 	bne	f570 <BENCHTEST_snprintf+0x2ec>
    f590:	e2844001 	add	r4, r4, #1
    f594:	e3053bd0 	movw	r3, #23504	; 0x5bd0
    f598:	e3403001 	movt	r3, #1
    f59c:	e3052bd4 	movw	r2, #23508	; 0x5bd4
    f5a0:	e3402001 	movt	r2, #1
    f5a4:	e58d3004 	str	r3, [sp, #4]
    f5a8:	e3a01c02 	mov	r1, #512	; 0x200
    f5ac:	e58d2000 	str	r2, [sp]
    f5b0:	e3053bb8 	movw	r3, #23480	; 0x5bb8
    f5b4:	e3403001 	movt	r3, #1
    f5b8:	e3052bc0 	movw	r2, #23488	; 0x5bc0
    f5bc:	e3402001 	movt	r2, #1
    f5c0:	e28d0008 	add	r0, sp, #8
    f5c4:	ebfffaba 	bl	e0b4 <snprintf.constprop.0>
    f5c8:	e5dd3008 	ldrb	r3, [sp, #8]
    f5cc:	e3530000 	cmp	r3, #0
    f5d0:	0a00000d 	beq	f60c <BENCHTEST_snprintf+0x388>
    f5d4:	e3530048 	cmp	r3, #72	; 0x48
    f5d8:	028d0008 	addeq	r0, sp, #8
    f5dc:	03051bdc 	movweq	r1, #23516	; 0x5bdc
    f5e0:	03401001 	movteq	r1, #1
    f5e4:	0a000005 	beq	f600 <BENCHTEST_snprintf+0x37c>
    f5e8:	ea0000cc 	b	f920 <BENCHTEST_snprintf+0x69c>
    f5ec:	e5f12001 	ldrb	r2, [r1, #1]!
    f5f0:	e3520000 	cmp	r2, #0
    f5f4:	0a000004 	beq	f60c <BENCHTEST_snprintf+0x388>
    f5f8:	e1530002 	cmp	r3, r2
    f5fc:	1a0000c7 	bne	f920 <BENCHTEST_snprintf+0x69c>
    f600:	e5f03001 	ldrb	r3, [r0, #1]!
    f604:	e3530000 	cmp	r3, #0
    f608:	1afffff7 	bne	f5ec <BENCHTEST_snprintf+0x368>
    f60c:	e2844001 	add	r4, r4, #1
    f610:	e3053bfc 	movw	r3, #23548	; 0x5bfc
    f614:	e3403001 	movt	r3, #1
    f618:	e3052c0c 	movw	r2, #23564	; 0x5c0c
    f61c:	e3402001 	movt	r2, #1
    f620:	e3a01c02 	mov	r1, #512	; 0x200
    f624:	e28d0008 	add	r0, sp, #8
    f628:	ebfffaa1 	bl	e0b4 <snprintf.constprop.0>
    f62c:	e5dd3008 	ldrb	r3, [sp, #8]
    f630:	e3530000 	cmp	r3, #0
    f634:	0a00000d 	beq	f670 <BENCHTEST_snprintf+0x3ec>
    f638:	e3530063 	cmp	r3, #99	; 0x63
    f63c:	028d0008 	addeq	r0, sp, #8
    f640:	03051c14 	movweq	r1, #23572	; 0x5c14
    f644:	03401001 	movteq	r1, #1
    f648:	0a000005 	beq	f664 <BENCHTEST_snprintf+0x3e0>
    f64c:	ea0000ab 	b	f900 <BENCHTEST_snprintf+0x67c>
    f650:	e5f12001 	ldrb	r2, [r1, #1]!
    f654:	e3520000 	cmp	r2, #0
    f658:	0a000004 	beq	f670 <BENCHTEST_snprintf+0x3ec>
    f65c:	e1530002 	cmp	r3, r2
    f660:	1a0000a6 	bne	f900 <BENCHTEST_snprintf+0x67c>
    f664:	e5f03001 	ldrb	r3, [r0, #1]!
    f668:	e3530000 	cmp	r3, #0
    f66c:	1afffff7 	bne	f650 <BENCHTEST_snprintf+0x3cc>
    f670:	e2844001 	add	r4, r4, #1
    f674:	e3a03005 	mov	r3, #5
    f678:	e3052c20 	movw	r2, #23584	; 0x5c20
    f67c:	e3402001 	movt	r2, #1
    f680:	e58d3000 	str	r3, [sp]
    f684:	e3a01c02 	mov	r1, #512	; 0x200
    f688:	e3a0300e 	mov	r3, #14
    f68c:	e28d0008 	add	r0, sp, #8
    f690:	ebfffa87 	bl	e0b4 <snprintf.constprop.0>
    f694:	e5dd3008 	ldrb	r3, [sp, #8]
    f698:	e3530000 	cmp	r3, #0
    f69c:	0a00000d 	beq	f6d8 <BENCHTEST_snprintf+0x454>
    f6a0:	e3530031 	cmp	r3, #49	; 0x31
    f6a4:	028d0008 	addeq	r0, sp, #8
    f6a8:	03051c28 	movweq	r1, #23592	; 0x5c28
    f6ac:	03401001 	movteq	r1, #1
    f6b0:	0a000005 	beq	f6cc <BENCHTEST_snprintf+0x448>
    f6b4:	ea000089 	b	f8e0 <BENCHTEST_snprintf+0x65c>
    f6b8:	e5f12001 	ldrb	r2, [r1, #1]!
    f6bc:	e3520000 	cmp	r2, #0
    f6c0:	0a000004 	beq	f6d8 <BENCHTEST_snprintf+0x454>
    f6c4:	e1530002 	cmp	r3, r2
    f6c8:	1a000084 	bne	f8e0 <BENCHTEST_snprintf+0x65c>
    f6cc:	e5f03001 	ldrb	r3, [r0, #1]!
    f6d0:	e3530000 	cmp	r3, #0
    f6d4:	1afffff7 	bne	f6b8 <BENCHTEST_snprintf+0x434>
    f6d8:	e2844001 	add	r4, r4, #1
    f6dc:	e3a03063 	mov	r3, #99	; 0x63
    f6e0:	e3052c30 	movw	r2, #23600	; 0x5c30
    f6e4:	e3402001 	movt	r2, #1
    f6e8:	e3a01c02 	mov	r1, #512	; 0x200
    f6ec:	e28d0008 	add	r0, sp, #8
    f6f0:	ebfffa6f 	bl	e0b4 <snprintf.constprop.0>
    f6f4:	e5dd3008 	ldrb	r3, [sp, #8]
    f6f8:	e3530000 	cmp	r3, #0
    f6fc:	0a00000d 	beq	f738 <BENCHTEST_snprintf+0x4b4>
    f700:	e3530070 	cmp	r3, #112	; 0x70
    f704:	028d0008 	addeq	r0, sp, #8
    f708:	03051c44 	movweq	r1, #23620	; 0x5c44
    f70c:	03401001 	movteq	r1, #1
    f710:	0a000005 	beq	f72c <BENCHTEST_snprintf+0x4a8>
    f714:	ea000069 	b	f8c0 <BENCHTEST_snprintf+0x63c>
    f718:	e5f12001 	ldrb	r2, [r1, #1]!
    f71c:	e3520000 	cmp	r2, #0
    f720:	0a000004 	beq	f738 <BENCHTEST_snprintf+0x4b4>
    f724:	e1530002 	cmp	r3, r2
    f728:	1a000064 	bne	f8c0 <BENCHTEST_snprintf+0x63c>
    f72c:	e5f03001 	ldrb	r3, [r0, #1]!
    f730:	e3530000 	cmp	r3, #0
    f734:	1afffff7 	bne	f718 <BENCHTEST_snprintf+0x494>
    f738:	e2844001 	add	r4, r4, #1
    f73c:	e3a03058 	mov	r3, #88	; 0x58
    f740:	e3052c54 	movw	r2, #23636	; 0x5c54
    f744:	e3402001 	movt	r2, #1
    f748:	e3a01c02 	mov	r1, #512	; 0x200
    f74c:	e28d0008 	add	r0, sp, #8
    f750:	ebfffa57 	bl	e0b4 <snprintf.constprop.0>
    f754:	e5dd3008 	ldrb	r3, [sp, #8]
    f758:	e3530000 	cmp	r3, #0
    f75c:	0a00000d 	beq	f798 <BENCHTEST_snprintf+0x514>
    f760:	e3530038 	cmp	r3, #56	; 0x38
    f764:	028d0008 	addeq	r0, sp, #8
    f768:	03051c5c 	movweq	r1, #23644	; 0x5c5c
    f76c:	03401001 	movteq	r1, #1
    f770:	0a000005 	beq	f78c <BENCHTEST_snprintf+0x508>
    f774:	ea000049 	b	f8a0 <BENCHTEST_snprintf+0x61c>
    f778:	e5f12001 	ldrb	r2, [r1, #1]!
    f77c:	e3520000 	cmp	r2, #0
    f780:	0a000004 	beq	f798 <BENCHTEST_snprintf+0x514>
    f784:	e1530002 	cmp	r3, r2
    f788:	1a000044 	bne	f8a0 <BENCHTEST_snprintf+0x61c>
    f78c:	e5f03001 	ldrb	r3, [r0, #1]!
    f790:	e3530000 	cmp	r3, #0
    f794:	1afffff7 	bne	f778 <BENCHTEST_snprintf+0x4f4>
    f798:	e2844001 	add	r4, r4, #1
    f79c:	e3a0300a 	mov	r3, #10
    f7a0:	e3052c60 	movw	r2, #23648	; 0x5c60
    f7a4:	e3402001 	movt	r2, #1
    f7a8:	e3a01c02 	mov	r1, #512	; 0x200
    f7ac:	e28d0008 	add	r0, sp, #8
    f7b0:	ebfffa3f 	bl	e0b4 <snprintf.constprop.0>
    f7b4:	e5dd3008 	ldrb	r3, [sp, #8]
    f7b8:	e3530000 	cmp	r3, #0
    f7bc:	0a00000d 	beq	f7f8 <BENCHTEST_snprintf+0x574>
    f7c0:	e3530030 	cmp	r3, #48	; 0x30
    f7c4:	028d0008 	addeq	r0, sp, #8
    f7c8:	03051c64 	movweq	r1, #23652	; 0x5c64
    f7cc:	03401001 	movteq	r1, #1
    f7d0:	0a000005 	beq	f7ec <BENCHTEST_snprintf+0x568>
    f7d4:	ea000029 	b	f880 <BENCHTEST_snprintf+0x5fc>
    f7d8:	e5f12001 	ldrb	r2, [r1, #1]!
    f7dc:	e3520000 	cmp	r2, #0
    f7e0:	0a000004 	beq	f7f8 <BENCHTEST_snprintf+0x574>
    f7e4:	e1530002 	cmp	r3, r2
    f7e8:	1a000024 	bne	f880 <BENCHTEST_snprintf+0x5fc>
    f7ec:	e5f03001 	ldrb	r3, [r0, #1]!
    f7f0:	e3530000 	cmp	r3, #0
    f7f4:	1afffff7 	bne	f7d8 <BENCHTEST_snprintf+0x554>
    f7f8:	e2844001 	add	r4, r4, #1
    f7fc:	e3050c68 	movw	r0, #23656	; 0x5c68
    f800:	e3400001 	movt	r0, #1
    f804:	ebfffdcb 	bl	ef38 <printf>
    f808:	e3050c80 	movw	r0, #23680	; 0x5c80
    f80c:	e3400001 	movt	r0, #1
    f810:	ebfffdc8 	bl	ef38 <printf>
    f814:	e3050c68 	movw	r0, #23656	; 0x5c68
    f818:	e3400001 	movt	r0, #1
    f81c:	ebfffdc5 	bl	ef38 <printf>
    f820:	e3a0100e 	mov	r1, #14
    f824:	e3050c98 	movw	r0, #23704	; 0x5c98
    f828:	e3400001 	movt	r0, #1
    f82c:	ebfffdc1 	bl	ef38 <printf>
    f830:	e1a01004 	mov	r1, r4
    f834:	e3050ca4 	movw	r0, #23716	; 0x5ca4
    f838:	e3400001 	movt	r0, #1
    f83c:	ebfffdbd 	bl	ef38 <printf>
    f840:	e264100e 	rsb	r1, r4, #14
    f844:	e3050cb0 	movw	r0, #23728	; 0x5cb0
    f848:	e3400001 	movt	r0, #1
    f84c:	ebfffdb9 	bl	ef38 <printf>
    f850:	e28ddf83 	add	sp, sp, #524	; 0x20c
    f854:	e8bd8030 	pop	{r4, r5, pc}
    f858:	e3053b3c 	movw	r3, #23356	; 0x5b3c
    f85c:	e3403001 	movt	r3, #1
    f860:	e3050b18 	movw	r0, #23320	; 0x5b18
    f864:	e3400001 	movt	r0, #1
    f868:	e28d2008 	add	r2, sp, #8
    f86c:	e3a01001 	mov	r1, #1
    f870:	ebfffdb0 	bl	ef38 <printf>
    f874:	e3a04001 	mov	r4, #1
    f878:	e3a05000 	mov	r5, #0
    f87c:	eafffe9b 	b	f2f0 <BENCHTEST_snprintf+0x6c>
    f880:	e28d2008 	add	r2, sp, #8
    f884:	e3053c64 	movw	r3, #23652	; 0x5c64
    f888:	e3403001 	movt	r3, #1
    f88c:	e3050b18 	movw	r0, #23320	; 0x5b18
    f890:	e3400001 	movt	r0, #1
    f894:	e3a0100e 	mov	r1, #14
    f898:	ebfffda6 	bl	ef38 <printf>
    f89c:	eaffffd6 	b	f7fc <BENCHTEST_snprintf+0x578>
    f8a0:	e3053c5c 	movw	r3, #23644	; 0x5c5c
    f8a4:	e3403001 	movt	r3, #1
    f8a8:	e3050b18 	movw	r0, #23320	; 0x5b18
    f8ac:	e3400001 	movt	r0, #1
    f8b0:	e28d2008 	add	r2, sp, #8
    f8b4:	e3a0100d 	mov	r1, #13
    f8b8:	ebfffd9e 	bl	ef38 <printf>
    f8bc:	eaffffb6 	b	f79c <BENCHTEST_snprintf+0x518>
    f8c0:	e3053c44 	movw	r3, #23620	; 0x5c44
    f8c4:	e3403001 	movt	r3, #1
    f8c8:	e3050b18 	movw	r0, #23320	; 0x5b18
    f8cc:	e3400001 	movt	r0, #1
    f8d0:	e28d2008 	add	r2, sp, #8
    f8d4:	e3a0100c 	mov	r1, #12
    f8d8:	ebfffd96 	bl	ef38 <printf>
    f8dc:	eaffff96 	b	f73c <BENCHTEST_snprintf+0x4b8>
    f8e0:	e3053c28 	movw	r3, #23592	; 0x5c28
    f8e4:	e3403001 	movt	r3, #1
    f8e8:	e3050b18 	movw	r0, #23320	; 0x5b18
    f8ec:	e3400001 	movt	r0, #1
    f8f0:	e28d2008 	add	r2, sp, #8
    f8f4:	e3a0100b 	mov	r1, #11
    f8f8:	ebfffd8e 	bl	ef38 <printf>
    f8fc:	eaffff76 	b	f6dc <BENCHTEST_snprintf+0x458>
    f900:	e3053c14 	movw	r3, #23572	; 0x5c14
    f904:	e3403001 	movt	r3, #1
    f908:	e3050b18 	movw	r0, #23320	; 0x5b18
    f90c:	e3400001 	movt	r0, #1
    f910:	e28d2008 	add	r2, sp, #8
    f914:	e3a0100a 	mov	r1, #10
    f918:	ebfffd86 	bl	ef38 <printf>
    f91c:	eaffff54 	b	f674 <BENCHTEST_snprintf+0x3f0>
    f920:	e3053bdc 	movw	r3, #23516	; 0x5bdc
    f924:	e3403001 	movt	r3, #1
    f928:	e3050b18 	movw	r0, #23320	; 0x5b18
    f92c:	e3400001 	movt	r0, #1
    f930:	e28d2008 	add	r2, sp, #8
    f934:	e3a01009 	mov	r1, #9
    f938:	ebfffd7e 	bl	ef38 <printf>
    f93c:	eaffff33 	b	f610 <BENCHTEST_snprintf+0x38c>
    f940:	e3053bac 	movw	r3, #23468	; 0x5bac
    f944:	e3403001 	movt	r3, #1
    f948:	e3050b18 	movw	r0, #23320	; 0x5b18
    f94c:	e3400001 	movt	r0, #1
    f950:	e28d2008 	add	r2, sp, #8
    f954:	e3a01008 	mov	r1, #8
    f958:	ebfffd76 	bl	ef38 <printf>
    f95c:	eaffff0c 	b	f594 <BENCHTEST_snprintf+0x310>
    f960:	e3053b94 	movw	r3, #23444	; 0x5b94
    f964:	e3403001 	movt	r3, #1
    f968:	e3050b18 	movw	r0, #23320	; 0x5b18
    f96c:	e3400001 	movt	r0, #1
    f970:	e28d2008 	add	r2, sp, #8
    f974:	e3a01007 	mov	r1, #7
    f978:	ebfffd6e 	bl	ef38 <printf>
    f97c:	eafffeeb 	b	f530 <BENCHTEST_snprintf+0x2ac>
    f980:	e3053b84 	movw	r3, #23428	; 0x5b84
    f984:	e3403001 	movt	r3, #1
    f988:	e3050b18 	movw	r0, #23320	; 0x5b18
    f98c:	e3400001 	movt	r0, #1
    f990:	e28d2008 	add	r2, sp, #8
    f994:	e3a01006 	mov	r1, #6
    f998:	ebfffd66 	bl	ef38 <printf>
    f99c:	eafffecb 	b	f4d0 <BENCHTEST_snprintf+0x24c>
    f9a0:	e3053b74 	movw	r3, #23412	; 0x5b74
    f9a4:	e3403001 	movt	r3, #1
    f9a8:	e3050b18 	movw	r0, #23320	; 0x5b18
    f9ac:	e3400001 	movt	r0, #1
    f9b0:	e28d2008 	add	r2, sp, #8
    f9b4:	e3a01005 	mov	r1, #5
    f9b8:	ebfffd5e 	bl	ef38 <printf>
    f9bc:	eafffeab 	b	f470 <BENCHTEST_snprintf+0x1ec>
    f9c0:	e3053b64 	movw	r3, #23396	; 0x5b64
    f9c4:	e3403001 	movt	r3, #1
    f9c8:	e3050b18 	movw	r0, #23320	; 0x5b18
    f9cc:	e3400001 	movt	r0, #1
    f9d0:	e28d2008 	add	r2, sp, #8
    f9d4:	e3a01004 	mov	r1, #4
    f9d8:	ebfffd56 	bl	ef38 <printf>
    f9dc:	eafffe8b 	b	f410 <BENCHTEST_snprintf+0x18c>
    f9e0:	e3053b54 	movw	r3, #23380	; 0x5b54
    f9e4:	e3403001 	movt	r3, #1
    f9e8:	e3050b18 	movw	r0, #23320	; 0x5b18
    f9ec:	e3400001 	movt	r0, #1
    f9f0:	e28d2008 	add	r2, sp, #8
    f9f4:	e3a01003 	mov	r1, #3
    f9f8:	ebfffd4e 	bl	ef38 <printf>
    f9fc:	eafffe6b 	b	f3b0 <BENCHTEST_snprintf+0x12c>
    fa00:	e3053b40 	movw	r3, #23360	; 0x5b40
    fa04:	e3403001 	movt	r3, #1
    fa08:	e3050b18 	movw	r0, #23320	; 0x5b18
    fa0c:	e3400001 	movt	r0, #1
    fa10:	e28d2008 	add	r2, sp, #8
    fa14:	e3a01002 	mov	r1, #2
    fa18:	e1a04005 	mov	r4, r5
    fa1c:	ebfffd45 	bl	ef38 <printf>
    fa20:	eafffe4a 	b	f350 <BENCHTEST_snprintf+0xcc>

0000fa24 <ClearArea16>:
    fa24:	e92d47f0 	push	{r4, r5, r6, r7, r8, r9, sl, lr}
    fa28:	e5908004 	ldr	r8, [r0, #4]
    fa2c:	e59d9020 	ldr	r9, [sp, #32]
    fa30:	e5905000 	ldr	r5, [r0]
    fa34:	e0599002 	subs	r9, r9, r2
    fa38:	e5d0e02a 	ldrb	lr, [r0, #42]	; 0x2a
    fa3c:	e0221892 	mla	r2, r2, r8, r1
    fa40:	e5d0c029 	ldrb	ip, [r0, #41]	; 0x29
    fa44:	e5d04028 	ldrb	r4, [r0, #40]	; 0x28
    fa48:	e0855082 	add	r5, r5, r2, lsl #1
    fa4c:	08bd87f0 	popeq	{r4, r5, r6, r7, r8, r9, sl, pc}
    fa50:	e0533001 	subs	r3, r3, r1
    fa54:	e1a08088 	lsl	r8, r8, #1
    fa58:	08bd87f0 	popeq	{r4, r5, r6, r7, r8, r9, sl, pc}
    fa5c:	e1a0012c 	lsr	r0, ip, #2
    fa60:	e1a0e1ae 	lsr	lr, lr, #3
    fa64:	e200c007 	and	ip, r0, #7
    fa68:	e1a041a4 	lsr	r4, r4, #3
    fa6c:	e1a07083 	lsl	r7, r3, #1
    fa70:	e1a001a0 	lsr	r0, r0, #3
    fa74:	e3a06000 	mov	r6, #0
    fa78:	e1a0c28c 	lsl	ip, ip, #5
    fa7c:	e1a02005 	mov	r2, r5
    fa80:	e0851007 	add	r1, r5, r7
    fa84:	e5d23001 	ldrb	r3, [r2, #1]
    fa88:	e184a00c 	orr	sl, r4, ip
    fa8c:	e5c2a000 	strb	sl, [r2]
    fa90:	e2822002 	add	r2, r2, #2
    fa94:	e3c33007 	bic	r3, r3, #7
    fa98:	e1833000 	orr	r3, r3, r0
    fa9c:	e7c7319e 	bfi	r3, lr, #3, #5
    faa0:	e5423001 	strb	r3, [r2, #-1]
    faa4:	e1510002 	cmp	r1, r2
    faa8:	1afffff5 	bne	fa84 <ClearArea16+0x60>
    faac:	e2866001 	add	r6, r6, #1
    fab0:	e0855008 	add	r5, r5, r8
    fab4:	e1560009 	cmp	r6, r9
    fab8:	1affffef 	bne	fa7c <ClearArea16+0x58>
    fabc:	e8bd87f0 	pop	{r4, r5, r6, r7, r8, r9, sl, pc}

0000fac0 <VertLine16>:
    fac0:	e92d47f0 	push	{r4, r5, r6, r7, r8, r9, sl, lr}
    fac4:	e3510000 	cmp	r1, #0
    fac8:	e5905004 	ldr	r5, [r0, #4]
    facc:	e5909014 	ldr	r9, [r0, #20]
    fad0:	e590e010 	ldr	lr, [r0, #16]
    fad4:	e1a05085 	lsl	r5, r5, #1
    fad8:	e590c000 	ldr	ip, [r0]
    fadc:	e5d06022 	ldrb	r6, [r0, #34]	; 0x22
    fae0:	e5d04021 	ldrb	r4, [r0, #33]	; 0x21
    fae4:	e0030599 	mul	r3, r9, r5
    fae8:	e5d07020 	ldrb	r7, [r0, #32]
    faec:	e083308e 	add	r3, r3, lr, lsl #1
    faf0:	e083300c 	add	r3, r3, ip
    faf4:	0a000013 	beq	fb48 <VertLine16+0x88>
    faf8:	e1a04124 	lsr	r4, r4, #2
    fafc:	e3520001 	cmp	r2, #1
    fb00:	e2048007 	and	r8, r4, #7
    fb04:	e1a061a6 	lsr	r6, r6, #3
    fb08:	e1a071a7 	lsr	r7, r7, #3
    fb0c:	e1a041a4 	lsr	r4, r4, #3
    fb10:	e3a0e000 	mov	lr, #0
    fb14:	e1a08288 	lsl	r8, r8, #5
    fb18:	0a00000d 	beq	fb54 <VertLine16+0x94>
    fb1c:	e5d3c001 	ldrb	ip, [r3, #1]
    fb20:	e28ee001 	add	lr, lr, #1
    fb24:	e151000e 	cmp	r1, lr
    fb28:	e187a008 	orr	sl, r7, r8
    fb2c:	e3ccc007 	bic	ip, ip, #7
    fb30:	e5c3a000 	strb	sl, [r3]
    fb34:	e18cc004 	orr	ip, ip, r4
    fb38:	e7c7c196 	bfi	ip, r6, #3, #5
    fb3c:	e5c3c001 	strb	ip, [r3, #1]
    fb40:	e0433005 	sub	r3, r3, r5
    fb44:	1afffff4 	bne	fb1c <VertLine16+0x5c>
    fb48:	e0219291 	mla	r1, r1, r2, r9
    fb4c:	e5801014 	str	r1, [r0, #20]
    fb50:	e8bd87f0 	pop	{r4, r5, r6, r7, r8, r9, sl, pc}
    fb54:	e5d3c001 	ldrb	ip, [r3, #1]
    fb58:	e28ee001 	add	lr, lr, #1
    fb5c:	e151000e 	cmp	r1, lr
    fb60:	e187a008 	orr	sl, r7, r8
    fb64:	e3ccc007 	bic	ip, ip, #7
    fb68:	e5c3a000 	strb	sl, [r3]
    fb6c:	e18cc004 	orr	ip, ip, r4
    fb70:	e7c7c196 	bfi	ip, r6, #3, #5
    fb74:	e5c3c001 	strb	ip, [r3, #1]
    fb78:	e0833005 	add	r3, r3, r5
    fb7c:	1afffff4 	bne	fb54 <VertLine16+0x94>
    fb80:	eafffff0 	b	fb48 <VertLine16+0x88>

0000fb84 <HorzLine16>:
    fb84:	e590c004 	ldr	ip, [r0, #4]
    fb88:	e3510000 	cmp	r1, #0
    fb8c:	e92d47f0 	push	{r4, r5, r6, r7, r8, r9, sl, lr}
    fb90:	e5909010 	ldr	r9, [r0, #16]
    fb94:	e590e014 	ldr	lr, [r0, #20]
    fb98:	e1a0c08c 	lsl	ip, ip, #1
    fb9c:	e5d05022 	ldrb	r5, [r0, #34]	; 0x22
    fba0:	e1a03089 	lsl	r3, r9, #1
    fba4:	e5d04021 	ldrb	r4, [r0, #33]	; 0x21
    fba8:	e5d06020 	ldrb	r6, [r0, #32]
    fbac:	e02c3c9e 	mla	ip, lr, ip, r3
    fbb0:	e5903000 	ldr	r3, [r0]
    fbb4:	e08cc003 	add	ip, ip, r3
    fbb8:	0a000012 	beq	fc08 <HorzLine16+0x84>
    fbbc:	e1a04124 	lsr	r4, r4, #2
    fbc0:	e1a051a5 	lsr	r5, r5, #3
    fbc4:	e2047007 	and	r7, r4, #7
    fbc8:	e1a061a6 	lsr	r6, r6, #3
    fbcc:	e1a041a4 	lsr	r4, r4, #3
    fbd0:	e1a08082 	lsl	r8, r2, #1
    fbd4:	e3a0e000 	mov	lr, #0
    fbd8:	e1a07287 	lsl	r7, r7, #5
    fbdc:	e5dc3001 	ldrb	r3, [ip, #1]
    fbe0:	e28ee001 	add	lr, lr, #1
    fbe4:	e151000e 	cmp	r1, lr
    fbe8:	e186a007 	orr	sl, r6, r7
    fbec:	e3c33007 	bic	r3, r3, #7
    fbf0:	e5cca000 	strb	sl, [ip]
    fbf4:	e1833004 	orr	r3, r3, r4
    fbf8:	e7c73195 	bfi	r3, r5, #3, #5
    fbfc:	e5cc3001 	strb	r3, [ip, #1]
    fc00:	e08cc008 	add	ip, ip, r8
    fc04:	1afffff4 	bne	fbdc <HorzLine16+0x58>
    fc08:	e0219291 	mla	r1, r1, r2, r9
    fc0c:	e5801010 	str	r1, [r0, #16]
    fc10:	e8bd87f0 	pop	{r4, r5, r6, r7, r8, r9, sl, pc}

0000fc14 <DiagLine16>:
    fc14:	e92d4ff0 	push	{r4, r5, r6, r7, r8, r9, sl, fp, lr}
    fc18:	e1510002 	cmp	r1, r2
    fc1c:	e590b004 	ldr	fp, [r0, #4]
    fc20:	e24dd014 	sub	sp, sp, #20
    fc24:	e590c014 	ldr	ip, [r0, #20]
    fc28:	31a02001 	movcc	r2, r1
    fc2c:	e3510000 	cmp	r1, #0
    fc30:	e1a0e00c 	mov	lr, ip
    fc34:	e5d07022 	ldrb	r7, [r0, #34]	; 0x22
    fc38:	e58d3004 	str	r3, [sp, #4]
    fc3c:	e5903010 	ldr	r3, [r0, #16]
    fc40:	e58dc00c 	str	ip, [sp, #12]
    fc44:	e1a0c08b 	lsl	ip, fp, #1
    fc48:	e58d3008 	str	r3, [sp, #8]
    fc4c:	e1a03083 	lsl	r3, r3, #1
    fc50:	e5d06021 	ldrb	r6, [r0, #33]	; 0x21
    fc54:	e02c3c9e 	mla	ip, lr, ip, r3
    fc58:	e5903000 	ldr	r3, [r0]
    fc5c:	e5d08020 	ldrb	r8, [r0, #32]
    fc60:	e08cc003 	add	ip, ip, r3
    fc64:	0a00001b 	beq	fcd8 <DiagLine16+0xc4>
    fc68:	e59d3038 	ldr	r3, [sp, #56]	; 0x38
    fc6c:	e1a06126 	lsr	r6, r6, #2
    fc70:	e2069007 	and	r9, r6, #7
    fc74:	e3a05000 	mov	r5, #0
    fc78:	e1a071a7 	lsr	r7, r7, #3
    fc7c:	e1a081a8 	lsr	r8, r8, #3
    fc80:	e1a03083 	lsl	r3, r3, #1
    fc84:	e1a061a6 	lsr	r6, r6, #3
    fc88:	e1a09289 	lsl	r9, r9, #5
    fc8c:	e1a0e005 	mov	lr, r5
    fc90:	e00b039b 	mul	fp, fp, r3
    fc94:	e59d3004 	ldr	r3, [sp, #4]
    fc98:	e1a0a083 	lsl	sl, r3, #1
    fc9c:	e5dc3001 	ldrb	r3, [ip, #1]
    fca0:	e08ee002 	add	lr, lr, r2
    fca4:	e1884009 	orr	r4, r8, r9
    fca8:	e151000e 	cmp	r1, lr
    fcac:	e3c33007 	bic	r3, r3, #7
    fcb0:	e2855001 	add	r5, r5, #1
    fcb4:	e1833006 	orr	r3, r3, r6
    fcb8:	e5cc4000 	strb	r4, [ip]
    fcbc:	e7c73197 	bfi	r3, r7, #3, #5
    fcc0:	904ee001 	subls	lr, lr, r1
    fcc4:	e5cc3001 	strb	r3, [ip, #1]
    fcc8:	e08cc00a 	add	ip, ip, sl
    fccc:	908cc00b 	addls	ip, ip, fp
    fcd0:	e1510005 	cmp	r1, r5
    fcd4:	1afffff0 	bne	fc9c <DiagLine16+0x88>
    fcd8:	e99d1008 	ldmib	sp, {r3, ip}
    fcdc:	e021c391 	mla	r1, r1, r3, ip
    fce0:	e59d3038 	ldr	r3, [sp, #56]	; 0x38
    fce4:	e59dc00c 	ldr	ip, [sp, #12]
    fce8:	e5801010 	str	r1, [r0, #16]
    fcec:	e022c392 	mla	r2, r2, r3, ip
    fcf0:	e5802014 	str	r2, [r0, #20]
    fcf4:	e28dd014 	add	sp, sp, #20
    fcf8:	e8bd8ff0 	pop	{r4, r5, r6, r7, r8, r9, sl, fp, pc}

0000fcfc <WriteChar16>:
    fcfc:	e92d4ff0 	push	{r4, r5, r6, r7, r8, r9, sl, fp, lr}
    fd00:	e3053cbc 	movw	r3, #23740	; 0x5cbc
    fd04:	e3403001 	movt	r3, #1
    fd08:	e24dd01c 	sub	sp, sp, #28
    fd0c:	e590c010 	ldr	ip, [r0, #16]
    fd10:	e0832201 	add	r2, r3, r1, lsl #4
    fd14:	e590a004 	ldr	sl, [r0, #4]
    fd18:	e1a03002 	mov	r3, r2
    fd1c:	e2422004 	sub	r2, r2, #4
    fd20:	e5905014 	ldr	r5, [r0, #20]
    fd24:	e283300c 	add	r3, r3, #12
    fd28:	e58d2008 	str	r2, [sp, #8]
    fd2c:	e1a02000 	mov	r2, r0
    fd30:	e5d0b022 	ldrb	fp, [r0, #34]	; 0x22
    fd34:	e1a0a08a 	lsl	sl, sl, #1
    fd38:	e58d0014 	str	r0, [sp, #20]
    fd3c:	e1a0008c 	lsl	r0, ip, #1
    fd40:	e58dc010 	str	ip, [sp, #16]
    fd44:	e1a0c002 	mov	ip, r2
    fd48:	e5d21021 	ldrb	r1, [r2, #33]	; 0x21
    fd4c:	e0250a95 	mla	r5, r5, sl, r0
    fd50:	e5d22020 	ldrb	r2, [r2, #32]
    fd54:	e1a0b1ab 	lsr	fp, fp, #3
    fd58:	e58d300c 	str	r3, [sp, #12]
    fd5c:	e5dc9026 	ldrb	r9, [ip, #38]	; 0x26
    fd60:	e1a01121 	lsr	r1, r1, #2
    fd64:	e59c3000 	ldr	r3, [ip]
    fd68:	e1a021a2 	lsr	r2, r2, #3
    fd6c:	e5dc8025 	ldrb	r8, [ip, #37]	; 0x25
    fd70:	e5dc7024 	ldrb	r7, [ip, #36]	; 0x24
    fd74:	e0855003 	add	r5, r5, r3
    fd78:	e59d3008 	ldr	r3, [sp, #8]
    fd7c:	e1a091a9 	lsr	r9, r9, #3
    fd80:	e1a08128 	lsr	r8, r8, #2
    fd84:	e58d1000 	str	r1, [sp]
    fd88:	e1a071a7 	lsr	r7, r7, #3
    fd8c:	e58d2004 	str	r2, [sp, #4]
    fd90:	e5b3e004 	ldr	lr, [r3, #4]!
    fd94:	e3a00000 	mov	r0, #0
    fd98:	e58d3008 	str	r3, [sp, #8]
    fd9c:	e35e0000 	cmp	lr, #0
    fda0:	e1a01008 	mov	r1, r8
    fda4:	e1a03007 	mov	r3, r7
    fda8:	e2002007 	and	r2, r0, #7
    fdac:	e1a04009 	mov	r4, r9
    fdb0:	e2800001 	add	r0, r0, #1
    fdb4:	b89d000a 	ldmlt	sp, {r1, r3}
    fdb8:	e085c082 	add	ip, r5, r2, lsl #1
    fdbc:	b1a0400b 	movlt	r4, fp
    fdc0:	e3520007 	cmp	r2, #7
    fdc4:	e1a0e08e 	lsl	lr, lr, #1
    fdc8:	e2016007 	and	r6, r1, #7
    fdcc:	e1833286 	orr	r3, r3, r6, lsl #5
    fdd0:	e7c53082 	strb	r3, [r5, r2, lsl #1]
    fdd4:	0085500a 	addeq	r5, r5, sl
    fdd8:	e3500020 	cmp	r0, #32
    fddc:	e5dc3001 	ldrb	r3, [ip, #1]
    fde0:	e3c33007 	bic	r3, r3, #7
    fde4:	e18311a1 	orr	r1, r3, r1, lsr #3
    fde8:	e7c71194 	bfi	r1, r4, #3, #5
    fdec:	e5cc1001 	strb	r1, [ip, #1]
    fdf0:	1affffe9 	bne	fd9c <WriteChar16+0xa0>
    fdf4:	e59d3008 	ldr	r3, [sp, #8]
    fdf8:	e59d200c 	ldr	r2, [sp, #12]
    fdfc:	e1530002 	cmp	r3, r2
    fe00:	1affffe2 	bne	fd90 <WriteChar16+0x94>
    fe04:	e59d2014 	ldr	r2, [sp, #20]
    fe08:	e59d3010 	ldr	r3, [sp, #16]
    fe0c:	e2833008 	add	r3, r3, #8
    fe10:	e5823010 	str	r3, [r2, #16]
    fe14:	e28dd01c 	add	sp, sp, #28
    fe18:	e8bd8ff0 	pop	{r4, r5, r6, r7, r8, r9, sl, fp, pc}

0000fe1c <TransparentWriteChar16>:
    fe1c:	e92d4ff0 	push	{r4, r5, r6, r7, r8, r9, sl, fp, lr}
    fe20:	e3053cbc 	movw	r3, #23740	; 0x5cbc
    fe24:	e3403001 	movt	r3, #1
    fe28:	e5906004 	ldr	r6, [r0, #4]
    fe2c:	e24dd00c 	sub	sp, sp, #12
    fe30:	e5902010 	ldr	r2, [r0, #16]
    fe34:	e083a201 	add	sl, r3, r1, lsl #4
    fe38:	e5904014 	ldr	r4, [r0, #20]
    fe3c:	e1a0300a 	mov	r3, sl
    fe40:	e5d05021 	ldrb	r5, [r0, #33]	; 0x21
    fe44:	e1a06086 	lsl	r6, r6, #1
    fe48:	e58d2004 	str	r2, [sp, #4]
    fe4c:	e1a02082 	lsl	r2, r2, #1
    fe50:	e5d09022 	ldrb	r9, [r0, #34]	; 0x22
    fe54:	e283b00c 	add	fp, r3, #12
    fe58:	e1a05125 	lsr	r5, r5, #2
    fe5c:	e5d07020 	ldrb	r7, [r0, #32]
    fe60:	e2058007 	and	r8, r5, #7
    fe64:	e0242694 	mla	r4, r4, r6, r2
    fe68:	e5903000 	ldr	r3, [r0]
    fe6c:	e24aa004 	sub	sl, sl, #4
    fe70:	e1a051a5 	lsr	r5, r5, #3
    fe74:	e1a091a9 	lsr	r9, r9, #3
    fe78:	e0844003 	add	r4, r4, r3
    fe7c:	e1a08288 	lsl	r8, r8, #5
    fe80:	e1a071a7 	lsr	r7, r7, #3
    fe84:	e5ba2004 	ldr	r2, [sl, #4]!
    fe88:	e3a03000 	mov	r3, #0
    fe8c:	ea000003 	b	fea0 <TransparentWriteChar16+0x84>
    fe90:	e3510007 	cmp	r1, #7
    fe94:	00844006 	addeq	r4, r4, r6
    fe98:	e3530020 	cmp	r3, #32
    fe9c:	0a000010 	beq	fee4 <TransparentWriteChar16+0xc8>
    fea0:	e3520000 	cmp	r2, #0
    fea4:	e2031007 	and	r1, r3, #7
    fea8:	e1a02082 	lsl	r2, r2, #1
    feac:	e2833001 	add	r3, r3, #1
    feb0:	aafffff6 	bge	fe90 <TransparentWriteChar16+0x74>
    feb4:	e084e081 	add	lr, r4, r1, lsl #1
    feb8:	e187c008 	orr	ip, r7, r8
    febc:	e7c4c081 	strb	ip, [r4, r1, lsl #1]
    fec0:	e3510007 	cmp	r1, #7
    fec4:	00844006 	addeq	r4, r4, r6
    fec8:	e3530020 	cmp	r3, #32
    fecc:	e5dec001 	ldrb	ip, [lr, #1]
    fed0:	e3ccc007 	bic	ip, ip, #7
    fed4:	e18cc005 	orr	ip, ip, r5
    fed8:	e7c7c199 	bfi	ip, r9, #3, #5
    fedc:	e5cec001 	strb	ip, [lr, #1]
    fee0:	1affffee 	bne	fea0 <TransparentWriteChar16+0x84>
    fee4:	e15a000b 	cmp	sl, fp
    fee8:	1affffe5 	bne	fe84 <TransparentWriteChar16+0x68>
    feec:	e59d3004 	ldr	r3, [sp, #4]
    fef0:	e2833008 	add	r3, r3, #8
    fef4:	e5803010 	str	r3, [r0, #16]
    fef8:	e28dd00c 	add	sp, sp, #12
    fefc:	e8bd8ff0 	pop	{r4, r5, r6, r7, r8, r9, sl, fp, pc}

0000ff00 <PutImage16>:
    ff00:	e92d4ff0 	push	{r4, r5, r6, r7, r8, r9, sl, fp, lr}
    ff04:	e2529000 	subs	r9, r2, #0
    ff08:	e5908004 	ldr	r8, [r0, #4]
    ff0c:	e5904014 	ldr	r4, [r0, #20]
    ff10:	e24dd00c 	sub	sp, sp, #12
    ff14:	e590c010 	ldr	ip, [r0, #16]
    ff18:	e1a08088 	lsl	r8, r8, #1
    ff1c:	e5902000 	ldr	r2, [r0]
    ff20:	e5ddb030 	ldrb	fp, [sp, #48]	; 0x30
    ff24:	e0040894 	mul	r4, r4, r8
    ff28:	e084408c 	add	r4, r4, ip, lsl #1
    ff2c:	e0844002 	add	r4, r4, r2
    ff30:	0a000017 	beq	ff94 <PutImage16+0x94>
    ff34:	e3510000 	cmp	r1, #0
    ff38:	0a000015 	beq	ff94 <PutImage16+0x94>
    ff3c:	e1a05003 	mov	r5, r3
    ff40:	e1a06001 	mov	r6, r1
    ff44:	e1a03081 	lsl	r3, r1, #1
    ff48:	e3a07000 	mov	r7, #0
    ff4c:	e58d3004 	str	r3, [sp, #4]
    ff50:	e3a0a000 	mov	sl, #0
    ff54:	e1a0008a 	lsl	r0, sl, #1
    ff58:	e3a02002 	mov	r2, #2
    ff5c:	e0851000 	add	r1, r5, r0
    ff60:	e28aa001 	add	sl, sl, #1
    ff64:	e0840000 	add	r0, r4, r0
    ff68:	fa000849 	blx	12094 <memcpy>
    ff6c:	e156000a 	cmp	r6, sl
    ff70:	1afffff7 	bne	ff54 <PutImage16+0x54>
    ff74:	e35b0000 	cmp	fp, #0
    ff78:	e2877001 	add	r7, r7, #1
    ff7c:	0a000006 	beq	ff9c <PutImage16+0x9c>
    ff80:	e1590007 	cmp	r9, r7
    ff84:	e59d3004 	ldr	r3, [sp, #4]
    ff88:	e0444008 	sub	r4, r4, r8
    ff8c:	e0855003 	add	r5, r5, r3
    ff90:	1affffee 	bne	ff50 <PutImage16+0x50>
    ff94:	e28dd00c 	add	sp, sp, #12
    ff98:	e8bd8ff0 	pop	{r4, r5, r6, r7, r8, r9, sl, fp, pc}
    ff9c:	e1590007 	cmp	r9, r7
    ffa0:	e59d3004 	ldr	r3, [sp, #4]
    ffa4:	e0844008 	add	r4, r4, r8
    ffa8:	e0855003 	add	r5, r5, r3
    ffac:	1affffe7 	bne	ff50 <PutImage16+0x50>
    ffb0:	e28dd00c 	add	sp, sp, #12
    ffb4:	e8bd8ff0 	pop	{r4, r5, r6, r7, r8, r9, sl, fp, pc}

0000ffb8 <ClearArea24>:
    ffb8:	e92d47f0 	push	{r4, r5, r6, r7, r8, r9, sl, lr}
    ffbc:	e5908004 	ldr	r8, [r0, #4]
    ffc0:	e59d9020 	ldr	r9, [sp, #32]
    ffc4:	e5905000 	ldr	r5, [r0]
    ffc8:	e0599002 	subs	r9, r9, r2
    ffcc:	e0221892 	mla	r2, r2, r8, r1
    ffd0:	e0822082 	add	r2, r2, r2, lsl #1
    ffd4:	e0825005 	add	r5, r2, r5
    ffd8:	08bd87f0 	popeq	{r4, r5, r6, r7, r8, r9, sl, pc}
    ffdc:	e0537001 	subs	r7, r3, r1
    ffe0:	e0888088 	add	r8, r8, r8, lsl #1
    ffe4:	08bd87f0 	popeq	{r4, r5, r6, r7, r8, r9, sl, pc}
    ffe8:	e0877087 	add	r7, r7, r7, lsl #1
    ffec:	e2806028 	add	r6, r0, #40	; 0x28
    fff0:	e3a0a000 	mov	sl, #0
    fff4:	e3a04000 	mov	r4, #0
    fff8:	e3a02003 	mov	r2, #3
    fffc:	e0850004 	add	r0, r5, r4
   10000:	e1a01006 	mov	r1, r6
   10004:	e0844002 	add	r4, r4, r2
   10008:	fa000821 	blx	12094 <memcpy>
   1000c:	e1540007 	cmp	r4, r7
   10010:	1afffff8 	bne	fff8 <ClearArea24+0x40>
   10014:	e28aa001 	add	sl, sl, #1
   10018:	e0855008 	add	r5, r5, r8
   1001c:	e15a0009 	cmp	sl, r9
   10020:	1afffff3 	bne	fff4 <ClearArea24+0x3c>
   10024:	e8bd87f0 	pop	{r4, r5, r6, r7, r8, r9, sl, pc}

00010028 <VertLine24>:
   10028:	e92d47f0 	push	{r4, r5, r6, r7, r8, r9, sl, lr}
   1002c:	e1a08002 	mov	r8, r2
   10030:	e5904004 	ldr	r4, [r0, #4]
   10034:	e5902010 	ldr	r2, [r0, #16]
   10038:	e2515000 	subs	r5, r1, #0
   1003c:	e5907014 	ldr	r7, [r0, #20]
   10040:	e1a06000 	mov	r6, r0
   10044:	e0844084 	add	r4, r4, r4, lsl #1
   10048:	e5901000 	ldr	r1, [r0]
   1004c:	e0822082 	add	r2, r2, r2, lsl #1
   10050:	e0232497 	mla	r3, r7, r4, r2
   10054:	e0833001 	add	r3, r3, r1
   10058:	0a00000b 	beq	1008c <VertLine24+0x64>
   1005c:	e3580001 	cmp	r8, #1
   10060:	e3a09000 	mov	r9, #0
   10064:	e280a020 	add	sl, r0, #32
   10068:	0a00000a 	beq	10098 <VertLine24+0x70>
   1006c:	e1a00003 	mov	r0, r3
   10070:	e2899001 	add	r9, r9, #1
   10074:	e3a02003 	mov	r2, #3
   10078:	e1a0100a 	mov	r1, sl
   1007c:	fa000804 	blx	12094 <memcpy>
   10080:	e1550009 	cmp	r5, r9
   10084:	e0403004 	sub	r3, r0, r4
   10088:	1afffff7 	bne	1006c <VertLine24+0x44>
   1008c:	e0257895 	mla	r5, r5, r8, r7
   10090:	e5865014 	str	r5, [r6, #20]
   10094:	e8bd87f0 	pop	{r4, r5, r6, r7, r8, r9, sl, pc}
   10098:	e1a00003 	mov	r0, r3
   1009c:	e2899001 	add	r9, r9, #1
   100a0:	e3a02003 	mov	r2, #3
   100a4:	e1a0100a 	mov	r1, sl
   100a8:	fa0007f9 	blx	12094 <memcpy>
   100ac:	e1550009 	cmp	r5, r9
   100b0:	e0803004 	add	r3, r0, r4
   100b4:	1afffff7 	bne	10098 <VertLine24+0x70>
   100b8:	eafffff3 	b	1008c <VertLine24+0x64>

000100bc <HorzLine24>:
   100bc:	e5903004 	ldr	r3, [r0, #4]
   100c0:	e92d47f0 	push	{r4, r5, r6, r7, r8, r9, sl, lr}
   100c4:	e1a05000 	mov	r5, r0
   100c8:	e5906010 	ldr	r6, [r0, #16]
   100cc:	e5900014 	ldr	r0, [r0, #20]
   100d0:	e0833083 	add	r3, r3, r3, lsl #1
   100d4:	e2514000 	subs	r4, r1, #0
   100d8:	e1a07002 	mov	r7, r2
   100dc:	e0861086 	add	r1, r6, r6, lsl #1
   100e0:	e5952000 	ldr	r2, [r5]
   100e4:	1087a087 	addne	sl, r7, r7, lsl #1
   100e8:	13a08000 	movne	r8, #0
   100ec:	e0231390 	mla	r3, r0, r3, r1
   100f0:	12859020 	addne	r9, r5, #32
   100f4:	e0833002 	add	r3, r3, r2
   100f8:	0a000007 	beq	1011c <HorzLine24+0x60>
   100fc:	e1a00003 	mov	r0, r3
   10100:	e2888001 	add	r8, r8, #1
   10104:	e3a02003 	mov	r2, #3
   10108:	e1a01009 	mov	r1, r9
   1010c:	fa0007e0 	blx	12094 <memcpy>
   10110:	e1540008 	cmp	r4, r8
   10114:	e080300a 	add	r3, r0, sl
   10118:	1afffff7 	bne	100fc <HorzLine24+0x40>
   1011c:	e0246794 	mla	r4, r4, r7, r6
   10120:	e5854010 	str	r4, [r5, #16]
   10124:	e8bd87f0 	pop	{r4, r5, r6, r7, r8, r9, sl, pc}

00010128 <DiagLine24>:
   10128:	e92d4ff0 	push	{r4, r5, r6, r7, r8, r9, sl, fp, lr}
   1012c:	e1510002 	cmp	r1, r2
   10130:	e5909004 	ldr	r9, [r0, #4]
   10134:	e24dd014 	sub	sp, sp, #20
   10138:	31a06001 	movcc	r6, r1
   1013c:	21a06002 	movcs	r6, r2
   10140:	e1a05001 	mov	r5, r1
   10144:	e3510000 	cmp	r1, #0
   10148:	e1a0a000 	mov	sl, r0
   1014c:	e58d3004 	str	r3, [sp, #4]
   10150:	e5903010 	ldr	r3, [r0, #16]
   10154:	e59a2000 	ldr	r2, [sl]
   10158:	e1a01003 	mov	r1, r3
   1015c:	e58d3008 	str	r3, [sp, #8]
   10160:	e5903014 	ldr	r3, [r0, #20]
   10164:	e0811081 	add	r1, r1, r1, lsl #1
   10168:	e1a00003 	mov	r0, r3
   1016c:	e58d300c 	str	r3, [sp, #12]
   10170:	e0893089 	add	r3, r9, r9, lsl #1
   10174:	e0231390 	mla	r3, r0, r3, r1
   10178:	e0833002 	add	r3, r3, r2
   1017c:	0a000013 	beq	101d0 <DiagLine24+0xa8>
   10180:	e59d2038 	ldr	r2, [sp, #56]	; 0x38
   10184:	e3a0b000 	mov	fp, #0
   10188:	e59d1004 	ldr	r1, [sp, #4]
   1018c:	e1a0400b 	mov	r4, fp
   10190:	e28a7020 	add	r7, sl, #32
   10194:	e0822082 	add	r2, r2, r2, lsl #1
   10198:	e0818081 	add	r8, r1, r1, lsl #1
   1019c:	e0090299 	mul	r9, r9, r2
   101a0:	e0844006 	add	r4, r4, r6
   101a4:	e1a00003 	mov	r0, r3
   101a8:	e3a02003 	mov	r2, #3
   101ac:	e1a01007 	mov	r1, r7
   101b0:	fa0007b7 	blx	12094 <memcpy>
   101b4:	e28bb001 	add	fp, fp, #1
   101b8:	e1550004 	cmp	r5, r4
   101bc:	e0803008 	add	r3, r0, r8
   101c0:	90444005 	subls	r4, r4, r5
   101c4:	90833009 	addls	r3, r3, r9
   101c8:	e155000b 	cmp	r5, fp
   101cc:	1afffff3 	bne	101a0 <DiagLine24+0x78>
   101d0:	e59d3004 	ldr	r3, [sp, #4]
   101d4:	e59d2008 	ldr	r2, [sp, #8]
   101d8:	e0252395 	mla	r5, r5, r3, r2
   101dc:	e59d3038 	ldr	r3, [sp, #56]	; 0x38
   101e0:	e59d200c 	ldr	r2, [sp, #12]
   101e4:	e58a5010 	str	r5, [sl, #16]
   101e8:	e0262396 	mla	r6, r6, r3, r2
   101ec:	e58a6014 	str	r6, [sl, #20]
   101f0:	e28dd014 	add	sp, sp, #20
   101f4:	e8bd8ff0 	pop	{r4, r5, r6, r7, r8, r9, sl, fp, pc}

000101f8 <WriteChar24>:
   101f8:	e92d4ff0 	push	{r4, r5, r6, r7, r8, r9, sl, fp, lr}
   101fc:	e3053cbc 	movw	r3, #23740	; 0x5cbc
   10200:	e3403001 	movt	r3, #1
   10204:	e5906004 	ldr	r6, [r0, #4]
   10208:	e5909010 	ldr	r9, [r0, #16]
   1020c:	e0837201 	add	r7, r3, r1, lsl #4
   10210:	e5904014 	ldr	r4, [r0, #20]
   10214:	e1a03007 	mov	r3, r7
   10218:	e0866086 	add	r6, r6, r6, lsl #1
   1021c:	e283800c 	add	r8, r3, #12
   10220:	e0892089 	add	r2, r9, r9, lsl #1
   10224:	e5903000 	ldr	r3, [r0]
   10228:	e2477004 	sub	r7, r7, #4
   1022c:	e0242694 	mla	r4, r4, r6, r2
   10230:	e0844003 	add	r4, r4, r3
   10234:	e5b71004 	ldr	r1, [r7, #4]!
   10238:	e3a03000 	mov	r3, #0
   1023c:	e3510000 	cmp	r1, #0
   10240:	e2032007 	and	r2, r3, #7
   10244:	e5d0b024 	ldrb	fp, [r0, #36]	; 0x24
   10248:	e2833001 	add	r3, r3, #1
   1024c:	e082e082 	add	lr, r2, r2, lsl #1
   10250:	e5d0a025 	ldrb	sl, [r0, #37]	; 0x25
   10254:	b5d0b020 	ldrblt	fp, [r0, #32]
   10258:	e084c00e 	add	ip, r4, lr
   1025c:	e5d05026 	ldrb	r5, [r0, #38]	; 0x26
   10260:	e1a01081 	lsl	r1, r1, #1
   10264:	b5d0a021 	ldrblt	sl, [r0, #33]	; 0x21
   10268:	b5d05022 	ldrblt	r5, [r0, #34]	; 0x22
   1026c:	e3520007 	cmp	r2, #7
   10270:	e7c4b00e 	strb	fp, [r4, lr]
   10274:	00844006 	addeq	r4, r4, r6
   10278:	e3530020 	cmp	r3, #32
   1027c:	e5cca001 	strb	sl, [ip, #1]
   10280:	e5cc5002 	strb	r5, [ip, #2]
   10284:	1affffec 	bne	1023c <WriteChar24+0x44>
   10288:	e1570008 	cmp	r7, r8
   1028c:	1affffe8 	bne	10234 <WriteChar24+0x3c>
   10290:	e2899008 	add	r9, r9, #8
   10294:	e5809010 	str	r9, [r0, #16]
   10298:	e8bd8ff0 	pop	{r4, r5, r6, r7, r8, r9, sl, fp, pc}

0001029c <TransparentWriteChar24>:
   1029c:	e92d4ff0 	push	{r4, r5, r6, r7, r8, r9, sl, fp, lr}
   102a0:	e1a0b000 	mov	fp, r0
   102a4:	e5902010 	ldr	r2, [r0, #16]
   102a8:	e24dd00c 	sub	sp, sp, #12
   102ac:	e5907004 	ldr	r7, [r0, #4]
   102b0:	e3053cbc 	movw	r3, #23740	; 0x5cbc
   102b4:	e3403001 	movt	r3, #1
   102b8:	e1a08000 	mov	r8, r0
   102bc:	e1a00002 	mov	r0, r2
   102c0:	e58d2000 	str	r2, [sp]
   102c4:	e0839201 	add	r9, r3, r1, lsl #4
   102c8:	e59b2014 	ldr	r2, [fp, #20]
   102cc:	e0877087 	add	r7, r7, r7, lsl #1
   102d0:	e1a03009 	mov	r3, r9
   102d4:	e0800080 	add	r0, r0, r0, lsl #1
   102d8:	e283300c 	add	r3, r3, #12
   102dc:	e4981020 	ldr	r1, [r8], #32
   102e0:	e1a0c003 	mov	ip, r3
   102e4:	e58db004 	str	fp, [sp, #4]
   102e8:	e0230792 	mla	r3, r2, r7, r0
   102ec:	e2499004 	sub	r9, r9, #4
   102f0:	e083a001 	add	sl, r3, r1
   102f4:	e1a0b00a 	mov	fp, sl
   102f8:	e1a0a00c 	mov	sl, ip
   102fc:	e5b95004 	ldr	r5, [r9, #4]!
   10300:	e3a04000 	mov	r4, #0
   10304:	ea000003 	b	10318 <TransparentWriteChar24+0x7c>
   10308:	e3560007 	cmp	r6, #7
   1030c:	008bb007 	addeq	fp, fp, r7
   10310:	e3540020 	cmp	r4, #32
   10314:	0a00000d 	beq	10350 <TransparentWriteChar24+0xb4>
   10318:	e3550000 	cmp	r5, #0
   1031c:	e2046007 	and	r6, r4, #7
   10320:	e1a05085 	lsl	r5, r5, #1
   10324:	e2844001 	add	r4, r4, #1
   10328:	aafffff6 	bge	10308 <TransparentWriteChar24+0x6c>
   1032c:	e0860086 	add	r0, r6, r6, lsl #1
   10330:	e3a02003 	mov	r2, #3
   10334:	e08b0000 	add	r0, fp, r0
   10338:	e1a01008 	mov	r1, r8
   1033c:	fa000754 	blx	12094 <memcpy>
   10340:	e3560007 	cmp	r6, #7
   10344:	008bb007 	addeq	fp, fp, r7
   10348:	e3540020 	cmp	r4, #32
   1034c:	1afffff1 	bne	10318 <TransparentWriteChar24+0x7c>
   10350:	e159000a 	cmp	r9, sl
   10354:	1affffe8 	bne	102fc <TransparentWriteChar24+0x60>
   10358:	e89d0808 	ldm	sp, {r3, fp}
   1035c:	e2833008 	add	r3, r3, #8
   10360:	e58b3010 	str	r3, [fp, #16]
   10364:	e28dd00c 	add	sp, sp, #12
   10368:	e8bd8ff0 	pop	{r4, r5, r6, r7, r8, r9, sl, fp, pc}

0001036c <PutImage24>:
   1036c:	e92d4ff8 	push	{r3, r4, r5, r6, r7, r8, r9, sl, fp, lr}
   10370:	e252a000 	subs	sl, r2, #0
   10374:	e5908004 	ldr	r8, [r0, #4]
   10378:	e5906014 	ldr	r6, [r0, #20]
   1037c:	e590c010 	ldr	ip, [r0, #16]
   10380:	e0888088 	add	r8, r8, r8, lsl #1
   10384:	e5902000 	ldr	r2, [r0]
   10388:	e5dd9028 	ldrb	r9, [sp, #40]	; 0x28
   1038c:	e08cc08c 	add	ip, ip, ip, lsl #1
   10390:	e02cc896 	mla	ip, r6, r8, ip
   10394:	e08c6002 	add	r6, ip, r2
   10398:	0a000019 	beq	10404 <PutImage24+0x98>
   1039c:	e3510000 	cmp	r1, #0
   103a0:	08bd8ff8 	popeq	{r3, r4, r5, r6, r7, r8, r9, sl, fp, pc}
   103a4:	e1a05003 	mov	r5, r3
   103a8:	e0817081 	add	r7, r1, r1, lsl #1
   103ac:	e3a0b000 	mov	fp, #0
   103b0:	e3a04000 	mov	r4, #0
   103b4:	e3a02003 	mov	r2, #3
   103b8:	e0851004 	add	r1, r5, r4
   103bc:	e0860004 	add	r0, r6, r4
   103c0:	e0844002 	add	r4, r4, r2
   103c4:	fa000732 	blx	12094 <memcpy>
   103c8:	e1540007 	cmp	r4, r7
   103cc:	1afffff8 	bne	103b4 <PutImage24+0x48>
   103d0:	e3590000 	cmp	r9, #0
   103d4:	e28bb001 	add	fp, fp, #1
   103d8:	0a000004 	beq	103f0 <PutImage24+0x84>
   103dc:	e15a000b 	cmp	sl, fp
   103e0:	e0466008 	sub	r6, r6, r8
   103e4:	e0855007 	add	r5, r5, r7
   103e8:	1afffff0 	bne	103b0 <PutImage24+0x44>
   103ec:	e8bd8ff8 	pop	{r3, r4, r5, r6, r7, r8, r9, sl, fp, pc}
   103f0:	e15a000b 	cmp	sl, fp
   103f4:	e0866008 	add	r6, r6, r8
   103f8:	e0855007 	add	r5, r5, r7
   103fc:	1affffeb 	bne	103b0 <PutImage24+0x44>
   10400:	e8bd8ff8 	pop	{r3, r4, r5, r6, r7, r8, r9, sl, fp, pc}
   10404:	e8bd8ff8 	pop	{r3, r4, r5, r6, r7, r8, r9, sl, fp, pc}

00010408 <ClearArea32>:
   10408:	e92d4030 	push	{r4, r5, lr}
   1040c:	e1a0c102 	lsl	ip, r2, #2
   10410:	e5904004 	ldr	r4, [r0, #4]
   10414:	e59d500c 	ldr	r5, [sp, #12]
   10418:	e0555002 	subs	r5, r5, r2
   1041c:	e5902000 	ldr	r2, [r0]
   10420:	e02ccc94 	mla	ip, r4, ip, ip
   10424:	e08cc002 	add	ip, ip, r2
   10428:	08bd8030 	popeq	{r4, r5, pc}
   1042c:	e0531001 	subs	r1, r3, r1
   10430:	e1a04104 	lsl	r4, r4, #2
   10434:	13a0e000 	movne	lr, #0
   10438:	0a00000a 	beq	10468 <ClearArea32+0x60>
   1043c:	e3a03000 	mov	r3, #0
   10440:	e5902028 	ldr	r2, [r0, #40]	; 0x28
   10444:	e78c2103 	str	r2, [ip, r3, lsl #2]
   10448:	e2833001 	add	r3, r3, #1
   1044c:	e1530001 	cmp	r3, r1
   10450:	1afffffa 	bne	10440 <ClearArea32+0x38>
   10454:	e28ee001 	add	lr, lr, #1
   10458:	e08cc004 	add	ip, ip, r4
   1045c:	e15e0005 	cmp	lr, r5
   10460:	1afffff5 	bne	1043c <ClearArea32+0x34>
   10464:	e8bd8030 	pop	{r4, r5, pc}
   10468:	e8bd8030 	pop	{r4, r5, pc}

0001046c <VertLine32>:
   1046c:	e92d4030 	push	{r4, r5, lr}
   10470:	e3510000 	cmp	r1, #0
   10474:	e5904004 	ldr	r4, [r0, #4]
   10478:	e5905014 	ldr	r5, [r0, #20]
   1047c:	e590e010 	ldr	lr, [r0, #16]
   10480:	e1a04104 	lsl	r4, r4, #2
   10484:	e590c000 	ldr	ip, [r0]
   10488:	e0030495 	mul	r3, r5, r4
   1048c:	e083310e 	add	r3, r3, lr, lsl #2
   10490:	e083300c 	add	r3, r3, ip
   10494:	0a000008 	beq	104bc <VertLine32+0x50>
   10498:	e3520001 	cmp	r2, #1
   1049c:	e3a0c000 	mov	ip, #0
   104a0:	0a000008 	beq	104c8 <VertLine32+0x5c>
   104a4:	e28cc001 	add	ip, ip, #1
   104a8:	e590e020 	ldr	lr, [r0, #32]
   104ac:	e151000c 	cmp	r1, ip
   104b0:	e583e000 	str	lr, [r3]
   104b4:	e0433004 	sub	r3, r3, r4
   104b8:	1afffff9 	bne	104a4 <VertLine32+0x38>
   104bc:	e0215291 	mla	r1, r1, r2, r5
   104c0:	e5801014 	str	r1, [r0, #20]
   104c4:	e8bd8030 	pop	{r4, r5, pc}
   104c8:	e28cc001 	add	ip, ip, #1
   104cc:	e590e020 	ldr	lr, [r0, #32]
   104d0:	e151000c 	cmp	r1, ip
   104d4:	e683e004 	str	lr, [r3], r4
   104d8:	1afffffa 	bne	104c8 <VertLine32+0x5c>
   104dc:	eafffff6 	b	104bc <VertLine32+0x50>

000104e0 <HorzLine32>:
   104e0:	e590c004 	ldr	ip, [r0, #4]
   104e4:	e3510000 	cmp	r1, #0
   104e8:	e92d4030 	push	{r4, r5, lr}
   104ec:	e5905014 	ldr	r5, [r0, #20]
   104f0:	e5904010 	ldr	r4, [r0, #16]
   104f4:	e1a0c10c 	lsl	ip, ip, #2
   104f8:	e5903000 	ldr	r3, [r0]
   104fc:	e1a0e104 	lsl	lr, r4, #2
   10500:	e02cec95 	mla	ip, r5, ip, lr
   10504:	11a05102 	lslne	r5, r2, #2
   10508:	e08cc003 	add	ip, ip, r3
   1050c:	13a03000 	movne	r3, #0
   10510:	0a000004 	beq	10528 <HorzLine32+0x48>
   10514:	e2833001 	add	r3, r3, #1
   10518:	e590e020 	ldr	lr, [r0, #32]
   1051c:	e1510003 	cmp	r1, r3
   10520:	e68ce005 	str	lr, [ip], r5
   10524:	1afffffa 	bne	10514 <HorzLine32+0x34>
   10528:	e0214291 	mla	r1, r1, r2, r4
   1052c:	e5801010 	str	r1, [r0, #16]
   10530:	e8bd8030 	pop	{r4, r5, pc}

00010534 <DiagLine32>:
   10534:	e92d47f0 	push	{r4, r5, r6, r7, r8, r9, sl, lr}
   10538:	e1510002 	cmp	r1, r2
   1053c:	e5906004 	ldr	r6, [r0, #4]
   10540:	e5907010 	ldr	r7, [r0, #16]
   10544:	31a02001 	movcc	r2, r1
   10548:	e5908014 	ldr	r8, [r0, #20]
   1054c:	e3510000 	cmp	r1, #0
   10550:	e1a0e106 	lsl	lr, r6, #2
   10554:	e590c000 	ldr	ip, [r0]
   10558:	e1a04107 	lsl	r4, r7, #2
   1055c:	e59d9020 	ldr	r9, [sp, #32]
   10560:	e02e4e98 	mla	lr, r8, lr, r4
   10564:	e08ee00c 	add	lr, lr, ip
   10568:	0a00000d 	beq	105a4 <DiagLine32+0x70>
   1056c:	e1a05109 	lsl	r5, r9, #2
   10570:	e3a04000 	mov	r4, #0
   10574:	e1a0c004 	mov	ip, r4
   10578:	e1a0a103 	lsl	sl, r3, #2
   1057c:	e0060596 	mul	r6, r6, r5
   10580:	e5905020 	ldr	r5, [r0, #32]
   10584:	e08cc002 	add	ip, ip, r2
   10588:	e151000c 	cmp	r1, ip
   1058c:	e2844001 	add	r4, r4, #1
   10590:	e68e500a 	str	r5, [lr], sl
   10594:	904cc001 	subls	ip, ip, r1
   10598:	908ee006 	addls	lr, lr, r6
   1059c:	e1510004 	cmp	r1, r4
   105a0:	1afffff6 	bne	10580 <DiagLine32+0x4c>
   105a4:	e0217391 	mla	r1, r1, r3, r7
   105a8:	e0228992 	mla	r2, r2, r9, r8
   105ac:	e5801010 	str	r1, [r0, #16]
   105b0:	e5802014 	str	r2, [r0, #20]
   105b4:	e8bd87f0 	pop	{r4, r5, r6, r7, r8, r9, sl, pc}

000105b8 <WriteChar32>:
   105b8:	e92d40f0 	push	{r4, r5, r6, r7, lr}
   105bc:	e3053cbc 	movw	r3, #23740	; 0x5cbc
   105c0:	e3403001 	movt	r3, #1
   105c4:	e5904004 	ldr	r4, [r0, #4]
   105c8:	e24dd00c 	sub	sp, sp, #12
   105cc:	e5907010 	ldr	r7, [r0, #16]
   105d0:	e0835201 	add	r5, r3, r1, lsl #4
   105d4:	e590e014 	ldr	lr, [r0, #20]
   105d8:	e1a03005 	mov	r3, r5
   105dc:	e1a04104 	lsl	r4, r4, #2
   105e0:	e283600c 	add	r6, r3, #12
   105e4:	e1a02107 	lsl	r2, r7, #2
   105e8:	e5903000 	ldr	r3, [r0]
   105ec:	e2455004 	sub	r5, r5, #4
   105f0:	e02e249e 	mla	lr, lr, r4, r2
   105f4:	e08ee003 	add	lr, lr, r3
   105f8:	e5b52004 	ldr	r2, [r5, #4]!
   105fc:	e3a03000 	mov	r3, #0
   10600:	e3520000 	cmp	r2, #0
   10604:	e2031007 	and	r1, r3, #7
   10608:	e2833001 	add	r3, r3, #1
   1060c:	e1a02082 	lsl	r2, r2, #1
   10610:	a590c024 	ldrge	ip, [r0, #36]	; 0x24
   10614:	b590c020 	ldrlt	ip, [r0, #32]
   10618:	e3510007 	cmp	r1, #7
   1061c:	e78ec101 	str	ip, [lr, r1, lsl #2]
   10620:	008ee004 	addeq	lr, lr, r4
   10624:	e3530020 	cmp	r3, #32
   10628:	e58dc004 	str	ip, [sp, #4]
   1062c:	1afffff3 	bne	10600 <WriteChar32+0x48>
   10630:	e1560005 	cmp	r6, r5
   10634:	1affffef 	bne	105f8 <WriteChar32+0x40>
   10638:	e2877008 	add	r7, r7, #8
   1063c:	e5807010 	str	r7, [r0, #16]
   10640:	e28dd00c 	add	sp, sp, #12
   10644:	e8bd80f0 	pop	{r4, r5, r6, r7, pc}

00010648 <TransparentWriteChar32>:
   10648:	e92d40f0 	push	{r4, r5, r6, r7, lr}
   1064c:	e3053cbc 	movw	r3, #23740	; 0x5cbc
   10650:	e3403001 	movt	r3, #1
   10654:	e5904004 	ldr	r4, [r0, #4]
   10658:	e5907010 	ldr	r7, [r0, #16]
   1065c:	e0835201 	add	r5, r3, r1, lsl #4
   10660:	e590c014 	ldr	ip, [r0, #20]
   10664:	e1a03005 	mov	r3, r5
   10668:	e1a04104 	lsl	r4, r4, #2
   1066c:	e283600c 	add	r6, r3, #12
   10670:	e1a02107 	lsl	r2, r7, #2
   10674:	e5903000 	ldr	r3, [r0]
   10678:	e2455004 	sub	r5, r5, #4
   1067c:	e02c249c 	mla	ip, ip, r4, r2
   10680:	e08cc003 	add	ip, ip, r3
   10684:	e5b52004 	ldr	r2, [r5, #4]!
   10688:	e3a03000 	mov	r3, #0
   1068c:	e3520000 	cmp	r2, #0
   10690:	e2031007 	and	r1, r3, #7
   10694:	e2833001 	add	r3, r3, #1
   10698:	e1a02082 	lsl	r2, r2, #1
   1069c:	b590e020 	ldrlt	lr, [r0, #32]
   106a0:	b78ce101 	strlt	lr, [ip, r1, lsl #2]
   106a4:	e3510007 	cmp	r1, #7
   106a8:	008cc004 	addeq	ip, ip, r4
   106ac:	e3530020 	cmp	r3, #32
   106b0:	1afffff5 	bne	1068c <TransparentWriteChar32+0x44>
   106b4:	e1560005 	cmp	r6, r5
   106b8:	1afffff1 	bne	10684 <TransparentWriteChar32+0x3c>
   106bc:	e2877008 	add	r7, r7, #8
   106c0:	e5807010 	str	r7, [r0, #16]
   106c4:	e8bd80f0 	pop	{r4, r5, r6, r7, pc}

000106c8 <PutImage32>:
   106c8:	e92d40f0 	push	{r4, r5, r6, r7, lr}
   106cc:	e3520000 	cmp	r2, #0
   106d0:	e5905004 	ldr	r5, [r0, #4]
   106d4:	e590e014 	ldr	lr, [r0, #20]
   106d8:	e590c010 	ldr	ip, [r0, #16]
   106dc:	e1a05105 	lsl	r5, r5, #2
   106e0:	e5900000 	ldr	r0, [r0]
   106e4:	e5dd7014 	ldrb	r7, [sp, #20]
   106e8:	e00e059e 	mul	lr, lr, r5
   106ec:	e08ee10c 	add	lr, lr, ip, lsl #2
   106f0:	e08ee000 	add	lr, lr, r0
   106f4:	0a000016 	beq	10754 <PutImage32+0x8c>
   106f8:	e3510000 	cmp	r1, #0
   106fc:	08bd80f0 	popeq	{r4, r5, r6, r7, pc}
   10700:	e1a06101 	lsl	r6, r1, #2
   10704:	e3a04000 	mov	r4, #0
   10708:	e3a00000 	mov	r0, #0
   1070c:	e793c100 	ldr	ip, [r3, r0, lsl #2]
   10710:	e78ec100 	str	ip, [lr, r0, lsl #2]
   10714:	e2800001 	add	r0, r0, #1
   10718:	e1510000 	cmp	r1, r0
   1071c:	1afffffa 	bne	1070c <PutImage32+0x44>
   10720:	e3570000 	cmp	r7, #0
   10724:	e2844001 	add	r4, r4, #1
   10728:	0a000004 	beq	10740 <PutImage32+0x78>
   1072c:	e1520004 	cmp	r2, r4
   10730:	e04ee005 	sub	lr, lr, r5
   10734:	e0833006 	add	r3, r3, r6
   10738:	1afffff2 	bne	10708 <PutImage32+0x40>
   1073c:	e8bd80f0 	pop	{r4, r5, r6, r7, pc}
   10740:	e1520004 	cmp	r2, r4
   10744:	e08ee005 	add	lr, lr, r5
   10748:	e0833006 	add	r3, r3, r6
   1074c:	1affffed 	bne	10708 <PutImage32+0x40>
   10750:	e8bd80f0 	pop	{r4, r5, r6, r7, pc}
   10754:	e8bd80f0 	pop	{r4, r5, r6, r7, pc}

00010758 <mailbox_tag_message.constprop.4>:
   10758:	e92d000e 	push	{r1, r2, r3}
   1075c:	e3a01020 	mov	r1, #32
   10760:	e3a02000 	mov	r2, #0
   10764:	e92d4870 	push	{r4, r5, r6, fp, lr}
   10768:	e28db010 	add	fp, sp, #16
   1076c:	e24dd008 	sub	sp, sp, #8
   10770:	e24dd090 	sub	sp, sp, #144	; 0x90
   10774:	e28d400f 	add	r4, sp, #15
   10778:	e28b3008 	add	r3, fp, #8
   1077c:	e3c4400f 	bic	r4, r4, #15
   10780:	e59b6008 	ldr	r6, [fp, #8]
   10784:	e59b500c 	ldr	r5, [fp, #12]
   10788:	e1a00004 	mov	r0, r4
   1078c:	e59be010 	ldr	lr, [fp, #16]
   10790:	e59bc014 	ldr	ip, [fp, #20]
   10794:	e5841000 	str	r1, [r4]
   10798:	e59b1018 	ldr	r1, [fp, #24]
   1079c:	e584201c 	str	r2, [r4, #28]
   107a0:	e5841018 	str	r1, [r4, #24]
   107a4:	e5842004 	str	r2, [r4, #4]
   107a8:	e5846008 	str	r6, [r4, #8]
   107ac:	e584500c 	str	r5, [r4, #12]
   107b0:	e584e010 	str	lr, [r4, #16]
   107b4:	e584c014 	str	ip, [r4, #20]
   107b8:	e50b3014 	str	r3, [fp, #-20]	; 0xffffffec
   107bc:	ebffdf1d 	bl	8438 <ARMaddrToGPUaddr>
   107c0:	e3073160 	movw	r3, #29024	; 0x7160
   107c4:	e3403001 	movt	r3, #1
   107c8:	e3c0100f 	bic	r1, r0, #15
   107cc:	e3811008 	orr	r1, r1, #8
   107d0:	e5932000 	ldr	r2, [r3]
   107d4:	e2822b2e 	add	r2, r2, #47104	; 0xb800
   107d8:	e2822080 	add	r2, r2, #128	; 0x80
   107dc:	e5923038 	ldr	r3, [r2, #56]	; 0x38
   107e0:	e3530000 	cmp	r3, #0
   107e4:	bafffffc 	blt	107dc <mailbox_tag_message.constprop.4+0x84>
   107e8:	e5821020 	str	r1, [r2, #32]
   107ec:	e5923018 	ldr	r3, [r2, #24]
   107f0:	e3130101 	tst	r3, #1073741824	; 0x40000000
   107f4:	1afffffc 	bne	107ec <mailbox_tag_message.constprop.4+0x94>
   107f8:	e5923000 	ldr	r3, [r2]
   107fc:	e203300f 	and	r3, r3, #15
   10800:	e3530008 	cmp	r3, #8
   10804:	1afffff8 	bne	107ec <mailbox_tag_message.constprop.4+0x94>
   10808:	e5940004 	ldr	r0, [r4, #4]
   1080c:	e2400102 	sub	r0, r0, #-2147483648	; 0x80000000
   10810:	e16f0f10 	clz	r0, r0
   10814:	e1a002a0 	lsr	r0, r0, #5
   10818:	e24bd010 	sub	sp, fp, #16
   1081c:	e8bd4870 	pop	{r4, r5, r6, fp, lr}
   10820:	e28dd00c 	add	sp, sp, #12
   10824:	e12fff1e 	bx	lr

00010828 <mailbox_tag_message.constprop.5>:
   10828:	e92d000e 	push	{r1, r2, r3}
   1082c:	e3a02000 	mov	r2, #0
   10830:	e92d48f0 	push	{r4, r5, r6, r7, fp, lr}
   10834:	e3a07020 	mov	r7, #32
   10838:	e1a05000 	mov	r5, r0
   1083c:	e28db014 	add	fp, sp, #20
   10840:	e24dd00c 	sub	sp, sp, #12
   10844:	e24dd090 	sub	sp, sp, #144	; 0x90
   10848:	e28d400f 	add	r4, sp, #15
   1084c:	e28b3008 	add	r3, fp, #8
   10850:	e3c4400f 	bic	r4, r4, #15
   10854:	e59b1008 	ldr	r1, [fp, #8]
   10858:	e59b600c 	ldr	r6, [fp, #12]
   1085c:	e1a00004 	mov	r0, r4
   10860:	e59be010 	ldr	lr, [fp, #16]
   10864:	e59bc014 	ldr	ip, [fp, #20]
   10868:	e5841008 	str	r1, [r4, #8]
   1086c:	e59b1018 	ldr	r1, [fp, #24]
   10870:	e5847000 	str	r7, [r4]
   10874:	e5841018 	str	r1, [r4, #24]
   10878:	e584600c 	str	r6, [r4, #12]
   1087c:	e584e010 	str	lr, [r4, #16]
   10880:	e584c014 	str	ip, [r4, #20]
   10884:	e584201c 	str	r2, [r4, #28]
   10888:	e5842004 	str	r2, [r4, #4]
   1088c:	e50b301c 	str	r3, [fp, #-28]	; 0xffffffe4
   10890:	ebffdee8 	bl	8438 <ARMaddrToGPUaddr>
   10894:	e3073160 	movw	r3, #29024	; 0x7160
   10898:	e3403001 	movt	r3, #1
   1089c:	e3c0100f 	bic	r1, r0, #15
   108a0:	e3811008 	orr	r1, r1, #8
   108a4:	e5933000 	ldr	r3, [r3]
   108a8:	e2833b2e 	add	r3, r3, #47104	; 0xb800
   108ac:	e2833080 	add	r3, r3, #128	; 0x80
   108b0:	e5932038 	ldr	r2, [r3, #56]	; 0x38
   108b4:	e3520000 	cmp	r2, #0
   108b8:	bafffffc 	blt	108b0 <mailbox_tag_message.constprop.5+0x88>
   108bc:	e5831020 	str	r1, [r3, #32]
   108c0:	e5930018 	ldr	r0, [r3, #24]
   108c4:	e2100101 	ands	r0, r0, #1073741824	; 0x40000000
   108c8:	1afffffc 	bne	108c0 <mailbox_tag_message.constprop.5+0x98>
   108cc:	e5932000 	ldr	r2, [r3]
   108d0:	e202200f 	and	r2, r2, #15
   108d4:	e3520008 	cmp	r2, #8
   108d8:	1afffff8 	bne	108c0 <mailbox_tag_message.constprop.5+0x98>
   108dc:	e5943004 	ldr	r3, [r4, #4]
   108e0:	e3530102 	cmp	r3, #-2147483648	; 0x80000000
   108e4:	0a000003 	beq	108f8 <mailbox_tag_message.constprop.5+0xd0>
   108e8:	e24bd014 	sub	sp, fp, #20
   108ec:	e8bd48f0 	pop	{r4, r5, r6, r7, fp, lr}
   108f0:	e28dd00c 	add	sp, sp, #12
   108f4:	e12fff1e 	bx	lr
   108f8:	e3550000 	cmp	r5, #0
   108fc:	0a000004 	beq	10914 <mailbox_tag_message.constprop.5+0xec>
   10900:	e284000c 	add	r0, r4, #12
   10904:	e594c008 	ldr	ip, [r4, #8]
   10908:	e585c000 	str	ip, [r5]
   1090c:	e890000f 	ldm	r0, {r0, r1, r2, r3}
   10910:	e985000f 	stmib	r5, {r0, r1, r2, r3}
   10914:	e3a00001 	mov	r0, #1
   10918:	e24bd014 	sub	sp, fp, #20
   1091c:	e8bd48f0 	pop	{r4, r5, r6, r7, fp, lr}
   10920:	e28dd00c 	add	sp, sp, #12
   10924:	e12fff1e 	bx	lr

00010928 <mailbox_tag_message.constprop.6>:
   10928:	e92d000e 	push	{r1, r2, r3}
   1092c:	e3a02000 	mov	r2, #0
   10930:	e92d48f0 	push	{r4, r5, r6, r7, fp, lr}
   10934:	e3a0701c 	mov	r7, #28
   10938:	e1a05000 	mov	r5, r0
   1093c:	e28db014 	add	fp, sp, #20
   10940:	e24dd00c 	sub	sp, sp, #12
   10944:	e24dd090 	sub	sp, sp, #144	; 0x90
   10948:	e28d400f 	add	r4, sp, #15
   1094c:	e28b3008 	add	r3, fp, #8
   10950:	e3c4400f 	bic	r4, r4, #15
   10954:	e59b1014 	ldr	r1, [fp, #20]
   10958:	e59b6008 	ldr	r6, [fp, #8]
   1095c:	e1a00004 	mov	r0, r4
   10960:	e59be00c 	ldr	lr, [fp, #12]
   10964:	e59bc010 	ldr	ip, [fp, #16]
   10968:	e5841014 	str	r1, [r4, #20]
   1096c:	e5847000 	str	r7, [r4]
   10970:	e5846008 	str	r6, [r4, #8]
   10974:	e584e00c 	str	lr, [r4, #12]
   10978:	e584c010 	str	ip, [r4, #16]
   1097c:	e5842018 	str	r2, [r4, #24]
   10980:	e5842004 	str	r2, [r4, #4]
   10984:	e50b301c 	str	r3, [fp, #-28]	; 0xffffffe4
   10988:	ebffdeaa 	bl	8438 <ARMaddrToGPUaddr>
   1098c:	e3073160 	movw	r3, #29024	; 0x7160
   10990:	e3403001 	movt	r3, #1
   10994:	e3c0100f 	bic	r1, r0, #15
   10998:	e3811008 	orr	r1, r1, #8
   1099c:	e5933000 	ldr	r3, [r3]
   109a0:	e2833b2e 	add	r3, r3, #47104	; 0xb800
   109a4:	e2833080 	add	r3, r3, #128	; 0x80
   109a8:	e5932038 	ldr	r2, [r3, #56]	; 0x38
   109ac:	e3520000 	cmp	r2, #0
   109b0:	bafffffc 	blt	109a8 <mailbox_tag_message.constprop.6+0x80>
   109b4:	e5831020 	str	r1, [r3, #32]
   109b8:	e5930018 	ldr	r0, [r3, #24]
   109bc:	e2100101 	ands	r0, r0, #1073741824	; 0x40000000
   109c0:	1afffffc 	bne	109b8 <mailbox_tag_message.constprop.6+0x90>
   109c4:	e5932000 	ldr	r2, [r3]
   109c8:	e202200f 	and	r2, r2, #15
   109cc:	e3520008 	cmp	r2, #8
   109d0:	1afffff8 	bne	109b8 <mailbox_tag_message.constprop.6+0x90>
   109d4:	e5943004 	ldr	r3, [r4, #4]
   109d8:	e3530102 	cmp	r3, #-2147483648	; 0x80000000
   109dc:	0a000003 	beq	109f0 <mailbox_tag_message.constprop.6+0xc8>
   109e0:	e24bd014 	sub	sp, fp, #20
   109e4:	e8bd48f0 	pop	{r4, r5, r6, r7, fp, lr}
   109e8:	e28dd00c 	add	sp, sp, #12
   109ec:	e12fff1e 	bx	lr
   109f0:	e3550000 	cmp	r5, #0
   109f4:	12840008 	addne	r0, r4, #8
   109f8:	1890000f 	ldmne	r0, {r0, r1, r2, r3}
   109fc:	1885000f 	stmne	r5, {r0, r1, r2, r3}
   10a00:	e3a00001 	mov	r0, #1
   10a04:	e24bd014 	sub	sp, fp, #20
   10a08:	e8bd48f0 	pop	{r4, r5, r6, r7, fp, lr}
   10a0c:	e28dd00c 	add	sp, sp, #12
   10a10:	e12fff1e 	bx	lr

00010a14 <mailbox_tag_message.constprop.7>:
   10a14:	e92d000e 	push	{r1, r2, r3}
   10a18:	e3a02000 	mov	r2, #0
   10a1c:	e3a0c058 	mov	ip, #88	; 0x58
   10a20:	e92d48f0 	push	{r4, r5, r6, r7, fp, lr}
   10a24:	e1a05000 	mov	r5, r0
   10a28:	e28db014 	add	fp, sp, #20
   10a2c:	e24dd00c 	sub	sp, sp, #12
   10a30:	e24dd090 	sub	sp, sp, #144	; 0x90
   10a34:	e28d700f 	add	r7, sp, #15
   10a38:	e28b0008 	add	r0, fp, #8
   10a3c:	e3c7700f 	bic	r7, r7, #15
   10a40:	e28b3004 	add	r3, fp, #4
   10a44:	e1a06007 	mov	r6, r7
   10a48:	e2871050 	add	r1, r7, #80	; 0x50
   10a4c:	e50b001c 	str	r0, [fp, #-28]	; 0xffffffe4
   10a50:	e587c000 	str	ip, [r7]
   10a54:	e5a62004 	str	r2, [r6, #4]!
   10a58:	e5872054 	str	r2, [r7, #84]	; 0x54
   10a5c:	e1a04006 	mov	r4, r6
   10a60:	e5b32004 	ldr	r2, [r3, #4]!
   10a64:	e5a42004 	str	r2, [r4, #4]!
   10a68:	e1540001 	cmp	r4, r1
   10a6c:	1afffffb 	bne	10a60 <mailbox_tag_message.constprop.7+0x4c>
   10a70:	e1a00007 	mov	r0, r7
   10a74:	ebffde6f 	bl	8438 <ARMaddrToGPUaddr>
   10a78:	e3073160 	movw	r3, #29024	; 0x7160
   10a7c:	e3403001 	movt	r3, #1
   10a80:	e3c0100f 	bic	r1, r0, #15
   10a84:	e3811008 	orr	r1, r1, #8
   10a88:	e5933000 	ldr	r3, [r3]
   10a8c:	e2833b2e 	add	r3, r3, #47104	; 0xb800
   10a90:	e2833080 	add	r3, r3, #128	; 0x80
   10a94:	e5932038 	ldr	r2, [r3, #56]	; 0x38
   10a98:	e3520000 	cmp	r2, #0
   10a9c:	bafffffc 	blt	10a94 <mailbox_tag_message.constprop.7+0x80>
   10aa0:	e5831020 	str	r1, [r3, #32]
   10aa4:	e5930018 	ldr	r0, [r3, #24]
   10aa8:	e2100101 	ands	r0, r0, #1073741824	; 0x40000000
   10aac:	1afffffc 	bne	10aa4 <mailbox_tag_message.constprop.7+0x90>
   10ab0:	e5932000 	ldr	r2, [r3]
   10ab4:	e202200f 	and	r2, r2, #15
   10ab8:	e3520008 	cmp	r2, #8
   10abc:	1afffff8 	bne	10aa4 <mailbox_tag_message.constprop.7+0x90>
   10ac0:	e5973004 	ldr	r3, [r7, #4]
   10ac4:	e3530102 	cmp	r3, #-2147483648	; 0x80000000
   10ac8:	0a000003 	beq	10adc <mailbox_tag_message.constprop.7+0xc8>
   10acc:	e24bd014 	sub	sp, fp, #20
   10ad0:	e8bd48f0 	pop	{r4, r5, r6, r7, fp, lr}
   10ad4:	e28dd00c 	add	sp, sp, #12
   10ad8:	e12fff1e 	bx	lr
   10adc:	e3550000 	cmp	r5, #0
   10ae0:	12455004 	subne	r5, r5, #4
   10ae4:	0a000003 	beq	10af8 <mailbox_tag_message.constprop.7+0xe4>
   10ae8:	e5b63004 	ldr	r3, [r6, #4]!
   10aec:	e1560004 	cmp	r6, r4
   10af0:	e5a53004 	str	r3, [r5, #4]!
   10af4:	1afffffb 	bne	10ae8 <mailbox_tag_message.constprop.7+0xd4>
   10af8:	e3a00001 	mov	r0, #1
   10afc:	e24bd014 	sub	sp, fp, #20
   10b00:	e8bd48f0 	pop	{r4, r5, r6, r7, fp, lr}
   10b04:	e28dd00c 	add	sp, sp, #12
   10b08:	e12fff1e 	bx	lr

00010b0c <RPi_CpuIdString>:
   10b0c:	e3073170 	movw	r3, #29040	; 0x7170
   10b10:	e3403001 	movt	r3, #1
   10b14:	e3002c07 	movw	r2, #3079	; 0xc07
   10b18:	e1d330b0 	ldrh	r3, [r3]
   10b1c:	e1a03223 	lsr	r3, r3, #4
   10b20:	e1530002 	cmp	r3, r2
   10b24:	0a00000a 	beq	10b54 <RPi_CpuIdString+0x48>
   10b28:	e3002d03 	movw	r2, #3331	; 0xd03
   10b2c:	e1530002 	cmp	r3, r2
   10b30:	0a00000a 	beq	10b60 <RPi_CpuIdString+0x54>
   10b34:	e3001b76 	movw	r1, #2934	; 0xb76
   10b38:	e3062ce8 	movw	r2, #27880	; 0x6ce8
   10b3c:	e3402001 	movt	r2, #1
   10b40:	e1530001 	cmp	r3, r1
   10b44:	e3060cc0 	movw	r0, #27840	; 0x6cc0
   10b48:	e3400001 	movt	r0, #1
   10b4c:	11a00002 	movne	r0, r2
   10b50:	e12fff1e 	bx	lr
   10b54:	e3060cd0 	movw	r0, #27856	; 0x6cd0
   10b58:	e3400001 	movt	r0, #1
   10b5c:	e12fff1e 	bx	lr
   10b60:	e3060cdc 	movw	r0, #27868	; 0x6cdc
   10b64:	e3400001 	movt	r0, #1
   10b68:	e12fff1e 	bx	lr

00010b6c <gpio_setup>:
   10b6c:	e3510007 	cmp	r1, #7
   10b70:	93500036 	cmpls	r0, #54	; 0x36
   10b74:	8a000015 	bhi	10bd0 <gpio_setup+0x64>
   10b78:	e30c3ccd 	movw	r3, #52429	; 0xcccd
   10b7c:	e34c3ccc 	movt	r3, #52428	; 0xcccc
   10b80:	e1a02000 	mov	r2, r0
   10b84:	e307c160 	movw	ip, #29024	; 0x7160
   10b88:	e340c001 	movt	ip, #1
   10b8c:	e92d40f0 	push	{r4, r5, r6, r7, lr}
   10b90:	e0876390 	umull	r6, r7, r0, r3
   10b94:	e3a0500a 	mov	r5, #10
   10b98:	e59ce000 	ldr	lr, [ip]
   10b9c:	e0830293 	umull	r0, r3, r3, r2
   10ba0:	e1a0c1a7 	lsr	ip, r7, #3
   10ba4:	e3a00001 	mov	r0, #1
   10ba8:	e1a031a3 	lsr	r3, r3, #3
   10bac:	e28ee602 	add	lr, lr, #2097152	; 0x200000
   10bb0:	e3a04007 	mov	r4, #7
   10bb4:	e0622c95 	mls	r2, r5, ip, r2
   10bb8:	e79ec103 	ldr	ip, [lr, r3, lsl #2]
   10bbc:	e0822012 	add	r2, r2, r2, lsl r0
   10bc0:	e1ccc214 	bic	ip, ip, r4, lsl r2
   10bc4:	e18c2211 	orr	r2, ip, r1, lsl r2
   10bc8:	e78e2103 	str	r2, [lr, r3, lsl #2]
   10bcc:	e8bd80f0 	pop	{r4, r5, r6, r7, pc}
   10bd0:	e3a00000 	mov	r0, #0
   10bd4:	e12fff1e 	bx	lr

00010bd8 <gpio_output>:
   10bd8:	e3500035 	cmp	r0, #53	; 0x35
   10bdc:	8a00000e 	bhi	10c1c <gpio_output+0x44>
   10be0:	e3510000 	cmp	r1, #0
   10be4:	e3a02001 	mov	r2, #1
   10be8:	e200101f 	and	r1, r0, #31
   10bec:	e1a032a0 	lsr	r3, r0, #5
   10bf0:	e1a02112 	lsl	r2, r2, r1
   10bf4:	e3071160 	movw	r1, #29024	; 0x7160
   10bf8:	e3401001 	movt	r1, #1
   10bfc:	e5910000 	ldr	r0, [r1]
   10c00:	e0800103 	add	r0, r0, r3, lsl #2
   10c04:	e2800602 	add	r0, r0, #2097152	; 0x200000
   10c08:	1280001c 	addne	r0, r0, #28
   10c0c:	02800028 	addeq	r0, r0, #40	; 0x28
   10c10:	e5802000 	str	r2, [r0]
   10c14:	e3a00001 	mov	r0, #1
   10c18:	e12fff1e 	bx	lr
   10c1c:	e3a00000 	mov	r0, #0
   10c20:	e12fff1e 	bx	lr

00010c24 <gpio_input>:
   10c24:	e3500035 	cmp	r0, #53	; 0x35
   10c28:	8a00000d 	bhi	10c64 <gpio_input+0x40>
   10c2c:	e3072160 	movw	r2, #29024	; 0x7160
   10c30:	e3402001 	movt	r2, #1
   10c34:	e1a0c2a0 	lsr	ip, r0, #5
   10c38:	e3a01001 	mov	r1, #1
   10c3c:	e200001f 	and	r0, r0, #31
   10c40:	e5923000 	ldr	r3, [r2]
   10c44:	e083310c 	add	r3, r3, ip, lsl #2
   10c48:	e2833602 	add	r3, r3, #2097152	; 0x200000
   10c4c:	e2833030 	add	r3, r3, #48	; 0x30
   10c50:	e5933004 	ldr	r3, [r3, #4]
   10c54:	e0133011 	ands	r3, r3, r1, lsl r0
   10c58:	11a00001 	movne	r0, r1
   10c5c:	03a00000 	moveq	r0, #0
   10c60:	e12fff1e 	bx	lr
   10c64:	e3a00000 	mov	r0, #0
   10c68:	e12fff1e 	bx	lr

00010c6c <gpio_checkEvent>:
   10c6c:	e3500035 	cmp	r0, #53	; 0x35
   10c70:	8a00000c 	bhi	10ca8 <gpio_checkEvent+0x3c>
   10c74:	e3073160 	movw	r3, #29024	; 0x7160
   10c78:	e3403001 	movt	r3, #1
   10c7c:	e1a022a0 	lsr	r2, r0, #5
   10c80:	e3a01001 	mov	r1, #1
   10c84:	e2822010 	add	r2, r2, #16
   10c88:	e200001f 	and	r0, r0, #31
   10c8c:	e5933000 	ldr	r3, [r3]
   10c90:	e2833602 	add	r3, r3, #2097152	; 0x200000
   10c94:	e7933102 	ldr	r3, [r3, r2, lsl #2]
   10c98:	e0133011 	ands	r3, r3, r1, lsl r0
   10c9c:	11a00001 	movne	r0, r1
   10ca0:	03a00000 	moveq	r0, #0
   10ca4:	e12fff1e 	bx	lr
   10ca8:	e3a00000 	mov	r0, #0
   10cac:	e12fff1e 	bx	lr

00010cb0 <gpio_clearEvent>:
   10cb0:	e3500035 	cmp	r0, #53	; 0x35
   10cb4:	8a00000b 	bhi	10ce8 <gpio_clearEvent+0x38>
   10cb8:	e3071160 	movw	r1, #29024	; 0x7160
   10cbc:	e3401001 	movt	r1, #1
   10cc0:	e200c01f 	and	ip, r0, #31
   10cc4:	e3a02001 	mov	r2, #1
   10cc8:	e1a002a0 	lsr	r0, r0, #5
   10ccc:	e5911000 	ldr	r1, [r1]
   10cd0:	e2803010 	add	r3, r0, #16
   10cd4:	e1a00002 	mov	r0, r2
   10cd8:	e1a02c12 	lsl	r2, r2, ip
   10cdc:	e2811602 	add	r1, r1, #2097152	; 0x200000
   10ce0:	e7812103 	str	r2, [r1, r3, lsl #2]
   10ce4:	e12fff1e 	bx	lr
   10ce8:	e3a00000 	mov	r0, #0
   10cec:	e12fff1e 	bx	lr

00010cf0 <gpio_edgeDetect>:
   10cf0:	e3500035 	cmp	r0, #53	; 0x35
   10cf4:	8a00001b 	bhi	10d68 <gpio_edgeDetect+0x78>
   10cf8:	e200301f 	and	r3, r0, #31
   10cfc:	e3a0c001 	mov	ip, #1
   10d00:	e3510000 	cmp	r1, #0
   10d04:	e52de004 	push	{lr}		; (str lr, [sp, #-4]!)
   10d08:	e1a0e31c 	lsl	lr, ip, r3
   10d0c:	0a00000a 	beq	10d3c <gpio_edgeDetect+0x4c>
   10d10:	e3520000 	cmp	r2, #0
   10d14:	0a000015 	beq	10d70 <gpio_edgeDetect+0x80>
   10d18:	e3071160 	movw	r1, #29024	; 0x7160
   10d1c:	e3401001 	movt	r1, #1
   10d20:	e1a032a0 	lsr	r3, r0, #5
   10d24:	e1a00002 	mov	r0, r2
   10d28:	e5912000 	ldr	r2, [r1]
   10d2c:	e0823103 	add	r3, r2, r3, lsl #2
   10d30:	e2833602 	add	r3, r3, #2097152	; 0x200000
   10d34:	e583e07c 	str	lr, [r3, #124]	; 0x7c
   10d38:	e49df004 	pop	{pc}		; (ldr pc, [sp], #4)
   10d3c:	e3520000 	cmp	r2, #0
   10d40:	1a000013 	bne	10d94 <gpio_edgeDetect+0xa4>
   10d44:	e3072160 	movw	r2, #29024	; 0x7160
   10d48:	e3402001 	movt	r2, #1
   10d4c:	e1a032a0 	lsr	r3, r0, #5
   10d50:	e1a0000c 	mov	r0, ip
   10d54:	e2833016 	add	r3, r3, #22
   10d58:	e5922000 	ldr	r2, [r2]
   10d5c:	e2822602 	add	r2, r2, #2097152	; 0x200000
   10d60:	e782e103 	str	lr, [r2, r3, lsl #2]
   10d64:	e49df004 	pop	{pc}		; (ldr pc, [sp], #4)
   10d68:	e3a00000 	mov	r0, #0
   10d6c:	e12fff1e 	bx	lr
   10d70:	e3072160 	movw	r2, #29024	; 0x7160
   10d74:	e3402001 	movt	r2, #1
   10d78:	e1a032a0 	lsr	r3, r0, #5
   10d7c:	e1a00001 	mov	r0, r1
   10d80:	e5922000 	ldr	r2, [r2]
   10d84:	e0823103 	add	r3, r2, r3, lsl #2
   10d88:	e2833602 	add	r3, r3, #2097152	; 0x200000
   10d8c:	e583e04c 	str	lr, [r3, #76]	; 0x4c
   10d90:	e49df004 	pop	{pc}		; (ldr pc, [sp], #4)
   10d94:	e3071160 	movw	r1, #29024	; 0x7160
   10d98:	e3401001 	movt	r1, #1
   10d9c:	e1a032a0 	lsr	r3, r0, #5
   10da0:	e1a00002 	mov	r0, r2
   10da4:	e2833022 	add	r3, r3, #34	; 0x22
   10da8:	e5912000 	ldr	r2, [r1]
   10dac:	e2822602 	add	r2, r2, #2097152	; 0x200000
   10db0:	e782e103 	str	lr, [r2, r3, lsl #2]
   10db4:	e49df004 	pop	{pc}		; (ldr pc, [sp], #4)

00010db8 <gpio_fixResistor>:
   10db8:	e3500036 	cmp	r0, #54	; 0x36
   10dbc:	93510002 	cmpls	r1, #2
   10dc0:	8a000047 	bhi	10ee4 <gpio_fixResistor+0x12c>
   10dc4:	e3073160 	movw	r3, #29024	; 0x7160
   10dc8:	e3403001 	movt	r3, #1
   10dcc:	e92d43f0 	push	{r4, r5, r6, r7, r8, r9, lr}
   10dd0:	e5933000 	ldr	r3, [r3]
   10dd4:	e2832602 	add	r2, r3, #2097152	; 0x200000
   10dd8:	e2833a03 	add	r3, r3, #12288	; 0x3000
   10ddc:	e5821094 	str	r1, [r2, #148]	; 0x94
   10de0:	e5934008 	ldr	r4, [r3, #8]
   10de4:	e3a05000 	mov	r5, #0
   10de8:	e5931004 	ldr	r1, [r3, #4]
   10dec:	e3a07000 	mov	r7, #0
   10df0:	e5936008 	ldr	r6, [r3, #8]
   10df4:	e1550007 	cmp	r5, r7
   10df8:	01540006 	cmpeq	r4, r6
   10dfc:	1afffff7 	bne	10de0 <gpio_fixResistor+0x28>
   10e00:	e3a08000 	mov	r8, #0
   10e04:	e1a09004 	mov	r9, r4
   10e08:	e1888001 	orr	r8, r8, r1
   10e0c:	e2988002 	adds	r8, r8, #2
   10e10:	e2a99000 	adc	r9, r9, #0
   10e14:	e5934008 	ldr	r4, [r3, #8]
   10e18:	e3a05000 	mov	r5, #0
   10e1c:	e5931004 	ldr	r1, [r3, #4]
   10e20:	e3a07000 	mov	r7, #0
   10e24:	e5936008 	ldr	r6, [r3, #8]
   10e28:	e1550007 	cmp	r5, r7
   10e2c:	01540006 	cmpeq	r4, r6
   10e30:	1afffff7 	bne	10e14 <gpio_fixResistor+0x5c>
   10e34:	e1a05004 	mov	r5, r4
   10e38:	e3a04000 	mov	r4, #0
   10e3c:	e1844001 	orr	r4, r4, r1
   10e40:	e1590005 	cmp	r9, r5
   10e44:	01580004 	cmpeq	r8, r4
   10e48:	8afffff1 	bhi	10e14 <gpio_fixResistor+0x5c>
   10e4c:	e1a0e2a0 	lsr	lr, r0, #5
   10e50:	e3a01001 	mov	r1, #1
   10e54:	e200001f 	and	r0, r0, #31
   10e58:	e082e10e 	add	lr, r2, lr, lsl #2
   10e5c:	e1a00011 	lsl	r0, r1, r0
   10e60:	e58e0098 	str	r0, [lr, #152]	; 0x98
   10e64:	e5930008 	ldr	r0, [r3, #8]
   10e68:	e3a01000 	mov	r1, #0
   10e6c:	e593c004 	ldr	ip, [r3, #4]
   10e70:	e3a05000 	mov	r5, #0
   10e74:	e5934008 	ldr	r4, [r3, #8]
   10e78:	e1510005 	cmp	r1, r5
   10e7c:	01500004 	cmpeq	r0, r4
   10e80:	1afffff7 	bne	10e64 <gpio_fixResistor+0xac>
   10e84:	e3a04000 	mov	r4, #0
   10e88:	e1a05000 	mov	r5, r0
   10e8c:	e184400c 	orr	r4, r4, ip
   10e90:	e2944002 	adds	r4, r4, #2
   10e94:	e2a55000 	adc	r5, r5, #0
   10e98:	e5930008 	ldr	r0, [r3, #8]
   10e9c:	e3a01000 	mov	r1, #0
   10ea0:	e593c004 	ldr	ip, [r3, #4]
   10ea4:	e3a07000 	mov	r7, #0
   10ea8:	e5936008 	ldr	r6, [r3, #8]
   10eac:	e1510007 	cmp	r1, r7
   10eb0:	01500006 	cmpeq	r0, r6
   10eb4:	1afffff7 	bne	10e98 <gpio_fixResistor+0xe0>
   10eb8:	e1a01000 	mov	r1, r0
   10ebc:	e3a00000 	mov	r0, #0
   10ec0:	e180000c 	orr	r0, r0, ip
   10ec4:	e1550001 	cmp	r5, r1
   10ec8:	01540000 	cmpeq	r4, r0
   10ecc:	8afffff1 	bhi	10e98 <gpio_fixResistor+0xe0>
   10ed0:	e3a03000 	mov	r3, #0
   10ed4:	e3a00001 	mov	r0, #1
   10ed8:	e5823094 	str	r3, [r2, #148]	; 0x94
   10edc:	e58e3098 	str	r3, [lr, #152]	; 0x98
   10ee0:	e8bd83f0 	pop	{r4, r5, r6, r7, r8, r9, pc}
   10ee4:	e3a00000 	mov	r0, #0
   10ee8:	e12fff1e 	bx	lr

00010eec <timer_getTickCount>:
   10eec:	e3073160 	movw	r3, #29024	; 0x7160
   10ef0:	e3403001 	movt	r3, #1
   10ef4:	e92d0030 	push	{r4, r5}
   10ef8:	e5931000 	ldr	r1, [r3]
   10efc:	e2811a03 	add	r1, r1, #12288	; 0x3000
   10f00:	e5912008 	ldr	r2, [r1, #8]
   10f04:	e3a03000 	mov	r3, #0
   10f08:	e5910004 	ldr	r0, [r1, #4]
   10f0c:	e3a05000 	mov	r5, #0
   10f10:	e5914008 	ldr	r4, [r1, #8]
   10f14:	e1530005 	cmp	r3, r5
   10f18:	01520004 	cmpeq	r2, r4
   10f1c:	1afffff7 	bne	10f00 <timer_getTickCount+0x14>
   10f20:	e1a03002 	mov	r3, r2
   10f24:	e3a02000 	mov	r2, #0
   10f28:	e1822000 	orr	r2, r2, r0
   10f2c:	e1a00002 	mov	r0, r2
   10f30:	e1a01003 	mov	r1, r3
   10f34:	e8bd0030 	pop	{r4, r5}
   10f38:	e12fff1e 	bx	lr

00010f3c <timer_wait>:
   10f3c:	e3073160 	movw	r3, #29024	; 0x7160
   10f40:	e3403001 	movt	r3, #1
   10f44:	e92d4030 	push	{r4, r5, lr}
   10f48:	e593c000 	ldr	ip, [r3]
   10f4c:	e28cca03 	add	ip, ip, #12288	; 0x3000
   10f50:	e59c2008 	ldr	r2, [ip, #8]
   10f54:	e3a03000 	mov	r3, #0
   10f58:	e59ce004 	ldr	lr, [ip, #4]
   10f5c:	e3a05000 	mov	r5, #0
   10f60:	e59c4008 	ldr	r4, [ip, #8]
   10f64:	e1530005 	cmp	r3, r5
   10f68:	01520004 	cmpeq	r2, r4
   10f6c:	1afffff7 	bne	10f50 <timer_wait+0x14>
   10f70:	e3a04000 	mov	r4, #0
   10f74:	e1a05002 	mov	r5, r2
   10f78:	e184400e 	orr	r4, r4, lr
   10f7c:	e0944000 	adds	r4, r4, r0
   10f80:	e0a55001 	adc	r5, r5, r1
   10f84:	e59c2008 	ldr	r2, [ip, #8]
   10f88:	e3a03000 	mov	r3, #0
   10f8c:	e59ce004 	ldr	lr, [ip, #4]
   10f90:	e3a01000 	mov	r1, #0
   10f94:	e59c0008 	ldr	r0, [ip, #8]
   10f98:	e1530001 	cmp	r3, r1
   10f9c:	01520000 	cmpeq	r2, r0
   10fa0:	1afffff7 	bne	10f84 <timer_wait+0x48>
   10fa4:	e1a03002 	mov	r3, r2
   10fa8:	e3a02000 	mov	r2, #0
   10fac:	e182200e 	orr	r2, r2, lr
   10fb0:	e1550003 	cmp	r5, r3
   10fb4:	01540002 	cmpeq	r4, r2
   10fb8:	8afffff1 	bhi	10f84 <timer_wait+0x48>
   10fbc:	e8bd8030 	pop	{r4, r5, pc}

00010fc0 <tick_difference>:
   10fc0:	e0520000 	subs	r0, r2, r0
   10fc4:	e0c31001 	sbc	r1, r3, r1
   10fc8:	e12fff1e 	bx	lr

00010fcc <mailbox_write>:
   10fcc:	e3500009 	cmp	r0, #9
   10fd0:	8a00000c 	bhi	11008 <mailbox_write+0x3c>
   10fd4:	e3073160 	movw	r3, #29024	; 0x7160
   10fd8:	e3403001 	movt	r3, #1
   10fdc:	e3c1100f 	bic	r1, r1, #15
   10fe0:	e1800001 	orr	r0, r0, r1
   10fe4:	e5932000 	ldr	r2, [r3]
   10fe8:	e2822b2e 	add	r2, r2, #47104	; 0xb800
   10fec:	e2822080 	add	r2, r2, #128	; 0x80
   10ff0:	e5923038 	ldr	r3, [r2, #56]	; 0x38
   10ff4:	e3530000 	cmp	r3, #0
   10ff8:	bafffffc 	blt	10ff0 <mailbox_write+0x24>
   10ffc:	e5820020 	str	r0, [r2, #32]
   11000:	e3a00001 	mov	r0, #1
   11004:	e12fff1e 	bx	lr
   11008:	e3a00000 	mov	r0, #0
   1100c:	e12fff1e 	bx	lr

00011010 <mailbox_read>:
   11010:	e3500009 	cmp	r0, #9
   11014:	9a000002 	bls	11024 <mailbox_read+0x14>
   11018:	e30d0ead 	movw	r0, #57005	; 0xdead
   1101c:	e34f0eed 	movt	r0, #65261	; 0xfeed
   11020:	e12fff1e 	bx	lr
   11024:	e3073160 	movw	r3, #29024	; 0x7160
   11028:	e3403001 	movt	r3, #1
   1102c:	e5932000 	ldr	r2, [r3]
   11030:	e2822b2e 	add	r2, r2, #47104	; 0xb800
   11034:	e2822080 	add	r2, r2, #128	; 0x80
   11038:	e5923018 	ldr	r3, [r2, #24]
   1103c:	e3130101 	tst	r3, #1073741824	; 0x40000000
   11040:	1afffffc 	bne	11038 <mailbox_read+0x28>
   11044:	e5923000 	ldr	r3, [r2]
   11048:	e203100f 	and	r1, r3, #15
   1104c:	e1510000 	cmp	r1, r0
   11050:	1afffff8 	bne	11038 <mailbox_read+0x28>
   11054:	e3c3000f 	bic	r0, r3, #15
   11058:	e12fff1e 	bx	lr

0001105c <mailbox_tag_message>:
   1105c:	e92d000e 	push	{r1, r2, r3}
   11060:	e3a02000 	mov	r2, #0
   11064:	e92d4870 	push	{r4, r5, r6, fp, lr}
   11068:	e1a04000 	mov	r4, r0
   1106c:	e28db010 	add	fp, sp, #16
   11070:	e24dd008 	sub	sp, sp, #8
   11074:	e24dd090 	sub	sp, sp, #144	; 0x90
   11078:	e28d500f 	add	r5, sp, #15
   1107c:	e28bc008 	add	ip, fp, #8
   11080:	e5db6004 	ldrb	r6, [fp, #4]
   11084:	e3c5500f 	bic	r5, r5, #15
   11088:	e50bc014 	str	ip, [fp, #-20]	; 0xffffffec
   1108c:	e2863003 	add	r3, r6, #3
   11090:	e2861002 	add	r1, r6, #2
   11094:	e1560002 	cmp	r6, r2
   11098:	e1a03103 	lsl	r3, r3, #2
   1109c:	e5853000 	str	r3, [r5]
   110a0:	e7852101 	str	r2, [r5, r1, lsl #2]
   110a4:	e5852004 	str	r2, [r5, #4]
   110a8:	0a000007 	beq	110cc <mailbox_tag_message+0x70>
   110ac:	e2860001 	add	r0, r6, #1
   110b0:	e28b2004 	add	r2, fp, #4
   110b4:	e2853004 	add	r3, r5, #4
   110b8:	e0850100 	add	r0, r5, r0, lsl #2
   110bc:	e5b21004 	ldr	r1, [r2, #4]!
   110c0:	e5a31004 	str	r1, [r3, #4]!
   110c4:	e1530000 	cmp	r3, r0
   110c8:	1afffffb 	bne	110bc <mailbox_tag_message+0x60>
   110cc:	e1a00005 	mov	r0, r5
   110d0:	ebffdcd8 	bl	8438 <ARMaddrToGPUaddr>
   110d4:	e3073160 	movw	r3, #29024	; 0x7160
   110d8:	e3403001 	movt	r3, #1
   110dc:	e3c0100f 	bic	r1, r0, #15
   110e0:	e3811008 	orr	r1, r1, #8
   110e4:	e5933000 	ldr	r3, [r3]
   110e8:	e2833b2e 	add	r3, r3, #47104	; 0xb800
   110ec:	e2833080 	add	r3, r3, #128	; 0x80
   110f0:	e5932038 	ldr	r2, [r3, #56]	; 0x38
   110f4:	e3520000 	cmp	r2, #0
   110f8:	bafffffc 	blt	110f0 <mailbox_tag_message+0x94>
   110fc:	e5831020 	str	r1, [r3, #32]
   11100:	e5930018 	ldr	r0, [r3, #24]
   11104:	e2100101 	ands	r0, r0, #1073741824	; 0x40000000
   11108:	1afffffc 	bne	11100 <mailbox_tag_message+0xa4>
   1110c:	e5932000 	ldr	r2, [r3]
   11110:	e202200f 	and	r2, r2, #15
   11114:	e3520008 	cmp	r2, #8
   11118:	1afffff8 	bne	11100 <mailbox_tag_message+0xa4>
   1111c:	e5953004 	ldr	r3, [r5, #4]
   11120:	e3530102 	cmp	r3, #-2147483648	; 0x80000000
   11124:	0a000003 	beq	11138 <mailbox_tag_message+0xdc>
   11128:	e24bd010 	sub	sp, fp, #16
   1112c:	e8bd4870 	pop	{r4, r5, r6, fp, lr}
   11130:	e28dd00c 	add	sp, sp, #12
   11134:	e12fff1e 	bx	lr
   11138:	e3540000 	cmp	r4, #0
   1113c:	0a000009 	beq	11168 <mailbox_tag_message+0x10c>
   11140:	e3560000 	cmp	r6, #0
   11144:	0a000007 	beq	11168 <mailbox_tag_message+0x10c>
   11148:	e2866001 	add	r6, r6, #1
   1114c:	e2853004 	add	r3, r5, #4
   11150:	e2444004 	sub	r4, r4, #4
   11154:	e0855106 	add	r5, r5, r6, lsl #2
   11158:	e5b32004 	ldr	r2, [r3, #4]!
   1115c:	e1530005 	cmp	r3, r5
   11160:	e5a42004 	str	r2, [r4, #4]!
   11164:	1afffffb 	bne	11158 <mailbox_tag_message+0xfc>
   11168:	e3a00001 	mov	r0, #1
   1116c:	e24bd010 	sub	sp, fp, #16
   11170:	e8bd4870 	pop	{r4, r5, r6, fp, lr}
   11174:	e28dd00c 	add	sp, sp, #12
   11178:	e12fff1e 	bx	lr

0001117c <TimerIrqSetup>:
   1117c:	e92d41f0 	push	{r4, r5, r6, r7, r8, lr}
   11180:	e3075160 	movw	r5, #29024	; 0x7160
   11184:	e3405001 	movt	r5, #1
   11188:	f2c00010 	vmov.i32	d16, #0	; 0x00000000
   1118c:	e24dd028 	sub	sp, sp, #40	; 0x28
   11190:	e1a06001 	mov	r6, r1
   11194:	e3a0c008 	mov	ip, #8
   11198:	e5953000 	ldr	r3, [r5]
   1119c:	e3a04000 	mov	r4, #0
   111a0:	e3a08004 	mov	r8, #4
   111a4:	e1a07000 	mov	r7, r0
   111a8:	e2831b2d 	add	r1, r3, #46080	; 0xb400
   111ac:	e28d0014 	add	r0, sp, #20
   111b0:	edcd0b07 	vstr	d16, [sp, #28]
   111b4:	e1a0300c 	mov	r3, ip
   111b8:	edcd0b05 	vstr	d16, [sp, #20]
   111bc:	e3a02002 	mov	r2, #2
   111c0:	e3402003 	movt	r2, #3
   111c4:	edcd0b08 	vstr	d16, [sp, #32]
   111c8:	e591e008 	ldr	lr, [r1, #8]
   111cc:	e7c7e39f 	bfc	lr, #7, #1
   111d0:	e581e008 	str	lr, [r1, #8]
   111d4:	e3a01005 	mov	r1, #5
   111d8:	e58dc000 	str	ip, [sp]
   111dc:	e58d4008 	str	r4, [sp, #8]
   111e0:	e58d8004 	str	r8, [sp, #4]
   111e4:	ebfffd8f 	bl	10828 <mailbox_tag_message.constprop.5>
   111e8:	e59d0024 	ldr	r0, [sp, #36]	; 0x24
   111ec:	e3041dd3 	movw	r1, #19923	; 0x4dd3
   111f0:	e3411062 	movt	r1, #4194	; 0x1062
   111f4:	e3a03000 	mov	r3, #0
   111f8:	e3042240 	movw	r2, #16960	; 0x4240
   111fc:	e340200f 	movt	r2, #15
   11200:	e0801091 	umull	r1, r0, r1, r0
   11204:	e1a00830 	lsr	r0, r0, r8
   11208:	e58d0024 	str	r0, [sp, #36]	; 0x24
   1120c:	e0810097 	umull	r0, r1, r7, r0
   11210:	fa0011bb 	blx	15904 <__aeabi_uldivmod>
   11214:	e1a07000 	mov	r7, r0
   11218:	e1a00006 	mov	r0, r6
   1121c:	ebffdc7e 	bl	841c <setTimerIrqAddress>
   11220:	e5953000 	ldr	r3, [r5]
   11224:	e2831cb2 	add	r1, r3, #45568	; 0xb200
   11228:	e2833b2d 	add	r3, r3, #46080	; 0xb400
   1122c:	e5912018 	ldr	r2, [r1, #24]
   11230:	e3822001 	orr	r2, r2, #1
   11234:	e5812018 	str	r2, [r1, #24]
   11238:	e5837000 	str	r7, [r3]
   1123c:	e5932008 	ldr	r2, [r3, #8]
   11240:	e3822002 	orr	r2, r2, #2
   11244:	e5832008 	str	r2, [r3, #8]
   11248:	e5d32008 	ldrb	r2, [r3, #8]
   1124c:	e7c32114 	bfi	r2, r4, #2, #2
   11250:	e5c32008 	strb	r2, [r3, #8]
   11254:	e5932008 	ldr	r2, [r3, #8]
   11258:	e3822020 	orr	r2, r2, #32
   1125c:	e5832008 	str	r2, [r3, #8]
   11260:	e5932008 	ldr	r2, [r3, #8]
   11264:	e3822080 	orr	r2, r2, #128	; 0x80
   11268:	e5832008 	str	r2, [r3, #8]
   1126c:	e28dd028 	add	sp, sp, #40	; 0x28
   11270:	e8bd81f0 	pop	{r4, r5, r6, r7, r8, pc}

00011274 <set_Activity_LED>:
   11274:	e3073170 	movw	r3, #29040	; 0x7170
   11278:	e3403001 	movt	r3, #1
   1127c:	e3002c07 	movw	r2, #3079	; 0xc07
   11280:	e1d330b0 	ldrh	r3, [r3]
   11284:	e1a03223 	lsr	r3, r3, #4
   11288:	e1530002 	cmp	r3, r2
   1128c:	0a000032 	beq	1135c <set_Activity_LED+0xe8>
   11290:	e3002d03 	movw	r2, #3331	; 0xd03
   11294:	e92d4010 	push	{r4, lr}
   11298:	e1530002 	cmp	r3, r2
   1129c:	e24dd020 	sub	sp, sp, #32
   112a0:	e1a04000 	mov	r4, r0
   112a4:	0a00001f 	beq	11328 <set_Activity_LED+0xb4>
   112a8:	e3002b76 	movw	r2, #2934	; 0xb76
   112ac:	e1530002 	cmp	r3, r2
   112b0:	13a00000 	movne	r0, #0
   112b4:	0a000001 	beq	112c0 <set_Activity_LED+0x4c>
   112b8:	e28dd020 	add	sp, sp, #32
   112bc:	e8bd8010 	pop	{r4, pc}
   112c0:	e305ca58 	movw	ip, #23128	; 0x5a58
   112c4:	e340c001 	movt	ip, #1
   112c8:	e5dc2000 	ldrb	r2, [ip]
   112cc:	e3520000 	cmp	r2, #0
   112d0:	0a00002c 	beq	11388 <set_Activity_LED+0x114>
   112d4:	e307317c 	movw	r3, #29052	; 0x717c
   112d8:	e3403001 	movt	r3, #1
   112dc:	e5933000 	ldr	r3, [r3]
   112e0:	e3530035 	cmp	r3, #53	; 0x35
   112e4:	83a00001 	movhi	r0, #1
   112e8:	8afffff2 	bhi	112b8 <set_Activity_LED+0x44>
   112ec:	e203201f 	and	r2, r3, #31
   112f0:	e3a01001 	mov	r1, #1
   112f4:	e1a032a3 	lsr	r3, r3, #5
   112f8:	e3540000 	cmp	r4, #0
   112fc:	e3a00001 	mov	r0, #1
   11300:	e1a01211 	lsl	r1, r1, r2
   11304:	e3072160 	movw	r2, #29024	; 0x7160
   11308:	e3402001 	movt	r2, #1
   1130c:	e5922000 	ldr	r2, [r2]
   11310:	e0823103 	add	r3, r2, r3, lsl #2
   11314:	e2833602 	add	r3, r3, #2097152	; 0x200000
   11318:	1283301c 	addne	r3, r3, #28
   1131c:	02833028 	addeq	r3, r3, #40	; 0x28
   11320:	e5831000 	str	r1, [r3]
   11324:	eaffffe3 	b	112b8 <set_Activity_LED+0x44>
   11328:	e3a01008 	mov	r1, #8
   1132c:	e3a02082 	mov	r2, #130	; 0x82
   11330:	e58d0008 	str	r0, [sp, #8]
   11334:	e1a03001 	mov	r3, r1
   11338:	e58d2004 	str	r2, [sp, #4]
   1133c:	e3a00000 	mov	r0, #0
   11340:	e58d1000 	str	r1, [sp]
   11344:	e3082041 	movw	r2, #32833	; 0x8041
   11348:	e3402003 	movt	r2, #3
   1134c:	e3a01005 	mov	r1, #5
   11350:	ebfffd00 	bl	10758 <mailbox_tag_message.constprop.4>
   11354:	e28dd020 	add	sp, sp, #32
   11358:	e8bd8010 	pop	{r4, pc}
   1135c:	e3073160 	movw	r3, #29024	; 0x7160
   11360:	e3403001 	movt	r3, #1
   11364:	e3500000 	cmp	r0, #0
   11368:	e3a02902 	mov	r2, #32768	; 0x8000
   1136c:	e3a00001 	mov	r0, #1
   11370:	e5933000 	ldr	r3, [r3]
   11374:	e2833602 	add	r3, r3, #2097152	; 0x200000
   11378:	12833020 	addne	r3, r3, #32
   1137c:	0283302c 	addeq	r3, r3, #44	; 0x2c
   11380:	e5832000 	str	r2, [r3]
   11384:	e12fff1e 	bx	lr
   11388:	e3a03004 	mov	r3, #4
   1138c:	e58d2004 	str	r2, [sp, #4]
   11390:	e58d2000 	str	r2, [sp]
   11394:	e3a0e001 	mov	lr, #1
   11398:	e1a01003 	mov	r1, r3
   1139c:	e3a02002 	mov	r2, #2
   113a0:	e3402001 	movt	r2, #1
   113a4:	e28d0010 	add	r0, sp, #16
   113a8:	e5cce000 	strb	lr, [ip]
   113ac:	ebfffd5d 	bl	10928 <mailbox_tag_message.constprop.6>
   113b0:	e3500000 	cmp	r0, #0
   113b4:	0affffc6 	beq	112d4 <set_Activity_LED+0x60>
   113b8:	e59d301c 	ldr	r3, [sp, #28]
   113bc:	e307217c 	movw	r2, #29052	; 0x717c
   113c0:	e3402001 	movt	r2, #1
   113c4:	e2433002 	sub	r3, r3, #2
   113c8:	e353000d 	cmp	r3, #13
   113cc:	93a01010 	movls	r1, #16
   113d0:	83a0102f 	movhi	r1, #47	; 0x2f
   113d4:	e1a03001 	mov	r3, r1
   113d8:	e5821000 	str	r1, [r2]
   113dc:	eaffffc2 	b	112ec <set_Activity_LED+0x78>

000113e0 <ARM_setmaxspeed>:
   113e0:	e92d4070 	push	{r4, r5, r6, lr}
   113e4:	f2c00010 	vmov.i32	d16, #0	; 0x00000000
   113e8:	e3a03000 	mov	r3, #0
   113ec:	e24dd028 	sub	sp, sp, #40	; 0x28
   113f0:	e3a04008 	mov	r4, #8
   113f4:	e3a05003 	mov	r5, #3
   113f8:	e1a06000 	mov	r6, r0
   113fc:	e3a02004 	mov	r2, #4
   11400:	e3402003 	movt	r2, #3
   11404:	e58d3008 	str	r3, [sp, #8]
   11408:	e28d0014 	add	r0, sp, #20
   1140c:	e58d5004 	str	r5, [sp, #4]
   11410:	e1a03004 	mov	r3, r4
   11414:	e58d4000 	str	r4, [sp]
   11418:	e3a01005 	mov	r1, #5
   1141c:	edcd0b07 	vstr	d16, [sp, #28]
   11420:	edcd0b05 	vstr	d16, [sp, #20]
   11424:	edcd0b08 	vstr	d16, [sp, #32]
   11428:	ebfffcfe 	bl	10828 <mailbox_tag_message.constprop.5>
   1142c:	e3500000 	cmp	r0, #0
   11430:	1a000003 	bne	11444 <ARM_setmaxspeed+0x64>
   11434:	e3a04000 	mov	r4, #0
   11438:	e1a00004 	mov	r0, r4
   1143c:	e28dd028 	add	sp, sp, #40	; 0x28
   11440:	e8bd8070 	pop	{r4, r5, r6, pc}
   11444:	e59d1024 	ldr	r1, [sp, #36]	; 0x24
   11448:	e1a03004 	mov	r3, r4
   1144c:	e58d4000 	str	r4, [sp]
   11450:	e28d0014 	add	r0, sp, #20
   11454:	e58d1008 	str	r1, [sp, #8]
   11458:	e3082002 	movw	r2, #32770	; 0x8002
   1145c:	e3402003 	movt	r2, #3
   11460:	e58d5004 	str	r5, [sp, #4]
   11464:	e3a01005 	mov	r1, #5
   11468:	ebfffcee 	bl	10828 <mailbox_tag_message.constprop.5>
   1146c:	e2504000 	subs	r4, r0, #0
   11470:	0affffef 	beq	11434 <ARM_setmaxspeed+0x54>
   11474:	e3560000 	cmp	r6, #0
   11478:	0affffee 	beq	11438 <ARM_setmaxspeed+0x58>
   1147c:	e59d1024 	ldr	r1, [sp, #36]	; 0x24
   11480:	e3060cf8 	movw	r0, #27896	; 0x6cf8
   11484:	e3400001 	movt	r0, #1
   11488:	e12fff36 	blx	r6
   1148c:	e1a00004 	mov	r0, r4
   11490:	e28dd028 	add	sp, sp, #40	; 0x28
   11494:	e8bd8070 	pop	{r4, r5, r6, pc}

00011498 <displaySmartStart>:
   11498:	e92d4010 	push	{r4, lr}
   1149c:	e2504000 	subs	r4, r0, #0
   114a0:	08bd8010 	popeq	{r4, pc}
   114a4:	e3073174 	movw	r3, #29044	; 0x7174
   114a8:	e3403001 	movt	r3, #1
   114ac:	e3060d14 	movw	r0, #27924	; 0x6d14
   114b0:	e3400001 	movt	r0, #1
   114b4:	e5d33000 	ldrb	r3, [r3]
   114b8:	e7e02253 	ubfx	r2, r3, #4, #1
   114bc:	e203100f 	and	r1, r3, #15
   114c0:	e2822001 	add	r2, r2, #1
   114c4:	e1a032a3 	lsr	r3, r3, #5
   114c8:	e1a02282 	lsl	r2, r2, #5
   114cc:	e12fff34 	blx	r4
   114d0:	e3073170 	movw	r3, #29040	; 0x7170
   114d4:	e3403001 	movt	r3, #1
   114d8:	e3001c07 	movw	r1, #3079	; 0xc07
   114dc:	e1d320b0 	ldrh	r2, [r3]
   114e0:	e1a02222 	lsr	r2, r2, #4
   114e4:	e1520001 	cmp	r2, r1
   114e8:	0a000014 	beq	11540 <displaySmartStart+0xa8>
   114ec:	e3003d03 	movw	r3, #3331	; 0xd03
   114f0:	e1520003 	cmp	r2, r3
   114f4:	0a00000e 	beq	11534 <displaySmartStart+0x9c>
   114f8:	e3000b76 	movw	r0, #2934	; 0xb76
   114fc:	e3063ce8 	movw	r3, #27880	; 0x6ce8
   11500:	e3403001 	movt	r3, #1
   11504:	e1520000 	cmp	r2, r0
   11508:	e3061cc0 	movw	r1, #27840	; 0x6cc0
   1150c:	e3401001 	movt	r1, #1
   11510:	11a01003 	movne	r1, r3
   11514:	e3073168 	movw	r3, #29032	; 0x7168
   11518:	e3403001 	movt	r3, #1
   1151c:	e3060d5c 	movw	r0, #27996	; 0x6d5c
   11520:	e3400001 	movt	r0, #1
   11524:	e1a0c004 	mov	ip, r4
   11528:	e5933000 	ldr	r3, [r3]
   1152c:	e8bd4010 	pop	{r4, lr}
   11530:	e12fff1c 	bx	ip
   11534:	e3061cdc 	movw	r1, #27868	; 0x6cdc
   11538:	e3401001 	movt	r1, #1
   1153c:	eafffff4 	b	11514 <displaySmartStart+0x7c>
   11540:	e3061cd0 	movw	r1, #27856	; 0x6cd0
   11544:	e3401001 	movt	r1, #1
   11548:	eafffff1 	b	11514 <displaySmartStart+0x7c>

0001154c <Embedded_Console_WriteChar>:
   1154c:	e350000a 	cmp	r0, #10
   11550:	0a000024 	beq	115e8 <Embedded_Console_WriteChar+0x9c>
   11554:	e350000d 	cmp	r0, #13
   11558:	0a00001d 	beq	115d4 <Embedded_Console_WriteChar+0x88>
   1155c:	e3500009 	cmp	r0, #9
   11560:	0a000010 	beq	115a8 <Embedded_Console_WriteChar+0x5c>
   11564:	e92d4070 	push	{r4, r5, r6, lr}
   11568:	e3054a58 	movw	r4, #23128	; 0x5a58
   1156c:	e3404001 	movt	r4, #1
   11570:	e1a01000 	mov	r1, r0
   11574:	e2840004 	add	r0, r4, #4
   11578:	e594201c 	ldr	r2, [r4, #28]
   1157c:	e5943020 	ldr	r3, [r4, #32]
   11580:	e5945040 	ldr	r5, [r4, #64]	; 0x40
   11584:	e1a02182 	lsl	r2, r2, #3
   11588:	e1a03203 	lsl	r3, r3, #4
   1158c:	e5842014 	str	r2, [r4, #20]
   11590:	e5843018 	str	r3, [r4, #24]
   11594:	e12fff35 	blx	r5
   11598:	e594301c 	ldr	r3, [r4, #28]
   1159c:	e2833001 	add	r3, r3, #1
   115a0:	e584301c 	str	r3, [r4, #28]
   115a4:	e8bd8070 	pop	{r4, r5, r6, pc}
   115a8:	e3052a58 	movw	r2, #23128	; 0x5a58
   115ac:	e3402001 	movt	r2, #1
   115b0:	e592301c 	ldr	r3, [r2, #28]
   115b4:	e2833005 	add	r3, r3, #5
   115b8:	e2730000 	rsbs	r0, r3, #0
   115bc:	e2031003 	and	r1, r3, #3
   115c0:	e2000003 	and	r0, r0, #3
   115c4:	52601000 	rsbpl	r1, r0, #0
   115c8:	e0433001 	sub	r3, r3, r1
   115cc:	e582301c 	str	r3, [r2, #28]
   115d0:	e12fff1e 	bx	lr
   115d4:	e3053a58 	movw	r3, #23128	; 0x5a58
   115d8:	e3403001 	movt	r3, #1
   115dc:	e3a02000 	mov	r2, #0
   115e0:	e583201c 	str	r2, [r3, #28]
   115e4:	e12fff1e 	bx	lr
   115e8:	e3053a58 	movw	r3, #23128	; 0x5a58
   115ec:	e3403001 	movt	r3, #1
   115f0:	e3a01000 	mov	r1, #0
   115f4:	e5932020 	ldr	r2, [r3, #32]
   115f8:	e583101c 	str	r1, [r3, #28]
   115fc:	e2822001 	add	r2, r2, #1
   11600:	e5832020 	str	r2, [r3, #32]
   11604:	e12fff1e 	bx	lr

00011608 <WriteText>:
   11608:	e92d47f0 	push	{r4, r5, r6, r7, r8, r9, sl, lr}
   1160c:	e2525000 	subs	r5, r2, #0
   11610:	08bd87f0 	popeq	{r4, r5, r6, r7, r8, r9, sl, pc}
   11614:	e3054a58 	movw	r4, #23128	; 0x5a58
   11618:	e3404001 	movt	r4, #1
   1161c:	e1a03000 	mov	r3, r0
   11620:	e1a00005 	mov	r0, r5
   11624:	e584301c 	str	r3, [r4, #28]
   11628:	e5841020 	str	r1, [r4, #32]
   1162c:	fa00036c 	blx	123e4 <strlen>
   11630:	e3500000 	cmp	r0, #0
   11634:	08bd87f0 	popeq	{r4, r5, r6, r7, r8, r9, sl, pc}
   11638:	e3a08000 	mov	r8, #0
   1163c:	e0856000 	add	r6, r5, r0
   11640:	e2847004 	add	r7, r4, #4
   11644:	ea000013 	b	11698 <WriteText+0x90>
   11648:	e353000d 	cmp	r3, #13
   1164c:	e1a01003 	mov	r1, r3
   11650:	e1a00007 	mov	r0, r7
   11654:	0584801c 	streq	r8, [r4, #28]
   11658:	0a00000c 	beq	11690 <WriteText+0x88>
   1165c:	e3530009 	cmp	r3, #9
   11660:	0a000016 	beq	116c0 <WriteText+0xb8>
   11664:	e594201c 	ldr	r2, [r4, #28]
   11668:	e5943020 	ldr	r3, [r4, #32]
   1166c:	e5949040 	ldr	r9, [r4, #64]	; 0x40
   11670:	e1a02182 	lsl	r2, r2, #3
   11674:	e1a03203 	lsl	r3, r3, #4
   11678:	e5842014 	str	r2, [r4, #20]
   1167c:	e5843018 	str	r3, [r4, #24]
   11680:	e12fff39 	blx	r9
   11684:	e594301c 	ldr	r3, [r4, #28]
   11688:	e2833001 	add	r3, r3, #1
   1168c:	e584301c 	str	r3, [r4, #28]
   11690:	e1550006 	cmp	r5, r6
   11694:	0a000008 	beq	116bc <WriteText+0xb4>
   11698:	e4d53001 	ldrb	r3, [r5], #1
   1169c:	e353000a 	cmp	r3, #10
   116a0:	1affffe8 	bne	11648 <WriteText+0x40>
   116a4:	e5943020 	ldr	r3, [r4, #32]
   116a8:	e1550006 	cmp	r5, r6
   116ac:	e584801c 	str	r8, [r4, #28]
   116b0:	e2833001 	add	r3, r3, #1
   116b4:	e5843020 	str	r3, [r4, #32]
   116b8:	1afffff6 	bne	11698 <WriteText+0x90>
   116bc:	e8bd87f0 	pop	{r4, r5, r6, r7, r8, r9, sl, pc}
   116c0:	e594301c 	ldr	r3, [r4, #28]
   116c4:	e2833005 	add	r3, r3, #5
   116c8:	e2731000 	rsbs	r1, r3, #0
   116cc:	e2032003 	and	r2, r3, #3
   116d0:	e2011003 	and	r1, r1, #3
   116d4:	52612000 	rsbpl	r2, r1, #0
   116d8:	e0433002 	sub	r3, r3, r2
   116dc:	e584301c 	str	r3, [r4, #28]
   116e0:	eaffffea 	b	11690 <WriteText+0x88>

000116e4 <SetDCPenColor>:
   116e4:	e2503000 	subs	r3, r0, #0
   116e8:	15930020 	ldrne	r0, [r3, #32]
   116ec:	01a00003 	moveq	r0, r3
   116f0:	15831020 	strne	r1, [r3, #32]
   116f4:	e12fff1e 	bx	lr

000116f8 <SetDCBrushColor>:
   116f8:	e2503000 	subs	r3, r0, #0
   116fc:	15930028 	ldrne	r0, [r3, #40]	; 0x28
   11700:	01a00003 	moveq	r0, r3
   11704:	15831028 	strne	r1, [r3, #40]	; 0x28
   11708:	e12fff1e 	bx	lr

0001170c <MoveToEx>:
   1170c:	e250c000 	subs	ip, r0, #0
   11710:	0a000009 	beq	1173c <MoveToEx+0x30>
   11714:	e3530000 	cmp	r3, #0
   11718:	e52de004 	push	{lr}		; (str lr, [sp, #-4]!)
   1171c:	e1a0e001 	mov	lr, r1
   11720:	128c1010 	addne	r1, ip, #16
   11724:	18910003 	ldmne	r1, {r0, r1}
   11728:	18830003 	stmne	r3, {r0, r1}
   1172c:	e3a00001 	mov	r0, #1
   11730:	e58ce010 	str	lr, [ip, #16]
   11734:	e58c2014 	str	r2, [ip, #20]
   11738:	e49df004 	pop	{pc}		; (ldr pc, [sp], #4)
   1173c:	e1a0000c 	mov	r0, ip
   11740:	e12fff1e 	bx	lr

00011744 <LineTo>:
   11744:	e3500000 	cmp	r0, #0
   11748:	012fff1e 	bxeq	lr
   1174c:	e5903010 	ldr	r3, [r0, #16]
   11750:	e590c014 	ldr	ip, [r0, #20]
   11754:	e1530001 	cmp	r3, r1
   11758:	e92d4010 	push	{r4, lr}
   1175c:	c0431001 	subgt	r1, r3, r1
   11760:	d0411003 	suble	r1, r1, r3
   11764:	d3a03001 	movle	r3, #1
   11768:	c3e03000 	mvngt	r3, #0
   1176c:	e15c0002 	cmp	ip, r2
   11770:	c04cc002 	subgt	ip, ip, r2
   11774:	d042c00c 	suble	ip, r2, ip
   11778:	d3a02001 	movle	r2, #1
   1177c:	e24dd008 	sub	sp, sp, #8
   11780:	c3e02000 	mvngt	r2, #0
   11784:	e3510000 	cmp	r1, #0
   11788:	0a00000e 	beq	117c8 <LineTo+0x84>
   1178c:	e35c0000 	cmp	ip, #0
   11790:	0a000006 	beq	117b0 <LineTo+0x6c>
   11794:	e58d2000 	str	r2, [sp]
   11798:	e1a0200c 	mov	r2, ip
   1179c:	e5904038 	ldr	r4, [r0, #56]	; 0x38
   117a0:	e12fff34 	blx	r4
   117a4:	e3a00001 	mov	r0, #1
   117a8:	e28dd008 	add	sp, sp, #8
   117ac:	e8bd8010 	pop	{r4, pc}
   117b0:	e1a02003 	mov	r2, r3
   117b4:	e5903034 	ldr	r3, [r0, #52]	; 0x34
   117b8:	e12fff33 	blx	r3
   117bc:	e3a00001 	mov	r0, #1
   117c0:	e28dd008 	add	sp, sp, #8
   117c4:	e8bd8010 	pop	{r4, pc}
   117c8:	e5903030 	ldr	r3, [r0, #48]	; 0x30
   117cc:	e1a0100c 	mov	r1, ip
   117d0:	e12fff33 	blx	r3
   117d4:	e3a00001 	mov	r0, #1
   117d8:	e28dd008 	add	sp, sp, #8
   117dc:	e8bd8010 	pop	{r4, pc}

000117e0 <TextOut>:
   117e0:	e92d47f0 	push	{r4, r5, r6, r7, r8, r9, sl, lr}
   117e4:	e59d7020 	ldr	r7, [sp, #32]
   117e8:	e3570000 	cmp	r7, #0
   117ec:	13530000 	cmpne	r3, #0
   117f0:	13a00001 	movne	r0, #1
   117f4:	03a00000 	moveq	r0, #0
   117f8:	08bd87f0 	popeq	{r4, r5, r6, r7, r8, r9, sl, pc}
   117fc:	e3570000 	cmp	r7, #0
   11800:	da00000f 	ble	11844 <TextOut+0x64>
   11804:	e3055a58 	movw	r5, #23128	; 0x5a58
   11808:	e3405001 	movt	r5, #1
   1180c:	e1a06001 	mov	r6, r1
   11810:	e1a08002 	mov	r8, r2
   11814:	e1a04003 	mov	r4, r3
   11818:	e0837007 	add	r7, r3, r7
   1181c:	e2859004 	add	r9, r5, #4
   11820:	e5856014 	str	r6, [r5, #20]
   11824:	e1a00009 	mov	r0, r9
   11828:	e5858018 	str	r8, [r5, #24]
   1182c:	e2866008 	add	r6, r6, #8
   11830:	e5953040 	ldr	r3, [r5, #64]	; 0x40
   11834:	e4d41001 	ldrb	r1, [r4], #1
   11838:	e12fff33 	blx	r3
   1183c:	e1570004 	cmp	r7, r4
   11840:	1afffff6 	bne	11820 <TextOut+0x40>
   11844:	e3a00001 	mov	r0, #1
   11848:	e8bd87f0 	pop	{r4, r5, r6, r7, r8, r9, sl, pc}

0001184c <TransparentTextOut>:
   1184c:	e92d41f0 	push	{r4, r5, r6, r7, r8, lr}
   11850:	e2524000 	subs	r4, r2, #0
   11854:	0a000013 	beq	118a8 <TransparentTextOut+0x5c>
   11858:	e5d43000 	ldrb	r3, [r4]
   1185c:	e3530000 	cmp	r3, #0
   11860:	0a00000e 	beq	118a0 <TransparentTextOut+0x54>
   11864:	e3055a58 	movw	r5, #23128	; 0x5a58
   11868:	e3405001 	movt	r5, #1
   1186c:	e1a06000 	mov	r6, r0
   11870:	e1a07001 	mov	r7, r1
   11874:	e2858004 	add	r8, r5, #4
   11878:	e5856014 	str	r6, [r5, #20]
   1187c:	e1a00008 	mov	r0, r8
   11880:	e5857018 	str	r7, [r5, #24]
   11884:	e2866008 	add	r6, r6, #8
   11888:	e5953044 	ldr	r3, [r5, #68]	; 0x44
   1188c:	e4d41001 	ldrb	r1, [r4], #1
   11890:	e12fff33 	blx	r3
   11894:	e5d43000 	ldrb	r3, [r4]
   11898:	e3530000 	cmp	r3, #0
   1189c:	1afffff5 	bne	11878 <TransparentTextOut+0x2c>
   118a0:	e3a00001 	mov	r0, #1
   118a4:	e8bd81f0 	pop	{r4, r5, r6, r7, r8, pc}
   118a8:	e1a00004 	mov	r0, r4
   118ac:	e8bd81f0 	pop	{r4, r5, r6, r7, r8, pc}

000118b0 <BmpOut>:
   118b0:	e250c000 	subs	ip, r0, #0
   118b4:	0a000010 	beq	118fc <BmpOut+0x4c>
   118b8:	e92d4030 	push	{r4, r5, lr}
   118bc:	e1a0e001 	mov	lr, r1
   118c0:	e3a04001 	mov	r4, #1
   118c4:	e24dd00c 	sub	sp, sp, #12
   118c8:	e58ce010 	str	lr, [ip, #16]
   118cc:	e59d1018 	ldr	r1, [sp, #24]
   118d0:	e0822001 	add	r2, r2, r1
   118d4:	e1a01003 	mov	r1, r3
   118d8:	e58c2014 	str	r2, [ip, #20]
   118dc:	e58d4000 	str	r4, [sp]
   118e0:	e59d301c 	ldr	r3, [sp, #28]
   118e4:	e59d2018 	ldr	r2, [sp, #24]
   118e8:	e59c5044 	ldr	r5, [ip, #68]	; 0x44
   118ec:	e12fff35 	blx	r5
   118f0:	e1a00004 	mov	r0, r4
   118f4:	e28dd00c 	add	sp, sp, #12
   118f8:	e8bd8030 	pop	{r4, r5, pc}
   118fc:	e1a0000c 	mov	r0, ip
   11900:	e12fff1e 	bx	lr

00011904 <CvtBmpLine>:
   11904:	e92d4070 	push	{r4, r5, r6, lr}
   11908:	e3500000 	cmp	r0, #0
   1190c:	e24dda01 	sub	sp, sp, #4096	; 0x1000
   11910:	e24dd008 	sub	sp, sp, #8
   11914:	e28dca01 	add	ip, sp, #4096	; 0x1000
   11918:	e28cc018 	add	ip, ip, #24
   1191c:	e59ce000 	ldr	lr, [ip]
   11920:	0a000012 	beq	11970 <CvtBmpLine+0x6c>
   11924:	e590c00c 	ldr	ip, [r0, #12]
   11928:	e5801010 	str	r1, [r0, #16]
   1192c:	e15c000e 	cmp	ip, lr
   11930:	e5802014 	str	r2, [r0, #20]
   11934:	0a000005 	beq	11950 <CvtBmpLine+0x4c>
   11938:	e35c0018 	cmp	ip, #24
   1193c:	0a00000e 	beq	1197c <CvtBmpLine+0x78>
   11940:	e35c0020 	cmp	ip, #32
   11944:	0a00003e 	beq	11a44 <CvtBmpLine+0x140>
   11948:	e35c0010 	cmp	ip, #16
   1194c:	0a00001e 	beq	119cc <CvtBmpLine+0xc8>
   11950:	e3a04001 	mov	r4, #1
   11954:	e1a01003 	mov	r1, r3
   11958:	e58d4000 	str	r4, [sp]
   1195c:	e28d3008 	add	r3, sp, #8
   11960:	e1a02004 	mov	r2, r4
   11964:	e5905044 	ldr	r5, [r0, #68]	; 0x44
   11968:	e12fff35 	blx	r5
   1196c:	e1a00004 	mov	r0, r4
   11970:	e28dda01 	add	sp, sp, #4096	; 0x1000
   11974:	e28dd008 	add	sp, sp, #8
   11978:	e8bd8070 	pop	{r4, r5, r6, pc}
   1197c:	e35e0010 	cmp	lr, #16
   11980:	0a000043 	beq	11a94 <CvtBmpLine+0x190>
   11984:	e3530000 	cmp	r3, #0
   11988:	0afffff0 	beq	11950 <CvtBmpLine+0x4c>
   1198c:	e28d2a01 	add	r2, sp, #4096	; 0x1000
   11990:	e0834083 	add	r4, r3, r3, lsl #1
   11994:	e282201c 	add	r2, r2, #28
   11998:	e5921000 	ldr	r1, [r2]
   1199c:	e28d2008 	add	r2, sp, #8
   119a0:	e0824004 	add	r4, r2, r4
   119a4:	e2811004 	add	r1, r1, #4
   119a8:	e551c004 	ldrb	ip, [r1, #-4]
   119ac:	e551e003 	ldrb	lr, [r1, #-3]
   119b0:	e4c2c003 	strb	ip, [r2], #3
   119b4:	e551c002 	ldrb	ip, [r1, #-2]
   119b8:	e1520004 	cmp	r2, r4
   119bc:	e542e002 	strb	lr, [r2, #-2]
   119c0:	e542c001 	strb	ip, [r2, #-1]
   119c4:	1afffff6 	bne	119a4 <CvtBmpLine+0xa0>
   119c8:	eaffffe0 	b	11950 <CvtBmpLine+0x4c>
   119cc:	e35e0018 	cmp	lr, #24
   119d0:	0a00005e 	beq	11b50 <CvtBmpLine+0x24c>
   119d4:	e3530000 	cmp	r3, #0
   119d8:	0affffdc 	beq	11950 <CvtBmpLine+0x4c>
   119dc:	e28d2a01 	add	r2, sp, #4096	; 0x1000
   119e0:	e3a05000 	mov	r5, #0
   119e4:	e282201c 	add	r2, r2, #28
   119e8:	e5921000 	ldr	r1, [r2]
   119ec:	e28d2008 	add	r2, sp, #8
   119f0:	e2811004 	add	r1, r1, #4
   119f4:	e551c004 	ldrb	ip, [r1, #-4]
   119f8:	e5d2e000 	ldrb	lr, [r2]
   119fc:	e2855001 	add	r5, r5, #1
   11a00:	e5514003 	ldrb	r4, [r1, #-3]
   11a04:	e1530005 	cmp	r3, r5
   11a08:	e1a0c1ac 	lsr	ip, ip, #3
   11a0c:	e2822002 	add	r2, r2, #2
   11a10:	e7c4e01c 	bfi	lr, ip, #0, #5
   11a14:	e542e002 	strb	lr, [r2, #-2]
   11a18:	e1a04124 	lsr	r4, r4, #2
   11a1c:	e551e002 	ldrb	lr, [r1, #-2]
   11a20:	e152c0b2 	ldrh	ip, [r2, #-2]
   11a24:	e7cac294 	bfi	ip, r4, #5, #6
   11a28:	e1a0e1ae 	lsr	lr, lr, #3
   11a2c:	e142c0b2 	strh	ip, [r2, #-2]
   11a30:	e1a0c42c 	lsr	ip, ip, #8
   11a34:	e7c7c19e 	bfi	ip, lr, #3, #5
   11a38:	e542c001 	strb	ip, [r2, #-1]
   11a3c:	1affffeb 	bne	119f0 <CvtBmpLine+0xec>
   11a40:	eaffffc2 	b	11950 <CvtBmpLine+0x4c>
   11a44:	e35e0010 	cmp	lr, #16
   11a48:	0a000029 	beq	11af4 <CvtBmpLine+0x1f0>
   11a4c:	e3530000 	cmp	r3, #0
   11a50:	0affffbe 	beq	11950 <CvtBmpLine+0x4c>
   11a54:	e28d2a01 	add	r2, sp, #4096	; 0x1000
   11a58:	e083c083 	add	ip, r3, r3, lsl #1
   11a5c:	e282201c 	add	r2, r2, #28
   11a60:	e28d1008 	add	r1, sp, #8
   11a64:	e5922000 	ldr	r2, [r2]
   11a68:	e082c00c 	add	ip, r2, ip
   11a6c:	e2822003 	add	r2, r2, #3
   11a70:	e552e003 	ldrb	lr, [r2, #-3]
   11a74:	e152000c 	cmp	r2, ip
   11a78:	e5524002 	ldrb	r4, [r2, #-2]
   11a7c:	e4c1e004 	strb	lr, [r1], #4
   11a80:	e552e001 	ldrb	lr, [r2, #-1]
   11a84:	e5414003 	strb	r4, [r1, #-3]
   11a88:	e541e002 	strb	lr, [r1, #-2]
   11a8c:	1afffff6 	bne	11a6c <CvtBmpLine+0x168>
   11a90:	eaffffae 	b	11950 <CvtBmpLine+0x4c>
   11a94:	e3530000 	cmp	r3, #0
   11a98:	0affffac 	beq	11950 <CvtBmpLine+0x4c>
   11a9c:	e28d2a01 	add	r2, sp, #4096	; 0x1000
   11aa0:	e28d1008 	add	r1, sp, #8
   11aa4:	e282201c 	add	r2, r2, #28
   11aa8:	e0836083 	add	r6, r3, r3, lsl #1
   11aac:	e0816006 	add	r6, r1, r6
   11ab0:	e1a0c001 	mov	ip, r1
   11ab4:	e5922000 	ldr	r2, [r2]
   11ab8:	e5d2e001 	ldrb	lr, [r2, #1]
   11abc:	e2822002 	add	r2, r2, #2
   11ac0:	e5524002 	ldrb	r4, [r2, #-2]
   11ac4:	e20e1007 	and	r1, lr, #7
   11ac8:	e20ee0f8 	and	lr, lr, #248	; 0xf8
   11acc:	e1a05184 	lsl	r5, r4, #3
   11ad0:	e1a01181 	lsl	r1, r1, #3
   11ad4:	e4cc5003 	strb	r5, [ip], #3
   11ad8:	e18112a4 	orr	r1, r1, r4, lsr #5
   11adc:	e15c0006 	cmp	ip, r6
   11ae0:	e54ce001 	strb	lr, [ip, #-1]
   11ae4:	e1a01101 	lsl	r1, r1, #2
   11ae8:	e54c1002 	strb	r1, [ip, #-2]
   11aec:	1afffff1 	bne	11ab8 <CvtBmpLine+0x1b4>
   11af0:	eaffff96 	b	11950 <CvtBmpLine+0x4c>
   11af4:	e3530000 	cmp	r3, #0
   11af8:	0affff94 	beq	11950 <CvtBmpLine+0x4c>
   11afc:	e28d2a01 	add	r2, sp, #4096	; 0x1000
   11b00:	e3a04000 	mov	r4, #0
   11b04:	e282201c 	add	r2, r2, #28
   11b08:	e28dc008 	add	ip, sp, #8
   11b0c:	e592e000 	ldr	lr, [r2]
   11b10:	e5de1001 	ldrb	r1, [lr, #1]
   11b14:	e2844001 	add	r4, r4, #1
   11b18:	e5de5000 	ldrb	r5, [lr]
   11b1c:	e1530004 	cmp	r3, r4
   11b20:	e2012007 	and	r2, r1, #7
   11b24:	e20110f8 	and	r1, r1, #248	; 0xf8
   11b28:	e28ee002 	add	lr, lr, #2
   11b2c:	e1a02182 	lsl	r2, r2, #3
   11b30:	e1a06185 	lsl	r6, r5, #3
   11b34:	e4cc6004 	strb	r6, [ip], #4
   11b38:	e18222a5 	orr	r2, r2, r5, lsr #5
   11b3c:	e54c1002 	strb	r1, [ip, #-2]
   11b40:	e1a02102 	lsl	r2, r2, #2
   11b44:	e54c2003 	strb	r2, [ip, #-3]
   11b48:	1afffff0 	bne	11b10 <CvtBmpLine+0x20c>
   11b4c:	eaffff7f 	b	11950 <CvtBmpLine+0x4c>
   11b50:	e3530000 	cmp	r3, #0
   11b54:	0affff7d 	beq	11950 <CvtBmpLine+0x4c>
   11b58:	e28d2a01 	add	r2, sp, #4096	; 0x1000
   11b5c:	e0835083 	add	r5, r3, r3, lsl #1
   11b60:	e282201c 	add	r2, r2, #28
   11b64:	e592c000 	ldr	ip, [r2]
   11b68:	e28d2008 	add	r2, sp, #8
   11b6c:	e08c5005 	add	r5, ip, r5
   11b70:	e28cc003 	add	ip, ip, #3
   11b74:	e55c1003 	ldrb	r1, [ip, #-3]
   11b78:	e5d2e000 	ldrb	lr, [r2]
   11b7c:	e15c0005 	cmp	ip, r5
   11b80:	e55c4002 	ldrb	r4, [ip, #-2]
   11b84:	e2822002 	add	r2, r2, #2
   11b88:	e1a011a1 	lsr	r1, r1, #3
   11b8c:	e7c4e011 	bfi	lr, r1, #0, #5
   11b90:	e542e002 	strb	lr, [r2, #-2]
   11b94:	e1a04124 	lsr	r4, r4, #2
   11b98:	e55ce001 	ldrb	lr, [ip, #-1]
   11b9c:	e15210b2 	ldrh	r1, [r2, #-2]
   11ba0:	e7ca1294 	bfi	r1, r4, #5, #6
   11ba4:	e1a0e1ae 	lsr	lr, lr, #3
   11ba8:	e14210b2 	strh	r1, [r2, #-2]
   11bac:	e1a01421 	lsr	r1, r1, #8
   11bb0:	e7c7119e 	bfi	r1, lr, #3, #5
   11bb4:	e5421001 	strb	r1, [r2, #-1]
   11bb8:	1affffec 	bne	11b70 <CvtBmpLine+0x26c>
   11bbc:	eaffff63 	b	11950 <CvtBmpLine+0x4c>

00011bc0 <Rectangle>:
   11bc0:	e250c000 	subs	ip, r0, #0
   11bc4:	0a000008 	beq	11bec <Rectangle+0x2c>
   11bc8:	e92d4010 	push	{r4, lr}
   11bcc:	e24dd008 	sub	sp, sp, #8
   11bd0:	e59de010 	ldr	lr, [sp, #16]
   11bd4:	e58de000 	str	lr, [sp]
   11bd8:	e59c402c 	ldr	r4, [ip, #44]	; 0x2c
   11bdc:	e12fff34 	blx	r4
   11be0:	e3a00001 	mov	r0, #1
   11be4:	e28dd008 	add	sp, sp, #8
   11be8:	e8bd8010 	pop	{r4, pc}
   11bec:	e1a0000c 	mov	r0, ip
   11bf0:	e12fff1e 	bx	lr

00011bf4 <PiConsole_Init>:
   11bf4:	e92d43f0 	push	{r4, r5, r6, r7, r8, r9, lr}
   11bf8:	e3510000 	cmp	r1, #0
   11bfc:	13500000 	cmpne	r0, #0
   11c00:	e1a04002 	mov	r4, r2
   11c04:	e24dd09c 	sub	sp, sp, #156	; 0x9c
   11c08:	e1a08003 	mov	r8, r3
   11c0c:	e28d704c 	add	r7, sp, #76	; 0x4c
   11c10:	e1a05000 	mov	r5, r0
   11c14:	e1a06001 	mov	r6, r1
   11c18:	0a000065 	beq	11db4 <PiConsole_Init+0x1c0>
   11c1c:	e3540000 	cmp	r4, #0
   11c20:	1a000009 	bne	11c4c <PiConsole_Init+0x58>
   11c24:	e3a03004 	mov	r3, #4
   11c28:	e3a02005 	mov	r2, #5
   11c2c:	e3402004 	movt	r2, #4
   11c30:	e88d0018 	stm	sp, {r3, r4}
   11c34:	e1a01003 	mov	r1, r3
   11c38:	e1a00007 	mov	r0, r7
   11c3c:	ebfffb39 	bl	10928 <mailbox_tag_message.constprop.6>
   11c40:	e3500000 	cmp	r0, #0
   11c44:	0a000022 	beq	11cd4 <PiConsole_Init+0xe0>
   11c48:	e59d4058 	ldr	r4, [sp, #88]	; 0x58
   11c4c:	e3a0c008 	mov	ip, #8
   11c50:	e3a01004 	mov	r1, #4
   11c54:	e3a03001 	mov	r3, #1
   11c58:	e3403004 	movt	r3, #4
   11c5c:	e308e005 	movw	lr, #32773	; 0x8005
   11c60:	e340e004 	movt	lr, #4
   11c64:	e3082004 	movw	r2, #32772	; 0x8004
   11c68:	e3402004 	movt	r2, #4
   11c6c:	e1a00007 	mov	r0, r7
   11c70:	e58d3030 	str	r3, [sp, #48]	; 0x30
   11c74:	e58de020 	str	lr, [sp, #32]
   11c78:	e1a0300c 	mov	r3, ip
   11c7c:	e58d200c 	str	r2, [sp, #12]
   11c80:	e3a0e010 	mov	lr, #16
   11c84:	e58d1038 	str	r1, [sp, #56]	; 0x38
   11c88:	e3a07000 	mov	r7, #0
   11c8c:	e58d1028 	str	r1, [sp, #40]	; 0x28
   11c90:	e3082003 	movw	r2, #32771	; 0x8003
   11c94:	e3402004 	movt	r2, #4
   11c98:	e58d1024 	str	r1, [sp, #36]	; 0x24
   11c9c:	e3a01013 	mov	r1, #19
   11ca0:	e58d402c 	str	r4, [sp, #44]	; 0x2c
   11ca4:	e58d601c 	str	r6, [sp, #28]
   11ca8:	e58d5018 	str	r5, [sp, #24]
   11cac:	e98d0060 	stmib	sp, {r5, r6}
   11cb0:	e58dc034 	str	ip, [sp, #52]	; 0x34
   11cb4:	e58dc014 	str	ip, [sp, #20]
   11cb8:	e58dc010 	str	ip, [sp, #16]
   11cbc:	e58dc000 	str	ip, [sp]
   11cc0:	e58d7040 	str	r7, [sp, #64]	; 0x40
   11cc4:	e58de03c 	str	lr, [sp, #60]	; 0x3c
   11cc8:	ebfffb51 	bl	10a14 <mailbox_tag_message.constprop.7>
   11ccc:	e2509000 	subs	r9, r0, #0
   11cd0:	1a000003 	bne	11ce4 <PiConsole_Init+0xf0>
   11cd4:	e3a09000 	mov	r9, #0
   11cd8:	e1a00009 	mov	r0, r9
   11cdc:	e28dd09c 	add	sp, sp, #156	; 0x9c
   11ce0:	e8bd83f0 	pop	{r4, r5, r6, r7, r8, r9, pc}
   11ce4:	e59d0090 	ldr	r0, [sp, #144]	; 0x90
   11ce8:	ebffd9d7 	bl	844c <GPUaddrToARMaddr>
   11cec:	e3053a58 	movw	r3, #23128	; 0x5a58
   11cf0:	e3403001 	movt	r3, #1
   11cf4:	e3540018 	cmp	r4, #24
   11cf8:	e3e01000 	mvn	r1, #0
   11cfc:	e3a02cff 	mov	r2, #65280	; 0xff00
   11d00:	e34f2f00 	movt	r2, #65280	; 0xff00
   11d04:	e5830004 	str	r0, [r3, #4]
   11d08:	e5837028 	str	r7, [r3, #40]	; 0x28
   11d0c:	e5835008 	str	r5, [r3, #8]
   11d10:	e583600c 	str	r6, [r3, #12]
   11d14:	e5834010 	str	r4, [r3, #16]
   11d18:	e5831024 	str	r1, [r3, #36]	; 0x24
   11d1c:	e583202c 	str	r2, [r3, #44]	; 0x2c
   11d20:	0a00004c 	beq	11e58 <PiConsole_Init+0x264>
   11d24:	e3540020 	cmp	r4, #32
   11d28:	0a000034 	beq	11e00 <PiConsole_Init+0x20c>
   11d2c:	e3540010 	cmp	r4, #16
   11d30:	1a000014 	bne	11d88 <PiConsole_Init+0x194>
   11d34:	e30f2a24 	movw	r2, #64036	; 0xfa24
   11d38:	e3402000 	movt	r2, #0
   11d3c:	e30f1ac0 	movw	r1, #64192	; 0xfac0
   11d40:	e3401000 	movt	r1, #0
   11d44:	e5832030 	str	r2, [r3, #48]	; 0x30
   11d48:	e30f2b84 	movw	r2, #64388	; 0xfb84
   11d4c:	e3402000 	movt	r2, #0
   11d50:	e5831034 	str	r1, [r3, #52]	; 0x34
   11d54:	e30f1c14 	movw	r1, #64532	; 0xfc14
   11d58:	e3401000 	movt	r1, #0
   11d5c:	e5832038 	str	r2, [r3, #56]	; 0x38
   11d60:	e30f2cfc 	movw	r2, #64764	; 0xfcfc
   11d64:	e3402000 	movt	r2, #0
   11d68:	e583103c 	str	r1, [r3, #60]	; 0x3c
   11d6c:	e30f1e1c 	movw	r1, #65052	; 0xfe1c
   11d70:	e3401000 	movt	r1, #0
   11d74:	e5832040 	str	r2, [r3, #64]	; 0x40
   11d78:	e30f2f00 	movw	r2, #65280	; 0xff00
   11d7c:	e3402000 	movt	r2, #0
   11d80:	e5831044 	str	r1, [r3, #68]	; 0x44
   11d84:	e5832048 	str	r2, [r3, #72]	; 0x48
   11d88:	e3580000 	cmp	r8, #0
   11d8c:	0affffd1 	beq	11cd8 <PiConsole_Init+0xe4>
   11d90:	e1a03004 	mov	r3, r4
   11d94:	e1a02006 	mov	r2, r6
   11d98:	e1a01005 	mov	r1, r5
   11d9c:	e3060d9c 	movw	r0, #28060	; 0x6d9c
   11da0:	e3400001 	movt	r0, #1
   11da4:	e12fff38 	blx	r8
   11da8:	e1a00009 	mov	r0, r9
   11dac:	e28dd09c 	add	sp, sp, #156	; 0x9c
   11db0:	e8bd83f0 	pop	{r4, r5, r6, r7, r8, r9, pc}
   11db4:	e3a03000 	mov	r3, #0
   11db8:	e1a00007 	mov	r0, r7
   11dbc:	e58d3008 	str	r3, [sp, #8]
   11dc0:	e3a02003 	mov	r2, #3
   11dc4:	e3402004 	movt	r2, #4
   11dc8:	e58d3004 	str	r3, [sp, #4]
   11dcc:	e3a01005 	mov	r1, #5
   11dd0:	e58d3000 	str	r3, [sp]
   11dd4:	e3a03008 	mov	r3, #8
   11dd8:	ebfffa92 	bl	10828 <mailbox_tag_message.constprop.5>
   11ddc:	e3500000 	cmp	r0, #0
   11de0:	0affffbb 	beq	11cd4 <PiConsole_Init+0xe0>
   11de4:	e3550000 	cmp	r5, #0
   11de8:	1a000002 	bne	11df8 <PiConsole_Init+0x204>
   11dec:	e3560000 	cmp	r6, #0
   11df0:	e59d5058 	ldr	r5, [sp, #88]	; 0x58
   11df4:	1affff88 	bne	11c1c <PiConsole_Init+0x28>
   11df8:	e59d605c 	ldr	r6, [sp, #92]	; 0x5c
   11dfc:	eaffff86 	b	11c1c <PiConsole_Init+0x28>
   11e00:	e3002408 	movw	r2, #1032	; 0x408
   11e04:	e3402001 	movt	r2, #1
   11e08:	e300146c 	movw	r1, #1132	; 0x46c
   11e0c:	e3401001 	movt	r1, #1
   11e10:	e5832030 	str	r2, [r3, #48]	; 0x30
   11e14:	e30024e0 	movw	r2, #1248	; 0x4e0
   11e18:	e3402001 	movt	r2, #1
   11e1c:	e5831034 	str	r1, [r3, #52]	; 0x34
   11e20:	e3001534 	movw	r1, #1332	; 0x534
   11e24:	e3401001 	movt	r1, #1
   11e28:	e5832038 	str	r2, [r3, #56]	; 0x38
   11e2c:	e30025b8 	movw	r2, #1464	; 0x5b8
   11e30:	e3402001 	movt	r2, #1
   11e34:	e583103c 	str	r1, [r3, #60]	; 0x3c
   11e38:	e3001648 	movw	r1, #1608	; 0x648
   11e3c:	e3401001 	movt	r1, #1
   11e40:	e5832040 	str	r2, [r3, #64]	; 0x40
   11e44:	e30026c8 	movw	r2, #1736	; 0x6c8
   11e48:	e3402001 	movt	r2, #1
   11e4c:	e5831044 	str	r1, [r3, #68]	; 0x44
   11e50:	e5832048 	str	r2, [r3, #72]	; 0x48
   11e54:	eaffffcb 	b	11d88 <PiConsole_Init+0x194>
   11e58:	e30f2fb8 	movw	r2, #65464	; 0xffb8
   11e5c:	e3402000 	movt	r2, #0
   11e60:	e3001028 	movw	r1, #40	; 0x28
   11e64:	e3401001 	movt	r1, #1
   11e68:	e5832030 	str	r2, [r3, #48]	; 0x30
   11e6c:	e30020bc 	movw	r2, #188	; 0xbc
   11e70:	e3402001 	movt	r2, #1
   11e74:	e5831034 	str	r1, [r3, #52]	; 0x34
   11e78:	e3001128 	movw	r1, #296	; 0x128
   11e7c:	e3401001 	movt	r1, #1
   11e80:	e5832038 	str	r2, [r3, #56]	; 0x38
   11e84:	e30021f8 	movw	r2, #504	; 0x1f8
   11e88:	e3402001 	movt	r2, #1
   11e8c:	e583103c 	str	r1, [r3, #60]	; 0x3c
   11e90:	e300129c 	movw	r1, #668	; 0x29c
   11e94:	e3401001 	movt	r1, #1
   11e98:	e5832040 	str	r2, [r3, #64]	; 0x40
   11e9c:	e300236c 	movw	r2, #876	; 0x36c
   11ea0:	e3402001 	movt	r2, #1
   11ea4:	e5831044 	str	r1, [r3, #68]	; 0x44
   11ea8:	e5832048 	str	r2, [r3, #72]	; 0x48
   11eac:	eaffffb5 	b	11d88 <PiConsole_Init+0x194>

00011eb0 <GetConsoleDC>:
   11eb0:	e59f0000 	ldr	r0, [pc]	; 11eb8 <GetConsoleDC+0x8>
   11eb4:	e12fff1e 	bx	lr
   11eb8:	00015a5c 	.word	0x00015a5c

00011ebc <GetConsole_FrameBuffer>:
   11ebc:	e3053a58 	movw	r3, #23128	; 0x5a58
   11ec0:	e3403001 	movt	r3, #1
   11ec4:	e5930004 	ldr	r0, [r3, #4]
   11ec8:	e12fff1e 	bx	lr

00011ecc <GetConsole_Width>:
   11ecc:	e3053a58 	movw	r3, #23128	; 0x5a58
   11ed0:	e3403001 	movt	r3, #1
   11ed4:	e5930008 	ldr	r0, [r3, #8]
   11ed8:	e12fff1e 	bx	lr

00011edc <GetConsole_Height>:
   11edc:	e3053a58 	movw	r3, #23128	; 0x5a58
   11ee0:	e3403001 	movt	r3, #1
   11ee4:	e593000c 	ldr	r0, [r3, #12]
   11ee8:	e12fff1e 	bx	lr

00011eec <WhereXY>:
   11eec:	e3500000 	cmp	r0, #0
   11ef0:	13053a58 	movwne	r3, #23128	; 0x5a58
   11ef4:	13403001 	movtne	r3, #1
   11ef8:	1593301c 	ldrne	r3, [r3, #28]
   11efc:	15803000 	strne	r3, [r0]
   11f00:	e3510000 	cmp	r1, #0
   11f04:	13053a58 	movwne	r3, #23128	; 0x5a58
   11f08:	13403001 	movtne	r3, #1
   11f0c:	15933020 	ldrne	r3, [r3, #32]
   11f10:	15813000 	strne	r3, [r1]
   11f14:	e12fff1e 	bx	lr

00011f18 <GotoXY>:
   11f18:	e3053a58 	movw	r3, #23128	; 0x5a58
   11f1c:	e3403001 	movt	r3, #1
   11f20:	e583001c 	str	r0, [r3, #28]
   11f24:	e5831020 	str	r1, [r3, #32]
   11f28:	e12fff1e 	bx	lr

00011f2c <_sbrk>:
   11f2c:	e3052a58 	movw	r2, #23128	; 0x5a58
   11f30:	e3402001 	movt	r2, #1
   11f34:	e3051f30 	movw	r1, #24368	; 0x5f30
   11f38:	e3401002 	movt	r1, #2
   11f3c:	e592304c 	ldr	r3, [r2, #76]	; 0x4c
   11f40:	e3530000 	cmp	r3, #0
   11f44:	01a03001 	moveq	r3, r1
   11f48:	e0831000 	add	r1, r3, r0
   11f4c:	e1a00003 	mov	r0, r3
   11f50:	e582104c 	str	r1, [r2, #76]	; 0x4c
   11f54:	e12fff1e 	bx	lr

00011f58 <c_irq_handler>:
   11f58:	e3053aa8 	movw	r3, #23208	; 0x5aa8
   11f5c:	e3403001 	movt	r3, #1
   11f60:	e5d32000 	ldrb	r2, [r3]
   11f64:	e3520000 	cmp	r2, #0
   11f68:	03a02001 	moveq	r2, #1
   11f6c:	13a00000 	movne	r0, #0
   11f70:	01a00002 	moveq	r0, r2
   11f74:	15c30000 	strbne	r0, [r3]
   11f78:	05c32000 	strbeq	r2, [r3]
   11f7c:	eafffcbc 	b	11274 <set_Activity_LED>

00011f80 <kernel_main>:
   11f80:	e92d4070 	push	{r4, r5, r6, lr}
   11f84:	e301054c 	movw	r0, #5452	; 0x154c
   11f88:	e3400001 	movt	r0, #1
   11f8c:	ebfff3e3 	bl	ef20 <Init_EmbStdio>
   11f90:	e3a02000 	mov	r2, #0
   11f94:	e1a01002 	mov	r1, r2
   11f98:	e1a00002 	mov	r0, r2
   11f9c:	e30e3f38 	movw	r3, #61240	; 0xef38
   11fa0:	e3403000 	movt	r3, #0
   11fa4:	ebffff12 	bl	11bf4 <PiConsole_Init>
   11fa8:	e30e0f38 	movw	r0, #61240	; 0xef38
   11fac:	e3400000 	movt	r0, #0
   11fb0:	ebfffd38 	bl	11498 <displaySmartStart>
   11fb4:	e30e0f38 	movw	r0, #61240	; 0xef38
   11fb8:	e3400000 	movt	r0, #0
   11fbc:	ebfffd07 	bl	113e0 <ARM_setmaxspeed>
   11fc0:	e3011f58 	movw	r1, #8024	; 0x1f58
   11fc4:	e3401001 	movt	r1, #1
   11fc8:	e30a0120 	movw	r0, #41248	; 0xa120
   11fcc:	e3400007 	movt	r0, #7
   11fd0:	ebfffc69 	bl	1117c <TimerIrqSetup>
   11fd4:	e3066dc8 	movw	r6, #28104	; 0x6dc8
   11fd8:	e3406001 	movt	r6, #1
   11fdc:	ebffd91f 	bl	8460 <EnableInterrupts>
   11fe0:	e3065dcc 	movw	r5, #28108	; 0x6dcc
   11fe4:	e3405001 	movt	r5, #1
   11fe8:	e3a0107c 	mov	r1, #124	; 0x7c
   11fec:	e3a04000 	mov	r4, #0
   11ff0:	e2844001 	add	r4, r4, #1
   11ff4:	e1a00005 	mov	r0, r5
   11ff8:	e2044003 	and	r4, r4, #3
   11ffc:	ebfff3cd 	bl	ef38 <printf>
   12000:	e3a01000 	mov	r1, #0
   12004:	e30c0350 	movw	r0, #50000	; 0xc350
   12008:	ebfffbcb 	bl	10f3c <timer_wait>
   1200c:	e7d61004 	ldrb	r1, [r6, r4]
   12010:	eafffff6 	b	11ff0 <kernel_main+0x70>

00012014 <__locale_ctype_ptr_l>:
   12014:	f8d0 00ec 	ldr.w	r0, [r0, #236]	; 0xec
   12018:	4770      	bx	lr
   1201a:	bf00      	nop

0001201c <__locale_ctype_ptr>:
   1201c:	f247 23ec 	movw	r3, #29420	; 0x72ec
   12020:	f2c0 0301 	movt	r3, #1
   12024:	f247 1280 	movw	r2, #29056	; 0x7180
   12028:	f2c0 0201 	movt	r2, #1
   1202c:	681b      	ldr	r3, [r3, #0]
   1202e:	6b5b      	ldr	r3, [r3, #52]	; 0x34
   12030:	2b00      	cmp	r3, #0
   12032:	bf08      	it	eq
   12034:	4613      	moveq	r3, r2
   12036:	f8d3 00ec 	ldr.w	r0, [r3, #236]	; 0xec
   1203a:	4770      	bx	lr

0001203c <mbstowcs>:
   1203c:	b18a      	cbz	r2, 12062 <mbstowcs+0x26>
   1203e:	b410      	push	{r4}
   12040:	440a      	add	r2, r1
   12042:	1f04      	subs	r4, r0, #4
   12044:	2000      	movs	r0, #0
   12046:	e003      	b.n	12050 <mbstowcs+0x14>
   12048:	4291      	cmp	r1, r2
   1204a:	f100 0001 	add.w	r0, r0, #1
   1204e:	d005      	beq.n	1205c <mbstowcs+0x20>
   12050:	f811 3b01 	ldrb.w	r3, [r1], #1
   12054:	f844 3f04 	str.w	r3, [r4, #4]!
   12058:	2b00      	cmp	r3, #0
   1205a:	d1f5      	bne.n	12048 <mbstowcs+0xc>
   1205c:	f85d 4b04 	ldr.w	r4, [sp], #4
   12060:	4770      	bx	lr
   12062:	4610      	mov	r0, r2
   12064:	4770      	bx	lr
   12066:	bf00      	nop

00012068 <__ascii_mbtowc>:
   12068:	b082      	sub	sp, #8
   1206a:	b149      	cbz	r1, 12080 <__ascii_mbtowc+0x18>
   1206c:	b15a      	cbz	r2, 12086 <__ascii_mbtowc+0x1e>
   1206e:	b16b      	cbz	r3, 1208c <__ascii_mbtowc+0x24>
   12070:	7813      	ldrb	r3, [r2, #0]
   12072:	600b      	str	r3, [r1, #0]
   12074:	7812      	ldrb	r2, [r2, #0]
   12076:	1c10      	adds	r0, r2, #0
   12078:	bf18      	it	ne
   1207a:	2001      	movne	r0, #1
   1207c:	b002      	add	sp, #8
   1207e:	4770      	bx	lr
   12080:	a901      	add	r1, sp, #4
   12082:	2a00      	cmp	r2, #0
   12084:	d1f3      	bne.n	1206e <__ascii_mbtowc+0x6>
   12086:	4610      	mov	r0, r2
   12088:	b002      	add	sp, #8
   1208a:	4770      	bx	lr
   1208c:	f06f 0001 	mvn.w	r0, #1
   12090:	e7f4      	b.n	1207c <__ascii_mbtowc+0x14>
   12092:	bf00      	nop

00012094 <memcpy>:
   12094:	4684      	mov	ip, r0
   12096:	ea41 0300 	orr.w	r3, r1, r0
   1209a:	f013 0303 	ands.w	r3, r3, #3
   1209e:	d149      	bne.n	12134 <memcpy+0xa0>
   120a0:	3a40      	subs	r2, #64	; 0x40
   120a2:	d323      	bcc.n	120ec <memcpy+0x58>
   120a4:	680b      	ldr	r3, [r1, #0]
   120a6:	6003      	str	r3, [r0, #0]
   120a8:	684b      	ldr	r3, [r1, #4]
   120aa:	6043      	str	r3, [r0, #4]
   120ac:	688b      	ldr	r3, [r1, #8]
   120ae:	6083      	str	r3, [r0, #8]
   120b0:	68cb      	ldr	r3, [r1, #12]
   120b2:	60c3      	str	r3, [r0, #12]
   120b4:	690b      	ldr	r3, [r1, #16]
   120b6:	6103      	str	r3, [r0, #16]
   120b8:	694b      	ldr	r3, [r1, #20]
   120ba:	6143      	str	r3, [r0, #20]
   120bc:	698b      	ldr	r3, [r1, #24]
   120be:	6183      	str	r3, [r0, #24]
   120c0:	69cb      	ldr	r3, [r1, #28]
   120c2:	61c3      	str	r3, [r0, #28]
   120c4:	6a0b      	ldr	r3, [r1, #32]
   120c6:	6203      	str	r3, [r0, #32]
   120c8:	6a4b      	ldr	r3, [r1, #36]	; 0x24
   120ca:	6243      	str	r3, [r0, #36]	; 0x24
   120cc:	6a8b      	ldr	r3, [r1, #40]	; 0x28
   120ce:	6283      	str	r3, [r0, #40]	; 0x28
   120d0:	6acb      	ldr	r3, [r1, #44]	; 0x2c
   120d2:	62c3      	str	r3, [r0, #44]	; 0x2c
   120d4:	6b0b      	ldr	r3, [r1, #48]	; 0x30
   120d6:	6303      	str	r3, [r0, #48]	; 0x30
   120d8:	6b4b      	ldr	r3, [r1, #52]	; 0x34
   120da:	6343      	str	r3, [r0, #52]	; 0x34
   120dc:	6b8b      	ldr	r3, [r1, #56]	; 0x38
   120de:	6383      	str	r3, [r0, #56]	; 0x38
   120e0:	6bcb      	ldr	r3, [r1, #60]	; 0x3c
   120e2:	63c3      	str	r3, [r0, #60]	; 0x3c
   120e4:	3040      	adds	r0, #64	; 0x40
   120e6:	3140      	adds	r1, #64	; 0x40
   120e8:	3a40      	subs	r2, #64	; 0x40
   120ea:	d2db      	bcs.n	120a4 <memcpy+0x10>
   120ec:	3230      	adds	r2, #48	; 0x30
   120ee:	d30b      	bcc.n	12108 <memcpy+0x74>
   120f0:	680b      	ldr	r3, [r1, #0]
   120f2:	6003      	str	r3, [r0, #0]
   120f4:	684b      	ldr	r3, [r1, #4]
   120f6:	6043      	str	r3, [r0, #4]
   120f8:	688b      	ldr	r3, [r1, #8]
   120fa:	6083      	str	r3, [r0, #8]
   120fc:	68cb      	ldr	r3, [r1, #12]
   120fe:	60c3      	str	r3, [r0, #12]
   12100:	3010      	adds	r0, #16
   12102:	3110      	adds	r1, #16
   12104:	3a10      	subs	r2, #16
   12106:	d2f3      	bcs.n	120f0 <memcpy+0x5c>
   12108:	320c      	adds	r2, #12
   1210a:	d305      	bcc.n	12118 <memcpy+0x84>
   1210c:	f851 3b04 	ldr.w	r3, [r1], #4
   12110:	f840 3b04 	str.w	r3, [r0], #4
   12114:	3a04      	subs	r2, #4
   12116:	d2f9      	bcs.n	1210c <memcpy+0x78>
   12118:	3204      	adds	r2, #4
   1211a:	d008      	beq.n	1212e <memcpy+0x9a>
   1211c:	07d2      	lsls	r2, r2, #31
   1211e:	bf1c      	itt	ne
   12120:	f811 3b01 	ldrbne.w	r3, [r1], #1
   12124:	f800 3b01 	strbne.w	r3, [r0], #1
   12128:	d301      	bcc.n	1212e <memcpy+0x9a>
   1212a:	880b      	ldrh	r3, [r1, #0]
   1212c:	8003      	strh	r3, [r0, #0]
   1212e:	4660      	mov	r0, ip
   12130:	4770      	bx	lr
   12132:	bf00      	nop
   12134:	2a08      	cmp	r2, #8
   12136:	d313      	bcc.n	12160 <memcpy+0xcc>
   12138:	078b      	lsls	r3, r1, #30
   1213a:	d0b1      	beq.n	120a0 <memcpy+0xc>
   1213c:	f010 0303 	ands.w	r3, r0, #3
   12140:	d0ae      	beq.n	120a0 <memcpy+0xc>
   12142:	f1c3 0304 	rsb	r3, r3, #4
   12146:	1ad2      	subs	r2, r2, r3
   12148:	07db      	lsls	r3, r3, #31
   1214a:	bf1c      	itt	ne
   1214c:	f811 3b01 	ldrbne.w	r3, [r1], #1
   12150:	f800 3b01 	strbne.w	r3, [r0], #1
   12154:	d3a4      	bcc.n	120a0 <memcpy+0xc>
   12156:	f831 3b02 	ldrh.w	r3, [r1], #2
   1215a:	f820 3b02 	strh.w	r3, [r0], #2
   1215e:	e79f      	b.n	120a0 <memcpy+0xc>
   12160:	3a04      	subs	r2, #4
   12162:	d3d9      	bcc.n	12118 <memcpy+0x84>
   12164:	3a01      	subs	r2, #1
   12166:	f811 3b01 	ldrb.w	r3, [r1], #1
   1216a:	f800 3b01 	strb.w	r3, [r0], #1
   1216e:	d2f9      	bcs.n	12164 <memcpy+0xd0>
   12170:	780b      	ldrb	r3, [r1, #0]
   12172:	7003      	strb	r3, [r0, #0]
   12174:	784b      	ldrb	r3, [r1, #1]
   12176:	7043      	strb	r3, [r0, #1]
   12178:	788b      	ldrb	r3, [r1, #2]
   1217a:	7083      	strb	r3, [r0, #2]
   1217c:	4660      	mov	r0, ip
   1217e:	4770      	bx	lr

00012180 <modf>:
   12180:	e92d 03f0 	stmdb	sp!, {r4, r5, r6, r7, r8, r9}
   12184:	ec55 4b10 	vmov	r4, r5, d0
   12188:	f3c5 520a 	ubfx	r2, r5, #20, #11
   1218c:	f2a2 33ff 	subw	r3, r2, #1023	; 0x3ff
   12190:	2b13      	cmp	r3, #19
   12192:	dc17      	bgt.n	121c4 <modf+0x44>
   12194:	2b00      	cmp	r3, #0
   12196:	db4d      	blt.n	12234 <modf+0xb4>
   12198:	f64f 72ff 	movw	r2, #65535	; 0xffff
   1219c:	f2c0 020f 	movt	r2, #15
   121a0:	fa42 f703 	asr.w	r7, r2, r3
   121a4:	2200      	movs	r2, #0
   121a6:	ea05 0307 	and.w	r3, r5, r7
   121aa:	ea53 0604 	orrs.w	r6, r3, r4
   121ae:	d120      	bne.n	121f2 <modf+0x72>
   121b0:	f005 4300 	and.w	r3, r5, #2147483648	; 0x80000000
   121b4:	4632      	mov	r2, r6
   121b6:	ed80 0b00 	vstr	d0, [r0]
   121ba:	ec43 2b10 	vmov	d0, r2, r3
   121be:	e8bd 03f0 	ldmia.w	sp!, {r4, r5, r6, r7, r8, r9}
   121c2:	4770      	bx	lr
   121c4:	2b33      	cmp	r3, #51	; 0x33
   121c6:	dc21      	bgt.n	1220c <modf+0x8c>
   121c8:	f2a2 4213 	subw	r2, r2, #1043	; 0x413
   121cc:	f04f 33ff 	mov.w	r3, #4294967295
   121d0:	fa23 f202 	lsr.w	r2, r3, r2
   121d4:	ea14 0702 	ands.w	r7, r4, r2
   121d8:	d022      	beq.n	12220 <modf+0xa0>
   121da:	ea24 0802 	bic.w	r8, r4, r2
   121de:	46a9      	mov	r9, r5
   121e0:	ec49 8b17 	vmov	d7, r8, r9
   121e4:	e8bd 03f0 	ldmia.w	sp!, {r4, r5, r6, r7, r8, r9}
   121e8:	ee30 0b47 	vsub.f64	d0, d0, d7
   121ec:	ed80 7b00 	vstr	d7, [r0]
   121f0:	4770      	bx	lr
   121f2:	ea25 0307 	bic.w	r3, r5, r7
   121f6:	ec45 4b17 	vmov	d7, r4, r5
   121fa:	e8bd 03f0 	ldmia.w	sp!, {r4, r5, r6, r7, r8, r9}
   121fe:	ec43 2b10 	vmov	d0, r2, r3
   12202:	ed80 0b00 	vstr	d0, [r0]
   12206:	ee37 0b40 	vsub.f64	d0, d7, d0
   1220a:	4770      	bx	lr
   1220c:	f005 4300 	and.w	r3, r5, #2147483648	; 0x80000000
   12210:	2200      	movs	r2, #0
   12212:	ed80 0b00 	vstr	d0, [r0]
   12216:	e8bd 03f0 	ldmia.w	sp!, {r4, r5, r6, r7, r8, r9}
   1221a:	ec43 2b10 	vmov	d0, r2, r3
   1221e:	4770      	bx	lr
   12220:	f005 4300 	and.w	r3, r5, #2147483648	; 0x80000000
   12224:	463a      	mov	r2, r7
   12226:	ed80 0b00 	vstr	d0, [r0]
   1222a:	e8bd 03f0 	ldmia.w	sp!, {r4, r5, r6, r7, r8, r9}
   1222e:	ec43 2b10 	vmov	d0, r2, r3
   12232:	4770      	bx	lr
   12234:	2200      	movs	r2, #0
   12236:	f005 4300 	and.w	r3, r5, #2147483648	; 0x80000000
   1223a:	e9c0 2300 	strd	r2, r3, [r0]
   1223e:	e7be      	b.n	121be <modf+0x3e>

00012240 <strchr>:
   12240:	b2c9      	uxtb	r1, r1
   12242:	2900      	cmp	r1, #0
   12244:	d041      	beq.n	122ca <strchr+0x8a>
   12246:	0782      	lsls	r2, r0, #30
   12248:	b4f0      	push	{r4, r5, r6, r7}
   1224a:	d067      	beq.n	1231c <strchr+0xdc>
   1224c:	7803      	ldrb	r3, [r0, #0]
   1224e:	2b00      	cmp	r3, #0
   12250:	d068      	beq.n	12324 <strchr+0xe4>
   12252:	4299      	cmp	r1, r3
   12254:	d037      	beq.n	122c6 <strchr+0x86>
   12256:	1c43      	adds	r3, r0, #1
   12258:	e004      	b.n	12264 <strchr+0x24>
   1225a:	f813 0b01 	ldrb.w	r0, [r3], #1
   1225e:	b390      	cbz	r0, 122c6 <strchr+0x86>
   12260:	4281      	cmp	r1, r0
   12262:	d02f      	beq.n	122c4 <strchr+0x84>
   12264:	079a      	lsls	r2, r3, #30
   12266:	461c      	mov	r4, r3
   12268:	d1f7      	bne.n	1225a <strchr+0x1a>
   1226a:	ea41 2301 	orr.w	r3, r1, r1, lsl #8
   1226e:	6825      	ldr	r5, [r4, #0]
   12270:	ea43 4303 	orr.w	r3, r3, r3, lsl #16
   12274:	f1a5 3201 	sub.w	r2, r5, #16843009	; 0x1010101
   12278:	ea83 0605 	eor.w	r6, r3, r5
   1227c:	ea22 0205 	bic.w	r2, r2, r5
   12280:	f1a6 3001 	sub.w	r0, r6, #16843009	; 0x1010101
   12284:	ea20 0006 	bic.w	r0, r0, r6
   12288:	4302      	orrs	r2, r0
   1228a:	f012 3f80 	tst.w	r2, #2155905152	; 0x80808080
   1228e:	d111      	bne.n	122b4 <strchr+0x74>
   12290:	4620      	mov	r0, r4
   12292:	f850 6f04 	ldr.w	r6, [r0, #4]!
   12296:	ea83 0706 	eor.w	r7, r3, r6
   1229a:	f1a6 3201 	sub.w	r2, r6, #16843009	; 0x1010101
   1229e:	f1a7 3501 	sub.w	r5, r7, #16843009	; 0x1010101
   122a2:	ea22 0206 	bic.w	r2, r2, r6
   122a6:	ea25 0507 	bic.w	r5, r5, r7
   122aa:	432a      	orrs	r2, r5
   122ac:	f012 3f80 	tst.w	r2, #2155905152	; 0x80808080
   122b0:	d0ef      	beq.n	12292 <strchr+0x52>
   122b2:	4604      	mov	r4, r0
   122b4:	7820      	ldrb	r0, [r4, #0]
   122b6:	b918      	cbnz	r0, 122c0 <strchr+0x80>
   122b8:	e005      	b.n	122c6 <strchr+0x86>
   122ba:	f814 0f01 	ldrb.w	r0, [r4, #1]!
   122be:	b110      	cbz	r0, 122c6 <strchr+0x86>
   122c0:	4281      	cmp	r1, r0
   122c2:	d1fa      	bne.n	122ba <strchr+0x7a>
   122c4:	4620      	mov	r0, r4
   122c6:	bcf0      	pop	{r4, r5, r6, r7}
   122c8:	4770      	bx	lr
   122ca:	0783      	lsls	r3, r0, #30
   122cc:	d024      	beq.n	12318 <strchr+0xd8>
   122ce:	7803      	ldrb	r3, [r0, #0]
   122d0:	2b00      	cmp	r3, #0
   122d2:	d0f9      	beq.n	122c8 <strchr+0x88>
   122d4:	1c43      	adds	r3, r0, #1
   122d6:	e003      	b.n	122e0 <strchr+0xa0>
   122d8:	7802      	ldrb	r2, [r0, #0]
   122da:	3301      	adds	r3, #1
   122dc:	2a00      	cmp	r2, #0
   122de:	d0f3      	beq.n	122c8 <strchr+0x88>
   122e0:	0799      	lsls	r1, r3, #30
   122e2:	4618      	mov	r0, r3
   122e4:	d1f8      	bne.n	122d8 <strchr+0x98>
   122e6:	6819      	ldr	r1, [r3, #0]
   122e8:	f1a1 3201 	sub.w	r2, r1, #16843009	; 0x1010101
   122ec:	ea22 0201 	bic.w	r2, r2, r1
   122f0:	f012 3f80 	tst.w	r2, #2155905152	; 0x80808080
   122f4:	d108      	bne.n	12308 <strchr+0xc8>
   122f6:	f853 1f04 	ldr.w	r1, [r3, #4]!
   122fa:	f1a1 3201 	sub.w	r2, r1, #16843009	; 0x1010101
   122fe:	ea22 0201 	bic.w	r2, r2, r1
   12302:	f012 3f80 	tst.w	r2, #2155905152	; 0x80808080
   12306:	d0f6      	beq.n	122f6 <strchr+0xb6>
   12308:	781a      	ldrb	r2, [r3, #0]
   1230a:	4618      	mov	r0, r3
   1230c:	b142      	cbz	r2, 12320 <strchr+0xe0>
   1230e:	f810 3f01 	ldrb.w	r3, [r0, #1]!
   12312:	2b00      	cmp	r3, #0
   12314:	d1fb      	bne.n	1230e <strchr+0xce>
   12316:	4770      	bx	lr
   12318:	4603      	mov	r3, r0
   1231a:	e7e4      	b.n	122e6 <strchr+0xa6>
   1231c:	4604      	mov	r4, r0
   1231e:	e7a4      	b.n	1226a <strchr+0x2a>
   12320:	4618      	mov	r0, r3
   12322:	4770      	bx	lr
   12324:	4618      	mov	r0, r3
   12326:	e7ce      	b.n	122c6 <strchr+0x86>

00012328 <strcpy>:
   12328:	ea80 0201 	eor.w	r2, r0, r1
   1232c:	4684      	mov	ip, r0
   1232e:	f012 0f03 	tst.w	r2, #3
   12332:	d14f      	bne.n	123d4 <strcpy+0xac>
   12334:	f011 0f03 	tst.w	r1, #3
   12338:	d132      	bne.n	123a0 <strcpy+0x78>
   1233a:	f84d 4d04 	str.w	r4, [sp, #-4]!
   1233e:	f011 0f04 	tst.w	r1, #4
   12342:	f851 3b04 	ldr.w	r3, [r1], #4
   12346:	d00b      	beq.n	12360 <strcpy+0x38>
   12348:	f1a3 3201 	sub.w	r2, r3, #16843009	; 0x1010101
   1234c:	439a      	bics	r2, r3
   1234e:	f012 3f80 	tst.w	r2, #2155905152	; 0x80808080
   12352:	bf04      	itt	eq
   12354:	f84c 3b04 	streq.w	r3, [ip], #4
   12358:	f851 3b04 	ldreq.w	r3, [r1], #4
   1235c:	d116      	bne.n	1238c <strcpy+0x64>
   1235e:	bf00      	nop
   12360:	f851 4b04 	ldr.w	r4, [r1], #4
   12364:	f1a3 3201 	sub.w	r2, r3, #16843009	; 0x1010101
   12368:	439a      	bics	r2, r3
   1236a:	f012 3f80 	tst.w	r2, #2155905152	; 0x80808080
   1236e:	f1a4 3201 	sub.w	r2, r4, #16843009	; 0x1010101
   12372:	d10b      	bne.n	1238c <strcpy+0x64>
   12374:	f84c 3b04 	str.w	r3, [ip], #4
   12378:	43a2      	bics	r2, r4
   1237a:	f012 3f80 	tst.w	r2, #2155905152	; 0x80808080
   1237e:	bf04      	itt	eq
   12380:	f851 3b04 	ldreq.w	r3, [r1], #4
   12384:	f84c 4b04 	streq.w	r4, [ip], #4
   12388:	d0ea      	beq.n	12360 <strcpy+0x38>
   1238a:	4623      	mov	r3, r4
   1238c:	f80c 3b01 	strb.w	r3, [ip], #1
   12390:	f013 0fff 	tst.w	r3, #255	; 0xff
   12394:	ea4f 2333 	mov.w	r3, r3, ror #8
   12398:	d1f8      	bne.n	1238c <strcpy+0x64>
   1239a:	f85d 4b04 	ldr.w	r4, [sp], #4
   1239e:	4770      	bx	lr
   123a0:	f011 0f01 	tst.w	r1, #1
   123a4:	d006      	beq.n	123b4 <strcpy+0x8c>
   123a6:	f811 2b01 	ldrb.w	r2, [r1], #1
   123aa:	f80c 2b01 	strb.w	r2, [ip], #1
   123ae:	2a00      	cmp	r2, #0
   123b0:	bf08      	it	eq
   123b2:	4770      	bxeq	lr
   123b4:	f011 0f02 	tst.w	r1, #2
   123b8:	d0bf      	beq.n	1233a <strcpy+0x12>
   123ba:	f831 2b02 	ldrh.w	r2, [r1], #2
   123be:	f012 0fff 	tst.w	r2, #255	; 0xff
   123c2:	bf16      	itet	ne
   123c4:	f82c 2b02 	strhne.w	r2, [ip], #2
   123c8:	f88c 2000 	strbeq.w	r2, [ip]
   123cc:	f412 4f7f 	tstne.w	r2, #65280	; 0xff00
   123d0:	d1b3      	bne.n	1233a <strcpy+0x12>
   123d2:	4770      	bx	lr
   123d4:	f811 2b01 	ldrb.w	r2, [r1], #1
   123d8:	f80c 2b01 	strb.w	r2, [ip], #1
   123dc:	2a00      	cmp	r2, #0
   123de:	d1f9      	bne.n	123d4 <strcpy+0xac>
   123e0:	4770      	bx	lr
   123e2:	bf00      	nop

000123e4 <strlen>:
   123e4:	f020 0103 	bic.w	r1, r0, #3
   123e8:	f010 0003 	ands.w	r0, r0, #3
   123ec:	f1c0 0000 	rsb	r0, r0, #0
   123f0:	f851 3b04 	ldr.w	r3, [r1], #4
   123f4:	f100 0c04 	add.w	ip, r0, #4
   123f8:	ea4f 0ccc 	mov.w	ip, ip, lsl #3
   123fc:	f06f 0200 	mvn.w	r2, #0
   12400:	bf1c      	itt	ne
   12402:	fa22 f20c 	lsrne.w	r2, r2, ip
   12406:	4313      	orrne	r3, r2
   12408:	f04f 0c01 	mov.w	ip, #1
   1240c:	ea4c 2c0c 	orr.w	ip, ip, ip, lsl #8
   12410:	ea4c 4c0c 	orr.w	ip, ip, ip, lsl #16
   12414:	eba3 020c 	sub.w	r2, r3, ip
   12418:	ea22 0203 	bic.w	r2, r2, r3
   1241c:	ea12 12cc 	ands.w	r2, r2, ip, lsl #7
   12420:	bf04      	itt	eq
   12422:	f851 3b04 	ldreq.w	r3, [r1], #4
   12426:	3004      	addeq	r0, #4
   12428:	d0f4      	beq.n	12414 <strlen+0x30>
   1242a:	f1c2 0100 	rsb	r1, r2, #0
   1242e:	ea02 0201 	and.w	r2, r2, r1
   12432:	fab2 f282 	clz	r2, r2
   12436:	f1c2 021f 	rsb	r2, r2, #31
   1243a:	eb00 00d2 	add.w	r0, r0, r2, lsr #3
   1243e:	4770      	bx	lr

00012440 <strncpy>:
   12440:	2a03      	cmp	r2, #3
   12442:	ea40 0301 	orr.w	r3, r0, r1
   12446:	f3c3 0301 	ubfx	r3, r3, #0, #2
   1244a:	b470      	push	{r4, r5, r6}
   1244c:	bf94      	ite	ls
   1244e:	2400      	movls	r4, #0
   12450:	2401      	movhi	r4, #1
   12452:	2b00      	cmp	r3, #0
   12454:	4605      	mov	r5, r0
   12456:	bf18      	it	ne
   12458:	2400      	movne	r4, #0
   1245a:	b174      	cbz	r4, 1247a <strncpy+0x3a>
   1245c:	460e      	mov	r6, r1
   1245e:	f851 4b04 	ldr.w	r4, [r1], #4
   12462:	f1a4 3301 	sub.w	r3, r4, #16843009	; 0x1010101
   12466:	ea23 0304 	bic.w	r3, r3, r4
   1246a:	f013 3f80 	tst.w	r3, #2155905152	; 0x80808080
   1246e:	d11c      	bne.n	124aa <strncpy+0x6a>
   12470:	3a04      	subs	r2, #4
   12472:	f845 4b04 	str.w	r4, [r5], #4
   12476:	2a03      	cmp	r2, #3
   12478:	d8f0      	bhi.n	1245c <strncpy+0x1c>
   1247a:	b1a2      	cbz	r2, 124a6 <strncpy+0x66>
   1247c:	780c      	ldrb	r4, [r1, #0]
   1247e:	3a01      	subs	r2, #1
   12480:	1c6b      	adds	r3, r5, #1
   12482:	3101      	adds	r1, #1
   12484:	702c      	strb	r4, [r5, #0]
   12486:	b13c      	cbz	r4, 12498 <strncpy+0x58>
   12488:	b16a      	cbz	r2, 124a6 <strncpy+0x66>
   1248a:	f811 4b01 	ldrb.w	r4, [r1], #1
   1248e:	3a01      	subs	r2, #1
   12490:	f803 4b01 	strb.w	r4, [r3], #1
   12494:	2c00      	cmp	r4, #0
   12496:	d1f7      	bne.n	12488 <strncpy+0x48>
   12498:	b12a      	cbz	r2, 124a6 <strncpy+0x66>
   1249a:	441a      	add	r2, r3
   1249c:	2100      	movs	r1, #0
   1249e:	f803 1b01 	strb.w	r1, [r3], #1
   124a2:	429a      	cmp	r2, r3
   124a4:	d1fb      	bne.n	1249e <strncpy+0x5e>
   124a6:	bc70      	pop	{r4, r5, r6}
   124a8:	4770      	bx	lr
   124aa:	4631      	mov	r1, r6
   124ac:	e7e6      	b.n	1247c <strncpy+0x3c>
   124ae:	bf00      	nop

000124b0 <strnlen>:
   124b0:	b1d1      	cbz	r1, 124e8 <strnlen+0x38>
   124b2:	7803      	ldrb	r3, [r0, #0]
   124b4:	b1d3      	cbz	r3, 124ec <strnlen+0x3c>
   124b6:	1c43      	adds	r3, r0, #1
   124b8:	4401      	add	r1, r0
   124ba:	4299      	cmp	r1, r3
   124bc:	f103 0201 	add.w	r2, r3, #1
   124c0:	d016      	beq.n	124f0 <strnlen+0x40>
   124c2:	b410      	push	{r4}
   124c4:	781c      	ldrb	r4, [r3, #0]
   124c6:	b13c      	cbz	r4, 124d8 <strnlen+0x28>
   124c8:	4291      	cmp	r1, r2
   124ca:	4613      	mov	r3, r2
   124cc:	f102 0201 	add.w	r2, r2, #1
   124d0:	d006      	beq.n	124e0 <strnlen+0x30>
   124d2:	781c      	ldrb	r4, [r3, #0]
   124d4:	2c00      	cmp	r4, #0
   124d6:	d1f7      	bne.n	124c8 <strnlen+0x18>
   124d8:	1a18      	subs	r0, r3, r0
   124da:	f85d 4b04 	ldr.w	r4, [sp], #4
   124de:	4770      	bx	lr
   124e0:	1a08      	subs	r0, r1, r0
   124e2:	f85d 4b04 	ldr.w	r4, [sp], #4
   124e6:	4770      	bx	lr
   124e8:	4608      	mov	r0, r1
   124ea:	4770      	bx	lr
   124ec:	4618      	mov	r0, r3
   124ee:	4770      	bx	lr
   124f0:	1a08      	subs	r0, r1, r0
   124f2:	4770      	bx	lr

000124f4 <sulp>:
   124f4:	b570      	push	{r4, r5, r6, lr}
   124f6:	4604      	mov	r4, r0
   124f8:	460d      	mov	r5, r1
   124fa:	4616      	mov	r6, r2
   124fc:	ec45 4b10 	vmov	d0, r4, r5
   12500:	f002 fa9e 	bl	14a40 <__ulp>
   12504:	b17e      	cbz	r6, 12526 <sulp+0x32>
   12506:	f3c5 530a 	ubfx	r3, r5, #20, #11
   1250a:	f1c3 036b 	rsb	r3, r3, #107	; 0x6b
   1250e:	2b00      	cmp	r3, #0
   12510:	dd09      	ble.n	12526 <sulp+0x32>
   12512:	051b      	lsls	r3, r3, #20
   12514:	2000      	movs	r0, #0
   12516:	f103 517f 	add.w	r1, r3, #1069547520	; 0x3fc00000
   1251a:	f501 1140 	add.w	r1, r1, #3145728	; 0x300000
   1251e:	ec41 0b17 	vmov	d7, r0, r1
   12522:	ee20 0b07 	vmul.f64	d0, d0, d7
   12526:	bd70      	pop	{r4, r5, r6, pc}

00012528 <_strtod_l>:
   12528:	e92d 4ff0 	stmdb	sp!, {r4, r5, r6, r7, r8, r9, sl, fp, lr}
   1252c:	4681      	mov	r9, r0
   1252e:	ed2d 8b0c 	vpush	{d8-d13}
   12532:	4618      	mov	r0, r3
   12534:	468b      	mov	fp, r1
   12536:	4692      	mov	sl, r2
   12538:	461d      	mov	r5, r3
   1253a:	2300      	movs	r3, #0
   1253c:	2400      	movs	r4, #0
   1253e:	b09d      	sub	sp, #116	; 0x74
   12540:	9318      	str	r3, [sp, #96]	; 0x60
   12542:	f001 ff29 	bl	14398 <__localeconv_l>
   12546:	2300      	movs	r3, #0
   12548:	e9cd 3406 	strd	r3, r4, [sp, #24]
   1254c:	4602      	mov	r2, r0
   1254e:	6800      	ldr	r0, [r0, #0]
   12550:	9204      	str	r2, [sp, #16]
   12552:	f7ff ff47 	bl	123e4 <strlen>
   12556:	9a04      	ldr	r2, [sp, #16]
   12558:	4659      	mov	r1, fp
   1255a:	f8cd b05c 	str.w	fp, [sp, #92]	; 0x5c
   1255e:	4603      	mov	r3, r0
   12560:	4608      	mov	r0, r1
   12562:	f811 4b01 	ldrb.w	r4, [r1], #1
   12566:	2c2d      	cmp	r4, #45	; 0x2d
   12568:	f200 8131 	bhi.w	127ce <_strtod_l+0x2a6>
   1256c:	e8df f014 	tbh	[pc, r4, lsl #1]
   12570:	012f007f 	.word	0x012f007f
   12574:	012f012f 	.word	0x012f012f
   12578:	012f012f 	.word	0x012f012f
   1257c:	012f012f 	.word	0x012f012f
   12580:	00f9012f 	.word	0x00f9012f
   12584:	00f900f9 	.word	0x00f900f9
   12588:	00f900f9 	.word	0x00f900f9
   1258c:	012f012f 	.word	0x012f012f
   12590:	012f012f 	.word	0x012f012f
   12594:	012f012f 	.word	0x012f012f
   12598:	012f012f 	.word	0x012f012f
   1259c:	012f012f 	.word	0x012f012f
   125a0:	012f012f 	.word	0x012f012f
   125a4:	012f012f 	.word	0x012f012f
   125a8:	012f012f 	.word	0x012f012f
   125ac:	012f012f 	.word	0x012f012f
   125b0:	012f00f9 	.word	0x012f00f9
   125b4:	012f012f 	.word	0x012f012f
   125b8:	012f012f 	.word	0x012f012f
   125bc:	012f012f 	.word	0x012f012f
   125c0:	012f012f 	.word	0x012f012f
   125c4:	00a1012f 	.word	0x00a1012f
   125c8:	00f6012f 	.word	0x00f6012f
   125cc:	2200      	movs	r2, #0
   125ce:	920b      	str	r2, [sp, #44]	; 0x2c
   125d0:	f10b 0202 	add.w	r2, fp, #2
   125d4:	9217      	str	r2, [sp, #92]	; 0x5c
   125d6:	f89b 4002 	ldrb.w	r4, [fp, #2]
   125da:	f1a4 0230 	sub.w	r2, r4, #48	; 0x30
   125de:	2a09      	cmp	r2, #9
   125e0:	bf84      	itt	hi
   125e2:	f8cd b05c 	strhi.w	fp, [sp, #92]	; 0x5c
   125e6:	2200      	movhi	r2, #0
   125e8:	d836      	bhi.n	12658 <_strtod_l+0x130>
   125ea:	2c30      	cmp	r4, #48	; 0x30
   125ec:	d105      	bne.n	125fa <_strtod_l+0xd2>
   125ee:	9a17      	ldr	r2, [sp, #92]	; 0x5c
   125f0:	3201      	adds	r2, #1
   125f2:	9217      	str	r2, [sp, #92]	; 0x5c
   125f4:	7814      	ldrb	r4, [r2, #0]
   125f6:	2c30      	cmp	r4, #48	; 0x30
   125f8:	d0fa      	beq.n	125f0 <_strtod_l+0xc8>
   125fa:	f1a4 0231 	sub.w	r2, r4, #49	; 0x31
   125fe:	2a08      	cmp	r2, #8
   12600:	f200 8104 	bhi.w	1280c <_strtod_l+0x2e4>
   12604:	9a17      	ldr	r2, [sp, #92]	; 0x5c
   12606:	4611      	mov	r1, r2
   12608:	920d      	str	r2, [sp, #52]	; 0x34
   1260a:	f1a4 0230 	sub.w	r2, r4, #48	; 0x30
   1260e:	460c      	mov	r4, r1
   12610:	3101      	adds	r1, #1
   12612:	9117      	str	r1, [sp, #92]	; 0x5c
   12614:	7864      	ldrb	r4, [r4, #1]
   12616:	920c      	str	r2, [sp, #48]	; 0x30
   12618:	f1a4 0e30 	sub.w	lr, r4, #48	; 0x30
   1261c:	f1be 0f09 	cmp.w	lr, #9
   12620:	d80d      	bhi.n	1263e <_strtod_l+0x116>
   12622:	3101      	adds	r1, #1
   12624:	f04f 0e0a 	mov.w	lr, #10
   12628:	fb0e 4202 	mla	r2, lr, r2, r4
   1262c:	9117      	str	r1, [sp, #92]	; 0x5c
   1262e:	780c      	ldrb	r4, [r1, #0]
   12630:	f1a4 0e30 	sub.w	lr, r4, #48	; 0x30
   12634:	3a30      	subs	r2, #48	; 0x30
   12636:	f1be 0f09 	cmp.w	lr, #9
   1263a:	d9f2      	bls.n	12622 <_strtod_l+0xfa>
   1263c:	920c      	str	r2, [sp, #48]	; 0x30
   1263e:	9a0d      	ldr	r2, [sp, #52]	; 0x34
   12640:	f644 6e1f 	movw	lr, #19999	; 0x4e1f
   12644:	1a89      	subs	r1, r1, r2
   12646:	9a0c      	ldr	r2, [sp, #48]	; 0x30
   12648:	4572      	cmp	r2, lr
   1264a:	bfd8      	it	le
   1264c:	2908      	cmple	r1, #8
   1264e:	990b      	ldr	r1, [sp, #44]	; 0x2c
   12650:	bfc8      	it	gt
   12652:	4672      	movgt	r2, lr
   12654:	b101      	cbz	r1, 12658 <_strtod_l+0x130>
   12656:	4252      	negs	r2, r2
   12658:	2d00      	cmp	r5, #0
   1265a:	f040 80db 	bne.w	12814 <_strtod_l+0x2ec>
   1265e:	9a0a      	ldr	r2, [sp, #40]	; 0x28
   12660:	4313      	orrs	r3, r2
   12662:	f040 811c 	bne.w	1289e <_strtod_l+0x376>
   12666:	9b04      	ldr	r3, [sp, #16]
   12668:	2b00      	cmp	r3, #0
   1266a:	f000 82bf 	beq.w	12bec <_strtod_l+0x6c4>
   1266e:	ed9f 7bc6 	vldr	d7, [pc, #792]	; 12988 <_strtod_l+0x460>
   12672:	ed8d 7b04 	vstr	d7, [sp, #16]
   12676:	f1ba 0f00 	cmp.w	sl, #0
   1267a:	d006      	beq.n	1268a <_strtod_l+0x162>
   1267c:	465b      	mov	r3, fp
   1267e:	2200      	movs	r2, #0
   12680:	9209      	str	r2, [sp, #36]	; 0x24
   12682:	f8ca 3000 	str.w	r3, [sl]
   12686:	9b09      	ldr	r3, [sp, #36]	; 0x24
   12688:	b933      	cbnz	r3, 12698 <_strtod_l+0x170>
   1268a:	ed9d 0b04 	vldr	d0, [sp, #16]
   1268e:	b01d      	add	sp, #116	; 0x74
   12690:	ecbd 8b0c 	vpop	{d8-d13}
   12694:	e8bd 8ff0 	ldmia.w	sp!, {r4, r5, r6, r7, r8, r9, sl, fp, pc}
   12698:	ed9d 7b04 	vldr	d7, [sp, #16]
   1269c:	eeb1 7b47 	vneg.f64	d7, d7
   126a0:	ed8d 7b04 	vstr	d7, [sp, #16]
   126a4:	ed9d 0b04 	vldr	d0, [sp, #16]
   126a8:	b01d      	add	sp, #116	; 0x74
   126aa:	ecbd 8b0c 	vpop	{d8-d13}
   126ae:	e8bd 8ff0 	ldmia.w	sp!, {r4, r5, r6, r7, r8, r9, sl, fp, pc}
   126b2:	2100      	movs	r1, #0
   126b4:	9109      	str	r1, [sp, #36]	; 0x24
   126b6:	f100 0801 	add.w	r8, r0, #1
   126ba:	f8cd 805c 	str.w	r8, [sp, #92]	; 0x5c
   126be:	7844      	ldrb	r4, [r0, #1]
   126c0:	2c00      	cmp	r4, #0
   126c2:	d0d4      	beq.n	1266e <_strtod_l+0x146>
   126c4:	2c30      	cmp	r4, #48	; 0x30
   126c6:	bf1c      	itt	ne
   126c8:	2100      	movne	r1, #0
   126ca:	910a      	strne	r1, [sp, #40]	; 0x28
   126cc:	f000 8089 	beq.w	127e2 <_strtod_l+0x2ba>
   126d0:	f1a4 0130 	sub.w	r1, r4, #48	; 0x30
   126d4:	2909      	cmp	r1, #9
   126d6:	f200 8495 	bhi.w	13004 <_strtod_l+0xadc>
   126da:	2600      	movs	r6, #0
   126dc:	4640      	mov	r0, r8
   126de:	4637      	mov	r7, r6
   126e0:	4635      	mov	r5, r6
   126e2:	210a      	movs	r1, #10
   126e4:	fb01 4e06 	mla	lr, r1, r6, r4
   126e8:	3001      	adds	r0, #1
   126ea:	fb01 4407 	mla	r4, r1, r7, r4
   126ee:	2d08      	cmp	r5, #8
   126f0:	9017      	str	r0, [sp, #92]	; 0x5c
   126f2:	bfc8      	it	gt
   126f4:	f1ae 0630 	subgt.w	r6, lr, #48	; 0x30
   126f8:	f105 0501 	add.w	r5, r5, #1
   126fc:	bfd8      	it	le
   126fe:	f1a4 0730 	suble.w	r7, r4, #48	; 0x30
   12702:	7804      	ldrb	r4, [r0, #0]
   12704:	f1a4 0e30 	sub.w	lr, r4, #48	; 0x30
   12708:	f1be 0f09 	cmp.w	lr, #9
   1270c:	d9ea      	bls.n	126e4 <_strtod_l+0x1bc>
   1270e:	6811      	ldr	r1, [r2, #0]
   12710:	461a      	mov	r2, r3
   12712:	9304      	str	r3, [sp, #16]
   12714:	f002 fb06 	bl	14d24 <strncmp>
   12718:	9b04      	ldr	r3, [sp, #16]
   1271a:	b320      	cbz	r0, 12766 <_strtod_l+0x23e>
   1271c:	2300      	movs	r3, #0
   1271e:	46ac      	mov	ip, r5
   12720:	4618      	mov	r0, r3
   12722:	9304      	str	r3, [sp, #16]
   12724:	f024 0220 	bic.w	r2, r4, #32
   12728:	2a45      	cmp	r2, #69	; 0x45
   1272a:	d16f      	bne.n	1280c <_strtod_l+0x2e4>
   1272c:	990a      	ldr	r1, [sp, #40]	; 0x28
   1272e:	ea45 0203 	orr.w	r2, r5, r3
   12732:	430a      	orrs	r2, r1
   12734:	d09b      	beq.n	1266e <_strtod_l+0x146>
   12736:	f8dd b05c 	ldr.w	fp, [sp, #92]	; 0x5c
   1273a:	f10b 0201 	add.w	r2, fp, #1
   1273e:	9217      	str	r2, [sp, #92]	; 0x5c
   12740:	f89b 4001 	ldrb.w	r4, [fp, #1]
   12744:	2c2b      	cmp	r4, #43	; 0x2b
   12746:	f43f af41 	beq.w	125cc <_strtod_l+0xa4>
   1274a:	2c2d      	cmp	r4, #45	; 0x2d
   1274c:	bf15      	itete	ne
   1274e:	2200      	movne	r2, #0
   12750:	2201      	moveq	r2, #1
   12752:	920b      	strne	r2, [sp, #44]	; 0x2c
   12754:	920b      	streq	r2, [sp, #44]	; 0x2c
   12756:	f43f af3b 	beq.w	125d0 <_strtod_l+0xa8>
   1275a:	e73e      	b.n	125da <_strtod_l+0xb2>
   1275c:	2101      	movs	r1, #1
   1275e:	9109      	str	r1, [sp, #36]	; 0x24
   12760:	e7a9      	b.n	126b6 <_strtod_l+0x18e>
   12762:	9117      	str	r1, [sp, #92]	; 0x5c
   12764:	e6fc      	b.n	12560 <_strtod_l+0x38>
   12766:	9a17      	ldr	r2, [sp, #92]	; 0x5c
   12768:	46ac      	mov	ip, r5
   1276a:	18d1      	adds	r1, r2, r3
   1276c:	9117      	str	r1, [sp, #92]	; 0x5c
   1276e:	5cd4      	ldrb	r4, [r2, r3]
   12770:	4603      	mov	r3, r0
   12772:	f1a4 0230 	sub.w	r2, r4, #48	; 0x30
   12776:	2a09      	cmp	r2, #9
   12778:	f200 80b9 	bhi.w	128ee <_strtod_l+0x3c6>
   1277c:	1c59      	adds	r1, r3, #1
   1277e:	4696      	mov	lr, r2
   12780:	2a00      	cmp	r2, #0
   12782:	f000 8614 	beq.w	133ae <_strtod_l+0xe86>
   12786:	2901      	cmp	r1, #1
   12788:	4408      	add	r0, r1
   1278a:	bf1c      	itt	ne
   1278c:	195b      	addne	r3, r3, r5
   1278e:	210a      	movne	r1, #10
   12790:	d102      	bne.n	12798 <_strtod_l+0x270>
   12792:	f000 be1a 	b.w	133ca <_strtod_l+0xea2>
   12796:	4625      	mov	r5, r4
   12798:	2d08      	cmp	r5, #8
   1279a:	f105 0401 	add.w	r4, r5, #1
   1279e:	bfd8      	it	le
   127a0:	434f      	mulle	r7, r1
   127a2:	dd02      	ble.n	127aa <_strtod_l+0x282>
   127a4:	2c10      	cmp	r4, #16
   127a6:	bfd8      	it	le
   127a8:	434e      	mulle	r6, r1
   127aa:	429c      	cmp	r4, r3
   127ac:	d1f3      	bne.n	12796 <_strtod_l+0x26e>
   127ae:	9917      	ldr	r1, [sp, #92]	; 0x5c
   127b0:	3502      	adds	r5, #2
   127b2:	2c08      	cmp	r4, #8
   127b4:	f340 8495 	ble.w	130e2 <_strtod_l+0xbba>
   127b8:	2d10      	cmp	r5, #16
   127ba:	bfdd      	ittte	le
   127bc:	240a      	movle	r4, #10
   127be:	2300      	movle	r3, #0
   127c0:	fb04 2606 	mlale	r6, r4, r6, r2
   127c4:	2300      	movgt	r3, #0
   127c6:	1c4a      	adds	r2, r1, #1
   127c8:	9217      	str	r2, [sp, #92]	; 0x5c
   127ca:	784c      	ldrb	r4, [r1, #1]
   127cc:	e7d1      	b.n	12772 <_strtod_l+0x24a>
   127ce:	2c30      	cmp	r4, #48	; 0x30
   127d0:	f04f 0100 	mov.w	r1, #0
   127d4:	4680      	mov	r8, r0
   127d6:	9109      	str	r1, [sp, #36]	; 0x24
   127d8:	bf1c      	itt	ne
   127da:	2100      	movne	r1, #0
   127dc:	910a      	strne	r1, [sp, #40]	; 0x28
   127de:	f47f af77 	bne.w	126d0 <_strtod_l+0x1a8>
   127e2:	f898 1001 	ldrb.w	r1, [r8, #1]
   127e6:	2958      	cmp	r1, #88	; 0x58
   127e8:	f000 82e8 	beq.w	12dbc <_strtod_l+0x894>
   127ec:	2978      	cmp	r1, #120	; 0x78
   127ee:	bf18      	it	ne
   127f0:	4641      	movne	r1, r8
   127f2:	f000 82e3 	beq.w	12dbc <_strtod_l+0x894>
   127f6:	3101      	adds	r1, #1
   127f8:	9117      	str	r1, [sp, #92]	; 0x5c
   127fa:	780c      	ldrb	r4, [r1, #0]
   127fc:	2c30      	cmp	r4, #48	; 0x30
   127fe:	d0fa      	beq.n	127f6 <_strtod_l+0x2ce>
   12800:	4688      	mov	r8, r1
   12802:	2c00      	cmp	r4, #0
   12804:	d04b      	beq.n	1289e <_strtod_l+0x376>
   12806:	2101      	movs	r1, #1
   12808:	910a      	str	r1, [sp, #40]	; 0x28
   1280a:	e761      	b.n	126d0 <_strtod_l+0x1a8>
   1280c:	2200      	movs	r2, #0
   1280e:	2d00      	cmp	r5, #0
   12810:	f43f af25 	beq.w	1265e <_strtod_l+0x136>
   12814:	ee07 7a90 	vmov	s15, r7
   12818:	2d10      	cmp	r5, #16
   1281a:	eba2 0400 	sub.w	r4, r2, r0
   1281e:	462b      	mov	r3, r5
   12820:	eeb8 7b67 	vcvt.f64.u32	d7, s15
   12824:	bfa8      	it	ge
   12826:	2310      	movge	r3, #16
   12828:	f1bc 0f00 	cmp.w	ip, #0
   1282c:	bf08      	it	eq
   1282e:	46ac      	moveq	ip, r5
   12830:	2b09      	cmp	r3, #9
   12832:	ed8d 7b04 	vstr	d7, [sp, #16]
   12836:	e9dd 1204 	ldrd	r1, r2, [sp, #16]
   1283a:	e9cd 1206 	strd	r1, r2, [sp, #24]
   1283e:	dd11      	ble.n	12864 <_strtod_l+0x33c>
   12840:	ee07 6a90 	vmov	s15, r6
   12844:	f247 0280 	movw	r2, #28800	; 0x7080
   12848:	f2c0 0201 	movt	r2, #1
   1284c:	ed9d 5b04 	vldr	d5, [sp, #16]
   12850:	eb02 02c3 	add.w	r2, r2, r3, lsl #3
   12854:	eeb8 7b67 	vcvt.f64.u32	d7, s15
   12858:	ed12 6b12 	vldr	d6, [r2, #-72]	; 0xffffffb8
   1285c:	ee05 7b06 	vmla.f64	d7, d5, d6
   12860:	ed8d 7b06 	vstr	d7, [sp, #24]
   12864:	2d0f      	cmp	r5, #15
   12866:	dc45      	bgt.n	128f4 <_strtod_l+0x3cc>
   12868:	2c00      	cmp	r4, #0
   1286a:	d03b      	beq.n	128e4 <_strtod_l+0x3bc>
   1286c:	f340 846e 	ble.w	1314c <_strtod_l+0xc24>
   12870:	2c16      	cmp	r4, #22
   12872:	f300 844d 	bgt.w	13110 <_strtod_l+0xbe8>
   12876:	f247 0380 	movw	r3, #28800	; 0x7080
   1287a:	f2c0 0301 	movt	r3, #1
   1287e:	eb03 03c4 	add.w	r3, r3, r4, lsl #3
   12882:	ed9d 6b06 	vldr	d6, [sp, #24]
   12886:	ed93 7b00 	vldr	d7, [r3]
   1288a:	ee27 7b06 	vmul.f64	d7, d7, d6
   1288e:	ed8d 7b04 	vstr	d7, [sp, #16]
   12892:	f1ba 0f00 	cmp.w	sl, #0
   12896:	f43f aef6 	beq.w	12686 <_strtod_l+0x15e>
   1289a:	9b17      	ldr	r3, [sp, #92]	; 0x5c
   1289c:	e6f1      	b.n	12682 <_strtod_l+0x15a>
   1289e:	ed9f 7b3a 	vldr	d7, [pc, #232]	; 12988 <_strtod_l+0x460>
   128a2:	ed8d 7b04 	vstr	d7, [sp, #16]
   128a6:	e7f4      	b.n	12892 <_strtod_l+0x36a>
   128a8:	f646 51ec 	movw	r1, #28140	; 0x6dec
   128ac:	a817      	add	r0, sp, #92	; 0x5c
   128ae:	f2c0 0101 	movt	r1, #1
   128b2:	f001 fc8f 	bl	141d4 <__match>
   128b6:	2800      	cmp	r0, #0
   128b8:	f43f aed9 	beq.w	1266e <_strtod_l+0x146>
   128bc:	9b17      	ldr	r3, [sp, #92]	; 0x5c
   128be:	f646 51f0 	movw	r1, #28144	; 0x6df0
   128c2:	a817      	add	r0, sp, #92	; 0x5c
   128c4:	f2c0 0101 	movt	r1, #1
   128c8:	3b01      	subs	r3, #1
   128ca:	9317      	str	r3, [sp, #92]	; 0x5c
   128cc:	f001 fc82 	bl	141d4 <__match>
   128d0:	b910      	cbnz	r0, 128d8 <_strtod_l+0x3b0>
   128d2:	9b17      	ldr	r3, [sp, #92]	; 0x5c
   128d4:	3301      	adds	r3, #1
   128d6:	9317      	str	r3, [sp, #92]	; 0x5c
   128d8:	2300      	movs	r3, #0
   128da:	f6c7 73f0 	movt	r3, #32752	; 0x7ff0
   128de:	9307      	str	r3, [sp, #28]
   128e0:	2300      	movs	r3, #0
   128e2:	9306      	str	r3, [sp, #24]
   128e4:	ed9d 7b06 	vldr	d7, [sp, #24]
   128e8:	ed8d 7b04 	vstr	d7, [sp, #16]
   128ec:	e7d1      	b.n	12892 <_strtod_l+0x36a>
   128ee:	2201      	movs	r2, #1
   128f0:	9204      	str	r2, [sp, #16]
   128f2:	e717      	b.n	12724 <_strtod_l+0x1fc>
   128f4:	1aeb      	subs	r3, r5, r3
   128f6:	4423      	add	r3, r4
   128f8:	2b00      	cmp	r3, #0
   128fa:	f340 832e 	ble.w	12f5a <_strtod_l+0xa32>
   128fe:	f013 010f 	ands.w	r1, r3, #15
   12902:	d00d      	beq.n	12920 <_strtod_l+0x3f8>
   12904:	f247 0280 	movw	r2, #28800	; 0x7080
   12908:	f2c0 0201 	movt	r2, #1
   1290c:	eb02 02c1 	add.w	r2, r2, r1, lsl #3
   12910:	ed9d 6b06 	vldr	d6, [sp, #24]
   12914:	ed92 7b00 	vldr	d7, [r2]
   12918:	ee27 7b06 	vmul.f64	d7, d7, d6
   1291c:	ed8d 7b06 	vstr	d7, [sp, #24]
   12920:	f033 030f 	bics.w	r3, r3, #15
   12924:	f040 81b6 	bne.w	12c94 <_strtod_l+0x76c>
   12928:	2300      	movs	r3, #0
   1292a:	930a      	str	r3, [sp, #40]	; 0x28
   1292c:	9700      	str	r7, [sp, #0]
   1292e:	462b      	mov	r3, r5
   12930:	4662      	mov	r2, ip
   12932:	4641      	mov	r1, r8
   12934:	4648      	mov	r0, r9
   12936:	f001 fdf7 	bl	14528 <__s2b>
   1293a:	9012      	str	r0, [sp, #72]	; 0x48
   1293c:	2800      	cmp	r0, #0
   1293e:	f000 8264 	beq.w	12e0a <_strtod_l+0x8e2>
   12942:	2c00      	cmp	r4, #0
   12944:	f04f 0800 	mov.w	r8, #0
   12948:	f1c4 0300 	rsb	r3, r4, #0
   1294c:	ea24 71e4 	bic.w	r1, r4, r4, asr #31
   12950:	bfa8      	it	ge
   12952:	2300      	movge	r3, #0
   12954:	910b      	str	r1, [sp, #44]	; 0x2c
   12956:	930c      	str	r3, [sp, #48]	; 0x30
   12958:	f64f 31e2 	movw	r1, #64482	; 0xfbe2
   1295c:	f64f 4302 	movw	r3, #64514	; 0xfc02
   12960:	f6cf 71ff 	movt	r1, #65535	; 0xffff
   12964:	f6cf 73ff 	movt	r3, #65535	; 0xffff
   12968:	eeb0 9b00 	vmov.f64	d9, #0	; 0x40000000  2.0
   1296c:	930d      	str	r3, [sp, #52]	; 0x34
   1296e:	4645      	mov	r5, r8
   12970:	9113      	str	r1, [sp, #76]	; 0x4c
   12972:	4683      	mov	fp, r0
   12974:	f8cd a044 	str.w	sl, [sp, #68]	; 0x44
   12978:	eeb6 bb00 	vmov.f64	d11, #96	; 0x3f000000  0.5
   1297c:	eeb7 ab00 	vmov.f64	d10, #112	; 0x3f800000  1.0
   12980:	e0ee      	b.n	12b60 <_strtod_l+0x638>
   12982:	bf00      	nop
   12984:	f3af 8000 	nop.w
	...
   12990:	ffc00000 	.word	0xffc00000
   12994:	41dfffff 	.word	0x41dfffff
   12998:	1a89      	subs	r1, r1, r2
   1299a:	291f      	cmp	r1, #31
   1299c:	eba4 0401 	sub.w	r4, r4, r1
   129a0:	f300 81ee 	bgt.w	12d80 <_strtod_l+0x858>
   129a4:	2201      	movs	r2, #1
   129a6:	2300      	movs	r3, #0
   129a8:	930f      	str	r3, [sp, #60]	; 0x3c
   129aa:	fa02 f301 	lsl.w	r3, r2, r1
   129ae:	930e      	str	r3, [sp, #56]	; 0x38
   129b0:	4426      	add	r6, r4
   129b2:	9b0a      	ldr	r3, [sp, #40]	; 0x28
   129b4:	4454      	add	r4, sl
   129b6:	4652      	mov	r2, sl
   129b8:	45a2      	cmp	sl, r4
   129ba:	441e      	add	r6, r3
   129bc:	9b0c      	ldr	r3, [sp, #48]	; 0x30
   129be:	bfa8      	it	ge
   129c0:	4622      	movge	r2, r4
   129c2:	42b2      	cmp	r2, r6
   129c4:	bfa8      	it	ge
   129c6:	4632      	movge	r2, r6
   129c8:	2a00      	cmp	r2, #0
   129ca:	bfc2      	ittt	gt
   129cc:	1aa4      	subgt	r4, r4, r2
   129ce:	1ab6      	subgt	r6, r6, r2
   129d0:	ebaa 0a02 	subgt.w	sl, sl, r2
   129d4:	b1bb      	cbz	r3, 12a06 <_strtod_l+0x4de>
   129d6:	4629      	mov	r1, r5
   129d8:	461a      	mov	r2, r3
   129da:	4648      	mov	r0, r9
   129dc:	f001 fee2 	bl	147a4 <__pow5mult>
   129e0:	4605      	mov	r5, r0
   129e2:	2800      	cmp	r0, #0
   129e4:	f000 824d 	beq.w	12e82 <_strtod_l+0x95a>
   129e8:	4601      	mov	r1, r0
   129ea:	9a18      	ldr	r2, [sp, #96]	; 0x60
   129ec:	4648      	mov	r0, r9
   129ee:	f001 fe41 	bl	14674 <__multiply>
   129f2:	2800      	cmp	r0, #0
   129f4:	f000 8245 	beq.w	12e82 <_strtod_l+0x95a>
   129f8:	9010      	str	r0, [sp, #64]	; 0x40
   129fa:	4648      	mov	r0, r9
   129fc:	9918      	ldr	r1, [sp, #96]	; 0x60
   129fe:	f001 fd45 	bl	1448c <_Bfree>
   12a02:	9a10      	ldr	r2, [sp, #64]	; 0x40
   12a04:	9218      	str	r2, [sp, #96]	; 0x60
   12a06:	2c00      	cmp	r4, #0
   12a08:	dd08      	ble.n	12a1c <_strtod_l+0x4f4>
   12a0a:	4622      	mov	r2, r4
   12a0c:	9918      	ldr	r1, [sp, #96]	; 0x60
   12a0e:	4648      	mov	r0, r9
   12a10:	f001 ff1a 	bl	14848 <__lshift>
   12a14:	9018      	str	r0, [sp, #96]	; 0x60
   12a16:	2800      	cmp	r0, #0
   12a18:	f000 83ac 	beq.w	13174 <_strtod_l+0xc4c>
   12a1c:	9b0b      	ldr	r3, [sp, #44]	; 0x2c
   12a1e:	b143      	cbz	r3, 12a32 <_strtod_l+0x50a>
   12a20:	4639      	mov	r1, r7
   12a22:	9a0b      	ldr	r2, [sp, #44]	; 0x2c
   12a24:	4648      	mov	r0, r9
   12a26:	f001 febd 	bl	147a4 <__pow5mult>
   12a2a:	4607      	mov	r7, r0
   12a2c:	2800      	cmp	r0, #0
   12a2e:	f000 8228 	beq.w	12e82 <_strtod_l+0x95a>
   12a32:	2e00      	cmp	r6, #0
   12a34:	dd08      	ble.n	12a48 <_strtod_l+0x520>
   12a36:	4639      	mov	r1, r7
   12a38:	4632      	mov	r2, r6
   12a3a:	4648      	mov	r0, r9
   12a3c:	f001 ff04 	bl	14848 <__lshift>
   12a40:	4607      	mov	r7, r0
   12a42:	2800      	cmp	r0, #0
   12a44:	f000 821d 	beq.w	12e82 <_strtod_l+0x95a>
   12a48:	f1ba 0f00 	cmp.w	sl, #0
   12a4c:	dd08      	ble.n	12a60 <_strtod_l+0x538>
   12a4e:	4629      	mov	r1, r5
   12a50:	4652      	mov	r2, sl
   12a52:	4648      	mov	r0, r9
   12a54:	f001 fef8 	bl	14848 <__lshift>
   12a58:	4605      	mov	r5, r0
   12a5a:	2800      	cmp	r0, #0
   12a5c:	f000 8211 	beq.w	12e82 <_strtod_l+0x95a>
   12a60:	463a      	mov	r2, r7
   12a62:	9918      	ldr	r1, [sp, #96]	; 0x60
   12a64:	4648      	mov	r0, r9
   12a66:	f001 ff5d 	bl	14924 <__mdiff>
   12a6a:	4680      	mov	r8, r0
   12a6c:	2800      	cmp	r0, #0
   12a6e:	f000 8208 	beq.w	12e82 <_strtod_l+0x95a>
   12a72:	68c4      	ldr	r4, [r0, #12]
   12a74:	2300      	movs	r3, #0
   12a76:	4629      	mov	r1, r5
   12a78:	60c3      	str	r3, [r0, #12]
   12a7a:	f001 ff37 	bl	148ec <__mcmp>
   12a7e:	2800      	cmp	r0, #0
   12a80:	f2c0 83be 	blt.w	13200 <_strtod_l+0xcd8>
   12a84:	f000 8379 	beq.w	1317a <_strtod_l+0xc52>
   12a88:	4629      	mov	r1, r5
   12a8a:	4640      	mov	r0, r8
   12a8c:	f002 f8c2 	bl	14c14 <__ratio>
   12a90:	eeb4 0bc9 	vcmpe.f64	d0, d9
   12a94:	eef1 fa10 	vmrs	APSR_nzcv, fpscr
   12a98:	f200 8166 	bhi.w	12d68 <_strtod_l+0x840>
   12a9c:	2c00      	cmp	r4, #0
   12a9e:	f000 8177 	beq.w	12d90 <_strtod_l+0x868>
   12aa2:	eeb0 8b4a 	vmov.f64	d8, d10
   12aa6:	f8dd e01c 	ldr.w	lr, [sp, #28]
   12aaa:	2300      	movs	r3, #0
   12aac:	f6c3 73f0 	movt	r3, #16368	; 0x3ff0
   12ab0:	2200      	movs	r2, #0
   12ab2:	2100      	movs	r1, #0
   12ab4:	f6c7 71f0 	movt	r1, #32752	; 0x7ff0
   12ab8:	ea0e 0601 	and.w	r6, lr, r1
   12abc:	2000      	movs	r0, #0
   12abe:	f6c7 70e0 	movt	r0, #32736	; 0x7fe0
   12ac2:	4286      	cmp	r6, r0
   12ac4:	f000 81ab 	beq.w	12e1e <_strtod_l+0x8f6>
   12ac8:	990a      	ldr	r1, [sp, #40]	; 0x28
   12aca:	3100      	adds	r1, #0
   12acc:	bf18      	it	ne
   12ace:	2101      	movne	r1, #1
   12ad0:	f1b6 6fd4 	cmp.w	r6, #111149056	; 0x6a00000
   12ad4:	bf88      	it	hi
   12ad6:	2100      	movhi	r1, #0
   12ad8:	b1c9      	cbz	r1, 12b0e <_strtod_l+0x5e6>
   12ada:	ed1f 7b53 	vldr	d7, [pc, #-332]	; 12990 <_strtod_l+0x468>
   12ade:	eeb4 8bc7 	vcmpe.f64	d8, d7
   12ae2:	eef1 fa10 	vmrs	APSR_nzcv, fpscr
   12ae6:	d80f      	bhi.n	12b08 <_strtod_l+0x5e0>
   12ae8:	eebc 8bc8 	vcvt.u32.f64	s16, d8
   12aec:	ee18 3a10 	vmov	r3, s16
   12af0:	2b00      	cmp	r3, #0
   12af2:	f000 822f 	beq.w	12f54 <_strtod_l+0xa2c>
   12af6:	eeb8 8b48 	vcvt.f64.u32	d8, s16
   12afa:	ec53 2b18 	vmov	r2, r3, d8
   12afe:	b91c      	cbnz	r4, 12b08 <_strtod_l+0x5e0>
   12b00:	eeb1 7b48 	vneg.f64	d7, d8
   12b04:	ec53 2b17 	vmov	r2, r3, d7
   12b08:	f103 61d6 	add.w	r1, r3, #112197632	; 0x6b00000
   12b0c:	1b8b      	subs	r3, r1, r6
   12b0e:	ed9d 0b04 	vldr	d0, [sp, #16]
   12b12:	ec43 2b1c 	vmov	d12, r2, r3
   12b16:	f001 ff93 	bl	14a40 <__ulp>
   12b1a:	ed9d 7b04 	vldr	d7, [sp, #16]
   12b1e:	ee0c 7b00 	vmla.f64	d7, d12, d0
   12b22:	ec53 2b17 	vmov	r2, r3, d7
   12b26:	e9cd 2306 	strd	r2, r3, [sp, #24]
   12b2a:	461a      	mov	r2, r3
   12b2c:	2300      	movs	r3, #0
   12b2e:	990a      	ldr	r1, [sp, #40]	; 0x28
   12b30:	f6c7 73f0 	movt	r3, #32752	; 0x7ff0
   12b34:	4013      	ands	r3, r2
   12b36:	42b3      	cmp	r3, r6
   12b38:	bf08      	it	eq
   12b3a:	2900      	cmpeq	r1, #0
   12b3c:	f000 81c6 	beq.w	12ecc <_strtod_l+0x9a4>
   12b40:	9918      	ldr	r1, [sp, #96]	; 0x60
   12b42:	4648      	mov	r0, r9
   12b44:	f001 fca2 	bl	1448c <_Bfree>
   12b48:	4639      	mov	r1, r7
   12b4a:	4648      	mov	r0, r9
   12b4c:	f001 fc9e 	bl	1448c <_Bfree>
   12b50:	4629      	mov	r1, r5
   12b52:	4648      	mov	r0, r9
   12b54:	f001 fc9a 	bl	1448c <_Bfree>
   12b58:	4641      	mov	r1, r8
   12b5a:	4648      	mov	r0, r9
   12b5c:	f001 fc96 	bl	1448c <_Bfree>
   12b60:	f8db 1004 	ldr.w	r1, [fp, #4]
   12b64:	4648      	mov	r0, r9
   12b66:	f001 fc6b 	bl	14440 <_Balloc>
   12b6a:	4607      	mov	r7, r0
   12b6c:	2800      	cmp	r0, #0
   12b6e:	f000 8188 	beq.w	12e82 <_strtod_l+0x95a>
   12b72:	f8db 2010 	ldr.w	r2, [fp, #16]
   12b76:	f10b 010c 	add.w	r1, fp, #12
   12b7a:	ed9d 7b06 	vldr	d7, [sp, #24]
   12b7e:	300c      	adds	r0, #12
   12b80:	3202      	adds	r2, #2
   12b82:	0092      	lsls	r2, r2, #2
   12b84:	ed8d 7b04 	vstr	d7, [sp, #16]
   12b88:	f7ff fa84 	bl	12094 <memcpy>
   12b8c:	aa1a      	add	r2, sp, #104	; 0x68
   12b8e:	a919      	add	r1, sp, #100	; 0x64
   12b90:	4648      	mov	r0, r9
   12b92:	ed9d 0b04 	vldr	d0, [sp, #16]
   12b96:	f001 ffdf 	bl	14b58 <__d2b>
   12b9a:	9018      	str	r0, [sp, #96]	; 0x60
   12b9c:	2800      	cmp	r0, #0
   12b9e:	f000 82e9 	beq.w	13174 <_strtod_l+0xc4c>
   12ba2:	2101      	movs	r1, #1
   12ba4:	4648      	mov	r0, r9
   12ba6:	f001 fd5b 	bl	14660 <__i2b>
   12baa:	4605      	mov	r5, r0
   12bac:	2800      	cmp	r0, #0
   12bae:	f000 8168 	beq.w	12e82 <_strtod_l+0x95a>
   12bb2:	9a19      	ldr	r2, [sp, #100]	; 0x64
   12bb4:	9c1a      	ldr	r4, [sp, #104]	; 0x68
   12bb6:	2a00      	cmp	r2, #0
   12bb8:	990d      	ldr	r1, [sp, #52]	; 0x34
   12bba:	bfa9      	itett	ge
   12bbc:	9b0c      	ldrge	r3, [sp, #48]	; 0x30
   12bbe:	9b0b      	ldrlt	r3, [sp, #44]	; 0x2c
   12bc0:	eb03 0a02 	addge.w	sl, r3, r2
   12bc4:	9e0b      	ldrge	r6, [sp, #44]	; 0x2c
   12bc6:	bfb8      	it	lt
   12bc8:	1a9e      	sublt	r6, r3, r2
   12bca:	9b0a      	ldr	r3, [sp, #40]	; 0x28
   12bcc:	bfb8      	it	lt
   12bce:	f8dd a030 	ldrlt.w	sl, [sp, #48]	; 0x30
   12bd2:	1ad2      	subs	r2, r2, r3
   12bd4:	4422      	add	r2, r4
   12bd6:	f1c4 0436 	rsb	r4, r4, #54	; 0x36
   12bda:	3a01      	subs	r2, #1
   12bdc:	428a      	cmp	r2, r1
   12bde:	f6ff aedb 	blt.w	12998 <_strtod_l+0x470>
   12be2:	2300      	movs	r3, #0
   12be4:	930f      	str	r3, [sp, #60]	; 0x3c
   12be6:	2301      	movs	r3, #1
   12be8:	930e      	str	r3, [sp, #56]	; 0x38
   12bea:	e6e1      	b.n	129b0 <_strtod_l+0x488>
   12bec:	3c49      	subs	r4, #73	; 0x49
   12bee:	2c25      	cmp	r4, #37	; 0x25
   12bf0:	f63f ad3d 	bhi.w	1266e <_strtod_l+0x146>
   12bf4:	a301      	add	r3, pc, #4	; (adr r3, 12bfc <_strtod_l+0x6d4>)
   12bf6:	f853 f024 	ldr.w	pc, [r3, r4, lsl #2]
   12bfa:	bf00      	nop
   12bfc:	000128a9 	.word	0x000128a9
   12c00:	0001266f 	.word	0x0001266f
   12c04:	0001266f 	.word	0x0001266f
   12c08:	0001266f 	.word	0x0001266f
   12c0c:	0001266f 	.word	0x0001266f
   12c10:	00012d3d 	.word	0x00012d3d
   12c14:	0001266f 	.word	0x0001266f
   12c18:	0001266f 	.word	0x0001266f
   12c1c:	0001266f 	.word	0x0001266f
   12c20:	0001266f 	.word	0x0001266f
   12c24:	0001266f 	.word	0x0001266f
   12c28:	0001266f 	.word	0x0001266f
   12c2c:	0001266f 	.word	0x0001266f
   12c30:	0001266f 	.word	0x0001266f
   12c34:	0001266f 	.word	0x0001266f
   12c38:	0001266f 	.word	0x0001266f
   12c3c:	0001266f 	.word	0x0001266f
   12c40:	0001266f 	.word	0x0001266f
   12c44:	0001266f 	.word	0x0001266f
   12c48:	0001266f 	.word	0x0001266f
   12c4c:	0001266f 	.word	0x0001266f
   12c50:	0001266f 	.word	0x0001266f
   12c54:	0001266f 	.word	0x0001266f
   12c58:	0001266f 	.word	0x0001266f
   12c5c:	0001266f 	.word	0x0001266f
   12c60:	0001266f 	.word	0x0001266f
   12c64:	0001266f 	.word	0x0001266f
   12c68:	0001266f 	.word	0x0001266f
   12c6c:	0001266f 	.word	0x0001266f
   12c70:	0001266f 	.word	0x0001266f
   12c74:	0001266f 	.word	0x0001266f
   12c78:	0001266f 	.word	0x0001266f
   12c7c:	000128a9 	.word	0x000128a9
   12c80:	0001266f 	.word	0x0001266f
   12c84:	0001266f 	.word	0x0001266f
   12c88:	0001266f 	.word	0x0001266f
   12c8c:	0001266f 	.word	0x0001266f
   12c90:	00012d3d 	.word	0x00012d3d
   12c94:	f5b3 7f9a 	cmp.w	r3, #308	; 0x134
   12c98:	f300 80b7 	bgt.w	12e0a <_strtod_l+0x8e2>
   12c9c:	111b      	asrs	r3, r3, #4
   12c9e:	f247 0658 	movw	r6, #28760	; 0x7058
   12ca2:	2b01      	cmp	r3, #1
   12ca4:	f2c0 0601 	movt	r6, #1
   12ca8:	f340 82f7 	ble.w	1329a <_strtod_l+0xd72>
   12cac:	ed9d 7b06 	vldr	d7, [sp, #24]
   12cb0:	2000      	movs	r0, #0
   12cb2:	4632      	mov	r2, r6
   12cb4:	4601      	mov	r1, r0
   12cb6:	ed8d 7b04 	vstr	d7, [sp, #16]
   12cba:	f013 0f01 	tst.w	r3, #1
   12cbe:	f101 0101 	add.w	r1, r1, #1
   12cc2:	ea4f 0363 	mov.w	r3, r3, asr #1
   12cc6:	d008      	beq.n	12cda <_strtod_l+0x7b2>
   12cc8:	ed9d 6b04 	vldr	d6, [sp, #16]
   12ccc:	2001      	movs	r0, #1
   12cce:	ed92 7b00 	vldr	d7, [r2]
   12cd2:	ee26 7b07 	vmul.f64	d7, d6, d7
   12cd6:	ed8d 7b04 	vstr	d7, [sp, #16]
   12cda:	2b01      	cmp	r3, #1
   12cdc:	f102 0208 	add.w	r2, r2, #8
   12ce0:	d1eb      	bne.n	12cba <_strtod_l+0x792>
   12ce2:	2800      	cmp	r0, #0
   12ce4:	f040 836c 	bne.w	133c0 <_strtod_l+0xe98>
   12ce8:	9b07      	ldr	r3, [sp, #28]
   12cea:	eb06 01c1 	add.w	r1, r6, r1, lsl #3
   12cee:	2200      	movs	r2, #0
   12cf0:	f6c7 42a0 	movt	r2, #31904	; 0x7ca0
   12cf4:	f1a3 7354 	sub.w	r3, r3, #55574528	; 0x3500000
   12cf8:	9307      	str	r3, [sp, #28]
   12cfa:	ed91 7b00 	vldr	d7, [r1]
   12cfe:	ed9d 6b06 	vldr	d6, [sp, #24]
   12d02:	ee27 7b06 	vmul.f64	d7, d7, d6
   12d06:	ec51 0b17 	vmov	r0, r1, d7
   12d0a:	f021 4300 	bic.w	r3, r1, #2147483648	; 0x80000000
   12d0e:	e9cd 0106 	strd	r0, r1, [sp, #24]
   12d12:	0d1b      	lsrs	r3, r3, #20
   12d14:	051b      	lsls	r3, r3, #20
   12d16:	4293      	cmp	r3, r2
   12d18:	d877      	bhi.n	12e0a <_strtod_l+0x8e2>
   12d1a:	2200      	movs	r2, #0
   12d1c:	f6c7 4290 	movt	r2, #31888	; 0x7c90
   12d20:	4293      	cmp	r3, r2
   12d22:	f240 829c 	bls.w	1325e <_strtod_l+0xd36>
   12d26:	f64f 73ff 	movw	r3, #65535	; 0xffff
   12d2a:	f6c7 73ef 	movt	r3, #32751	; 0x7fef
   12d2e:	9307      	str	r3, [sp, #28]
   12d30:	2300      	movs	r3, #0
   12d32:	930a      	str	r3, [sp, #40]	; 0x28
   12d34:	f04f 33ff 	mov.w	r3, #4294967295
   12d38:	9306      	str	r3, [sp, #24]
   12d3a:	e5f7      	b.n	1292c <_strtod_l+0x404>
   12d3c:	f646 51f8 	movw	r1, #28152	; 0x6df8
   12d40:	a817      	add	r0, sp, #92	; 0x5c
   12d42:	f2c0 0101 	movt	r1, #1
   12d46:	f001 fa45 	bl	141d4 <__match>
   12d4a:	2800      	cmp	r0, #0
   12d4c:	f43f ac8f 	beq.w	1266e <_strtod_l+0x146>
   12d50:	9b17      	ldr	r3, [sp, #92]	; 0x5c
   12d52:	781b      	ldrb	r3, [r3, #0]
   12d54:	2b28      	cmp	r3, #40	; 0x28
   12d56:	f000 82b1 	beq.w	132bc <_strtod_l+0xd94>
   12d5a:	2300      	movs	r3, #0
   12d5c:	f6cf 73f8 	movt	r3, #65528	; 0xfff8
   12d60:	9307      	str	r3, [sp, #28]
   12d62:	2300      	movs	r3, #0
   12d64:	9306      	str	r3, [sp, #24]
   12d66:	e5bd      	b.n	128e4 <_strtod_l+0x3bc>
   12d68:	ee20 8b0b 	vmul.f64	d8, d0, d11
   12d6c:	ec53 2b18 	vmov	r2, r3, d8
   12d70:	b91c      	cbnz	r4, 12d7a <_strtod_l+0x852>
   12d72:	eeb1 7b48 	vneg.f64	d7, d8
   12d76:	ec53 2b17 	vmov	r2, r3, d7
   12d7a:	f8dd e01c 	ldr.w	lr, [sp, #28]
   12d7e:	e698      	b.n	12ab2 <_strtod_l+0x58a>
   12d80:	9b13      	ldr	r3, [sp, #76]	; 0x4c
   12d82:	2101      	movs	r1, #1
   12d84:	910e      	str	r1, [sp, #56]	; 0x38
   12d86:	1a9a      	subs	r2, r3, r2
   12d88:	fa01 f302 	lsl.w	r3, r1, r2
   12d8c:	930f      	str	r3, [sp, #60]	; 0x3c
   12d8e:	e60f      	b.n	129b0 <_strtod_l+0x488>
   12d90:	e9dd 1206 	ldrd	r1, r2, [sp, #24]
   12d94:	2900      	cmp	r1, #0
   12d96:	f040 80b5 	bne.w	12f04 <_strtod_l+0x9dc>
   12d9a:	f3c2 0313 	ubfx	r3, r2, #0, #20
   12d9e:	4696      	mov	lr, r2
   12da0:	bb63      	cbnz	r3, 12dfc <_strtod_l+0x8d4>
   12da2:	eeb4 0bca 	vcmpe.f64	d0, d10
   12da6:	eef1 fa10 	vmrs	APSR_nzcv, fpscr
   12daa:	f100 825d 	bmi.w	13268 <_strtod_l+0xd40>
   12dae:	ee20 8b0b 	vmul.f64	d8, d0, d11
   12db2:	eeb1 7b48 	vneg.f64	d7, d8
   12db6:	ec53 2b17 	vmov	r2, r3, d7
   12dba:	e67a      	b.n	12ab2 <_strtod_l+0x58a>
   12dbc:	9a09      	ldr	r2, [sp, #36]	; 0x24
   12dbe:	ab18      	add	r3, sp, #96	; 0x60
   12dc0:	9502      	str	r5, [sp, #8]
   12dc2:	a917      	add	r1, sp, #92	; 0x5c
   12dc4:	9300      	str	r3, [sp, #0]
   12dc6:	4648      	mov	r0, r9
   12dc8:	9201      	str	r2, [sp, #4]
   12dca:	ab19      	add	r3, sp, #100	; 0x64
   12dcc:	f646 52fc 	movw	r2, #28156	; 0x6dfc
   12dd0:	f2c0 0201 	movt	r2, #1
   12dd4:	f000 ff6a 	bl	13cac <__gethex>
   12dd8:	f010 0507 	ands.w	r5, r0, #7
   12ddc:	4604      	mov	r4, r0
   12dde:	f43f ad5e 	beq.w	1289e <_strtod_l+0x376>
   12de2:	2d06      	cmp	r5, #6
   12de4:	f040 8140 	bne.w	13068 <_strtod_l+0xb40>
   12de8:	ed9f 7bc1 	vldr	d7, [pc, #772]	; 130f0 <_strtod_l+0xbc8>
   12dec:	f108 0301 	add.w	r3, r8, #1
   12df0:	9317      	str	r3, [sp, #92]	; 0x5c
   12df2:	2300      	movs	r3, #0
   12df4:	9309      	str	r3, [sp, #36]	; 0x24
   12df6:	ed8d 7b04 	vstr	d7, [sp, #16]
   12dfa:	e54a      	b.n	12892 <_strtod_l+0x36a>
   12dfc:	2300      	movs	r3, #0
   12dfe:	2200      	movs	r2, #0
   12e00:	f6cb 73f0 	movt	r3, #49136	; 0xbff0
   12e04:	eeb0 8b4a 	vmov.f64	d8, d10
   12e08:	e653      	b.n	12ab2 <_strtod_l+0x58a>
   12e0a:	2300      	movs	r3, #0
   12e0c:	f6c7 73f0 	movt	r3, #32752	; 0x7ff0
   12e10:	9307      	str	r3, [sp, #28]
   12e12:	2322      	movs	r3, #34	; 0x22
   12e14:	f8c9 3000 	str.w	r3, [r9]
   12e18:	2300      	movs	r3, #0
   12e1a:	9306      	str	r3, [sp, #24]
   12e1c:	e562      	b.n	128e4 <_strtod_l+0x3bc>
   12e1e:	910e      	str	r1, [sp, #56]	; 0x38
   12e20:	f1ae 7154 	sub.w	r1, lr, #55574528	; 0x3500000
   12e24:	9107      	str	r1, [sp, #28]
   12e26:	ec43 2b1c 	vmov	d12, r2, r3
   12e2a:	e9dd 2304 	ldrd	r2, r3, [sp, #16]
   12e2e:	ed9d db06 	vldr	d13, [sp, #24]
   12e32:	e9cd 2314 	strd	r2, r3, [sp, #80]	; 0x50
   12e36:	eeb0 0b4d 	vmov.f64	d0, d13
   12e3a:	f001 fe01 	bl	14a40 <__ulp>
   12e3e:	f64f 73ff 	movw	r3, #65535	; 0xffff
   12e42:	f6c7 439f 	movt	r3, #31903	; 0x7c9f
   12e46:	ee0c db00 	vmla.f64	d13, d12, d0
   12e4a:	ec52 1b1d 	vmov	r1, r2, d13
   12e4e:	e9cd 1206 	strd	r1, r2, [sp, #24]
   12e52:	990e      	ldr	r1, [sp, #56]	; 0x38
   12e54:	4011      	ands	r1, r2
   12e56:	4299      	cmp	r1, r3
   12e58:	f240 8101 	bls.w	1305e <_strtod_l+0xb36>
   12e5c:	9a15      	ldr	r2, [sp, #84]	; 0x54
   12e5e:	f64f 73ff 	movw	r3, #65535	; 0xffff
   12e62:	f6c7 73ef 	movt	r3, #32751	; 0x7fef
   12e66:	429a      	cmp	r2, r3
   12e68:	d008      	beq.n	12e7c <_strtod_l+0x954>
   12e6a:	f64f 73ff 	movw	r3, #65535	; 0xffff
   12e6e:	f6c7 73ef 	movt	r3, #32751	; 0x7fef
   12e72:	9307      	str	r3, [sp, #28]
   12e74:	f04f 33ff 	mov.w	r3, #4294967295
   12e78:	9306      	str	r3, [sp, #24]
   12e7a:	e661      	b.n	12b40 <_strtod_l+0x618>
   12e7c:	9b14      	ldr	r3, [sp, #80]	; 0x50
   12e7e:	3301      	adds	r3, #1
   12e80:	d1f3      	bne.n	12e6a <_strtod_l+0x942>
   12e82:	f8dd a044 	ldr.w	sl, [sp, #68]	; 0x44
   12e86:	9818      	ldr	r0, [sp, #96]	; 0x60
   12e88:	2300      	movs	r3, #0
   12e8a:	f6c7 73f0 	movt	r3, #32752	; 0x7ff0
   12e8e:	9307      	str	r3, [sp, #28]
   12e90:	2322      	movs	r3, #34	; 0x22
   12e92:	f8c9 3000 	str.w	r3, [r9]
   12e96:	2300      	movs	r3, #0
   12e98:	9306      	str	r3, [sp, #24]
   12e9a:	ed9d 7b06 	vldr	d7, [sp, #24]
   12e9e:	ed8d 7b04 	vstr	d7, [sp, #16]
   12ea2:	4601      	mov	r1, r0
   12ea4:	4648      	mov	r0, r9
   12ea6:	f001 faf1 	bl	1448c <_Bfree>
   12eaa:	4639      	mov	r1, r7
   12eac:	4648      	mov	r0, r9
   12eae:	f001 faed 	bl	1448c <_Bfree>
   12eb2:	4629      	mov	r1, r5
   12eb4:	4648      	mov	r0, r9
   12eb6:	f001 fae9 	bl	1448c <_Bfree>
   12eba:	9912      	ldr	r1, [sp, #72]	; 0x48
   12ebc:	4648      	mov	r0, r9
   12ebe:	f001 fae5 	bl	1448c <_Bfree>
   12ec2:	4641      	mov	r1, r8
   12ec4:	4648      	mov	r0, r9
   12ec6:	f001 fae1 	bl	1448c <_Bfree>
   12eca:	e4e2      	b.n	12892 <_strtod_l+0x36a>
   12ecc:	eebd 7bc8 	vcvt.s32.f64	s14, d8
   12ed0:	eeb8 7bc7 	vcvt.f64.s32	d7, s14
   12ed4:	ee38 8b47 	vsub.f64	d8, d8, d7
   12ed8:	bb64      	cbnz	r4, 12f34 <_strtod_l+0xa0c>
   12eda:	9b06      	ldr	r3, [sp, #24]
   12edc:	bb53      	cbnz	r3, 12f34 <_strtod_l+0xa0c>
   12ede:	f3c2 0213 	ubfx	r2, r2, #0, #20
   12ee2:	bb3a      	cbnz	r2, 12f34 <_strtod_l+0xa0c>
   12ee4:	ed9f 7b84 	vldr	d7, [pc, #528]	; 130f8 <_strtod_l+0xbd0>
   12ee8:	eeb4 8bc7 	vcmpe.f64	d8, d7
   12eec:	eef1 fa10 	vmrs	APSR_nzcv, fpscr
   12ef0:	f57f ae26 	bpl.w	12b40 <_strtod_l+0x618>
   12ef4:	ed9d 7b06 	vldr	d7, [sp, #24]
   12ef8:	f8dd a044 	ldr.w	sl, [sp, #68]	; 0x44
   12efc:	9818      	ldr	r0, [sp, #96]	; 0x60
   12efe:	ed8d 7b04 	vstr	d7, [sp, #16]
   12f02:	e7ce      	b.n	12ea2 <_strtod_l+0x97a>
   12f04:	e9dd 1206 	ldrd	r1, r2, [sp, #24]
   12f08:	2901      	cmp	r1, #1
   12f0a:	bf18      	it	ne
   12f0c:	4696      	movne	lr, r2
   12f0e:	f47f af75 	bne.w	12dfc <_strtod_l+0x8d4>
   12f12:	e9dd 2306 	ldrd	r2, r3, [sp, #24]
   12f16:	469e      	mov	lr, r3
   12f18:	2b00      	cmp	r3, #0
   12f1a:	f47f af6f 	bne.w	12dfc <_strtod_l+0x8d4>
   12f1e:	f8dd a044 	ldr.w	sl, [sp, #68]	; 0x44
   12f22:	ed9f 7b73 	vldr	d7, [pc, #460]	; 130f0 <_strtod_l+0xbc8>
   12f26:	2322      	movs	r3, #34	; 0x22
   12f28:	9818      	ldr	r0, [sp, #96]	; 0x60
   12f2a:	f8c9 3000 	str.w	r3, [r9]
   12f2e:	ed8d 7b04 	vstr	d7, [sp, #16]
   12f32:	e7b6      	b.n	12ea2 <_strtod_l+0x97a>
   12f34:	ed9f 7b72 	vldr	d7, [pc, #456]	; 13100 <_strtod_l+0xbd8>
   12f38:	eeb4 8bc7 	vcmpe.f64	d8, d7
   12f3c:	eef1 fa10 	vmrs	APSR_nzcv, fpscr
   12f40:	d4d8      	bmi.n	12ef4 <_strtod_l+0x9cc>
   12f42:	ed9f 7b71 	vldr	d7, [pc, #452]	; 13108 <_strtod_l+0xbe0>
   12f46:	eeb4 8bc7 	vcmpe.f64	d8, d7
   12f4a:	eef1 fa10 	vmrs	APSR_nzcv, fpscr
   12f4e:	f77f adf7 	ble.w	12b40 <_strtod_l+0x618>
   12f52:	e7cf      	b.n	12ef4 <_strtod_l+0x9cc>
   12f54:	eeb0 8b4a 	vmov.f64	d8, d10
   12f58:	e5cf      	b.n	12afa <_strtod_l+0x5d2>
   12f5a:	f43f ace5 	beq.w	12928 <_strtod_l+0x400>
   12f5e:	425b      	negs	r3, r3
   12f60:	f013 010f 	ands.w	r1, r3, #15
   12f64:	d00d      	beq.n	12f82 <_strtod_l+0xa5a>
   12f66:	f247 0280 	movw	r2, #28800	; 0x7080
   12f6a:	f2c0 0201 	movt	r2, #1
   12f6e:	eb02 02c1 	add.w	r2, r2, r1, lsl #3
   12f72:	ed9d 5b06 	vldr	d5, [sp, #24]
   12f76:	ed92 7b00 	vldr	d7, [r2]
   12f7a:	ee85 6b07 	vdiv.f64	d6, d5, d7
   12f7e:	ed8d 6b06 	vstr	d6, [sp, #24]
   12f82:	111b      	asrs	r3, r3, #4
   12f84:	f43f acd0 	beq.w	12928 <_strtod_l+0x400>
   12f88:	2b1f      	cmp	r3, #31
   12f8a:	dc33      	bgt.n	12ff4 <_strtod_l+0xacc>
   12f8c:	f013 0210 	ands.w	r2, r3, #16
   12f90:	920a      	str	r2, [sp, #40]	; 0x28
   12f92:	f000 81a8 	beq.w	132e6 <_strtod_l+0xdbe>
   12f96:	2b00      	cmp	r3, #0
   12f98:	bfdc      	itt	le
   12f9a:	236a      	movle	r3, #106	; 0x6a
   12f9c:	930a      	strle	r3, [sp, #40]	; 0x28
   12f9e:	f340 81a6 	ble.w	132ee <_strtod_l+0xdc6>
   12fa2:	226a      	movs	r2, #106	; 0x6a
   12fa4:	920a      	str	r2, [sp, #40]	; 0x28
   12fa6:	ed9d 7b06 	vldr	d7, [sp, #24]
   12faa:	f646 6228 	movw	r2, #28200	; 0x6e28
   12fae:	f2c0 0201 	movt	r2, #1
   12fb2:	2100      	movs	r1, #0
   12fb4:	ed8d 7b04 	vstr	d7, [sp, #16]
   12fb8:	07d8      	lsls	r0, r3, #31
   12fba:	d508      	bpl.n	12fce <_strtod_l+0xaa6>
   12fbc:	ed9d 6b04 	vldr	d6, [sp, #16]
   12fc0:	2101      	movs	r1, #1
   12fc2:	ed92 7b00 	vldr	d7, [r2]
   12fc6:	ee26 7b07 	vmul.f64	d7, d6, d7
   12fca:	ed8d 7b04 	vstr	d7, [sp, #16]
   12fce:	105b      	asrs	r3, r3, #1
   12fd0:	f102 0208 	add.w	r2, r2, #8
   12fd4:	d1f0      	bne.n	12fb8 <_strtod_l+0xa90>
   12fd6:	2900      	cmp	r1, #0
   12fd8:	f040 81ed 	bne.w	133b6 <_strtod_l+0xe8e>
   12fdc:	9b0a      	ldr	r3, [sp, #40]	; 0x28
   12fde:	2b00      	cmp	r3, #0
   12fe0:	f040 8185 	bne.w	132ee <_strtod_l+0xdc6>
   12fe4:	ed9d 7b06 	vldr	d7, [sp, #24]
   12fe8:	eeb5 7b40 	vcmp.f64	d7, #0.0
   12fec:	eef1 fa10 	vmrs	APSR_nzcv, fpscr
   12ff0:	f47f ac9c 	bne.w	1292c <_strtod_l+0x404>
   12ff4:	ed9f 7b3e 	vldr	d7, [pc, #248]	; 130f0 <_strtod_l+0xbc8>
   12ff8:	2322      	movs	r3, #34	; 0x22
   12ffa:	f8c9 3000 	str.w	r3, [r9]
   12ffe:	ed8d 7b04 	vstr	d7, [sp, #16]
   13002:	e446      	b.n	12892 <_strtod_l+0x36a>
   13004:	6811      	ldr	r1, [r2, #0]
   13006:	4640      	mov	r0, r8
   13008:	461a      	mov	r2, r3
   1300a:	9304      	str	r3, [sp, #16]
   1300c:	f001 fe8a 	bl	14d24 <strncmp>
   13010:	9b04      	ldr	r3, [sp, #16]
   13012:	4684      	mov	ip, r0
   13014:	b150      	cbz	r0, 1302c <_strtod_l+0xb04>
   13016:	f04f 0c00 	mov.w	ip, #0
   1301a:	f8cd c010 	str.w	ip, [sp, #16]
   1301e:	4666      	mov	r6, ip
   13020:	4667      	mov	r7, ip
   13022:	4663      	mov	r3, ip
   13024:	4660      	mov	r0, ip
   13026:	4665      	mov	r5, ip
   13028:	f7ff bb7c 	b.w	12724 <_strtod_l+0x1fc>
   1302c:	9917      	ldr	r1, [sp, #92]	; 0x5c
   1302e:	18ca      	adds	r2, r1, r3
   13030:	9217      	str	r2, [sp, #92]	; 0x5c
   13032:	5ccc      	ldrb	r4, [r1, r3]
   13034:	4663      	mov	r3, ip
   13036:	2c30      	cmp	r4, #48	; 0x30
   13038:	d105      	bne.n	13046 <_strtod_l+0xb1e>
   1303a:	3201      	adds	r2, #1
   1303c:	9217      	str	r2, [sp, #92]	; 0x5c
   1303e:	3301      	adds	r3, #1
   13040:	7814      	ldrb	r4, [r2, #0]
   13042:	2c30      	cmp	r4, #48	; 0x30
   13044:	d0f9      	beq.n	1303a <_strtod_l+0xb12>
   13046:	f1a4 0231 	sub.w	r2, r4, #49	; 0x31
   1304a:	2a08      	cmp	r2, #8
   1304c:	d941      	bls.n	130d2 <_strtod_l+0xbaa>
   1304e:	2000      	movs	r0, #0
   13050:	2201      	movs	r2, #1
   13052:	4605      	mov	r5, r0
   13054:	9204      	str	r2, [sp, #16]
   13056:	4606      	mov	r6, r0
   13058:	4607      	mov	r7, r0
   1305a:	f7ff bb63 	b.w	12724 <_strtod_l+0x1fc>
   1305e:	9b07      	ldr	r3, [sp, #28]
   13060:	f103 7254 	add.w	r2, r3, #55574528	; 0x3500000
   13064:	9207      	str	r2, [sp, #28]
   13066:	e561      	b.n	12b2c <_strtod_l+0x604>
   13068:	9a18      	ldr	r2, [sp, #96]	; 0x60
   1306a:	b13a      	cbz	r2, 1307c <_strtod_l+0xb54>
   1306c:	2135      	movs	r1, #53	; 0x35
   1306e:	a81a      	add	r0, sp, #104	; 0x68
   13070:	f001 fdfe 	bl	14c70 <__copybits>
   13074:	4648      	mov	r0, r9
   13076:	9918      	ldr	r1, [sp, #96]	; 0x60
   13078:	f001 fa08 	bl	1448c <_Bfree>
   1307c:	3d01      	subs	r5, #1
   1307e:	2d04      	cmp	r5, #4
   13080:	d808      	bhi.n	13094 <_strtod_l+0xb6c>
   13082:	e8df f005 	tbb	[pc, r5]
   13086:	151a      	.short	0x151a
   13088:	0e03      	.short	0x0e03
   1308a:	1a          	.byte	0x1a
   1308b:	00          	.byte	0x00
   1308c:	2300      	movs	r3, #0
   1308e:	f6c7 73f0 	movt	r3, #32752	; 0x7ff0
   13092:	9307      	str	r3, [sp, #28]
   13094:	0724      	lsls	r4, r4, #28
   13096:	bf42      	ittt	mi
   13098:	9b07      	ldrmi	r3, [sp, #28]
   1309a:	f043 4300 	orrmi.w	r3, r3, #2147483648	; 0x80000000
   1309e:	9307      	strmi	r3, [sp, #28]
   130a0:	e420      	b.n	128e4 <_strtod_l+0x3bc>
   130a2:	f06f 4300 	mvn.w	r3, #2147483648	; 0x80000000
   130a6:	9307      	str	r3, [sp, #28]
   130a8:	f04f 33ff 	mov.w	r3, #4294967295
   130ac:	9306      	str	r3, [sp, #24]
   130ae:	e7f1      	b.n	13094 <_strtod_l+0xb6c>
   130b0:	9b1a      	ldr	r3, [sp, #104]	; 0x68
   130b2:	9306      	str	r3, [sp, #24]
   130b4:	9b1b      	ldr	r3, [sp, #108]	; 0x6c
   130b6:	9307      	str	r3, [sp, #28]
   130b8:	e7ec      	b.n	13094 <_strtod_l+0xb6c>
   130ba:	9a19      	ldr	r2, [sp, #100]	; 0x64
   130bc:	9b1b      	ldr	r3, [sp, #108]	; 0x6c
   130be:	991a      	ldr	r1, [sp, #104]	; 0x68
   130c0:	f202 4233 	addw	r2, r2, #1075	; 0x433
   130c4:	f423 1380 	bic.w	r3, r3, #1048576	; 0x100000
   130c8:	ea43 5302 	orr.w	r3, r3, r2, lsl #20
   130cc:	9307      	str	r3, [sp, #28]
   130ce:	9106      	str	r1, [sp, #24]
   130d0:	e7e0      	b.n	13094 <_strtod_l+0xb6c>
   130d2:	9917      	ldr	r1, [sp, #92]	; 0x5c
   130d4:	2700      	movs	r7, #0
   130d6:	f1a4 0e30 	sub.w	lr, r4, #48	; 0x30
   130da:	1c58      	adds	r0, r3, #1
   130dc:	463e      	mov	r6, r7
   130de:	2501      	movs	r5, #1
   130e0:	4688      	mov	r8, r1
   130e2:	220a      	movs	r2, #10
   130e4:	2300      	movs	r3, #0
   130e6:	fb02 e707 	mla	r7, r2, r7, lr
   130ea:	f7ff bb6c 	b.w	127c6 <_strtod_l+0x29e>
   130ee:	bf00      	nop
	...
   130f8:	94a03595 	.word	0x94a03595
   130fc:	3fcfffff 	.word	0x3fcfffff
   13100:	94a03595 	.word	0x94a03595
   13104:	3fdfffff 	.word	0x3fdfffff
   13108:	35afe535 	.word	0x35afe535
   1310c:	3fe00000 	.word	0x3fe00000
   13110:	f1c5 0225 	rsb	r2, r5, #37	; 0x25
   13114:	4294      	cmp	r4, r2
   13116:	f73f abed 	bgt.w	128f4 <_strtod_l+0x3cc>
   1311a:	f1c5 050f 	rsb	r5, r5, #15
   1311e:	f247 0380 	movw	r3, #28800	; 0x7080
   13122:	f2c0 0301 	movt	r3, #1
   13126:	1b60      	subs	r0, r4, r5
   13128:	eb03 05c5 	add.w	r5, r3, r5, lsl #3
   1312c:	ed9d 5b06 	vldr	d5, [sp, #24]
   13130:	eb03 03c0 	add.w	r3, r3, r0, lsl #3
   13134:	ed95 7b00 	vldr	d7, [r5]
   13138:	ed93 6b00 	vldr	d6, [r3]
   1313c:	ee27 7b05 	vmul.f64	d7, d7, d5
   13140:	ee27 7b06 	vmul.f64	d7, d7, d6
   13144:	ed8d 7b04 	vstr	d7, [sp, #16]
   13148:	f7ff bba3 	b.w	12892 <_strtod_l+0x36a>
   1314c:	f114 0f16 	cmn.w	r4, #22
   13150:	f6ff abd0 	blt.w	128f4 <_strtod_l+0x3cc>
   13154:	f247 0380 	movw	r3, #28800	; 0x7080
   13158:	f2c0 0301 	movt	r3, #1
   1315c:	eba3 03c4 	sub.w	r3, r3, r4, lsl #3
   13160:	ed9d 5b06 	vldr	d5, [sp, #24]
   13164:	ed93 7b00 	vldr	d7, [r3]
   13168:	ee85 6b07 	vdiv.f64	d6, d5, d7
   1316c:	ed8d 6b04 	vstr	d6, [sp, #16]
   13170:	f7ff bb8f 	b.w	12892 <_strtod_l+0x36a>
   13174:	f8dd a044 	ldr.w	sl, [sp, #68]	; 0x44
   13178:	e686      	b.n	12e88 <_strtod_l+0x960>
   1317a:	f8dd a044 	ldr.w	sl, [sp, #68]	; 0x44
   1317e:	2c00      	cmp	r4, #0
   13180:	d07e      	beq.n	13280 <_strtod_l+0xd58>
   13182:	e9dd bc06 	ldrd	fp, ip, [sp, #24]
   13186:	f64f 73ff 	movw	r3, #65535	; 0xffff
   1318a:	f2c0 030f 	movt	r3, #15
   1318e:	f3cc 0113 	ubfx	r1, ip, #0, #20
   13192:	4299      	cmp	r1, r3
   13194:	4662      	mov	r2, ip
   13196:	f000 80d4 	beq.w	13342 <_strtod_l+0xe1a>
   1319a:	9b0f      	ldr	r3, [sp, #60]	; 0x3c
   1319c:	2b00      	cmp	r3, #0
   1319e:	d06a      	beq.n	13276 <_strtod_l+0xd4e>
   131a0:	9a07      	ldr	r2, [sp, #28]
   131a2:	4213      	tst	r3, r2
   131a4:	d00c      	beq.n	131c0 <_strtod_l+0xc98>
   131a6:	e9dd 0106 	ldrd	r0, r1, [sp, #24]
   131aa:	9a0a      	ldr	r2, [sp, #40]	; 0x28
   131ac:	2c00      	cmp	r4, #0
   131ae:	d076      	beq.n	1329e <_strtod_l+0xd76>
   131b0:	f7ff f9a0 	bl	124f4 <sulp>
   131b4:	ed9d 7b04 	vldr	d7, [sp, #16]
   131b8:	ee37 7b00 	vadd.f64	d7, d7, d0
   131bc:	ed8d 7b04 	vstr	d7, [sp, #16]
   131c0:	9b0a      	ldr	r3, [sp, #40]	; 0x28
   131c2:	b1db      	cbz	r3, 131fc <_strtod_l+0xcd4>
   131c4:	2300      	movs	r3, #0
   131c6:	f6c3 1350 	movt	r3, #14672	; 0x3950
   131ca:	9315      	str	r3, [sp, #84]	; 0x54
   131cc:	2300      	movs	r3, #0
   131ce:	9314      	str	r3, [sp, #80]	; 0x50
   131d0:	ed9d 7b04 	vldr	d7, [sp, #16]
   131d4:	ed9d 6b14 	vldr	d6, [sp, #80]	; 0x50
   131d8:	ee27 7b06 	vmul.f64	d7, d7, d6
   131dc:	ed8d 7b04 	vstr	d7, [sp, #16]
   131e0:	e9dd 3404 	ldrd	r3, r4, [sp, #16]
   131e4:	e9cd 3406 	strd	r3, r4, [sp, #24]
   131e8:	b944      	cbnz	r4, 131fc <_strtod_l+0xcd4>
   131ea:	9b06      	ldr	r3, [sp, #24]
   131ec:	9818      	ldr	r0, [sp, #96]	; 0x60
   131ee:	2b00      	cmp	r3, #0
   131f0:	f47f ae57 	bne.w	12ea2 <_strtod_l+0x97a>
   131f4:	2322      	movs	r3, #34	; 0x22
   131f6:	f8c9 3000 	str.w	r3, [r9]
   131fa:	e652      	b.n	12ea2 <_strtod_l+0x97a>
   131fc:	9818      	ldr	r0, [sp, #96]	; 0x60
   131fe:	e650      	b.n	12ea2 <_strtod_l+0x97a>
   13200:	f8dd a044 	ldr.w	sl, [sp, #68]	; 0x44
   13204:	2c00      	cmp	r4, #0
   13206:	d1db      	bne.n	131c0 <_strtod_l+0xc98>
   13208:	e9dd 1206 	ldrd	r1, r2, [sp, #24]
   1320c:	2900      	cmp	r1, #0
   1320e:	d1d7      	bne.n	131c0 <_strtod_l+0xc98>
   13210:	f3c2 0313 	ubfx	r3, r2, #0, #20
   13214:	2b00      	cmp	r3, #0
   13216:	d1d3      	bne.n	131c0 <_strtod_l+0xc98>
   13218:	f022 4400 	bic.w	r4, r2, #2147483648	; 0x80000000
   1321c:	0d24      	lsrs	r4, r4, #20
   1321e:	0524      	lsls	r4, r4, #20
   13220:	f1b4 6fd6 	cmp.w	r4, #112197632	; 0x6b00000
   13224:	d9cc      	bls.n	131c0 <_strtod_l+0xc98>
   13226:	f8d8 3014 	ldr.w	r3, [r8, #20]
   1322a:	b91b      	cbnz	r3, 13234 <_strtod_l+0xd0c>
   1322c:	f8d8 3010 	ldr.w	r3, [r8, #16]
   13230:	2b01      	cmp	r3, #1
   13232:	ddc5      	ble.n	131c0 <_strtod_l+0xc98>
   13234:	4641      	mov	r1, r8
   13236:	2201      	movs	r2, #1
   13238:	4648      	mov	r0, r9
   1323a:	f001 fb05 	bl	14848 <__lshift>
   1323e:	4629      	mov	r1, r5
   13240:	4680      	mov	r8, r0
   13242:	f001 fb53 	bl	148ec <__mcmp>
   13246:	2800      	cmp	r0, #0
   13248:	ddba      	ble.n	131c0 <_strtod_l+0xc98>
   1324a:	9b0a      	ldr	r3, [sp, #40]	; 0x28
   1324c:	2b00      	cmp	r3, #0
   1324e:	d069      	beq.n	13324 <_strtod_l+0xdfc>
   13250:	f1b4 6fd6 	cmp.w	r4, #112197632	; 0x6b00000
   13254:	dc66      	bgt.n	13324 <_strtod_l+0xdfc>
   13256:	f1b4 7f5c 	cmp.w	r4, #57671680	; 0x3700000
   1325a:	dcb3      	bgt.n	131c4 <_strtod_l+0xc9c>
   1325c:	e661      	b.n	12f22 <_strtod_l+0x9fa>
   1325e:	f101 7354 	add.w	r3, r1, #55574528	; 0x3500000
   13262:	9307      	str	r3, [sp, #28]
   13264:	f7ff bb60 	b.w	12928 <_strtod_l+0x400>
   13268:	2300      	movs	r3, #0
   1326a:	2200      	movs	r2, #0
   1326c:	f6cb 73e0 	movt	r3, #49120	; 0xbfe0
   13270:	eeb0 8b4b 	vmov.f64	d8, d11
   13274:	e41d      	b.n	12ab2 <_strtod_l+0x58a>
   13276:	9b0e      	ldr	r3, [sp, #56]	; 0x38
   13278:	9a06      	ldr	r2, [sp, #24]
   1327a:	4213      	tst	r3, r2
   1327c:	d0a0      	beq.n	131c0 <_strtod_l+0xc98>
   1327e:	e792      	b.n	131a6 <_strtod_l+0xc7e>
   13280:	e9dd 1206 	ldrd	r1, r2, [sp, #24]
   13284:	f3c2 0313 	ubfx	r3, r2, #0, #20
   13288:	2b00      	cmp	r3, #0
   1328a:	d186      	bne.n	1319a <_strtod_l+0xc72>
   1328c:	2900      	cmp	r1, #0
   1328e:	d184      	bne.n	1319a <_strtod_l+0xc72>
   13290:	f022 4400 	bic.w	r4, r2, #2147483648	; 0x80000000
   13294:	0d24      	lsrs	r4, r4, #20
   13296:	0524      	lsls	r4, r4, #20
   13298:	e7d7      	b.n	1324a <_strtod_l+0xd22>
   1329a:	2100      	movs	r1, #0
   1329c:	e524      	b.n	12ce8 <_strtod_l+0x7c0>
   1329e:	f7ff f929 	bl	124f4 <sulp>
   132a2:	ed9d 7b04 	vldr	d7, [sp, #16]
   132a6:	ee37 7b40 	vsub.f64	d7, d7, d0
   132aa:	eeb5 7b40 	vcmp.f64	d7, #0.0
   132ae:	ed8d 7b04 	vstr	d7, [sp, #16]
   132b2:	eef1 fa10 	vmrs	APSR_nzcv, fpscr
   132b6:	f43f ae34 	beq.w	12f22 <_strtod_l+0x9fa>
   132ba:	e781      	b.n	131c0 <_strtod_l+0xc98>
   132bc:	a817      	add	r0, sp, #92	; 0x5c
   132be:	f646 6110 	movw	r1, #28176	; 0x6e10
   132c2:	aa1a      	add	r2, sp, #104	; 0x68
   132c4:	f2c0 0101 	movt	r1, #1
   132c8:	f000 ff9e 	bl	14208 <__hexnan>
   132cc:	2805      	cmp	r0, #5
   132ce:	f47f ad44 	bne.w	12d5a <_strtod_l+0x832>
   132d2:	9b1b      	ldr	r3, [sp, #108]	; 0x6c
   132d4:	f043 43ff 	orr.w	r3, r3, #2139095040	; 0x7f800000
   132d8:	f443 03e0 	orr.w	r3, r3, #7340032	; 0x700000
   132dc:	9307      	str	r3, [sp, #28]
   132de:	9b1a      	ldr	r3, [sp, #104]	; 0x68
   132e0:	9306      	str	r3, [sp, #24]
   132e2:	f7ff baff 	b.w	128e4 <_strtod_l+0x3bc>
   132e6:	2b00      	cmp	r3, #0
   132e8:	f73f ae5d 	bgt.w	12fa6 <_strtod_l+0xa7e>
   132ec:	e67a      	b.n	12fe4 <_strtod_l+0xabc>
   132ee:	e9dd 1206 	ldrd	r1, r2, [sp, #24]
   132f2:	f3c2 530a 	ubfx	r3, r2, #20, #11
   132f6:	f1c3 036b 	rsb	r3, r3, #107	; 0x6b
   132fa:	2b00      	cmp	r3, #0
   132fc:	f77f ae72 	ble.w	12fe4 <_strtod_l+0xabc>
   13300:	2b1f      	cmp	r3, #31
   13302:	dd4c      	ble.n	1339e <_strtod_l+0xe76>
   13304:	2b34      	cmp	r3, #52	; 0x34
   13306:	f04f 0100 	mov.w	r1, #0
   1330a:	bfd8      	it	le
   1330c:	3b20      	suble	r3, #32
   1330e:	9106      	str	r1, [sp, #24]
   13310:	bfd7      	itett	le
   13312:	f04f 31ff 	movle.w	r1, #4294967295
   13316:	f04f 735c 	movgt.w	r3, #57671680	; 0x3700000
   1331a:	fa01 f303 	lslle.w	r3, r1, r3
   1331e:	4013      	andle	r3, r2
   13320:	9307      	str	r3, [sp, #28]
   13322:	e65f      	b.n	12fe4 <_strtod_l+0xabc>
   13324:	f5a4 1480 	sub.w	r4, r4, #1048576	; 0x100000
   13328:	ea6f 5314 	mvn.w	r3, r4, lsr #20
   1332c:	ea6f 5303 	mvn.w	r3, r3, lsl #20
   13330:	9307      	str	r3, [sp, #28]
   13332:	f04f 33ff 	mov.w	r3, #4294967295
   13336:	9306      	str	r3, [sp, #24]
   13338:	ed9d 7b06 	vldr	d7, [sp, #24]
   1333c:	ed8d 7b04 	vstr	d7, [sp, #16]
   13340:	e73e      	b.n	131c0 <_strtod_l+0xc98>
   13342:	9b0a      	ldr	r3, [sp, #40]	; 0x28
   13344:	9906      	ldr	r1, [sp, #24]
   13346:	b33b      	cbz	r3, 13398 <_strtod_l+0xe70>
   13348:	2300      	movs	r3, #0
   1334a:	f6c7 73f0 	movt	r3, #32752	; 0x7ff0
   1334e:	4013      	ands	r3, r2
   13350:	f1b3 6fd4 	cmp.w	r3, #111149056	; 0x6a00000
   13354:	d820      	bhi.n	13398 <_strtod_l+0xe70>
   13356:	0d1b      	lsrs	r3, r3, #20
   13358:	f04f 30ff 	mov.w	r0, #4294967295
   1335c:	f1c3 036b 	rsb	r3, r3, #107	; 0x6b
   13360:	fa00 f303 	lsl.w	r3, r0, r3
   13364:	428b      	cmp	r3, r1
   13366:	f47f af18 	bne.w	1319a <_strtod_l+0xc72>
   1336a:	f64f 71ff 	movw	r1, #65535	; 0xffff
   1336e:	f6c7 71ef 	movt	r1, #32751	; 0x7fef
   13372:	428a      	cmp	r2, r1
   13374:	d102      	bne.n	1337c <_strtod_l+0xe54>
   13376:	3301      	adds	r3, #1
   13378:	f43f ad85 	beq.w	12e86 <_strtod_l+0x95e>
   1337c:	2300      	movs	r3, #0
   1337e:	f6c7 73f0 	movt	r3, #32752	; 0x7ff0
   13382:	4013      	ands	r3, r2
   13384:	f503 1380 	add.w	r3, r3, #1048576	; 0x100000
   13388:	9307      	str	r3, [sp, #28]
   1338a:	2300      	movs	r3, #0
   1338c:	9306      	str	r3, [sp, #24]
   1338e:	ed9d 7b06 	vldr	d7, [sp, #24]
   13392:	ed8d 7b04 	vstr	d7, [sp, #16]
   13396:	e713      	b.n	131c0 <_strtod_l+0xc98>
   13398:	f04f 33ff 	mov.w	r3, #4294967295
   1339c:	e7e2      	b.n	13364 <_strtod_l+0xe3c>
   1339e:	f04f 32ff 	mov.w	r2, #4294967295
   133a2:	fa02 f303 	lsl.w	r3, r2, r3
   133a6:	9a06      	ldr	r2, [sp, #24]
   133a8:	401a      	ands	r2, r3
   133aa:	9206      	str	r2, [sp, #24]
   133ac:	e61a      	b.n	12fe4 <_strtod_l+0xabc>
   133ae:	460b      	mov	r3, r1
   133b0:	9917      	ldr	r1, [sp, #92]	; 0x5c
   133b2:	f7ff ba08 	b.w	127c6 <_strtod_l+0x29e>
   133b6:	e9dd 2304 	ldrd	r2, r3, [sp, #16]
   133ba:	e9cd 2306 	strd	r2, r3, [sp, #24]
   133be:	e60d      	b.n	12fdc <_strtod_l+0xab4>
   133c0:	e9dd 2304 	ldrd	r2, r3, [sp, #16]
   133c4:	e9cd 2306 	strd	r2, r3, [sp, #24]
   133c8:	e48e      	b.n	12ce8 <_strtod_l+0x7c0>
   133ca:	462c      	mov	r4, r5
   133cc:	9917      	ldr	r1, [sp, #92]	; 0x5c
   133ce:	3501      	adds	r5, #1
   133d0:	f7ff b9ef 	b.w	127b2 <_strtod_l+0x28a>

000133d4 <strtod>:
   133d4:	f247 23ec 	movw	r3, #29420	; 0x72ec
   133d8:	f2c0 0301 	movt	r3, #1
   133dc:	b430      	push	{r4, r5}
   133de:	f247 1480 	movw	r4, #29056	; 0x7180
   133e2:	681d      	ldr	r5, [r3, #0]
   133e4:	f2c0 0401 	movt	r4, #1
   133e8:	460a      	mov	r2, r1
   133ea:	4601      	mov	r1, r0
   133ec:	6b6b      	ldr	r3, [r5, #52]	; 0x34
   133ee:	4628      	mov	r0, r5
   133f0:	2b00      	cmp	r3, #0
   133f2:	bf08      	it	eq
   133f4:	4623      	moveq	r3, r4
   133f6:	bc30      	pop	{r4, r5}
   133f8:	f7ff b896 	b.w	12528 <_strtod_l>
   133fc:	0000      	movs	r0, r0
	...

00013400 <strtof>:
   13400:	b570      	push	{r4, r5, r6, lr}
   13402:	f247 24ec 	movw	r4, #29420	; 0x72ec
   13406:	f2c0 0401 	movt	r4, #1
   1340a:	f247 1580 	movw	r5, #29056	; 0x7180
   1340e:	f2c0 0501 	movt	r5, #1
   13412:	460a      	mov	r2, r1
   13414:	6826      	ldr	r6, [r4, #0]
   13416:	4601      	mov	r1, r0
   13418:	6b73      	ldr	r3, [r6, #52]	; 0x34
   1341a:	4630      	mov	r0, r6
   1341c:	2b00      	cmp	r3, #0
   1341e:	bf08      	it	eq
   13420:	462b      	moveq	r3, r5
   13422:	f7ff f881 	bl	12528 <_strtod_l>
   13426:	eeb4 0b40 	vcmp.f64	d0, d0
   1342a:	eef1 fa10 	vmrs	APSR_nzcv, fpscr
   1342e:	d619      	bvs.n	13464 <strtof+0x64>
   13430:	eef7 6bc0 	vcvt.f32.f64	s13, d0
   13434:	eddf 7a10 	vldr	s15, [pc, #64]	; 13478 <strtof+0x78>
   13438:	eeb0 7ae6 	vabs.f32	s14, s13
   1343c:	eeb4 7a67 	vcmp.f32	s14, s15
   13440:	eef1 fa10 	vmrs	APSR_nzcv, fpscr
   13444:	dd0b      	ble.n	1345e <strtof+0x5e>
   13446:	eeb0 0bc0 	vabs.f64	d0, d0
   1344a:	ed9f 5b09 	vldr	d5, [pc, #36]	; 13470 <strtof+0x70>
   1344e:	eeb4 0b45 	vcmp.f64	d0, d5
   13452:	eef1 fa10 	vmrs	APSR_nzcv, fpscr
   13456:	bfde      	ittt	le
   13458:	6823      	ldrle	r3, [r4, #0]
   1345a:	2222      	movle	r2, #34	; 0x22
   1345c:	601a      	strle	r2, [r3, #0]
   1345e:	eeb0 0a66 	vmov.f32	s0, s13
   13462:	bd70      	pop	{r4, r5, r6, pc}
   13464:	2000      	movs	r0, #0
   13466:	e8bd 4070 	ldmia.w	sp!, {r4, r5, r6, lr}
   1346a:	f001 bc55 	b.w	14d18 <nanf>
   1346e:	bf00      	nop
   13470:	ffffffff 	.word	0xffffffff
   13474:	7fefffff 	.word	0x7fefffff
   13478:	7f7fffff 	.word	0x7f7fffff

0001347c <_strtol_l.isra.0>:
   1347c:	e92d 4ff0 	stmdb	sp!, {r4, r5, r6, r7, r8, r9, sl, fp, lr}
   13480:	b083      	sub	sp, #12
   13482:	4689      	mov	r9, r1
   13484:	4690      	mov	r8, r2
   13486:	9001      	str	r0, [sp, #4]
   13488:	461d      	mov	r5, r3
   1348a:	460c      	mov	r4, r1
   1348c:	f8dd b030 	ldr.w	fp, [sp, #48]	; 0x30
   13490:	e000      	b.n	13494 <_strtol_l.isra.0+0x18>
   13492:	4634      	mov	r4, r6
   13494:	4626      	mov	r6, r4
   13496:	4658      	mov	r0, fp
   13498:	f816 7b01 	ldrb.w	r7, [r6], #1
   1349c:	f7fe fdba 	bl	12014 <__locale_ctype_ptr_l>
   134a0:	4438      	add	r0, r7
   134a2:	7843      	ldrb	r3, [r0, #1]
   134a4:	071a      	lsls	r2, r3, #28
   134a6:	d4f4      	bmi.n	13492 <_strtol_l.isra.0+0x16>
   134a8:	2f2d      	cmp	r7, #45	; 0x2d
   134aa:	463b      	mov	r3, r7
   134ac:	d060      	beq.n	13570 <_strtol_l.isra.0+0xf4>
   134ae:	2f2b      	cmp	r7, #43	; 0x2b
   134b0:	bf04      	itt	eq
   134b2:	7833      	ldrbeq	r3, [r6, #0]
   134b4:	1ca6      	addeq	r6, r4, #2
   134b6:	f035 0a10 	bics.w	sl, r5, #16
   134ba:	bf02      	ittt	eq
   134bc:	fab5 f185 	clzeq	r1, r5
   134c0:	4634      	moveq	r4, r6
   134c2:	0949      	lsreq	r1, r1, #5
   134c4:	d061      	beq.n	1358a <_strtol_l.isra.0+0x10e>
   134c6:	4634      	mov	r4, r6
   134c8:	46ab      	mov	fp, r5
   134ca:	f04f 0a00 	mov.w	sl, #0
   134ce:	f06f 4700 	mvn.w	r7, #2147483648	; 0x80000000
   134d2:	4659      	mov	r1, fp
   134d4:	4638      	mov	r0, r7
   134d6:	9300      	str	r3, [sp, #0]
   134d8:	f002 fa04 	bl	158e4 <__aeabi_uidivmod>
   134dc:	4638      	mov	r0, r7
   134de:	460e      	mov	r6, r1
   134e0:	4659      	mov	r1, fp
   134e2:	f002 f8d1 	bl	15688 <__udivsi3>
   134e6:	2100      	movs	r1, #0
   134e8:	9b00      	ldr	r3, [sp, #0]
   134ea:	4686      	mov	lr, r0
   134ec:	4608      	mov	r0, r1
   134ee:	e00e      	b.n	1350e <_strtol_l.isra.0+0x92>
   134f0:	ebae 0100 	sub.w	r1, lr, r0
   134f4:	429e      	cmp	r6, r3
   134f6:	fab1 f181 	clz	r1, r1
   134fa:	ea4f 1151 	mov.w	r1, r1, lsr #5
   134fe:	bfa8      	it	ge
   13500:	2100      	movge	r1, #0
   13502:	bb19      	cbnz	r1, 1354c <_strtol_l.isra.0+0xd0>
   13504:	fb0b 3000 	mla	r0, fp, r0, r3
   13508:	2101      	movs	r1, #1
   1350a:	f814 3b01 	ldrb.w	r3, [r4], #1
   1350e:	f1a3 0c30 	sub.w	ip, r3, #48	; 0x30
   13512:	f1bc 0f09 	cmp.w	ip, #9
   13516:	bf98      	it	ls
   13518:	4663      	movls	r3, ip
   1351a:	d90c      	bls.n	13536 <_strtol_l.isra.0+0xba>
   1351c:	f1a3 0c41 	sub.w	ip, r3, #65	; 0x41
   13520:	f1bc 0f19 	cmp.w	ip, #25
   13524:	bf98      	it	ls
   13526:	3b37      	subls	r3, #55	; 0x37
   13528:	d905      	bls.n	13536 <_strtol_l.isra.0+0xba>
   1352a:	f1a3 0c61 	sub.w	ip, r3, #97	; 0x61
   1352e:	f1bc 0f19 	cmp.w	ip, #25
   13532:	d80e      	bhi.n	13552 <_strtol_l.isra.0+0xd6>
   13534:	3b57      	subs	r3, #87	; 0x57
   13536:	42ab      	cmp	r3, r5
   13538:	da0b      	bge.n	13552 <_strtol_l.isra.0+0xd6>
   1353a:	4586      	cmp	lr, r0
   1353c:	bf2c      	ite	cs
   1353e:	f04f 0c00 	movcs.w	ip, #0
   13542:	f04f 0c01 	movcc.w	ip, #1
   13546:	ea5c 72d1 	orrs.w	r2, ip, r1, lsr #31
   1354a:	d0d1      	beq.n	134f0 <_strtol_l.isra.0+0x74>
   1354c:	f04f 31ff 	mov.w	r1, #4294967295
   13550:	e7db      	b.n	1350a <_strtol_l.isra.0+0x8e>
   13552:	1c4b      	adds	r3, r1, #1
   13554:	d02c      	beq.n	135b0 <_strtol_l.isra.0+0x134>
   13556:	f1ba 0f00 	cmp.w	sl, #0
   1355a:	d123      	bne.n	135a4 <_strtol_l.isra.0+0x128>
   1355c:	f1b8 0f00 	cmp.w	r8, #0
   13560:	d003      	beq.n	1356a <_strtol_l.isra.0+0xee>
   13562:	bb09      	cbnz	r1, 135a8 <_strtol_l.isra.0+0x12c>
   13564:	464c      	mov	r4, r9
   13566:	f8c8 4000 	str.w	r4, [r8]
   1356a:	b003      	add	sp, #12
   1356c:	e8bd 8ff0 	ldmia.w	sp!, {r4, r5, r6, r7, r8, r9, sl, fp, pc}
   13570:	fab5 f185 	clz	r1, r5
   13574:	f035 0210 	bics.w	r2, r5, #16
   13578:	f104 0402 	add.w	r4, r4, #2
   1357c:	7833      	ldrb	r3, [r6, #0]
   1357e:	ea4f 1151 	mov.w	r1, r1, lsr #5
   13582:	bf08      	it	eq
   13584:	f04f 0a01 	moveq.w	sl, #1
   13588:	d128      	bne.n	135dc <_strtol_l.isra.0+0x160>
   1358a:	2b30      	cmp	r3, #48	; 0x30
   1358c:	d018      	beq.n	135c0 <_strtol_l.isra.0+0x144>
   1358e:	b319      	cbz	r1, 135d8 <_strtol_l.isra.0+0x15c>
   13590:	250a      	movs	r5, #10
   13592:	46ab      	mov	fp, r5
   13594:	f1ba 0f00 	cmp.w	sl, #0
   13598:	bf14      	ite	ne
   1359a:	f04f 4700 	movne.w	r7, #2147483648	; 0x80000000
   1359e:	f06f 4700 	mvneq.w	r7, #2147483648	; 0x80000000
   135a2:	e796      	b.n	134d2 <_strtol_l.isra.0+0x56>
   135a4:	4240      	negs	r0, r0
   135a6:	e7d9      	b.n	1355c <_strtol_l.isra.0+0xe0>
   135a8:	4607      	mov	r7, r0
   135aa:	3c01      	subs	r4, #1
   135ac:	4638      	mov	r0, r7
   135ae:	e7da      	b.n	13566 <_strtol_l.isra.0+0xea>
   135b0:	9a01      	ldr	r2, [sp, #4]
   135b2:	2322      	movs	r3, #34	; 0x22
   135b4:	4638      	mov	r0, r7
   135b6:	6013      	str	r3, [r2, #0]
   135b8:	f1b8 0f00 	cmp.w	r8, #0
   135bc:	d1f5      	bne.n	135aa <_strtol_l.isra.0+0x12e>
   135be:	e7d4      	b.n	1356a <_strtol_l.isra.0+0xee>
   135c0:	7820      	ldrb	r0, [r4, #0]
   135c2:	f000 00df 	and.w	r0, r0, #223	; 0xdf
   135c6:	2858      	cmp	r0, #88	; 0x58
   135c8:	d104      	bne.n	135d4 <_strtol_l.isra.0+0x158>
   135ca:	2510      	movs	r5, #16
   135cc:	7863      	ldrb	r3, [r4, #1]
   135ce:	46ab      	mov	fp, r5
   135d0:	3402      	adds	r4, #2
   135d2:	e7df      	b.n	13594 <_strtol_l.isra.0+0x118>
   135d4:	b101      	cbz	r1, 135d8 <_strtol_l.isra.0+0x15c>
   135d6:	2508      	movs	r5, #8
   135d8:	46ab      	mov	fp, r5
   135da:	e7db      	b.n	13594 <_strtol_l.isra.0+0x118>
   135dc:	46ab      	mov	fp, r5
   135de:	f04f 0a01 	mov.w	sl, #1
   135e2:	f04f 4700 	mov.w	r7, #2147483648	; 0x80000000
   135e6:	e774      	b.n	134d2 <_strtol_l.isra.0+0x56>

000135e8 <strtol>:
   135e8:	f247 23ec 	movw	r3, #29420	; 0x72ec
   135ec:	f2c0 0301 	movt	r3, #1
   135f0:	b570      	push	{r4, r5, r6, lr}
   135f2:	b082      	sub	sp, #8
   135f4:	681e      	ldr	r6, [r3, #0]
   135f6:	f247 1580 	movw	r5, #29056	; 0x7180
   135fa:	f2c0 0501 	movt	r5, #1
   135fe:	4613      	mov	r3, r2
   13600:	460a      	mov	r2, r1
   13602:	4601      	mov	r1, r0
   13604:	6b74      	ldr	r4, [r6, #52]	; 0x34
   13606:	4630      	mov	r0, r6
   13608:	2c00      	cmp	r4, #0
   1360a:	bf08      	it	eq
   1360c:	462c      	moveq	r4, r5
   1360e:	9400      	str	r4, [sp, #0]
   13610:	f7ff ff34 	bl	1347c <_strtol_l.isra.0>
   13614:	b002      	add	sp, #8
   13616:	bd70      	pop	{r4, r5, r6, pc}

00013618 <strtold>:
   13618:	f247 23ec 	movw	r3, #29420	; 0x72ec
   1361c:	f2c0 0301 	movt	r3, #1
   13620:	b430      	push	{r4, r5}
   13622:	f247 1480 	movw	r4, #29056	; 0x7180
   13626:	681d      	ldr	r5, [r3, #0]
   13628:	f2c0 0401 	movt	r4, #1
   1362c:	460a      	mov	r2, r1
   1362e:	4601      	mov	r1, r0
   13630:	6b6b      	ldr	r3, [r5, #52]	; 0x34
   13632:	4628      	mov	r0, r5
   13634:	2b00      	cmp	r3, #0
   13636:	bf08      	it	eq
   13638:	4623      	moveq	r3, r4
   1363a:	bc30      	pop	{r4, r5}
   1363c:	f7fe bf74 	b.w	12528 <_strtod_l>

00013640 <_strtoll_l.isra.0>:
   13640:	e92d 4ff0 	stmdb	sp!, {r4, r5, r6, r7, r8, r9, sl, fp, lr}
   13644:	b085      	sub	sp, #20
   13646:	461e      	mov	r6, r3
   13648:	460d      	mov	r5, r1
   1364a:	9102      	str	r1, [sp, #8]
   1364c:	9003      	str	r0, [sp, #12]
   1364e:	9200      	str	r2, [sp, #0]
   13650:	f8dd 8038 	ldr.w	r8, [sp, #56]	; 0x38
   13654:	e000      	b.n	13658 <_strtoll_l.isra.0+0x18>
   13656:	463d      	mov	r5, r7
   13658:	462f      	mov	r7, r5
   1365a:	4640      	mov	r0, r8
   1365c:	f817 4b01 	ldrb.w	r4, [r7], #1
   13660:	f7fe fcd8 	bl	12014 <__locale_ctype_ptr_l>
   13664:	4420      	add	r0, r4
   13666:	7843      	ldrb	r3, [r0, #1]
   13668:	071b      	lsls	r3, r3, #28
   1366a:	d4f4      	bmi.n	13656 <_strtoll_l.isra.0+0x16>
   1366c:	2c2d      	cmp	r4, #45	; 0x2d
   1366e:	d07c      	beq.n	1376a <_strtoll_l.isra.0+0x12a>
   13670:	2c2b      	cmp	r4, #43	; 0x2b
   13672:	bf04      	itt	eq
   13674:	783c      	ldrbeq	r4, [r7, #0]
   13676:	1caf      	addeq	r7, r5, #2
   13678:	f036 0310 	bics.w	r3, r6, #16
   1367c:	9301      	str	r3, [sp, #4]
   1367e:	bf02      	ittt	eq
   13680:	fab6 f386 	clzeq	r3, r6
   13684:	463d      	moveq	r5, r7
   13686:	095b      	lsreq	r3, r3, #5
   13688:	d07d      	beq.n	13786 <_strtoll_l.isra.0+0x146>
   1368a:	ea4f 79e6 	mov.w	r9, r6, asr #31
   1368e:	463d      	mov	r5, r7
   13690:	46b0      	mov	r8, r6
   13692:	2300      	movs	r3, #0
   13694:	9301      	str	r3, [sp, #4]
   13696:	f04f 3aff 	mov.w	sl, #4294967295
   1369a:	f06f 4b00 	mvn.w	fp, #2147483648	; 0x80000000
   1369e:	4642      	mov	r2, r8
   136a0:	464b      	mov	r3, r9
   136a2:	4650      	mov	r0, sl
   136a4:	4659      	mov	r1, fp
   136a6:	f002 f92d 	bl	15904 <__aeabi_uldivmod>
   136aa:	464b      	mov	r3, r9
   136ac:	4650      	mov	r0, sl
   136ae:	4659      	mov	r1, fp
   136b0:	4617      	mov	r7, r2
   136b2:	4642      	mov	r2, r8
   136b4:	f002 f926 	bl	15904 <__aeabi_uldivmod>
   136b8:	2200      	movs	r2, #0
   136ba:	2300      	movs	r3, #0
   136bc:	f04f 0e00 	mov.w	lr, #0
   136c0:	e01d      	b.n	136fe <_strtoll_l.isra.0+0xbe>
   136c2:	4299      	cmp	r1, r3
   136c4:	bf06      	itte	eq
   136c6:	4290      	cmpeq	r0, r2
   136c8:	f04f 0e01 	moveq.w	lr, #1
   136cc:	f04f 0e00 	movne.w	lr, #0
   136d0:	42a7      	cmp	r7, r4
   136d2:	bfac      	ite	ge
   136d4:	f04f 0e00 	movge.w	lr, #0
   136d8:	f00e 0e01 	andlt.w	lr, lr, #1
   136dc:	f1be 0f00 	cmp.w	lr, #0
   136e0:	d12e      	bne.n	13740 <_strtoll_l.isra.0+0x100>
   136e2:	fb02 fc09 	mul.w	ip, r2, r9
   136e6:	f04f 0e01 	mov.w	lr, #1
   136ea:	fb08 cc03 	mla	ip, r8, r3, ip
   136ee:	fba2 2308 	umull	r2, r3, r2, r8
   136f2:	4463      	add	r3, ip
   136f4:	1912      	adds	r2, r2, r4
   136f6:	eb43 73e4 	adc.w	r3, r3, r4, asr #31
   136fa:	f815 4b01 	ldrb.w	r4, [r5], #1
   136fe:	f1a4 0c30 	sub.w	ip, r4, #48	; 0x30
   13702:	f1bc 0f09 	cmp.w	ip, #9
   13706:	bf98      	it	ls
   13708:	4664      	movls	r4, ip
   1370a:	d90c      	bls.n	13726 <_strtoll_l.isra.0+0xe6>
   1370c:	f1a4 0c41 	sub.w	ip, r4, #65	; 0x41
   13710:	f1bc 0f19 	cmp.w	ip, #25
   13714:	bf98      	it	ls
   13716:	3c37      	subls	r4, #55	; 0x37
   13718:	d905      	bls.n	13726 <_strtoll_l.isra.0+0xe6>
   1371a:	f1a4 0c61 	sub.w	ip, r4, #97	; 0x61
   1371e:	f1bc 0f19 	cmp.w	ip, #25
   13722:	d810      	bhi.n	13746 <_strtoll_l.isra.0+0x106>
   13724:	3c57      	subs	r4, #87	; 0x57
   13726:	42b4      	cmp	r4, r6
   13728:	da0d      	bge.n	13746 <_strtoll_l.isra.0+0x106>
   1372a:	4299      	cmp	r1, r3
   1372c:	bf08      	it	eq
   1372e:	4290      	cmpeq	r0, r2
   13730:	bf34      	ite	cc
   13732:	f04f 0c01 	movcc.w	ip, #1
   13736:	f04f 0c00 	movcs.w	ip, #0
   1373a:	ea5c 7ede 	orrs.w	lr, ip, lr, lsr #31
   1373e:	d0c0      	beq.n	136c2 <_strtoll_l.isra.0+0x82>
   13740:	f04f 3eff 	mov.w	lr, #4294967295
   13744:	e7d9      	b.n	136fa <_strtoll_l.isra.0+0xba>
   13746:	f1be 3fff 	cmp.w	lr, #4294967295
   1374a:	d038      	beq.n	137be <_strtoll_l.isra.0+0x17e>
   1374c:	9901      	ldr	r1, [sp, #4]
   1374e:	bb61      	cbnz	r1, 137aa <_strtoll_l.isra.0+0x16a>
   13750:	9900      	ldr	r1, [sp, #0]
   13752:	b129      	cbz	r1, 13760 <_strtoll_l.isra.0+0x120>
   13754:	f1be 0f00 	cmp.w	lr, #0
   13758:	d12b      	bne.n	137b2 <_strtoll_l.isra.0+0x172>
   1375a:	9d02      	ldr	r5, [sp, #8]
   1375c:	9900      	ldr	r1, [sp, #0]
   1375e:	600d      	str	r5, [r1, #0]
   13760:	4610      	mov	r0, r2
   13762:	4619      	mov	r1, r3
   13764:	b005      	add	sp, #20
   13766:	e8bd 8ff0 	ldmia.w	sp!, {r4, r5, r6, r7, r8, r9, sl, fp, pc}
   1376a:	f036 0210 	bics.w	r2, r6, #16
   1376e:	fab6 f386 	clz	r3, r6
   13772:	f105 0502 	add.w	r5, r5, #2
   13776:	783c      	ldrb	r4, [r7, #0]
   13778:	bf08      	it	eq
   1377a:	2201      	moveq	r2, #1
   1377c:	ea4f 1353 	mov.w	r3, r3, lsr #5
   13780:	bf08      	it	eq
   13782:	9201      	streq	r2, [sp, #4]
   13784:	d138      	bne.n	137f8 <_strtoll_l.isra.0+0x1b8>
   13786:	2c30      	cmp	r4, #48	; 0x30
   13788:	d022      	beq.n	137d0 <_strtoll_l.isra.0+0x190>
   1378a:	2b00      	cmp	r3, #0
   1378c:	d03e      	beq.n	1380c <_strtoll_l.isra.0+0x1cc>
   1378e:	f04f 080a 	mov.w	r8, #10
   13792:	f04f 0900 	mov.w	r9, #0
   13796:	260a      	movs	r6, #10
   13798:	9b01      	ldr	r3, [sp, #4]
   1379a:	2b00      	cmp	r3, #0
   1379c:	f43f af7b 	beq.w	13696 <_strtoll_l.isra.0+0x56>
   137a0:	f04f 0a00 	mov.w	sl, #0
   137a4:	f04f 4b00 	mov.w	fp, #2147483648	; 0x80000000
   137a8:	e779      	b.n	1369e <_strtoll_l.isra.0+0x5e>
   137aa:	4252      	negs	r2, r2
   137ac:	eb63 0343 	sbc.w	r3, r3, r3, lsl #1
   137b0:	e7ce      	b.n	13750 <_strtoll_l.isra.0+0x110>
   137b2:	4692      	mov	sl, r2
   137b4:	469b      	mov	fp, r3
   137b6:	4652      	mov	r2, sl
   137b8:	3d01      	subs	r5, #1
   137ba:	465b      	mov	r3, fp
   137bc:	e7ce      	b.n	1375c <_strtoll_l.isra.0+0x11c>
   137be:	9a03      	ldr	r2, [sp, #12]
   137c0:	2322      	movs	r3, #34	; 0x22
   137c2:	6013      	str	r3, [r2, #0]
   137c4:	9b00      	ldr	r3, [sp, #0]
   137c6:	2b00      	cmp	r3, #0
   137c8:	d1f5      	bne.n	137b6 <_strtoll_l.isra.0+0x176>
   137ca:	4652      	mov	r2, sl
   137cc:	465b      	mov	r3, fp
   137ce:	e7c7      	b.n	13760 <_strtoll_l.isra.0+0x120>
   137d0:	782a      	ldrb	r2, [r5, #0]
   137d2:	f002 02df 	and.w	r2, r2, #223	; 0xdf
   137d6:	2a58      	cmp	r2, #88	; 0x58
   137d8:	d107      	bne.n	137ea <_strtoll_l.isra.0+0x1aa>
   137da:	786c      	ldrb	r4, [r5, #1]
   137dc:	f04f 0810 	mov.w	r8, #16
   137e0:	f04f 0900 	mov.w	r9, #0
   137e4:	3502      	adds	r5, #2
   137e6:	2610      	movs	r6, #16
   137e8:	e7d6      	b.n	13798 <_strtoll_l.isra.0+0x158>
   137ea:	b17b      	cbz	r3, 1380c <_strtoll_l.isra.0+0x1cc>
   137ec:	f04f 0808 	mov.w	r8, #8
   137f0:	f04f 0900 	mov.w	r9, #0
   137f4:	2608      	movs	r6, #8
   137f6:	e7cf      	b.n	13798 <_strtoll_l.isra.0+0x158>
   137f8:	2301      	movs	r3, #1
   137fa:	46b0      	mov	r8, r6
   137fc:	ea4f 79e6 	mov.w	r9, r6, asr #31
   13800:	9301      	str	r3, [sp, #4]
   13802:	f04f 0a00 	mov.w	sl, #0
   13806:	f04f 4b00 	mov.w	fp, #2147483648	; 0x80000000
   1380a:	e748      	b.n	1369e <_strtoll_l.isra.0+0x5e>
   1380c:	46b0      	mov	r8, r6
   1380e:	ea4f 79e6 	mov.w	r9, r6, asr #31
   13812:	e7c1      	b.n	13798 <_strtoll_l.isra.0+0x158>

00013814 <strtoll>:
   13814:	f247 23ec 	movw	r3, #29420	; 0x72ec
   13818:	f2c0 0301 	movt	r3, #1
   1381c:	b570      	push	{r4, r5, r6, lr}
   1381e:	b082      	sub	sp, #8
   13820:	681e      	ldr	r6, [r3, #0]
   13822:	f247 1580 	movw	r5, #29056	; 0x7180
   13826:	f2c0 0501 	movt	r5, #1
   1382a:	4613      	mov	r3, r2
   1382c:	460a      	mov	r2, r1
   1382e:	4601      	mov	r1, r0
   13830:	6b74      	ldr	r4, [r6, #52]	; 0x34
   13832:	4630      	mov	r0, r6
   13834:	2c00      	cmp	r4, #0
   13836:	bf08      	it	eq
   13838:	462c      	moveq	r4, r5
   1383a:	9400      	str	r4, [sp, #0]
   1383c:	f7ff ff00 	bl	13640 <_strtoll_l.isra.0>
   13840:	b002      	add	sp, #8
   13842:	bd70      	pop	{r4, r5, r6, pc}

00013844 <_strtoul_l.isra.0>:
   13844:	e92d 4ff0 	stmdb	sp!, {r4, r5, r6, r7, r8, r9, sl, fp, lr}
   13848:	b083      	sub	sp, #12
   1384a:	4688      	mov	r8, r1
   1384c:	4617      	mov	r7, r2
   1384e:	9000      	str	r0, [sp, #0]
   13850:	461e      	mov	r6, r3
   13852:	468b      	mov	fp, r1
   13854:	f8dd a030 	ldr.w	sl, [sp, #48]	; 0x30
   13858:	e000      	b.n	1385c <_strtoul_l.isra.0+0x18>
   1385a:	46a3      	mov	fp, r4
   1385c:	465c      	mov	r4, fp
   1385e:	4650      	mov	r0, sl
   13860:	f814 9b01 	ldrb.w	r9, [r4], #1
   13864:	f7fe fbd6 	bl	12014 <__locale_ctype_ptr_l>
   13868:	4448      	add	r0, r9
   1386a:	7845      	ldrb	r5, [r0, #1]
   1386c:	f015 0508 	ands.w	r5, r5, #8
   13870:	d1f3      	bne.n	1385a <_strtoul_l.isra.0+0x16>
   13872:	464a      	mov	r2, r9
   13874:	2a2d      	cmp	r2, #45	; 0x2d
   13876:	d069      	beq.n	1394c <_strtoul_l.isra.0+0x108>
   13878:	2a2b      	cmp	r2, #43	; 0x2b
   1387a:	bf04      	itt	eq
   1387c:	7822      	ldrbeq	r2, [r4, #0]
   1387e:	f10b 0402 	addeq.w	r4, fp, #2
   13882:	f036 0310 	bics.w	r3, r6, #16
   13886:	d10a      	bne.n	1389e <_strtoul_l.isra.0+0x5a>
   13888:	2a30      	cmp	r2, #48	; 0x30
   1388a:	d064      	beq.n	13956 <_strtoul_l.isra.0+0x112>
   1388c:	b93e      	cbnz	r6, 1389e <_strtoul_l.isra.0+0x5a>
   1388e:	260a      	movs	r6, #10
   13890:	f649 1a99 	movw	sl, #39321	; 0x9999
   13894:	46b3      	mov	fp, r6
   13896:	f6c1 1a99 	movt	sl, #6553	; 0x1999
   1389a:	2105      	movs	r1, #5
   1389c:	e00d      	b.n	138ba <_strtoul_l.isra.0+0x76>
   1389e:	4631      	mov	r1, r6
   138a0:	f04f 30ff 	mov.w	r0, #4294967295
   138a4:	9201      	str	r2, [sp, #4]
   138a6:	f001 feef 	bl	15688 <__udivsi3>
   138aa:	4631      	mov	r1, r6
   138ac:	46b3      	mov	fp, r6
   138ae:	4682      	mov	sl, r0
   138b0:	f04f 30ff 	mov.w	r0, #4294967295
   138b4:	f002 f816 	bl	158e4 <__aeabi_uidivmod>
   138b8:	9a01      	ldr	r2, [sp, #4]
   138ba:	f04f 0e00 	mov.w	lr, #0
   138be:	4670      	mov	r0, lr
   138c0:	e00f      	b.n	138e2 <_strtoul_l.isra.0+0x9e>
   138c2:	eba0 020a 	sub.w	r2, r0, sl
   138c6:	428b      	cmp	r3, r1
   138c8:	fab2 f282 	clz	r2, r2
   138cc:	ea4f 1252 	mov.w	r2, r2, lsr #5
   138d0:	bfd8      	it	le
   138d2:	2200      	movle	r2, #0
   138d4:	b9fa      	cbnz	r2, 13916 <_strtoul_l.isra.0+0xd2>
   138d6:	fb0b 3000 	mla	r0, fp, r0, r3
   138da:	f04f 0e01 	mov.w	lr, #1
   138de:	f814 2b01 	ldrb.w	r2, [r4], #1
   138e2:	f1a2 0330 	sub.w	r3, r2, #48	; 0x30
   138e6:	2b09      	cmp	r3, #9
   138e8:	d90c      	bls.n	13904 <_strtoul_l.isra.0+0xc0>
   138ea:	f1a2 0341 	sub.w	r3, r2, #65	; 0x41
   138ee:	2b19      	cmp	r3, #25
   138f0:	bf98      	it	ls
   138f2:	f1a2 0337 	subls.w	r3, r2, #55	; 0x37
   138f6:	d905      	bls.n	13904 <_strtoul_l.isra.0+0xc0>
   138f8:	f1a2 0361 	sub.w	r3, r2, #97	; 0x61
   138fc:	2b19      	cmp	r3, #25
   138fe:	d80d      	bhi.n	1391c <_strtoul_l.isra.0+0xd8>
   13900:	f1a2 0357 	sub.w	r3, r2, #87	; 0x57
   13904:	429e      	cmp	r6, r3
   13906:	dd09      	ble.n	1391c <_strtoul_l.isra.0+0xd8>
   13908:	4550      	cmp	r0, sl
   1390a:	bf94      	ite	ls
   1390c:	2200      	movls	r2, #0
   1390e:	2201      	movhi	r2, #1
   13910:	ea52 72de 	orrs.w	r2, r2, lr, lsr #31
   13914:	d0d5      	beq.n	138c2 <_strtoul_l.isra.0+0x7e>
   13916:	f04f 3eff 	mov.w	lr, #4294967295
   1391a:	e7e0      	b.n	138de <_strtoul_l.isra.0+0x9a>
   1391c:	f1be 0f00 	cmp.w	lr, #0
   13920:	db0b      	blt.n	1393a <_strtoul_l.isra.0+0xf6>
   13922:	b945      	cbnz	r5, 13936 <_strtoul_l.isra.0+0xf2>
   13924:	b127      	cbz	r7, 13930 <_strtoul_l.isra.0+0xec>
   13926:	f1be 0f00 	cmp.w	lr, #0
   1392a:	d10d      	bne.n	13948 <_strtoul_l.isra.0+0x104>
   1392c:	4644      	mov	r4, r8
   1392e:	603c      	str	r4, [r7, #0]
   13930:	b003      	add	sp, #12
   13932:	e8bd 8ff0 	ldmia.w	sp!, {r4, r5, r6, r7, r8, r9, sl, fp, pc}
   13936:	4240      	negs	r0, r0
   13938:	e7f4      	b.n	13924 <_strtoul_l.isra.0+0xe0>
   1393a:	9a00      	ldr	r2, [sp, #0]
   1393c:	2322      	movs	r3, #34	; 0x22
   1393e:	f04f 30ff 	mov.w	r0, #4294967295
   13942:	6013      	str	r3, [r2, #0]
   13944:	2f00      	cmp	r7, #0
   13946:	d0f3      	beq.n	13930 <_strtoul_l.isra.0+0xec>
   13948:	3c01      	subs	r4, #1
   1394a:	e7f0      	b.n	1392e <_strtoul_l.isra.0+0xea>
   1394c:	7822      	ldrb	r2, [r4, #0]
   1394e:	2501      	movs	r5, #1
   13950:	f10b 0402 	add.w	r4, fp, #2
   13954:	e795      	b.n	13882 <_strtoul_l.isra.0+0x3e>
   13956:	7823      	ldrb	r3, [r4, #0]
   13958:	f003 03df 	and.w	r3, r3, #223	; 0xdf
   1395c:	2b58      	cmp	r3, #88	; 0x58
   1395e:	d107      	bne.n	13970 <_strtoul_l.isra.0+0x12c>
   13960:	2610      	movs	r6, #16
   13962:	7862      	ldrb	r2, [r4, #1]
   13964:	46b3      	mov	fp, r6
   13966:	3402      	adds	r4, #2
   13968:	210f      	movs	r1, #15
   1396a:	f06f 4a70 	mvn.w	sl, #4026531840	; 0xf0000000
   1396e:	e7a4      	b.n	138ba <_strtoul_l.isra.0+0x76>
   13970:	2e00      	cmp	r6, #0
   13972:	d194      	bne.n	1389e <_strtoul_l.isra.0+0x5a>
   13974:	2608      	movs	r6, #8
   13976:	2107      	movs	r1, #7
   13978:	46b3      	mov	fp, r6
   1397a:	f06f 4a60 	mvn.w	sl, #3758096384	; 0xe0000000
   1397e:	e79c      	b.n	138ba <_strtoul_l.isra.0+0x76>

00013980 <strtoul>:
   13980:	f247 23ec 	movw	r3, #29420	; 0x72ec
   13984:	f2c0 0301 	movt	r3, #1
   13988:	b570      	push	{r4, r5, r6, lr}
   1398a:	b082      	sub	sp, #8
   1398c:	681e      	ldr	r6, [r3, #0]
   1398e:	f247 1580 	movw	r5, #29056	; 0x7180
   13992:	f2c0 0501 	movt	r5, #1
   13996:	4613      	mov	r3, r2
   13998:	460a      	mov	r2, r1
   1399a:	4601      	mov	r1, r0
   1399c:	6b74      	ldr	r4, [r6, #52]	; 0x34
   1399e:	4630      	mov	r0, r6
   139a0:	2c00      	cmp	r4, #0
   139a2:	bf08      	it	eq
   139a4:	462c      	moveq	r4, r5
   139a6:	9400      	str	r4, [sp, #0]
   139a8:	f7ff ff4c 	bl	13844 <_strtoul_l.isra.0>
   139ac:	b002      	add	sp, #8
   139ae:	bd70      	pop	{r4, r5, r6, pc}

000139b0 <_strtoull_l.isra.0>:
   139b0:	e92d 4ff0 	stmdb	sp!, {r4, r5, r6, r7, r8, r9, sl, fp, lr}
   139b4:	b085      	sub	sp, #20
   139b6:	4693      	mov	fp, r2
   139b8:	469a      	mov	sl, r3
   139ba:	9102      	str	r1, [sp, #8]
   139bc:	460f      	mov	r7, r1
   139be:	9003      	str	r0, [sp, #12]
   139c0:	9e0e      	ldr	r6, [sp, #56]	; 0x38
   139c2:	e000      	b.n	139c6 <_strtoull_l.isra.0+0x16>
   139c4:	462f      	mov	r7, r5
   139c6:	463d      	mov	r5, r7
   139c8:	4630      	mov	r0, r6
   139ca:	f815 4b01 	ldrb.w	r4, [r5], #1
   139ce:	f7fe fb21 	bl	12014 <__locale_ctype_ptr_l>
   139d2:	4420      	add	r0, r4
   139d4:	7843      	ldrb	r3, [r0, #1]
   139d6:	f013 0308 	ands.w	r3, r3, #8
   139da:	d1f3      	bne.n	139c4 <_strtoull_l.isra.0+0x14>
   139dc:	2c2d      	cmp	r4, #45	; 0x2d
   139de:	f000 8090 	beq.w	13b02 <_strtoull_l.isra.0+0x152>
   139e2:	2c2b      	cmp	r4, #43	; 0x2b
   139e4:	bf09      	itett	eq
   139e6:	9301      	streq	r3, [sp, #4]
   139e8:	9301      	strne	r3, [sp, #4]
   139ea:	782c      	ldrbeq	r4, [r5, #0]
   139ec:	1cbd      	addeq	r5, r7, #2
   139ee:	f03a 0310 	bics.w	r3, sl, #16
   139f2:	d113      	bne.n	13a1c <_strtoull_l.isra.0+0x6c>
   139f4:	2c30      	cmp	r4, #48	; 0x30
   139f6:	f000 8089 	beq.w	13b0c <_strtoull_l.isra.0+0x15c>
   139fa:	f1ba 0f00 	cmp.w	sl, #0
   139fe:	d10d      	bne.n	13a1c <_strtoull_l.isra.0+0x6c>
   13a00:	f649 1799 	movw	r7, #39321	; 0x9999
   13a04:	2205      	movs	r2, #5
   13a06:	f04f 3699 	mov.w	r6, #2576980377	; 0x99999999
   13a0a:	f6c1 1799 	movt	r7, #6553	; 0x1999
   13a0e:	f04f 080a 	mov.w	r8, #10
   13a12:	f04f 0900 	mov.w	r9, #0
   13a16:	f04f 0a0a 	mov.w	sl, #10
   13a1a:	e014      	b.n	13a46 <_strtoull_l.isra.0+0x96>
   13a1c:	ea4f 79ea 	mov.w	r9, sl, asr #31
   13a20:	4652      	mov	r2, sl
   13a22:	f04f 30ff 	mov.w	r0, #4294967295
   13a26:	f04f 31ff 	mov.w	r1, #4294967295
   13a2a:	464b      	mov	r3, r9
   13a2c:	46d0      	mov	r8, sl
   13a2e:	f001 ff69 	bl	15904 <__aeabi_uldivmod>
   13a32:	4652      	mov	r2, sl
   13a34:	464b      	mov	r3, r9
   13a36:	4606      	mov	r6, r0
   13a38:	460f      	mov	r7, r1
   13a3a:	f04f 30ff 	mov.w	r0, #4294967295
   13a3e:	f04f 31ff 	mov.w	r1, #4294967295
   13a42:	f001 ff5f 	bl	15904 <__aeabi_uldivmod>
   13a46:	2000      	movs	r0, #0
   13a48:	2100      	movs	r1, #0
   13a4a:	2300      	movs	r3, #0
   13a4c:	e017      	b.n	13a7e <_strtoull_l.isra.0+0xce>
   13a4e:	42b9      	cmp	r1, r7
   13a50:	bf06      	itte	eq
   13a52:	42b0      	cmpeq	r0, r6
   13a54:	2301      	moveq	r3, #1
   13a56:	2300      	movne	r3, #0
   13a58:	4294      	cmp	r4, r2
   13a5a:	bfd4      	ite	le
   13a5c:	2300      	movle	r3, #0
   13a5e:	f003 0301 	andgt.w	r3, r3, #1
   13a62:	bb6b      	cbnz	r3, 13ac0 <_strtoull_l.isra.0+0x110>
   13a64:	fb00 fe09 	mul.w	lr, r0, r9
   13a68:	2301      	movs	r3, #1
   13a6a:	fb08 ee01 	mla	lr, r8, r1, lr
   13a6e:	fba0 0108 	umull	r0, r1, r0, r8
   13a72:	4471      	add	r1, lr
   13a74:	1900      	adds	r0, r0, r4
   13a76:	eb41 71e4 	adc.w	r1, r1, r4, asr #31
   13a7a:	f815 4b01 	ldrb.w	r4, [r5], #1
   13a7e:	f1a4 0e30 	sub.w	lr, r4, #48	; 0x30
   13a82:	f1be 0f09 	cmp.w	lr, #9
   13a86:	bf98      	it	ls
   13a88:	4674      	movls	r4, lr
   13a8a:	d90c      	bls.n	13aa6 <_strtoull_l.isra.0+0xf6>
   13a8c:	f1a4 0e41 	sub.w	lr, r4, #65	; 0x41
   13a90:	f1be 0f19 	cmp.w	lr, #25
   13a94:	bf98      	it	ls
   13a96:	3c37      	subls	r4, #55	; 0x37
   13a98:	d905      	bls.n	13aa6 <_strtoull_l.isra.0+0xf6>
   13a9a:	f1a4 0e61 	sub.w	lr, r4, #97	; 0x61
   13a9e:	f1be 0f19 	cmp.w	lr, #25
   13aa2:	d810      	bhi.n	13ac6 <_strtoull_l.isra.0+0x116>
   13aa4:	3c57      	subs	r4, #87	; 0x57
   13aa6:	45a2      	cmp	sl, r4
   13aa8:	dd0d      	ble.n	13ac6 <_strtoull_l.isra.0+0x116>
   13aaa:	428f      	cmp	r7, r1
   13aac:	bf08      	it	eq
   13aae:	4286      	cmpeq	r6, r0
   13ab0:	bf34      	ite	cc
   13ab2:	f04f 0e01 	movcc.w	lr, #1
   13ab6:	f04f 0e00 	movcs.w	lr, #0
   13aba:	ea5e 73d3 	orrs.w	r3, lr, r3, lsr #31
   13abe:	d0c6      	beq.n	13a4e <_strtoull_l.isra.0+0x9e>
   13ac0:	f04f 33ff 	mov.w	r3, #4294967295
   13ac4:	e7d9      	b.n	13a7a <_strtoull_l.isra.0+0xca>
   13ac6:	2b00      	cmp	r3, #0
   13ac8:	db0f      	blt.n	13aea <_strtoull_l.isra.0+0x13a>
   13aca:	9a01      	ldr	r2, [sp, #4]
   13acc:	b94a      	cbnz	r2, 13ae2 <_strtoull_l.isra.0+0x132>
   13ace:	f1bb 0f00 	cmp.w	fp, #0
   13ad2:	d003      	beq.n	13adc <_strtoull_l.isra.0+0x12c>
   13ad4:	b99b      	cbnz	r3, 13afe <_strtoull_l.isra.0+0x14e>
   13ad6:	9d02      	ldr	r5, [sp, #8]
   13ad8:	f8cb 5000 	str.w	r5, [fp]
   13adc:	b005      	add	sp, #20
   13ade:	e8bd 8ff0 	ldmia.w	sp!, {r4, r5, r6, r7, r8, r9, sl, fp, pc}
   13ae2:	4240      	negs	r0, r0
   13ae4:	eb61 0141 	sbc.w	r1, r1, r1, lsl #1
   13ae8:	e7f1      	b.n	13ace <_strtoull_l.isra.0+0x11e>
   13aea:	9a03      	ldr	r2, [sp, #12]
   13aec:	2322      	movs	r3, #34	; 0x22
   13aee:	f04f 30ff 	mov.w	r0, #4294967295
   13af2:	f04f 31ff 	mov.w	r1, #4294967295
   13af6:	6013      	str	r3, [r2, #0]
   13af8:	f1bb 0f00 	cmp.w	fp, #0
   13afc:	d0ee      	beq.n	13adc <_strtoull_l.isra.0+0x12c>
   13afe:	3d01      	subs	r5, #1
   13b00:	e7ea      	b.n	13ad8 <_strtoull_l.isra.0+0x128>
   13b02:	782c      	ldrb	r4, [r5, #0]
   13b04:	2301      	movs	r3, #1
   13b06:	1cbd      	adds	r5, r7, #2
   13b08:	9301      	str	r3, [sp, #4]
   13b0a:	e770      	b.n	139ee <_strtoull_l.isra.0+0x3e>
   13b0c:	782b      	ldrb	r3, [r5, #0]
   13b0e:	f003 03df 	and.w	r3, r3, #223	; 0xdf
   13b12:	2b58      	cmp	r3, #88	; 0x58
   13b14:	d10d      	bne.n	13b32 <_strtoull_l.isra.0+0x182>
   13b16:	786c      	ldrb	r4, [r5, #1]
   13b18:	220f      	movs	r2, #15
   13b1a:	3502      	adds	r5, #2
   13b1c:	f04f 36ff 	mov.w	r6, #4294967295
   13b20:	f06f 4770 	mvn.w	r7, #4026531840	; 0xf0000000
   13b24:	f04f 0810 	mov.w	r8, #16
   13b28:	f04f 0900 	mov.w	r9, #0
   13b2c:	f04f 0a10 	mov.w	sl, #16
   13b30:	e789      	b.n	13a46 <_strtoull_l.isra.0+0x96>
   13b32:	f1ba 0f00 	cmp.w	sl, #0
   13b36:	f47f af71 	bne.w	13a1c <_strtoull_l.isra.0+0x6c>
   13b3a:	f04f 36ff 	mov.w	r6, #4294967295
   13b3e:	f06f 4760 	mvn.w	r7, #3758096384	; 0xe0000000
   13b42:	f04f 0808 	mov.w	r8, #8
   13b46:	f04f 0900 	mov.w	r9, #0
   13b4a:	2207      	movs	r2, #7
   13b4c:	f04f 0a08 	mov.w	sl, #8
   13b50:	e779      	b.n	13a46 <_strtoull_l.isra.0+0x96>
   13b52:	bf00      	nop

00013b54 <strtoull>:
   13b54:	f247 23ec 	movw	r3, #29420	; 0x72ec
   13b58:	f2c0 0301 	movt	r3, #1
   13b5c:	b570      	push	{r4, r5, r6, lr}
   13b5e:	b082      	sub	sp, #8
   13b60:	681e      	ldr	r6, [r3, #0]
   13b62:	f247 1580 	movw	r5, #29056	; 0x7180
   13b66:	f2c0 0501 	movt	r5, #1
   13b6a:	4613      	mov	r3, r2
   13b6c:	460a      	mov	r2, r1
   13b6e:	4601      	mov	r1, r0
   13b70:	6b74      	ldr	r4, [r6, #52]	; 0x34
   13b72:	4630      	mov	r0, r6
   13b74:	2c00      	cmp	r4, #0
   13b76:	bf08      	it	eq
   13b78:	462c      	moveq	r4, r5
   13b7a:	9400      	str	r4, [sp, #0]
   13b7c:	f7ff ff18 	bl	139b0 <_strtoull_l.isra.0>
   13b80:	b002      	add	sp, #8
   13b82:	bd70      	pop	{r4, r5, r6, pc}

00013b84 <wcscpy>:
   13b84:	680b      	ldr	r3, [r1, #0]
   13b86:	2200      	movs	r2, #0
   13b88:	6002      	str	r2, [r0, #0]
   13b8a:	4602      	mov	r2, r0
   13b8c:	b12b      	cbz	r3, 13b9a <wcscpy+0x16>
   13b8e:	f842 3b04 	str.w	r3, [r2], #4
   13b92:	f851 3f04 	ldr.w	r3, [r1, #4]!
   13b96:	2b00      	cmp	r3, #0
   13b98:	d1f9      	bne.n	13b8e <wcscpy+0xa>
   13b9a:	2300      	movs	r3, #0
   13b9c:	6013      	str	r3, [r2, #0]
   13b9e:	4770      	bx	lr

00013ba0 <wctob>:
   13ba0:	1c43      	adds	r3, r0, #1
   13ba2:	d025      	beq.n	13bf0 <wctob+0x50>
   13ba4:	b530      	push	{r4, r5, lr}
   13ba6:	b085      	sub	sp, #20
   13ba8:	4604      	mov	r4, r0
   13baa:	2208      	movs	r2, #8
   13bac:	2100      	movs	r1, #0
   13bae:	eb0d 0002 	add.w	r0, sp, r2
   13bb2:	f000 fbf3 	bl	1439c <memset>
   13bb6:	f247 22ec 	movw	r2, #29420	; 0x72ec
   13bba:	f2c0 0201 	movt	r2, #1
   13bbe:	f247 1580 	movw	r5, #29056	; 0x7180
   13bc2:	f2c0 0501 	movt	r5, #1
   13bc6:	ab02      	add	r3, sp, #8
   13bc8:	6810      	ldr	r0, [r2, #0]
   13bca:	4622      	mov	r2, r4
   13bcc:	a901      	add	r1, sp, #4
   13bce:	6b44      	ldr	r4, [r0, #52]	; 0x34
   13bd0:	2c00      	cmp	r4, #0
   13bd2:	bf08      	it	eq
   13bd4:	462c      	moveq	r4, r5
   13bd6:	f8d4 40e0 	ldr.w	r4, [r4, #224]	; 0xe0
   13bda:	47a0      	blx	r4
   13bdc:	2801      	cmp	r0, #1
   13bde:	d103      	bne.n	13be8 <wctob+0x48>
   13be0:	f89d 0004 	ldrb.w	r0, [sp, #4]
   13be4:	b005      	add	sp, #20
   13be6:	bd30      	pop	{r4, r5, pc}
   13be8:	f04f 30ff 	mov.w	r0, #4294967295
   13bec:	b005      	add	sp, #20
   13bee:	bd30      	pop	{r4, r5, pc}
   13bf0:	f04f 30ff 	mov.w	r0, #4294967295
   13bf4:	4770      	bx	lr
   13bf6:	bf00      	nop

00013bf8 <__ascii_wctomb>:
   13bf8:	b141      	cbz	r1, 13c0c <__ascii_wctomb+0x14>
   13bfa:	2aff      	cmp	r2, #255	; 0xff
   13bfc:	bf95      	itete	ls
   13bfe:	700a      	strbls	r2, [r1, #0]
   13c00:	f04f 31ff 	movhi.w	r1, #4294967295
   13c04:	2101      	movls	r1, #1
   13c06:	238a      	movhi	r3, #138	; 0x8a
   13c08:	bf88      	it	hi
   13c0a:	6003      	strhi	r3, [r0, #0]
   13c0c:	4608      	mov	r0, r1
   13c0e:	4770      	bx	lr

00013c10 <rshift>:
   13c10:	b5f0      	push	{r4, r5, r6, r7, lr}
   13c12:	114b      	asrs	r3, r1, #5
   13c14:	6905      	ldr	r5, [r0, #16]
   13c16:	42ab      	cmp	r3, r5
   13c18:	da2a      	bge.n	13c70 <rshift+0x60>
   13c1a:	f011 011f 	ands.w	r1, r1, #31
   13c1e:	f100 0714 	add.w	r7, r0, #20
   13c22:	eb07 0585 	add.w	r5, r7, r5, lsl #2
   13c26:	eb07 0683 	add.w	r6, r7, r3, lsl #2
   13c2a:	d026      	beq.n	13c7a <rshift+0x6a>
   13c2c:	f857 2023 	ldr.w	r2, [r7, r3, lsl #2]
   13c30:	1d34      	adds	r4, r6, #4
   13c32:	42a5      	cmp	r5, r4
   13c34:	f1c1 0c20 	rsb	ip, r1, #32
   13c38:	fa22 f201 	lsr.w	r2, r2, r1
   13c3c:	d933      	bls.n	13ca6 <rshift+0x96>
   13c3e:	46be      	mov	lr, r7
   13c40:	6823      	ldr	r3, [r4, #0]
   13c42:	fa03 f30c 	lsl.w	r3, r3, ip
   13c46:	4313      	orrs	r3, r2
   13c48:	f84e 3b04 	str.w	r3, [lr], #4
   13c4c:	f854 2b04 	ldr.w	r2, [r4], #4
   13c50:	42a5      	cmp	r5, r4
   13c52:	fa22 f201 	lsr.w	r2, r2, r1
   13c56:	d8f3      	bhi.n	13c40 <rshift+0x30>
   13c58:	1bab      	subs	r3, r5, r6
   13c5a:	3b05      	subs	r3, #5
   13c5c:	f023 0303 	bic.w	r3, r3, #3
   13c60:	3304      	adds	r3, #4
   13c62:	443b      	add	r3, r7
   13c64:	601a      	str	r2, [r3, #0]
   13c66:	b102      	cbz	r2, 13c6a <rshift+0x5a>
   13c68:	3304      	adds	r3, #4
   13c6a:	1bdb      	subs	r3, r3, r7
   13c6c:	109b      	asrs	r3, r3, #2
   13c6e:	e016      	b.n	13c9e <rshift+0x8e>
   13c70:	2300      	movs	r3, #0
   13c72:	6103      	str	r3, [r0, #16]
   13c74:	2300      	movs	r3, #0
   13c76:	6143      	str	r3, [r0, #20]
   13c78:	bdf0      	pop	{r4, r5, r6, r7, pc}
   13c7a:	42b5      	cmp	r5, r6
   13c7c:	bf84      	itt	hi
   13c7e:	f100 0210 	addhi.w	r2, r0, #16
   13c82:	4633      	movhi	r3, r6
   13c84:	d9f4      	bls.n	13c70 <rshift+0x60>
   13c86:	f853 1b04 	ldr.w	r1, [r3], #4
   13c8a:	429d      	cmp	r5, r3
   13c8c:	f842 1f04 	str.w	r1, [r2, #4]!
   13c90:	d8f9      	bhi.n	13c86 <rshift+0x76>
   13c92:	43f3      	mvns	r3, r6
   13c94:	442b      	add	r3, r5
   13c96:	f023 0303 	bic.w	r3, r3, #3
   13c9a:	3304      	adds	r3, #4
   13c9c:	109b      	asrs	r3, r3, #2
   13c9e:	6103      	str	r3, [r0, #16]
   13ca0:	2b00      	cmp	r3, #0
   13ca2:	d0e7      	beq.n	13c74 <rshift+0x64>
   13ca4:	bdf0      	pop	{r4, r5, r6, r7, pc}
   13ca6:	463b      	mov	r3, r7
   13ca8:	e7dc      	b.n	13c64 <rshift+0x54>
   13caa:	bf00      	nop

00013cac <__gethex>:
   13cac:	e92d 4ff0 	stmdb	sp!, {r4, r5, r6, r7, r8, r9, sl, fp, lr}
   13cb0:	b08b      	sub	sp, #44	; 0x2c
   13cb2:	4689      	mov	r9, r1
   13cb4:	9005      	str	r0, [sp, #20]
   13cb6:	9816      	ldr	r0, [sp, #88]	; 0x58
   13cb8:	9203      	str	r2, [sp, #12]
   13cba:	9308      	str	r3, [sp, #32]
   13cbc:	f000 fb6c 	bl	14398 <__localeconv_l>
   13cc0:	6803      	ldr	r3, [r0, #0]
   13cc2:	4618      	mov	r0, r3
   13cc4:	461c      	mov	r4, r3
   13cc6:	9302      	str	r3, [sp, #8]
   13cc8:	f7fe fb8c 	bl	123e4 <strlen>
   13ccc:	f8d9 3000 	ldr.w	r3, [r9]
   13cd0:	4622      	mov	r2, r4
   13cd2:	4402      	add	r2, r0
   13cd4:	9000      	str	r0, [sp, #0]
   13cd6:	f812 bc01 	ldrb.w	fp, [r2, #-1]
   13cda:	789a      	ldrb	r2, [r3, #2]
   13cdc:	2a30      	cmp	r2, #48	; 0x30
   13cde:	f040 81af 	bne.w	14040 <__gethex+0x394>
   13ce2:	3303      	adds	r3, #3
   13ce4:	f04f 0800 	mov.w	r8, #0
   13ce8:	461c      	mov	r4, r3
   13cea:	f813 2b01 	ldrb.w	r2, [r3], #1
   13cee:	f108 0801 	add.w	r8, r8, #1
   13cf2:	2a30      	cmp	r2, #48	; 0x30
   13cf4:	d0f8      	beq.n	13ce8 <__gethex+0x3c>
   13cf6:	f646 7654 	movw	r6, #28500	; 0x6f54
   13cfa:	f2c0 0601 	movt	r6, #1
   13cfe:	5cb3      	ldrb	r3, [r6, r2]
   13d00:	2b00      	cmp	r3, #0
   13d02:	f000 80ad 	beq.w	13e60 <__gethex+0x1b4>
   13d06:	7823      	ldrb	r3, [r4, #0]
   13d08:	f04f 0a00 	mov.w	sl, #0
   13d0c:	4655      	mov	r5, sl
   13d0e:	5cf3      	ldrb	r3, [r6, r3]
   13d10:	4627      	mov	r7, r4
   13d12:	b123      	cbz	r3, 13d1e <__gethex+0x72>
   13d14:	f817 3f01 	ldrb.w	r3, [r7, #1]!
   13d18:	5cf3      	ldrb	r3, [r6, r3]
   13d1a:	2b00      	cmp	r3, #0
   13d1c:	d1fa      	bne.n	13d14 <__gethex+0x68>
   13d1e:	9a00      	ldr	r2, [sp, #0]
   13d20:	4638      	mov	r0, r7
   13d22:	9902      	ldr	r1, [sp, #8]
   13d24:	f000 fffe 	bl	14d24 <strncmp>
   13d28:	2800      	cmp	r0, #0
   13d2a:	f000 8094 	beq.w	13e56 <__gethex+0x1aa>
   13d2e:	783b      	ldrb	r3, [r7, #0]
   13d30:	2d00      	cmp	r5, #0
   13d32:	f000 8175 	beq.w	14020 <__gethex+0x374>
   13d36:	1bed      	subs	r5, r5, r7
   13d38:	00aa      	lsls	r2, r5, #2
   13d3a:	9201      	str	r2, [sp, #4]
   13d3c:	2b50      	cmp	r3, #80	; 0x50
   13d3e:	f000 80a5 	beq.w	13e8c <__gethex+0x1e0>
   13d42:	2b70      	cmp	r3, #112	; 0x70
   13d44:	f000 80a2 	beq.w	13e8c <__gethex+0x1e0>
   13d48:	463d      	mov	r5, r7
   13d4a:	f8c9 7000 	str.w	r7, [r9]
   13d4e:	f1ba 0f00 	cmp.w	sl, #0
   13d52:	f040 80cb 	bne.w	13eec <__gethex+0x240>
   13d56:	1b2b      	subs	r3, r5, r4
   13d58:	4651      	mov	r1, sl
   13d5a:	3b01      	subs	r3, #1
   13d5c:	2b07      	cmp	r3, #7
   13d5e:	dd03      	ble.n	13d68 <__gethex+0xbc>
   13d60:	105b      	asrs	r3, r3, #1
   13d62:	3101      	adds	r1, #1
   13d64:	2b07      	cmp	r3, #7
   13d66:	dcfb      	bgt.n	13d60 <__gethex+0xb4>
   13d68:	9805      	ldr	r0, [sp, #20]
   13d6a:	f000 fb69 	bl	14440 <_Balloc>
   13d6e:	42ac      	cmp	r4, r5
   13d70:	4603      	mov	r3, r0
   13d72:	9004      	str	r0, [sp, #16]
   13d74:	f103 0314 	add.w	r3, r3, #20
   13d78:	9307      	str	r3, [sp, #28]
   13d7a:	f080 81d2 	bcs.w	14122 <__gethex+0x476>
   13d7e:	9a00      	ldr	r2, [sp, #0]
   13d80:	2700      	movs	r7, #0
   13d82:	46b8      	mov	r8, r7
   13d84:	4699      	mov	r9, r3
   13d86:	f1c2 0201 	rsb	r2, r2, #1
   13d8a:	9206      	str	r2, [sp, #24]
   13d8c:	e011      	b.n	13db2 <__gethex+0x106>
   13d8e:	2f20      	cmp	r7, #32
   13d90:	bf1c      	itt	ne
   13d92:	463a      	movne	r2, r7
   13d94:	3704      	addne	r7, #4
   13d96:	f000 80b7 	beq.w	13f08 <__gethex+0x25c>
   13d9a:	f815 3c01 	ldrb.w	r3, [r5, #-1]
   13d9e:	4655      	mov	r5, sl
   13da0:	42a5      	cmp	r5, r4
   13da2:	5cf3      	ldrb	r3, [r6, r3]
   13da4:	f003 030f 	and.w	r3, r3, #15
   13da8:	fa03 f302 	lsl.w	r3, r3, r2
   13dac:	ea48 0803 	orr.w	r8, r8, r3
   13db0:	d915      	bls.n	13dde <__gethex+0x132>
   13db2:	f815 3c01 	ldrb.w	r3, [r5, #-1]
   13db6:	f105 3aff 	add.w	sl, r5, #4294967295
   13dba:	455b      	cmp	r3, fp
   13dbc:	d1e7      	bne.n	13d8e <__gethex+0xe2>
   13dbe:	9b06      	ldr	r3, [sp, #24]
   13dc0:	4453      	add	r3, sl
   13dc2:	42a3      	cmp	r3, r4
   13dc4:	d3e3      	bcc.n	13d8e <__gethex+0xe2>
   13dc6:	4618      	mov	r0, r3
   13dc8:	9a00      	ldr	r2, [sp, #0]
   13dca:	9902      	ldr	r1, [sp, #8]
   13dcc:	9309      	str	r3, [sp, #36]	; 0x24
   13dce:	f000 ffa9 	bl	14d24 <strncmp>
   13dd2:	9b09      	ldr	r3, [sp, #36]	; 0x24
   13dd4:	2800      	cmp	r0, #0
   13dd6:	d1da      	bne.n	13d8e <__gethex+0xe2>
   13dd8:	461d      	mov	r5, r3
   13dda:	42a5      	cmp	r5, r4
   13ddc:	d8e9      	bhi.n	13db2 <__gethex+0x106>
   13dde:	9b07      	ldr	r3, [sp, #28]
   13de0:	4640      	mov	r0, r8
   13de2:	f849 8b04 	str.w	r8, [r9], #4
   13de6:	9a04      	ldr	r2, [sp, #16]
   13de8:	eba9 0903 	sub.w	r9, r9, r3
   13dec:	ea4f 03a9 	mov.w	r3, r9, asr #2
   13df0:	6113      	str	r3, [r2, #16]
   13df2:	ea4f 1943 	mov.w	r9, r3, lsl #5
   13df6:	f000 fbe5 	bl	145c4 <__hi0bits>
   13dfa:	9b03      	ldr	r3, [sp, #12]
   13dfc:	681d      	ldr	r5, [r3, #0]
   13dfe:	eba9 0000 	sub.w	r0, r9, r0
   13e02:	42a8      	cmp	r0, r5
   13e04:	f300 80e6 	bgt.w	13fd4 <__gethex+0x328>
   13e08:	bfa8      	it	ge
   13e0a:	2600      	movge	r6, #0
   13e0c:	f2c0 810a 	blt.w	14024 <__gethex+0x378>
   13e10:	9b03      	ldr	r3, [sp, #12]
   13e12:	9a01      	ldr	r2, [sp, #4]
   13e14:	689b      	ldr	r3, [r3, #8]
   13e16:	429a      	cmp	r2, r3
   13e18:	f300 80a1 	bgt.w	13f5e <__gethex+0x2b2>
   13e1c:	9803      	ldr	r0, [sp, #12]
   13e1e:	9901      	ldr	r1, [sp, #4]
   13e20:	6843      	ldr	r3, [r0, #4]
   13e22:	4299      	cmp	r1, r3
   13e24:	f280 80bd 	bge.w	13fa2 <__gethex+0x2f6>
   13e28:	1a5c      	subs	r4, r3, r1
   13e2a:	42a5      	cmp	r5, r4
   13e2c:	f300 810c 	bgt.w	14048 <__gethex+0x39c>
   13e30:	68c2      	ldr	r2, [r0, #12]
   13e32:	2a02      	cmp	r2, #2
   13e34:	f000 817c 	beq.w	14130 <__gethex+0x484>
   13e38:	2a03      	cmp	r2, #3
   13e3a:	f000 815a 	beq.w	140f2 <__gethex+0x446>
   13e3e:	2a01      	cmp	r2, #1
   13e40:	f000 817a 	beq.w	14138 <__gethex+0x48c>
   13e44:	9904      	ldr	r1, [sp, #16]
   13e46:	2450      	movs	r4, #80	; 0x50
   13e48:	9805      	ldr	r0, [sp, #20]
   13e4a:	f000 fb1f 	bl	1448c <_Bfree>
   13e4e:	9a14      	ldr	r2, [sp, #80]	; 0x50
   13e50:	2300      	movs	r3, #0
   13e52:	6013      	str	r3, [r2, #0]
   13e54:	e04f      	b.n	13ef6 <__gethex+0x24a>
   13e56:	2d00      	cmp	r5, #0
   13e58:	f000 8116 	beq.w	14088 <__gethex+0x3dc>
   13e5c:	783b      	ldrb	r3, [r7, #0]
   13e5e:	e76a      	b.n	13d36 <__gethex+0x8a>
   13e60:	9d00      	ldr	r5, [sp, #0]
   13e62:	4620      	mov	r0, r4
   13e64:	9902      	ldr	r1, [sp, #8]
   13e66:	462a      	mov	r2, r5
   13e68:	f000 ff5c 	bl	14d24 <strncmp>
   13e6c:	2800      	cmp	r0, #0
   13e6e:	f000 8082 	beq.w	13f76 <__gethex+0x2ca>
   13e72:	7822      	ldrb	r2, [r4, #0]
   13e74:	4627      	mov	r7, r4
   13e76:	2a50      	cmp	r2, #80	; 0x50
   13e78:	d004      	beq.n	13e84 <__gethex+0x1d8>
   13e7a:	2a70      	cmp	r2, #112	; 0x70
   13e7c:	bf18      	it	ne
   13e7e:	f8c9 7000 	strne.w	r7, [r9]
   13e82:	d133      	bne.n	13eec <__gethex+0x240>
   13e84:	f04f 0a01 	mov.w	sl, #1
   13e88:	2300      	movs	r3, #0
   13e8a:	9301      	str	r3, [sp, #4]
   13e8c:	787b      	ldrb	r3, [r7, #1]
   13e8e:	2b2b      	cmp	r3, #43	; 0x2b
   13e90:	d035      	beq.n	13efe <__gethex+0x252>
   13e92:	2b2d      	cmp	r3, #45	; 0x2d
   13e94:	bf16      	itet	ne
   13e96:	1c78      	addne	r0, r7, #1
   13e98:	f04f 0e01 	moveq.w	lr, #1
   13e9c:	f04f 0e00 	movne.w	lr, #0
   13ea0:	d02f      	beq.n	13f02 <__gethex+0x256>
   13ea2:	5cf3      	ldrb	r3, [r6, r3]
   13ea4:	1e5a      	subs	r2, r3, #1
   13ea6:	2a18      	cmp	r2, #24
   13ea8:	f63f af4e 	bhi.w	13d48 <__gethex+0x9c>
   13eac:	7842      	ldrb	r2, [r0, #1]
   13eae:	3b10      	subs	r3, #16
   13eb0:	3001      	adds	r0, #1
   13eb2:	5cb1      	ldrb	r1, [r6, r2]
   13eb4:	1e4a      	subs	r2, r1, #1
   13eb6:	2a18      	cmp	r2, #24
   13eb8:	d809      	bhi.n	13ece <__gethex+0x222>
   13eba:	250a      	movs	r5, #10
   13ebc:	f810 2f01 	ldrb.w	r2, [r0, #1]!
   13ec0:	fb05 1303 	mla	r3, r5, r3, r1
   13ec4:	5cb1      	ldrb	r1, [r6, r2]
   13ec6:	1e4a      	subs	r2, r1, #1
   13ec8:	3b10      	subs	r3, #16
   13eca:	2a18      	cmp	r2, #24
   13ecc:	d9f6      	bls.n	13ebc <__gethex+0x210>
   13ece:	f1be 0f00 	cmp.w	lr, #0
   13ed2:	d000      	beq.n	13ed6 <__gethex+0x22a>
   13ed4:	425b      	negs	r3, r3
   13ed6:	9a01      	ldr	r2, [sp, #4]
   13ed8:	463d      	mov	r5, r7
   13eda:	4607      	mov	r7, r0
   13edc:	f8c9 7000 	str.w	r7, [r9]
   13ee0:	441a      	add	r2, r3
   13ee2:	9201      	str	r2, [sp, #4]
   13ee4:	f1ba 0f00 	cmp.w	sl, #0
   13ee8:	f43f af35 	beq.w	13d56 <__gethex+0xaa>
   13eec:	f1b8 0f00 	cmp.w	r8, #0
   13ef0:	bf0c      	ite	eq
   13ef2:	2406      	moveq	r4, #6
   13ef4:	2400      	movne	r4, #0
   13ef6:	4620      	mov	r0, r4
   13ef8:	b00b      	add	sp, #44	; 0x2c
   13efa:	e8bd 8ff0 	ldmia.w	sp!, {r4, r5, r6, r7, r8, r9, sl, fp, pc}
   13efe:	f04f 0e00 	mov.w	lr, #0
   13f02:	78bb      	ldrb	r3, [r7, #2]
   13f04:	1cb8      	adds	r0, r7, #2
   13f06:	e7cc      	b.n	13ea2 <__gethex+0x1f6>
   13f08:	2200      	movs	r2, #0
   13f0a:	f8c9 8000 	str.w	r8, [r9]
   13f0e:	2704      	movs	r7, #4
   13f10:	f109 0904 	add.w	r9, r9, #4
   13f14:	4690      	mov	r8, r2
   13f16:	e740      	b.n	13d9a <__gethex+0xee>
   13f18:	9b04      	ldr	r3, [sp, #16]
   13f1a:	689b      	ldr	r3, [r3, #8]
   13f1c:	429e      	cmp	r6, r3
   13f1e:	bfbc      	itt	lt
   13f20:	9b07      	ldrlt	r3, [sp, #28]
   13f22:	4632      	movlt	r2, r6
   13f24:	f280 8137 	bge.w	14196 <__gethex+0x4ea>
   13f28:	9f04      	ldr	r7, [sp, #16]
   13f2a:	2c02      	cmp	r4, #2
   13f2c:	f04f 0001 	mov.w	r0, #1
   13f30:	eb07 0182 	add.w	r1, r7, r2, lsl #2
   13f34:	f102 0201 	add.w	r2, r2, #1
   13f38:	613a      	str	r2, [r7, #16]
   13f3a:	6148      	str	r0, [r1, #20]
   13f3c:	f000 810b 	beq.w	14156 <__gethex+0x4aa>
   13f40:	4296      	cmp	r6, r2
   13f42:	f280 8144 	bge.w	141ce <__gethex+0x522>
   13f46:	2101      	movs	r1, #1
   13f48:	9804      	ldr	r0, [sp, #16]
   13f4a:	f7ff fe61 	bl	13c10 <rshift>
   13f4e:	9b03      	ldr	r3, [sp, #12]
   13f50:	9a01      	ldr	r2, [sp, #4]
   13f52:	689b      	ldr	r3, [r3, #8]
   13f54:	3201      	adds	r2, #1
   13f56:	9201      	str	r2, [sp, #4]
   13f58:	429a      	cmp	r2, r3
   13f5a:	f340 80c6 	ble.w	140ea <__gethex+0x43e>
   13f5e:	9805      	ldr	r0, [sp, #20]
   13f60:	24a3      	movs	r4, #163	; 0xa3
   13f62:	9904      	ldr	r1, [sp, #16]
   13f64:	f000 fa92 	bl	1448c <_Bfree>
   13f68:	9a14      	ldr	r2, [sp, #80]	; 0x50
   13f6a:	2300      	movs	r3, #0
   13f6c:	4620      	mov	r0, r4
   13f6e:	6013      	str	r3, [r2, #0]
   13f70:	b00b      	add	sp, #44	; 0x2c
   13f72:	e8bd 8ff0 	ldmia.w	sp!, {r4, r5, r6, r7, r8, r9, sl, fp, pc}
   13f76:	5d62      	ldrb	r2, [r4, r5]
   13f78:	1967      	adds	r7, r4, r5
   13f7a:	5cb3      	ldrb	r3, [r6, r2]
   13f7c:	2b00      	cmp	r3, #0
   13f7e:	f43f af7a 	beq.w	13e76 <__gethex+0x1ca>
   13f82:	2a30      	cmp	r2, #48	; 0x30
   13f84:	463c      	mov	r4, r7
   13f86:	d104      	bne.n	13f92 <__gethex+0x2e6>
   13f88:	f814 3f01 	ldrb.w	r3, [r4, #1]!
   13f8c:	2b30      	cmp	r3, #48	; 0x30
   13f8e:	d0fb      	beq.n	13f88 <__gethex+0x2dc>
   13f90:	5cf3      	ldrb	r3, [r6, r3]
   13f92:	fab3 fa83 	clz	sl, r3
   13f96:	463d      	mov	r5, r7
   13f98:	f04f 0801 	mov.w	r8, #1
   13f9c:	ea4f 1a5a 	mov.w	sl, sl, lsr #5
   13fa0:	e6b6      	b.n	13d10 <__gethex+0x64>
   13fa2:	2401      	movs	r4, #1
   13fa4:	b156      	cbz	r6, 13fbc <__gethex+0x310>
   13fa6:	9b03      	ldr	r3, [sp, #12]
   13fa8:	68db      	ldr	r3, [r3, #12]
   13faa:	2b02      	cmp	r3, #2
   13fac:	d07a      	beq.n	140a4 <__gethex+0x3f8>
   13fae:	2b03      	cmp	r3, #3
   13fb0:	d07c      	beq.n	140ac <__gethex+0x400>
   13fb2:	2b01      	cmp	r3, #1
   13fb4:	f000 80ac 	beq.w	14110 <__gethex+0x464>
   13fb8:	f044 0410 	orr.w	r4, r4, #16
   13fbc:	9b14      	ldr	r3, [sp, #80]	; 0x50
   13fbe:	4620      	mov	r0, r4
   13fc0:	461a      	mov	r2, r3
   13fc2:	9b04      	ldr	r3, [sp, #16]
   13fc4:	6013      	str	r3, [r2, #0]
   13fc6:	9b08      	ldr	r3, [sp, #32]
   13fc8:	461a      	mov	r2, r3
   13fca:	9b01      	ldr	r3, [sp, #4]
   13fcc:	6013      	str	r3, [r2, #0]
   13fce:	b00b      	add	sp, #44	; 0x2c
   13fd0:	e8bd 8ff0 	ldmia.w	sp!, {r4, r5, r6, r7, r8, r9, sl, fp, pc}
   13fd4:	1b44      	subs	r4, r0, r5
   13fd6:	9804      	ldr	r0, [sp, #16]
   13fd8:	4621      	mov	r1, r4
   13fda:	f000 fe6d 	bl	14cb8 <__any_on>
   13fde:	4606      	mov	r6, r0
   13fe0:	b1b0      	cbz	r0, 14010 <__gethex+0x364>
   13fe2:	1e62      	subs	r2, r4, #1
   13fe4:	9807      	ldr	r0, [sp, #28]
   13fe6:	2601      	movs	r6, #1
   13fe8:	f002 031f 	and.w	r3, r2, #31
   13fec:	1151      	asrs	r1, r2, #5
   13fee:	fa06 f303 	lsl.w	r3, r6, r3
   13ff2:	f850 1021 	ldr.w	r1, [r0, r1, lsl #2]
   13ff6:	420b      	tst	r3, r1
   13ff8:	d00a      	beq.n	14010 <__gethex+0x364>
   13ffa:	42b2      	cmp	r2, r6
   13ffc:	f340 8096 	ble.w	1412c <__gethex+0x480>
   14000:	1ea1      	subs	r1, r4, #2
   14002:	9804      	ldr	r0, [sp, #16]
   14004:	f000 fe58 	bl	14cb8 <__any_on>
   14008:	2800      	cmp	r0, #0
   1400a:	f000 808f 	beq.w	1412c <__gethex+0x480>
   1400e:	2603      	movs	r6, #3
   14010:	9b01      	ldr	r3, [sp, #4]
   14012:	4621      	mov	r1, r4
   14014:	9804      	ldr	r0, [sp, #16]
   14016:	4423      	add	r3, r4
   14018:	9301      	str	r3, [sp, #4]
   1401a:	f7ff fdf9 	bl	13c10 <rshift>
   1401e:	e6f7      	b.n	13e10 <__gethex+0x164>
   14020:	9501      	str	r5, [sp, #4]
   14022:	e68b      	b.n	13d3c <__gethex+0x90>
   14024:	9b01      	ldr	r3, [sp, #4]
   14026:	1a2a      	subs	r2, r5, r0
   14028:	9904      	ldr	r1, [sp, #16]
   1402a:	2600      	movs	r6, #0
   1402c:	9805      	ldr	r0, [sp, #20]
   1402e:	1a9b      	subs	r3, r3, r2
   14030:	9301      	str	r3, [sp, #4]
   14032:	f000 fc09 	bl	14848 <__lshift>
   14036:	4603      	mov	r3, r0
   14038:	9004      	str	r0, [sp, #16]
   1403a:	3314      	adds	r3, #20
   1403c:	9307      	str	r3, [sp, #28]
   1403e:	e6e7      	b.n	13e10 <__gethex+0x164>
   14040:	1c9c      	adds	r4, r3, #2
   14042:	f04f 0800 	mov.w	r8, #0
   14046:	e656      	b.n	13cf6 <__gethex+0x4a>
   14048:	1e67      	subs	r7, r4, #1
   1404a:	2e00      	cmp	r6, #0
   1404c:	d14f      	bne.n	140ee <__gethex+0x442>
   1404e:	b127      	cbz	r7, 1405a <__gethex+0x3ae>
   14050:	4639      	mov	r1, r7
   14052:	9804      	ldr	r0, [sp, #16]
   14054:	f000 fe30 	bl	14cb8 <__any_on>
   14058:	4606      	mov	r6, r0
   1405a:	9907      	ldr	r1, [sp, #28]
   1405c:	117a      	asrs	r2, r7, #5
   1405e:	2301      	movs	r3, #1
   14060:	f007 071f 	and.w	r7, r7, #31
   14064:	fa03 f707 	lsl.w	r7, r3, r7
   14068:	9804      	ldr	r0, [sp, #16]
   1406a:	f851 2022 	ldr.w	r2, [r1, r2, lsl #2]
   1406e:	4621      	mov	r1, r4
   14070:	1b2d      	subs	r5, r5, r4
   14072:	2402      	movs	r4, #2
   14074:	4217      	tst	r7, r2
   14076:	bf18      	it	ne
   14078:	f046 0602 	orrne.w	r6, r6, #2
   1407c:	f7ff fdc8 	bl	13c10 <rshift>
   14080:	9b03      	ldr	r3, [sp, #12]
   14082:	685b      	ldr	r3, [r3, #4]
   14084:	9301      	str	r3, [sp, #4]
   14086:	e78d      	b.n	13fa4 <__gethex+0x2f8>
   14088:	9a00      	ldr	r2, [sp, #0]
   1408a:	18bd      	adds	r5, r7, r2
   1408c:	5cbb      	ldrb	r3, [r7, r2]
   1408e:	462f      	mov	r7, r5
   14090:	5cf2      	ldrb	r2, [r6, r3]
   14092:	2a00      	cmp	r2, #0
   14094:	f43f ae4f 	beq.w	13d36 <__gethex+0x8a>
   14098:	f817 3f01 	ldrb.w	r3, [r7, #1]!
   1409c:	5cf2      	ldrb	r2, [r6, r3]
   1409e:	2a00      	cmp	r2, #0
   140a0:	d1fa      	bne.n	14098 <__gethex+0x3ec>
   140a2:	e648      	b.n	13d36 <__gethex+0x8a>
   140a4:	9b15      	ldr	r3, [sp, #84]	; 0x54
   140a6:	f1c3 0301 	rsb	r3, r3, #1
   140aa:	9315      	str	r3, [sp, #84]	; 0x54
   140ac:	9b15      	ldr	r3, [sp, #84]	; 0x54
   140ae:	2b00      	cmp	r3, #0
   140b0:	d082      	beq.n	13fb8 <__gethex+0x30c>
   140b2:	9b04      	ldr	r3, [sp, #16]
   140b4:	2700      	movs	r7, #0
   140b6:	9a07      	ldr	r2, [sp, #28]
   140b8:	691e      	ldr	r6, [r3, #16]
   140ba:	4611      	mov	r1, r2
   140bc:	4613      	mov	r3, r2
   140be:	ea4f 0986 	mov.w	r9, r6, lsl #2
   140c2:	eb02 0009 	add.w	r0, r2, r9
   140c6:	e004      	b.n	140d2 <__gethex+0x426>
   140c8:	f843 7b04 	str.w	r7, [r3], #4
   140cc:	4298      	cmp	r0, r3
   140ce:	f67f af23 	bls.w	13f18 <__gethex+0x26c>
   140d2:	681a      	ldr	r2, [r3, #0]
   140d4:	f1b2 3fff 	cmp.w	r2, #4294967295
   140d8:	d0f6      	beq.n	140c8 <__gethex+0x41c>
   140da:	2c02      	cmp	r4, #2
   140dc:	f102 0201 	add.w	r2, r2, #1
   140e0:	601a      	str	r2, [r3, #0]
   140e2:	d039      	beq.n	14158 <__gethex+0x4ac>
   140e4:	f015 051f 	ands.w	r5, r5, #31
   140e8:	d14a      	bne.n	14180 <__gethex+0x4d4>
   140ea:	2421      	movs	r4, #33	; 0x21
   140ec:	e766      	b.n	13fbc <__gethex+0x310>
   140ee:	2601      	movs	r6, #1
   140f0:	e7b3      	b.n	1405a <__gethex+0x3ae>
   140f2:	9a15      	ldr	r2, [sp, #84]	; 0x54
   140f4:	2a00      	cmp	r2, #0
   140f6:	f43f aea5 	beq.w	13e44 <__gethex+0x198>
   140fa:	9a08      	ldr	r2, [sp, #32]
   140fc:	2462      	movs	r4, #98	; 0x62
   140fe:	9904      	ldr	r1, [sp, #16]
   14100:	6013      	str	r3, [r2, #0]
   14102:	2301      	movs	r3, #1
   14104:	9a07      	ldr	r2, [sp, #28]
   14106:	610b      	str	r3, [r1, #16]
   14108:	6013      	str	r3, [r2, #0]
   1410a:	9b14      	ldr	r3, [sp, #80]	; 0x50
   1410c:	6019      	str	r1, [r3, #0]
   1410e:	e6f2      	b.n	13ef6 <__gethex+0x24a>
   14110:	07b2      	lsls	r2, r6, #30
   14112:	f57f af51 	bpl.w	13fb8 <__gethex+0x30c>
   14116:	9b07      	ldr	r3, [sp, #28]
   14118:	681b      	ldr	r3, [r3, #0]
   1411a:	431e      	orrs	r6, r3
   1411c:	07f3      	lsls	r3, r6, #31
   1411e:	d4c8      	bmi.n	140b2 <__gethex+0x406>
   14120:	e74a      	b.n	13fb8 <__gethex+0x30c>
   14122:	f8dd 901c 	ldr.w	r9, [sp, #28]
   14126:	f04f 0800 	mov.w	r8, #0
   1412a:	e658      	b.n	13dde <__gethex+0x132>
   1412c:	2602      	movs	r6, #2
   1412e:	e76f      	b.n	14010 <__gethex+0x364>
   14130:	9a15      	ldr	r2, [sp, #84]	; 0x54
   14132:	2a00      	cmp	r2, #0
   14134:	d0e1      	beq.n	140fa <__gethex+0x44e>
   14136:	e685      	b.n	13e44 <__gethex+0x198>
   14138:	42a5      	cmp	r5, r4
   1413a:	f47f ae83 	bne.w	13e44 <__gethex+0x198>
   1413e:	2d01      	cmp	r5, #1
   14140:	dddb      	ble.n	140fa <__gethex+0x44e>
   14142:	1e69      	subs	r1, r5, #1
   14144:	9804      	ldr	r0, [sp, #16]
   14146:	f000 fdb7 	bl	14cb8 <__any_on>
   1414a:	2800      	cmp	r0, #0
   1414c:	f43f ae7a 	beq.w	13e44 <__gethex+0x198>
   14150:	9b03      	ldr	r3, [sp, #12]
   14152:	685b      	ldr	r3, [r3, #4]
   14154:	e7d1      	b.n	140fa <__gethex+0x44e>
   14156:	4619      	mov	r1, r3
   14158:	9b03      	ldr	r3, [sp, #12]
   1415a:	681b      	ldr	r3, [r3, #0]
   1415c:	3b01      	subs	r3, #1
   1415e:	429d      	cmp	r5, r3
   14160:	bf18      	it	ne
   14162:	2422      	movne	r4, #34	; 0x22
   14164:	f47f af2a 	bne.w	13fbc <__gethex+0x310>
   14168:	116a      	asrs	r2, r5, #5
   1416a:	2301      	movs	r3, #1
   1416c:	f005 051f 	and.w	r5, r5, #31
   14170:	f851 2022 	ldr.w	r2, [r1, r2, lsl #2]
   14174:	40ab      	lsls	r3, r5
   14176:	4213      	tst	r3, r2
   14178:	bf14      	ite	ne
   1417a:	2421      	movne	r4, #33	; 0x21
   1417c:	2422      	moveq	r4, #34	; 0x22
   1417e:	e71d      	b.n	13fbc <__gethex+0x310>
   14180:	eb01 0309 	add.w	r3, r1, r9
   14184:	f1c5 0520 	rsb	r5, r5, #32
   14188:	f853 0c04 	ldr.w	r0, [r3, #-4]
   1418c:	f000 fa1a 	bl	145c4 <__hi0bits>
   14190:	42a8      	cmp	r0, r5
   14192:	daaa      	bge.n	140ea <__gethex+0x43e>
   14194:	e6d7      	b.n	13f46 <__gethex+0x29a>
   14196:	9f04      	ldr	r7, [sp, #16]
   14198:	f8dd a014 	ldr.w	sl, [sp, #20]
   1419c:	6879      	ldr	r1, [r7, #4]
   1419e:	4650      	mov	r0, sl
   141a0:	3101      	adds	r1, #1
   141a2:	f000 f94d 	bl	14440 <_Balloc>
   141a6:	693b      	ldr	r3, [r7, #16]
   141a8:	f107 010c 	add.w	r1, r7, #12
   141ac:	3302      	adds	r3, #2
   141ae:	009a      	lsls	r2, r3, #2
   141b0:	4680      	mov	r8, r0
   141b2:	300c      	adds	r0, #12
   141b4:	f7fd ff6e 	bl	12094 <memcpy>
   141b8:	4639      	mov	r1, r7
   141ba:	4650      	mov	r0, sl
   141bc:	f000 f966 	bl	1448c <_Bfree>
   141c0:	f8cd 8010 	str.w	r8, [sp, #16]
   141c4:	f108 0314 	add.w	r3, r8, #20
   141c8:	f8d8 2010 	ldr.w	r2, [r8, #16]
   141cc:	e6ac      	b.n	13f28 <__gethex+0x27c>
   141ce:	4619      	mov	r1, r3
   141d0:	e788      	b.n	140e4 <__gethex+0x438>
   141d2:	bf00      	nop

000141d4 <__match>:
   141d4:	b430      	push	{r4, r5}
   141d6:	6804      	ldr	r4, [r0, #0]
   141d8:	e008      	b.n	141ec <__match+0x18>
   141da:	f814 3f01 	ldrb.w	r3, [r4, #1]!
   141de:	f1a3 0541 	sub.w	r5, r3, #65	; 0x41
   141e2:	2d19      	cmp	r5, #25
   141e4:	bf98      	it	ls
   141e6:	3320      	addls	r3, #32
   141e8:	4293      	cmp	r3, r2
   141ea:	d109      	bne.n	14200 <__match+0x2c>
   141ec:	f811 2b01 	ldrb.w	r2, [r1], #1
   141f0:	2a00      	cmp	r2, #0
   141f2:	d1f2      	bne.n	141da <__match+0x6>
   141f4:	2301      	movs	r3, #1
   141f6:	3401      	adds	r4, #1
   141f8:	6004      	str	r4, [r0, #0]
   141fa:	4618      	mov	r0, r3
   141fc:	bc30      	pop	{r4, r5}
   141fe:	4770      	bx	lr
   14200:	2300      	movs	r3, #0
   14202:	4618      	mov	r0, r3
   14204:	bc30      	pop	{r4, r5}
   14206:	4770      	bx	lr

00014208 <__hexnan>:
   14208:	680b      	ldr	r3, [r1, #0]
   1420a:	e92d 4ff0 	stmdb	sp!, {r4, r5, r6, r7, r8, r9, sl, fp, lr}
   1420e:	b085      	sub	sp, #20
   14210:	1159      	asrs	r1, r3, #5
   14212:	f013 031f 	ands.w	r3, r3, #31
   14216:	9002      	str	r0, [sp, #8]
   14218:	f646 7954 	movw	r9, #28500	; 0x6f54
   1421c:	eb02 0181 	add.w	r1, r2, r1, lsl #2
   14220:	9101      	str	r1, [sp, #4]
   14222:	bf1c      	itt	ne
   14224:	3104      	addne	r1, #4
   14226:	9101      	strne	r1, [sp, #4]
   14228:	9c01      	ldr	r4, [sp, #4]
   1422a:	f2c0 0901 	movt	r9, #1
   1422e:	9303      	str	r3, [sp, #12]
   14230:	2300      	movs	r3, #0
   14232:	4618      	mov	r0, r3
   14234:	469a      	mov	sl, r3
   14236:	f844 3c04 	str.w	r3, [r4, #-4]
   1423a:	469c      	mov	ip, r3
   1423c:	9b02      	ldr	r3, [sp, #8]
   1423e:	f1a4 0804 	sub.w	r8, r4, #4
   14242:	4647      	mov	r7, r8
   14244:	4646      	mov	r6, r8
   14246:	681c      	ldr	r4, [r3, #0]
   14248:	f104 0e01 	add.w	lr, r4, #1
   1424c:	7863      	ldrb	r3, [r4, #1]
   1424e:	2b00      	cmp	r3, #0
   14250:	d032      	beq.n	142b8 <__hexnan+0xb0>
   14252:	f819 1003 	ldrb.w	r1, [r9, r3]
   14256:	2900      	cmp	r1, #0
   14258:	d167      	bne.n	1432a <__hexnan+0x122>
   1425a:	2b20      	cmp	r3, #32
   1425c:	d878      	bhi.n	14350 <__hexnan+0x148>
   1425e:	45d4      	cmp	ip, sl
   14260:	dd24      	ble.n	142ac <__hexnan+0xa4>
   14262:	42be      	cmp	r6, r7
   14264:	bf2c      	ite	cs
   14266:	2300      	movcs	r3, #0
   14268:	2301      	movcc	r3, #1
   1426a:	2807      	cmp	r0, #7
   1426c:	bfc8      	it	gt
   1426e:	2300      	movgt	r3, #0
   14270:	b18b      	cbz	r3, 14296 <__hexnan+0x8e>
   14272:	f1c0 0408 	rsb	r4, r0, #8
   14276:	6830      	ldr	r0, [r6, #0]
   14278:	4633      	mov	r3, r6
   1427a:	00a4      	lsls	r4, r4, #2
   1427c:	f1c4 0b20 	rsb	fp, r4, #32
   14280:	685d      	ldr	r5, [r3, #4]
   14282:	fa05 f10b 	lsl.w	r1, r5, fp
   14286:	4301      	orrs	r1, r0
   14288:	fa25 f004 	lsr.w	r0, r5, r4
   1428c:	6019      	str	r1, [r3, #0]
   1428e:	f843 0f04 	str.w	r0, [r3, #4]!
   14292:	429f      	cmp	r7, r3
   14294:	d8f4      	bhi.n	14280 <__hexnan+0x78>
   14296:	4296      	cmp	r6, r2
   14298:	bf98      	it	ls
   1429a:	2008      	movls	r0, #8
   1429c:	d906      	bls.n	142ac <__hexnan+0xa4>
   1429e:	1f37      	subs	r7, r6, #4
   142a0:	2300      	movs	r3, #0
   142a2:	46e2      	mov	sl, ip
   142a4:	f846 3c04 	str.w	r3, [r6, #-4]
   142a8:	4618      	mov	r0, r3
   142aa:	463e      	mov	r6, r7
   142ac:	4674      	mov	r4, lr
   142ae:	7863      	ldrb	r3, [r4, #1]
   142b0:	f104 0e01 	add.w	lr, r4, #1
   142b4:	2b00      	cmp	r3, #0
   142b6:	d1cc      	bne.n	14252 <__hexnan+0x4a>
   142b8:	f1bc 0f00 	cmp.w	ip, #0
   142bc:	d04a      	beq.n	14354 <__hexnan+0x14c>
   142be:	42be      	cmp	r6, r7
   142c0:	bf2c      	ite	cs
   142c2:	2300      	movcs	r3, #0
   142c4:	2301      	movcc	r3, #1
   142c6:	2807      	cmp	r0, #7
   142c8:	bfc8      	it	gt
   142ca:	2300      	movgt	r3, #0
   142cc:	b18b      	cbz	r3, 142f2 <__hexnan+0xea>
   142ce:	f1c0 0308 	rsb	r3, r0, #8
   142d2:	6834      	ldr	r4, [r6, #0]
   142d4:	4631      	mov	r1, r6
   142d6:	009b      	lsls	r3, r3, #2
   142d8:	f1c3 0e20 	rsb	lr, r3, #32
   142dc:	684d      	ldr	r5, [r1, #4]
   142de:	fa05 f00e 	lsl.w	r0, r5, lr
   142e2:	4320      	orrs	r0, r4
   142e4:	fa25 f403 	lsr.w	r4, r5, r3
   142e8:	6008      	str	r0, [r1, #0]
   142ea:	f841 4f04 	str.w	r4, [r1, #4]!
   142ee:	428f      	cmp	r7, r1
   142f0:	d8f4      	bhi.n	142dc <__hexnan+0xd4>
   142f2:	4296      	cmp	r6, r2
   142f4:	d932      	bls.n	1435c <__hexnan+0x154>
   142f6:	4613      	mov	r3, r2
   142f8:	f856 1b04 	ldr.w	r1, [r6], #4
   142fc:	45b0      	cmp	r8, r6
   142fe:	f843 1b04 	str.w	r1, [r3], #4
   14302:	d2f9      	bcs.n	142f8 <__hexnan+0xf0>
   14304:	2100      	movs	r1, #0
   14306:	f843 1b04 	str.w	r1, [r3], #4
   1430a:	4598      	cmp	r8, r3
   1430c:	d2fb      	bcs.n	14306 <__hexnan+0xfe>
   1430e:	9b01      	ldr	r3, [sp, #4]
   14310:	f853 3c04 	ldr.w	r3, [r3, #-4]
   14314:	b92b      	cbnz	r3, 14322 <__hexnan+0x11a>
   14316:	4542      	cmp	r2, r8
   14318:	d031      	beq.n	1437e <__hexnan+0x176>
   1431a:	f858 3d04 	ldr.w	r3, [r8, #-4]!
   1431e:	2b00      	cmp	r3, #0
   14320:	d0f9      	beq.n	14316 <__hexnan+0x10e>
   14322:	2005      	movs	r0, #5
   14324:	b005      	add	sp, #20
   14326:	e8bd 8ff0 	ldmia.w	sp!, {r4, r5, r6, r7, r8, r9, sl, fp, pc}
   1432a:	3001      	adds	r0, #1
   1432c:	f10c 0c01 	add.w	ip, ip, #1
   14330:	2808      	cmp	r0, #8
   14332:	dd05      	ble.n	14340 <__hexnan+0x138>
   14334:	4296      	cmp	r6, r2
   14336:	d9b9      	bls.n	142ac <__hexnan+0xa4>
   14338:	2300      	movs	r3, #0
   1433a:	3e04      	subs	r6, #4
   1433c:	6033      	str	r3, [r6, #0]
   1433e:	2001      	movs	r0, #1
   14340:	6833      	ldr	r3, [r6, #0]
   14342:	f001 010f 	and.w	r1, r1, #15
   14346:	4674      	mov	r4, lr
   14348:	ea41 1303 	orr.w	r3, r1, r3, lsl #4
   1434c:	6033      	str	r3, [r6, #0]
   1434e:	e7ae      	b.n	142ae <__hexnan+0xa6>
   14350:	2b29      	cmp	r3, #41	; 0x29
   14352:	d01a      	beq.n	1438a <__hexnan+0x182>
   14354:	2004      	movs	r0, #4
   14356:	b005      	add	sp, #20
   14358:	e8bd 8ff0 	ldmia.w	sp!, {r4, r5, r6, r7, r8, r9, sl, fp, pc}
   1435c:	9b03      	ldr	r3, [sp, #12]
   1435e:	2b00      	cmp	r3, #0
   14360:	d0d5      	beq.n	1430e <__hexnan+0x106>
   14362:	9c01      	ldr	r4, [sp, #4]
   14364:	f04f 31ff 	mov.w	r1, #4294967295
   14368:	9b03      	ldr	r3, [sp, #12]
   1436a:	f854 0c04 	ldr.w	r0, [r4, #-4]
   1436e:	f1c3 0320 	rsb	r3, r3, #32
   14372:	fa21 f303 	lsr.w	r3, r1, r3
   14376:	4003      	ands	r3, r0
   14378:	f844 3c04 	str.w	r3, [r4, #-4]
   1437c:	e7ca      	b.n	14314 <__hexnan+0x10c>
   1437e:	2301      	movs	r3, #1
   14380:	2005      	movs	r0, #5
   14382:	6013      	str	r3, [r2, #0]
   14384:	b005      	add	sp, #20
   14386:	e8bd 8ff0 	ldmia.w	sp!, {r4, r5, r6, r7, r8, r9, sl, fp, pc}
   1438a:	9b02      	ldr	r3, [sp, #8]
   1438c:	3402      	adds	r4, #2
   1438e:	601c      	str	r4, [r3, #0]
   14390:	f1bc 0f00 	cmp.w	ip, #0
   14394:	d193      	bne.n	142be <__hexnan+0xb6>
   14396:	e7dd      	b.n	14354 <__hexnan+0x14c>

00014398 <__localeconv_l>:
   14398:	30f0      	adds	r0, #240	; 0xf0
   1439a:	4770      	bx	lr

0001439c <memset>:
   1439c:	b4f0      	push	{r4, r5, r6, r7}
   1439e:	0786      	lsls	r6, r0, #30
   143a0:	d04a      	beq.n	14438 <memset+0x9c>
   143a2:	1e54      	subs	r4, r2, #1
   143a4:	2a00      	cmp	r2, #0
   143a6:	d045      	beq.n	14434 <memset+0x98>
   143a8:	b2ca      	uxtb	r2, r1
   143aa:	4603      	mov	r3, r0
   143ac:	e002      	b.n	143b4 <memset+0x18>
   143ae:	f114 34ff 	adds.w	r4, r4, #4294967295
   143b2:	d33f      	bcc.n	14434 <memset+0x98>
   143b4:	f803 2b01 	strb.w	r2, [r3], #1
   143b8:	079d      	lsls	r5, r3, #30
   143ba:	d1f8      	bne.n	143ae <memset+0x12>
   143bc:	2c03      	cmp	r4, #3
   143be:	d932      	bls.n	14426 <memset+0x8a>
   143c0:	b2cd      	uxtb	r5, r1
   143c2:	2c0f      	cmp	r4, #15
   143c4:	ea45 2505 	orr.w	r5, r5, r5, lsl #8
   143c8:	ea45 4505 	orr.w	r5, r5, r5, lsl #16
   143cc:	d91b      	bls.n	14406 <memset+0x6a>
   143ce:	f1a4 0710 	sub.w	r7, r4, #16
   143d2:	f103 0210 	add.w	r2, r3, #16
   143d6:	f027 060f 	bic.w	r6, r7, #15
   143da:	3620      	adds	r6, #32
   143dc:	441e      	add	r6, r3
   143de:	f842 5c10 	str.w	r5, [r2, #-16]
   143e2:	3210      	adds	r2, #16
   143e4:	f842 5c1c 	str.w	r5, [r2, #-28]
   143e8:	f842 5c18 	str.w	r5, [r2, #-24]
   143ec:	f842 5c14 	str.w	r5, [r2, #-20]
   143f0:	42b2      	cmp	r2, r6
   143f2:	d1f4      	bne.n	143de <memset+0x42>
   143f4:	f004 040f 	and.w	r4, r4, #15
   143f8:	f027 070f 	bic.w	r7, r7, #15
   143fc:	2c03      	cmp	r4, #3
   143fe:	f107 0710 	add.w	r7, r7, #16
   14402:	443b      	add	r3, r7
   14404:	d90f      	bls.n	14426 <memset+0x8a>
   14406:	1f27      	subs	r7, r4, #4
   14408:	461a      	mov	r2, r3
   1440a:	f027 0603 	bic.w	r6, r7, #3
   1440e:	3604      	adds	r6, #4
   14410:	441e      	add	r6, r3
   14412:	f842 5b04 	str.w	r5, [r2], #4
   14416:	4296      	cmp	r6, r2
   14418:	d1fb      	bne.n	14412 <memset+0x76>
   1441a:	f027 0703 	bic.w	r7, r7, #3
   1441e:	f004 0403 	and.w	r4, r4, #3
   14422:	3704      	adds	r7, #4
   14424:	443b      	add	r3, r7
   14426:	b12c      	cbz	r4, 14434 <memset+0x98>
   14428:	b2c9      	uxtb	r1, r1
   1442a:	441c      	add	r4, r3
   1442c:	f803 1b01 	strb.w	r1, [r3], #1
   14430:	429c      	cmp	r4, r3
   14432:	d1fb      	bne.n	1442c <memset+0x90>
   14434:	bcf0      	pop	{r4, r5, r6, r7}
   14436:	4770      	bx	lr
   14438:	4614      	mov	r4, r2
   1443a:	4603      	mov	r3, r0
   1443c:	e7be      	b.n	143bc <memset+0x20>
   1443e:	bf00      	nop

00014440 <_Balloc>:
   14440:	b538      	push	{r3, r4, r5, lr}
   14442:	4605      	mov	r5, r0
   14444:	6cc3      	ldr	r3, [r0, #76]	; 0x4c
   14446:	460c      	mov	r4, r1
   14448:	b14b      	cbz	r3, 1445e <_Balloc+0x1e>
   1444a:	f853 0024 	ldr.w	r0, [r3, r4, lsl #2]
   1444e:	b180      	cbz	r0, 14472 <_Balloc+0x32>
   14450:	6802      	ldr	r2, [r0, #0]
   14452:	f843 2024 	str.w	r2, [r3, r4, lsl #2]
   14456:	2300      	movs	r3, #0
   14458:	6103      	str	r3, [r0, #16]
   1445a:	60c3      	str	r3, [r0, #12]
   1445c:	bd38      	pop	{r3, r4, r5, pc}
   1445e:	2221      	movs	r2, #33	; 0x21
   14460:	2104      	movs	r1, #4
   14462:	f000 fcad 	bl	14dc0 <_calloc_r>
   14466:	64e8      	str	r0, [r5, #76]	; 0x4c
   14468:	4603      	mov	r3, r0
   1446a:	2800      	cmp	r0, #0
   1446c:	d1ed      	bne.n	1444a <_Balloc+0xa>
   1446e:	2000      	movs	r0, #0
   14470:	bd38      	pop	{r3, r4, r5, pc}
   14472:	2101      	movs	r1, #1
   14474:	4628      	mov	r0, r5
   14476:	fa01 f504 	lsl.w	r5, r1, r4
   1447a:	1d6a      	adds	r2, r5, #5
   1447c:	0092      	lsls	r2, r2, #2
   1447e:	f000 fc9f 	bl	14dc0 <_calloc_r>
   14482:	2800      	cmp	r0, #0
   14484:	d0f3      	beq.n	1446e <_Balloc+0x2e>
   14486:	6044      	str	r4, [r0, #4]
   14488:	6085      	str	r5, [r0, #8]
   1448a:	e7e4      	b.n	14456 <_Balloc+0x16>

0001448c <_Bfree>:
   1448c:	b131      	cbz	r1, 1449c <_Bfree+0x10>
   1448e:	6cc3      	ldr	r3, [r0, #76]	; 0x4c
   14490:	684a      	ldr	r2, [r1, #4]
   14492:	f853 0022 	ldr.w	r0, [r3, r2, lsl #2]
   14496:	6008      	str	r0, [r1, #0]
   14498:	f843 1022 	str.w	r1, [r3, r2, lsl #2]
   1449c:	4770      	bx	lr
   1449e:	bf00      	nop

000144a0 <__multadd>:
   144a0:	b5f0      	push	{r4, r5, r6, r7, lr}
   144a2:	f101 0714 	add.w	r7, r1, #20
   144a6:	690c      	ldr	r4, [r1, #16]
   144a8:	b083      	sub	sp, #12
   144aa:	460d      	mov	r5, r1
   144ac:	4606      	mov	r6, r0
   144ae:	f04f 0e00 	mov.w	lr, #0
   144b2:	6838      	ldr	r0, [r7, #0]
   144b4:	f10e 0e01 	add.w	lr, lr, #1
   144b8:	4574      	cmp	r4, lr
   144ba:	b281      	uxth	r1, r0
   144bc:	ea4f 4010 	mov.w	r0, r0, lsr #16
   144c0:	fb02 3301 	mla	r3, r2, r1, r3
   144c4:	ea4f 4113 	mov.w	r1, r3, lsr #16
   144c8:	b29b      	uxth	r3, r3
   144ca:	fb02 1000 	mla	r0, r2, r0, r1
   144ce:	eb03 4100 	add.w	r1, r3, r0, lsl #16
   144d2:	ea4f 4310 	mov.w	r3, r0, lsr #16
   144d6:	f847 1b04 	str.w	r1, [r7], #4
   144da:	dcea      	bgt.n	144b2 <__multadd+0x12>
   144dc:	b13b      	cbz	r3, 144ee <__multadd+0x4e>
   144de:	68aa      	ldr	r2, [r5, #8]
   144e0:	4294      	cmp	r4, r2
   144e2:	da07      	bge.n	144f4 <__multadd+0x54>
   144e4:	eb05 0284 	add.w	r2, r5, r4, lsl #2
   144e8:	3401      	adds	r4, #1
   144ea:	6153      	str	r3, [r2, #20]
   144ec:	612c      	str	r4, [r5, #16]
   144ee:	4628      	mov	r0, r5
   144f0:	b003      	add	sp, #12
   144f2:	bdf0      	pop	{r4, r5, r6, r7, pc}
   144f4:	6869      	ldr	r1, [r5, #4]
   144f6:	4630      	mov	r0, r6
   144f8:	9301      	str	r3, [sp, #4]
   144fa:	3101      	adds	r1, #1
   144fc:	f7ff ffa0 	bl	14440 <_Balloc>
   14500:	692a      	ldr	r2, [r5, #16]
   14502:	f105 010c 	add.w	r1, r5, #12
   14506:	3202      	adds	r2, #2
   14508:	0092      	lsls	r2, r2, #2
   1450a:	4607      	mov	r7, r0
   1450c:	300c      	adds	r0, #12
   1450e:	f7fd fdc1 	bl	12094 <memcpy>
   14512:	6cf2      	ldr	r2, [r6, #76]	; 0x4c
   14514:	6869      	ldr	r1, [r5, #4]
   14516:	9b01      	ldr	r3, [sp, #4]
   14518:	f852 0021 	ldr.w	r0, [r2, r1, lsl #2]
   1451c:	6028      	str	r0, [r5, #0]
   1451e:	f842 5021 	str.w	r5, [r2, r1, lsl #2]
   14522:	463d      	mov	r5, r7
   14524:	e7de      	b.n	144e4 <__multadd+0x44>
   14526:	bf00      	nop

00014528 <__s2b>:
   14528:	e92d 43f8 	stmdb	sp!, {r3, r4, r5, r6, r7, r8, r9, lr}
   1452c:	461f      	mov	r7, r3
   1452e:	f648 6639 	movw	r6, #36409	; 0x8e39
   14532:	3308      	adds	r3, #8
   14534:	f6c3 06e3 	movt	r6, #14563	; 0x38e3
   14538:	4605      	mov	r5, r0
   1453a:	460c      	mov	r4, r1
   1453c:	4690      	mov	r8, r2
   1453e:	fb83 0106 	smull	r0, r1, r3, r6
   14542:	17db      	asrs	r3, r3, #31
   14544:	9e08      	ldr	r6, [sp, #32]
   14546:	ebc3 0261 	rsb	r2, r3, r1, asr #1
   1454a:	2a01      	cmp	r2, #1
   1454c:	dd36      	ble.n	145bc <__s2b+0x94>
   1454e:	2301      	movs	r3, #1
   14550:	2100      	movs	r1, #0
   14552:	005b      	lsls	r3, r3, #1
   14554:	3101      	adds	r1, #1
   14556:	429a      	cmp	r2, r3
   14558:	dcfb      	bgt.n	14552 <__s2b+0x2a>
   1455a:	4628      	mov	r0, r5
   1455c:	f7ff ff70 	bl	14440 <_Balloc>
   14560:	f1b8 0f09 	cmp.w	r8, #9
   14564:	f04f 0301 	mov.w	r3, #1
   14568:	bfdc      	itt	le
   1456a:	340a      	addle	r4, #10
   1456c:	f04f 0809 	movle.w	r8, #9
   14570:	6146      	str	r6, [r0, #20]
   14572:	6103      	str	r3, [r0, #16]
   14574:	dd10      	ble.n	14598 <__s2b+0x70>
   14576:	f104 0909 	add.w	r9, r4, #9
   1457a:	4444      	add	r4, r8
   1457c:	464e      	mov	r6, r9
   1457e:	f816 3b01 	ldrb.w	r3, [r6], #1
   14582:	4601      	mov	r1, r0
   14584:	220a      	movs	r2, #10
   14586:	4628      	mov	r0, r5
   14588:	3b30      	subs	r3, #48	; 0x30
   1458a:	f7ff ff89 	bl	144a0 <__multadd>
   1458e:	42a6      	cmp	r6, r4
   14590:	d1f5      	bne.n	1457e <__s2b+0x56>
   14592:	f1a8 0408 	sub.w	r4, r8, #8
   14596:	444c      	add	r4, r9
   14598:	4547      	cmp	r7, r8
   1459a:	bfc4      	itt	gt
   1459c:	eba7 0708 	subgt.w	r7, r7, r8
   145a0:	193f      	addgt	r7, r7, r4
   145a2:	dd0d      	ble.n	145c0 <__s2b+0x98>
   145a4:	f814 3b01 	ldrb.w	r3, [r4], #1
   145a8:	4601      	mov	r1, r0
   145aa:	220a      	movs	r2, #10
   145ac:	4628      	mov	r0, r5
   145ae:	3b30      	subs	r3, #48	; 0x30
   145b0:	f7ff ff76 	bl	144a0 <__multadd>
   145b4:	42a7      	cmp	r7, r4
   145b6:	d1f5      	bne.n	145a4 <__s2b+0x7c>
   145b8:	e8bd 83f8 	ldmia.w	sp!, {r3, r4, r5, r6, r7, r8, r9, pc}
   145bc:	2100      	movs	r1, #0
   145be:	e7cc      	b.n	1455a <__s2b+0x32>
   145c0:	e8bd 83f8 	ldmia.w	sp!, {r3, r4, r5, r6, r7, r8, r9, pc}

000145c4 <__hi0bits>:
   145c4:	0c02      	lsrs	r2, r0, #16
   145c6:	4603      	mov	r3, r0
   145c8:	2000      	movs	r0, #0
   145ca:	0412      	lsls	r2, r2, #16
   145cc:	b90a      	cbnz	r2, 145d2 <__hi0bits+0xe>
   145ce:	041b      	lsls	r3, r3, #16
   145d0:	2010      	movs	r0, #16
   145d2:	f013 4f7f 	tst.w	r3, #4278190080	; 0xff000000
   145d6:	bf04      	itt	eq
   145d8:	021b      	lsleq	r3, r3, #8
   145da:	3008      	addeq	r0, #8
   145dc:	f013 4f70 	tst.w	r3, #4026531840	; 0xf0000000
   145e0:	bf04      	itt	eq
   145e2:	011b      	lsleq	r3, r3, #4
   145e4:	3004      	addeq	r0, #4
   145e6:	f013 4f40 	tst.w	r3, #3221225472	; 0xc0000000
   145ea:	bf04      	itt	eq
   145ec:	009b      	lsleq	r3, r3, #2
   145ee:	3002      	addeq	r0, #2
   145f0:	2b00      	cmp	r3, #0
   145f2:	db03      	blt.n	145fc <__hi0bits+0x38>
   145f4:	005b      	lsls	r3, r3, #1
   145f6:	bf58      	it	pl
   145f8:	2020      	movpl	r0, #32
   145fa:	d400      	bmi.n	145fe <__hi0bits+0x3a>
   145fc:	4770      	bx	lr
   145fe:	3001      	adds	r0, #1
   14600:	4770      	bx	lr
   14602:	bf00      	nop

00014604 <__lo0bits>:
   14604:	6803      	ldr	r3, [r0, #0]
   14606:	4601      	mov	r1, r0
   14608:	f013 0207 	ands.w	r2, r3, #7
   1460c:	d009      	beq.n	14622 <__lo0bits+0x1e>
   1460e:	07da      	lsls	r2, r3, #31
   14610:	d423      	bmi.n	1465a <__lo0bits+0x56>
   14612:	0798      	lsls	r0, r3, #30
   14614:	bf4b      	itete	mi
   14616:	085b      	lsrmi	r3, r3, #1
   14618:	089b      	lsrpl	r3, r3, #2
   1461a:	2001      	movmi	r0, #1
   1461c:	2002      	movpl	r0, #2
   1461e:	600b      	str	r3, [r1, #0]
   14620:	4770      	bx	lr
   14622:	b298      	uxth	r0, r3
   14624:	b198      	cbz	r0, 1464e <__lo0bits+0x4a>
   14626:	4610      	mov	r0, r2
   14628:	f013 0fff 	tst.w	r3, #255	; 0xff
   1462c:	bf04      	itt	eq
   1462e:	0a1b      	lsreq	r3, r3, #8
   14630:	3008      	addeq	r0, #8
   14632:	071a      	lsls	r2, r3, #28
   14634:	bf04      	itt	eq
   14636:	091b      	lsreq	r3, r3, #4
   14638:	3004      	addeq	r0, #4
   1463a:	079a      	lsls	r2, r3, #30
   1463c:	bf04      	itt	eq
   1463e:	089b      	lsreq	r3, r3, #2
   14640:	3002      	addeq	r0, #2
   14642:	07da      	lsls	r2, r3, #31
   14644:	d407      	bmi.n	14656 <__lo0bits+0x52>
   14646:	085b      	lsrs	r3, r3, #1
   14648:	d104      	bne.n	14654 <__lo0bits+0x50>
   1464a:	2020      	movs	r0, #32
   1464c:	4770      	bx	lr
   1464e:	0c1b      	lsrs	r3, r3, #16
   14650:	2010      	movs	r0, #16
   14652:	e7e9      	b.n	14628 <__lo0bits+0x24>
   14654:	3001      	adds	r0, #1
   14656:	600b      	str	r3, [r1, #0]
   14658:	4770      	bx	lr
   1465a:	2000      	movs	r0, #0
   1465c:	4770      	bx	lr
   1465e:	bf00      	nop

00014660 <__i2b>:
   14660:	b510      	push	{r4, lr}
   14662:	460c      	mov	r4, r1
   14664:	2101      	movs	r1, #1
   14666:	f7ff feeb 	bl	14440 <_Balloc>
   1466a:	2201      	movs	r2, #1
   1466c:	6144      	str	r4, [r0, #20]
   1466e:	6102      	str	r2, [r0, #16]
   14670:	bd10      	pop	{r4, pc}
   14672:	bf00      	nop

00014674 <__multiply>:
   14674:	e92d 4ff0 	stmdb	sp!, {r4, r5, r6, r7, r8, r9, sl, fp, lr}
   14678:	468b      	mov	fp, r1
   1467a:	690c      	ldr	r4, [r1, #16]
   1467c:	b083      	sub	sp, #12
   1467e:	6915      	ldr	r5, [r2, #16]
   14680:	4616      	mov	r6, r2
   14682:	42ac      	cmp	r4, r5
   14684:	da04      	bge.n	14690 <__multiply+0x1c>
   14686:	4622      	mov	r2, r4
   14688:	46b3      	mov	fp, r6
   1468a:	462c      	mov	r4, r5
   1468c:	460e      	mov	r6, r1
   1468e:	4615      	mov	r5, r2
   14690:	f8db 3008 	ldr.w	r3, [fp, #8]
   14694:	eb04 0805 	add.w	r8, r4, r5
   14698:	f8db 1004 	ldr.w	r1, [fp, #4]
   1469c:	4598      	cmp	r8, r3
   1469e:	bfc8      	it	gt
   146a0:	3101      	addgt	r1, #1
   146a2:	f7ff fecd 	bl	14440 <_Balloc>
   146a6:	f100 0914 	add.w	r9, r0, #20
   146aa:	4603      	mov	r3, r0
   146ac:	eb09 0a88 	add.w	sl, r9, r8, lsl #2
   146b0:	9000      	str	r0, [sp, #0]
   146b2:	45d1      	cmp	r9, sl
   146b4:	bf3c      	itt	cc
   146b6:	464b      	movcc	r3, r9
   146b8:	2100      	movcc	r1, #0
   146ba:	d203      	bcs.n	146c4 <__multiply+0x50>
   146bc:	f843 1b04 	str.w	r1, [r3], #4
   146c0:	459a      	cmp	sl, r3
   146c2:	d8fb      	bhi.n	146bc <__multiply+0x48>
   146c4:	f106 0c14 	add.w	ip, r6, #20
   146c8:	f10b 0b14 	add.w	fp, fp, #20
   146cc:	eb0c 0385 	add.w	r3, ip, r5, lsl #2
   146d0:	eb0b 0e84 	add.w	lr, fp, r4, lsl #2
   146d4:	459c      	cmp	ip, r3
   146d6:	bf3c      	itt	cc
   146d8:	f8cd a004 	strcc.w	sl, [sp, #4]
   146dc:	469a      	movcc	sl, r3
   146de:	d24b      	bcs.n	14778 <__multiply+0x104>
   146e0:	f8dc 5000 	ldr.w	r5, [ip]
   146e4:	b2af      	uxth	r7, r5
   146e6:	b1f7      	cbz	r7, 14726 <__multiply+0xb2>
   146e8:	464d      	mov	r5, r9
   146ea:	465e      	mov	r6, fp
   146ec:	2200      	movs	r2, #0
   146ee:	f856 1b04 	ldr.w	r1, [r6], #4
   146f2:	6828      	ldr	r0, [r5, #0]
   146f4:	45b6      	cmp	lr, r6
   146f6:	b28b      	uxth	r3, r1
   146f8:	ea4f 4111 	mov.w	r1, r1, lsr #16
   146fc:	b284      	uxth	r4, r0
   146fe:	ea4f 4010 	mov.w	r0, r0, lsr #16
   14702:	fb07 4303 	mla	r3, r7, r3, r4
   14706:	fb07 0101 	mla	r1, r7, r1, r0
   1470a:	4413      	add	r3, r2
   1470c:	eb01 4213 	add.w	r2, r1, r3, lsr #16
   14710:	b29b      	uxth	r3, r3
   14712:	ea43 4302 	orr.w	r3, r3, r2, lsl #16
   14716:	ea4f 4212 	mov.w	r2, r2, lsr #16
   1471a:	f845 3b04 	str.w	r3, [r5], #4
   1471e:	d8e6      	bhi.n	146ee <__multiply+0x7a>
   14720:	602a      	str	r2, [r5, #0]
   14722:	f8dc 5000 	ldr.w	r5, [ip]
   14726:	0c2d      	lsrs	r5, r5, #16
   14728:	d01e      	beq.n	14768 <__multiply+0xf4>
   1472a:	f8d9 3000 	ldr.w	r3, [r9]
   1472e:	464c      	mov	r4, r9
   14730:	4658      	mov	r0, fp
   14732:	2600      	movs	r6, #0
   14734:	461a      	mov	r2, r3
   14736:	8801      	ldrh	r1, [r0, #0]
   14738:	0c12      	lsrs	r2, r2, #16
   1473a:	b29b      	uxth	r3, r3
   1473c:	fb05 2201 	mla	r2, r5, r1, r2
   14740:	4416      	add	r6, r2
   14742:	ea43 4306 	orr.w	r3, r3, r6, lsl #16
   14746:	f844 3b04 	str.w	r3, [r4], #4
   1474a:	f850 3b04 	ldr.w	r3, [r0], #4
   1474e:	6822      	ldr	r2, [r4, #0]
   14750:	4586      	cmp	lr, r0
   14752:	ea4f 4313 	mov.w	r3, r3, lsr #16
   14756:	b291      	uxth	r1, r2
   14758:	fb05 1303 	mla	r3, r5, r3, r1
   1475c:	eb03 4316 	add.w	r3, r3, r6, lsr #16
   14760:	ea4f 4613 	mov.w	r6, r3, lsr #16
   14764:	d8e7      	bhi.n	14736 <__multiply+0xc2>
   14766:	6023      	str	r3, [r4, #0]
   14768:	f10c 0c04 	add.w	ip, ip, #4
   1476c:	f109 0904 	add.w	r9, r9, #4
   14770:	45e2      	cmp	sl, ip
   14772:	d8b5      	bhi.n	146e0 <__multiply+0x6c>
   14774:	f8dd a004 	ldr.w	sl, [sp, #4]
   14778:	f1b8 0f00 	cmp.w	r8, #0
   1477c:	dd0b      	ble.n	14796 <__multiply+0x122>
   1477e:	f85a 3c04 	ldr.w	r3, [sl, #-4]
   14782:	f1aa 0a04 	sub.w	sl, sl, #4
   14786:	b11b      	cbz	r3, 14790 <__multiply+0x11c>
   14788:	e005      	b.n	14796 <__multiply+0x122>
   1478a:	f85a 3d04 	ldr.w	r3, [sl, #-4]!
   1478e:	b913      	cbnz	r3, 14796 <__multiply+0x122>
   14790:	f1b8 0801 	subs.w	r8, r8, #1
   14794:	d1f9      	bne.n	1478a <__multiply+0x116>
   14796:	9800      	ldr	r0, [sp, #0]
   14798:	f8c0 8010 	str.w	r8, [r0, #16]
   1479c:	b003      	add	sp, #12
   1479e:	e8bd 8ff0 	ldmia.w	sp!, {r4, r5, r6, r7, r8, r9, sl, fp, pc}
   147a2:	bf00      	nop

000147a4 <__pow5mult>:
   147a4:	f012 0303 	ands.w	r3, r2, #3
   147a8:	e92d 41f0 	stmdb	sp!, {r4, r5, r6, r7, r8, lr}
   147ac:	4614      	mov	r4, r2
   147ae:	4607      	mov	r7, r0
   147b0:	bf08      	it	eq
   147b2:	460d      	moveq	r5, r1
   147b4:	d12d      	bne.n	14812 <__pow5mult+0x6e>
   147b6:	10a4      	asrs	r4, r4, #2
   147b8:	d01c      	beq.n	147f4 <__pow5mult+0x50>
   147ba:	6cbe      	ldr	r6, [r7, #72]	; 0x48
   147bc:	b3ae      	cbz	r6, 1482a <__pow5mult+0x86>
   147be:	07e3      	lsls	r3, r4, #31
   147c0:	f04f 0800 	mov.w	r8, #0
   147c4:	d406      	bmi.n	147d4 <__pow5mult+0x30>
   147c6:	1064      	asrs	r4, r4, #1
   147c8:	d014      	beq.n	147f4 <__pow5mult+0x50>
   147ca:	6830      	ldr	r0, [r6, #0]
   147cc:	b1a8      	cbz	r0, 147fa <__pow5mult+0x56>
   147ce:	4606      	mov	r6, r0
   147d0:	07e3      	lsls	r3, r4, #31
   147d2:	d5f8      	bpl.n	147c6 <__pow5mult+0x22>
   147d4:	4632      	mov	r2, r6
   147d6:	4629      	mov	r1, r5
   147d8:	4638      	mov	r0, r7
   147da:	f7ff ff4b 	bl	14674 <__multiply>
   147de:	b1b5      	cbz	r5, 1480e <__pow5mult+0x6a>
   147e0:	686a      	ldr	r2, [r5, #4]
   147e2:	1064      	asrs	r4, r4, #1
   147e4:	6cfb      	ldr	r3, [r7, #76]	; 0x4c
   147e6:	f853 1022 	ldr.w	r1, [r3, r2, lsl #2]
   147ea:	6029      	str	r1, [r5, #0]
   147ec:	f843 5022 	str.w	r5, [r3, r2, lsl #2]
   147f0:	4605      	mov	r5, r0
   147f2:	d1ea      	bne.n	147ca <__pow5mult+0x26>
   147f4:	4628      	mov	r0, r5
   147f6:	e8bd 81f0 	ldmia.w	sp!, {r4, r5, r6, r7, r8, pc}
   147fa:	4632      	mov	r2, r6
   147fc:	4631      	mov	r1, r6
   147fe:	4638      	mov	r0, r7
   14800:	f7ff ff38 	bl	14674 <__multiply>
   14804:	6030      	str	r0, [r6, #0]
   14806:	4606      	mov	r6, r0
   14808:	f8c0 8000 	str.w	r8, [r0]
   1480c:	e7e0      	b.n	147d0 <__pow5mult+0x2c>
   1480e:	4605      	mov	r5, r0
   14810:	e7d9      	b.n	147c6 <__pow5mult+0x22>
   14812:	1e5a      	subs	r2, r3, #1
   14814:	f247 1548 	movw	r5, #29000	; 0x7148
   14818:	f2c0 0501 	movt	r5, #1
   1481c:	2300      	movs	r3, #0
   1481e:	f855 2022 	ldr.w	r2, [r5, r2, lsl #2]
   14822:	f7ff fe3d 	bl	144a0 <__multadd>
   14826:	4605      	mov	r5, r0
   14828:	e7c5      	b.n	147b6 <__pow5mult+0x12>
   1482a:	2101      	movs	r1, #1
   1482c:	4638      	mov	r0, r7
   1482e:	f7ff fe07 	bl	14440 <_Balloc>
   14832:	f240 2371 	movw	r3, #625	; 0x271
   14836:	2201      	movs	r2, #1
   14838:	6143      	str	r3, [r0, #20]
   1483a:	4606      	mov	r6, r0
   1483c:	2300      	movs	r3, #0
   1483e:	6102      	str	r2, [r0, #16]
   14840:	64b8      	str	r0, [r7, #72]	; 0x48
   14842:	6003      	str	r3, [r0, #0]
   14844:	e7bb      	b.n	147be <__pow5mult+0x1a>
   14846:	bf00      	nop

00014848 <__lshift>:
   14848:	e92d 43f8 	stmdb	sp!, {r3, r4, r5, r6, r7, r8, r9, lr}
   1484c:	ea4f 1962 	mov.w	r9, r2, asr #5
   14850:	690f      	ldr	r7, [r1, #16]
   14852:	460d      	mov	r5, r1
   14854:	688b      	ldr	r3, [r1, #8]
   14856:	4690      	mov	r8, r2
   14858:	444f      	add	r7, r9
   1485a:	4606      	mov	r6, r0
   1485c:	1c7c      	adds	r4, r7, #1
   1485e:	6849      	ldr	r1, [r1, #4]
   14860:	429c      	cmp	r4, r3
   14862:	dd03      	ble.n	1486c <__lshift+0x24>
   14864:	005b      	lsls	r3, r3, #1
   14866:	3101      	adds	r1, #1
   14868:	429c      	cmp	r4, r3
   1486a:	dcfb      	bgt.n	14864 <__lshift+0x1c>
   1486c:	4630      	mov	r0, r6
   1486e:	f7ff fde7 	bl	14440 <_Balloc>
   14872:	f1b9 0f00 	cmp.w	r9, #0
   14876:	4686      	mov	lr, r0
   14878:	f100 0314 	add.w	r3, r0, #20
   1487c:	dd06      	ble.n	1488c <__lshift+0x44>
   1487e:	eb03 0289 	add.w	r2, r3, r9, lsl #2
   14882:	2100      	movs	r1, #0
   14884:	f843 1b04 	str.w	r1, [r3], #4
   14888:	429a      	cmp	r2, r3
   1488a:	d1fb      	bne.n	14884 <__lshift+0x3c>
   1488c:	6928      	ldr	r0, [r5, #16]
   1488e:	f018 081f 	ands.w	r8, r8, #31
   14892:	f105 0114 	add.w	r1, r5, #20
   14896:	eb01 0c80 	add.w	ip, r1, r0, lsl #2
   1489a:	d01e      	beq.n	148da <__lshift+0x92>
   1489c:	f1c8 0920 	rsb	r9, r8, #32
   148a0:	2200      	movs	r2, #0
   148a2:	6808      	ldr	r0, [r1, #0]
   148a4:	fa00 f008 	lsl.w	r0, r0, r8
   148a8:	4310      	orrs	r0, r2
   148aa:	f843 0b04 	str.w	r0, [r3], #4
   148ae:	f851 2b04 	ldr.w	r2, [r1], #4
   148b2:	458c      	cmp	ip, r1
   148b4:	fa22 f209 	lsr.w	r2, r2, r9
   148b8:	d8f3      	bhi.n	148a2 <__lshift+0x5a>
   148ba:	601a      	str	r2, [r3, #0]
   148bc:	b102      	cbz	r2, 148c0 <__lshift+0x78>
   148be:	1cbc      	adds	r4, r7, #2
   148c0:	6cf3      	ldr	r3, [r6, #76]	; 0x4c
   148c2:	3c01      	subs	r4, #1
   148c4:	686a      	ldr	r2, [r5, #4]
   148c6:	4670      	mov	r0, lr
   148c8:	f8ce 4010 	str.w	r4, [lr, #16]
   148cc:	f853 1022 	ldr.w	r1, [r3, r2, lsl #2]
   148d0:	6029      	str	r1, [r5, #0]
   148d2:	f843 5022 	str.w	r5, [r3, r2, lsl #2]
   148d6:	e8bd 83f8 	ldmia.w	sp!, {r3, r4, r5, r6, r7, r8, r9, pc}
   148da:	3b04      	subs	r3, #4
   148dc:	f851 2b04 	ldr.w	r2, [r1], #4
   148e0:	458c      	cmp	ip, r1
   148e2:	f843 2f04 	str.w	r2, [r3, #4]!
   148e6:	d8f9      	bhi.n	148dc <__lshift+0x94>
   148e8:	e7ea      	b.n	148c0 <__lshift+0x78>
   148ea:	bf00      	nop

000148ec <__mcmp>:
   148ec:	b430      	push	{r4, r5}
   148ee:	4605      	mov	r5, r0
   148f0:	690a      	ldr	r2, [r1, #16]
   148f2:	6900      	ldr	r0, [r0, #16]
   148f4:	1a80      	subs	r0, r0, r2
   148f6:	d10f      	bne.n	14918 <__mcmp+0x2c>
   148f8:	0092      	lsls	r2, r2, #2
   148fa:	3514      	adds	r5, #20
   148fc:	3114      	adds	r1, #20
   148fe:	18ab      	adds	r3, r5, r2
   14900:	4411      	add	r1, r2
   14902:	e001      	b.n	14908 <__mcmp+0x1c>
   14904:	429d      	cmp	r5, r3
   14906:	d207      	bcs.n	14918 <__mcmp+0x2c>
   14908:	f853 4d04 	ldr.w	r4, [r3, #-4]!
   1490c:	f851 2d04 	ldr.w	r2, [r1, #-4]!
   14910:	4294      	cmp	r4, r2
   14912:	d0f7      	beq.n	14904 <__mcmp+0x18>
   14914:	d302      	bcc.n	1491c <__mcmp+0x30>
   14916:	2001      	movs	r0, #1
   14918:	bc30      	pop	{r4, r5}
   1491a:	4770      	bx	lr
   1491c:	f04f 30ff 	mov.w	r0, #4294967295
   14920:	e7fa      	b.n	14918 <__mcmp+0x2c>
   14922:	bf00      	nop

00014924 <__mdiff>:
   14924:	e92d 43f8 	stmdb	sp!, {r3, r4, r5, r6, r7, r8, r9, lr}
   14928:	460c      	mov	r4, r1
   1492a:	690f      	ldr	r7, [r1, #16]
   1492c:	4615      	mov	r5, r2
   1492e:	6911      	ldr	r1, [r2, #16]
   14930:	1a7f      	subs	r7, r7, r1
   14932:	2f00      	cmp	r7, #0
   14934:	d165      	bne.n	14a02 <__mdiff+0xde>
   14936:	0089      	lsls	r1, r1, #2
   14938:	f104 0e14 	add.w	lr, r4, #20
   1493c:	f102 0914 	add.w	r9, r2, #20
   14940:	eb0e 0301 	add.w	r3, lr, r1
   14944:	4449      	add	r1, r9
   14946:	e001      	b.n	1494c <__mdiff+0x28>
   14948:	459e      	cmp	lr, r3
   1494a:	d26a      	bcs.n	14a22 <__mdiff+0xfe>
   1494c:	f853 6d04 	ldr.w	r6, [r3, #-4]!
   14950:	f851 2d04 	ldr.w	r2, [r1, #-4]!
   14954:	4296      	cmp	r6, r2
   14956:	d0f7      	beq.n	14948 <__mdiff+0x24>
   14958:	bf24      	itt	cs
   1495a:	46c8      	movcs	r8, r9
   1495c:	46f1      	movcs	r9, lr
   1495e:	d369      	bcc.n	14a34 <__mdiff+0x110>
   14960:	6861      	ldr	r1, [r4, #4]
   14962:	464e      	mov	r6, r9
   14964:	f7ff fd6c 	bl	14440 <_Balloc>
   14968:	f8d4 e010 	ldr.w	lr, [r4, #16]
   1496c:	692b      	ldr	r3, [r5, #16]
   1496e:	2200      	movs	r2, #0
   14970:	4645      	mov	r5, r8
   14972:	eb08 0c83 	add.w	ip, r8, r3, lsl #2
   14976:	60c7      	str	r7, [r0, #12]
   14978:	f100 0414 	add.w	r4, r0, #20
   1497c:	eb09 078e 	add.w	r7, r9, lr, lsl #2
   14980:	f856 8b04 	ldr.w	r8, [r6], #4
   14984:	f855 1b04 	ldr.w	r1, [r5], #4
   14988:	fa1f f388 	uxth.w	r3, r8
   1498c:	45ac      	cmp	ip, r5
   1498e:	4413      	add	r3, r2
   14990:	b28a      	uxth	r2, r1
   14992:	eba3 0302 	sub.w	r3, r3, r2
   14996:	ea4f 4211 	mov.w	r2, r1, lsr #16
   1499a:	ebc2 4218 	rsb	r2, r2, r8, lsr #16
   1499e:	eb02 4223 	add.w	r2, r2, r3, asr #16
   149a2:	b29b      	uxth	r3, r3
   149a4:	ea43 4302 	orr.w	r3, r3, r2, lsl #16
   149a8:	ea4f 4222 	mov.w	r2, r2, asr #16
   149ac:	f844 3b04 	str.w	r3, [r4], #4
   149b0:	d8e6      	bhi.n	14980 <__mdiff+0x5c>
   149b2:	42b7      	cmp	r7, r6
   149b4:	d919      	bls.n	149ea <__mdiff+0xc6>
   149b6:	46a4      	mov	ip, r4
   149b8:	4635      	mov	r5, r6
   149ba:	f855 8b04 	ldr.w	r8, [r5], #4
   149be:	42af      	cmp	r7, r5
   149c0:	fa1f f388 	uxth.w	r3, r8
   149c4:	441a      	add	r2, r3
   149c6:	ea4f 4322 	mov.w	r3, r2, asr #16
   149ca:	b291      	uxth	r1, r2
   149cc:	eb03 4218 	add.w	r2, r3, r8, lsr #16
   149d0:	ea41 4302 	orr.w	r3, r1, r2, lsl #16
   149d4:	ea4f 4222 	mov.w	r2, r2, asr #16
   149d8:	f84c 3b04 	str.w	r3, [ip], #4
   149dc:	d8ed      	bhi.n	149ba <__mdiff+0x96>
   149de:	43f6      	mvns	r6, r6
   149e0:	4437      	add	r7, r6
   149e2:	f027 0703 	bic.w	r7, r7, #3
   149e6:	3704      	adds	r7, #4
   149e8:	443c      	add	r4, r7
   149ea:	3c04      	subs	r4, #4
   149ec:	b92b      	cbnz	r3, 149fa <__mdiff+0xd6>
   149ee:	f854 3d04 	ldr.w	r3, [r4, #-4]!
   149f2:	f10e 3eff 	add.w	lr, lr, #4294967295
   149f6:	2b00      	cmp	r3, #0
   149f8:	d0f9      	beq.n	149ee <__mdiff+0xca>
   149fa:	f8c0 e010 	str.w	lr, [r0, #16]
   149fe:	e8bd 83f8 	ldmia.w	sp!, {r3, r4, r5, r6, r7, r8, r9, pc}
   14a02:	bfa2      	ittt	ge
   14a04:	f104 0914 	addge.w	r9, r4, #20
   14a08:	f102 0814 	addge.w	r8, r2, #20
   14a0c:	2700      	movge	r7, #0
   14a0e:	daa7      	bge.n	14960 <__mdiff+0x3c>
   14a10:	4623      	mov	r3, r4
   14a12:	f104 0814 	add.w	r8, r4, #20
   14a16:	f102 0914 	add.w	r9, r2, #20
   14a1a:	4614      	mov	r4, r2
   14a1c:	2701      	movs	r7, #1
   14a1e:	461d      	mov	r5, r3
   14a20:	e79e      	b.n	14960 <__mdiff+0x3c>
   14a22:	2100      	movs	r1, #0
   14a24:	f7ff fd0c 	bl	14440 <_Balloc>
   14a28:	2201      	movs	r2, #1
   14a2a:	2300      	movs	r3, #0
   14a2c:	6102      	str	r2, [r0, #16]
   14a2e:	6143      	str	r3, [r0, #20]
   14a30:	e8bd 83f8 	ldmia.w	sp!, {r3, r4, r5, r6, r7, r8, r9, pc}
   14a34:	4623      	mov	r3, r4
   14a36:	46f0      	mov	r8, lr
   14a38:	462c      	mov	r4, r5
   14a3a:	2701      	movs	r7, #1
   14a3c:	461d      	mov	r5, r3
   14a3e:	e78f      	b.n	14960 <__mdiff+0x3c>

00014a40 <__ulp>:
   14a40:	ee10 2a90 	vmov	r2, s1
   14a44:	2300      	movs	r3, #0
   14a46:	f6c7 73f0 	movt	r3, #32752	; 0x7ff0
   14a4a:	401a      	ands	r2, r3
   14a4c:	f1a2 7350 	sub.w	r3, r2, #54525952	; 0x3400000
   14a50:	2b00      	cmp	r3, #0
   14a52:	dd04      	ble.n	14a5e <__ulp+0x1e>
   14a54:	2000      	movs	r0, #0
   14a56:	4619      	mov	r1, r3
   14a58:	ec41 0b10 	vmov	d0, r0, r1
   14a5c:	4770      	bx	lr
   14a5e:	425b      	negs	r3, r3
   14a60:	151b      	asrs	r3, r3, #20
   14a62:	2b13      	cmp	r3, #19
   14a64:	dd0d      	ble.n	14a82 <__ulp+0x42>
   14a66:	3b14      	subs	r3, #20
   14a68:	2100      	movs	r1, #0
   14a6a:	2b1e      	cmp	r3, #30
   14a6c:	bfdb      	ittet	le
   14a6e:	f1c3 031f 	rsble	r3, r3, #31
   14a72:	2201      	movle	r2, #1
   14a74:	2301      	movgt	r3, #1
   14a76:	fa02 f303 	lslle.w	r3, r2, r3
   14a7a:	4618      	mov	r0, r3
   14a7c:	ec41 0b10 	vmov	d0, r0, r1
   14a80:	4770      	bx	lr
   14a82:	f44f 2200 	mov.w	r2, #524288	; 0x80000
   14a86:	2000      	movs	r0, #0
   14a88:	fa42 f103 	asr.w	r1, r2, r3
   14a8c:	ec41 0b10 	vmov	d0, r0, r1
   14a90:	4770      	bx	lr
   14a92:	bf00      	nop

00014a94 <__b2d>:
   14a94:	b5f8      	push	{r3, r4, r5, r6, r7, lr}
   14a96:	f100 0614 	add.w	r6, r0, #20
   14a9a:	6904      	ldr	r4, [r0, #16]
   14a9c:	eb06 0484 	add.w	r4, r6, r4, lsl #2
   14aa0:	1f27      	subs	r7, r4, #4
   14aa2:	f854 5c04 	ldr.w	r5, [r4, #-4]
   14aa6:	4628      	mov	r0, r5
   14aa8:	f7ff fd8c 	bl	145c4 <__hi0bits>
   14aac:	280a      	cmp	r0, #10
   14aae:	f1c0 0320 	rsb	r3, r0, #32
   14ab2:	600b      	str	r3, [r1, #0]
   14ab4:	dc18      	bgt.n	14ae8 <__b2d+0x54>
   14ab6:	f1c0 0e0b 	rsb	lr, r0, #11
   14aba:	42be      	cmp	r6, r7
   14abc:	fa25 f10e 	lsr.w	r1, r5, lr
   14ac0:	f100 0015 	add.w	r0, r0, #21
   14ac4:	f041 537f 	orr.w	r3, r1, #1069547520	; 0x3fc00000
   14ac8:	bf38      	it	cc
   14aca:	f854 1c08 	ldrcc.w	r1, [r4, #-8]
   14ace:	fa05 f000 	lsl.w	r0, r5, r0
   14ad2:	f443 1340 	orr.w	r3, r3, #3145728	; 0x300000
   14ad6:	bf2c      	ite	cs
   14ad8:	2100      	movcs	r1, #0
   14ada:	fa21 f10e 	lsrcc.w	r1, r1, lr
   14ade:	ea40 0201 	orr.w	r2, r0, r1
   14ae2:	ec43 2b10 	vmov	d0, r2, r3
   14ae6:	bdf8      	pop	{r3, r4, r5, r6, r7, pc}
   14ae8:	42be      	cmp	r6, r7
   14aea:	d220      	bcs.n	14b2e <__b2d+0x9a>
   14aec:	380b      	subs	r0, #11
   14aee:	f854 7c08 	ldr.w	r7, [r4, #-8]
   14af2:	d020      	beq.n	14b36 <__b2d+0xa2>
   14af4:	4085      	lsls	r5, r0
   14af6:	f1a4 0e08 	sub.w	lr, r4, #8
   14afa:	f1c0 0c20 	rsb	ip, r0, #32
   14afe:	4576      	cmp	r6, lr
   14b00:	f045 557f 	orr.w	r5, r5, #1069547520	; 0x3fc00000
   14b04:	fa27 f10c 	lsr.w	r1, r7, ip
   14b08:	f445 1540 	orr.w	r5, r5, #3145728	; 0x300000
   14b0c:	bf38      	it	cc
   14b0e:	fa07 f000 	lslcc.w	r0, r7, r0
   14b12:	ea45 0301 	orr.w	r3, r5, r1
   14b16:	bf37      	itett	cc
   14b18:	f854 1c0c 	ldrcc.w	r1, [r4, #-12]
   14b1c:	fa07 f000 	lslcs.w	r0, r7, r0
   14b20:	fa21 f10c 	lsrcc.w	r1, r1, ip
   14b24:	4308      	orrcc	r0, r1
   14b26:	4602      	mov	r2, r0
   14b28:	ec43 2b10 	vmov	d0, r2, r3
   14b2c:	bdf8      	pop	{r3, r4, r5, r6, r7, pc}
   14b2e:	380b      	subs	r0, #11
   14b30:	bf08      	it	eq
   14b32:	4607      	moveq	r7, r0
   14b34:	d107      	bne.n	14b46 <__b2d+0xb2>
   14b36:	f045 537f 	orr.w	r3, r5, #1069547520	; 0x3fc00000
   14b3a:	463a      	mov	r2, r7
   14b3c:	f443 1340 	orr.w	r3, r3, #3145728	; 0x300000
   14b40:	ec43 2b10 	vmov	d0, r2, r3
   14b44:	bdf8      	pop	{r3, r4, r5, r6, r7, pc}
   14b46:	fa05 f000 	lsl.w	r0, r5, r0
   14b4a:	f040 537f 	orr.w	r3, r0, #1069547520	; 0x3fc00000
   14b4e:	2000      	movs	r0, #0
   14b50:	f443 1340 	orr.w	r3, r3, #3145728	; 0x300000
   14b54:	4602      	mov	r2, r0
   14b56:	e7e7      	b.n	14b28 <__b2d+0x94>

00014b58 <__d2b>:
   14b58:	e92d 43f0 	stmdb	sp!, {r4, r5, r6, r7, r8, r9, lr}
   14b5c:	4688      	mov	r8, r1
   14b5e:	b083      	sub	sp, #12
   14b60:	2101      	movs	r1, #1
   14b62:	ec57 6b10 	vmov	r6, r7, d0
   14b66:	4615      	mov	r5, r2
   14b68:	f7ff fc6a 	bl	14440 <_Balloc>
   14b6c:	463c      	mov	r4, r7
   14b6e:	f3c7 570a 	ubfx	r7, r7, #20, #11
   14b72:	f3c4 0413 	ubfx	r4, r4, #0, #20
   14b76:	4681      	mov	r9, r0
   14b78:	b10f      	cbz	r7, 14b7e <__d2b+0x26>
   14b7a:	f444 1480 	orr.w	r4, r4, #1048576	; 0x100000
   14b7e:	9401      	str	r4, [sp, #4]
   14b80:	b31e      	cbz	r6, 14bca <__d2b+0x72>
   14b82:	a802      	add	r0, sp, #8
   14b84:	f840 6d08 	str.w	r6, [r0, #-8]!
   14b88:	f7ff fd3c 	bl	14604 <__lo0bits>
   14b8c:	2800      	cmp	r0, #0
   14b8e:	d134      	bne.n	14bfa <__d2b+0xa2>
   14b90:	e89d 000c 	ldmia.w	sp, {r2, r3}
   14b94:	f8c9 2014 	str.w	r2, [r9, #20]
   14b98:	2b00      	cmp	r3, #0
   14b9a:	f8c9 3018 	str.w	r3, [r9, #24]
   14b9e:	bf0c      	ite	eq
   14ba0:	2101      	moveq	r1, #1
   14ba2:	2102      	movne	r1, #2
   14ba4:	f8c9 1010 	str.w	r1, [r9, #16]
   14ba8:	b9df      	cbnz	r7, 14be2 <__d2b+0x8a>
   14baa:	eb09 0381 	add.w	r3, r9, r1, lsl #2
   14bae:	f2a0 4032 	subw	r0, r0, #1074	; 0x432
   14bb2:	f8c8 0000 	str.w	r0, [r8]
   14bb6:	6918      	ldr	r0, [r3, #16]
   14bb8:	f7ff fd04 	bl	145c4 <__hi0bits>
   14bbc:	ebc0 1041 	rsb	r0, r0, r1, lsl #5
   14bc0:	6028      	str	r0, [r5, #0]
   14bc2:	4648      	mov	r0, r9
   14bc4:	b003      	add	sp, #12
   14bc6:	e8bd 83f0 	ldmia.w	sp!, {r4, r5, r6, r7, r8, r9, pc}
   14bca:	a801      	add	r0, sp, #4
   14bcc:	f7ff fd1a 	bl	14604 <__lo0bits>
   14bd0:	9b01      	ldr	r3, [sp, #4]
   14bd2:	2101      	movs	r1, #1
   14bd4:	f8c9 1010 	str.w	r1, [r9, #16]
   14bd8:	f8c9 3014 	str.w	r3, [r9, #20]
   14bdc:	3020      	adds	r0, #32
   14bde:	2f00      	cmp	r7, #0
   14be0:	d0e3      	beq.n	14baa <__d2b+0x52>
   14be2:	f2a7 4733 	subw	r7, r7, #1075	; 0x433
   14be6:	f1c0 0335 	rsb	r3, r0, #53	; 0x35
   14bea:	4438      	add	r0, r7
   14bec:	f8c8 0000 	str.w	r0, [r8]
   14bf0:	4648      	mov	r0, r9
   14bf2:	602b      	str	r3, [r5, #0]
   14bf4:	b003      	add	sp, #12
   14bf6:	e8bd 83f0 	ldmia.w	sp!, {r4, r5, r6, r7, r8, r9, pc}
   14bfa:	9b01      	ldr	r3, [sp, #4]
   14bfc:	f1c0 0220 	rsb	r2, r0, #32
   14c00:	9900      	ldr	r1, [sp, #0]
   14c02:	fa03 f202 	lsl.w	r2, r3, r2
   14c06:	40c3      	lsrs	r3, r0
   14c08:	430a      	orrs	r2, r1
   14c0a:	9301      	str	r3, [sp, #4]
   14c0c:	f8c9 2014 	str.w	r2, [r9, #20]
   14c10:	e7c2      	b.n	14b98 <__d2b+0x40>
   14c12:	bf00      	nop

00014c14 <__ratio>:
   14c14:	b530      	push	{r4, r5, lr}
   14c16:	b087      	sub	sp, #28
   14c18:	460c      	mov	r4, r1
   14c1a:	a904      	add	r1, sp, #16
   14c1c:	4605      	mov	r5, r0
   14c1e:	f7ff ff39 	bl	14a94 <__b2d>
   14c22:	4620      	mov	r0, r4
   14c24:	a905      	add	r1, sp, #20
   14c26:	ed8d 0b00 	vstr	d0, [sp]
   14c2a:	f7ff ff33 	bl	14a94 <__b2d>
   14c2e:	6920      	ldr	r0, [r4, #16]
   14c30:	6929      	ldr	r1, [r5, #16]
   14c32:	9a04      	ldr	r2, [sp, #16]
   14c34:	9b05      	ldr	r3, [sp, #20]
   14c36:	1a09      	subs	r1, r1, r0
   14c38:	1ad3      	subs	r3, r2, r3
   14c3a:	eb03 1341 	add.w	r3, r3, r1, lsl #5
   14c3e:	e9dd 0100 	ldrd	r0, r1, [sp]
   14c42:	2b00      	cmp	r3, #0
   14c44:	ed8d 0b02 	vstr	d0, [sp, #8]
   14c48:	e9dd 4502 	ldrd	r4, r5, [sp, #8]
   14c4c:	dd0b      	ble.n	14c66 <__ratio+0x52>
   14c4e:	eb01 5103 	add.w	r1, r1, r3, lsl #20
   14c52:	e9cd 0100 	strd	r0, r1, [sp]
   14c56:	ed9d 7b00 	vldr	d7, [sp]
   14c5a:	ed9d 6b02 	vldr	d6, [sp, #8]
   14c5e:	ee87 0b06 	vdiv.f64	d0, d7, d6
   14c62:	b007      	add	sp, #28
   14c64:	bd30      	pop	{r4, r5, pc}
   14c66:	eba5 5503 	sub.w	r5, r5, r3, lsl #20
   14c6a:	e9cd 4502 	strd	r4, r5, [sp, #8]
   14c6e:	e7f2      	b.n	14c56 <__ratio+0x42>

00014c70 <__copybits>:
   14c70:	b470      	push	{r4, r5, r6}
   14c72:	3901      	subs	r1, #1
   14c74:	6914      	ldr	r4, [r2, #16]
   14c76:	f102 0314 	add.w	r3, r2, #20
   14c7a:	1149      	asrs	r1, r1, #5
   14c7c:	1c4e      	adds	r6, r1, #1
   14c7e:	eb03 0184 	add.w	r1, r3, r4, lsl #2
   14c82:	428b      	cmp	r3, r1
   14c84:	eb00 0686 	add.w	r6, r0, r6, lsl #2
   14c88:	d20c      	bcs.n	14ca4 <__copybits+0x34>
   14c8a:	1f04      	subs	r4, r0, #4
   14c8c:	f853 5b04 	ldr.w	r5, [r3], #4
   14c90:	4299      	cmp	r1, r3
   14c92:	f844 5f04 	str.w	r5, [r4, #4]!
   14c96:	d8f9      	bhi.n	14c8c <__copybits+0x1c>
   14c98:	1a8b      	subs	r3, r1, r2
   14c9a:	3b15      	subs	r3, #21
   14c9c:	f023 0303 	bic.w	r3, r3, #3
   14ca0:	3304      	adds	r3, #4
   14ca2:	4418      	add	r0, r3
   14ca4:	4286      	cmp	r6, r0
   14ca6:	d904      	bls.n	14cb2 <__copybits+0x42>
   14ca8:	2300      	movs	r3, #0
   14caa:	f840 3b04 	str.w	r3, [r0], #4
   14cae:	4286      	cmp	r6, r0
   14cb0:	d8fb      	bhi.n	14caa <__copybits+0x3a>
   14cb2:	bc70      	pop	{r4, r5, r6}
   14cb4:	4770      	bx	lr
   14cb6:	bf00      	nop

00014cb8 <__any_on>:
   14cb8:	6903      	ldr	r3, [r0, #16]
   14cba:	114a      	asrs	r2, r1, #5
   14cbc:	b410      	push	{r4}
   14cbe:	4293      	cmp	r3, r2
   14cc0:	f100 0414 	add.w	r4, r0, #20
   14cc4:	bfb8      	it	lt
   14cc6:	eb04 0383 	addlt.w	r3, r4, r3, lsl #2
   14cca:	db13      	blt.n	14cf4 <__any_on+0x3c>
   14ccc:	dd10      	ble.n	14cf0 <__any_on+0x38>
   14cce:	f011 011f 	ands.w	r1, r1, #31
   14cd2:	d00d      	beq.n	14cf0 <__any_on+0x38>
   14cd4:	f854 0022 	ldr.w	r0, [r4, r2, lsl #2]
   14cd8:	eb04 0382 	add.w	r3, r4, r2, lsl #2
   14cdc:	fa20 f201 	lsr.w	r2, r0, r1
   14ce0:	fa02 f101 	lsl.w	r1, r2, r1
   14ce4:	4288      	cmp	r0, r1
   14ce6:	d005      	beq.n	14cf4 <__any_on+0x3c>
   14ce8:	2001      	movs	r0, #1
   14cea:	f85d 4b04 	ldr.w	r4, [sp], #4
   14cee:	4770      	bx	lr
   14cf0:	eb04 0382 	add.w	r3, r4, r2, lsl #2
   14cf4:	429c      	cmp	r4, r3
   14cf6:	d20d      	bcs.n	14d14 <__any_on+0x5c>
   14cf8:	f853 0c04 	ldr.w	r0, [r3, #-4]
   14cfc:	3b04      	subs	r3, #4
   14cfe:	b120      	cbz	r0, 14d0a <__any_on+0x52>
   14d00:	e7f2      	b.n	14ce8 <__any_on+0x30>
   14d02:	f853 2d04 	ldr.w	r2, [r3, #-4]!
   14d06:	2a00      	cmp	r2, #0
   14d08:	d1ee      	bne.n	14ce8 <__any_on+0x30>
   14d0a:	429c      	cmp	r4, r3
   14d0c:	d3f9      	bcc.n	14d02 <__any_on+0x4a>
   14d0e:	f85d 4b04 	ldr.w	r4, [sp], #4
   14d12:	4770      	bx	lr
   14d14:	2000      	movs	r0, #0
   14d16:	e7e8      	b.n	14cea <__any_on+0x32>

00014d18 <nanf>:
   14d18:	ed9f 0a01 	vldr	s0, [pc, #4]	; 14d20 <nanf+0x8>
   14d1c:	4770      	bx	lr
   14d1e:	bf00      	nop
   14d20:	7fc00000 	.word	0x7fc00000

00014d24 <strncmp>:
   14d24:	2a00      	cmp	r2, #0
   14d26:	d043      	beq.n	14db0 <strncmp+0x8c>
   14d28:	ea40 0301 	orr.w	r3, r0, r1
   14d2c:	f013 0303 	ands.w	r3, r3, #3
   14d30:	b4f0      	push	{r4, r5, r6, r7}
   14d32:	d125      	bne.n	14d80 <strncmp+0x5c>
   14d34:	2a03      	cmp	r2, #3
   14d36:	d923      	bls.n	14d80 <strncmp+0x5c>
   14d38:	6804      	ldr	r4, [r0, #0]
   14d3a:	680d      	ldr	r5, [r1, #0]
   14d3c:	42ac      	cmp	r4, r5
   14d3e:	d11f      	bne.n	14d80 <strncmp+0x5c>
   14d40:	3a04      	subs	r2, #4
   14d42:	d037      	beq.n	14db4 <strncmp+0x90>
   14d44:	f1a4 3501 	sub.w	r5, r4, #16843009	; 0x1010101
   14d48:	ea25 0404 	bic.w	r4, r5, r4
   14d4c:	f014 3f80 	tst.w	r4, #2155905152	; 0x80808080
   14d50:	bf04      	itt	eq
   14d52:	3004      	addeq	r0, #4
   14d54:	3104      	addeq	r1, #4
   14d56:	d00f      	beq.n	14d78 <strncmp+0x54>
   14d58:	e02c      	b.n	14db4 <strncmp+0x90>
   14d5a:	f850 3b04 	ldr.w	r3, [r0], #4
   14d5e:	3104      	adds	r1, #4
   14d60:	682e      	ldr	r6, [r5, #0]
   14d62:	f1a3 3401 	sub.w	r4, r3, #16843009	; 0x1010101
   14d66:	42b3      	cmp	r3, r6
   14d68:	ea24 0403 	bic.w	r4, r4, r3
   14d6c:	d125      	bne.n	14dba <strncmp+0x96>
   14d6e:	3a04      	subs	r2, #4
   14d70:	d020      	beq.n	14db4 <strncmp+0x90>
   14d72:	f014 3f80 	tst.w	r4, #2155905152	; 0x80808080
   14d76:	d11d      	bne.n	14db4 <strncmp+0x90>
   14d78:	2a03      	cmp	r2, #3
   14d7a:	4607      	mov	r7, r0
   14d7c:	460d      	mov	r5, r1
   14d7e:	d8ec      	bhi.n	14d5a <strncmp+0x36>
   14d80:	7803      	ldrb	r3, [r0, #0]
   14d82:	3a01      	subs	r2, #1
   14d84:	780c      	ldrb	r4, [r1, #0]
   14d86:	429c      	cmp	r4, r3
   14d88:	d10f      	bne.n	14daa <strncmp+0x86>
   14d8a:	2a00      	cmp	r2, #0
   14d8c:	bf18      	it	ne
   14d8e:	2c00      	cmpne	r4, #0
   14d90:	d104      	bne.n	14d9c <strncmp+0x78>
   14d92:	e00f      	b.n	14db4 <strncmp+0x90>
   14d94:	2a00      	cmp	r2, #0
   14d96:	bf18      	it	ne
   14d98:	2b00      	cmpne	r3, #0
   14d9a:	d00b      	beq.n	14db4 <strncmp+0x90>
   14d9c:	f810 3f01 	ldrb.w	r3, [r0, #1]!
   14da0:	3a01      	subs	r2, #1
   14da2:	f811 4f01 	ldrb.w	r4, [r1, #1]!
   14da6:	42a3      	cmp	r3, r4
   14da8:	d0f4      	beq.n	14d94 <strncmp+0x70>
   14daa:	1b18      	subs	r0, r3, r4
   14dac:	bcf0      	pop	{r4, r5, r6, r7}
   14dae:	4770      	bx	lr
   14db0:	4610      	mov	r0, r2
   14db2:	4770      	bx	lr
   14db4:	2000      	movs	r0, #0
   14db6:	bcf0      	pop	{r4, r5, r6, r7}
   14db8:	4770      	bx	lr
   14dba:	4629      	mov	r1, r5
   14dbc:	4638      	mov	r0, r7
   14dbe:	e7df      	b.n	14d80 <strncmp+0x5c>

00014dc0 <_calloc_r>:
   14dc0:	b510      	push	{r4, lr}
   14dc2:	fb02 f101 	mul.w	r1, r2, r1
   14dc6:	f000 f82d 	bl	14e24 <_malloc_r>
   14dca:	4604      	mov	r4, r0
   14dcc:	b310      	cbz	r0, 14e14 <_calloc_r+0x54>
   14dce:	f850 2c04 	ldr.w	r2, [r0, #-4]
   14dd2:	f022 0203 	bic.w	r2, r2, #3
   14dd6:	3a04      	subs	r2, #4
   14dd8:	2a24      	cmp	r2, #36	; 0x24
   14dda:	d81d      	bhi.n	14e18 <_calloc_r+0x58>
   14ddc:	2a13      	cmp	r2, #19
   14dde:	bf98      	it	ls
   14de0:	4602      	movls	r2, r0
   14de2:	d913      	bls.n	14e0c <_calloc_r+0x4c>
   14de4:	2a1b      	cmp	r2, #27
   14de6:	f04f 0300 	mov.w	r3, #0
   14dea:	bf98      	it	ls
   14dec:	f100 0208 	addls.w	r2, r0, #8
   14df0:	6003      	str	r3, [r0, #0]
   14df2:	6043      	str	r3, [r0, #4]
   14df4:	d90a      	bls.n	14e0c <_calloc_r+0x4c>
   14df6:	2a24      	cmp	r2, #36	; 0x24
   14df8:	6083      	str	r3, [r0, #8]
   14dfa:	bf14      	ite	ne
   14dfc:	f100 0210 	addne.w	r2, r0, #16
   14e00:	f100 0218 	addeq.w	r2, r0, #24
   14e04:	60c3      	str	r3, [r0, #12]
   14e06:	bf04      	itt	eq
   14e08:	6103      	streq	r3, [r0, #16]
   14e0a:	6143      	streq	r3, [r0, #20]
   14e0c:	2300      	movs	r3, #0
   14e0e:	6013      	str	r3, [r2, #0]
   14e10:	6053      	str	r3, [r2, #4]
   14e12:	6093      	str	r3, [r2, #8]
   14e14:	4620      	mov	r0, r4
   14e16:	bd10      	pop	{r4, pc}
   14e18:	2100      	movs	r1, #0
   14e1a:	f7ff fabf 	bl	1439c <memset>
   14e1e:	4620      	mov	r0, r4
   14e20:	bd10      	pop	{r4, pc}
   14e22:	bf00      	nop

00014e24 <_malloc_r>:
   14e24:	e92d 4ff0 	stmdb	sp!, {r4, r5, r6, r7, r8, r9, sl, fp, lr}
   14e28:	f101 050b 	add.w	r5, r1, #11
   14e2c:	2d16      	cmp	r5, #22
   14e2e:	b083      	sub	sp, #12
   14e30:	4606      	mov	r6, r0
   14e32:	f240 80a7 	bls.w	14f84 <_malloc_r+0x160>
   14e36:	f025 0507 	bic.w	r5, r5, #7
   14e3a:	42a9      	cmp	r1, r5
   14e3c:	bf94      	ite	ls
   14e3e:	2100      	movls	r1, #0
   14e40:	2101      	movhi	r1, #1
   14e42:	ea51 73d5 	orrs.w	r3, r1, r5, lsr #31
   14e46:	f040 80c4 	bne.w	14fd2 <_malloc_r+0x1ae>
   14e4a:	f000 fab1 	bl	153b0 <__malloc_lock>
   14e4e:	f5b5 7ffc 	cmp.w	r5, #504	; 0x1f8
   14e52:	f0c0 82a7 	bcc.w	153a4 <_malloc_r+0x580>
   14e56:	0a6b      	lsrs	r3, r5, #9
   14e58:	f000 80c2 	beq.w	14fe0 <_malloc_r+0x1bc>
   14e5c:	2b04      	cmp	r3, #4
   14e5e:	f200 8141 	bhi.w	150e4 <_malloc_r+0x2c0>
   14e62:	09ab      	lsrs	r3, r5, #6
   14e64:	f103 0439 	add.w	r4, r3, #57	; 0x39
   14e68:	f103 0e38 	add.w	lr, r3, #56	; 0x38
   14e6c:	00e3      	lsls	r3, r4, #3
   14e6e:	f247 7718 	movw	r7, #30488	; 0x7718
   14e72:	f2c0 0701 	movt	r7, #1
   14e76:	443b      	add	r3, r7
   14e78:	f1a3 0008 	sub.w	r0, r3, #8
   14e7c:	685b      	ldr	r3, [r3, #4]
   14e7e:	4298      	cmp	r0, r3
   14e80:	d106      	bne.n	14e90 <_malloc_r+0x6c>
   14e82:	e00c      	b.n	14e9e <_malloc_r+0x7a>
   14e84:	2900      	cmp	r1, #0
   14e86:	f280 80b1 	bge.w	14fec <_malloc_r+0x1c8>
   14e8a:	68db      	ldr	r3, [r3, #12]
   14e8c:	4298      	cmp	r0, r3
   14e8e:	d006      	beq.n	14e9e <_malloc_r+0x7a>
   14e90:	685a      	ldr	r2, [r3, #4]
   14e92:	f022 0203 	bic.w	r2, r2, #3
   14e96:	1b51      	subs	r1, r2, r5
   14e98:	290f      	cmp	r1, #15
   14e9a:	ddf3      	ble.n	14e84 <_malloc_r+0x60>
   14e9c:	4674      	mov	r4, lr
   14e9e:	f8d7 c010 	ldr.w	ip, [r7, #16]
   14ea2:	f8df e508 	ldr.w	lr, [pc, #1288]	; 153ac <_malloc_r+0x588>
   14ea6:	45f4      	cmp	ip, lr
   14ea8:	bf08      	it	eq
   14eaa:	687b      	ldreq	r3, [r7, #4]
   14eac:	d027      	beq.n	14efe <_malloc_r+0xda>
   14eae:	f8dc 3004 	ldr.w	r3, [ip, #4]
   14eb2:	f023 0303 	bic.w	r3, r3, #3
   14eb6:	1b5a      	subs	r2, r3, r5
   14eb8:	2a0f      	cmp	r2, #15
   14eba:	f300 8143 	bgt.w	15144 <_malloc_r+0x320>
   14ebe:	2a00      	cmp	r2, #0
   14ec0:	f8c7 e014 	str.w	lr, [r7, #20]
   14ec4:	f8c7 e010 	str.w	lr, [r7, #16]
   14ec8:	f280 80a2 	bge.w	15010 <_malloc_r+0x1ec>
   14ecc:	f5b3 7f00 	cmp.w	r3, #512	; 0x200
   14ed0:	f080 8114 	bcs.w	150fc <_malloc_r+0x2d8>
   14ed4:	08d9      	lsrs	r1, r3, #3
   14ed6:	2301      	movs	r3, #1
   14ed8:	18c8      	adds	r0, r1, r3
   14eda:	687a      	ldr	r2, [r7, #4]
   14edc:	1089      	asrs	r1, r1, #2
   14ede:	408b      	lsls	r3, r1
   14ee0:	f857 1030 	ldr.w	r1, [r7, r0, lsl #3]
   14ee4:	4313      	orrs	r3, r2
   14ee6:	eb07 02c0 	add.w	r2, r7, r0, lsl #3
   14eea:	607b      	str	r3, [r7, #4]
   14eec:	3a08      	subs	r2, #8
   14eee:	f8cc 1008 	str.w	r1, [ip, #8]
   14ef2:	f8cc 200c 	str.w	r2, [ip, #12]
   14ef6:	f847 c030 	str.w	ip, [r7, r0, lsl #3]
   14efa:	f8c1 c00c 	str.w	ip, [r1, #12]
   14efe:	10a2      	asrs	r2, r4, #2
   14f00:	2001      	movs	r0, #1
   14f02:	4090      	lsls	r0, r2
   14f04:	4298      	cmp	r0, r3
   14f06:	f200 8091 	bhi.w	1502c <_malloc_r+0x208>
   14f0a:	4218      	tst	r0, r3
   14f0c:	d105      	bne.n	14f1a <_malloc_r+0xf6>
   14f0e:	f024 0403 	bic.w	r4, r4, #3
   14f12:	0040      	lsls	r0, r0, #1
   14f14:	3404      	adds	r4, #4
   14f16:	4218      	tst	r0, r3
   14f18:	d0fb      	beq.n	14f12 <_malloc_r+0xee>
   14f1a:	eb07 09c4 	add.w	r9, r7, r4, lsl #3
   14f1e:	46a0      	mov	r8, r4
   14f20:	46cc      	mov	ip, r9
   14f22:	f8dc 300c 	ldr.w	r3, [ip, #12]
   14f26:	459c      	cmp	ip, r3
   14f28:	d107      	bne.n	14f3a <_malloc_r+0x116>
   14f2a:	e122      	b.n	15172 <_malloc_r+0x34e>
   14f2c:	2a00      	cmp	r2, #0
   14f2e:	f280 8130 	bge.w	15192 <_malloc_r+0x36e>
   14f32:	68db      	ldr	r3, [r3, #12]
   14f34:	459c      	cmp	ip, r3
   14f36:	f000 811c 	beq.w	15172 <_malloc_r+0x34e>
   14f3a:	6859      	ldr	r1, [r3, #4]
   14f3c:	f021 0103 	bic.w	r1, r1, #3
   14f40:	1b4a      	subs	r2, r1, r5
   14f42:	2a0f      	cmp	r2, #15
   14f44:	ddf2      	ble.n	14f2c <_malloc_r+0x108>
   14f46:	68dc      	ldr	r4, [r3, #12]
   14f48:	eb03 0c05 	add.w	ip, r3, r5
   14f4c:	f8d3 8008 	ldr.w	r8, [r3, #8]
   14f50:	f045 0501 	orr.w	r5, r5, #1
   14f54:	4630      	mov	r0, r6
   14f56:	605d      	str	r5, [r3, #4]
   14f58:	f042 0501 	orr.w	r5, r2, #1
   14f5c:	f8c8 400c 	str.w	r4, [r8, #12]
   14f60:	f8c4 8008 	str.w	r8, [r4, #8]
   14f64:	f103 0408 	add.w	r4, r3, #8
   14f68:	f8c7 c014 	str.w	ip, [r7, #20]
   14f6c:	f8c7 c010 	str.w	ip, [r7, #16]
   14f70:	f8cc e00c 	str.w	lr, [ip, #12]
   14f74:	f8cc e008 	str.w	lr, [ip, #8]
   14f78:	f8cc 5004 	str.w	r5, [ip, #4]
   14f7c:	505a      	str	r2, [r3, r1]
   14f7e:	f000 fa1d 	bl	153bc <__malloc_unlock>
   14f82:	e022      	b.n	14fca <_malloc_r+0x1a6>
   14f84:	2910      	cmp	r1, #16
   14f86:	d824      	bhi.n	14fd2 <_malloc_r+0x1ae>
   14f88:	f000 fa12 	bl	153b0 <__malloc_lock>
   14f8c:	2510      	movs	r5, #16
   14f8e:	2218      	movs	r2, #24
   14f90:	2402      	movs	r4, #2
   14f92:	f247 7718 	movw	r7, #30488	; 0x7718
   14f96:	f2c0 0701 	movt	r7, #1
   14f9a:	443a      	add	r2, r7
   14f9c:	f1a2 0108 	sub.w	r1, r2, #8
   14fa0:	6853      	ldr	r3, [r2, #4]
   14fa2:	428b      	cmp	r3, r1
   14fa4:	f000 80ee 	beq.w	15184 <_malloc_r+0x360>
   14fa8:	685a      	ldr	r2, [r3, #4]
   14faa:	f103 0408 	add.w	r4, r3, #8
   14fae:	68d9      	ldr	r1, [r3, #12]
   14fb0:	4630      	mov	r0, r6
   14fb2:	f022 0203 	bic.w	r2, r2, #3
   14fb6:	689d      	ldr	r5, [r3, #8]
   14fb8:	4413      	add	r3, r2
   14fba:	685a      	ldr	r2, [r3, #4]
   14fbc:	60e9      	str	r1, [r5, #12]
   14fbe:	f042 0201 	orr.w	r2, r2, #1
   14fc2:	608d      	str	r5, [r1, #8]
   14fc4:	605a      	str	r2, [r3, #4]
   14fc6:	f000 f9f9 	bl	153bc <__malloc_unlock>
   14fca:	4620      	mov	r0, r4
   14fcc:	b003      	add	sp, #12
   14fce:	e8bd 8ff0 	ldmia.w	sp!, {r4, r5, r6, r7, r8, r9, sl, fp, pc}
   14fd2:	2400      	movs	r4, #0
   14fd4:	230c      	movs	r3, #12
   14fd6:	4620      	mov	r0, r4
   14fd8:	6033      	str	r3, [r6, #0]
   14fda:	b003      	add	sp, #12
   14fdc:	e8bd 8ff0 	ldmia.w	sp!, {r4, r5, r6, r7, r8, r9, sl, fp, pc}
   14fe0:	f44f 7300 	mov.w	r3, #512	; 0x200
   14fe4:	2440      	movs	r4, #64	; 0x40
   14fe6:	f04f 0e3f 	mov.w	lr, #63	; 0x3f
   14fea:	e740      	b.n	14e6e <_malloc_r+0x4a>
   14fec:	441a      	add	r2, r3
   14fee:	68dd      	ldr	r5, [r3, #12]
   14ff0:	689f      	ldr	r7, [r3, #8]
   14ff2:	4630      	mov	r0, r6
   14ff4:	6851      	ldr	r1, [r2, #4]
   14ff6:	f103 0408 	add.w	r4, r3, #8
   14ffa:	60fd      	str	r5, [r7, #12]
   14ffc:	f041 0101 	orr.w	r1, r1, #1
   15000:	60af      	str	r7, [r5, #8]
   15002:	6051      	str	r1, [r2, #4]
   15004:	f000 f9da 	bl	153bc <__malloc_unlock>
   15008:	4620      	mov	r0, r4
   1500a:	b003      	add	sp, #12
   1500c:	e8bd 8ff0 	ldmia.w	sp!, {r4, r5, r6, r7, r8, r9, sl, fp, pc}
   15010:	4463      	add	r3, ip
   15012:	4630      	mov	r0, r6
   15014:	f10c 0408 	add.w	r4, ip, #8
   15018:	685a      	ldr	r2, [r3, #4]
   1501a:	f042 0201 	orr.w	r2, r2, #1
   1501e:	605a      	str	r2, [r3, #4]
   15020:	f000 f9cc 	bl	153bc <__malloc_unlock>
   15024:	4620      	mov	r0, r4
   15026:	b003      	add	sp, #12
   15028:	e8bd 8ff0 	ldmia.w	sp!, {r4, r5, r6, r7, r8, r9, sl, fp, pc}
   1502c:	68bc      	ldr	r4, [r7, #8]
   1502e:	6863      	ldr	r3, [r4, #4]
   15030:	f023 0903 	bic.w	r9, r3, #3
   15034:	eba9 0205 	sub.w	r2, r9, r5
   15038:	2a0f      	cmp	r2, #15
   1503a:	bfcc      	ite	gt
   1503c:	2300      	movgt	r3, #0
   1503e:	2301      	movle	r3, #1
   15040:	45a9      	cmp	r9, r5
   15042:	bf38      	it	cc
   15044:	f043 0301 	orrcc.w	r3, r3, #1
   15048:	2b00      	cmp	r3, #0
   1504a:	d03b      	beq.n	150c4 <_malloc_r+0x2a0>
   1504c:	f645 23dc 	movw	r3, #23260	; 0x5adc
   15050:	f647 3a20 	movw	sl, #31520	; 0x7b20
   15054:	f2c0 0301 	movt	r3, #1
   15058:	f2c0 0a01 	movt	sl, #1
   1505c:	4630      	mov	r0, r6
   1505e:	681a      	ldr	r2, [r3, #0]
   15060:	f8da 3000 	ldr.w	r3, [sl]
   15064:	eb05 0802 	add.w	r8, r5, r2
   15068:	3301      	adds	r3, #1
   1506a:	bf17      	itett	ne
   1506c:	f508 5880 	addne.w	r8, r8, #4096	; 0x1000
   15070:	f108 0810 	addeq.w	r8, r8, #16
   15074:	f108 080f 	addne.w	r8, r8, #15
   15078:	f428 687f 	bicne.w	r8, r8, #4080	; 0xff0
   1507c:	bf18      	it	ne
   1507e:	f028 080f 	bicne.w	r8, r8, #15
   15082:	4641      	mov	r1, r8
   15084:	f000 f9a0 	bl	153c8 <_sbrk_r>
   15088:	1c41      	adds	r1, r0, #1
   1508a:	4602      	mov	r2, r0
   1508c:	d006      	beq.n	1509c <_malloc_r+0x278>
   1508e:	eb04 0009 	add.w	r0, r4, r9
   15092:	42bc      	cmp	r4, r7
   15094:	bf18      	it	ne
   15096:	4290      	cmpne	r0, r2
   15098:	f240 80b9 	bls.w	1520e <_malloc_r+0x3ea>
   1509c:	68bc      	ldr	r4, [r7, #8]
   1509e:	6863      	ldr	r3, [r4, #4]
   150a0:	f023 0303 	bic.w	r3, r3, #3
   150a4:	429d      	cmp	r5, r3
   150a6:	eba3 0205 	sub.w	r2, r3, r5
   150aa:	bf94      	ite	ls
   150ac:	2300      	movls	r3, #0
   150ae:	2301      	movhi	r3, #1
   150b0:	2a0f      	cmp	r2, #15
   150b2:	bfd8      	it	le
   150b4:	f043 0301 	orrle.w	r3, r3, #1
   150b8:	b123      	cbz	r3, 150c4 <_malloc_r+0x2a0>
   150ba:	4630      	mov	r0, r6
   150bc:	2400      	movs	r4, #0
   150be:	f000 f97d 	bl	153bc <__malloc_unlock>
   150c2:	e782      	b.n	14fca <_malloc_r+0x1a6>
   150c4:	1963      	adds	r3, r4, r5
   150c6:	f042 0201 	orr.w	r2, r2, #1
   150ca:	4630      	mov	r0, r6
   150cc:	f045 0501 	orr.w	r5, r5, #1
   150d0:	6065      	str	r5, [r4, #4]
   150d2:	3408      	adds	r4, #8
   150d4:	60bb      	str	r3, [r7, #8]
   150d6:	605a      	str	r2, [r3, #4]
   150d8:	f000 f970 	bl	153bc <__malloc_unlock>
   150dc:	4620      	mov	r0, r4
   150de:	b003      	add	sp, #12
   150e0:	e8bd 8ff0 	ldmia.w	sp!, {r4, r5, r6, r7, r8, r9, sl, fp, pc}
   150e4:	2b14      	cmp	r3, #20
   150e6:	d963      	bls.n	151b0 <_malloc_r+0x38c>
   150e8:	2b54      	cmp	r3, #84	; 0x54
   150ea:	f200 8102 	bhi.w	152f2 <_malloc_r+0x4ce>
   150ee:	0b2b      	lsrs	r3, r5, #12
   150f0:	f103 046f 	add.w	r4, r3, #111	; 0x6f
   150f4:	f103 0e6e 	add.w	lr, r3, #110	; 0x6e
   150f8:	00e3      	lsls	r3, r4, #3
   150fa:	e6b8      	b.n	14e6e <_malloc_r+0x4a>
   150fc:	0a59      	lsrs	r1, r3, #9
   150fe:	2904      	cmp	r1, #4
   15100:	d95c      	bls.n	151bc <_malloc_r+0x398>
   15102:	2914      	cmp	r1, #20
   15104:	f200 8113 	bhi.w	1532e <_malloc_r+0x50a>
   15108:	f101 025c 	add.w	r2, r1, #92	; 0x5c
   1510c:	315b      	adds	r1, #91	; 0x5b
   1510e:	00d2      	lsls	r2, r2, #3
   15110:	18b8      	adds	r0, r7, r2
   15112:	58ba      	ldr	r2, [r7, r2]
   15114:	3808      	subs	r0, #8
   15116:	4290      	cmp	r0, r2
   15118:	f000 80f5 	beq.w	15306 <_malloc_r+0x4e2>
   1511c:	6851      	ldr	r1, [r2, #4]
   1511e:	f021 0103 	bic.w	r1, r1, #3
   15122:	428b      	cmp	r3, r1
   15124:	f080 80e3 	bcs.w	152ee <_malloc_r+0x4ca>
   15128:	6892      	ldr	r2, [r2, #8]
   1512a:	4290      	cmp	r0, r2
   1512c:	d1f6      	bne.n	1511c <_malloc_r+0x2f8>
   1512e:	68c2      	ldr	r2, [r0, #12]
   15130:	687b      	ldr	r3, [r7, #4]
   15132:	f8cc 200c 	str.w	r2, [ip, #12]
   15136:	f8cc 0008 	str.w	r0, [ip, #8]
   1513a:	f8c2 c008 	str.w	ip, [r2, #8]
   1513e:	f8c0 c00c 	str.w	ip, [r0, #12]
   15142:	e6dc      	b.n	14efe <_malloc_r+0xda>
   15144:	eb0c 0105 	add.w	r1, ip, r5
   15148:	4630      	mov	r0, r6
   1514a:	f045 0501 	orr.w	r5, r5, #1
   1514e:	f8cc 5004 	str.w	r5, [ip, #4]
   15152:	6179      	str	r1, [r7, #20]
   15154:	f042 0501 	orr.w	r5, r2, #1
   15158:	6139      	str	r1, [r7, #16]
   1515a:	f10c 0408 	add.w	r4, ip, #8
   1515e:	f8c1 e00c 	str.w	lr, [r1, #12]
   15162:	f8c1 e008 	str.w	lr, [r1, #8]
   15166:	604d      	str	r5, [r1, #4]
   15168:	f84c 2003 	str.w	r2, [ip, r3]
   1516c:	f000 f926 	bl	153bc <__malloc_unlock>
   15170:	e72b      	b.n	14fca <_malloc_r+0x1a6>
   15172:	f108 0801 	add.w	r8, r8, #1
   15176:	f10c 0c08 	add.w	ip, ip, #8
   1517a:	f018 0f03 	tst.w	r8, #3
   1517e:	f47f aed0 	bne.w	14f22 <_malloc_r+0xfe>
   15182:	e026      	b.n	151d2 <_malloc_r+0x3ae>
   15184:	68d3      	ldr	r3, [r2, #12]
   15186:	429a      	cmp	r2, r3
   15188:	bf08      	it	eq
   1518a:	3402      	addeq	r4, #2
   1518c:	f43f ae87 	beq.w	14e9e <_malloc_r+0x7a>
   15190:	e70a      	b.n	14fa8 <_malloc_r+0x184>
   15192:	4419      	add	r1, r3
   15194:	461c      	mov	r4, r3
   15196:	68da      	ldr	r2, [r3, #12]
   15198:	4630      	mov	r0, r6
   1519a:	f854 5f08 	ldr.w	r5, [r4, #8]!
   1519e:	684b      	ldr	r3, [r1, #4]
   151a0:	f043 0301 	orr.w	r3, r3, #1
   151a4:	604b      	str	r3, [r1, #4]
   151a6:	60ea      	str	r2, [r5, #12]
   151a8:	6095      	str	r5, [r2, #8]
   151aa:	f000 f907 	bl	153bc <__malloc_unlock>
   151ae:	e70c      	b.n	14fca <_malloc_r+0x1a6>
   151b0:	f103 045c 	add.w	r4, r3, #92	; 0x5c
   151b4:	f103 0e5b 	add.w	lr, r3, #91	; 0x5b
   151b8:	00e3      	lsls	r3, r4, #3
   151ba:	e658      	b.n	14e6e <_malloc_r+0x4a>
   151bc:	0999      	lsrs	r1, r3, #6
   151be:	f101 0239 	add.w	r2, r1, #57	; 0x39
   151c2:	3138      	adds	r1, #56	; 0x38
   151c4:	00d2      	lsls	r2, r2, #3
   151c6:	e7a3      	b.n	15110 <_malloc_r+0x2ec>
   151c8:	f859 3908 	ldr.w	r3, [r9], #-8
   151cc:	4599      	cmp	r9, r3
   151ce:	f040 80e7 	bne.w	153a0 <_malloc_r+0x57c>
   151d2:	f014 0f03 	tst.w	r4, #3
   151d6:	f104 34ff 	add.w	r4, r4, #4294967295
   151da:	d1f5      	bne.n	151c8 <_malloc_r+0x3a4>
   151dc:	687b      	ldr	r3, [r7, #4]
   151de:	ea23 0300 	bic.w	r3, r3, r0
   151e2:	607b      	str	r3, [r7, #4]
   151e4:	0040      	lsls	r0, r0, #1
   151e6:	bf14      	ite	ne
   151e8:	2201      	movne	r2, #1
   151ea:	2200      	moveq	r2, #0
   151ec:	4298      	cmp	r0, r3
   151ee:	bf8c      	ite	hi
   151f0:	2200      	movhi	r2, #0
   151f2:	f002 0201 	andls.w	r2, r2, #1
   151f6:	2a00      	cmp	r2, #0
   151f8:	f43f af18 	beq.w	1502c <_malloc_r+0x208>
   151fc:	4218      	tst	r0, r3
   151fe:	4644      	mov	r4, r8
   15200:	f47f ae8b 	bne.w	14f1a <_malloc_r+0xf6>
   15204:	0040      	lsls	r0, r0, #1
   15206:	3404      	adds	r4, #4
   15208:	4218      	tst	r0, r3
   1520a:	d0fb      	beq.n	15204 <_malloc_r+0x3e0>
   1520c:	e685      	b.n	14f1a <_malloc_r+0xf6>
   1520e:	f645 2bac 	movw	fp, #23212	; 0x5aac
   15212:	f2c0 0b01 	movt	fp, #1
   15216:	4290      	cmp	r0, r2
   15218:	f8db 1000 	ldr.w	r1, [fp]
   1521c:	4441      	add	r1, r8
   1521e:	f8cb 1000 	str.w	r1, [fp]
   15222:	f000 8092 	beq.w	1534a <_malloc_r+0x526>
   15226:	f8da 3000 	ldr.w	r3, [sl]
   1522a:	3301      	adds	r3, #1
   1522c:	bf0f      	iteee	eq
   1522e:	f8ca 2000 	streq.w	r2, [sl]
   15232:	1a10      	subne	r0, r2, r0
   15234:	1809      	addne	r1, r1, r0
   15236:	f8cb 1000 	strne.w	r1, [fp]
   1523a:	f012 0107 	ands.w	r1, r2, #7
   1523e:	4630      	mov	r0, r6
   15240:	bf1f      	itttt	ne
   15242:	f1c1 0308 	rsbne	r3, r1, #8
   15246:	f5c1 5180 	rsbne	r1, r1, #4096	; 0x1000
   1524a:	18d2      	addne	r2, r2, r3
   1524c:	3108      	addne	r1, #8
   1524e:	eb02 0308 	add.w	r3, r2, r8
   15252:	bf08      	it	eq
   15254:	f44f 5180 	moveq.w	r1, #4096	; 0x1000
   15258:	f3c3 030b 	ubfx	r3, r3, #0, #12
   1525c:	9201      	str	r2, [sp, #4]
   1525e:	eba1 0803 	sub.w	r8, r1, r3
   15262:	4641      	mov	r1, r8
   15264:	f000 f8b0 	bl	153c8 <_sbrk_r>
   15268:	9a01      	ldr	r2, [sp, #4]
   1526a:	f8db 1000 	ldr.w	r1, [fp]
   1526e:	60ba      	str	r2, [r7, #8]
   15270:	1c43      	adds	r3, r0, #1
   15272:	bf1b      	ittet	ne
   15274:	1a83      	subne	r3, r0, r2
   15276:	4443      	addne	r3, r8
   15278:	2301      	moveq	r3, #1
   1527a:	f043 0301 	orrne.w	r3, r3, #1
   1527e:	bf08      	it	eq
   15280:	f04f 0800 	moveq.w	r8, #0
   15284:	42bc      	cmp	r4, r7
   15286:	4441      	add	r1, r8
   15288:	6053      	str	r3, [r2, #4]
   1528a:	f8cb 1000 	str.w	r1, [fp]
   1528e:	d019      	beq.n	152c4 <_malloc_r+0x4a0>
   15290:	f1b9 0f0f 	cmp.w	r9, #15
   15294:	bf9c      	itt	ls
   15296:	2301      	movls	r3, #1
   15298:	6053      	strls	r3, [r2, #4]
   1529a:	f67f af0e 	bls.w	150ba <_malloc_r+0x296>
   1529e:	f1a9 030c 	sub.w	r3, r9, #12
   152a2:	6862      	ldr	r2, [r4, #4]
   152a4:	f023 0307 	bic.w	r3, r3, #7
   152a8:	f04f 0e05 	mov.w	lr, #5
   152ac:	18e0      	adds	r0, r4, r3
   152ae:	2b0f      	cmp	r3, #15
   152b0:	f002 0201 	and.w	r2, r2, #1
   152b4:	ea42 0203 	orr.w	r2, r2, r3
   152b8:	6062      	str	r2, [r4, #4]
   152ba:	f8c0 e004 	str.w	lr, [r0, #4]
   152be:	f8c0 e008 	str.w	lr, [r0, #8]
   152c2:	d84e      	bhi.n	15362 <_malloc_r+0x53e>
   152c4:	f645 23d4 	movw	r3, #23252	; 0x5ad4
   152c8:	f2c0 0301 	movt	r3, #1
   152cc:	68bc      	ldr	r4, [r7, #8]
   152ce:	681a      	ldr	r2, [r3, #0]
   152d0:	4291      	cmp	r1, r2
   152d2:	bf88      	it	hi
   152d4:	6019      	strhi	r1, [r3, #0]
   152d6:	f645 23d8 	movw	r3, #23256	; 0x5ad8
   152da:	f2c0 0301 	movt	r3, #1
   152de:	681a      	ldr	r2, [r3, #0]
   152e0:	4291      	cmp	r1, r2
   152e2:	bf88      	it	hi
   152e4:	6019      	strhi	r1, [r3, #0]
   152e6:	6863      	ldr	r3, [r4, #4]
   152e8:	f023 0303 	bic.w	r3, r3, #3
   152ec:	e6da      	b.n	150a4 <_malloc_r+0x280>
   152ee:	4610      	mov	r0, r2
   152f0:	e71d      	b.n	1512e <_malloc_r+0x30a>
   152f2:	f5b3 7faa 	cmp.w	r3, #340	; 0x154
   152f6:	d80f      	bhi.n	15318 <_malloc_r+0x4f4>
   152f8:	0beb      	lsrs	r3, r5, #15
   152fa:	f103 0478 	add.w	r4, r3, #120	; 0x78
   152fe:	f103 0e77 	add.w	lr, r3, #119	; 0x77
   15302:	00e3      	lsls	r3, r4, #3
   15304:	e5b3      	b.n	14e6e <_malloc_r+0x4a>
   15306:	2201      	movs	r2, #1
   15308:	687b      	ldr	r3, [r7, #4]
   1530a:	1089      	asrs	r1, r1, #2
   1530c:	fa02 f101 	lsl.w	r1, r2, r1
   15310:	4602      	mov	r2, r0
   15312:	430b      	orrs	r3, r1
   15314:	607b      	str	r3, [r7, #4]
   15316:	e70c      	b.n	15132 <_malloc_r+0x30e>
   15318:	f240 5254 	movw	r2, #1364	; 0x554
   1531c:	4293      	cmp	r3, r2
   1531e:	d80e      	bhi.n	1533e <_malloc_r+0x51a>
   15320:	0cab      	lsrs	r3, r5, #18
   15322:	f103 047d 	add.w	r4, r3, #125	; 0x7d
   15326:	f103 0e7c 	add.w	lr, r3, #124	; 0x7c
   1532a:	00e3      	lsls	r3, r4, #3
   1532c:	e59f      	b.n	14e6e <_malloc_r+0x4a>
   1532e:	2954      	cmp	r1, #84	; 0x54
   15330:	d81f      	bhi.n	15372 <_malloc_r+0x54e>
   15332:	0b19      	lsrs	r1, r3, #12
   15334:	f101 026f 	add.w	r2, r1, #111	; 0x6f
   15338:	316e      	adds	r1, #110	; 0x6e
   1533a:	00d2      	lsls	r2, r2, #3
   1533c:	e6e8      	b.n	15110 <_malloc_r+0x2ec>
   1533e:	f44f 737e 	mov.w	r3, #1016	; 0x3f8
   15342:	247f      	movs	r4, #127	; 0x7f
   15344:	f04f 0e7e 	mov.w	lr, #126	; 0x7e
   15348:	e591      	b.n	14e6e <_malloc_r+0x4a>
   1534a:	f3c0 030b 	ubfx	r3, r0, #0, #12
   1534e:	2b00      	cmp	r3, #0
   15350:	f47f af69 	bne.w	15226 <_malloc_r+0x402>
   15354:	68ba      	ldr	r2, [r7, #8]
   15356:	eb09 0308 	add.w	r3, r9, r8
   1535a:	f043 0301 	orr.w	r3, r3, #1
   1535e:	6053      	str	r3, [r2, #4]
   15360:	e7b0      	b.n	152c4 <_malloc_r+0x4a0>
   15362:	f104 0108 	add.w	r1, r4, #8
   15366:	4630      	mov	r0, r6
   15368:	f000 f898 	bl	1549c <_free_r>
   1536c:	f8db 1000 	ldr.w	r1, [fp]
   15370:	e7a8      	b.n	152c4 <_malloc_r+0x4a0>
   15372:	f5b1 7faa 	cmp.w	r1, #340	; 0x154
   15376:	d805      	bhi.n	15384 <_malloc_r+0x560>
   15378:	0bd9      	lsrs	r1, r3, #15
   1537a:	f101 0278 	add.w	r2, r1, #120	; 0x78
   1537e:	3177      	adds	r1, #119	; 0x77
   15380:	00d2      	lsls	r2, r2, #3
   15382:	e6c5      	b.n	15110 <_malloc_r+0x2ec>
   15384:	f240 5254 	movw	r2, #1364	; 0x554
   15388:	4291      	cmp	r1, r2
   1538a:	bf9b      	ittet	ls
   1538c:	0c99      	lsrls	r1, r3, #18
   1538e:	f101 027d 	addls.w	r2, r1, #125	; 0x7d
   15392:	f44f 727e 	movhi.w	r2, #1016	; 0x3f8
   15396:	317c      	addls	r1, #124	; 0x7c
   15398:	bf8c      	ite	hi
   1539a:	217e      	movhi	r1, #126	; 0x7e
   1539c:	00d2      	lslls	r2, r2, #3
   1539e:	e6b7      	b.n	15110 <_malloc_r+0x2ec>
   153a0:	687b      	ldr	r3, [r7, #4]
   153a2:	e71f      	b.n	151e4 <_malloc_r+0x3c0>
   153a4:	08ec      	lsrs	r4, r5, #3
   153a6:	f105 0208 	add.w	r2, r5, #8
   153aa:	e5f2      	b.n	14f92 <_malloc_r+0x16e>
   153ac:	00017720 	.word	0x00017720

000153b0 <__malloc_lock>:
   153b0:	f645 20f0 	movw	r0, #23280	; 0x5af0
   153b4:	f2c0 0001 	movt	r0, #1
   153b8:	f000 b960 	b.w	1567c <__retarget_lock_acquire_recursive>

000153bc <__malloc_unlock>:
   153bc:	f645 20f0 	movw	r0, #23280	; 0x5af0
   153c0:	f2c0 0001 	movt	r0, #1
   153c4:	f000 b95c 	b.w	15680 <__retarget_lock_release_recursive>

000153c8 <_sbrk_r>:
   153c8:	b538      	push	{r3, r4, r5, lr}
   153ca:	f645 3404 	movw	r4, #23300	; 0x5b04
   153ce:	f2c0 0401 	movt	r4, #1
   153d2:	4605      	mov	r5, r0
   153d4:	4608      	mov	r0, r1
   153d6:	2300      	movs	r3, #0
   153d8:	6023      	str	r3, [r4, #0]
   153da:	f7fc eda8 	blx	11f2c <_sbrk>
   153de:	1c43      	adds	r3, r0, #1
   153e0:	d000      	beq.n	153e4 <_sbrk_r+0x1c>
   153e2:	bd38      	pop	{r3, r4, r5, pc}
   153e4:	6823      	ldr	r3, [r4, #0]
   153e6:	2b00      	cmp	r3, #0
   153e8:	d0fb      	beq.n	153e2 <_sbrk_r+0x1a>
   153ea:	602b      	str	r3, [r5, #0]
   153ec:	bd38      	pop	{r3, r4, r5, pc}
   153ee:	bf00      	nop

000153f0 <_malloc_trim_r>:
   153f0:	b5f8      	push	{r3, r4, r5, r6, r7, lr}
   153f2:	f247 7718 	movw	r7, #30488	; 0x7718
   153f6:	f2c0 0701 	movt	r7, #1
   153fa:	460c      	mov	r4, r1
   153fc:	4606      	mov	r6, r0
   153fe:	f7ff ffd7 	bl	153b0 <__malloc_lock>
   15402:	68bb      	ldr	r3, [r7, #8]
   15404:	f5c4 617e 	rsb	r1, r4, #4064	; 0xfe0
   15408:	310f      	adds	r1, #15
   1540a:	685d      	ldr	r5, [r3, #4]
   1540c:	f025 0503 	bic.w	r5, r5, #3
   15410:	4429      	add	r1, r5
   15412:	f421 617f 	bic.w	r1, r1, #4080	; 0xff0
   15416:	f021 010f 	bic.w	r1, r1, #15
   1541a:	f5a1 5480 	sub.w	r4, r1, #4096	; 0x1000
   1541e:	f5b4 5f80 	cmp.w	r4, #4096	; 0x1000
   15422:	db07      	blt.n	15434 <_malloc_trim_r+0x44>
   15424:	2100      	movs	r1, #0
   15426:	4630      	mov	r0, r6
   15428:	f7ff ffce 	bl	153c8 <_sbrk_r>
   1542c:	68bb      	ldr	r3, [r7, #8]
   1542e:	442b      	add	r3, r5
   15430:	4298      	cmp	r0, r3
   15432:	d004      	beq.n	1543e <_malloc_trim_r+0x4e>
   15434:	4630      	mov	r0, r6
   15436:	f7ff ffc1 	bl	153bc <__malloc_unlock>
   1543a:	2000      	movs	r0, #0
   1543c:	bdf8      	pop	{r3, r4, r5, r6, r7, pc}
   1543e:	4261      	negs	r1, r4
   15440:	4630      	mov	r0, r6
   15442:	f7ff ffc1 	bl	153c8 <_sbrk_r>
   15446:	3001      	adds	r0, #1
   15448:	d010      	beq.n	1546c <_malloc_trim_r+0x7c>
   1544a:	68ba      	ldr	r2, [r7, #8]
   1544c:	f645 23ac 	movw	r3, #23212	; 0x5aac
   15450:	f2c0 0301 	movt	r3, #1
   15454:	1b2d      	subs	r5, r5, r4
   15456:	4630      	mov	r0, r6
   15458:	f045 0501 	orr.w	r5, r5, #1
   1545c:	6819      	ldr	r1, [r3, #0]
   1545e:	6055      	str	r5, [r2, #4]
   15460:	1b09      	subs	r1, r1, r4
   15462:	6019      	str	r1, [r3, #0]
   15464:	f7ff ffaa 	bl	153bc <__malloc_unlock>
   15468:	2001      	movs	r0, #1
   1546a:	bdf8      	pop	{r3, r4, r5, r6, r7, pc}
   1546c:	2100      	movs	r1, #0
   1546e:	4630      	mov	r0, r6
   15470:	f7ff ffaa 	bl	153c8 <_sbrk_r>
   15474:	68ba      	ldr	r2, [r7, #8]
   15476:	1a83      	subs	r3, r0, r2
   15478:	2b0f      	cmp	r3, #15
   1547a:	dddb      	ble.n	15434 <_malloc_trim_r+0x44>
   1547c:	f647 3420 	movw	r4, #31520	; 0x7b20
   15480:	f2c0 0401 	movt	r4, #1
   15484:	f645 21ac 	movw	r1, #23212	; 0x5aac
   15488:	f2c0 0101 	movt	r1, #1
   1548c:	6824      	ldr	r4, [r4, #0]
   1548e:	f043 0301 	orr.w	r3, r3, #1
   15492:	6053      	str	r3, [r2, #4]
   15494:	1b00      	subs	r0, r0, r4
   15496:	6008      	str	r0, [r1, #0]
   15498:	e7cc      	b.n	15434 <_malloc_trim_r+0x44>
   1549a:	bf00      	nop

0001549c <_free_r>:
   1549c:	2900      	cmp	r1, #0
   1549e:	d049      	beq.n	15534 <_free_r+0x98>
   154a0:	e92d 41f0 	stmdb	sp!, {r4, r5, r6, r7, r8, lr}
   154a4:	460d      	mov	r5, r1
   154a6:	4680      	mov	r8, r0
   154a8:	f7ff ff82 	bl	153b0 <__malloc_lock>
   154ac:	f855 7c04 	ldr.w	r7, [r5, #-4]
   154b0:	f247 7118 	movw	r1, #30488	; 0x7718
   154b4:	f2c0 0101 	movt	r1, #1
   154b8:	f1a5 0408 	sub.w	r4, r5, #8
   154bc:	f027 0301 	bic.w	r3, r7, #1
   154c0:	18e2      	adds	r2, r4, r3
   154c2:	688e      	ldr	r6, [r1, #8]
   154c4:	6850      	ldr	r0, [r2, #4]
   154c6:	42b2      	cmp	r2, r6
   154c8:	f020 0003 	bic.w	r0, r0, #3
   154cc:	d063      	beq.n	15596 <_free_r+0xfa>
   154ce:	07fe      	lsls	r6, r7, #31
   154d0:	6050      	str	r0, [r2, #4]
   154d2:	d40b      	bmi.n	154ec <_free_r+0x50>
   154d4:	f855 5c08 	ldr.w	r5, [r5, #-8]
   154d8:	f101 0708 	add.w	r7, r1, #8
   154dc:	1b64      	subs	r4, r4, r5
   154de:	442b      	add	r3, r5
   154e0:	68a5      	ldr	r5, [r4, #8]
   154e2:	42bd      	cmp	r5, r7
   154e4:	d078      	beq.n	155d8 <_free_r+0x13c>
   154e6:	68e7      	ldr	r7, [r4, #12]
   154e8:	60ef      	str	r7, [r5, #12]
   154ea:	60bd      	str	r5, [r7, #8]
   154ec:	1815      	adds	r5, r2, r0
   154ee:	686d      	ldr	r5, [r5, #4]
   154f0:	07ed      	lsls	r5, r5, #31
   154f2:	bf42      	ittt	mi
   154f4:	f043 0201 	orrmi.w	r2, r3, #1
   154f8:	6062      	strmi	r2, [r4, #4]
   154fa:	50e3      	strmi	r3, [r4, r3]
   154fc:	d53b      	bpl.n	15576 <_free_r+0xda>
   154fe:	f5b3 7f00 	cmp.w	r3, #512	; 0x200
   15502:	d218      	bcs.n	15536 <_free_r+0x9a>
   15504:	08db      	lsrs	r3, r3, #3
   15506:	2201      	movs	r2, #1
   15508:	189d      	adds	r5, r3, r2
   1550a:	6848      	ldr	r0, [r1, #4]
   1550c:	109b      	asrs	r3, r3, #2
   1550e:	f851 7035 	ldr.w	r7, [r1, r5, lsl #3]
   15512:	fa02 f303 	lsl.w	r3, r2, r3
   15516:	eb01 02c5 	add.w	r2, r1, r5, lsl #3
   1551a:	4303      	orrs	r3, r0
   1551c:	3a08      	subs	r2, #8
   1551e:	604b      	str	r3, [r1, #4]
   15520:	60e2      	str	r2, [r4, #12]
   15522:	60a7      	str	r7, [r4, #8]
   15524:	f841 4035 	str.w	r4, [r1, r5, lsl #3]
   15528:	60fc      	str	r4, [r7, #12]
   1552a:	4640      	mov	r0, r8
   1552c:	e8bd 41f0 	ldmia.w	sp!, {r4, r5, r6, r7, r8, lr}
   15530:	f7ff bf44 	b.w	153bc <__malloc_unlock>
   15534:	4770      	bx	lr
   15536:	0a5a      	lsrs	r2, r3, #9
   15538:	2a04      	cmp	r2, #4
   1553a:	d85b      	bhi.n	155f4 <_free_r+0x158>
   1553c:	099a      	lsrs	r2, r3, #6
   1553e:	f102 0039 	add.w	r0, r2, #57	; 0x39
   15542:	f102 0538 	add.w	r5, r2, #56	; 0x38
   15546:	00c2      	lsls	r2, r0, #3
   15548:	1888      	adds	r0, r1, r2
   1554a:	588a      	ldr	r2, [r1, r2]
   1554c:	3808      	subs	r0, #8
   1554e:	4290      	cmp	r0, r2
   15550:	d058      	beq.n	15604 <_free_r+0x168>
   15552:	6851      	ldr	r1, [r2, #4]
   15554:	f021 0103 	bic.w	r1, r1, #3
   15558:	428b      	cmp	r3, r1
   1555a:	d23b      	bcs.n	155d4 <_free_r+0x138>
   1555c:	6892      	ldr	r2, [r2, #8]
   1555e:	4290      	cmp	r0, r2
   15560:	d1f7      	bne.n	15552 <_free_r+0xb6>
   15562:	68c3      	ldr	r3, [r0, #12]
   15564:	60a0      	str	r0, [r4, #8]
   15566:	60e3      	str	r3, [r4, #12]
   15568:	609c      	str	r4, [r3, #8]
   1556a:	60c4      	str	r4, [r0, #12]
   1556c:	4640      	mov	r0, r8
   1556e:	e8bd 41f0 	ldmia.w	sp!, {r4, r5, r6, r7, r8, lr}
   15572:	f7ff bf23 	b.w	153bc <__malloc_unlock>
   15576:	6895      	ldr	r5, [r2, #8]
   15578:	4403      	add	r3, r0
   1557a:	483f      	ldr	r0, [pc, #252]	; (15678 <_free_r+0x1dc>)
   1557c:	4285      	cmp	r5, r0
   1557e:	d04a      	beq.n	15616 <_free_r+0x17a>
   15580:	68d0      	ldr	r0, [r2, #12]
   15582:	f5b3 7f00 	cmp.w	r3, #512	; 0x200
   15586:	f043 0201 	orr.w	r2, r3, #1
   1558a:	60e8      	str	r0, [r5, #12]
   1558c:	6085      	str	r5, [r0, #8]
   1558e:	6062      	str	r2, [r4, #4]
   15590:	50e3      	str	r3, [r4, r3]
   15592:	d2d0      	bcs.n	15536 <_free_r+0x9a>
   15594:	e7b6      	b.n	15504 <_free_r+0x68>
   15596:	07ff      	lsls	r7, r7, #31
   15598:	4403      	add	r3, r0
   1559a:	d407      	bmi.n	155ac <_free_r+0x110>
   1559c:	f855 2c08 	ldr.w	r2, [r5, #-8]
   155a0:	1aa4      	subs	r4, r4, r2
   155a2:	4413      	add	r3, r2
   155a4:	68a0      	ldr	r0, [r4, #8]
   155a6:	68e2      	ldr	r2, [r4, #12]
   155a8:	60c2      	str	r2, [r0, #12]
   155aa:	6090      	str	r0, [r2, #8]
   155ac:	f647 3224 	movw	r2, #31524	; 0x7b24
   155b0:	f2c0 0201 	movt	r2, #1
   155b4:	f043 0001 	orr.w	r0, r3, #1
   155b8:	6060      	str	r0, [r4, #4]
   155ba:	6812      	ldr	r2, [r2, #0]
   155bc:	608c      	str	r4, [r1, #8]
   155be:	4293      	cmp	r3, r2
   155c0:	d3b3      	bcc.n	1552a <_free_r+0x8e>
   155c2:	f645 23dc 	movw	r3, #23260	; 0x5adc
   155c6:	f2c0 0301 	movt	r3, #1
   155ca:	4640      	mov	r0, r8
   155cc:	6819      	ldr	r1, [r3, #0]
   155ce:	f7ff ff0f 	bl	153f0 <_malloc_trim_r>
   155d2:	e7aa      	b.n	1552a <_free_r+0x8e>
   155d4:	4610      	mov	r0, r2
   155d6:	e7c4      	b.n	15562 <_free_r+0xc6>
   155d8:	1811      	adds	r1, r2, r0
   155da:	6849      	ldr	r1, [r1, #4]
   155dc:	07c9      	lsls	r1, r1, #31
   155de:	d445      	bmi.n	1566c <_free_r+0x1d0>
   155e0:	6891      	ldr	r1, [r2, #8]
   155e2:	4403      	add	r3, r0
   155e4:	68d2      	ldr	r2, [r2, #12]
   155e6:	f043 0001 	orr.w	r0, r3, #1
   155ea:	60ca      	str	r2, [r1, #12]
   155ec:	6091      	str	r1, [r2, #8]
   155ee:	6060      	str	r0, [r4, #4]
   155f0:	50e3      	str	r3, [r4, r3]
   155f2:	e79a      	b.n	1552a <_free_r+0x8e>
   155f4:	2a14      	cmp	r2, #20
   155f6:	d817      	bhi.n	15628 <_free_r+0x18c>
   155f8:	f102 005c 	add.w	r0, r2, #92	; 0x5c
   155fc:	f102 055b 	add.w	r5, r2, #91	; 0x5b
   15600:	00c2      	lsls	r2, r0, #3
   15602:	e7a1      	b.n	15548 <_free_r+0xac>
   15604:	10aa      	asrs	r2, r5, #2
   15606:	2301      	movs	r3, #1
   15608:	684d      	ldr	r5, [r1, #4]
   1560a:	fa03 f202 	lsl.w	r2, r3, r2
   1560e:	4603      	mov	r3, r0
   15610:	432a      	orrs	r2, r5
   15612:	604a      	str	r2, [r1, #4]
   15614:	e7a6      	b.n	15564 <_free_r+0xc8>
   15616:	614c      	str	r4, [r1, #20]
   15618:	f043 0201 	orr.w	r2, r3, #1
   1561c:	610c      	str	r4, [r1, #16]
   1561e:	60e5      	str	r5, [r4, #12]
   15620:	60a5      	str	r5, [r4, #8]
   15622:	6062      	str	r2, [r4, #4]
   15624:	50e3      	str	r3, [r4, r3]
   15626:	e780      	b.n	1552a <_free_r+0x8e>
   15628:	2a54      	cmp	r2, #84	; 0x54
   1562a:	d806      	bhi.n	1563a <_free_r+0x19e>
   1562c:	0b1a      	lsrs	r2, r3, #12
   1562e:	f102 006f 	add.w	r0, r2, #111	; 0x6f
   15632:	f102 056e 	add.w	r5, r2, #110	; 0x6e
   15636:	00c2      	lsls	r2, r0, #3
   15638:	e786      	b.n	15548 <_free_r+0xac>
   1563a:	f5b2 7faa 	cmp.w	r2, #340	; 0x154
   1563e:	d806      	bhi.n	1564e <_free_r+0x1b2>
   15640:	0bda      	lsrs	r2, r3, #15
   15642:	f102 0078 	add.w	r0, r2, #120	; 0x78
   15646:	f102 0577 	add.w	r5, r2, #119	; 0x77
   1564a:	00c2      	lsls	r2, r0, #3
   1564c:	e77c      	b.n	15548 <_free_r+0xac>
   1564e:	f240 5054 	movw	r0, #1364	; 0x554
   15652:	4282      	cmp	r2, r0
   15654:	bf9d      	ittte	ls
   15656:	0c9a      	lsrls	r2, r3, #18
   15658:	f102 007d 	addls.w	r0, r2, #125	; 0x7d
   1565c:	f102 057c 	addls.w	r5, r2, #124	; 0x7c
   15660:	f44f 727e 	movhi.w	r2, #1016	; 0x3f8
   15664:	bf8c      	ite	hi
   15666:	257e      	movhi	r5, #126	; 0x7e
   15668:	00c2      	lslls	r2, r0, #3
   1566a:	e76d      	b.n	15548 <_free_r+0xac>
   1566c:	f043 0101 	orr.w	r1, r3, #1
   15670:	6061      	str	r1, [r4, #4]
   15672:	6013      	str	r3, [r2, #0]
   15674:	e759      	b.n	1552a <_free_r+0x8e>
   15676:	bf00      	nop
   15678:	00017720 	.word	0x00017720

0001567c <__retarget_lock_acquire_recursive>:
   1567c:	4770      	bx	lr
   1567e:	bf00      	nop

00015680 <__retarget_lock_release_recursive>:
   15680:	4770      	bx	lr
   15682:	bf00      	nop
   15684:	0000      	movs	r0, r0
	...

00015688 <__udivsi3>:
   15688:	1e4a      	subs	r2, r1, #1
   1568a:	bf08      	it	eq
   1568c:	4770      	bxeq	lr
   1568e:	f0c0 8124 	bcc.w	158da <__udivsi3+0x252>
   15692:	4288      	cmp	r0, r1
   15694:	f240 8116 	bls.w	158c4 <__udivsi3+0x23c>
   15698:	4211      	tst	r1, r2
   1569a:	f000 8117 	beq.w	158cc <__udivsi3+0x244>
   1569e:	fab0 f380 	clz	r3, r0
   156a2:	fab1 f281 	clz	r2, r1
   156a6:	eba2 0303 	sub.w	r3, r2, r3
   156aa:	f1c3 031f 	rsb	r3, r3, #31
   156ae:	a204      	add	r2, pc, #16	; (adr r2, 156c0 <__udivsi3+0x38>)
   156b0:	eb02 1303 	add.w	r3, r2, r3, lsl #4
   156b4:	f04f 0200 	mov.w	r2, #0
   156b8:	469f      	mov	pc, r3
   156ba:	bf00      	nop
   156bc:	f3af 8000 	nop.w
   156c0:	ebb0 7fc1 	cmp.w	r0, r1, lsl #31
   156c4:	bf00      	nop
   156c6:	eb42 0202 	adc.w	r2, r2, r2
   156ca:	bf28      	it	cs
   156cc:	eba0 70c1 	subcs.w	r0, r0, r1, lsl #31
   156d0:	ebb0 7f81 	cmp.w	r0, r1, lsl #30
   156d4:	bf00      	nop
   156d6:	eb42 0202 	adc.w	r2, r2, r2
   156da:	bf28      	it	cs
   156dc:	eba0 7081 	subcs.w	r0, r0, r1, lsl #30
   156e0:	ebb0 7f41 	cmp.w	r0, r1, lsl #29
   156e4:	bf00      	nop
   156e6:	eb42 0202 	adc.w	r2, r2, r2
   156ea:	bf28      	it	cs
   156ec:	eba0 7041 	subcs.w	r0, r0, r1, lsl #29
   156f0:	ebb0 7f01 	cmp.w	r0, r1, lsl #28
   156f4:	bf00      	nop
   156f6:	eb42 0202 	adc.w	r2, r2, r2
   156fa:	bf28      	it	cs
   156fc:	eba0 7001 	subcs.w	r0, r0, r1, lsl #28
   15700:	ebb0 6fc1 	cmp.w	r0, r1, lsl #27
   15704:	bf00      	nop
   15706:	eb42 0202 	adc.w	r2, r2, r2
   1570a:	bf28      	it	cs
   1570c:	eba0 60c1 	subcs.w	r0, r0, r1, lsl #27
   15710:	ebb0 6f81 	cmp.w	r0, r1, lsl #26
   15714:	bf00      	nop
   15716:	eb42 0202 	adc.w	r2, r2, r2
   1571a:	bf28      	it	cs
   1571c:	eba0 6081 	subcs.w	r0, r0, r1, lsl #26
   15720:	ebb0 6f41 	cmp.w	r0, r1, lsl #25
   15724:	bf00      	nop
   15726:	eb42 0202 	adc.w	r2, r2, r2
   1572a:	bf28      	it	cs
   1572c:	eba0 6041 	subcs.w	r0, r0, r1, lsl #25
   15730:	ebb0 6f01 	cmp.w	r0, r1, lsl #24
   15734:	bf00      	nop
   15736:	eb42 0202 	adc.w	r2, r2, r2
   1573a:	bf28      	it	cs
   1573c:	eba0 6001 	subcs.w	r0, r0, r1, lsl #24
   15740:	ebb0 5fc1 	cmp.w	r0, r1, lsl #23
   15744:	bf00      	nop
   15746:	eb42 0202 	adc.w	r2, r2, r2
   1574a:	bf28      	it	cs
   1574c:	eba0 50c1 	subcs.w	r0, r0, r1, lsl #23
   15750:	ebb0 5f81 	cmp.w	r0, r1, lsl #22
   15754:	bf00      	nop
   15756:	eb42 0202 	adc.w	r2, r2, r2
   1575a:	bf28      	it	cs
   1575c:	eba0 5081 	subcs.w	r0, r0, r1, lsl #22
   15760:	ebb0 5f41 	cmp.w	r0, r1, lsl #21
   15764:	bf00      	nop
   15766:	eb42 0202 	adc.w	r2, r2, r2
   1576a:	bf28      	it	cs
   1576c:	eba0 5041 	subcs.w	r0, r0, r1, lsl #21
   15770:	ebb0 5f01 	cmp.w	r0, r1, lsl #20
   15774:	bf00      	nop
   15776:	eb42 0202 	adc.w	r2, r2, r2
   1577a:	bf28      	it	cs
   1577c:	eba0 5001 	subcs.w	r0, r0, r1, lsl #20
   15780:	ebb0 4fc1 	cmp.w	r0, r1, lsl #19
   15784:	bf00      	nop
   15786:	eb42 0202 	adc.w	r2, r2, r2
   1578a:	bf28      	it	cs
   1578c:	eba0 40c1 	subcs.w	r0, r0, r1, lsl #19
   15790:	ebb0 4f81 	cmp.w	r0, r1, lsl #18
   15794:	bf00      	nop
   15796:	eb42 0202 	adc.w	r2, r2, r2
   1579a:	bf28      	it	cs
   1579c:	eba0 4081 	subcs.w	r0, r0, r1, lsl #18
   157a0:	ebb0 4f41 	cmp.w	r0, r1, lsl #17
   157a4:	bf00      	nop
   157a6:	eb42 0202 	adc.w	r2, r2, r2
   157aa:	bf28      	it	cs
   157ac:	eba0 4041 	subcs.w	r0, r0, r1, lsl #17
   157b0:	ebb0 4f01 	cmp.w	r0, r1, lsl #16
   157b4:	bf00      	nop
   157b6:	eb42 0202 	adc.w	r2, r2, r2
   157ba:	bf28      	it	cs
   157bc:	eba0 4001 	subcs.w	r0, r0, r1, lsl #16
   157c0:	ebb0 3fc1 	cmp.w	r0, r1, lsl #15
   157c4:	bf00      	nop
   157c6:	eb42 0202 	adc.w	r2, r2, r2
   157ca:	bf28      	it	cs
   157cc:	eba0 30c1 	subcs.w	r0, r0, r1, lsl #15
   157d0:	ebb0 3f81 	cmp.w	r0, r1, lsl #14
   157d4:	bf00      	nop
   157d6:	eb42 0202 	adc.w	r2, r2, r2
   157da:	bf28      	it	cs
   157dc:	eba0 3081 	subcs.w	r0, r0, r1, lsl #14
   157e0:	ebb0 3f41 	cmp.w	r0, r1, lsl #13
   157e4:	bf00      	nop
   157e6:	eb42 0202 	adc.w	r2, r2, r2
   157ea:	bf28      	it	cs
   157ec:	eba0 3041 	subcs.w	r0, r0, r1, lsl #13
   157f0:	ebb0 3f01 	cmp.w	r0, r1, lsl #12
   157f4:	bf00      	nop
   157f6:	eb42 0202 	adc.w	r2, r2, r2
   157fa:	bf28      	it	cs
   157fc:	eba0 3001 	subcs.w	r0, r0, r1, lsl #12
   15800:	ebb0 2fc1 	cmp.w	r0, r1, lsl #11
   15804:	bf00      	nop
   15806:	eb42 0202 	adc.w	r2, r2, r2
   1580a:	bf28      	it	cs
   1580c:	eba0 20c1 	subcs.w	r0, r0, r1, lsl #11
   15810:	ebb0 2f81 	cmp.w	r0, r1, lsl #10
   15814:	bf00      	nop
   15816:	eb42 0202 	adc.w	r2, r2, r2
   1581a:	bf28      	it	cs
   1581c:	eba0 2081 	subcs.w	r0, r0, r1, lsl #10
   15820:	ebb0 2f41 	cmp.w	r0, r1, lsl #9
   15824:	bf00      	nop
   15826:	eb42 0202 	adc.w	r2, r2, r2
   1582a:	bf28      	it	cs
   1582c:	eba0 2041 	subcs.w	r0, r0, r1, lsl #9
   15830:	ebb0 2f01 	cmp.w	r0, r1, lsl #8
   15834:	bf00      	nop
   15836:	eb42 0202 	adc.w	r2, r2, r2
   1583a:	bf28      	it	cs
   1583c:	eba0 2001 	subcs.w	r0, r0, r1, lsl #8
   15840:	ebb0 1fc1 	cmp.w	r0, r1, lsl #7
   15844:	bf00      	nop
   15846:	eb42 0202 	adc.w	r2, r2, r2
   1584a:	bf28      	it	cs
   1584c:	eba0 10c1 	subcs.w	r0, r0, r1, lsl #7
   15850:	ebb0 1f81 	cmp.w	r0, r1, lsl #6
   15854:	bf00      	nop
   15856:	eb42 0202 	adc.w	r2, r2, r2
   1585a:	bf28      	it	cs
   1585c:	eba0 1081 	subcs.w	r0, r0, r1, lsl #6
   15860:	ebb0 1f41 	cmp.w	r0, r1, lsl #5
   15864:	bf00      	nop
   15866:	eb42 0202 	adc.w	r2, r2, r2
   1586a:	bf28      	it	cs
   1586c:	eba0 1041 	subcs.w	r0, r0, r1, lsl #5
   15870:	ebb0 1f01 	cmp.w	r0, r1, lsl #4
   15874:	bf00      	nop
   15876:	eb42 0202 	adc.w	r2, r2, r2
   1587a:	bf28      	it	cs
   1587c:	eba0 1001 	subcs.w	r0, r0, r1, lsl #4
   15880:	ebb0 0fc1 	cmp.w	r0, r1, lsl #3
   15884:	bf00      	nop
   15886:	eb42 0202 	adc.w	r2, r2, r2
   1588a:	bf28      	it	cs
   1588c:	eba0 00c1 	subcs.w	r0, r0, r1, lsl #3
   15890:	ebb0 0f81 	cmp.w	r0, r1, lsl #2
   15894:	bf00      	nop
   15896:	eb42 0202 	adc.w	r2, r2, r2
   1589a:	bf28      	it	cs
   1589c:	eba0 0081 	subcs.w	r0, r0, r1, lsl #2
   158a0:	ebb0 0f41 	cmp.w	r0, r1, lsl #1
   158a4:	bf00      	nop
   158a6:	eb42 0202 	adc.w	r2, r2, r2
   158aa:	bf28      	it	cs
   158ac:	eba0 0041 	subcs.w	r0, r0, r1, lsl #1
   158b0:	ebb0 0f01 	cmp.w	r0, r1
   158b4:	bf00      	nop
   158b6:	eb42 0202 	adc.w	r2, r2, r2
   158ba:	bf28      	it	cs
   158bc:	eba0 0001 	subcs.w	r0, r0, r1
   158c0:	4610      	mov	r0, r2
   158c2:	4770      	bx	lr
   158c4:	bf0c      	ite	eq
   158c6:	2001      	moveq	r0, #1
   158c8:	2000      	movne	r0, #0
   158ca:	4770      	bx	lr
   158cc:	fab1 f281 	clz	r2, r1
   158d0:	f1c2 021f 	rsb	r2, r2, #31
   158d4:	fa20 f002 	lsr.w	r0, r0, r2
   158d8:	4770      	bx	lr
   158da:	b108      	cbz	r0, 158e0 <__udivsi3+0x258>
   158dc:	f04f 30ff 	mov.w	r0, #4294967295
   158e0:	f000 b80e 	b.w	15900 <__aeabi_idiv0>

000158e4 <__aeabi_uidivmod>:
   158e4:	2900      	cmp	r1, #0
   158e6:	d0f8      	beq.n	158da <__udivsi3+0x252>
   158e8:	e92d 4003 	stmdb	sp!, {r0, r1, lr}
   158ec:	f7ff fecc 	bl	15688 <__udivsi3>
   158f0:	e8bd 4006 	ldmia.w	sp!, {r1, r2, lr}
   158f4:	fb02 f300 	mul.w	r3, r2, r0
   158f8:	eba1 0103 	sub.w	r1, r1, r3
   158fc:	4770      	bx	lr
   158fe:	bf00      	nop

00015900 <__aeabi_idiv0>:
   15900:	4770      	bx	lr
   15902:	bf00      	nop

00015904 <__aeabi_uldivmod>:
   15904:	b953      	cbnz	r3, 1591c <__aeabi_uldivmod+0x18>
   15906:	b94a      	cbnz	r2, 1591c <__aeabi_uldivmod+0x18>
   15908:	2900      	cmp	r1, #0
   1590a:	bf08      	it	eq
   1590c:	2800      	cmpeq	r0, #0
   1590e:	bf1c      	itt	ne
   15910:	f04f 31ff 	movne.w	r1, #4294967295
   15914:	f04f 30ff 	movne.w	r0, #4294967295
   15918:	f7ff bff2 	b.w	15900 <__aeabi_idiv0>
   1591c:	f1ad 0c08 	sub.w	ip, sp, #8
   15920:	e96d ce04 	strd	ip, lr, [sp, #-16]!
   15924:	f000 f806 	bl	15934 <__udivmoddi4>
   15928:	f8dd e004 	ldr.w	lr, [sp, #4]
   1592c:	e9dd 2302 	ldrd	r2, r3, [sp, #8]
   15930:	b004      	add	sp, #16
   15932:	4770      	bx	lr

00015934 <__udivmoddi4>:
   15934:	4299      	cmp	r1, r3
   15936:	bf08      	it	eq
   15938:	4290      	cmpeq	r0, r2
   1593a:	e92d 47f0 	stmdb	sp!, {r4, r5, r6, r7, r8, r9, sl, lr}
   1593e:	4604      	mov	r4, r0
   15940:	460d      	mov	r5, r1
   15942:	f8dd a020 	ldr.w	sl, [sp, #32]
   15946:	bf3c      	itt	cc
   15948:	2000      	movcc	r0, #0
   1594a:	2100      	movcc	r1, #0
   1594c:	d369      	bcc.n	15a22 <__udivmoddi4+0xee>
   1594e:	fab3 f683 	clz	r6, r3
   15952:	2b00      	cmp	r3, #0
   15954:	d070      	beq.n	15a38 <__udivmoddi4+0x104>
   15956:	fab5 f185 	clz	r1, r5
   1595a:	2d00      	cmp	r5, #0
   1595c:	d068      	beq.n	15a30 <__udivmoddi4+0xfc>
   1595e:	1a76      	subs	r6, r6, r1
   15960:	f1a6 0e20 	sub.w	lr, r6, #32
   15964:	fa03 f906 	lsl.w	r9, r3, r6
   15968:	f1c6 0720 	rsb	r7, r6, #32
   1596c:	fa02 f30e 	lsl.w	r3, r2, lr
   15970:	ea49 0903 	orr.w	r9, r9, r3
   15974:	fa22 f307 	lsr.w	r3, r2, r7
   15978:	ea49 0903 	orr.w	r9, r9, r3
   1597c:	fa02 f806 	lsl.w	r8, r2, r6
   15980:	454d      	cmp	r5, r9
   15982:	bf08      	it	eq
   15984:	4544      	cmpeq	r4, r8
   15986:	bf3c      	itt	cc
   15988:	2000      	movcc	r0, #0
   1598a:	2100      	movcc	r1, #0
   1598c:	d30c      	bcc.n	159a8 <__udivmoddi4+0x74>
   1598e:	2301      	movs	r3, #1
   15990:	ebb4 0408 	subs.w	r4, r4, r8
   15994:	fa03 f10e 	lsl.w	r1, r3, lr
   15998:	fa23 f207 	lsr.w	r2, r3, r7
   1599c:	ea41 0102 	orr.w	r1, r1, r2
   159a0:	eb65 0509 	sbc.w	r5, r5, r9
   159a4:	fa03 f006 	lsl.w	r0, r3, r6
   159a8:	2e00      	cmp	r6, #0
   159aa:	d03a      	beq.n	15a22 <__udivmoddi4+0xee>
   159ac:	ea5f 0959 	movs.w	r9, r9, lsr #1
   159b0:	ea4f 0838 	mov.w	r8, r8, rrx
   159b4:	46b4      	mov	ip, r6
   159b6:	e00b      	b.n	159d0 <__udivmoddi4+0x9c>
   159b8:	ebb4 0408 	subs.w	r4, r4, r8
   159bc:	eb65 0509 	sbc.w	r5, r5, r9
   159c0:	1924      	adds	r4, r4, r4
   159c2:	416d      	adcs	r5, r5
   159c4:	3401      	adds	r4, #1
   159c6:	f145 0500 	adc.w	r5, r5, #0
   159ca:	f1bc 0c01 	subs.w	ip, ip, #1
   159ce:	d008      	beq.n	159e2 <__udivmoddi4+0xae>
   159d0:	454d      	cmp	r5, r9
   159d2:	bf08      	it	eq
   159d4:	4544      	cmpeq	r4, r8
   159d6:	d2ef      	bcs.n	159b8 <__udivmoddi4+0x84>
   159d8:	1924      	adds	r4, r4, r4
   159da:	416d      	adcs	r5, r5
   159dc:	f1bc 0c01 	subs.w	ip, ip, #1
   159e0:	d1f6      	bne.n	159d0 <__udivmoddi4+0x9c>
   159e2:	fa05 f707 	lsl.w	r7, r5, r7
   159e6:	fa24 f306 	lsr.w	r3, r4, r6
   159ea:	fa25 fe0e 	lsr.w	lr, r5, lr
   159ee:	433b      	orrs	r3, r7
   159f0:	fa25 f706 	lsr.w	r7, r5, r6
   159f4:	1900      	adds	r0, r0, r4
   159f6:	ea43 040e 	orr.w	r4, r3, lr
   159fa:	4169      	adcs	r1, r5
   159fc:	f1a6 0e20 	sub.w	lr, r6, #32
   15a00:	463d      	mov	r5, r7
   15a02:	fa05 f306 	lsl.w	r3, r5, r6
   15a06:	f1c6 0720 	rsb	r7, r6, #32
   15a0a:	fa04 fe0e 	lsl.w	lr, r4, lr
   15a0e:	fa24 f707 	lsr.w	r7, r4, r7
   15a12:	ea43 030e 	orr.w	r3, r3, lr
   15a16:	fa04 f206 	lsl.w	r2, r4, r6
   15a1a:	433b      	orrs	r3, r7
   15a1c:	1a80      	subs	r0, r0, r2
   15a1e:	eb61 0103 	sbc.w	r1, r1, r3
   15a22:	f1ba 0f00 	cmp.w	sl, #0
   15a26:	d001      	beq.n	15a2c <__udivmoddi4+0xf8>
   15a28:	e9ca 4500 	strd	r4, r5, [sl]
   15a2c:	e8bd 87f0 	ldmia.w	sp!, {r4, r5, r6, r7, r8, r9, sl, pc}
   15a30:	fab4 f184 	clz	r1, r4
   15a34:	3120      	adds	r1, #32
   15a36:	e792      	b.n	1595e <__udivmoddi4+0x2a>
   15a38:	fab2 f682 	clz	r6, r2
   15a3c:	fab5 f185 	clz	r1, r5
   15a40:	3620      	adds	r6, #32
   15a42:	2d00      	cmp	r5, #0
   15a44:	d18b      	bne.n	1595e <__udivmoddi4+0x2a>
   15a46:	e7f3      	b.n	15a30 <__udivmoddi4+0xfc>
