
kernel.elf:     file format elf32-littlearm


Disassembly of section .init:

00008000 <_start>:
    8000:	e1a0c00f 	mov	ip, pc
    8004:	e10fb000 	mrs	fp, CPSR
    8008:	e20bb01f 	and	fp, fp, #31

0000800c <multicore_start>:
    800c:	e10f0000 	mrs	r0, CPSR
    8010:	e200101f 	and	r1, r0, #31
    8014:	e351001a 	cmp	r1, #26
    8018:	1a000005 	bne	8034 <.NotInHypMode>
    801c:	e3c0001f 	bic	r0, r0, #31
    8020:	e38000d3 	orr	r0, r0, #211	; 0xd3
    8024:	e16ff000 	msr	SPSR_fsxc, r0
    8028:	e28fe004 	add	lr, pc, #4
    802c:	e12ef30e 	.word	0xe12ef30e
    8030:	e160006e 	.word	0xe160006e

00008034 <.NotInHypMode>:
    8034:	e59f2248 	ldr	r2, [pc, #584]	; 8284 <hang+0x4>
    8038:	e59f3248 	ldr	r3, [pc, #584]	; 8288 <hang+0x8>
    803c:	e59f4248 	ldr	r4, [pc, #584]	; 828c <hang+0xc>
    8040:	ee100f10 	mrc	15, 0, r0, cr0, cr0, {0}
    8044:	e59f1244 	ldr	r1, [pc, #580]	; 8290 <hang+0x10>
    8048:	e1510000 	cmp	r1, r0
    804c:	0a00000f 	beq	8090 <set_svc_stack>
    8050:	ee105fb0 	mrc	15, 0, r5, cr0, cr0, {5}
    8054:	e2155003 	ands	r5, r5, #3
    8058:	0a00000c 	beq	8090 <set_svc_stack>
    805c:	e59f2230 	ldr	r2, [pc, #560]	; 8294 <hang+0x14>
    8060:	e59f3230 	ldr	r3, [pc, #560]	; 8298 <hang+0x18>
    8064:	e59f4230 	ldr	r4, [pc, #560]	; 829c <hang+0x1c>
    8068:	e3550001 	cmp	r5, #1
    806c:	0a000007 	beq	8090 <set_svc_stack>
    8070:	e59f2228 	ldr	r2, [pc, #552]	; 82a0 <hang+0x20>
    8074:	e59f3228 	ldr	r3, [pc, #552]	; 82a4 <hang+0x24>
    8078:	e59f4228 	ldr	r4, [pc, #552]	; 82a8 <hang+0x28>
    807c:	e3550002 	cmp	r5, #2
    8080:	0a000002 	beq	8090 <set_svc_stack>
    8084:	e59f2220 	ldr	r2, [pc, #544]	; 82ac <hang+0x2c>
    8088:	e59f3220 	ldr	r3, [pc, #544]	; 82b0 <hang+0x30>
    808c:	e59f4220 	ldr	r4, [pc, #544]	; 82b4 <hang+0x34>

00008090 <set_svc_stack>:
    8090:	e1a0d002 	mov	sp, r2
    8094:	e10f0000 	mrs	r0, CPSR
    8098:	e3c0001f 	bic	r0, r0, #31
    809c:	e38000d1 	orr	r0, r0, #209	; 0xd1
    80a0:	e121f000 	msr	CPSR_c, r0
    80a4:	e1a0d003 	mov	sp, r3
    80a8:	e3c0001f 	bic	r0, r0, #31
    80ac:	e38000d2 	orr	r0, r0, #210	; 0xd2
    80b0:	e121f000 	msr	CPSR_c, r0
    80b4:	e1a0d004 	mov	sp, r4
    80b8:	e3c0001f 	bic	r0, r0, #31
    80bc:	e38000d3 	orr	r0, r0, #211	; 0xd3
    80c0:	e121f000 	msr	CPSR_c, r0
    80c4:	ee110f51 	mrc	15, 0, r0, cr1, cr1, {2}
    80c8:	e3500b03 	cmp	r0, #3072	; 0xc00
    80cc:	0a000001 	beq	80d8 <.free_to_enable_fpu1>
    80d0:	e3800b03 	orr	r0, r0, #3072	; 0xc00
    80d4:	ee010f51 	mcr	15, 0, r0, cr1, cr1, {2}

000080d8 <.free_to_enable_fpu1>:
    80d8:	ee110f50 	mrc	15, 0, r0, cr1, cr0, {2}
    80dc:	e380060f 	orr	r0, r0, #15728640	; 0xf00000
    80e0:	ee010f50 	mcr	15, 0, r0, cr1, cr0, {2}
    80e4:	e3a00101 	mov	r0, #1073741824	; 0x40000000
    80e8:	eee80a10 	vmsr	fpexc, r0
    80ec:	ee110f10 	mrc	15, 0, r0, cr1, cr0, {0}
    80f0:	e3800b02 	orr	r0, r0, #2048	; 0x800
    80f4:	e3800004 	orr	r0, r0, #4
    80f8:	e3800a01 	orr	r0, r0, #4096	; 0x1000
    80fc:	ee010f10 	mcr	15, 0, r0, cr1, cr0, {0}
    8100:	ee100f10 	mrc	15, 0, r0, cr0, cr0, {0}
    8104:	e59f1184 	ldr	r1, [pc, #388]	; 8290 <hang+0x10>
    8108:	e1510000 	cmp	r1, r0
    810c:	0a000007 	beq	8130 <.cpu0_exit_multicore_park>
    8110:	ee100fb0 	mrc	15, 0, r0, cr0, cr0, {5}
    8114:	e2100003 	ands	r0, r0, #3
    8118:	0a000004 	beq	8130 <.cpu0_exit_multicore_park>
    811c:	e59f1194 	ldr	r1, [pc, #404]	; 82b8 <hang+0x38>
    8120:	e5910000 	ldr	r0, [r1]
    8124:	e2800001 	add	r0, r0, #1
    8128:	e5810000 	str	r0, [r1]
    812c:	ea000080 	b	8334 <SecondarySpin>

00008130 <.cpu0_exit_multicore_park>:
    8130:	e59f1184 	ldr	r1, [pc, #388]	; 82bc <hang+0x3c>
    8134:	e24cc008 	sub	ip, ip, #8
    8138:	e581c000 	str	ip, [r1]
    813c:	e59f117c 	ldr	r1, [pc, #380]	; 82c0 <hang+0x40>
    8140:	e581b000 	str	fp, [r1]
    8144:	e3a00001 	mov	r0, #1
    8148:	e59f1168 	ldr	r1, [pc, #360]	; 82b8 <hang+0x38>
    814c:	e5810000 	str	r0, [r1]
    8150:	e10f2000 	mrs	r2, CPSR
    8154:	e202201f 	and	r2, r2, #31
    8158:	e59f1164 	ldr	r1, [pc, #356]	; 82c4 <hang+0x44>
    815c:	e5812000 	str	r2, [r1]
    8160:	e59f1160 	ldr	r1, [pc, #352]	; 82c8 <hang+0x48>
    8164:	ee100f10 	mrc	15, 0, r0, cr0, cr0, {0}
    8168:	e5810000 	str	r0, [r1]
    816c:	e0200000 	eor	r0, r0, r0
    8170:	e3800080 	orr	r0, r0, #128	; 0x80
    8174:	e59f1150 	ldr	r1, [pc, #336]	; 82cc <hang+0x4c>
    8178:	e5810000 	str	r0, [r1]
    817c:	e59f214c 	ldr	r2, [pc, #332]	; 82d0 <hang+0x50>
    8180:	e59f114c 	ldr	r1, [pc, #332]	; 82d4 <hang+0x54>
    8184:	e5910000 	ldr	r0, [r1]
    8188:	e1520000 	cmp	r2, r0
    818c:	1a000006 	bne	81ac <.not_at_address_1>
    8190:	e59f1140 	ldr	r1, [pc, #320]	; 82d8 <hang+0x58>
    8194:	e3a00101 	mov	r0, #1073741824	; 0x40000000
    8198:	e5810000 	str	r0, [r1]
    819c:	e59f1138 	ldr	r1, [pc, #312]	; 82dc <hang+0x5c>
    81a0:	e3a00202 	mov	r0, #536870912	; 0x20000000
    81a4:	e5810000 	str	r0, [r1]
    81a8:	ea00000a 	b	81d8 <.autodetect_done>

000081ac <.not_at_address_1>:
    81ac:	e59f112c 	ldr	r1, [pc, #300]	; 82e0 <hang+0x60>
    81b0:	e5910000 	ldr	r0, [r1]
    81b4:	e1520000 	cmp	r2, r0
    81b8:	0a000000 	beq	81c0 <.At2ndAddress>

000081bc <.pi_detect_fail>:
    81bc:	eafffffe 	b	81bc <.pi_detect_fail>

000081c0 <.At2ndAddress>:
    81c0:	e59f1110 	ldr	r1, [pc, #272]	; 82d8 <hang+0x58>
    81c4:	e3a00103 	mov	r0, #-1073741824	; 0xc0000000
    81c8:	e5810000 	str	r0, [r1]
    81cc:	e59f1108 	ldr	r1, [pc, #264]	; 82dc <hang+0x5c>
    81d0:	e3a0043f 	mov	r0, #1056964608	; 0x3f000000
    81d4:	e5810000 	str	r0, [r1]

000081d8 <.autodetect_done>:
    81d8:	e59f0104 	ldr	r0, [pc, #260]	; 82e4 <hang+0x64>
    81dc:	e3a01000 	mov	r1, #0
    81e0:	e8b003fc 	ldm	r0!, {r2, r3, r4, r5, r6, r7, r8, r9}
    81e4:	e8a103fc 	stmia	r1!, {r2, r3, r4, r5, r6, r7, r8, r9}
    81e8:	e8b003fc 	ldm	r0!, {r2, r3, r4, r5, r6, r7, r8, r9}
    81ec:	e8a103fc 	stmia	r1!, {r2, r3, r4, r5, r6, r7, r8, r9}
    81f0:	e59f00f0 	ldr	r0, [pc, #240]	; 82e8 <hang+0x68>
    81f4:	e59f10f0 	ldr	r1, [pc, #240]	; 82ec <hang+0x6c>
    81f8:	e3a02000 	mov	r2, #0

000081fc <.clear_bss>:
    81fc:	e1500001 	cmp	r0, r1
    8200:	aa000002 	bge	8210 <.clear_bss_exit>
    8204:	e5802000 	str	r2, [r0]
    8208:	e2800004 	add	r0, r0, #4
    820c:	eafffffa 	b	81fc <.clear_bss>

00008210 <.clear_bss_exit>:
    8210:	ee100f10 	mrc	15, 0, r0, cr0, cr0, {0}
    8214:	e59f1074 	ldr	r1, [pc, #116]	; 8290 <hang+0x10>
    8218:	e1510000 	cmp	r1, r0
    821c:	0a000016 	beq	827c <.NoMultiCoreSetup>
    8220:	e59f1094 	ldr	r1, [pc, #148]	; 82bc <hang+0x3c>
    8224:	e5910000 	ldr	r0, [r1]
    8228:	e3a01902 	mov	r1, #32768	; 0x8000
    822c:	e1510000 	cmp	r1, r0
    8230:	1a000011 	bne	827c <.NoMultiCoreSetup>
    8234:	e3a01101 	mov	r1, #1073741824	; 0x40000000
    8238:	e59f20b0 	ldr	r2, [pc, #176]	; 82f0 <hang+0x70>
    823c:	e581209c 	str	r2, [r1, #156]	; 0x9c
    8240:	e59f3070 	ldr	r3, [pc, #112]	; 82b8 <hang+0x38>

00008244 <.WaitCore1ACK>:
    8244:	e5931000 	ldr	r1, [r3]
    8248:	e3510002 	cmp	r1, #2
    824c:	0afffffc 	beq	8244 <.WaitCore1ACK>
    8250:	e3a01101 	mov	r1, #1073741824	; 0x40000000
    8254:	e59f2094 	ldr	r2, [pc, #148]	; 82f0 <hang+0x70>
    8258:	e58120ac 	str	r2, [r1, #172]	; 0xac

0000825c <.WaitCore2ACK>:
    825c:	e5931000 	ldr	r1, [r3]
    8260:	e3510003 	cmp	r1, #3
    8264:	0afffffc 	beq	825c <.WaitCore2ACK>
    8268:	e3a01101 	mov	r1, #1073741824	; 0x40000000
    826c:	e58120bc 	str	r2, [r1, #188]	; 0xbc

00008270 <.WaitCore3ACK>:
    8270:	e5931000 	ldr	r1, [r3]
    8274:	e3510004 	cmp	r1, #4
    8278:	0afffffc 	beq	8270 <.WaitCore3ACK>

0000827c <.NoMultiCoreSetup>:
    827c:	eb002918 	bl	126e4 <kernel_main>

00008280 <hang>:
    8280:	eafffffe 	b	8280 <hang>
    8284:	000226e8 	.word	0x000226e8
    8288:	0001a6e8 	.word	0x0001a6e8
    828c:	0001a2e8 	.word	0x0001a2e8
    8290:	410fb767 	.word	0x410fb767
    8294:	000240e8 	.word	0x000240e8
    8298:	000230e8 	.word	0x000230e8
    829c:	00022ce8 	.word	0x00022ce8
    82a0:	00025ae8 	.word	0x00025ae8
    82a4:	00024ae8 	.word	0x00024ae8
    82a8:	000246e8 	.word	0x000246e8
    82ac:	000274e8 	.word	0x000274e8
    82b0:	000264e8 	.word	0x000264e8
    82b4:	000260e8 	.word	0x000260e8
    82b8:	00017c00 	.word	0x00017c00
    82bc:	00017bfc 	.word	0x00017bfc
    82c0:	00017c04 	.word	0x00017c04
    82c4:	00017c10 	.word	0x00017c10
    82c8:	00017c08 	.word	0x00017c08
    82cc:	00017c0c 	.word	0x00017c0c
    82d0:	61757830 	.word	0x61757830
    82d4:	20215010 	.word	0x20215010
    82d8:	00017bf0 	.word	0x00017bf0
    82dc:	00017bf8 	.word	0x00017bf8
    82e0:	3f215010 	.word	0x3f215010
    82e4:	000082f4 	.word	0x000082f4
    82e8:	000185c0 	.word	0x000185c0
    82ec:	00018684 	.word	0x00018684
    82f0:	0000800c 	.word	0x0000800c

000082f4 <_isr_Table>:
    82f4:	e59ff018 	ldr	pc, [pc, #24]	; 8314 <_reset_h>
    82f8:	e59ff018 	ldr	pc, [pc, #24]	; 8318 <_undefined_instruction_vector_h>
    82fc:	e59ff018 	ldr	pc, [pc, #24]	; 831c <_software_interrupt_vector_h>
    8300:	e59ff018 	ldr	pc, [pc, #24]	; 8320 <_prefetch_abort_vector_h>
    8304:	e59ff018 	ldr	pc, [pc, #24]	; 8324 <_data_abort_vector_h>
    8308:	e59ff018 	ldr	pc, [pc, #24]	; 8328 <_unused_handler_h>
    830c:	e59ff018 	ldr	pc, [pc, #24]	; 832c <_interrupt_vector_h>
    8310:	e59ff018 	ldr	pc, [pc, #24]	; 8330 <_fast_interrupt_vector_h>

00008314 <_reset_h>:
    8314:	00008000 	.word	0x00008000

00008318 <_undefined_instruction_vector_h>:
    8318:	00008280 	.word	0x00008280

0000831c <_software_interrupt_vector_h>:
    831c:	00008280 	.word	0x00008280

00008320 <_prefetch_abort_vector_h>:
    8320:	00008280 	.word	0x00008280

00008324 <_data_abort_vector_h>:
    8324:	00008280 	.word	0x00008280

00008328 <_unused_handler_h>:
    8328:	00008280 	.word	0x00008280

0000832c <_interrupt_vector_h>:
    832c:	00008398 	.word	0x00008398

00008330 <_fast_interrupt_vector_h>:
    8330:	00008280 	.word	0x00008280

00008334 <SecondarySpin>:
    8334:	ee100fb0 	mrc	15, 0, r0, cr0, cr0, {5}
    8338:	e2100003 	ands	r0, r0, #3
    833c:	e59f5044 	ldr	r5, [pc, #68]	; 8388 <atags+0x4>
    8340:	e5955000 	ldr	r5, [r5]
    8344:	e3a03000 	mov	r3, #0

00008348 <SecondarySpinLoop>:
    8348:	e320f002 	wfe
    834c:	e7954200 	ldr	r4, [r5, r0, lsl #4]
    8350:	e1540003 	cmp	r4, r3
    8354:	0afffffb 	beq	8348 <SecondarySpinLoop>
    8358:	e7854200 	str	r4, [r5, r0, lsl #4]
    835c:	e3a00000 	mov	r0, #0
    8360:	e59f1024 	ldr	r1, [pc, #36]	; 838c <atags+0x8>
    8364:	e5911000 	ldr	r1, [r1]
    8368:	e59f2020 	ldr	r2, [pc, #32]	; 8390 <atags+0xc>
    836c:	e5922000 	ldr	r2, [r2]
    8370:	e59fe01c 	ldr	lr, [pc, #28]	; 8394 <atags+0x10>
    8374:	e12fff14 	bx	r4
    8378:	eaffffed 	b	8334 <SecondarySpin>

0000837c <mbox>:
    837c:	400000cc 	.word	0x400000cc

00008380 <machid>:
    8380:	00000c42 	.word	0x00000c42

00008384 <atags>:
    8384:	00000100 	.word	0x00000100
    8388:	0000837c 	.word	0x0000837c
    838c:	00008380 	.word	0x00008380
    8390:	00008384 	.word	0x00008384
    8394:	00008334 	.word	0x00008334

00008398 <_irq_handler_stub>:
    8398:	e24ee004 	sub	lr, lr, #4
    839c:	f96d0513 	srsdb	sp!, #19
    83a0:	f1020013 	cps	#19
    83a4:	e92d100f 	push	{r0, r1, r2, r3, ip}
    83a8:	e1a0100d 	mov	r1, sp
    83ac:	e2011004 	and	r1, r1, #4
    83b0:	e04dd001 	sub	sp, sp, r1
    83b4:	e92d4002 	push	{r1, lr}
    83b8:	e59f3054 	ldr	r3, [pc, #84]	; 8414 <no_irqset+0x14>
    83bc:	e5933000 	ldr	r3, [r3]
    83c0:	e2832cb2 	add	r2, r3, #45568	; 0xb200
    83c4:	e5921000 	ldr	r1, [r2]
    83c8:	e3110001 	tst	r1, #1
    83cc:	0a000005 	beq	83e8 <.NoTimerIrq>
    83d0:	e2833b2d 	add	r3, r3, #46080	; 0xb400
    83d4:	e3a01001 	mov	r1, #1
    83d8:	e583100c 	str	r1, [r3, #12]
    83dc:	e5923004 	ldr	r3, [r2, #4]
    83e0:	e3c33001 	bic	r3, r3, #1
    83e4:	e5823004 	str	r3, [r2, #4]

000083e8 <.NoTimerIrq>:
    83e8:	f1080080 	cpsie	i
    83ec:	e59f0024 	ldr	r0, [pc, #36]	; 8418 <no_irqset+0x18>
    83f0:	e5900000 	ldr	r0, [r0]
    83f4:	e3500000 	cmp	r0, #0
    83f8:	0a000000 	beq	8400 <no_irqset>
    83fc:	e12fff30 	blx	r0

00008400 <no_irqset>:
    8400:	f10c0080 	cpsid	i
    8404:	e8bd4002 	pop	{r1, lr}
    8408:	e08dd001 	add	sp, sp, r1
    840c:	e8bd100f 	pop	{r0, r1, r2, r3, ip}
    8410:	f8bd0a00 	rfeia	sp!
    8414:	00017bf8 	.word	0x00017bf8
    8418:	00017bf4 	.word	0x00017bf4

Disassembly of section .text:

00008420 <setTimerIrqAddress>:
    8420:	f10c0080 	cpsid	i
    8424:	e59f100c 	ldr	r1, [pc, #12]	; 8438 <setTimerIrqAddress+0x18>
    8428:	e5912000 	ldr	r2, [r1]
    842c:	e5810000 	str	r0, [r1]
    8430:	e1a00002 	mov	r0, r2
    8434:	e12fff1e 	bx	lr
    8438:	00017bf4 	.word	0x00017bf4

0000843c <ARMaddrToGPUaddr>:
    843c:	e59f1008 	ldr	r1, [pc, #8]	; 844c <ARMaddrToGPUaddr+0x10>
    8440:	e5911000 	ldr	r1, [r1]
    8444:	e1800001 	orr	r0, r0, r1
    8448:	e12fff1e 	bx	lr
    844c:	00017bf0 	.word	0x00017bf0

00008450 <GPUaddrToARMaddr>:
    8450:	e59f1008 	ldr	r1, [pc, #8]	; 8460 <GPUaddrToARMaddr+0x10>
    8454:	e5911000 	ldr	r1, [r1]
    8458:	e1c00001 	bic	r0, r0, r1
    845c:	e12fff1e 	bx	lr
    8460:	00017bf0 	.word	0x00017bf0

00008464 <EnableInterrupts>:
    8464:	f1080080 	cpsie	i
    8468:	e12fff1e 	bx	lr

0000846c <DisableInterrupts>:
    846c:	f10c0080 	cpsid	i
    8470:	e12fff1e 	bx	lr

00008474 <CoreExecute>:
    8474:	e21000ff 	ands	r0, r0, #255	; 0xff
    8478:	0a000008 	beq	84a0 <CoreExecuteFail>
    847c:	e59f3024 	ldr	r3, [pc, #36]	; 84a8 <CoreExecuteFail+0x8>
    8480:	e5932000 	ldr	r2, [r3]
    8484:	e1500002 	cmp	r0, r2
    8488:	2a000004 	bcs	84a0 <CoreExecuteFail>
    848c:	e59f3018 	ldr	r3, [pc, #24]	; 84ac <CoreExecuteFail+0xc>
    8490:	e7831200 	str	r1, [r3, r0, lsl #4]
    8494:	e320f004 	sev
    8498:	e3a00001 	mov	r0, #1
    849c:	e12fff1e 	bx	lr

000084a0 <CoreExecuteFail>:
    84a0:	e3a00000 	mov	r0, #0
    84a4:	e12fff1e 	bx	lr
    84a8:	00017c00 	.word	0x00017c00
    84ac:	4000008c 	.word	0x4000008c

000084b0 <cvt_int>:
    84b0:	e92d4ff0 	push	{r4, r5, r6, r7, r8, r9, sl, fp, lr}
    84b4:	e24dd04c 	sub	sp, sp, #76	; 0x4c
    84b8:	e3120010 	tst	r2, #16
    84bc:	e58d2004 	str	r2, [sp, #4]
    84c0:	e1a03422 	lsr	r3, r2, #8
    84c4:	e1a05001 	mov	r5, r1
    84c8:	e2021001 	and	r1, r2, #1
    84cc:	e1a02c42 	asr	r2, r2, #24
    84d0:	e58d2008 	str	r2, [sp, #8]
    84d4:	13a02000 	movne	r2, #0
    84d8:	e203601f 	and	r6, r3, #31
    84dc:	11a01002 	movne	r1, r2
    84e0:	e203301f 	and	r3, r3, #31
    84e4:	158d2014 	strne	r2, [sp, #20]
    84e8:	e2432008 	sub	r2, r3, #8
    84ec:	e20220f7 	and	r2, r2, #247	; 0xf7
    84f0:	058d1014 	streq	r1, [sp, #20]
    84f4:	e3530002 	cmp	r3, #2
    84f8:	13520000 	cmpne	r2, #0
    84fc:	e59d2004 	ldr	r2, [sp, #4]
    8500:	e2013001 	and	r3, r1, #1
    8504:	e3c28001 	bic	r8, r2, #1
    8508:	e58d3018 	str	r3, [sp, #24]
    850c:	e1833008 	orr	r3, r3, r8
    8510:	e1a02003 	mov	r2, r3
    8514:	e58d3004 	str	r3, [sp, #4]
    8518:	e6ef3073 	uxtb	r3, r3
    851c:	13a0600a 	movne	r6, #10
    8520:	e3130001 	tst	r3, #1
    8524:	03a01020 	moveq	r1, #32
    8528:	13a01030 	movne	r1, #48	; 0x30
    852c:	e1a07402 	lsl	r7, r2, #8
    8530:	e58d101c 	str	r1, [sp, #28]
    8534:	e2132002 	ands	r2, r3, #2
    8538:	e1a01c47 	asr	r1, r7, #24
    853c:	e1a04000 	mov	r4, r0
    8540:	e2039020 	and	r9, r3, #32
    8544:	e58d100c 	str	r1, [sp, #12]
    8548:	0a00000a 	beq	8578 <cvt_int+0xc8>
    854c:	e3550000 	cmp	r5, #0
    8550:	ba000072 	blt	8720 <cvt_int+0x270>
    8554:	e3130004 	tst	r3, #4
    8558:	1a00008d 	bne	8794 <cvt_int+0x2e4>
    855c:	e2133008 	ands	r3, r3, #8
    8560:	058d3010 	streq	r3, [sp, #16]
    8564:	12413001 	subne	r3, r1, #1
    8568:	158d300c 	strne	r3, [sp, #12]
    856c:	13a03020 	movne	r3, #32
    8570:	158d3010 	strne	r3, [sp, #16]
    8574:	ea000000 	b	857c <cvt_int+0xcc>
    8578:	e58d2010 	str	r2, [sp, #16]
    857c:	e3550000 	cmp	r5, #0
    8580:	1a00006b 	bne	8734 <cvt_int+0x284>
    8584:	e3a03030 	mov	r3, #48	; 0x30
    8588:	e3a0b001 	mov	fp, #1
    858c:	e5cd3024 	strb	r3, [sp, #36]	; 0x24
    8590:	e59d3008 	ldr	r3, [sp, #8]
    8594:	e59d2014 	ldr	r2, [sp, #20]
    8598:	e15b0003 	cmp	fp, r3
    859c:	c6af307b 	sxtbgt	r3, fp
    85a0:	c58d3008 	strgt	r3, [sp, #8]
    85a4:	e59d3004 	ldr	r3, [sp, #4]
    85a8:	e1a03d83 	lsl	r3, r3, #27
    85ac:	e0823fa3 	add	r3, r2, r3, lsr #31
    85b0:	e3530000 	cmp	r3, #0
    85b4:	e59d2008 	ldr	r2, [sp, #8]
    85b8:	e59d300c 	ldr	r3, [sp, #12]
    85bc:	e0437002 	sub	r7, r3, r2
    85c0:	1a000043 	bne	86d4 <cvt_int+0x224>
    85c4:	e3570000 	cmp	r7, #0
    85c8:	e247a001 	sub	sl, r7, #1
    85cc:	da00003f 	ble	86d0 <cvt_int+0x220>
    85d0:	e3a08020 	mov	r8, #32
    85d4:	e24aa001 	sub	sl, sl, #1
    85d8:	e1a00008 	mov	r0, r8
    85dc:	e12fff34 	blx	r4
    85e0:	e37a0001 	cmn	sl, #1
    85e4:	1afffffa 	bne	85d4 <cvt_int+0x124>
    85e8:	e59d3004 	ldr	r3, [sp, #4]
    85ec:	e3c38001 	bic	r8, r3, #1
    85f0:	e59d3018 	ldr	r3, [sp, #24]
    85f4:	e1833008 	orr	r3, r3, r8
    85f8:	e6ef3073 	uxtb	r3, r3
    85fc:	e3130011 	tst	r3, #17
    8600:	03e0a001 	mvneq	sl, #1
    8604:	13e0a000 	mvnne	sl, #0
    8608:	e58d3004 	str	r3, [sp, #4]
    860c:	e59d3008 	ldr	r3, [sp, #8]
    8610:	e153000b 	cmp	r3, fp
    8614:	e2433001 	sub	r3, r3, #1
    8618:	e6af8073 	sxtb	r8, r3
    861c:	da000006 	ble	863c <cvt_int+0x18c>
    8620:	e3a00030 	mov	r0, #48	; 0x30
    8624:	e12fff34 	blx	r4
    8628:	e2483001 	sub	r3, r8, #1
    862c:	e15b0008 	cmp	fp, r8
    8630:	e2877001 	add	r7, r7, #1
    8634:	e6af8073 	sxtb	r8, r3
    8638:	bafffff8 	blt	8620 <cvt_int+0x170>
    863c:	e59d3010 	ldr	r3, [sp, #16]
    8640:	e3530000 	cmp	r3, #0
    8644:	1a00004e 	bne	8784 <cvt_int+0x2d4>
    8648:	e59d3004 	ldr	r3, [sp, #4]
    864c:	e3130040 	tst	r3, #64	; 0x40
    8650:	0a000005 	beq	866c <cvt_int+0x1bc>
    8654:	e3560008 	cmp	r6, #8
    8658:	0a000061 	beq	87e4 <cvt_int+0x334>
    865c:	e3560010 	cmp	r6, #16
    8660:	0a000059 	beq	87cc <cvt_int+0x31c>
    8664:	e3560002 	cmp	r6, #2
    8668:	0a000051 	beq	87b4 <cvt_int+0x304>
    866c:	e28d8024 	add	r8, sp, #36	; 0x24
    8670:	e2856001 	add	r6, r5, #1
    8674:	e0886006 	add	r6, r8, r6
    8678:	e5760001 	ldrb	r0, [r6, #-1]!
    867c:	e12fff34 	blx	r4
    8680:	e0463008 	sub	r3, r6, r8
    8684:	e3530000 	cmp	r3, #0
    8688:	cafffffa 	bgt	8678 <cvt_int+0x1c8>
    868c:	e2877001 	add	r7, r7, #1
    8690:	e35a0000 	cmp	sl, #0
    8694:	e0855007 	add	r5, r5, r7
    8698:	e24aa001 	sub	sl, sl, #1
    869c:	da000008 	ble	86c4 <cvt_int+0x214>
    86a0:	e1a0600a 	mov	r6, sl
    86a4:	e3a07020 	mov	r7, #32
    86a8:	e2466001 	sub	r6, r6, #1
    86ac:	e1a00007 	mov	r0, r7
    86b0:	e12fff34 	blx	r4
    86b4:	e3760001 	cmn	r6, #1
    86b8:	1afffffa 	bne	86a8 <cvt_int+0x1f8>
    86bc:	e2855001 	add	r5, r5, #1
    86c0:	e08a5005 	add	r5, sl, r5
    86c4:	e1a00005 	mov	r0, r5
    86c8:	e28dd04c 	add	sp, sp, #76	; 0x4c
    86cc:	e8bd8ff0 	pop	{r4, r5, r6, r7, r8, r9, sl, fp, pc}
    86d0:	e1a0700a 	mov	r7, sl
    86d4:	e59d3004 	ldr	r3, [sp, #4]
    86d8:	e3c38001 	bic	r8, r3, #1
    86dc:	e59d3018 	ldr	r3, [sp, #24]
    86e0:	e1833008 	orr	r3, r3, r8
    86e4:	e6ef3073 	uxtb	r3, r3
    86e8:	e58d3004 	str	r3, [sp, #4]
    86ec:	e2133011 	ands	r3, r3, #17
    86f0:	1a00002c 	bne	87a8 <cvt_int+0x2f8>
    86f4:	e3570000 	cmp	r7, #0
    86f8:	e247a001 	sub	sl, r7, #1
    86fc:	d1a07003 	movle	r7, r3
    8700:	daffffc1 	ble	860c <cvt_int+0x15c>
    8704:	e59d801c 	ldr	r8, [sp, #28]
    8708:	e24aa001 	sub	sl, sl, #1
    870c:	e1a00008 	mov	r0, r8
    8710:	e12fff34 	blx	r4
    8714:	e37a0001 	cmn	sl, #1
    8718:	1afffffa 	bne	8708 <cvt_int+0x258>
    871c:	eaffffba 	b	860c <cvt_int+0x15c>
    8720:	e2413001 	sub	r3, r1, #1
    8724:	e58d300c 	str	r3, [sp, #12]
    8728:	e3a0302d 	mov	r3, #45	; 0x2d
    872c:	e2655000 	rsb	r5, r5, #0
    8730:	e58d3010 	str	r3, [sp, #16]
    8734:	e28d8023 	add	r8, sp, #35	; 0x23
    8738:	e3a07000 	mov	r7, #0
    873c:	e59fa0b0 	ldr	sl, [pc, #176]	; 87f4 <cvt_int+0x344>
    8740:	ea000000 	b	8748 <cvt_int+0x298>
    8744:	e1a0700b 	mov	r7, fp
    8748:	e1a00005 	mov	r0, r5
    874c:	e1a01006 	mov	r1, r6
    8750:	eb003ca7 	bl	179f4 <__aeabi_idivmod>
    8754:	e1a0b001 	mov	fp, r1
    8758:	e1a00005 	mov	r0, r5
    875c:	e1a01006 	mov	r1, r6
    8760:	eb003c59 	bl	178cc <__divsi3>
    8764:	e7da300b 	ldrb	r3, [sl, fp]
    8768:	e2505000 	subs	r5, r0, #0
    876c:	e1893003 	orr	r3, r9, r3
    8770:	e5e83001 	strb	r3, [r8, #1]!
    8774:	e287b001 	add	fp, r7, #1
    8778:	1afffff1 	bne	8744 <cvt_int+0x294>
    877c:	e1a05007 	mov	r5, r7
    8780:	eaffff82 	b	8590 <cvt_int+0xe0>
    8784:	e1a00003 	mov	r0, r3
    8788:	e12fff34 	blx	r4
    878c:	e2877001 	add	r7, r7, #1
    8790:	eaffffac 	b	8648 <cvt_int+0x198>
    8794:	e2413001 	sub	r3, r1, #1
    8798:	e58d300c 	str	r3, [sp, #12]
    879c:	e3a0302b 	mov	r3, #43	; 0x2b
    87a0:	e58d3010 	str	r3, [sp, #16]
    87a4:	eaffff74 	b	857c <cvt_int+0xcc>
    87a8:	e1a0a007 	mov	sl, r7
    87ac:	e3a07000 	mov	r7, #0
    87b0:	eaffff95 	b	860c <cvt_int+0x15c>
    87b4:	e3a00030 	mov	r0, #48	; 0x30
    87b8:	e12fff34 	blx	r4
    87bc:	e3890042 	orr	r0, r9, #66	; 0x42
    87c0:	e2877002 	add	r7, r7, #2
    87c4:	e12fff34 	blx	r4
    87c8:	eaffffa7 	b	866c <cvt_int+0x1bc>
    87cc:	e3a00030 	mov	r0, #48	; 0x30
    87d0:	e12fff34 	blx	r4
    87d4:	e3890058 	orr	r0, r9, #88	; 0x58
    87d8:	e12fff34 	blx	r4
    87dc:	e2877002 	add	r7, r7, #2
    87e0:	eaffffa1 	b	866c <cvt_int+0x1bc>
    87e4:	e3a00030 	mov	r0, #48	; 0x30
    87e8:	e2877001 	add	r7, r7, #1
    87ec:	e12fff34 	blx	r4
    87f0:	eaffff9d 	b	866c <cvt_int+0x1bc>
    87f4:	00018688 	.word	0x00018688

000087f8 <number>:
    87f8:	e92d4ff0 	push	{r4, r5, r6, r7, r8, r9, sl, fp, lr}
    87fc:	e24dd0a4 	sub	sp, sp, #164	; 0xa4
    8800:	e3120010 	tst	r2, #16
    8804:	e58d2004 	str	r2, [sp, #4]
    8808:	e1a03422 	lsr	r3, r2, #8
    880c:	e1a08001 	mov	r8, r1
    8810:	e2021001 	and	r1, r2, #1
    8814:	e1a02c42 	asr	r2, r2, #24
    8818:	e58d2008 	str	r2, [sp, #8]
    881c:	13a02000 	movne	r2, #0
    8820:	e203601f 	and	r6, r3, #31
    8824:	11a01002 	movne	r1, r2
    8828:	e203301f 	and	r3, r3, #31
    882c:	158d2014 	strne	r2, [sp, #20]
    8830:	e2432008 	sub	r2, r3, #8
    8834:	e20220f7 	and	r2, r2, #247	; 0xf7
    8838:	058d1014 	streq	r1, [sp, #20]
    883c:	e3530002 	cmp	r3, #2
    8840:	13520000 	cmpne	r2, #0
    8844:	e59d2004 	ldr	r2, [sp, #4]
    8848:	e2013001 	and	r3, r1, #1
    884c:	e3c2a001 	bic	sl, r2, #1
    8850:	e58d3018 	str	r3, [sp, #24]
    8854:	e183300a 	orr	r3, r3, sl
    8858:	e1a02003 	mov	r2, r3
    885c:	e58d3004 	str	r3, [sp, #4]
    8860:	e6ef3073 	uxtb	r3, r3
    8864:	13a0600a 	movne	r6, #10
    8868:	e3130001 	tst	r3, #1
    886c:	03a01020 	moveq	r1, #32
    8870:	13a01030 	movne	r1, #48	; 0x30
    8874:	e1a02402 	lsl	r2, r2, #8
    8878:	e58d101c 	str	r1, [sp, #28]
    887c:	e1a02c42 	asr	r2, r2, #24
    8880:	e2131002 	ands	r1, r3, #2
    8884:	e1a04000 	mov	r4, r0
    8888:	e2037020 	and	r7, r3, #32
    888c:	e58d200c 	str	r2, [sp, #12]
    8890:	0a00000a 	beq	88c0 <number+0xc8>
    8894:	e3580000 	cmp	r8, #0
    8898:	ba000089 	blt	8ac4 <number+0x2cc>
    889c:	e3130004 	tst	r3, #4
    88a0:	1a0000a4 	bne	8b38 <number+0x340>
    88a4:	e2133008 	ands	r3, r3, #8
    88a8:	058d3010 	streq	r3, [sp, #16]
    88ac:	12423001 	subne	r3, r2, #1
    88b0:	158d300c 	strne	r3, [sp, #12]
    88b4:	13a03020 	movne	r3, #32
    88b8:	158d3010 	strne	r3, [sp, #16]
    88bc:	ea000000 	b	88c4 <number+0xcc>
    88c0:	e58d1010 	str	r1, [sp, #16]
    88c4:	e3580000 	cmp	r8, #0
    88c8:	1a000082 	bne	8ad8 <number+0x2e0>
    88cc:	e3a02001 	mov	r2, #1
    88d0:	e3a03030 	mov	r3, #48	; 0x30
    88d4:	e1a05008 	mov	r5, r8
    88d8:	e1a0a002 	mov	sl, r2
    88dc:	e5cd3020 	strb	r3, [sp, #32]
    88e0:	e59d3008 	ldr	r3, [sp, #8]
    88e4:	e1520003 	cmp	r2, r3
    88e8:	c6af3072 	sxtbgt	r3, r2
    88ec:	c58d3008 	strgt	r3, [sp, #8]
    88f0:	e59d3004 	ldr	r3, [sp, #4]
    88f4:	e1a01d83 	lsl	r1, r3, #27
    88f8:	e59d3014 	ldr	r3, [sp, #20]
    88fc:	e0831fa1 	add	r1, r3, r1, lsr #31
    8900:	e3510000 	cmp	r1, #0
    8904:	e59d300c 	ldr	r3, [sp, #12]
    8908:	e59d1008 	ldr	r1, [sp, #8]
    890c:	e0438001 	sub	r8, r3, r1
    8910:	1a000050 	bne	8a58 <number+0x260>
    8914:	e3580000 	cmp	r8, #0
    8918:	e248b001 	sub	fp, r8, #1
    891c:	da00004c 	ble	8a54 <number+0x25c>
    8920:	e58d500c 	str	r5, [sp, #12]
    8924:	e3a09020 	mov	r9, #32
    8928:	e1a0500b 	mov	r5, fp
    892c:	e1a0b002 	mov	fp, r2
    8930:	e2455001 	sub	r5, r5, #1
    8934:	e1a00009 	mov	r0, r9
    8938:	e12fff34 	blx	r4
    893c:	e3750001 	cmn	r5, #1
    8940:	1afffffa 	bne	8930 <number+0x138>
    8944:	e59d3004 	ldr	r3, [sp, #4]
    8948:	e59d1018 	ldr	r1, [sp, #24]
    894c:	e3c33001 	bic	r3, r3, #1
    8950:	e1813003 	orr	r3, r1, r3
    8954:	e6ef3073 	uxtb	r3, r3
    8958:	e3130010 	tst	r3, #16
    895c:	e1a0200b 	mov	r2, fp
    8960:	03e09001 	mvneq	r9, #1
    8964:	13e09000 	mvnne	r9, #0
    8968:	e59d500c 	ldr	r5, [sp, #12]
    896c:	e58d3004 	str	r3, [sp, #4]
    8970:	e59d3008 	ldr	r3, [sp, #8]
    8974:	e2431001 	sub	r1, r3, #1
    8978:	e1530002 	cmp	r3, r2
    897c:	e6afb071 	sxtb	fp, r1
    8980:	da00000f 	ble	89c4 <number+0x1cc>
    8984:	e58d6008 	str	r6, [sp, #8]
    8988:	e1a06008 	mov	r6, r8
    898c:	e1a08005 	mov	r8, r5
    8990:	e1a05004 	mov	r5, r4
    8994:	e1a04002 	mov	r4, r2
    8998:	e3a00030 	mov	r0, #48	; 0x30
    899c:	e12fff35 	blx	r5
    89a0:	e24b2001 	sub	r2, fp, #1
    89a4:	e154000b 	cmp	r4, fp
    89a8:	e2866001 	add	r6, r6, #1
    89ac:	e6afb072 	sxtb	fp, r2
    89b0:	bafffff8 	blt	8998 <number+0x1a0>
    89b4:	e1a04005 	mov	r4, r5
    89b8:	e1a05008 	mov	r5, r8
    89bc:	e1a08006 	mov	r8, r6
    89c0:	e59d6008 	ldr	r6, [sp, #8]
    89c4:	e59d3010 	ldr	r3, [sp, #16]
    89c8:	e3530000 	cmp	r3, #0
    89cc:	1a000055 	bne	8b28 <number+0x330>
    89d0:	e59d3004 	ldr	r3, [sp, #4]
    89d4:	e3130040 	tst	r3, #64	; 0x40
    89d8:	0a000005 	beq	89f4 <number+0x1fc>
    89dc:	e3560008 	cmp	r6, #8
    89e0:	0a000068 	beq	8b88 <number+0x390>
    89e4:	e3560010 	cmp	r6, #16
    89e8:	0a000060 	beq	8b70 <number+0x378>
    89ec:	e3560002 	cmp	r6, #2
    89f0:	0a000058 	beq	8b58 <number+0x360>
    89f4:	e28d7020 	add	r7, sp, #32
    89f8:	e087a00a 	add	sl, r7, sl
    89fc:	e57a0001 	ldrb	r0, [sl, #-1]!
    8a00:	e12fff34 	blx	r4
    8a04:	e04a3007 	sub	r3, sl, r7
    8a08:	e3530000 	cmp	r3, #0
    8a0c:	cafffffa 	bgt	89fc <number+0x204>
    8a10:	e2888001 	add	r8, r8, #1
    8a14:	e3590000 	cmp	r9, #0
    8a18:	e0855008 	add	r5, r5, r8
    8a1c:	e2499001 	sub	r9, r9, #1
    8a20:	da000008 	ble	8a48 <number+0x250>
    8a24:	e1a06009 	mov	r6, r9
    8a28:	e3a07020 	mov	r7, #32
    8a2c:	e2466001 	sub	r6, r6, #1
    8a30:	e1a00007 	mov	r0, r7
    8a34:	e12fff34 	blx	r4
    8a38:	e3760001 	cmn	r6, #1
    8a3c:	1afffffa 	bne	8a2c <number+0x234>
    8a40:	e2855001 	add	r5, r5, #1
    8a44:	e0895005 	add	r5, r9, r5
    8a48:	e1a00005 	mov	r0, r5
    8a4c:	e28dd0a4 	add	sp, sp, #164	; 0xa4
    8a50:	e8bd8ff0 	pop	{r4, r5, r6, r7, r8, r9, sl, fp, pc}
    8a54:	e1a0800b 	mov	r8, fp
    8a58:	e59d3004 	ldr	r3, [sp, #4]
    8a5c:	e59d1018 	ldr	r1, [sp, #24]
    8a60:	e3c33001 	bic	r3, r3, #1
    8a64:	e1813003 	orr	r3, r1, r3
    8a68:	e6ef3073 	uxtb	r3, r3
    8a6c:	e2131010 	ands	r1, r3, #16
    8a70:	e58d3004 	str	r3, [sp, #4]
    8a74:	1a000034 	bne	8b4c <number+0x354>
    8a78:	e3580000 	cmp	r8, #0
    8a7c:	e2489001 	sub	r9, r8, #1
    8a80:	d1a08001 	movle	r8, r1
    8a84:	daffffb9 	ble	8970 <number+0x178>
    8a88:	e1a03005 	mov	r3, r5
    8a8c:	e1a05009 	mov	r5, r9
    8a90:	e1a09003 	mov	r9, r3
    8a94:	e59db01c 	ldr	fp, [sp, #28]
    8a98:	e58d200c 	str	r2, [sp, #12]
    8a9c:	e2455001 	sub	r5, r5, #1
    8aa0:	e1a0000b 	mov	r0, fp
    8aa4:	e12fff34 	blx	r4
    8aa8:	e3750001 	cmn	r5, #1
    8aac:	1afffffa 	bne	8a9c <number+0x2a4>
    8ab0:	e1a03009 	mov	r3, r9
    8ab4:	e59d200c 	ldr	r2, [sp, #12]
    8ab8:	e1a09005 	mov	r9, r5
    8abc:	e1a05003 	mov	r5, r3
    8ac0:	eaffffaa 	b	8970 <number+0x178>
    8ac4:	e2423001 	sub	r3, r2, #1
    8ac8:	e58d300c 	str	r3, [sp, #12]
    8acc:	e3a0302d 	mov	r3, #45	; 0x2d
    8ad0:	e2688000 	rsb	r8, r8, #0
    8ad4:	e58d3010 	str	r3, [sp, #16]
    8ad8:	e28db01f 	add	fp, sp, #31
    8adc:	e3a05000 	mov	r5, #0
    8ae0:	e59f90b0 	ldr	r9, [pc, #176]	; 8b98 <number+0x3a0>
    8ae4:	ea000000 	b	8aec <number+0x2f4>
    8ae8:	e1a0500a 	mov	r5, sl
    8aec:	e1a00008 	mov	r0, r8
    8af0:	e1a01006 	mov	r1, r6
    8af4:	eb003bbe 	bl	179f4 <__aeabi_idivmod>
    8af8:	e1a0a001 	mov	sl, r1
    8afc:	e1a00008 	mov	r0, r8
    8b00:	e1a01006 	mov	r1, r6
    8b04:	eb003b70 	bl	178cc <__divsi3>
    8b08:	e7d9300a 	ldrb	r3, [r9, sl]
    8b0c:	e2508000 	subs	r8, r0, #0
    8b10:	e1873003 	orr	r3, r7, r3
    8b14:	e285a001 	add	sl, r5, #1
    8b18:	e5eb3001 	strb	r3, [fp, #1]!
    8b1c:	e1a0200a 	mov	r2, sl
    8b20:	1afffff0 	bne	8ae8 <number+0x2f0>
    8b24:	eaffff6d 	b	88e0 <number+0xe8>
    8b28:	e1a00003 	mov	r0, r3
    8b2c:	e12fff34 	blx	r4
    8b30:	e2888001 	add	r8, r8, #1
    8b34:	eaffffa5 	b	89d0 <number+0x1d8>
    8b38:	e2423001 	sub	r3, r2, #1
    8b3c:	e58d300c 	str	r3, [sp, #12]
    8b40:	e3a0302b 	mov	r3, #43	; 0x2b
    8b44:	e58d3010 	str	r3, [sp, #16]
    8b48:	eaffff5d 	b	88c4 <number+0xcc>
    8b4c:	e1a09008 	mov	r9, r8
    8b50:	e3a08000 	mov	r8, #0
    8b54:	eaffff85 	b	8970 <number+0x178>
    8b58:	e3a00030 	mov	r0, #48	; 0x30
    8b5c:	e12fff34 	blx	r4
    8b60:	e3870042 	orr	r0, r7, #66	; 0x42
    8b64:	e2888002 	add	r8, r8, #2
    8b68:	e12fff34 	blx	r4
    8b6c:	eaffffa0 	b	89f4 <number+0x1fc>
    8b70:	e3a00030 	mov	r0, #48	; 0x30
    8b74:	e12fff34 	blx	r4
    8b78:	e3870058 	orr	r0, r7, #88	; 0x58
    8b7c:	e12fff34 	blx	r4
    8b80:	e2888002 	add	r8, r8, #2
    8b84:	eaffff9a 	b	89f4 <number+0x1fc>
    8b88:	e3a00030 	mov	r0, #48	; 0x30
    8b8c:	e2888001 	add	r8, r8, #1
    8b90:	e12fff34 	blx	r4
    8b94:	eaffff96 	b	89f4 <number+0x1fc>
    8b98:	00018688 	.word	0x00018688

00008b9c <Buffer_WriteChar>:
    8b9c:	e59f3030 	ldr	r3, [pc, #48]	; 8bd4 <Buffer_WriteChar+0x38>
    8ba0:	e5932000 	ldr	r2, [r3]
    8ba4:	e3720001 	cmn	r2, #1
    8ba8:	0a000002 	beq	8bb8 <Buffer_WriteChar+0x1c>
    8bac:	e5931004 	ldr	r1, [r3, #4]
    8bb0:	e1520001 	cmp	r2, r1
    8bb4:	d12fff1e 	bxle	lr
    8bb8:	e5932008 	ldr	r2, [r3, #8]
    8bbc:	e3520000 	cmp	r2, #0
    8bc0:	15931004 	ldrne	r1, [r3, #4]
    8bc4:	1281c001 	addne	ip, r1, #1
    8bc8:	17c20001 	strbne	r0, [r2, r1]
    8bcc:	1583c004 	strne	ip, [r3, #4]
    8bd0:	e12fff1e 	bx	lr
    8bd4:	000185c0 	.word	0x000185c0

00008bd8 <NumStr>:
    8bd8:	e92d4ff0 	push	{r4, r5, r6, r7, r8, r9, sl, fp, lr}
    8bdc:	ed2d8b08 	vpush	{d8-d11}
    8be0:	e2505000 	subs	r5, r0, #0
    8be4:	e24ddf47 	sub	sp, sp, #284	; 0x11c
    8be8:	01a04005 	moveq	r4, r5
    8bec:	0a000081 	beq	8df8 <NumStr+0x220>
    8bf0:	eeb50bc0 	vcmpe.f64	d0, #0.0
    8bf4:	eef1fa10 	vmrs	APSR_nzcv, fpscr
    8bf8:	e28d0008 	add	r0, sp, #8
    8bfc:	4eb10b40 	vnegmi.f64	d0, d0
    8c00:	43a06001 	movmi	r6, #1
    8c04:	53a06000 	movpl	r6, #0
    8c08:	ed9f9bb8 	vldr	d9, [pc, #736]	; 8ef0 <NumStr+0x318>
    8c0c:	eb002751 	bl	12958 <modf>
    8c10:	ed9d6b02 	vldr	d6, [sp, #8]
    8c14:	eeb46b49 	vcmp.f64	d6, d9
    8c18:	eef1fa10 	vmrs	APSR_nzcv, fpscr
    8c1c:	eeb08b40 	vmov.f64	d8, d0
    8c20:	1a000018 	bne	8c88 <NumStr+0xb0>
    8c24:	eeb40bc9 	vcmpe.f64	d0, d9
    8c28:	eef1fa10 	vmrs	APSR_nzcv, fpscr
    8c2c:	da0000a3 	ble	8ec0 <NumStr+0x2e8>
    8c30:	ed9f5bb0 	vldr	d5, [pc, #704]	; 8ef8 <NumStr+0x320>
    8c34:	ed9f6bb1 	vldr	d6, [pc, #708]	; 8f00 <NumStr+0x328>
    8c38:	ee207b05 	vmul.f64	d7, d0, d5
    8c3c:	eeb47bc6 	vcmpe.f64	d7, d6
    8c40:	eef1fa10 	vmrs	APSR_nzcv, fpscr
    8c44:	ed8d7b04 	vstr	d7, [sp, #16]
    8c48:	5a00009c 	bpl	8ec0 <NumStr+0x2e8>
    8c4c:	eeb08b47 	vmov.f64	d8, d7
    8c50:	e3a0a000 	mov	sl, #0
    8c54:	ea000000 	b	8c5c <NumStr+0x84>
    8c58:	eeb08b47 	vmov.f64	d8, d7
    8c5c:	ee287b05 	vmul.f64	d7, d8, d5
    8c60:	eeb47bc6 	vcmpe.f64	d7, d6
    8c64:	eef1fa10 	vmrs	APSR_nzcv, fpscr
    8c68:	e24aa001 	sub	sl, sl, #1
    8c6c:	4afffff9 	bmi	8c58 <NumStr+0x80>
    8c70:	e28d9018 	add	r9, sp, #24
    8c74:	ed8d7b04 	vstr	d7, [sp, #16]
    8c78:	e1a0b009 	mov	fp, r9
    8c7c:	e3a07000 	mov	r7, #0
    8c80:	e20a807f 	and	r8, sl, #127	; 0x7f
    8c84:	ea000027 	b	8d28 <NumStr+0x150>
    8c88:	e28d4098 	add	r4, sp, #152	; 0x98
    8c8c:	e1a0b004 	mov	fp, r4
    8c90:	e3a0a000 	mov	sl, #0
    8c94:	ed9fbb97 	vldr	d11, [pc, #604]	; 8ef8 <NumStr+0x320>
    8c98:	ed9fab9a 	vldr	d10, [pc, #616]	; 8f08 <NumStr+0x330>
    8c9c:	ea000000 	b	8ca4 <NumStr+0xcc>
    8ca0:	e1a0b002 	mov	fp, r2
    8ca4:	ee860b0b 	vdiv.f64	d0, d6, d11
    8ca8:	e28d0008 	add	r0, sp, #8
    8cac:	eb002729 	bl	12958 <modf>
    8cb0:	ee307b0a 	vadd.f64	d7, d0, d10
    8cb4:	ee277b0b 	vmul.f64	d7, d7, d11
    8cb8:	ed9d6b02 	vldr	d6, [sp, #8]
    8cbc:	eefd7bc7 	vcvt.s32.f64	s15, d7
    8cc0:	eeb46b49 	vcmp.f64	d6, d9
    8cc4:	ee173a90 	vmov	r3, s15
    8cc8:	eef1fa10 	vmrs	APSR_nzcv, fpscr
    8ccc:	e28aa001 	add	sl, sl, #1
    8cd0:	e2833030 	add	r3, r3, #48	; 0x30
    8cd4:	e6ef3073 	uxtb	r3, r3
    8cd8:	e20a807f 	and	r8, sl, #127	; 0x7f
    8cdc:	ed8d0b04 	vstr	d0, [sp, #16]
    8ce0:	e54b3001 	strb	r3, [fp, #-1]
    8ce4:	e6ef7078 	uxtb	r7, r8
    8ce8:	e24b2001 	sub	r2, fp, #1
    8cec:	1affffeb 	bne	8ca0 <NumStr+0xc8>
    8cf0:	e1520004 	cmp	r2, r4
    8cf4:	e28d9018 	add	r9, sp, #24
    8cf8:	2a000079 	bcs	8ee4 <NumStr+0x30c>
    8cfc:	e0620089 	rsb	r0, r2, r9, lsl #1
    8d00:	e1a01009 	mov	r1, r9
    8d04:	e2800080 	add	r0, r0, #128	; 0x80
    8d08:	ea000000 	b	8d10 <NumStr+0x138>
    8d0c:	e5f23001 	ldrb	r3, [r2, #1]!
    8d10:	e4c13001 	strb	r3, [r1], #1
    8d14:	e1510000 	cmp	r1, r0
    8d18:	1afffffb 	bne	8d0c <NumStr+0x134>
    8d1c:	e28d2099 	add	r2, sp, #153	; 0x99
    8d20:	e042200b 	sub	r2, r2, fp
    8d24:	e089b002 	add	fp, r9, r2
    8d28:	e28d3096 	add	r3, sp, #150	; 0x96
    8d2c:	e083a00a 	add	sl, r3, sl
    8d30:	e15a0009 	cmp	sl, r9
    8d34:	e2063001 	and	r3, r6, #1
    8d38:	e58d3004 	str	r3, [sp, #4]
    8d3c:	e1a06703 	lsl	r6, r3, #14
    8d40:	33a03000 	movcc	r3, #0
    8d44:	e6ef8078 	uxtb	r8, r8
    8d48:	35cd3018 	strbcc	r3, [sp, #24]
    8d4c:	2a000038 	bcs	8e34 <NumStr+0x25c>
    8d50:	e208307f 	and	r3, r8, #127	; 0x7f
    8d54:	e3c66dfe 	bic	r6, r6, #16256	; 0x3f80
    8d58:	e1866383 	orr	r6, r6, r3, lsl #7
    8d5c:	e59d3004 	ldr	r3, [sp, #4]
    8d60:	e3c66901 	bic	r6, r6, #16384	; 0x4000
    8d64:	e1866703 	orr	r6, r6, r3, lsl #14
    8d68:	e1a03426 	lsr	r3, r6, #8
    8d6c:	e2134040 	ands	r4, r3, #64	; 0x40
    8d70:	03a0b001 	moveq	fp, #1
    8d74:	01a0a004 	moveq	sl, r4
    8d78:	1a000027 	bne	8e1c <NumStr+0x244>
    8d7c:	e3160dfe 	tst	r6, #16256	; 0x3f80
    8d80:	0a000022 	beq	8e10 <NumStr+0x238>
    8d84:	e3580000 	cmp	r8, #0
    8d88:	12486001 	subne	r6, r8, #1
    8d8c:	10896006 	addne	r6, r9, r6
    8d90:	12494001 	subne	r4, r9, #1
    8d94:	0a000015 	beq	8df0 <NumStr+0x218>
    8d98:	e5f40001 	ldrb	r0, [r4, #1]!
    8d9c:	e12fff35 	blx	r5
    8da0:	e1540006 	cmp	r4, r6
    8da4:	1afffffb 	bne	8d98 <NumStr+0x1c0>
    8da8:	e08ab008 	add	fp, sl, r8
    8dac:	e3580000 	cmp	r8, #0
    8db0:	0a000014 	beq	8e08 <NumStr+0x230>
    8db4:	e3a0002e 	mov	r0, #46	; 0x2e
    8db8:	e12fff35 	blx	r5
    8dbc:	e1580007 	cmp	r8, r7
    8dc0:	32486001 	subcc	r6, r8, #1
    8dc4:	e28bb001 	add	fp, fp, #1
    8dc8:	31a04008 	movcc	r4, r8
    8dcc:	30896006 	addcc	r6, r9, r6
    8dd0:	2a00000c 	bcs	8e08 <NumStr+0x230>
    8dd4:	e2844001 	add	r4, r4, #1
    8dd8:	e5f60001 	ldrb	r0, [r6, #1]!
    8ddc:	e12fff35 	blx	r5
    8de0:	e1540007 	cmp	r4, r7
    8de4:	3afffffa 	bcc	8dd4 <NumStr+0x1fc>
    8de8:	e0474008 	sub	r4, r7, r8
    8dec:	e084400b 	add	r4, r4, fp
    8df0:	e3a00000 	mov	r0, #0
    8df4:	e12fff35 	blx	r5
    8df8:	e1a00004 	mov	r0, r4
    8dfc:	e28ddf47 	add	sp, sp, #284	; 0x11c
    8e00:	ecbd8b08 	vpop	{d8-d11}
    8e04:	e8bd8ff0 	pop	{r4, r5, r6, r7, r8, r9, sl, fp, pc}
    8e08:	e1a0400b 	mov	r4, fp
    8e0c:	eafffff7 	b	8df0 <NumStr+0x218>
    8e10:	e3a00030 	mov	r0, #48	; 0x30
    8e14:	e12fff35 	blx	r5
    8e18:	eaffffe3 	b	8dac <NumStr+0x1d4>
    8e1c:	e3a04001 	mov	r4, #1
    8e20:	e3a0002d 	mov	r0, #45	; 0x2d
    8e24:	e1a0a004 	mov	sl, r4
    8e28:	e12fff35 	blx	r5
    8e2c:	e3a0b002 	mov	fp, #2
    8e30:	eaffffd1 	b	8d7c <NumStr+0x1a4>
    8e34:	e15a000b 	cmp	sl, fp
    8e38:	e28d4098 	add	r4, sp, #152	; 0x98
    8e3c:	23a03001 	movcs	r3, #1
    8e40:	33a03000 	movcc	r3, #0
    8e44:	e15b0004 	cmp	fp, r4
    8e48:	23a03000 	movcs	r3, #0
    8e4c:	e3530000 	cmp	r3, #0
    8e50:	0a000017 	beq	8eb4 <NumStr+0x2dc>
    8e54:	ed9f9b2d 	vldr	d9, [pc, #180]	; 8f10 <NumStr+0x338>
    8e58:	eeb48bc9 	vcmpe.f64	d8, d9
    8e5c:	eef1fa10 	vmrs	APSR_nzcv, fpscr
    8e60:	da000013 	ble	8eb4 <NumStr+0x2dc>
    8e64:	ed9fab23 	vldr	d10, [pc, #140]	; 8ef8 <NumStr+0x320>
    8e68:	e28d4098 	add	r4, sp, #152	; 0x98
    8e6c:	ea000002 	b	8e7c <NumStr+0x2a4>
    8e70:	eeb40bc9 	vcmpe.f64	d0, d9
    8e74:	eef1fa10 	vmrs	APSR_nzcv, fpscr
    8e78:	da00000d 	ble	8eb4 <NumStr+0x2dc>
    8e7c:	ee280b0a 	vmul.f64	d0, d8, d10
    8e80:	e28d0010 	add	r0, sp, #16
    8e84:	eb0026b3 	bl	12958 <modf>
    8e88:	ed9d7b04 	vldr	d7, [sp, #16]
    8e8c:	eefd7bc7 	vcvt.s32.f64	s15, d7
    8e90:	ee173a90 	vmov	r3, s15
    8e94:	e2833030 	add	r3, r3, #48	; 0x30
    8e98:	e4cb3001 	strb	r3, [fp], #1
    8e9c:	e15b000a 	cmp	fp, sl
    8ea0:	915b0004 	cmpls	fp, r4
    8ea4:	e2877001 	add	r7, r7, #1
    8ea8:	eeb08b40 	vmov.f64	d8, d0
    8eac:	e207707f 	and	r7, r7, #127	; 0x7f
    8eb0:	3affffee 	bcc	8e70 <NumStr+0x298>
    8eb4:	e3a03000 	mov	r3, #0
    8eb8:	e5cb3000 	strb	r3, [fp]
    8ebc:	eaffffa3 	b	8d50 <NumStr+0x178>
    8ec0:	e3a07000 	mov	r7, #0
    8ec4:	e2063001 	and	r3, r6, #1
    8ec8:	e28d9018 	add	r9, sp, #24
    8ecc:	e58d3004 	str	r3, [sp, #4]
    8ed0:	e1a06703 	lsl	r6, r3, #14
    8ed4:	e1a08007 	mov	r8, r7
    8ed8:	e1a0b009 	mov	fp, r9
    8edc:	e28da096 	add	sl, sp, #150	; 0x96
    8ee0:	eaffffdb 	b	8e54 <NumStr+0x27c>
    8ee4:	e1a0b009 	mov	fp, r9
    8ee8:	eaffff8e 	b	8d28 <NumStr+0x150>
    8eec:	e320f000 	nop	{0}
	...
    8efc:	40240000 	.word	0x40240000
    8f00:	00000000 	.word	0x00000000
    8f04:	3ff00000 	.word	0x3ff00000
    8f08:	eb851eb8 	.word	0xeb851eb8
    8f0c:	3f9eb851 	.word	0x3f9eb851
    8f10:	00000000 	.word	0x00000000
    8f14:	3cb00000 	.word	0x3cb00000

00008f18 <Process_Out>:
    8f18:	e3520000 	cmp	r2, #0
    8f1c:	13510000 	cmpne	r1, #0
    8f20:	e92d4ff0 	push	{r4, r5, r6, r7, r8, r9, sl, fp, lr}
    8f24:	03a05001 	moveq	r5, #1
    8f28:	13a05000 	movne	r5, #0
    8f2c:	e3500000 	cmp	r0, #0
    8f30:	03855001 	orreq	r5, r5, #1
    8f34:	e3550000 	cmp	r5, #0
    8f38:	e24dd024 	sub	sp, sp, #36	; 0x24
    8f3c:	1a0000be 	bne	923c <Process_Out+0x324>
    8f40:	e5d1a000 	ldrb	sl, [r1]
    8f44:	e35a0000 	cmp	sl, #0
    8f48:	0a0000bb 	beq	923c <Process_Out+0x324>
    8f4c:	e58d0010 	str	r0, [sp, #16]
    8f50:	e1a08001 	mov	r8, r1
    8f54:	e1a0000a 	mov	r0, sl
    8f58:	e3a09001 	mov	r9, #1
    8f5c:	e1a0a002 	mov	sl, r2
    8f60:	e58d3014 	str	r3, [sp, #20]
    8f64:	e2423001 	sub	r3, r2, #1
    8f68:	e58d5000 	str	r5, [sp]
    8f6c:	e58d3018 	str	r3, [sp, #24]
    8f70:	e3500025 	cmp	r0, #37	; 0x25
    8f74:	0a00000c 	beq	8fac <Process_Out+0x94>
    8f78:	e59d3010 	ldr	r3, [sp, #16]
    8f7c:	e12fff33 	blx	r3
    8f80:	e59d3000 	ldr	r3, [sp]
    8f84:	e2833001 	add	r3, r3, #1
    8f88:	e58d3000 	str	r3, [sp]
    8f8c:	e2855001 	add	r5, r5, #1
    8f90:	e7d80005 	ldrb	r0, [r8, r5]
    8f94:	e3500000 	cmp	r0, #0
    8f98:	115a0005 	cmpne	sl, r5
    8f9c:	8afffff3 	bhi	8f70 <Process_Out+0x58>
    8fa0:	e59d0000 	ldr	r0, [sp]
    8fa4:	e28dd024 	add	sp, sp, #36	; 0x24
    8fa8:	e8bd8ff0 	pop	{r4, r5, r6, r7, r8, r9, sl, fp, pc}
    8fac:	e3a06000 	mov	r6, #0
    8fb0:	e1a07006 	mov	r7, r6
    8fb4:	e088c005 	add	ip, r8, r5
    8fb8:	e58d6004 	str	r6, [sp, #4]
    8fbc:	e58d600c 	str	r6, [sp, #12]
    8fc0:	e58d6008 	str	r6, [sp, #8]
    8fc4:	e285b001 	add	fp, r5, #1
    8fc8:	e15a000b 	cmp	sl, fp
    8fcc:	9afffff3 	bls	8fa0 <Process_Out+0x88>
    8fd0:	e5fc0001 	ldrb	r0, [ip, #1]!
    8fd4:	e2403020 	sub	r3, r0, #32
    8fd8:	e3530010 	cmp	r3, #16
    8fdc:	979ff103 	ldrls	pc, [pc, r3, lsl #2]
    8fe0:	ea00001b 	b	9054 <Process_Out+0x13c>
    8fe4:	00009034 	.word	0x00009034
    8fe8:	00009054 	.word	0x00009054
    8fec:	00009054 	.word	0x00009054
    8ff0:	00009028 	.word	0x00009028
    8ff4:	00009054 	.word	0x00009054
    8ff8:	00009054 	.word	0x00009054
    8ffc:	00009054 	.word	0x00009054
    9000:	00009054 	.word	0x00009054
    9004:	00009054 	.word	0x00009054
    9008:	00009054 	.word	0x00009054
    900c:	00009054 	.word	0x00009054
    9010:	00009044 	.word	0x00009044
    9014:	00009054 	.word	0x00009054
    9018:	0000904c 	.word	0x0000904c
    901c:	00009054 	.word	0x00009054
    9020:	00009054 	.word	0x00009054
    9024:	0000903c 	.word	0x0000903c
    9028:	e58d9008 	str	r9, [sp, #8]
    902c:	e1a0500b 	mov	r5, fp
    9030:	eaffffe3 	b	8fc4 <Process_Out+0xac>
    9034:	e58d9004 	str	r9, [sp, #4]
    9038:	eafffffb 	b	902c <Process_Out+0x114>
    903c:	e1a07009 	mov	r7, r9
    9040:	eafffff9 	b	902c <Process_Out+0x114>
    9044:	e58d900c 	str	r9, [sp, #12]
    9048:	eafffff7 	b	902c <Process_Out+0x114>
    904c:	e1a06009 	mov	r6, r9
    9050:	eafffff5 	b	902c <Process_Out+0x114>
    9054:	e350002a 	cmp	r0, #42	; 0x2a
    9058:	13e04000 	mvnne	r4, #0
    905c:	1088500b 	addne	r5, r8, fp
    9060:	1a000004 	bne	9078 <Process_Out+0x160>
    9064:	ea0000e4 	b	93fc <Process_Out+0x4e4>
    9068:	e28bb001 	add	fp, fp, #1
    906c:	e15a000b 	cmp	sl, fp
    9070:	e6af4073 	sxtb	r4, r3
    9074:	9affffc9 	bls	8fa0 <Process_Out+0x88>
    9078:	eb0025c1 	bl	12784 <__locale_ctype_ptr>
    907c:	e4d5c001 	ldrb	ip, [r5], #1
    9080:	e1c43fc4 	bic	r3, r4, r4, asr #31
    9084:	e080000c 	add	r0, r0, ip
    9088:	e5d01001 	ldrb	r1, [r0, #1]
    908c:	e0833103 	add	r3, r3, r3, lsl #2
    9090:	e24c2030 	sub	r2, ip, #48	; 0x30
    9094:	e3110004 	tst	r1, #4
    9098:	e0823083 	add	r3, r2, r3, lsl #1
    909c:	1afffff1 	bne	9068 <Process_Out+0x150>
    90a0:	e35c002e 	cmp	ip, #46	; 0x2e
    90a4:	13e03000 	mvnne	r3, #0
    90a8:	0a0002b6 	beq	9b88 <Process_Out+0xc70>
    90ac:	e20c10fb 	and	r1, ip, #251	; 0xfb
    90b0:	e3510068 	cmp	r1, #104	; 0x68
    90b4:	0a0000c1 	beq	93c0 <Process_Out+0x4a8>
    90b8:	e35c004c 	cmp	ip, #76	; 0x4c
    90bc:	135c0074 	cmpne	ip, #116	; 0x74
    90c0:	03a01001 	moveq	r1, #1
    90c4:	13a01000 	movne	r1, #0
    90c8:	e20c00ef 	and	r0, ip, #239	; 0xef
    90cc:	e350006a 	cmp	r0, #106	; 0x6a
    90d0:	03811001 	orreq	r1, r1, #1
    90d4:	e3510000 	cmp	r1, #0
    90d8:	1a00005a 	bne	9248 <Process_Out+0x330>
    90dc:	e24cc025 	sub	ip, ip, #37	; 0x25
    90e0:	e35c0053 	cmp	ip, #83	; 0x53
    90e4:	979ff10c 	ldrls	pc, [pc, ip, lsl #2]
    90e8:	ea0002a0 	b	9b70 <Process_Out+0xc58>
    90ec:	0000970c 	.word	0x0000970c
    90f0:	00009b70 	.word	0x00009b70
    90f4:	00009b70 	.word	0x00009b70
    90f8:	00009b70 	.word	0x00009b70
    90fc:	00009b70 	.word	0x00009b70
    9100:	00009b70 	.word	0x00009b70
    9104:	00009b70 	.word	0x00009b70
    9108:	00009b70 	.word	0x00009b70
    910c:	00009b70 	.word	0x00009b70
    9110:	00009b70 	.word	0x00009b70
    9114:	00009b70 	.word	0x00009b70
    9118:	00009b70 	.word	0x00009b70
    911c:	00009b70 	.word	0x00009b70
    9120:	00009b70 	.word	0x00009b70
    9124:	00009b70 	.word	0x00009b70
    9128:	00009b70 	.word	0x00009b70
    912c:	00009b70 	.word	0x00009b70
    9130:	00009b70 	.word	0x00009b70
    9134:	00009b70 	.word	0x00009b70
    9138:	00009b70 	.word	0x00009b70
    913c:	00009b70 	.word	0x00009b70
    9140:	00009b70 	.word	0x00009b70
    9144:	00009b70 	.word	0x00009b70
    9148:	00009b70 	.word	0x00009b70
    914c:	00009b70 	.word	0x00009b70
    9150:	00009b70 	.word	0x00009b70
    9154:	00009b70 	.word	0x00009b70
    9158:	00009b70 	.word	0x00009b70
    915c:	00009b68 	.word	0x00009b68
    9160:	00009b70 	.word	0x00009b70
    9164:	00009b70 	.word	0x00009b70
    9168:	00009b70 	.word	0x00009b70
    916c:	00009b68 	.word	0x00009b68
    9170:	00009b68 	.word	0x00009b68
    9174:	00009b68 	.word	0x00009b68
    9178:	00009b70 	.word	0x00009b70
    917c:	00009b70 	.word	0x00009b70
    9180:	00009b70 	.word	0x00009b70
    9184:	00009b70 	.word	0x00009b70
    9188:	00009b70 	.word	0x00009b70
    918c:	00009b70 	.word	0x00009b70
    9190:	00009b70 	.word	0x00009b70
    9194:	00009b70 	.word	0x00009b70
    9198:	00009b70 	.word	0x00009b70
    919c:	00009b70 	.word	0x00009b70
    91a0:	00009b70 	.word	0x00009b70
    91a4:	00009b70 	.word	0x00009b70
    91a8:	00009b70 	.word	0x00009b70
    91ac:	00009b70 	.word	0x00009b70
    91b0:	00009b70 	.word	0x00009b70
    91b4:	00009b70 	.word	0x00009b70
    91b8:	00009a14 	.word	0x00009a14
    91bc:	00009b70 	.word	0x00009b70
    91c0:	00009b70 	.word	0x00009b70
    91c4:	00009b70 	.word	0x00009b70
    91c8:	00009b70 	.word	0x00009b70
    91cc:	00009b70 	.word	0x00009b70
    91d0:	00009b70 	.word	0x00009b70
    91d4:	00009b70 	.word	0x00009b70
    91d8:	00009b70 	.word	0x00009b70
    91dc:	00009b68 	.word	0x00009b68
    91e0:	00009b70 	.word	0x00009b70
    91e4:	000095f0 	.word	0x000095f0
    91e8:	00009b50 	.word	0x00009b50
    91ec:	00009b68 	.word	0x00009b68
    91f0:	00009b68 	.word	0x00009b68
    91f4:	00009b68 	.word	0x00009b68
    91f8:	00009b70 	.word	0x00009b70
    91fc:	00009b50 	.word	0x00009b50
    9200:	00009b70 	.word	0x00009b70
    9204:	00009b70 	.word	0x00009b70
    9208:	00009b70 	.word	0x00009b70
    920c:	00009b70 	.word	0x00009b70
    9210:	00009a7c 	.word	0x00009a7c
    9214:	00009b38 	.word	0x00009b38
    9218:	0000957c 	.word	0x0000957c
    921c:	00009b70 	.word	0x00009b70
    9220:	00009b70 	.word	0x00009b70
    9224:	0000943c 	.word	0x0000943c
    9228:	00009b70 	.word	0x00009b70
    922c:	00009b70 	.word	0x00009b70
    9230:	00009b70 	.word	0x00009b70
    9234:	00009b70 	.word	0x00009b70
    9238:	00009b20 	.word	0x00009b20
    923c:	e3a00000 	mov	r0, #0
    9240:	e28dd024 	add	sp, sp, #36	; 0x24
    9244:	e8bd8ff0 	pop	{r4, r5, r6, r7, r8, r9, sl, fp, pc}
    9248:	e1a0100c 	mov	r1, ip
    924c:	e3a02000 	mov	r2, #0
    9250:	e28b5001 	add	r5, fp, #1
    9254:	e15a0005 	cmp	sl, r5
    9258:	9affff50 	bls	8fa0 <Process_Out+0x88>
    925c:	e7d80005 	ldrb	r0, [r8, r5]
    9260:	e2400025 	sub	r0, r0, #37	; 0x25
    9264:	e3500053 	cmp	r0, #83	; 0x53
    9268:	979ff100 	ldrls	pc, [pc, r0, lsl #2]
    926c:	ea0001fe 	b	9a6c <Process_Out+0xb54>
    9270:	00009710 	.word	0x00009710
    9274:	00009a6c 	.word	0x00009a6c
    9278:	00009a6c 	.word	0x00009a6c
    927c:	00009a6c 	.word	0x00009a6c
    9280:	00009a6c 	.word	0x00009a6c
    9284:	00009a6c 	.word	0x00009a6c
    9288:	00009a6c 	.word	0x00009a6c
    928c:	00009a6c 	.word	0x00009a6c
    9290:	00009a6c 	.word	0x00009a6c
    9294:	00009a6c 	.word	0x00009a6c
    9298:	00009a6c 	.word	0x00009a6c
    929c:	00009a6c 	.word	0x00009a6c
    92a0:	00009a6c 	.word	0x00009a6c
    92a4:	00009a6c 	.word	0x00009a6c
    92a8:	00009a6c 	.word	0x00009a6c
    92ac:	00009a6c 	.word	0x00009a6c
    92b0:	00009a6c 	.word	0x00009a6c
    92b4:	00009a6c 	.word	0x00009a6c
    92b8:	00009a6c 	.word	0x00009a6c
    92bc:	00009a6c 	.word	0x00009a6c
    92c0:	00009a6c 	.word	0x00009a6c
    92c4:	00009a6c 	.word	0x00009a6c
    92c8:	00009a6c 	.word	0x00009a6c
    92cc:	00009a6c 	.word	0x00009a6c
    92d0:	00009a6c 	.word	0x00009a6c
    92d4:	00009a6c 	.word	0x00009a6c
    92d8:	00009a6c 	.word	0x00009a6c
    92dc:	00009a6c 	.word	0x00009a6c
    92e0:	000097d4 	.word	0x000097d4
    92e4:	00009a6c 	.word	0x00009a6c
    92e8:	00009a6c 	.word	0x00009a6c
    92ec:	00009a6c 	.word	0x00009a6c
    92f0:	000097d4 	.word	0x000097d4
    92f4:	000097d4 	.word	0x000097d4
    92f8:	000097d4 	.word	0x000097d4
    92fc:	00009a6c 	.word	0x00009a6c
    9300:	00009a6c 	.word	0x00009a6c
    9304:	00009a6c 	.word	0x00009a6c
    9308:	00009a6c 	.word	0x00009a6c
    930c:	00009a6c 	.word	0x00009a6c
    9310:	00009a6c 	.word	0x00009a6c
    9314:	00009a6c 	.word	0x00009a6c
    9318:	00009a6c 	.word	0x00009a6c
    931c:	00009a6c 	.word	0x00009a6c
    9320:	00009a6c 	.word	0x00009a6c
    9324:	00009a6c 	.word	0x00009a6c
    9328:	00009a6c 	.word	0x00009a6c
    932c:	00009a6c 	.word	0x00009a6c
    9330:	00009a6c 	.word	0x00009a6c
    9334:	00009a6c 	.word	0x00009a6c
    9338:	00009a6c 	.word	0x00009a6c
    933c:	0000972c 	.word	0x0000972c
    9340:	00009a6c 	.word	0x00009a6c
    9344:	00009a6c 	.word	0x00009a6c
    9348:	00009a6c 	.word	0x00009a6c
    934c:	00009a6c 	.word	0x00009a6c
    9350:	00009a6c 	.word	0x00009a6c
    9354:	00009a6c 	.word	0x00009a6c
    9358:	00009a6c 	.word	0x00009a6c
    935c:	00009a6c 	.word	0x00009a6c
    9360:	000097d4 	.word	0x000097d4
    9364:	00009a6c 	.word	0x00009a6c
    9368:	000095fc 	.word	0x000095fc
    936c:	00009814 	.word	0x00009814
    9370:	000097d4 	.word	0x000097d4
    9374:	000097d4 	.word	0x000097d4
    9378:	000097d4 	.word	0x000097d4
    937c:	00009a6c 	.word	0x00009a6c
    9380:	00009814 	.word	0x00009814
    9384:	00009a6c 	.word	0x00009a6c
    9388:	00009a6c 	.word	0x00009a6c
    938c:	00009a6c 	.word	0x00009a6c
    9390:	00009a6c 	.word	0x00009a6c
    9394:	00009834 	.word	0x00009834
    9398:	00009824 	.word	0x00009824
    939c:	00009584 	.word	0x00009584
    93a0:	00009a6c 	.word	0x00009a6c
    93a4:	00009a6c 	.word	0x00009a6c
    93a8:	00009440 	.word	0x00009440
    93ac:	00009a6c 	.word	0x00009a6c
    93b0:	00009a6c 	.word	0x00009a6c
    93b4:	00009a6c 	.word	0x00009a6c
    93b8:	00009a6c 	.word	0x00009a6c
    93bc:	000097c4 	.word	0x000097c4
    93c0:	e59d2018 	ldr	r2, [sp, #24]
    93c4:	e28b5001 	add	r5, fp, #1
    93c8:	e15b0002 	cmp	fp, r2
    93cc:	e1a0100c 	mov	r1, ip
    93d0:	2a000007 	bcs	93f4 <Process_Out+0x4dc>
    93d4:	e7d80005 	ldrb	r0, [r8, r5]
    93d8:	e150000c 	cmp	r0, ip
    93dc:	1a000004 	bne	93f4 <Process_Out+0x4dc>
    93e0:	e15a0005 	cmp	sl, r5
    93e4:	9afffeed 	bls	8fa0 <Process_Out+0x88>
    93e8:	e28b5002 	add	r5, fp, #2
    93ec:	e1a02009 	mov	r2, r9
    93f0:	eaffff97 	b	9254 <Process_Out+0x33c>
    93f4:	e3a02000 	mov	r2, #0
    93f8:	eaffff95 	b	9254 <Process_Out+0x33c>
    93fc:	e285b002 	add	fp, r5, #2
    9400:	e15a000b 	cmp	sl, fp
    9404:	9afffee5 	bls	8fa0 <Process_Out+0x88>
    9408:	e59d3014 	ldr	r3, [sp, #20]
    940c:	e5931000 	ldr	r1, [r3]
    9410:	e2830004 	add	r0, r3, #4
    9414:	e6af4071 	sxtb	r4, r1
    9418:	e3540000 	cmp	r4, #0
    941c:	b2611000 	rsblt	r1, r1, #0
    9420:	a58d0014 	strge	r0, [sp, #20]
    9424:	a7d8c00b 	ldrbge	ip, [r8, fp]
    9428:	b6af4071 	sxtblt	r4, r1
    942c:	b58d0014 	strlt	r0, [sp, #20]
    9430:	b7d8c00b 	ldrblt	ip, [r8, fp]
    9434:	b1a06009 	movlt	r6, r9
    9438:	eaffff18 	b	90a0 <Process_Out+0x188>
    943c:	e1a0500b 	mov	r5, fp
    9440:	e59d2014 	ldr	r2, [sp, #20]
    9444:	e1a01003 	mov	r1, r3
    9448:	e592b000 	ldr	fp, [r2]
    944c:	e1a0000b 	mov	r0, fp
    9450:	eb00266f 	bl	12e14 <strnlen>
    9454:	e59d2014 	ldr	r2, [sp, #20]
    9458:	e3560000 	cmp	r6, #0
    945c:	e2823004 	add	r3, r2, #4
    9460:	e1a07000 	mov	r7, r0
    9464:	e58d3004 	str	r3, [sp, #4]
    9468:	1a0001ed 	bne	9c24 <Process_Out+0xd0c>
    946c:	e1500004 	cmp	r0, r4
    9470:	aa000202 	bge	9c80 <Process_Out+0xd68>
    9474:	e0444000 	sub	r4, r4, r0
    9478:	e6af4074 	sxtb	r4, r4
    947c:	e3540000 	cmp	r4, #0
    9480:	da000012 	ble	94d0 <Process_Out+0x5b8>
    9484:	e1a06004 	mov	r6, r4
    9488:	e58d5008 	str	r5, [sp, #8]
    948c:	e1a05004 	mov	r5, r4
    9490:	e59d4010 	ldr	r4, [sp, #16]
    9494:	e3a00020 	mov	r0, #32
    9498:	e12fff34 	blx	r4
    949c:	e2453001 	sub	r3, r5, #1
    94a0:	e6ef3073 	uxtb	r3, r3
    94a4:	e3530000 	cmp	r3, #0
    94a8:	e6af5073 	sxtb	r5, r3
    94ac:	1afffff8 	bne	9494 <Process_Out+0x57c>
    94b0:	e1a04006 	mov	r4, r6
    94b4:	e59d3000 	ldr	r3, [sp]
    94b8:	e2444001 	sub	r4, r4, #1
    94bc:	e2836001 	add	r6, r3, #1
    94c0:	e6a63074 	sxtab	r3, r6, r4
    94c4:	e3a04000 	mov	r4, #0
    94c8:	e59d5008 	ldr	r5, [sp, #8]
    94cc:	e58d3000 	str	r3, [sp]
    94d0:	e3570000 	cmp	r7, #0
    94d4:	da000209 	ble	9d00 <Process_Out+0xde8>
    94d8:	e3a06000 	mov	r6, #0
    94dc:	e59d3000 	ldr	r3, [sp]
    94e0:	e58d4008 	str	r4, [sp, #8]
    94e4:	e043300b 	sub	r3, r3, fp
    94e8:	e1a04006 	mov	r4, r6
    94ec:	e1a06003 	mov	r6, r3
    94f0:	e58d5000 	str	r5, [sp]
    94f4:	e1a0500b 	mov	r5, fp
    94f8:	e59db010 	ldr	fp, [sp, #16]
    94fc:	e4d50001 	ldrb	r0, [r5], #1
    9500:	e2844001 	add	r4, r4, #1
    9504:	e12fff3b 	blx	fp
    9508:	e1570004 	cmp	r7, r4
    950c:	e0861005 	add	r1, r6, r5
    9510:	cafffff9 	bgt	94fc <Process_Out+0x5e4>
    9514:	e1a0b001 	mov	fp, r1
    9518:	e59d5000 	ldr	r5, [sp]
    951c:	e59d4008 	ldr	r4, [sp, #8]
    9520:	e3540000 	cmp	r4, #0
    9524:	da0001f1 	ble	9cf0 <Process_Out+0xdd8>
    9528:	e1570004 	cmp	r7, r4
    952c:	aa000003 	bge	9540 <Process_Out+0x628>
    9530:	e0444007 	sub	r4, r4, r7
    9534:	e6af4074 	sxtb	r4, r4
    9538:	e3540000 	cmp	r4, #0
    953c:	da0001eb 	ble	9cf0 <Process_Out+0xdd8>
    9540:	e6ef4074 	uxtb	r4, r4
    9544:	e1a07004 	mov	r7, r4
    9548:	e59d6010 	ldr	r6, [sp, #16]
    954c:	e3a00020 	mov	r0, #32
    9550:	e12fff36 	blx	r6
    9554:	e2473001 	sub	r3, r7, #1
    9558:	e21370ff 	ands	r7, r3, #255	; 0xff
    955c:	1afffffa 	bne	954c <Process_Out+0x634>
    9560:	e28b6001 	add	r6, fp, #1
    9564:	e2444001 	sub	r4, r4, #1
    9568:	e6a63074 	sxtab	r3, r6, r4
    956c:	e58d3000 	str	r3, [sp]
    9570:	e59d3004 	ldr	r3, [sp, #4]
    9574:	e58d3014 	str	r3, [sp, #20]
    9578:	eafffe83 	b	8f8c <Process_Out+0x74>
    957c:	e1a0500b 	mov	r5, fp
    9580:	e3a02000 	mov	r2, #0
    9584:	e3740001 	cmn	r4, #1
    9588:	03a01008 	moveq	r1, #8
    958c:	11a01004 	movne	r1, r4
    9590:	01a07009 	moveq	r7, r9
    9594:	e1a04001 	mov	r4, r1
    9598:	e59d100c 	ldr	r1, [sp, #12]
    959c:	e1877101 	orr	r7, r7, r1, lsl #2
    95a0:	e59d1004 	ldr	r1, [sp, #4]
    95a4:	e1871181 	orr	r1, r7, r1, lsl #3
    95a8:	e1816206 	orr	r6, r1, r6, lsl #4
    95ac:	e59d1008 	ldr	r1, [sp, #8]
    95b0:	e186b301 	orr	fp, r6, r1, lsl #6
    95b4:	e18b2382 	orr	r2, fp, r2, lsl #7
    95b8:	e3822a01 	orr	r2, r2, #4096	; 0x1000
    95bc:	e6ef4074 	uxtb	r4, r4
    95c0:	e1822804 	orr	r2, r2, r4, lsl #16
    95c4:	e59d4014 	ldr	r4, [sp, #20]
    95c8:	e1822c03 	orr	r2, r2, r3, lsl #24
    95cc:	e5941000 	ldr	r1, [r4]
    95d0:	e59d0010 	ldr	r0, [sp, #16]
    95d4:	ebfffc87 	bl	87f8 <number>
    95d8:	e59d3000 	ldr	r3, [sp]
    95dc:	e284b004 	add	fp, r4, #4
    95e0:	e0833000 	add	r3, r3, r0
    95e4:	e58db014 	str	fp, [sp, #20]
    95e8:	e58d3000 	str	r3, [sp]
    95ec:	eafffe66 	b	8f8c <Process_Out+0x74>
    95f0:	e1a0500b 	mov	r5, fp
    95f4:	e3a02000 	mov	r2, #0
    95f8:	e3e01000 	mvn	r1, #0
    95fc:	e59d300c 	ldr	r3, [sp, #12]
    9600:	e1877103 	orr	r7, r7, r3, lsl #2
    9604:	e59d3004 	ldr	r3, [sp, #4]
    9608:	e1873183 	orr	r3, r7, r3, lsl #3
    960c:	e1836206 	orr	r6, r3, r6, lsl #4
    9610:	e59d3008 	ldr	r3, [sp, #8]
    9614:	e186b303 	orr	fp, r6, r3, lsl #6
    9618:	e18b2382 	orr	r2, fp, r2, lsl #7
    961c:	e1a02222 	lsr	r2, r2, #4
    9620:	e2222001 	eor	r2, r2, #1
    9624:	e3540000 	cmp	r4, #0
    9628:	d3a02000 	movle	r2, #0
    962c:	c2022001 	andgt	r2, r2, #1
    9630:	e3520000 	cmp	r2, #0
    9634:	0a000014 	beq	968c <Process_Out+0x774>
    9638:	e6ef6074 	uxtb	r6, r4
    963c:	e2464001 	sub	r4, r6, #1
    9640:	e6af4074 	sxtb	r4, r4
    9644:	e3540000 	cmp	r4, #0
    9648:	0a00000f 	beq	968c <Process_Out+0x774>
    964c:	e1a0b001 	mov	fp, r1
    9650:	e59d7010 	ldr	r7, [sp, #16]
    9654:	e3a00020 	mov	r0, #32
    9658:	e12fff37 	blx	r7
    965c:	e2443001 	sub	r3, r4, #1
    9660:	e6ef3073 	uxtb	r3, r3
    9664:	e3530000 	cmp	r3, #0
    9668:	e6af4073 	sxtb	r4, r3
    966c:	1afffff8 	bne	9654 <Process_Out+0x73c>
    9670:	e1a0100b 	mov	r1, fp
    9674:	e3a04000 	mov	r4, #0
    9678:	e59d3000 	ldr	r3, [sp]
    967c:	e2466002 	sub	r6, r6, #2
    9680:	e2833001 	add	r3, r3, #1
    9684:	e6e33076 	uxtab	r3, r3, r6
    9688:	e58d3000 	str	r3, [sp]
    968c:	e351006c 	cmp	r1, #108	; 0x6c
    9690:	0a00016e 	beq	9c50 <Process_Out+0xd38>
    9694:	e59d3014 	ldr	r3, [sp, #20]
    9698:	e2836004 	add	r6, r3, #4
    969c:	e5d30000 	ldrb	r0, [r3]
    96a0:	e59d3010 	ldr	r3, [sp, #16]
    96a4:	e12fff33 	blx	r3
    96a8:	e59d3000 	ldr	r3, [sp]
    96ac:	e58d6014 	str	r6, [sp, #20]
    96b0:	e2833001 	add	r3, r3, #1
    96b4:	e58d3000 	str	r3, [sp]
    96b8:	e3540000 	cmp	r4, #0
    96bc:	dafffe32 	ble	8f8c <Process_Out+0x74>
    96c0:	e6ef4074 	uxtb	r4, r4
    96c4:	e2442001 	sub	r2, r4, #1
    96c8:	e6af6072 	sxtb	r6, r2
    96cc:	e3560000 	cmp	r6, #0
    96d0:	0afffe2d 	beq	8f8c <Process_Out+0x74>
    96d4:	e59d7010 	ldr	r7, [sp, #16]
    96d8:	e3a00020 	mov	r0, #32
    96dc:	e12fff37 	blx	r7
    96e0:	e2463001 	sub	r3, r6, #1
    96e4:	e6ef3073 	uxtb	r3, r3
    96e8:	e3530000 	cmp	r3, #0
    96ec:	e6af6073 	sxtb	r6, r3
    96f0:	1afffff8 	bne	96d8 <Process_Out+0x7c0>
    96f4:	e59d3000 	ldr	r3, [sp]
    96f8:	e2444002 	sub	r4, r4, #2
    96fc:	e2836001 	add	r6, r3, #1
    9700:	e6e63074 	uxtab	r3, r6, r4
    9704:	e58d3000 	str	r3, [sp]
    9708:	eafffe1f 	b	8f8c <Process_Out+0x74>
    970c:	e1a0500b 	mov	r5, fp
    9710:	e59d3000 	ldr	r3, [sp]
    9714:	e3a00025 	mov	r0, #37	; 0x25
    9718:	e2833001 	add	r3, r3, #1
    971c:	e58d3000 	str	r3, [sp]
    9720:	e59d3010 	ldr	r3, [sp, #16]
    9724:	e12fff33 	blx	r3
    9728:	eafffe17 	b	8f8c <Process_Out+0x74>
    972c:	e3a01000 	mov	r1, #0
    9730:	e3a0e010 	mov	lr, #16
    9734:	e1a00001 	mov	r0, r1
    9738:	e24cc068 	sub	ip, ip, #104	; 0x68
    973c:	e35c0012 	cmp	ip, #18
    9740:	979ff10c 	ldrls	pc, [pc, ip, lsl #2]
    9744:	ea0000b7 	b	9a28 <Process_Out+0xb10>
    9748:	0000994c 	.word	0x0000994c
    974c:	00009a28 	.word	0x00009a28
    9750:	000099ac 	.word	0x000099ac
    9754:	00009a28 	.word	0x00009a28
    9758:	00009900 	.word	0x00009900
    975c:	00009a28 	.word	0x00009a28
    9760:	00009a28 	.word	0x00009a28
    9764:	00009a28 	.word	0x00009a28
    9768:	00009a28 	.word	0x00009a28
    976c:	00009a28 	.word	0x00009a28
    9770:	00009a28 	.word	0x00009a28
    9774:	00009a28 	.word	0x00009a28
    9778:	00009794 	.word	0x00009794
    977c:	00009a28 	.word	0x00009a28
    9780:	00009a28 	.word	0x00009a28
    9784:	00009a28 	.word	0x00009a28
    9788:	00009a28 	.word	0x00009a28
    978c:	00009a28 	.word	0x00009a28
    9790:	00009794 	.word	0x00009794
    9794:	e59dc00c 	ldr	ip, [sp, #12]
    9798:	e1870080 	orr	r0, r7, r0, lsl #1
    979c:	e180010c 	orr	r0, r0, ip, lsl #2
    97a0:	e59dc004 	ldr	ip, [sp, #4]
    97a4:	e180018c 	orr	r0, r0, ip, lsl #3
    97a8:	e1806206 	orr	r6, r0, r6, lsl #4
    97ac:	e59d0008 	ldr	r0, [sp, #8]
    97b0:	e1861281 	orr	r1, r6, r1, lsl #5
    97b4:	e181b300 	orr	fp, r1, r0, lsl #6
    97b8:	e18b2382 	orr	r2, fp, r2, lsl #7
    97bc:	e182240e 	orr	r2, r2, lr, lsl #8
    97c0:	eaffff7d 	b	95bc <Process_Out+0x6a4>
    97c4:	e3a0e010 	mov	lr, #16
    97c8:	e1a01009 	mov	r1, r9
    97cc:	e3a00000 	mov	r0, #0
    97d0:	eaffffd8 	b	9738 <Process_Out+0x820>
    97d4:	e35c004c 	cmp	ip, #76	; 0x4c
    97d8:	0a000116 	beq	9c38 <Process_Out+0xd20>
    97dc:	e59d3014 	ldr	r3, [sp, #20]
    97e0:	e59d0010 	ldr	r0, [sp, #16]
    97e4:	e283b007 	add	fp, r3, #7
    97e8:	e3cbb007 	bic	fp, fp, #7
    97ec:	ed9b7b00 	vldr	d7, [fp]
    97f0:	eeb77bc7 	vcvt.f32.f64	s14, d7
    97f4:	eeb70ac7 	vcvt.f64.f32	d0, s14
    97f8:	e28b3008 	add	r3, fp, #8
    97fc:	e58d3014 	str	r3, [sp, #20]
    9800:	ebfffcf4 	bl	8bd8 <NumStr>
    9804:	e59d3000 	ldr	r3, [sp]
    9808:	e0833000 	add	r3, r3, r0
    980c:	e58d3000 	str	r3, [sp]
    9810:	eafffddd 	b	8f8c <Process_Out+0x74>
    9814:	e3a0e00a 	mov	lr, #10
    9818:	e3a01000 	mov	r1, #0
    981c:	e1a00009 	mov	r0, r9
    9820:	eaffffc4 	b	9738 <Process_Out+0x820>
    9824:	e3a01000 	mov	r1, #0
    9828:	e3a0e008 	mov	lr, #8
    982c:	e1a00001 	mov	r0, r1
    9830:	eaffffc0 	b	9738 <Process_Out+0x820>
    9834:	e24cc04c 	sub	ip, ip, #76	; 0x4c
    9838:	e35c002e 	cmp	ip, #46	; 0x2e
    983c:	979ff10c 	ldrls	pc, [pc, ip, lsl #2]
    9840:	ea00008e 	b	9a80 <Process_Out+0xb68>
    9844:	00009b00 	.word	0x00009b00
    9848:	00009a80 	.word	0x00009a80
    984c:	00009a80 	.word	0x00009a80
    9850:	00009a80 	.word	0x00009a80
    9854:	00009a80 	.word	0x00009a80
    9858:	00009a80 	.word	0x00009a80
    985c:	00009a80 	.word	0x00009a80
    9860:	00009a80 	.word	0x00009a80
    9864:	00009a80 	.word	0x00009a80
    9868:	00009a80 	.word	0x00009a80
    986c:	00009a80 	.word	0x00009a80
    9870:	00009a80 	.word	0x00009a80
    9874:	00009a80 	.word	0x00009a80
    9878:	00009a80 	.word	0x00009a80
    987c:	00009a80 	.word	0x00009a80
    9880:	00009a80 	.word	0x00009a80
    9884:	00009a80 	.word	0x00009a80
    9888:	00009a80 	.word	0x00009a80
    988c:	00009a80 	.word	0x00009a80
    9890:	00009a80 	.word	0x00009a80
    9894:	00009a80 	.word	0x00009a80
    9898:	00009a80 	.word	0x00009a80
    989c:	00009a80 	.word	0x00009a80
    98a0:	00009a80 	.word	0x00009a80
    98a4:	00009a80 	.word	0x00009a80
    98a8:	00009a80 	.word	0x00009a80
    98ac:	00009a80 	.word	0x00009a80
    98b0:	00009a80 	.word	0x00009a80
    98b4:	00009ad8 	.word	0x00009ad8
    98b8:	00009a80 	.word	0x00009a80
    98bc:	00009ac4 	.word	0x00009ac4
    98c0:	00009a80 	.word	0x00009a80
    98c4:	00009a9c 	.word	0x00009a9c
    98c8:	00009a80 	.word	0x00009a80
    98cc:	00009a80 	.word	0x00009a80
    98d0:	00009a80 	.word	0x00009a80
    98d4:	00009a80 	.word	0x00009a80
    98d8:	00009a80 	.word	0x00009a80
    98dc:	00009a80 	.word	0x00009a80
    98e0:	00009a80 	.word	0x00009a80
    98e4:	00009a80 	.word	0x00009a80
    98e8:	00009a80 	.word	0x00009a80
    98ec:	00009a80 	.word	0x00009a80
    98f0:	00009a80 	.word	0x00009a80
    98f4:	00009a80 	.word	0x00009a80
    98f8:	00009a80 	.word	0x00009a80
    98fc:	00009a80 	.word	0x00009a80
    9900:	e59dc00c 	ldr	ip, [sp, #12]
    9904:	e1870080 	orr	r0, r7, r0, lsl #1
    9908:	e180010c 	orr	r0, r0, ip, lsl #2
    990c:	e59dc004 	ldr	ip, [sp, #4]
    9910:	e180018c 	orr	r0, r0, ip, lsl #3
    9914:	e1806206 	orr	r6, r0, r6, lsl #4
    9918:	e59d0008 	ldr	r0, [sp, #8]
    991c:	e1861281 	orr	r1, r6, r1, lsl #5
    9920:	e181b300 	orr	fp, r1, r0, lsl #6
    9924:	e18b2382 	orr	r2, fp, r2, lsl #7
    9928:	e3120080 	tst	r2, #128	; 0x80
    992c:	1a0000df 	bne	9cb0 <Process_Out+0xd98>
    9930:	e3c22c1f 	bic	r2, r2, #7936	; 0x1f00
    9934:	e182240e 	orr	r2, r2, lr, lsl #8
    9938:	e3c228ff 	bic	r2, r2, #16711680	; 0xff0000
    993c:	e6ef4074 	uxtb	r4, r4
    9940:	e1822804 	orr	r2, r2, r4, lsl #16
    9944:	e3c224ff 	bic	r2, r2, #-16777216	; 0xff000000
    9948:	eaffff1d 	b	95c4 <Process_Out+0x6ac>
    994c:	e59dc00c 	ldr	ip, [sp, #12]
    9950:	e1870080 	orr	r0, r7, r0, lsl #1
    9954:	e180010c 	orr	r0, r0, ip, lsl #2
    9958:	e59dc004 	ldr	ip, [sp, #4]
    995c:	e180018c 	orr	r0, r0, ip, lsl #3
    9960:	e1806206 	orr	r6, r0, r6, lsl #4
    9964:	e59d0008 	ldr	r0, [sp, #8]
    9968:	e1861281 	orr	r1, r6, r1, lsl #5
    996c:	e181b300 	orr	fp, r1, r0, lsl #6
    9970:	e18b2382 	orr	r2, fp, r2, lsl #7
    9974:	e3120080 	tst	r2, #128	; 0x80
    9978:	1a0000c5 	bne	9c94 <Process_Out+0xd7c>
    997c:	e3c22c1f 	bic	r2, r2, #7936	; 0x1f00
    9980:	e182240e 	orr	r2, r2, lr, lsl #8
    9984:	e6ef4074 	uxtb	r4, r4
    9988:	e3c228ff 	bic	r2, r2, #16711680	; 0xff0000
    998c:	e1822804 	orr	r2, r2, r4, lsl #16
    9990:	e59d4014 	ldr	r4, [sp, #20]
    9994:	e3c224ff 	bic	r2, r2, #-16777216	; 0xff000000
    9998:	e1d410f0 	ldrsh	r1, [r4]
    999c:	e1822c03 	orr	r2, r2, r3, lsl #24
    99a0:	e59d0010 	ldr	r0, [sp, #16]
    99a4:	ebfffac1 	bl	84b0 <cvt_int>
    99a8:	eaffff0a 	b	95d8 <Process_Out+0x6c0>
    99ac:	e59dc00c 	ldr	ip, [sp, #12]
    99b0:	e1870080 	orr	r0, r7, r0, lsl #1
    99b4:	e180010c 	orr	r0, r0, ip, lsl #2
    99b8:	e59dc004 	ldr	ip, [sp, #4]
    99bc:	e6ef4074 	uxtb	r4, r4
    99c0:	e180018c 	orr	r0, r0, ip, lsl #3
    99c4:	e1806206 	orr	r6, r0, r6, lsl #4
    99c8:	e59d0008 	ldr	r0, [sp, #8]
    99cc:	e1861281 	orr	r1, r6, r1, lsl #5
    99d0:	e181b300 	orr	fp, r1, r0, lsl #6
    99d4:	e59d1014 	ldr	r1, [sp, #20]
    99d8:	e18b2382 	orr	r2, fp, r2, lsl #7
    99dc:	e182240e 	orr	r2, r2, lr, lsl #8
    99e0:	e281b007 	add	fp, r1, #7
    99e4:	e3cbb007 	bic	fp, fp, #7
    99e8:	e1822804 	orr	r2, r2, r4, lsl #16
    99ec:	e1822c03 	orr	r2, r2, r3, lsl #24
    99f0:	e59b1000 	ldr	r1, [fp]
    99f4:	e28b3008 	add	r3, fp, #8
    99f8:	e59d0010 	ldr	r0, [sp, #16]
    99fc:	e58d3014 	str	r3, [sp, #20]
    9a00:	ebfffaaa 	bl	84b0 <cvt_int>
    9a04:	e59d3000 	ldr	r3, [sp]
    9a08:	e0833000 	add	r3, r3, r0
    9a0c:	e58d3000 	str	r3, [sp]
    9a10:	eafffd5d 	b	8f8c <Process_Out+0x74>
    9a14:	e3a01000 	mov	r1, #0
    9a18:	e1a0500b 	mov	r5, fp
    9a1c:	e1a00001 	mov	r0, r1
    9a20:	e3a0e010 	mov	lr, #16
    9a24:	e1a02001 	mov	r2, r1
    9a28:	e59dc00c 	ldr	ip, [sp, #12]
    9a2c:	e1870080 	orr	r0, r7, r0, lsl #1
    9a30:	e180010c 	orr	r0, r0, ip, lsl #2
    9a34:	e59dc004 	ldr	ip, [sp, #4]
    9a38:	e6ef4074 	uxtb	r4, r4
    9a3c:	e180018c 	orr	r0, r0, ip, lsl #3
    9a40:	e1806206 	orr	r6, r0, r6, lsl #4
    9a44:	e59d0008 	ldr	r0, [sp, #8]
    9a48:	e1861281 	orr	r1, r6, r1, lsl #5
    9a4c:	e181b300 	orr	fp, r1, r0, lsl #6
    9a50:	e18b2382 	orr	r2, fp, r2, lsl #7
    9a54:	e182240e 	orr	r2, r2, lr, lsl #8
    9a58:	e1822804 	orr	r2, r2, r4, lsl #16
    9a5c:	e59d4014 	ldr	r4, [sp, #20]
    9a60:	e1822c03 	orr	r2, r2, r3, lsl #24
    9a64:	e5941000 	ldr	r1, [r4]
    9a68:	eaffffcc 	b	99a0 <Process_Out+0xa88>
    9a6c:	e3a01000 	mov	r1, #0
    9a70:	e3a0e00a 	mov	lr, #10
    9a74:	e1a00001 	mov	r0, r1
    9a78:	eaffff2e 	b	9738 <Process_Out+0x820>
    9a7c:	e1a0500b 	mov	r5, fp
    9a80:	e59d3014 	ldr	r3, [sp, #20]
    9a84:	e5932000 	ldr	r2, [r3]
    9a88:	e2833004 	add	r3, r3, #4
    9a8c:	e58d3014 	str	r3, [sp, #20]
    9a90:	e59d3000 	ldr	r3, [sp]
    9a94:	e5823000 	str	r3, [r2]
    9a98:	eafffd3b 	b	8f8c <Process_Out+0x74>
    9a9c:	e59d3014 	ldr	r3, [sp, #20]
    9aa0:	e3520000 	cmp	r2, #0
    9aa4:	e2833004 	add	r3, r3, #4
    9aa8:	e5132004 	ldr	r2, [r3, #-4]
    9aac:	e58d3014 	str	r3, [sp, #20]
    9ab0:	0afffff6 	beq	9a90 <Process_Out+0xb78>
    9ab4:	e59d0000 	ldr	r0, [sp]
    9ab8:	e1a01fc0 	asr	r1, r0, #31
    9abc:	e1c200f0 	strd	r0, [r2]
    9ac0:	eafffd31 	b	8f8c <Process_Out+0x74>
    9ac4:	e59d3014 	ldr	r3, [sp, #20]
    9ac8:	e5932000 	ldr	r2, [r3]
    9acc:	e2833004 	add	r3, r3, #4
    9ad0:	e58d3014 	str	r3, [sp, #20]
    9ad4:	eafffff6 	b	9ab4 <Process_Out+0xb9c>
    9ad8:	e59d3014 	ldr	r3, [sp, #20]
    9adc:	e3520000 	cmp	r2, #0
    9ae0:	e2833004 	add	r3, r3, #4
    9ae4:	e5132004 	ldr	r2, [r3, #-4]
    9ae8:	e58d3014 	str	r3, [sp, #20]
    9aec:	15dd3000 	ldrbne	r3, [sp]
    9af0:	01dd30b0 	ldrheq	r3, [sp]
    9af4:	15c23000 	strbne	r3, [r2]
    9af8:	01c230b0 	strheq	r3, [r2]
    9afc:	eafffd22 	b	8f8c <Process_Out+0x74>
    9b00:	eddd7a00 	vldr	s15, [sp]
    9b04:	eeb87be7 	vcvt.f64.s32	d7, s15
    9b08:	e59d3014 	ldr	r3, [sp, #20]
    9b0c:	e5932000 	ldr	r2, [r3]
    9b10:	e2833004 	add	r3, r3, #4
    9b14:	e58d3014 	str	r3, [sp, #20]
    9b18:	ed827b00 	vstr	d7, [r2]
    9b1c:	eafffd1a 	b	8f8c <Process_Out+0x74>
    9b20:	e3a02000 	mov	r2, #0
    9b24:	e1a0500b 	mov	r5, fp
    9b28:	e3a0e010 	mov	lr, #16
    9b2c:	e1a01009 	mov	r1, r9
    9b30:	e1a00002 	mov	r0, r2
    9b34:	eaffffbb 	b	9a28 <Process_Out+0xb10>
    9b38:	e3a01000 	mov	r1, #0
    9b3c:	e1a0500b 	mov	r5, fp
    9b40:	e1a00001 	mov	r0, r1
    9b44:	e3a0e008 	mov	lr, #8
    9b48:	e1a02001 	mov	r2, r1
    9b4c:	eaffffb5 	b	9a28 <Process_Out+0xb10>
    9b50:	e3a02000 	mov	r2, #0
    9b54:	e1a0500b 	mov	r5, fp
    9b58:	e3a0e00a 	mov	lr, #10
    9b5c:	e1a01002 	mov	r1, r2
    9b60:	e1a00009 	mov	r0, r9
    9b64:	eaffffaf 	b	9a28 <Process_Out+0xb10>
    9b68:	e1a0500b 	mov	r5, fp
    9b6c:	eaffff1a 	b	97dc <Process_Out+0x8c4>
    9b70:	e3a01000 	mov	r1, #0
    9b74:	e1a0500b 	mov	r5, fp
    9b78:	e1a00001 	mov	r0, r1
    9b7c:	e3a0e00a 	mov	lr, #10
    9b80:	e1a02001 	mov	r2, r1
    9b84:	eaffffa7 	b	9a28 <Process_Out+0xb10>
    9b88:	e28b1001 	add	r1, fp, #1
    9b8c:	e15a0001 	cmp	sl, r1
    9b90:	9afffd02 	bls	8fa0 <Process_Out+0x88>
    9b94:	e7d80001 	ldrb	r0, [r8, r1]
    9b98:	e350002a 	cmp	r0, #42	; 0x2a
    9b9c:	0a000016 	beq	9bfc <Process_Out+0xce4>
    9ba0:	e3e03000 	mvn	r3, #0
    9ba4:	e088500b 	add	r5, r8, fp
    9ba8:	e58d401c 	str	r4, [sp, #28]
    9bac:	e1a0b001 	mov	fp, r1
    9bb0:	e1a04003 	mov	r4, r3
    9bb4:	ea000003 	b	9bc8 <Process_Out+0xcb0>
    9bb8:	e28bb001 	add	fp, fp, #1
    9bbc:	e15a000b 	cmp	sl, fp
    9bc0:	e6af4072 	sxtb	r4, r2
    9bc4:	9afffcf5 	bls	8fa0 <Process_Out+0x88>
    9bc8:	eb0022ed 	bl	12784 <__locale_ctype_ptr>
    9bcc:	e5f5c001 	ldrb	ip, [r5, #1]!
    9bd0:	e1c42fc4 	bic	r2, r4, r4, asr #31
    9bd4:	e080000c 	add	r0, r0, ip
    9bd8:	e5d01001 	ldrb	r1, [r0, #1]
    9bdc:	e0822102 	add	r2, r2, r2, lsl #2
    9be0:	e24c0030 	sub	r0, ip, #48	; 0x30
    9be4:	e3110004 	tst	r1, #4
    9be8:	e0802082 	add	r2, r0, r2, lsl #1
    9bec:	1afffff1 	bne	9bb8 <Process_Out+0xca0>
    9bf0:	e1a03004 	mov	r3, r4
    9bf4:	e59d401c 	ldr	r4, [sp, #28]
    9bf8:	eafffd2b 	b	90ac <Process_Out+0x194>
    9bfc:	e28bb002 	add	fp, fp, #2
    9c00:	e15a000b 	cmp	sl, fp
    9c04:	9afffce5 	bls	8fa0 <Process_Out+0x88>
    9c08:	e59d2014 	ldr	r2, [sp, #20]
    9c0c:	e7d8c00b 	ldrb	ip, [r8, fp]
    9c10:	e1d210d0 	ldrsb	r1, [r2]
    9c14:	e2822004 	add	r2, r2, #4
    9c18:	e1c13fc1 	bic	r3, r1, r1, asr #31
    9c1c:	e58d2014 	str	r2, [sp, #20]
    9c20:	eafffd21 	b	90ac <Process_Out+0x194>
    9c24:	e3500000 	cmp	r0, #0
    9c28:	cafffe2a 	bgt	94d8 <Process_Out+0x5c0>
    9c2c:	e59d3000 	ldr	r3, [sp]
    9c30:	e1a0b003 	mov	fp, r3
    9c34:	eafffe39 	b	9520 <Process_Out+0x608>
    9c38:	e59d3014 	ldr	r3, [sp, #20]
    9c3c:	e59d0010 	ldr	r0, [sp, #16]
    9c40:	e283b007 	add	fp, r3, #7
    9c44:	e3cbb007 	bic	fp, fp, #7
    9c48:	ed9b0b00 	vldr	d0, [fp]
    9c4c:	eafffee9 	b	97f8 <Process_Out+0x8e0>
    9c50:	e59d6014 	ldr	r6, [sp, #20]
    9c54:	e5960000 	ldr	r0, [r6]
    9c58:	eb002cb8 	bl	14f40 <wctob>
    9c5c:	e59d3000 	ldr	r3, [sp]
    9c60:	e286b004 	add	fp, r6, #4
    9c64:	e2833001 	add	r3, r3, #1
    9c68:	e58d3000 	str	r3, [sp]
    9c6c:	e6ef0070 	uxtb	r0, r0
    9c70:	e59d3010 	ldr	r3, [sp, #16]
    9c74:	e12fff33 	blx	r3
    9c78:	e58db014 	str	fp, [sp, #20]
    9c7c:	eafffe8d 	b	96b8 <Process_Out+0x7a0>
    9c80:	e3500000 	cmp	r0, #0
    9c84:	c3a04000 	movgt	r4, #0
    9c88:	cafffe12 	bgt	94d8 <Process_Out+0x5c0>
    9c8c:	e58d3014 	str	r3, [sp, #20]
    9c90:	eafffcbd 	b	8f8c <Process_Out+0x74>
    9c94:	e6ef4074 	uxtb	r4, r4
    9c98:	e182240e 	orr	r2, r2, lr, lsl #8
    9c9c:	e1822804 	orr	r2, r2, r4, lsl #16
    9ca0:	e59d4014 	ldr	r4, [sp, #20]
    9ca4:	e1822c03 	orr	r2, r2, r3, lsl #24
    9ca8:	e1d410d0 	ldrsb	r1, [r4]
    9cac:	eaffff3b 	b	99a0 <Process_Out+0xa88>
    9cb0:	e59d1014 	ldr	r1, [sp, #20]
    9cb4:	e182240e 	orr	r2, r2, lr, lsl #8
    9cb8:	e281b007 	add	fp, r1, #7
    9cbc:	e6ef4074 	uxtb	r4, r4
    9cc0:	e3cbb007 	bic	fp, fp, #7
    9cc4:	e1822804 	orr	r2, r2, r4, lsl #16
    9cc8:	e1822c03 	orr	r2, r2, r3, lsl #24
    9ccc:	e59b1000 	ldr	r1, [fp]
    9cd0:	e28b3008 	add	r3, fp, #8
    9cd4:	e59d0010 	ldr	r0, [sp, #16]
    9cd8:	e58d3014 	str	r3, [sp, #20]
    9cdc:	ebfffac5 	bl	87f8 <number>
    9ce0:	e59d3000 	ldr	r3, [sp]
    9ce4:	e0833000 	add	r3, r3, r0
    9ce8:	e58d3000 	str	r3, [sp]
    9cec:	eafffca6 	b	8f8c <Process_Out+0x74>
    9cf0:	e59d3004 	ldr	r3, [sp, #4]
    9cf4:	e58db000 	str	fp, [sp]
    9cf8:	e58d3014 	str	r3, [sp, #20]
    9cfc:	eafffca2 	b	8f8c <Process_Out+0x74>
    9d00:	e59d3004 	ldr	r3, [sp, #4]
    9d04:	eaffffe0 	b	9c8c <Process_Out+0xd74>

00009d08 <Process_Out.constprop.1>:
    9d08:	e3510000 	cmp	r1, #0
    9d0c:	13500000 	cmpne	r0, #0
    9d10:	03a03001 	moveq	r3, #1
    9d14:	13a03000 	movne	r3, #0
    9d18:	e92d4ff0 	push	{r4, r5, r6, r7, r8, r9, sl, fp, lr}
    9d1c:	e24dd0dc 	sub	sp, sp, #220	; 0xdc
    9d20:	e58d3010 	str	r3, [sp, #16]
    9d24:	0a0000d2 	beq	a074 <Process_Out.constprop.1+0x36c>
    9d28:	e5d06000 	ldrb	r6, [r0]
    9d2c:	e3560000 	cmp	r6, #0
    9d30:	0a0000cf 	beq	a074 <Process_Out.constprop.1+0x36c>
    9d34:	e1a0a003 	mov	sl, r3
    9d38:	e58d3004 	str	r3, [sp, #4]
    9d3c:	e2413001 	sub	r3, r1, #1
    9d40:	e58d3018 	str	r3, [sp, #24]
    9d44:	e1a08001 	mov	r8, r1
    9d48:	e3a05001 	mov	r5, #1
    9d4c:	e1a0300a 	mov	r3, sl
    9d50:	e58d0000 	str	r0, [sp]
    9d54:	e58d2014 	str	r2, [sp, #20]
    9d58:	e3560025 	cmp	r6, #37	; 0x25
    9d5c:	0a00001d 	beq	9dd8 <Process_Out.constprop.1+0xd0>
    9d60:	e59f2e98 	ldr	r2, [pc, #3736]	; ac00 <Process_Out.constprop.1+0xef8>
    9d64:	e5922000 	ldr	r2, [r2]
    9d68:	e3720001 	cmn	r2, #1
    9d6c:	0a000003 	beq	9d80 <Process_Out.constprop.1+0x78>
    9d70:	e59f1e88 	ldr	r1, [pc, #3720]	; ac00 <Process_Out.constprop.1+0xef8>
    9d74:	e5911004 	ldr	r1, [r1, #4]
    9d78:	e1520001 	cmp	r2, r1
    9d7c:	da000009 	ble	9da8 <Process_Out.constprop.1+0xa0>
    9d80:	e59f2e78 	ldr	r2, [pc, #3704]	; ac00 <Process_Out.constprop.1+0xef8>
    9d84:	e5922008 	ldr	r2, [r2, #8]
    9d88:	e3520000 	cmp	r2, #0
    9d8c:	0a000005 	beq	9da8 <Process_Out.constprop.1+0xa0>
    9d90:	e59f1e68 	ldr	r1, [pc, #3688]	; ac00 <Process_Out.constprop.1+0xef8>
    9d94:	e5911004 	ldr	r1, [r1, #4]
    9d98:	e7c26001 	strb	r6, [r2, r1]
    9d9c:	e59f2e5c 	ldr	r2, [pc, #3676]	; ac00 <Process_Out.constprop.1+0xef8>
    9da0:	e2810001 	add	r0, r1, #1
    9da4:	e5820004 	str	r0, [r2, #4]
    9da8:	e59d2004 	ldr	r2, [sp, #4]
    9dac:	e2822001 	add	r2, r2, #1
    9db0:	e58d2004 	str	r2, [sp, #4]
    9db4:	e59d2000 	ldr	r2, [sp]
    9db8:	e2833001 	add	r3, r3, #1
    9dbc:	e7d26003 	ldrb	r6, [r2, r3]
    9dc0:	e3560000 	cmp	r6, #0
    9dc4:	11580003 	cmpne	r8, r3
    9dc8:	8affffe2 	bhi	9d58 <Process_Out.constprop.1+0x50>
    9dcc:	e59d0004 	ldr	r0, [sp, #4]
    9dd0:	e28dd0dc 	add	sp, sp, #220	; 0xdc
    9dd4:	e8bd8ff0 	pop	{r4, r5, r6, r7, r8, r9, sl, fp, pc}
    9dd8:	e3a07000 	mov	r7, #0
    9ddc:	e1a09007 	mov	r9, r7
    9de0:	e1a06007 	mov	r6, r7
    9de4:	e59d2000 	ldr	r2, [sp]
    9de8:	e58d7008 	str	r7, [sp, #8]
    9dec:	e0820003 	add	r0, r2, r3
    9df0:	e58d700c 	str	r7, [sp, #12]
    9df4:	e2834001 	add	r4, r3, #1
    9df8:	e1580004 	cmp	r8, r4
    9dfc:	9afffff2 	bls	9dcc <Process_Out.constprop.1+0xc4>
    9e00:	e5f01001 	ldrb	r1, [r0, #1]!
    9e04:	e2412020 	sub	r2, r1, #32
    9e08:	e3520010 	cmp	r2, #16
    9e0c:	979ff102 	ldrls	pc, [pc, r2, lsl #2]
    9e10:	ea00001b 	b	9e84 <Process_Out.constprop.1+0x17c>
    9e14:	00009e64 	.word	0x00009e64
    9e18:	00009e84 	.word	0x00009e84
    9e1c:	00009e84 	.word	0x00009e84
    9e20:	00009e58 	.word	0x00009e58
    9e24:	00009e84 	.word	0x00009e84
    9e28:	00009e84 	.word	0x00009e84
    9e2c:	00009e84 	.word	0x00009e84
    9e30:	00009e84 	.word	0x00009e84
    9e34:	00009e84 	.word	0x00009e84
    9e38:	00009e84 	.word	0x00009e84
    9e3c:	00009e84 	.word	0x00009e84
    9e40:	00009e74 	.word	0x00009e74
    9e44:	00009e84 	.word	0x00009e84
    9e48:	00009e7c 	.word	0x00009e7c
    9e4c:	00009e84 	.word	0x00009e84
    9e50:	00009e84 	.word	0x00009e84
    9e54:	00009e6c 	.word	0x00009e6c
    9e58:	e1a07005 	mov	r7, r5
    9e5c:	e1a03004 	mov	r3, r4
    9e60:	eaffffe3 	b	9df4 <Process_Out.constprop.1+0xec>
    9e64:	e58d5008 	str	r5, [sp, #8]
    9e68:	eafffffb 	b	9e5c <Process_Out.constprop.1+0x154>
    9e6c:	e1a09005 	mov	r9, r5
    9e70:	eafffff9 	b	9e5c <Process_Out.constprop.1+0x154>
    9e74:	e58d500c 	str	r5, [sp, #12]
    9e78:	eafffff7 	b	9e5c <Process_Out.constprop.1+0x154>
    9e7c:	e1a06005 	mov	r6, r5
    9e80:	eafffff5 	b	9e5c <Process_Out.constprop.1+0x154>
    9e84:	e351002a 	cmp	r1, #42	; 0x2a
    9e88:	0a0000eb 	beq	a23c <Process_Out.constprop.1+0x534>
    9e8c:	e59d3000 	ldr	r3, [sp]
    9e90:	e3e0b000 	mvn	fp, #0
    9e94:	e083a004 	add	sl, r3, r4
    9e98:	ea000003 	b	9eac <Process_Out.constprop.1+0x1a4>
    9e9c:	e2844001 	add	r4, r4, #1
    9ea0:	e1580004 	cmp	r8, r4
    9ea4:	e6afb073 	sxtb	fp, r3
    9ea8:	9affffc7 	bls	9dcc <Process_Out.constprop.1+0xc4>
    9eac:	eb002234 	bl	12784 <__locale_ctype_ptr>
    9eb0:	e4da1001 	ldrb	r1, [sl], #1
    9eb4:	e1cb3fcb 	bic	r3, fp, fp, asr #31
    9eb8:	e0800001 	add	r0, r0, r1
    9ebc:	e5d00001 	ldrb	r0, [r0, #1]
    9ec0:	e0833103 	add	r3, r3, r3, lsl #2
    9ec4:	e2412030 	sub	r2, r1, #48	; 0x30
    9ec8:	e3100004 	tst	r0, #4
    9ecc:	e0823083 	add	r3, r2, r3, lsl #1
    9ed0:	1afffff1 	bne	9e9c <Process_Out.constprop.1+0x194>
    9ed4:	e351002e 	cmp	r1, #46	; 0x2e
    9ed8:	13e03000 	mvnne	r3, #0
    9edc:	158d301c 	strne	r3, [sp, #28]
    9ee0:	0a0009d6 	beq	c640 <Process_Out.constprop.1+0x2938>
    9ee4:	e20130fb 	and	r3, r1, #251	; 0xfb
    9ee8:	e3530068 	cmp	r3, #104	; 0x68
    9eec:	0a0000c2 	beq	a1fc <Process_Out.constprop.1+0x4f4>
    9ef0:	e351004c 	cmp	r1, #76	; 0x4c
    9ef4:	13510074 	cmpne	r1, #116	; 0x74
    9ef8:	03a03001 	moveq	r3, #1
    9efc:	13a03000 	movne	r3, #0
    9f00:	e20100ef 	and	r0, r1, #239	; 0xef
    9f04:	e350006a 	cmp	r0, #106	; 0x6a
    9f08:	03833001 	orreq	r3, r3, #1
    9f0c:	e3530000 	cmp	r3, #0
    9f10:	1a00005a 	bne	a080 <Process_Out.constprop.1+0x378>
    9f14:	e2411025 	sub	r1, r1, #37	; 0x25
    9f18:	e3510053 	cmp	r1, #83	; 0x53
    9f1c:	979ff101 	ldrls	pc, [pc, r1, lsl #2]
    9f20:	ea0009c0 	b	c628 <Process_Out.constprop.1+0x2920>
    9f24:	0000aa00 	.word	0x0000aa00
    9f28:	0000c628 	.word	0x0000c628
    9f2c:	0000c628 	.word	0x0000c628
    9f30:	0000c628 	.word	0x0000c628
    9f34:	0000c628 	.word	0x0000c628
    9f38:	0000c628 	.word	0x0000c628
    9f3c:	0000c628 	.word	0x0000c628
    9f40:	0000c628 	.word	0x0000c628
    9f44:	0000c628 	.word	0x0000c628
    9f48:	0000c628 	.word	0x0000c628
    9f4c:	0000c628 	.word	0x0000c628
    9f50:	0000c628 	.word	0x0000c628
    9f54:	0000c628 	.word	0x0000c628
    9f58:	0000c628 	.word	0x0000c628
    9f5c:	0000c628 	.word	0x0000c628
    9f60:	0000c628 	.word	0x0000c628
    9f64:	0000c628 	.word	0x0000c628
    9f68:	0000c628 	.word	0x0000c628
    9f6c:	0000c628 	.word	0x0000c628
    9f70:	0000c628 	.word	0x0000c628
    9f74:	0000c628 	.word	0x0000c628
    9f78:	0000c628 	.word	0x0000c628
    9f7c:	0000c628 	.word	0x0000c628
    9f80:	0000c628 	.word	0x0000c628
    9f84:	0000c628 	.word	0x0000c628
    9f88:	0000c628 	.word	0x0000c628
    9f8c:	0000c628 	.word	0x0000c628
    9f90:	0000c628 	.word	0x0000c628
    9f94:	0000c608 	.word	0x0000c608
    9f98:	0000c628 	.word	0x0000c628
    9f9c:	0000c628 	.word	0x0000c628
    9fa0:	0000c628 	.word	0x0000c628
    9fa4:	0000c608 	.word	0x0000c608
    9fa8:	0000c608 	.word	0x0000c608
    9fac:	0000c608 	.word	0x0000c608
    9fb0:	0000c628 	.word	0x0000c628
    9fb4:	0000c628 	.word	0x0000c628
    9fb8:	0000c628 	.word	0x0000c628
    9fbc:	0000c628 	.word	0x0000c628
    9fc0:	0000c628 	.word	0x0000c628
    9fc4:	0000c628 	.word	0x0000c628
    9fc8:	0000c628 	.word	0x0000c628
    9fcc:	0000c628 	.word	0x0000c628
    9fd0:	0000c628 	.word	0x0000c628
    9fd4:	0000c628 	.word	0x0000c628
    9fd8:	0000c628 	.word	0x0000c628
    9fdc:	0000c628 	.word	0x0000c628
    9fe0:	0000c628 	.word	0x0000c628
    9fe4:	0000c628 	.word	0x0000c628
    9fe8:	0000c628 	.word	0x0000c628
    9fec:	0000c628 	.word	0x0000c628
    9ff0:	0000c5f0 	.word	0x0000c5f0
    9ff4:	0000c628 	.word	0x0000c628
    9ff8:	0000c628 	.word	0x0000c628
    9ffc:	0000c628 	.word	0x0000c628
    a000:	0000c628 	.word	0x0000c628
    a004:	0000c628 	.word	0x0000c628
    a008:	0000c628 	.word	0x0000c628
    a00c:	0000c628 	.word	0x0000c628
    a010:	0000c628 	.word	0x0000c628
    a014:	0000c608 	.word	0x0000c608
    a018:	0000c628 	.word	0x0000c628
    a01c:	0000a840 	.word	0x0000a840
    a020:	0000c060 	.word	0x0000c060
    a024:	0000c608 	.word	0x0000c608
    a028:	0000c608 	.word	0x0000c608
    a02c:	0000c608 	.word	0x0000c608
    a030:	0000c628 	.word	0x0000c628
    a034:	0000c060 	.word	0x0000c060
    a038:	0000c628 	.word	0x0000c628
    a03c:	0000c628 	.word	0x0000c628
    a040:	0000c628 	.word	0x0000c628
    a044:	0000c628 	.word	0x0000c628
    a048:	0000c48c 	.word	0x0000c48c
    a04c:	0000c5d8 	.word	0x0000c5d8
    a050:	0000a42c 	.word	0x0000a42c
    a054:	0000c628 	.word	0x0000c628
    a058:	0000c628 	.word	0x0000c628
    a05c:	0000a284 	.word	0x0000a284
    a060:	0000c628 	.word	0x0000c628
    a064:	0000c628 	.word	0x0000c628
    a068:	0000c628 	.word	0x0000c628
    a06c:	0000c628 	.word	0x0000c628
    a070:	0000c610 	.word	0x0000c610
    a074:	e3a00000 	mov	r0, #0
    a078:	e28dd0dc 	add	sp, sp, #220	; 0xdc
    a07c:	e8bd8ff0 	pop	{r4, r5, r6, r7, r8, r9, sl, fp, pc}
    a080:	e1a00001 	mov	r0, r1
    a084:	e3a0c000 	mov	ip, #0
    a088:	e2843001 	add	r3, r4, #1
    a08c:	e1580003 	cmp	r8, r3
    a090:	9affff4d 	bls	9dcc <Process_Out.constprop.1+0xc4>
    a094:	e59d2000 	ldr	r2, [sp]
    a098:	e7d2e003 	ldrb	lr, [r2, r3]
    a09c:	e24ee025 	sub	lr, lr, #37	; 0x25
    a0a0:	e35e0053 	cmp	lr, #83	; 0x53
    a0a4:	979ff10e 	ldrls	pc, [pc, lr, lsl #2]
    a0a8:	ea0008f3 	b	c47c <Process_Out.constprop.1+0x2774>
    a0ac:	0000aa04 	.word	0x0000aa04
    a0b0:	0000c47c 	.word	0x0000c47c
    a0b4:	0000c47c 	.word	0x0000c47c
    a0b8:	0000c47c 	.word	0x0000c47c
    a0bc:	0000c47c 	.word	0x0000c47c
    a0c0:	0000c47c 	.word	0x0000c47c
    a0c4:	0000c47c 	.word	0x0000c47c
    a0c8:	0000c47c 	.word	0x0000c47c
    a0cc:	0000c47c 	.word	0x0000c47c
    a0d0:	0000c47c 	.word	0x0000c47c
    a0d4:	0000c47c 	.word	0x0000c47c
    a0d8:	0000c47c 	.word	0x0000c47c
    a0dc:	0000c47c 	.word	0x0000c47c
    a0e0:	0000c47c 	.word	0x0000c47c
    a0e4:	0000c47c 	.word	0x0000c47c
    a0e8:	0000c47c 	.word	0x0000c47c
    a0ec:	0000c47c 	.word	0x0000c47c
    a0f0:	0000c47c 	.word	0x0000c47c
    a0f4:	0000c47c 	.word	0x0000c47c
    a0f8:	0000c47c 	.word	0x0000c47c
    a0fc:	0000c47c 	.word	0x0000c47c
    a100:	0000c47c 	.word	0x0000c47c
    a104:	0000c47c 	.word	0x0000c47c
    a108:	0000c47c 	.word	0x0000c47c
    a10c:	0000c47c 	.word	0x0000c47c
    a110:	0000c47c 	.word	0x0000c47c
    a114:	0000c47c 	.word	0x0000c47c
    a118:	0000c47c 	.word	0x0000c47c
    a11c:	0000aab8 	.word	0x0000aab8
    a120:	0000c47c 	.word	0x0000c47c
    a124:	0000c47c 	.word	0x0000c47c
    a128:	0000c47c 	.word	0x0000c47c
    a12c:	0000aab8 	.word	0x0000aab8
    a130:	0000aab8 	.word	0x0000aab8
    a134:	0000aab8 	.word	0x0000aab8
    a138:	0000c47c 	.word	0x0000c47c
    a13c:	0000c47c 	.word	0x0000c47c
    a140:	0000c47c 	.word	0x0000c47c
    a144:	0000c47c 	.word	0x0000c47c
    a148:	0000c47c 	.word	0x0000c47c
    a14c:	0000c47c 	.word	0x0000c47c
    a150:	0000c47c 	.word	0x0000c47c
    a154:	0000c47c 	.word	0x0000c47c
    a158:	0000c47c 	.word	0x0000c47c
    a15c:	0000c47c 	.word	0x0000c47c
    a160:	0000c47c 	.word	0x0000c47c
    a164:	0000c47c 	.word	0x0000c47c
    a168:	0000c47c 	.word	0x0000c47c
    a16c:	0000c47c 	.word	0x0000c47c
    a170:	0000c47c 	.word	0x0000c47c
    a174:	0000c47c 	.word	0x0000c47c
    a178:	0000aa50 	.word	0x0000aa50
    a17c:	0000c47c 	.word	0x0000c47c
    a180:	0000c47c 	.word	0x0000c47c
    a184:	0000c47c 	.word	0x0000c47c
    a188:	0000c47c 	.word	0x0000c47c
    a18c:	0000c47c 	.word	0x0000c47c
    a190:	0000c47c 	.word	0x0000c47c
    a194:	0000c47c 	.word	0x0000c47c
    a198:	0000c47c 	.word	0x0000c47c
    a19c:	0000aab8 	.word	0x0000aab8
    a1a0:	0000c47c 	.word	0x0000c47c
    a1a4:	0000a84c 	.word	0x0000a84c
    a1a8:	0000abec 	.word	0x0000abec
    a1ac:	0000aab8 	.word	0x0000aab8
    a1b0:	0000aab8 	.word	0x0000aab8
    a1b4:	0000aab8 	.word	0x0000aab8
    a1b8:	0000c47c 	.word	0x0000c47c
    a1bc:	0000abec 	.word	0x0000abec
    a1c0:	0000c47c 	.word	0x0000c47c
    a1c4:	0000c47c 	.word	0x0000c47c
    a1c8:	0000c47c 	.word	0x0000c47c
    a1cc:	0000c47c 	.word	0x0000c47c
    a1d0:	0000ab20 	.word	0x0000ab20
    a1d4:	0000ab10 	.word	0x0000ab10
    a1d8:	0000a434 	.word	0x0000a434
    a1dc:	0000c47c 	.word	0x0000c47c
    a1e0:	0000c47c 	.word	0x0000c47c
    a1e4:	0000a288 	.word	0x0000a288
    a1e8:	0000c47c 	.word	0x0000c47c
    a1ec:	0000c47c 	.word	0x0000c47c
    a1f0:	0000c47c 	.word	0x0000c47c
    a1f4:	0000c47c 	.word	0x0000c47c
    a1f8:	0000ab00 	.word	0x0000ab00
    a1fc:	e59d3018 	ldr	r3, [sp, #24]
    a200:	e1a00001 	mov	r0, r1
    a204:	e1540003 	cmp	r4, r3
    a208:	e2843001 	add	r3, r4, #1
    a20c:	2a000008 	bcs	a234 <Process_Out.constprop.1+0x52c>
    a210:	e59d2000 	ldr	r2, [sp]
    a214:	e7d2c003 	ldrb	ip, [r2, r3]
    a218:	e15c0001 	cmp	ip, r1
    a21c:	1a000004 	bne	a234 <Process_Out.constprop.1+0x52c>
    a220:	e1580003 	cmp	r8, r3
    a224:	9afffee8 	bls	9dcc <Process_Out.constprop.1+0xc4>
    a228:	e2843002 	add	r3, r4, #2
    a22c:	e1a0c005 	mov	ip, r5
    a230:	eaffff95 	b	a08c <Process_Out.constprop.1+0x384>
    a234:	e3a0c000 	mov	ip, #0
    a238:	eaffff93 	b	a08c <Process_Out.constprop.1+0x384>
    a23c:	e2834002 	add	r4, r3, #2
    a240:	e1580004 	cmp	r8, r4
    a244:	9afffee0 	bls	9dcc <Process_Out.constprop.1+0xc4>
    a248:	e59d2014 	ldr	r2, [sp, #20]
    a24c:	e5923000 	ldr	r3, [r2]
    a250:	e2821004 	add	r1, r2, #4
    a254:	e6afb073 	sxtb	fp, r3
    a258:	e35b0000 	cmp	fp, #0
    a25c:	b2633000 	rsblt	r3, r3, #0
    a260:	a59d3000 	ldrge	r3, [sp]
    a264:	b6afb073 	sxtblt	fp, r3
    a268:	b59d3000 	ldrlt	r3, [sp]
    a26c:	a58d1014 	strge	r1, [sp, #20]
    a270:	b58d1014 	strlt	r1, [sp, #20]
    a274:	a7d31004 	ldrbge	r1, [r3, r4]
    a278:	b7d31004 	ldrblt	r1, [r3, r4]
    a27c:	b1a06005 	movlt	r6, r5
    a280:	eaffff13 	b	9ed4 <Process_Out.constprop.1+0x1cc>
    a284:	e1a03004 	mov	r3, r4
    a288:	e59d7014 	ldr	r7, [sp, #20]
    a28c:	e59d101c 	ldr	r1, [sp, #28]
    a290:	e5974000 	ldr	r4, [r7]
    a294:	e58d3008 	str	r3, [sp, #8]
    a298:	e1a00004 	mov	r0, r4
    a29c:	eb0022dc 	bl	12e14 <strnlen>
    a2a0:	e3560000 	cmp	r6, #0
    a2a4:	e2877004 	add	r7, r7, #4
    a2a8:	e59d3008 	ldr	r3, [sp, #8]
    a2ac:	1a00091e 	bne	c72c <Process_Out.constprop.1+0x2a24>
    a2b0:	e150000b 	cmp	r0, fp
    a2b4:	aa000c6e 	bge	d474 <Process_Out.constprop.1+0x376c>
    a2b8:	e04b2000 	sub	r2, fp, r0
    a2bc:	e6ef1072 	uxtb	r1, r2
    a2c0:	e6afb071 	sxtb	fp, r1
    a2c4:	e35b0000 	cmp	fp, #0
    a2c8:	da00001a 	ble	a338 <Process_Out.constprop.1+0x630>
    a2cc:	e59f292c 	ldr	r2, [pc, #2348]	; ac00 <Process_Out.constprop.1+0xef8>
    a2d0:	e8921040 	ldm	r2, {r6, ip}
    a2d4:	e3760001 	cmn	r6, #1
    a2d8:	e592e008 	ldr	lr, [r2, #8]
    a2dc:	0a000f8b 	beq	e110 <Process_Out.constprop.1+0x4408>
    a2e0:	e35e0000 	cmp	lr, #0
    a2e4:	0a001144 	beq	e7fc <Process_Out.constprop.1+0x4af4>
    a2e8:	e1a0100b 	mov	r1, fp
    a2ec:	e3a0a020 	mov	sl, #32
    a2f0:	e59d9010 	ldr	r9, [sp, #16]
    a2f4:	e2412001 	sub	r2, r1, #1
    a2f8:	e156000c 	cmp	r6, ip
    a2fc:	e6ef2072 	uxtb	r2, r2
    a300:	c7cea00c 	strbgt	sl, [lr, ip]
    a304:	c1a09005 	movgt	r9, r5
    a308:	c28cc001 	addgt	ip, ip, #1
    a30c:	e3520000 	cmp	r2, #0
    a310:	e6af1072 	sxtb	r1, r2
    a314:	1afffff6 	bne	a2f4 <Process_Out.constprop.1+0x5ec>
    a318:	e59d2004 	ldr	r2, [sp, #4]
    a31c:	e3590000 	cmp	r9, #0
    a320:	e2821001 	add	r1, r2, #1
    a324:	e24b2001 	sub	r2, fp, #1
    a328:	e6a12072 	sxtab	r2, r1, r2
    a32c:	e58d2004 	str	r2, [sp, #4]
    a330:	e3a0b000 	mov	fp, #0
    a334:	1a000f88 	bne	e15c <Process_Out.constprop.1+0x4454>
    a338:	e3500000 	cmp	r0, #0
    a33c:	da000038 	ble	a424 <Process_Out.constprop.1+0x71c>
    a340:	e59f28b8 	ldr	r2, [pc, #2232]	; ac00 <Process_Out.constprop.1+0xef8>
    a344:	e5926000 	ldr	r6, [r2]
    a348:	e592e008 	ldr	lr, [r2, #8]
    a34c:	e3760001 	cmn	r6, #1
    a350:	e592c004 	ldr	ip, [r2, #4]
    a354:	0a000c5e 	beq	d4d4 <Process_Out.constprop.1+0x37cc>
    a358:	e35e0000 	cmp	lr, #0
    a35c:	0a000fef 	beq	e320 <Process_Out.constprop.1+0x4618>
    a360:	e3a01000 	mov	r1, #0
    a364:	e59da010 	ldr	sl, [sp, #16]
    a368:	e59d2004 	ldr	r2, [sp, #4]
    a36c:	e156000c 	cmp	r6, ip
    a370:	c7d49001 	ldrbgt	r9, [r4, r1]
    a374:	e2811001 	add	r1, r1, #1
    a378:	c7ce900c 	strbgt	r9, [lr, ip]
    a37c:	c1a0a005 	movgt	sl, r5
    a380:	c28cc001 	addgt	ip, ip, #1
    a384:	e1500001 	cmp	r0, r1
    a388:	e2822001 	add	r2, r2, #1
    a38c:	cafffff6 	bgt	a36c <Process_Out.constprop.1+0x664>
    a390:	e35a0000 	cmp	sl, #0
    a394:	e58d2004 	str	r2, [sp, #4]
    a398:	1a001132 	bne	e868 <Process_Out.constprop.1+0x4b60>
    a39c:	e35b0000 	cmp	fp, #0
    a3a0:	da00001f 	ble	a424 <Process_Out.constprop.1+0x71c>
    a3a4:	e150000b 	cmp	r0, fp
    a3a8:	aa000003 	bge	a3bc <Process_Out.constprop.1+0x6b4>
    a3ac:	e04b2000 	sub	r2, fp, r0
    a3b0:	e6afb072 	sxtb	fp, r2
    a3b4:	e35b0000 	cmp	fp, #0
    a3b8:	da000019 	ble	a424 <Process_Out.constprop.1+0x71c>
    a3bc:	e59f283c 	ldr	r2, [pc, #2108]	; ac00 <Process_Out.constprop.1+0xef8>
    a3c0:	e592e000 	ldr	lr, [r2]
    a3c4:	e5920004 	ldr	r0, [r2, #4]
    a3c8:	e37e0001 	cmn	lr, #1
    a3cc:	e592c008 	ldr	ip, [r2, #8]
    a3d0:	0a000d6b 	beq	d984 <Process_Out.constprop.1+0x3c7c>
    a3d4:	e35c0000 	cmp	ip, #0
    a3d8:	0a001005 	beq	e3f4 <Process_Out.constprop.1+0x46ec>
    a3dc:	e6ef207b 	uxtb	r2, fp
    a3e0:	e1a01002 	mov	r1, r2
    a3e4:	e3a04020 	mov	r4, #32
    a3e8:	e59d6010 	ldr	r6, [sp, #16]
    a3ec:	e15e0000 	cmp	lr, r0
    a3f0:	e2411001 	sub	r1, r1, #1
    a3f4:	c7cc4000 	strbgt	r4, [ip, r0]
    a3f8:	c1a06005 	movgt	r6, r5
    a3fc:	c2800001 	addgt	r0, r0, #1
    a400:	e21110ff 	ands	r1, r1, #255	; 0xff
    a404:	1afffff8 	bne	a3ec <Process_Out.constprop.1+0x6e4>
    a408:	e59d1004 	ldr	r1, [sp, #4]
    a40c:	e2422001 	sub	r2, r2, #1
    a410:	e2811001 	add	r1, r1, #1
    a414:	e6a12072 	sxtab	r2, r1, r2
    a418:	e3560000 	cmp	r6, #0
    a41c:	e58d2004 	str	r2, [sp, #4]
    a420:	1a000d69 	bne	d9cc <Process_Out.constprop.1+0x3cc4>
    a424:	e58d7014 	str	r7, [sp, #20]
    a428:	eafffe61 	b	9db4 <Process_Out.constprop.1+0xac>
    a42c:	e1a03004 	mov	r3, r4
    a430:	e3a0c000 	mov	ip, #0
    a434:	e37b0001 	cmn	fp, #1
    a438:	01a09005 	moveq	r9, r5
    a43c:	03a0b008 	moveq	fp, #8
    a440:	e59d200c 	ldr	r2, [sp, #12]
    a444:	e59d0008 	ldr	r0, [sp, #8]
    a448:	e2091001 	and	r1, r9, #1
    a44c:	e2022001 	and	r2, r2, #1
    a450:	e58d1020 	str	r1, [sp, #32]
    a454:	e2000001 	and	r0, r0, #1
    a458:	e1811102 	orr	r1, r1, r2, lsl #2
    a45c:	e1811180 	orr	r1, r1, r0, lsl #3
    a460:	e58d200c 	str	r2, [sp, #12]
    a464:	e2062001 	and	r2, r6, #1
    a468:	e1811202 	orr	r1, r1, r2, lsl #4
    a46c:	e58d0024 	str	r0, [sp, #36]	; 0x24
    a470:	e2070001 	and	r0, r7, #1
    a474:	e1811300 	orr	r1, r1, r0, lsl #6
    a478:	e58d202c 	str	r2, [sp, #44]	; 0x2c
    a47c:	e20c2001 	and	r2, ip, #1
    a480:	e1811382 	orr	r1, r1, r2, lsl #7
    a484:	e58d2008 	str	r2, [sp, #8]
    a488:	e3811a01 	orr	r1, r1, #4096	; 0x1000
    a48c:	e6ef207b 	uxtb	r2, fp
    a490:	e1811802 	orr	r1, r1, r2, lsl #16
    a494:	e59d201c 	ldr	r2, [sp, #28]
    a498:	e58d0028 	str	r0, [sp, #40]	; 0x28
    a49c:	e1811c02 	orr	r1, r1, r2, lsl #24
    a4a0:	e59d2014 	ldr	r2, [sp, #20]
    a4a4:	e3110010 	tst	r1, #16
    a4a8:	e2820004 	add	r0, r2, #4
    a4ac:	e5924000 	ldr	r4, [r2]
    a4b0:	13a02000 	movne	r2, #0
    a4b4:	158d2020 	strne	r2, [sp, #32]
    a4b8:	158d2040 	strne	r2, [sp, #64]	; 0x40
    a4bc:	e1a02421 	lsr	r2, r1, #8
    a4c0:	e202201f 	and	r2, r2, #31
    a4c4:	e58d003c 	str	r0, [sp, #60]	; 0x3c
    a4c8:	e2420008 	sub	r0, r2, #8
    a4cc:	e20000f7 	and	r0, r0, #247	; 0xf7
    a4d0:	058d9040 	streq	r9, [sp, #64]	; 0x40
    a4d4:	e3520002 	cmp	r2, #2
    a4d8:	13500000 	cmpne	r0, #0
    a4dc:	e59d2020 	ldr	r2, [sp, #32]
    a4e0:	e3c11001 	bic	r1, r1, #1
    a4e4:	e1822001 	orr	r2, r2, r1
    a4e8:	e58d2044 	str	r2, [sp, #68]	; 0x44
    a4ec:	e6ef2072 	uxtb	r2, r2
    a4f0:	03a09010 	moveq	r9, #16
    a4f4:	13a0900a 	movne	r9, #10
    a4f8:	e3120001 	tst	r2, #1
    a4fc:	03a01020 	moveq	r1, #32
    a500:	13a01030 	movne	r1, #48	; 0x30
    a504:	e3120002 	tst	r2, #2
    a508:	e58d1038 	str	r1, [sp, #56]	; 0x38
    a50c:	e2021020 	and	r1, r2, #32
    a510:	e58db030 	str	fp, [sp, #48]	; 0x30
    a514:	e58d9048 	str	r9, [sp, #72]	; 0x48
    a518:	e58d1034 	str	r1, [sp, #52]	; 0x34
    a51c:	0a000873 	beq	c6f0 <Process_Out.constprop.1+0x29e8>
    a520:	e3540000 	cmp	r4, #0
    a524:	ba000883 	blt	c738 <Process_Out.constprop.1+0x2a30>
    a528:	e3120004 	tst	r2, #4
    a52c:	0a000dc1 	beq	dc38 <Process_Out.constprop.1+0x3f30>
    a530:	e59d2030 	ldr	r2, [sp, #48]	; 0x30
    a534:	e2422001 	sub	r2, r2, #1
    a538:	e58d2030 	str	r2, [sp, #48]	; 0x30
    a53c:	e3a0202b 	mov	r2, #43	; 0x2b
    a540:	e58d2014 	str	r2, [sp, #20]
    a544:	e3540000 	cmp	r4, #0
    a548:	1a000880 	bne	c750 <Process_Out.constprop.1+0x2a48>
    a54c:	e3a02030 	mov	r2, #48	; 0x30
    a550:	e3a07000 	mov	r7, #0
    a554:	e5cd2058 	strb	r2, [sp, #88]	; 0x58
    a558:	e1a02005 	mov	r2, r5
    a55c:	e59d101c 	ldr	r1, [sp, #28]
    a560:	e1510002 	cmp	r1, r2
    a564:	b6af1072 	sxtblt	r1, r2
    a568:	b58d101c 	strlt	r1, [sp, #28]
    a56c:	e59d1040 	ldr	r1, [sp, #64]	; 0x40
    a570:	e59d001c 	ldr	r0, [sp, #28]
    a574:	e0966001 	adds	r6, r6, r1
    a578:	e59d1030 	ldr	r1, [sp, #48]	; 0x30
    a57c:	13a06000 	movne	r6, #0
    a580:	e041b000 	sub	fp, r1, r0
    a584:	1a000018 	bne	a5ec <Process_Out.constprop.1+0x8e4>
    a588:	e35b0000 	cmp	fp, #0
    a58c:	e24b0001 	sub	r0, fp, #1
    a590:	da001019 	ble	e5fc <Process_Out.constprop.1+0x48f4>
    a594:	e59f1664 	ldr	r1, [pc, #1636]	; ac00 <Process_Out.constprop.1+0xef8>
    a598:	e591e000 	ldr	lr, [r1]
    a59c:	e591c008 	ldr	ip, [r1, #8]
    a5a0:	e37e0001 	cmn	lr, #1
    a5a4:	e5911004 	ldr	r1, [r1, #4]
    a5a8:	0a000ea6 	beq	e048 <Process_Out.constprop.1+0x4340>
    a5ac:	e35c0000 	cmp	ip, #0
    a5b0:	0a001013 	beq	e604 <Process_Out.constprop.1+0x48fc>
    a5b4:	e3a06020 	mov	r6, #32
    a5b8:	e59d4010 	ldr	r4, [sp, #16]
    a5bc:	e15e0001 	cmp	lr, r1
    a5c0:	e2400001 	sub	r0, r0, #1
    a5c4:	c7cc6001 	strbgt	r6, [ip, r1]
    a5c8:	c1a04005 	movgt	r4, r5
    a5cc:	c2811001 	addgt	r1, r1, #1
    a5d0:	e3700001 	cmn	r0, #1
    a5d4:	1afffff8 	bne	a5bc <Process_Out.constprop.1+0x8b4>
    a5d8:	e3540000 	cmp	r4, #0
    a5dc:	e3e0c000 	mvn	ip, #0
    a5e0:	1a000ea4 	bne	e078 <Process_Out.constprop.1+0x4370>
    a5e4:	e1a0600b 	mov	r6, fp
    a5e8:	e1a0b00c 	mov	fp, ip
    a5ec:	e59d1044 	ldr	r1, [sp, #68]	; 0x44
    a5f0:	e59d0020 	ldr	r0, [sp, #32]
    a5f4:	e3c11001 	bic	r1, r1, #1
    a5f8:	e1801001 	orr	r1, r0, r1
    a5fc:	e59d000c 	ldr	r0, [sp, #12]
    a600:	e3c11006 	bic	r1, r1, #6
    a604:	e1811100 	orr	r1, r1, r0, lsl #2
    a608:	e59d0024 	ldr	r0, [sp, #36]	; 0x24
    a60c:	e3c11008 	bic	r1, r1, #8
    a610:	e1811180 	orr	r1, r1, r0, lsl #3
    a614:	e59d002c 	ldr	r0, [sp, #44]	; 0x2c
    a618:	e3c11010 	bic	r1, r1, #16
    a61c:	e1811200 	orr	r1, r1, r0, lsl #4
    a620:	e59d0028 	ldr	r0, [sp, #40]	; 0x28
    a624:	e3c11060 	bic	r1, r1, #96	; 0x60
    a628:	e1811300 	orr	r1, r1, r0, lsl #6
    a62c:	e59d0008 	ldr	r0, [sp, #8]
    a630:	e3c11080 	bic	r1, r1, #128	; 0x80
    a634:	e1811380 	orr	r1, r1, r0, lsl #7
    a638:	e6ef1071 	uxtb	r1, r1
    a63c:	e3110010 	tst	r1, #16
    a640:	e58d1008 	str	r1, [sp, #8]
    a644:	1a00001a 	bne	a6b4 <Process_Out.constprop.1+0x9ac>
    a648:	e35b0000 	cmp	fp, #0
    a64c:	e24b9001 	sub	r9, fp, #1
    a650:	da000fc5 	ble	e56c <Process_Out.constprop.1+0x4864>
    a654:	e59f15a4 	ldr	r1, [pc, #1444]	; ac00 <Process_Out.constprop.1+0xef8>
    a658:	e59f05a0 	ldr	r0, [pc, #1440]	; ac00 <Process_Out.constprop.1+0xef8>
    a65c:	e591e000 	ldr	lr, [r1]
    a660:	e590c008 	ldr	ip, [r0, #8]
    a664:	e37e0001 	cmn	lr, #1
    a668:	e5911004 	ldr	r1, [r1, #4]
    a66c:	0a000e64 	beq	e004 <Process_Out.constprop.1+0x42fc>
    a670:	e35c0000 	cmp	ip, #0
    a674:	0a000fb8 	beq	e55c <Process_Out.constprop.1+0x4854>
    a678:	e1a00009 	mov	r0, r9
    a67c:	e59d4010 	ldr	r4, [sp, #16]
    a680:	e59da038 	ldr	sl, [sp, #56]	; 0x38
    a684:	e15e0001 	cmp	lr, r1
    a688:	e2400001 	sub	r0, r0, #1
    a68c:	c7cca001 	strbgt	sl, [ip, r1]
    a690:	c1a04005 	movgt	r4, r5
    a694:	c2811001 	addgt	r1, r1, #1
    a698:	e3700001 	cmn	r0, #1
    a69c:	1afffff8 	bne	a684 <Process_Out.constprop.1+0x97c>
    a6a0:	e2866001 	add	r6, r6, #1
    a6a4:	e3540000 	cmp	r4, #0
    a6a8:	e0896006 	add	r6, r9, r6
    a6ac:	e3e0b000 	mvn	fp, #0
    a6b0:	1a000e61 	bne	e03c <Process_Out.constprop.1+0x4334>
    a6b4:	e59d101c 	ldr	r1, [sp, #28]
    a6b8:	e1520001 	cmp	r2, r1
    a6bc:	e2411001 	sub	r1, r1, #1
    a6c0:	e6af1071 	sxtb	r1, r1
    a6c4:	aa000014 	bge	a71c <Process_Out.constprop.1+0xa14>
    a6c8:	e59f0530 	ldr	r0, [pc, #1328]	; ac00 <Process_Out.constprop.1+0xef8>
    a6cc:	e5904000 	ldr	r4, [r0]
    a6d0:	e590e008 	ldr	lr, [r0, #8]
    a6d4:	e3740001 	cmn	r4, #1
    a6d8:	e590c004 	ldr	ip, [r0, #4]
    a6dc:	0a00093b 	beq	cbd0 <Process_Out.constprop.1+0x2ec8>
    a6e0:	e35e0000 	cmp	lr, #0
    a6e4:	159d9010 	ldrne	r9, [sp, #16]
    a6e8:	13a0a030 	movne	sl, #48	; 0x30
    a6ec:	0a00076e 	beq	c4ac <Process_Out.constprop.1+0x27a4>
    a6f0:	e154000c 	cmp	r4, ip
    a6f4:	c7cea00c 	strbgt	sl, [lr, ip]
    a6f8:	e2410001 	sub	r0, r1, #1
    a6fc:	c1a09005 	movgt	r9, r5
    a700:	c28cc001 	addgt	ip, ip, #1
    a704:	e1520001 	cmp	r2, r1
    a708:	e2866001 	add	r6, r6, #1
    a70c:	e6af1070 	sxtb	r1, r0
    a710:	bafffff6 	blt	a6f0 <Process_Out.constprop.1+0x9e8>
    a714:	e3590000 	cmp	r9, #0
    a718:	1a000937 	bne	cbfc <Process_Out.constprop.1+0x2ef4>
    a71c:	e59d2014 	ldr	r2, [sp, #20]
    a720:	e3520000 	cmp	r2, #0
    a724:	1a0008ee 	bne	cae4 <Process_Out.constprop.1+0x2ddc>
    a728:	e59d2008 	ldr	r2, [sp, #8]
    a72c:	e3120040 	tst	r2, #64	; 0x40
    a730:	0a00000a 	beq	a760 <Process_Out.constprop.1+0xa58>
    a734:	e59d2048 	ldr	r2, [sp, #72]	; 0x48
    a738:	e3520010 	cmp	r2, #16
    a73c:	1a000007 	bne	a760 <Process_Out.constprop.1+0xa58>
    a740:	e3a00030 	mov	r0, #48	; 0x30
    a744:	e58d3008 	str	r3, [sp, #8]
    a748:	ebfff913 	bl	8b9c <Buffer_WriteChar>
    a74c:	e59d3034 	ldr	r3, [sp, #52]	; 0x34
    a750:	e2866002 	add	r6, r6, #2
    a754:	e3830058 	orr	r0, r3, #88	; 0x58
    a758:	ebfff90f 	bl	8b9c <Buffer_WriteChar>
    a75c:	e59d3008 	ldr	r3, [sp, #8]
    a760:	e59f2498 	ldr	r2, [pc, #1176]	; ac00 <Process_Out.constprop.1+0xef8>
    a764:	e592c000 	ldr	ip, [r2]
    a768:	e592e008 	ldr	lr, [r2, #8]
    a76c:	e37c0001 	cmn	ip, #1
    a770:	e5921004 	ldr	r1, [r2, #4]
    a774:	0a000c2f 	beq	d838 <Process_Out.constprop.1+0x3b30>
    a778:	e35e0000 	cmp	lr, #0
    a77c:	0a000dd7 	beq	dee0 <Process_Out.constprop.1+0x41d8>
    a780:	e1a02007 	mov	r2, r7
    a784:	e59d4010 	ldr	r4, [sp, #16]
    a788:	e15c0001 	cmp	ip, r1
    a78c:	c28d0058 	addgt	r0, sp, #88	; 0x58
    a790:	c7d00002 	ldrbgt	r0, [r0, r2]
    a794:	e2422001 	sub	r2, r2, #1
    a798:	c7ce0001 	strbgt	r0, [lr, r1]
    a79c:	e2820001 	add	r0, r2, #1
    a7a0:	c1a04005 	movgt	r4, r5
    a7a4:	c2811001 	addgt	r1, r1, #1
    a7a8:	e3500000 	cmp	r0, #0
    a7ac:	cafffff5 	bgt	a788 <Process_Out.constprop.1+0xa80>
    a7b0:	e2866001 	add	r6, r6, #1
    a7b4:	e3540000 	cmp	r4, #0
    a7b8:	e087c006 	add	ip, r7, r6
    a7bc:	1a000c2d 	bne	d878 <Process_Out.constprop.1+0x3b70>
    a7c0:	e35b0000 	cmp	fp, #0
    a7c4:	e24b4001 	sub	r4, fp, #1
    a7c8:	da000016 	ble	a828 <Process_Out.constprop.1+0xb20>
    a7cc:	e59f242c 	ldr	r2, [pc, #1068]	; ac00 <Process_Out.constprop.1+0xef8>
    a7d0:	e59f1428 	ldr	r1, [pc, #1064]	; ac00 <Process_Out.constprop.1+0xef8>
    a7d4:	e592e000 	ldr	lr, [r2]
    a7d8:	e5910008 	ldr	r0, [r1, #8]
    a7dc:	e37e0001 	cmn	lr, #1
    a7e0:	e5922004 	ldr	r2, [r2, #4]
    a7e4:	0a00090d 	beq	cc20 <Process_Out.constprop.1+0x2f18>
    a7e8:	e3500000 	cmp	r0, #0
    a7ec:	0a000d73 	beq	ddc0 <Process_Out.constprop.1+0x40b8>
    a7f0:	e1a01004 	mov	r1, r4
    a7f4:	e3a06020 	mov	r6, #32
    a7f8:	e59d7010 	ldr	r7, [sp, #16]
    a7fc:	e15e0002 	cmp	lr, r2
    a800:	e2411001 	sub	r1, r1, #1
    a804:	c7c06002 	strbgt	r6, [r0, r2]
    a808:	c1a07005 	movgt	r7, r5
    a80c:	c2822001 	addgt	r2, r2, #1
    a810:	e3710001 	cmn	r1, #1
    a814:	1afffff8 	bne	a7fc <Process_Out.constprop.1+0xaf4>
    a818:	e28cc001 	add	ip, ip, #1
    a81c:	e3570000 	cmp	r7, #0
    a820:	e084c00c 	add	ip, r4, ip
    a824:	1a00090a 	bne	cc54 <Process_Out.constprop.1+0x2f4c>
    a828:	e59d2004 	ldr	r2, [sp, #4]
    a82c:	e082200c 	add	r2, r2, ip
    a830:	e58d2004 	str	r2, [sp, #4]
    a834:	e59d203c 	ldr	r2, [sp, #60]	; 0x3c
    a838:	e58d2014 	str	r2, [sp, #20]
    a83c:	eafffd5c 	b	9db4 <Process_Out.constprop.1+0xac>
    a840:	e1a03004 	mov	r3, r4
    a844:	e3e00000 	mvn	r0, #0
    a848:	e3a0c000 	mov	ip, #0
    a84c:	e59d200c 	ldr	r2, [sp, #12]
    a850:	e1891102 	orr	r1, r9, r2, lsl #2
    a854:	e59d2008 	ldr	r2, [sp, #8]
    a858:	e1811182 	orr	r1, r1, r2, lsl #3
    a85c:	e1811206 	orr	r1, r1, r6, lsl #4
    a860:	e1811307 	orr	r1, r1, r7, lsl #6
    a864:	e181138c 	orr	r1, r1, ip, lsl #7
    a868:	e1a01221 	lsr	r1, r1, #4
    a86c:	e2211001 	eor	r1, r1, #1
    a870:	e35b0000 	cmp	fp, #0
    a874:	d3a01000 	movle	r1, #0
    a878:	c2011001 	andgt	r1, r1, #1
    a87c:	e3510000 	cmp	r1, #0
    a880:	0a00001f 	beq	a904 <Process_Out.constprop.1+0xbfc>
    a884:	e6efe07b 	uxtb	lr, fp
    a888:	e24e2001 	sub	r2, lr, #1
    a88c:	e6afb072 	sxtb	fp, r2
    a890:	e35b0000 	cmp	fp, #0
    a894:	0a00001a 	beq	a904 <Process_Out.constprop.1+0xbfc>
    a898:	e59f2360 	ldr	r2, [pc, #864]	; ac00 <Process_Out.constprop.1+0xef8>
    a89c:	e5926000 	ldr	r6, [r2]
    a8a0:	e5924008 	ldr	r4, [r2, #8]
    a8a4:	e3760001 	cmn	r6, #1
    a8a8:	e592c004 	ldr	ip, [r2, #4]
    a8ac:	0a000e2d 	beq	e168 <Process_Out.constprop.1+0x4460>
    a8b0:	e3540000 	cmp	r4, #0
    a8b4:	0a000f41 	beq	e5c0 <Process_Out.constprop.1+0x48b8>
    a8b8:	e3a09020 	mov	r9, #32
    a8bc:	e59d7010 	ldr	r7, [sp, #16]
    a8c0:	e24b2001 	sub	r2, fp, #1
    a8c4:	e156000c 	cmp	r6, ip
    a8c8:	e6ef2072 	uxtb	r2, r2
    a8cc:	c7c4900c 	strbgt	r9, [r4, ip]
    a8d0:	c1a07001 	movgt	r7, r1
    a8d4:	c28cc001 	addgt	ip, ip, #1
    a8d8:	e3520000 	cmp	r2, #0
    a8dc:	e6afb072 	sxtb	fp, r2
    a8e0:	1afffff6 	bne	a8c0 <Process_Out.constprop.1+0xbb8>
    a8e4:	e59d2004 	ldr	r2, [sp, #4]
    a8e8:	e24ee002 	sub	lr, lr, #2
    a8ec:	e2822001 	add	r2, r2, #1
    a8f0:	e6e2207e 	uxtab	r2, r2, lr
    a8f4:	e3570000 	cmp	r7, #0
    a8f8:	e58d2004 	str	r2, [sp, #4]
    a8fc:	e3a0b000 	mov	fp, #0
    a900:	1a000e2a 	bne	e1b0 <Process_Out.constprop.1+0x44a8>
    a904:	e350006c 	cmp	r0, #108	; 0x6c
    a908:	0a000abf 	beq	d40c <Process_Out.constprop.1+0x3704>
    a90c:	e59f22ec 	ldr	r2, [pc, #748]	; ac00 <Process_Out.constprop.1+0xef8>
    a910:	e592c000 	ldr	ip, [r2]
    a914:	e59d2014 	ldr	r2, [sp, #20]
    a918:	e37c0001 	cmn	ip, #1
    a91c:	e282e004 	add	lr, r2, #4
    a920:	0a000003 	beq	a934 <Process_Out.constprop.1+0xc2c>
    a924:	e59f22d4 	ldr	r2, [pc, #724]	; ac00 <Process_Out.constprop.1+0xef8>
    a928:	e5921004 	ldr	r1, [r2, #4]
    a92c:	e15c0001 	cmp	ip, r1
    a930:	da00000a 	ble	a960 <Process_Out.constprop.1+0xc58>
    a934:	e59f22c4 	ldr	r2, [pc, #708]	; ac00 <Process_Out.constprop.1+0xef8>
    a938:	e5920008 	ldr	r0, [r2, #8]
    a93c:	e3500000 	cmp	r0, #0
    a940:	0a000006 	beq	a960 <Process_Out.constprop.1+0xc58>
    a944:	e5921004 	ldr	r1, [r2, #4]
    a948:	e59d2014 	ldr	r2, [sp, #20]
    a94c:	e2814001 	add	r4, r1, #1
    a950:	e5926000 	ldr	r6, [r2]
    a954:	e59f22a4 	ldr	r2, [pc, #676]	; ac00 <Process_Out.constprop.1+0xef8>
    a958:	e7c06001 	strb	r6, [r0, r1]
    a95c:	e5824004 	str	r4, [r2, #4]
    a960:	e59d2004 	ldr	r2, [sp, #4]
    a964:	e58de014 	str	lr, [sp, #20]
    a968:	e2822001 	add	r2, r2, #1
    a96c:	e58d2004 	str	r2, [sp, #4]
    a970:	e35b0000 	cmp	fp, #0
    a974:	dafffd0e 	ble	9db4 <Process_Out.constprop.1+0xac>
    a978:	e6ef207b 	uxtb	r2, fp
    a97c:	e2421001 	sub	r1, r2, #1
    a980:	e6af1071 	sxtb	r1, r1
    a984:	e3510000 	cmp	r1, #0
    a988:	0afffd09 	beq	9db4 <Process_Out.constprop.1+0xac>
    a98c:	e59f026c 	ldr	r0, [pc, #620]	; ac00 <Process_Out.constprop.1+0xef8>
    a990:	e59fe268 	ldr	lr, [pc, #616]	; ac00 <Process_Out.constprop.1+0xef8>
    a994:	e37c0001 	cmn	ip, #1
    a998:	e5900004 	ldr	r0, [r0, #4]
    a99c:	e59ee008 	ldr	lr, [lr, #8]
    a9a0:	0a000c92 	beq	dbf0 <Process_Out.constprop.1+0x3ee8>
    a9a4:	e35e0000 	cmp	lr, #0
    a9a8:	0a000e97 	beq	e40c <Process_Out.constprop.1+0x4704>
    a9ac:	e3a06020 	mov	r6, #32
    a9b0:	e59d4010 	ldr	r4, [sp, #16]
    a9b4:	e2411001 	sub	r1, r1, #1
    a9b8:	e15c0000 	cmp	ip, r0
    a9bc:	e6ef1071 	uxtb	r1, r1
    a9c0:	c7ce6000 	strbgt	r6, [lr, r0]
    a9c4:	c1a04005 	movgt	r4, r5
    a9c8:	c2800001 	addgt	r0, r0, #1
    a9cc:	e3510000 	cmp	r1, #0
    a9d0:	e6af1071 	sxtb	r1, r1
    a9d4:	1afffff6 	bne	a9b4 <Process_Out.constprop.1+0xcac>
    a9d8:	e59d1004 	ldr	r1, [sp, #4]
    a9dc:	e2422002 	sub	r2, r2, #2
    a9e0:	e2811001 	add	r1, r1, #1
    a9e4:	e6e12072 	uxtab	r2, r1, r2
    a9e8:	e3540000 	cmp	r4, #0
    a9ec:	e58d2004 	str	r2, [sp, #4]
    a9f0:	0afffcef 	beq	9db4 <Process_Out.constprop.1+0xac>
    a9f4:	e59f2204 	ldr	r2, [pc, #516]	; ac00 <Process_Out.constprop.1+0xef8>
    a9f8:	e5820004 	str	r0, [r2, #4]
    a9fc:	eafffcec 	b	9db4 <Process_Out.constprop.1+0xac>
    aa00:	e1a03004 	mov	r3, r4
    aa04:	e59f21f4 	ldr	r2, [pc, #500]	; ac00 <Process_Out.constprop.1+0xef8>
    aa08:	e5922000 	ldr	r2, [r2]
    aa0c:	e3720001 	cmn	r2, #1
    aa10:	0a000003 	beq	aa24 <Process_Out.constprop.1+0xd1c>
    aa14:	e59f11e4 	ldr	r1, [pc, #484]	; ac00 <Process_Out.constprop.1+0xef8>
    aa18:	e5911004 	ldr	r1, [r1, #4]
    aa1c:	e1520001 	cmp	r2, r1
    aa20:	dafffce0 	ble	9da8 <Process_Out.constprop.1+0xa0>
    aa24:	e59f21d4 	ldr	r2, [pc, #468]	; ac00 <Process_Out.constprop.1+0xef8>
    aa28:	e5921008 	ldr	r1, [r2, #8]
    aa2c:	e3510000 	cmp	r1, #0
    aa30:	0afffcdc 	beq	9da8 <Process_Out.constprop.1+0xa0>
    aa34:	e3a0c025 	mov	ip, #37	; 0x25
    aa38:	e5922004 	ldr	r2, [r2, #4]
    aa3c:	e2820001 	add	r0, r2, #1
    aa40:	e7c1c002 	strb	ip, [r1, r2]
    aa44:	e59f21b4 	ldr	r2, [pc, #436]	; ac00 <Process_Out.constprop.1+0xef8>
    aa48:	e5820004 	str	r0, [r2, #4]
    aa4c:	eafffcd5 	b	9da8 <Process_Out.constprop.1+0xa0>
    aa50:	e3a0e000 	mov	lr, #0
    aa54:	e3a04010 	mov	r4, #16
    aa58:	e1a0000e 	mov	r0, lr
    aa5c:	e2411068 	sub	r1, r1, #104	; 0x68
    aa60:	e3510012 	cmp	r1, #18
    aa64:	979ff101 	ldrls	pc, [pc, r1, lsl #2]
    aa68:	ea000581 	b	c074 <Process_Out.constprop.1+0x236c>
    aa6c:	0000b484 	.word	0x0000b484
    aa70:	0000c074 	.word	0x0000c074
    aa74:	0000b054 	.word	0x0000b054
    aa78:	0000c074 	.word	0x0000c074
    aa7c:	0000ac04 	.word	0x0000ac04
    aa80:	0000c074 	.word	0x0000c074
    aa84:	0000c074 	.word	0x0000c074
    aa88:	0000c074 	.word	0x0000c074
    aa8c:	0000c074 	.word	0x0000c074
    aa90:	0000c074 	.word	0x0000c074
    aa94:	0000c074 	.word	0x0000c074
    aa98:	0000c074 	.word	0x0000c074
    aa9c:	0000bc58 	.word	0x0000bc58
    aaa0:	0000c074 	.word	0x0000c074
    aaa4:	0000c074 	.word	0x0000c074
    aaa8:	0000c074 	.word	0x0000c074
    aaac:	0000c074 	.word	0x0000c074
    aab0:	0000c074 	.word	0x0000c074
    aab4:	0000b82c 	.word	0x0000b82c
    aab8:	e351004c 	cmp	r1, #76	; 0x4c
    aabc:	0a000a4b 	beq	d3f0 <Process_Out.constprop.1+0x36e8>
    aac0:	e58d3008 	str	r3, [sp, #8]
    aac4:	e59d3014 	ldr	r3, [sp, #20]
    aac8:	e59f012c 	ldr	r0, [pc, #300]	; abfc <Process_Out.constprop.1+0xef4>
    aacc:	e2837007 	add	r7, r3, #7
    aad0:	e3c77007 	bic	r7, r7, #7
    aad4:	ed977b00 	vldr	d7, [r7]
    aad8:	eeb77bc7 	vcvt.f32.f64	s14, d7
    aadc:	eeb70ac7 	vcvt.f64.f32	d0, s14
    aae0:	e2873008 	add	r3, r7, #8
    aae4:	e58d3014 	str	r3, [sp, #20]
    aae8:	ebfff83a 	bl	8bd8 <NumStr>
    aaec:	e59d3004 	ldr	r3, [sp, #4]
    aaf0:	e0833000 	add	r3, r3, r0
    aaf4:	e58d3004 	str	r3, [sp, #4]
    aaf8:	e59d3008 	ldr	r3, [sp, #8]
    aafc:	eafffcac 	b	9db4 <Process_Out.constprop.1+0xac>
    ab00:	e3a04010 	mov	r4, #16
    ab04:	e1a0e005 	mov	lr, r5
    ab08:	e3a00000 	mov	r0, #0
    ab0c:	eaffffd2 	b	aa5c <Process_Out.constprop.1+0xd54>
    ab10:	e3a0e000 	mov	lr, #0
    ab14:	e3a04008 	mov	r4, #8
    ab18:	e1a0000e 	mov	r0, lr
    ab1c:	eaffffce 	b	aa5c <Process_Out.constprop.1+0xd54>
    ab20:	e241104c 	sub	r1, r1, #76	; 0x4c
    ab24:	e351002e 	cmp	r1, #46	; 0x2e
    ab28:	979ff101 	ldrls	pc, [pc, r1, lsl #2]
    ab2c:	ea000657 	b	c490 <Process_Out.constprop.1+0x2788>
    ab30:	0000c554 	.word	0x0000c554
    ab34:	0000c490 	.word	0x0000c490
    ab38:	0000c490 	.word	0x0000c490
    ab3c:	0000c490 	.word	0x0000c490
    ab40:	0000c490 	.word	0x0000c490
    ab44:	0000c490 	.word	0x0000c490
    ab48:	0000c490 	.word	0x0000c490
    ab4c:	0000c490 	.word	0x0000c490
    ab50:	0000c490 	.word	0x0000c490
    ab54:	0000c490 	.word	0x0000c490
    ab58:	0000c490 	.word	0x0000c490
    ab5c:	0000c490 	.word	0x0000c490
    ab60:	0000c490 	.word	0x0000c490
    ab64:	0000c490 	.word	0x0000c490
    ab68:	0000c490 	.word	0x0000c490
    ab6c:	0000c490 	.word	0x0000c490
    ab70:	0000c490 	.word	0x0000c490
    ab74:	0000c490 	.word	0x0000c490
    ab78:	0000c490 	.word	0x0000c490
    ab7c:	0000c490 	.word	0x0000c490
    ab80:	0000c490 	.word	0x0000c490
    ab84:	0000c490 	.word	0x0000c490
    ab88:	0000c490 	.word	0x0000c490
    ab8c:	0000c490 	.word	0x0000c490
    ab90:	0000c490 	.word	0x0000c490
    ab94:	0000c490 	.word	0x0000c490
    ab98:	0000c490 	.word	0x0000c490
    ab9c:	0000c490 	.word	0x0000c490
    aba0:	0000c594 	.word	0x0000c594
    aba4:	0000c490 	.word	0x0000c490
    aba8:	0000c574 	.word	0x0000c574
    abac:	0000c490 	.word	0x0000c490
    abb0:	0000c5bc 	.word	0x0000c5bc
    abb4:	0000c490 	.word	0x0000c490
    abb8:	0000c490 	.word	0x0000c490
    abbc:	0000c490 	.word	0x0000c490
    abc0:	0000c490 	.word	0x0000c490
    abc4:	0000c490 	.word	0x0000c490
    abc8:	0000c490 	.word	0x0000c490
    abcc:	0000c490 	.word	0x0000c490
    abd0:	0000c490 	.word	0x0000c490
    abd4:	0000c490 	.word	0x0000c490
    abd8:	0000c490 	.word	0x0000c490
    abdc:	0000c490 	.word	0x0000c490
    abe0:	0000c490 	.word	0x0000c490
    abe4:	0000c490 	.word	0x0000c490
    abe8:	0000c490 	.word	0x0000c490
    abec:	e3a0400a 	mov	r4, #10
    abf0:	e3a0e000 	mov	lr, #0
    abf4:	e1a00005 	mov	r0, r5
    abf8:	eaffff97 	b	aa5c <Process_Out.constprop.1+0xd54>
    abfc:	00008b9c 	.word	0x00008b9c
    ac00:	000185c0 	.word	0x000185c0
    ac04:	e2002001 	and	r2, r0, #1
    ac08:	e2091001 	and	r1, r9, #1
    ac0c:	e59d000c 	ldr	r0, [sp, #12]
    ac10:	e58d2030 	str	r2, [sp, #48]	; 0x30
    ac14:	e58d1020 	str	r1, [sp, #32]
    ac18:	e1811082 	orr	r1, r1, r2, lsl #1
    ac1c:	e59d2008 	ldr	r2, [sp, #8]
    ac20:	e2000001 	and	r0, r0, #1
    ac24:	e2022001 	and	r2, r2, #1
    ac28:	e1811100 	orr	r1, r1, r0, lsl #2
    ac2c:	e1811182 	orr	r1, r1, r2, lsl #3
    ac30:	e58d2024 	str	r2, [sp, #36]	; 0x24
    ac34:	e2062001 	and	r2, r6, #1
    ac38:	e1811202 	orr	r1, r1, r2, lsl #4
    ac3c:	e58d000c 	str	r0, [sp, #12]
    ac40:	e20e0001 	and	r0, lr, #1
    ac44:	e1811280 	orr	r1, r1, r0, lsl #5
    ac48:	e58d202c 	str	r2, [sp, #44]	; 0x2c
    ac4c:	e2072001 	and	r2, r7, #1
    ac50:	e58d0034 	str	r0, [sp, #52]	; 0x34
    ac54:	e1811302 	orr	r1, r1, r2, lsl #6
    ac58:	e20c0001 	and	r0, ip, #1
    ac5c:	e1811380 	orr	r1, r1, r0, lsl #7
    ac60:	e58d0008 	str	r0, [sp, #8]
    ac64:	e6ef0071 	uxtb	r0, r1
    ac68:	e3100080 	tst	r0, #128	; 0x80
    ac6c:	e58d2028 	str	r2, [sp, #40]	; 0x28
    ac70:	1a0008df 	bne	cff4 <Process_Out.constprop.1+0x32ec>
    ac74:	e204c01f 	and	ip, r4, #31
    ac78:	e3c11c1f 	bic	r1, r1, #7936	; 0x1f00
    ac7c:	e181140c 	orr	r1, r1, ip, lsl #8
    ac80:	e3c118ff 	bic	r1, r1, #16711680	; 0xff0000
    ac84:	e6efc07b 	uxtb	ip, fp
    ac88:	e181180c 	orr	r1, r1, ip, lsl #16
    ac8c:	e59d201c 	ldr	r2, [sp, #28]
    ac90:	e3c114ff 	bic	r1, r1, #-16777216	; 0xff000000
    ac94:	e1811c02 	orr	r1, r1, r2, lsl #24
    ac98:	e59d2014 	ldr	r2, [sp, #20]
    ac9c:	e3100010 	tst	r0, #16
    aca0:	e5927000 	ldr	r7, [r2]
    aca4:	e2820004 	add	r0, r2, #4
    aca8:	13a02000 	movne	r2, #0
    acac:	e58d0048 	str	r0, [sp, #72]	; 0x48
    acb0:	e1a00421 	lsr	r0, r1, #8
    acb4:	e200001f 	and	r0, r0, #31
    acb8:	e240c008 	sub	ip, r0, #8
    acbc:	e20cc0f7 	and	ip, ip, #247	; 0xf7
    acc0:	059d2020 	ldreq	r2, [sp, #32]
    acc4:	158d2044 	strne	r2, [sp, #68]	; 0x44
    acc8:	158d2020 	strne	r2, [sp, #32]
    accc:	058d9044 	streq	r9, [sp, #68]	; 0x44
    acd0:	e3500002 	cmp	r0, #2
    acd4:	135c0000 	cmpne	ip, #0
    acd8:	e3c11001 	bic	r1, r1, #1
    acdc:	e1822001 	orr	r2, r2, r1
    ace0:	e6ef1072 	uxtb	r1, r2
    ace4:	13a0400a 	movne	r4, #10
    ace8:	e3110001 	tst	r1, #1
    acec:	e58d204c 	str	r2, [sp, #76]	; 0x4c
    acf0:	03a02020 	moveq	r2, #32
    acf4:	13a02030 	movne	r2, #48	; 0x30
    acf8:	e3110002 	tst	r1, #2
    acfc:	e58d2040 	str	r2, [sp, #64]	; 0x40
    ad00:	e2012020 	and	r2, r1, #32
    ad04:	e58db014 	str	fp, [sp, #20]
    ad08:	e58d203c 	str	r2, [sp, #60]	; 0x3c
    ad0c:	0a00072f 	beq	c9d0 <Process_Out.constprop.1+0x2cc8>
    ad10:	e3570000 	cmp	r7, #0
    ad14:	ba000750 	blt	ca5c <Process_Out.constprop.1+0x2d54>
    ad18:	e3110004 	tst	r1, #4
    ad1c:	0a000c5c 	beq	de94 <Process_Out.constprop.1+0x418c>
    ad20:	e24b2001 	sub	r2, fp, #1
    ad24:	e58d2014 	str	r2, [sp, #20]
    ad28:	e3a0202b 	mov	r2, #43	; 0x2b
    ad2c:	e58d2038 	str	r2, [sp, #56]	; 0x38
    ad30:	e3570000 	cmp	r7, #0
    ad34:	1a00074d 	bne	ca70 <Process_Out.constprop.1+0x2d68>
    ad38:	e3a02030 	mov	r2, #48	; 0x30
    ad3c:	e3a0a000 	mov	sl, #0
    ad40:	e5cd2058 	strb	r2, [sp, #88]	; 0x58
    ad44:	e1a02005 	mov	r2, r5
    ad48:	e59d101c 	ldr	r1, [sp, #28]
    ad4c:	e1510002 	cmp	r1, r2
    ad50:	b6af1072 	sxtblt	r1, r2
    ad54:	b58d101c 	strlt	r1, [sp, #28]
    ad58:	e59d1044 	ldr	r1, [sp, #68]	; 0x44
    ad5c:	e59d001c 	ldr	r0, [sp, #28]
    ad60:	e0966001 	adds	r6, r6, r1
    ad64:	e59d1014 	ldr	r1, [sp, #20]
    ad68:	13a06000 	movne	r6, #0
    ad6c:	e0417000 	sub	r7, r1, r0
    ad70:	1a000018 	bne	add8 <Process_Out.constprop.1+0x10d0>
    ad74:	e3570000 	cmp	r7, #0
    ad78:	e2470001 	sub	r0, r7, #1
    ad7c:	da000d9a 	ble	e3ec <Process_Out.constprop.1+0x46e4>
    ad80:	e51f1188 	ldr	r1, [pc, #-392]	; ac00 <Process_Out.constprop.1+0xef8>
    ad84:	e591e000 	ldr	lr, [r1]
    ad88:	e591c008 	ldr	ip, [r1, #8]
    ad8c:	e37e0001 	cmn	lr, #1
    ad90:	e5911004 	ldr	r1, [r1, #4]
    ad94:	0a000d1b 	beq	e208 <Process_Out.constprop.1+0x4500>
    ad98:	e35c0000 	cmp	ip, #0
    ad9c:	0a000d89 	beq	e3c8 <Process_Out.constprop.1+0x46c0>
    ada0:	e3a09020 	mov	r9, #32
    ada4:	e59d6010 	ldr	r6, [sp, #16]
    ada8:	e151000e 	cmp	r1, lr
    adac:	e2400001 	sub	r0, r0, #1
    adb0:	b7cc9001 	strblt	r9, [ip, r1]
    adb4:	b1a06005 	movlt	r6, r5
    adb8:	b2811001 	addlt	r1, r1, #1
    adbc:	e3700001 	cmn	r0, #1
    adc0:	1afffff8 	bne	ada8 <Process_Out.constprop.1+0x10a0>
    adc4:	e3560000 	cmp	r6, #0
    adc8:	e3e0c000 	mvn	ip, #0
    adcc:	1a000d19 	bne	e238 <Process_Out.constprop.1+0x4530>
    add0:	e1a06007 	mov	r6, r7
    add4:	e1a0700c 	mov	r7, ip
    add8:	e59d104c 	ldr	r1, [sp, #76]	; 0x4c
    addc:	e59d0020 	ldr	r0, [sp, #32]
    ade0:	e3c11001 	bic	r1, r1, #1
    ade4:	e1801001 	orr	r1, r0, r1
    ade8:	e59d0030 	ldr	r0, [sp, #48]	; 0x30
    adec:	e3c11002 	bic	r1, r1, #2
    adf0:	e1811080 	orr	r1, r1, r0, lsl #1
    adf4:	e59d000c 	ldr	r0, [sp, #12]
    adf8:	e3c11004 	bic	r1, r1, #4
    adfc:	e1811100 	orr	r1, r1, r0, lsl #2
    ae00:	e59d0024 	ldr	r0, [sp, #36]	; 0x24
    ae04:	e3c11008 	bic	r1, r1, #8
    ae08:	e1811180 	orr	r1, r1, r0, lsl #3
    ae0c:	e59d002c 	ldr	r0, [sp, #44]	; 0x2c
    ae10:	e3c11010 	bic	r1, r1, #16
    ae14:	e1811200 	orr	r1, r1, r0, lsl #4
    ae18:	e59d0034 	ldr	r0, [sp, #52]	; 0x34
    ae1c:	e3c11020 	bic	r1, r1, #32
    ae20:	e1811280 	orr	r1, r1, r0, lsl #5
    ae24:	e59d0028 	ldr	r0, [sp, #40]	; 0x28
    ae28:	e3c11040 	bic	r1, r1, #64	; 0x40
    ae2c:	e1811300 	orr	r1, r1, r0, lsl #6
    ae30:	e59d0008 	ldr	r0, [sp, #8]
    ae34:	e3c11080 	bic	r1, r1, #128	; 0x80
    ae38:	e1811380 	orr	r1, r1, r0, lsl #7
    ae3c:	e6ef1071 	uxtb	r1, r1
    ae40:	e3110010 	tst	r1, #16
    ae44:	e58d1008 	str	r1, [sp, #8]
    ae48:	1a00001a 	bne	aeb8 <Process_Out.constprop.1+0x11b0>
    ae4c:	e3570000 	cmp	r7, #0
    ae50:	e247b001 	sub	fp, r7, #1
    ae54:	da000d72 	ble	e424 <Process_Out.constprop.1+0x471c>
    ae58:	e51f1260 	ldr	r1, [pc, #-608]	; ac00 <Process_Out.constprop.1+0xef8>
    ae5c:	e51f0264 	ldr	r0, [pc, #-612]	; ac00 <Process_Out.constprop.1+0xef8>
    ae60:	e591e000 	ldr	lr, [r1]
    ae64:	e590c008 	ldr	ip, [r0, #8]
    ae68:	e37e0001 	cmn	lr, #1
    ae6c:	e5911004 	ldr	r1, [r1, #4]
    ae70:	0a000cf3 	beq	e244 <Process_Out.constprop.1+0x453c>
    ae74:	e35c0000 	cmp	ip, #0
    ae78:	0a000d57 	beq	e3dc <Process_Out.constprop.1+0x46d4>
    ae7c:	e1a0000b 	mov	r0, fp
    ae80:	e59d7010 	ldr	r7, [sp, #16]
    ae84:	e59d9040 	ldr	r9, [sp, #64]	; 0x40
    ae88:	e151000e 	cmp	r1, lr
    ae8c:	e2400001 	sub	r0, r0, #1
    ae90:	b7cc9001 	strblt	r9, [ip, r1]
    ae94:	b1a07005 	movlt	r7, r5
    ae98:	b2811001 	addlt	r1, r1, #1
    ae9c:	e3700001 	cmn	r0, #1
    aea0:	1afffff8 	bne	ae88 <Process_Out.constprop.1+0x1180>
    aea4:	e2866001 	add	r6, r6, #1
    aea8:	e3570000 	cmp	r7, #0
    aeac:	e08b6006 	add	r6, fp, r6
    aeb0:	e3e07000 	mvn	r7, #0
    aeb4:	1a000cf0 	bne	e27c <Process_Out.constprop.1+0x4574>
    aeb8:	e59d101c 	ldr	r1, [sp, #28]
    aebc:	e1520001 	cmp	r2, r1
    aec0:	e2411001 	sub	r1, r1, #1
    aec4:	e6af1071 	sxtb	r1, r1
    aec8:	aa000018 	bge	af30 <Process_Out.constprop.1+0x1228>
    aecc:	e51f02d4 	ldr	r0, [pc, #-724]	; ac00 <Process_Out.constprop.1+0xef8>
    aed0:	e590e000 	ldr	lr, [r0]
    aed4:	e590b008 	ldr	fp, [r0, #8]
    aed8:	e37e0001 	cmn	lr, #1
    aedc:	e590c004 	ldr	ip, [r0, #4]
    aee0:	0a000af6 	beq	dac0 <Process_Out.constprop.1+0x3db8>
    aee4:	e35b0000 	cmp	fp, #0
    aee8:	0a000593 	beq	c53c <Process_Out.constprop.1+0x2834>
    aeec:	e59d0010 	ldr	r0, [sp, #16]
    aef0:	e58d300c 	str	r3, [sp, #12]
    aef4:	e3a09030 	mov	r9, #48	; 0x30
    aef8:	e1a03000 	mov	r3, r0
    aefc:	e15c000e 	cmp	ip, lr
    af00:	b7cb900c 	strblt	r9, [fp, ip]
    af04:	e2410001 	sub	r0, r1, #1
    af08:	b1a03005 	movlt	r3, r5
    af0c:	b28cc001 	addlt	ip, ip, #1
    af10:	e1510002 	cmp	r1, r2
    af14:	e2866001 	add	r6, r6, #1
    af18:	e6af1070 	sxtb	r1, r0
    af1c:	cafffff6 	bgt	aefc <Process_Out.constprop.1+0x11f4>
    af20:	e1a02003 	mov	r2, r3
    af24:	e3520000 	cmp	r2, #0
    af28:	e59d300c 	ldr	r3, [sp, #12]
    af2c:	1a000aee 	bne	daec <Process_Out.constprop.1+0x3de4>
    af30:	e59d2038 	ldr	r2, [sp, #56]	; 0x38
    af34:	e3520000 	cmp	r2, #0
    af38:	1a000af4 	bne	db10 <Process_Out.constprop.1+0x3e08>
    af3c:	e59d2008 	ldr	r2, [sp, #8]
    af40:	e3120040 	tst	r2, #64	; 0x40
    af44:	0a00000b 	beq	af78 <Process_Out.constprop.1+0x1270>
    af48:	e3540008 	cmp	r4, #8
    af4c:	0a000cfb 	beq	e340 <Process_Out.constprop.1+0x4638>
    af50:	e3540010 	cmp	r4, #16
    af54:	1a000007 	bne	af78 <Process_Out.constprop.1+0x1270>
    af58:	e3a00030 	mov	r0, #48	; 0x30
    af5c:	e58d3008 	str	r3, [sp, #8]
    af60:	ebfff70d 	bl	8b9c <Buffer_WriteChar>
    af64:	e59d303c 	ldr	r3, [sp, #60]	; 0x3c
    af68:	e2866002 	add	r6, r6, #2
    af6c:	e3830058 	orr	r0, r3, #88	; 0x58
    af70:	ebfff709 	bl	8b9c <Buffer_WriteChar>
    af74:	e59d3008 	ldr	r3, [sp, #8]
    af78:	e51f2380 	ldr	r2, [pc, #-896]	; ac00 <Process_Out.constprop.1+0xef8>
    af7c:	e592c000 	ldr	ip, [r2]
    af80:	e5921004 	ldr	r1, [r2, #4]
    af84:	e37c0001 	cmn	ip, #1
    af88:	e592e008 	ldr	lr, [r2, #8]
    af8c:	0a000ab8 	beq	da74 <Process_Out.constprop.1+0x3d6c>
    af90:	e35e0000 	cmp	lr, #0
    af94:	0a000d0d 	beq	e3d0 <Process_Out.constprop.1+0x46c8>
    af98:	e1a0200a 	mov	r2, sl
    af9c:	e59d4010 	ldr	r4, [sp, #16]
    afa0:	e151000c 	cmp	r1, ip
    afa4:	b28d0058 	addlt	r0, sp, #88	; 0x58
    afa8:	b7d00002 	ldrblt	r0, [r0, r2]
    afac:	e2422001 	sub	r2, r2, #1
    afb0:	b7ce0001 	strblt	r0, [lr, r1]
    afb4:	e2820001 	add	r0, r2, #1
    afb8:	b1a04005 	movlt	r4, r5
    afbc:	b2811001 	addlt	r1, r1, #1
    afc0:	e3500000 	cmp	r0, #0
    afc4:	cafffff5 	bgt	afa0 <Process_Out.constprop.1+0x1298>
    afc8:	e2866001 	add	r6, r6, #1
    afcc:	e3540000 	cmp	r4, #0
    afd0:	e08ac006 	add	ip, sl, r6
    afd4:	1a000ab6 	bne	dab4 <Process_Out.constprop.1+0x3dac>
    afd8:	e3570000 	cmp	r7, #0
    afdc:	e2474001 	sub	r4, r7, #1
    afe0:	da000015 	ble	b03c <Process_Out.constprop.1+0x1334>
    afe4:	e51f23ec 	ldr	r2, [pc, #-1004]	; ac00 <Process_Out.constprop.1+0xef8>
    afe8:	e592e000 	ldr	lr, [r2]
    afec:	e5920008 	ldr	r0, [r2, #8]
    aff0:	e37e0001 	cmn	lr, #1
    aff4:	e5922004 	ldr	r2, [r2, #4]
    aff8:	0a000b16 	beq	dc58 <Process_Out.constprop.1+0x3f50>
    affc:	e3500000 	cmp	r0, #0
    b000:	0a000d81 	beq	e60c <Process_Out.constprop.1+0x4904>
    b004:	e1a01004 	mov	r1, r4
    b008:	e3a07020 	mov	r7, #32
    b00c:	e59d6010 	ldr	r6, [sp, #16]
    b010:	e152000e 	cmp	r2, lr
    b014:	e2411001 	sub	r1, r1, #1
    b018:	b7c07002 	strblt	r7, [r0, r2]
    b01c:	b1a06005 	movlt	r6, r5
    b020:	b2822001 	addlt	r2, r2, #1
    b024:	e3710001 	cmn	r1, #1
    b028:	1afffff8 	bne	b010 <Process_Out.constprop.1+0x1308>
    b02c:	e28cc001 	add	ip, ip, #1
    b030:	e3560000 	cmp	r6, #0
    b034:	e084c00c 	add	ip, r4, ip
    b038:	1a000b13 	bne	dc8c <Process_Out.constprop.1+0x3f84>
    b03c:	e59d2004 	ldr	r2, [sp, #4]
    b040:	e082200c 	add	r2, r2, ip
    b044:	e58d2004 	str	r2, [sp, #4]
    b048:	e59d2048 	ldr	r2, [sp, #72]	; 0x48
    b04c:	e58d2014 	str	r2, [sp, #20]
    b050:	eafffb57 	b	9db4 <Process_Out.constprop.1+0xac>
    b054:	e2002001 	and	r2, r0, #1
    b058:	e2091001 	and	r1, r9, #1
    b05c:	e59d000c 	ldr	r0, [sp, #12]
    b060:	e58d1020 	str	r1, [sp, #32]
    b064:	e58d2030 	str	r2, [sp, #48]	; 0x30
    b068:	e1811082 	orr	r1, r1, r2, lsl #1
    b06c:	e59d2008 	ldr	r2, [sp, #8]
    b070:	e2000001 	and	r0, r0, #1
    b074:	e2022001 	and	r2, r2, #1
    b078:	e1811100 	orr	r1, r1, r0, lsl #2
    b07c:	e1811182 	orr	r1, r1, r2, lsl #3
    b080:	e58d2024 	str	r2, [sp, #36]	; 0x24
    b084:	e2062001 	and	r2, r6, #1
    b088:	e1811202 	orr	r1, r1, r2, lsl #4
    b08c:	e58d000c 	str	r0, [sp, #12]
    b090:	e20e0001 	and	r0, lr, #1
    b094:	e1811280 	orr	r1, r1, r0, lsl #5
    b098:	e58d202c 	str	r2, [sp, #44]	; 0x2c
    b09c:	e2072001 	and	r2, r7, #1
    b0a0:	e1811302 	orr	r1, r1, r2, lsl #6
    b0a4:	e58d0034 	str	r0, [sp, #52]	; 0x34
    b0a8:	e58d2028 	str	r2, [sp, #40]	; 0x28
    b0ac:	e20c0001 	and	r0, ip, #1
    b0b0:	e59d2014 	ldr	r2, [sp, #20]
    b0b4:	e1811380 	orr	r1, r1, r0, lsl #7
    b0b8:	e58d0008 	str	r0, [sp, #8]
    b0bc:	e204001f 	and	r0, r4, #31
    b0c0:	e1811400 	orr	r1, r1, r0, lsl #8
    b0c4:	e2827007 	add	r7, r2, #7
    b0c8:	e6ef007b 	uxtb	r0, fp
    b0cc:	e59d201c 	ldr	r2, [sp, #28]
    b0d0:	e1811800 	orr	r1, r1, r0, lsl #16
    b0d4:	e1811c02 	orr	r1, r1, r2, lsl #24
    b0d8:	e3c70007 	bic	r0, r7, #7
    b0dc:	e3110010 	tst	r1, #16
    b0e0:	e2802008 	add	r2, r0, #8
    b0e4:	e58d2014 	str	r2, [sp, #20]
    b0e8:	13a02000 	movne	r2, #0
    b0ec:	e590a000 	ldr	sl, [r0]
    b0f0:	e1a00421 	lsr	r0, r1, #8
    b0f4:	e200001f 	and	r0, r0, #31
    b0f8:	e240c008 	sub	ip, r0, #8
    b0fc:	e20cc0f7 	and	ip, ip, #247	; 0xf7
    b100:	059d2020 	ldreq	r2, [sp, #32]
    b104:	158d2048 	strne	r2, [sp, #72]	; 0x48
    b108:	158d2020 	strne	r2, [sp, #32]
    b10c:	058d9048 	streq	r9, [sp, #72]	; 0x48
    b110:	e3500002 	cmp	r0, #2
    b114:	135c0000 	cmpne	ip, #0
    b118:	e3c11001 	bic	r1, r1, #1
    b11c:	e1822001 	orr	r2, r2, r1
    b120:	e6ef1072 	uxtb	r1, r2
    b124:	13a0400a 	movne	r4, #10
    b128:	e3110001 	tst	r1, #1
    b12c:	e58d204c 	str	r2, [sp, #76]	; 0x4c
    b130:	03a02020 	moveq	r2, #32
    b134:	13a02030 	movne	r2, #48	; 0x30
    b138:	e3110002 	tst	r1, #2
    b13c:	e58d2044 	str	r2, [sp, #68]	; 0x44
    b140:	e2012020 	and	r2, r1, #32
    b144:	e58db038 	str	fp, [sp, #56]	; 0x38
    b148:	e58d2040 	str	r2, [sp, #64]	; 0x40
    b14c:	0a000573 	beq	c720 <Process_Out.constprop.1+0x2a18>
    b150:	e35a0000 	cmp	sl, #0
    b154:	ba0005f9 	blt	c940 <Process_Out.constprop.1+0x2c38>
    b158:	e3110004 	tst	r1, #4
    b15c:	0a000a86 	beq	db7c <Process_Out.constprop.1+0x3e74>
    b160:	e24b2001 	sub	r2, fp, #1
    b164:	e58d2038 	str	r2, [sp, #56]	; 0x38
    b168:	e3a0202b 	mov	r2, #43	; 0x2b
    b16c:	e58d203c 	str	r2, [sp, #60]	; 0x3c
    b170:	e35a0000 	cmp	sl, #0
    b174:	1a0005f6 	bne	c954 <Process_Out.constprop.1+0x2c4c>
    b178:	e3a02030 	mov	r2, #48	; 0x30
    b17c:	e3a09000 	mov	r9, #0
    b180:	e1a00005 	mov	r0, r5
    b184:	e5cd2058 	strb	r2, [sp, #88]	; 0x58
    b188:	e59d201c 	ldr	r2, [sp, #28]
    b18c:	e1520000 	cmp	r2, r0
    b190:	b6af2070 	sxtblt	r2, r0
    b194:	b58d201c 	strlt	r2, [sp, #28]
    b198:	e59d2048 	ldr	r2, [sp, #72]	; 0x48
    b19c:	e59d101c 	ldr	r1, [sp, #28]
    b1a0:	e0966002 	adds	r6, r6, r2
    b1a4:	e59d2038 	ldr	r2, [sp, #56]	; 0x38
    b1a8:	13a06000 	movne	r6, #0
    b1ac:	e042b001 	sub	fp, r2, r1
    b1b0:	1a000018 	bne	b218 <Process_Out.constprop.1+0x1510>
    b1b4:	e35b0000 	cmp	fp, #0
    b1b8:	e24b1001 	sub	r1, fp, #1
    b1bc:	da000d0c 	ble	e5f4 <Process_Out.constprop.1+0x48ec>
    b1c0:	e51f25c8 	ldr	r2, [pc, #-1480]	; ac00 <Process_Out.constprop.1+0xef8>
    b1c4:	e592e000 	ldr	lr, [r2]
    b1c8:	e592c008 	ldr	ip, [r2, #8]
    b1cc:	e37e0001 	cmn	lr, #1
    b1d0:	e5922004 	ldr	r2, [r2, #4]
    b1d4:	0a000baa 	beq	e084 <Process_Out.constprop.1+0x437c>
    b1d8:	e35c0000 	cmp	ip, #0
    b1dc:	0a000d02 	beq	e5ec <Process_Out.constprop.1+0x48e4>
    b1e0:	e3a0a020 	mov	sl, #32
    b1e4:	e59d6010 	ldr	r6, [sp, #16]
    b1e8:	e152000e 	cmp	r2, lr
    b1ec:	e2411001 	sub	r1, r1, #1
    b1f0:	b7cca002 	strblt	sl, [ip, r2]
    b1f4:	b1a06005 	movlt	r6, r5
    b1f8:	b2822001 	addlt	r2, r2, #1
    b1fc:	e3710001 	cmn	r1, #1
    b200:	1afffff8 	bne	b1e8 <Process_Out.constprop.1+0x14e0>
    b204:	e3560000 	cmp	r6, #0
    b208:	e3e0c000 	mvn	ip, #0
    b20c:	1a000ba8 	bne	e0b4 <Process_Out.constprop.1+0x43ac>
    b210:	e1a0600b 	mov	r6, fp
    b214:	e1a0b00c 	mov	fp, ip
    b218:	e59d204c 	ldr	r2, [sp, #76]	; 0x4c
    b21c:	e3c27001 	bic	r7, r2, #1
    b220:	e59d2020 	ldr	r2, [sp, #32]
    b224:	e1822007 	orr	r2, r2, r7
    b228:	e3c27002 	bic	r7, r2, #2
    b22c:	e59d2030 	ldr	r2, [sp, #48]	; 0x30
    b230:	e1872082 	orr	r2, r7, r2, lsl #1
    b234:	e3c27004 	bic	r7, r2, #4
    b238:	e59d200c 	ldr	r2, [sp, #12]
    b23c:	e1872102 	orr	r2, r7, r2, lsl #2
    b240:	e3c27008 	bic	r7, r2, #8
    b244:	e59d2024 	ldr	r2, [sp, #36]	; 0x24
    b248:	e1872182 	orr	r2, r7, r2, lsl #3
    b24c:	e3c27010 	bic	r7, r2, #16
    b250:	e59d202c 	ldr	r2, [sp, #44]	; 0x2c
    b254:	e1872202 	orr	r2, r7, r2, lsl #4
    b258:	e3c27020 	bic	r7, r2, #32
    b25c:	e59d2034 	ldr	r2, [sp, #52]	; 0x34
    b260:	e1872282 	orr	r2, r7, r2, lsl #5
    b264:	e3c27040 	bic	r7, r2, #64	; 0x40
    b268:	e59d2028 	ldr	r2, [sp, #40]	; 0x28
    b26c:	e1872302 	orr	r2, r7, r2, lsl #6
    b270:	e3c27080 	bic	r7, r2, #128	; 0x80
    b274:	e59d2008 	ldr	r2, [sp, #8]
    b278:	e1872382 	orr	r2, r7, r2, lsl #7
    b27c:	e6ef2072 	uxtb	r2, r2
    b280:	e3120011 	tst	r2, #17
    b284:	e58d2008 	str	r2, [sp, #8]
    b288:	1a000019 	bne	b2f4 <Process_Out.constprop.1+0x15ec>
    b28c:	e35b0000 	cmp	fp, #0
    b290:	e24ba001 	sub	sl, fp, #1
    b294:	da000ca8 	ble	e53c <Process_Out.constprop.1+0x4834>
    b298:	e51f26a0 	ldr	r2, [pc, #-1696]	; ac00 <Process_Out.constprop.1+0xef8>
    b29c:	e592e000 	ldr	lr, [r2]
    b2a0:	e592c008 	ldr	ip, [r2, #8]
    b2a4:	e37e0001 	cmn	lr, #1
    b2a8:	e5922004 	ldr	r2, [r2, #4]
    b2ac:	0a000b43 	beq	dfc0 <Process_Out.constprop.1+0x42b8>
    b2b0:	e35c0000 	cmp	ip, #0
    b2b4:	0a000c86 	beq	e4d4 <Process_Out.constprop.1+0x47cc>
    b2b8:	e1a0100a 	mov	r1, sl
    b2bc:	e59d7010 	ldr	r7, [sp, #16]
    b2c0:	e59db044 	ldr	fp, [sp, #68]	; 0x44
    b2c4:	e152000e 	cmp	r2, lr
    b2c8:	e2411001 	sub	r1, r1, #1
    b2cc:	b7ccb002 	strblt	fp, [ip, r2]
    b2d0:	b1a07005 	movlt	r7, r5
    b2d4:	b2822001 	addlt	r2, r2, #1
    b2d8:	e3710001 	cmn	r1, #1
    b2dc:	1afffff8 	bne	b2c4 <Process_Out.constprop.1+0x15bc>
    b2e0:	e2866001 	add	r6, r6, #1
    b2e4:	e3570000 	cmp	r7, #0
    b2e8:	e086600a 	add	r6, r6, sl
    b2ec:	e3e0b000 	mvn	fp, #0
    b2f0:	1a000b40 	bne	dff8 <Process_Out.constprop.1+0x42f0>
    b2f4:	e59d201c 	ldr	r2, [sp, #28]
    b2f8:	e1500002 	cmp	r0, r2
    b2fc:	e2422001 	sub	r2, r2, #1
    b300:	e6af2072 	sxtb	r2, r2
    b304:	aa000016 	bge	b364 <Process_Out.constprop.1+0x165c>
    b308:	e51f1710 	ldr	r1, [pc, #-1808]	; ac00 <Process_Out.constprop.1+0xef8>
    b30c:	e5917000 	ldr	r7, [r1]
    b310:	e591e008 	ldr	lr, [r1, #8]
    b314:	e3770001 	cmn	r7, #1
    b318:	e591c004 	ldr	ip, [r1, #4]
    b31c:	0a0008f0 	beq	d6e4 <Process_Out.constprop.1+0x39dc>
    b320:	e35e0000 	cmp	lr, #0
    b324:	159da010 	ldrne	sl, [sp, #16]
    b328:	158d300c 	strne	r3, [sp, #12]
    b32c:	0a00046a 	beq	c4dc <Process_Out.constprop.1+0x27d4>
    b330:	e15c0007 	cmp	ip, r7
    b334:	b3a03030 	movlt	r3, #48	; 0x30
    b338:	e2421001 	sub	r1, r2, #1
    b33c:	b7ce300c 	strblt	r3, [lr, ip]
    b340:	b1a0a005 	movlt	sl, r5
    b344:	b28cc001 	addlt	ip, ip, #1
    b348:	e1500002 	cmp	r0, r2
    b34c:	e2866001 	add	r6, r6, #1
    b350:	e6af2071 	sxtb	r2, r1
    b354:	bafffff5 	blt	b330 <Process_Out.constprop.1+0x1628>
    b358:	e35a0000 	cmp	sl, #0
    b35c:	e59d300c 	ldr	r3, [sp, #12]
    b360:	1a0008ea 	bne	d710 <Process_Out.constprop.1+0x3a08>
    b364:	e59d203c 	ldr	r2, [sp, #60]	; 0x3c
    b368:	e3520000 	cmp	r2, #0
    b36c:	1a000891 	bne	d5b8 <Process_Out.constprop.1+0x38b0>
    b370:	e59d2008 	ldr	r2, [sp, #8]
    b374:	e3120040 	tst	r2, #64	; 0x40
    b378:	0a00000b 	beq	b3ac <Process_Out.constprop.1+0x16a4>
    b37c:	e3540008 	cmp	r4, #8
    b380:	0a000aa6 	beq	de20 <Process_Out.constprop.1+0x4118>
    b384:	e3540010 	cmp	r4, #16
    b388:	1a000007 	bne	b3ac <Process_Out.constprop.1+0x16a4>
    b38c:	e3a00030 	mov	r0, #48	; 0x30
    b390:	e58d3008 	str	r3, [sp, #8]
    b394:	ebfff600 	bl	8b9c <Buffer_WriteChar>
    b398:	e59d3040 	ldr	r3, [sp, #64]	; 0x40
    b39c:	e2866002 	add	r6, r6, #2
    b3a0:	e3830058 	orr	r0, r3, #88	; 0x58
    b3a4:	ebfff5fc 	bl	8b9c <Buffer_WriteChar>
    b3a8:	e59d3008 	ldr	r3, [sp, #8]
    b3ac:	e51f27b4 	ldr	r2, [pc, #-1972]	; ac00 <Process_Out.constprop.1+0xef8>
    b3b0:	e592c000 	ldr	ip, [r2]
    b3b4:	e592e008 	ldr	lr, [r2, #8]
    b3b8:	e37c0001 	cmn	ip, #1
    b3bc:	e5921004 	ldr	r1, [r2, #4]
    b3c0:	0a000890 	beq	d608 <Process_Out.constprop.1+0x3900>
    b3c4:	e35e0000 	cmp	lr, #0
    b3c8:	0a000aea 	beq	df78 <Process_Out.constprop.1+0x4270>
    b3cc:	e1a02009 	mov	r2, r9
    b3d0:	e59d4010 	ldr	r4, [sp, #16]
    b3d4:	e151000c 	cmp	r1, ip
    b3d8:	b28d0058 	addlt	r0, sp, #88	; 0x58
    b3dc:	b7d00002 	ldrblt	r0, [r0, r2]
    b3e0:	e2422001 	sub	r2, r2, #1
    b3e4:	b7ce0001 	strblt	r0, [lr, r1]
    b3e8:	e2820001 	add	r0, r2, #1
    b3ec:	b1a04005 	movlt	r4, r5
    b3f0:	b2811001 	addlt	r1, r1, #1
    b3f4:	e3500000 	cmp	r0, #0
    b3f8:	cafffff5 	bgt	b3d4 <Process_Out.constprop.1+0x16cc>
    b3fc:	e2866001 	add	r6, r6, #1
    b400:	e3540000 	cmp	r4, #0
    b404:	e086c009 	add	ip, r6, r9
    b408:	1a00088e 	bne	d648 <Process_Out.constprop.1+0x3940>
    b40c:	e35b0000 	cmp	fp, #0
    b410:	e24b4001 	sub	r4, fp, #1
    b414:	da000016 	ble	b474 <Process_Out.constprop.1+0x176c>
    b418:	e51f2820 	ldr	r2, [pc, #-2080]	; ac00 <Process_Out.constprop.1+0xef8>
    b41c:	e51f1824 	ldr	r1, [pc, #-2084]	; ac00 <Process_Out.constprop.1+0xef8>
    b420:	e592e000 	ldr	lr, [r2]
    b424:	e5910008 	ldr	r0, [r1, #8]
    b428:	e37e0001 	cmn	lr, #1
    b42c:	e5922004 	ldr	r2, [r2, #4]
    b430:	0a00089b 	beq	d6a4 <Process_Out.constprop.1+0x399c>
    b434:	e3500000 	cmp	r0, #0
    b438:	0a000b31 	beq	e104 <Process_Out.constprop.1+0x43fc>
    b43c:	e1a01004 	mov	r1, r4
    b440:	e3a06020 	mov	r6, #32
    b444:	e59d7010 	ldr	r7, [sp, #16]
    b448:	e152000e 	cmp	r2, lr
    b44c:	e2411001 	sub	r1, r1, #1
    b450:	b7c06002 	strblt	r6, [r0, r2]
    b454:	b1a07005 	movlt	r7, r5
    b458:	b2822001 	addlt	r2, r2, #1
    b45c:	e3710001 	cmn	r1, #1
    b460:	1afffff8 	bne	b448 <Process_Out.constprop.1+0x1740>
    b464:	e28cc001 	add	ip, ip, #1
    b468:	e3570000 	cmp	r7, #0
    b46c:	e084c00c 	add	ip, r4, ip
    b470:	1a000898 	bne	d6d8 <Process_Out.constprop.1+0x39d0>
    b474:	e59d2004 	ldr	r2, [sp, #4]
    b478:	e082200c 	add	r2, r2, ip
    b47c:	e58d2004 	str	r2, [sp, #4]
    b480:	eafffa4b 	b	9db4 <Process_Out.constprop.1+0xac>
    b484:	e2092001 	and	r2, r9, #1
    b488:	e1821080 	orr	r1, r2, r0, lsl #1
    b48c:	e58d2020 	str	r2, [sp, #32]
    b490:	e59d200c 	ldr	r2, [sp, #12]
    b494:	e1811102 	orr	r1, r1, r2, lsl #2
    b498:	e59d2008 	ldr	r2, [sp, #8]
    b49c:	e1811182 	orr	r1, r1, r2, lsl #3
    b4a0:	e1811206 	orr	r1, r1, r6, lsl #4
    b4a4:	e181128e 	orr	r1, r1, lr, lsl #5
    b4a8:	e1811307 	orr	r1, r1, r7, lsl #6
    b4ac:	e181138c 	orr	r1, r1, ip, lsl #7
    b4b0:	e6ef0071 	uxtb	r0, r1
    b4b4:	e3100080 	tst	r0, #128	; 0x80
    b4b8:	1a0005eb 	bne	cc6c <Process_Out.constprop.1+0x2f64>
    b4bc:	e204c01f 	and	ip, r4, #31
    b4c0:	e3c11c1f 	bic	r1, r1, #7936	; 0x1f00
    b4c4:	e181140c 	orr	r1, r1, ip, lsl #8
    b4c8:	e3c118ff 	bic	r1, r1, #16711680	; 0xff0000
    b4cc:	e6efc07b 	uxtb	ip, fp
    b4d0:	e181180c 	orr	r1, r1, ip, lsl #16
    b4d4:	e59d201c 	ldr	r2, [sp, #28]
    b4d8:	e3c114ff 	bic	r1, r1, #-16777216	; 0xff000000
    b4dc:	e1811c02 	orr	r1, r1, r2, lsl #24
    b4e0:	e59d2014 	ldr	r2, [sp, #20]
    b4e4:	e3100010 	tst	r0, #16
    b4e8:	e1d2a0f0 	ldrsh	sl, [r2]
    b4ec:	e2820004 	add	r0, r2, #4
    b4f0:	13a02000 	movne	r2, #0
    b4f4:	e58d002c 	str	r0, [sp, #44]	; 0x2c
    b4f8:	e1a00421 	lsr	r0, r1, #8
    b4fc:	e200001f 	and	r0, r0, #31
    b500:	e240c008 	sub	ip, r0, #8
    b504:	e20cc0f7 	and	ip, ip, #247	; 0xf7
    b508:	059d2020 	ldreq	r2, [sp, #32]
    b50c:	158d2020 	strne	r2, [sp, #32]
    b510:	158d2028 	strne	r2, [sp, #40]	; 0x28
    b514:	058d9028 	streq	r9, [sp, #40]	; 0x28
    b518:	e3500002 	cmp	r0, #2
    b51c:	135c0000 	cmpne	ip, #0
    b520:	e20110fe 	and	r1, r1, #254	; 0xfe
    b524:	e1812002 	orr	r2, r1, r2
    b528:	13a0400a 	movne	r4, #10
    b52c:	e3120001 	tst	r2, #1
    b530:	03a01020 	moveq	r1, #32
    b534:	13a01030 	movne	r1, #48	; 0x30
    b538:	e58d2014 	str	r2, [sp, #20]
    b53c:	e3120002 	tst	r2, #2
    b540:	e2022020 	and	r2, r2, #32
    b544:	e58d1024 	str	r1, [sp, #36]	; 0x24
    b548:	e58db008 	str	fp, [sp, #8]
    b54c:	e58d2020 	str	r2, [sp, #32]
    b550:	0a00051b 	beq	c9c4 <Process_Out.constprop.1+0x2cbc>
    b554:	e35a0000 	cmp	sl, #0
    b558:	ba00051f 	blt	c9dc <Process_Out.constprop.1+0x2cd4>
    b55c:	e59d2014 	ldr	r2, [sp, #20]
    b560:	e3120004 	tst	r2, #4
    b564:	0a000a0e 	beq	dda4 <Process_Out.constprop.1+0x409c>
    b568:	e24b2001 	sub	r2, fp, #1
    b56c:	e58d2008 	str	r2, [sp, #8]
    b570:	e3a0202b 	mov	r2, #43	; 0x2b
    b574:	e58d200c 	str	r2, [sp, #12]
    b578:	e35a0000 	cmp	sl, #0
    b57c:	1a00051b 	bne	c9f0 <Process_Out.constprop.1+0x2ce8>
    b580:	e3a02030 	mov	r2, #48	; 0x30
    b584:	e3a07000 	mov	r7, #0
    b588:	e1a00005 	mov	r0, r5
    b58c:	e5cd2058 	strb	r2, [sp, #88]	; 0x58
    b590:	e59d201c 	ldr	r2, [sp, #28]
    b594:	e1520000 	cmp	r2, r0
    b598:	b6af2070 	sxtblt	r2, r0
    b59c:	b58d201c 	strlt	r2, [sp, #28]
    b5a0:	e59d2028 	ldr	r2, [sp, #40]	; 0x28
    b5a4:	e59d101c 	ldr	r1, [sp, #28]
    b5a8:	e0966002 	adds	r6, r6, r2
    b5ac:	e59d2008 	ldr	r2, [sp, #8]
    b5b0:	13a06000 	movne	r6, #0
    b5b4:	e042b001 	sub	fp, r2, r1
    b5b8:	1a000018 	bne	b620 <Process_Out.constprop.1+0x1918>
    b5bc:	e35b0000 	cmp	fp, #0
    b5c0:	e24b1001 	sub	r1, fp, #1
    b5c4:	da000bfb 	ble	e5b8 <Process_Out.constprop.1+0x48b0>
    b5c8:	e51f29d0 	ldr	r2, [pc, #-2512]	; ac00 <Process_Out.constprop.1+0xef8>
    b5cc:	e592e000 	ldr	lr, [r2]
    b5d0:	e592c008 	ldr	ip, [r2, #8]
    b5d4:	e37e0001 	cmn	lr, #1
    b5d8:	e5922004 	ldr	r2, [r2, #4]
    b5dc:	0a000b40 	beq	e2e4 <Process_Out.constprop.1+0x45dc>
    b5e0:	e35c0000 	cmp	ip, #0
    b5e4:	0a000bc2 	beq	e4f4 <Process_Out.constprop.1+0x47ec>
    b5e8:	e3a09020 	mov	r9, #32
    b5ec:	e59d6010 	ldr	r6, [sp, #16]
    b5f0:	e152000e 	cmp	r2, lr
    b5f4:	e2411001 	sub	r1, r1, #1
    b5f8:	b7cc9002 	strblt	r9, [ip, r2]
    b5fc:	b1a06005 	movlt	r6, r5
    b600:	b2822001 	addlt	r2, r2, #1
    b604:	e3710001 	cmn	r1, #1
    b608:	1afffff8 	bne	b5f0 <Process_Out.constprop.1+0x18e8>
    b60c:	e3560000 	cmp	r6, #0
    b610:	e3e0c000 	mvn	ip, #0
    b614:	1a000b3e 	bne	e314 <Process_Out.constprop.1+0x460c>
    b618:	e1a0600b 	mov	r6, fp
    b61c:	e1a0b00c 	mov	fp, ip
    b620:	e59d2014 	ldr	r2, [sp, #20]
    b624:	e3120011 	tst	r2, #17
    b628:	1a00001a 	bne	b698 <Process_Out.constprop.1+0x1990>
    b62c:	e35b0000 	cmp	fp, #0
    b630:	e24ba001 	sub	sl, fp, #1
    b634:	da000b5e 	ble	e3b4 <Process_Out.constprop.1+0x46ac>
    b638:	e51f2a40 	ldr	r2, [pc, #-2624]	; ac00 <Process_Out.constprop.1+0xef8>
    b63c:	e51f1a44 	ldr	r1, [pc, #-2628]	; ac00 <Process_Out.constprop.1+0xef8>
    b640:	e592e000 	ldr	lr, [r2]
    b644:	e591c008 	ldr	ip, [r1, #8]
    b648:	e37e0001 	cmn	lr, #1
    b64c:	e5922004 	ldr	r2, [r2, #4]
    b650:	0a000b12 	beq	e2a0 <Process_Out.constprop.1+0x4598>
    b654:	e35c0000 	cmp	ip, #0
    b658:	0a000b51 	beq	e3a4 <Process_Out.constprop.1+0x469c>
    b65c:	e1a0100a 	mov	r1, sl
    b660:	e59d9010 	ldr	r9, [sp, #16]
    b664:	e59db024 	ldr	fp, [sp, #36]	; 0x24
    b668:	e152000e 	cmp	r2, lr
    b66c:	e2411001 	sub	r1, r1, #1
    b670:	b7ccb002 	strblt	fp, [ip, r2]
    b674:	b1a09005 	movlt	r9, r5
    b678:	b2822001 	addlt	r2, r2, #1
    b67c:	e3710001 	cmn	r1, #1
    b680:	1afffff8 	bne	b668 <Process_Out.constprop.1+0x1960>
    b684:	e2866001 	add	r6, r6, #1
    b688:	e3590000 	cmp	r9, #0
    b68c:	e086600a 	add	r6, r6, sl
    b690:	e3e0b000 	mvn	fp, #0
    b694:	1a000b0f 	bne	e2d8 <Process_Out.constprop.1+0x45d0>
    b698:	e59d201c 	ldr	r2, [sp, #28]
    b69c:	e1500002 	cmp	r0, r2
    b6a0:	e2422001 	sub	r2, r2, #1
    b6a4:	e6af2072 	sxtb	r2, r2
    b6a8:	aa000016 	bge	b708 <Process_Out.constprop.1+0x1a00>
    b6ac:	e51f1ab4 	ldr	r1, [pc, #-2740]	; ac00 <Process_Out.constprop.1+0xef8>
    b6b0:	e5919000 	ldr	r9, [r1]
    b6b4:	e591e008 	ldr	lr, [r1, #8]
    b6b8:	e3790001 	cmn	r9, #1
    b6bc:	e591c004 	ldr	ip, [r1, #4]
    b6c0:	0a00089b 	beq	d934 <Process_Out.constprop.1+0x3c2c>
    b6c4:	e35e0000 	cmp	lr, #0
    b6c8:	159da010 	ldrne	sl, [sp, #16]
    b6cc:	158d3008 	strne	r3, [sp, #8]
    b6d0:	0a000393 	beq	c524 <Process_Out.constprop.1+0x281c>
    b6d4:	e15c0009 	cmp	ip, r9
    b6d8:	b3a03030 	movlt	r3, #48	; 0x30
    b6dc:	e2421001 	sub	r1, r2, #1
    b6e0:	b7ce300c 	strblt	r3, [lr, ip]
    b6e4:	b1a0a005 	movlt	sl, r5
    b6e8:	b28cc001 	addlt	ip, ip, #1
    b6ec:	e1500002 	cmp	r0, r2
    b6f0:	e2866001 	add	r6, r6, #1
    b6f4:	e6af2071 	sxtb	r2, r1
    b6f8:	bafffff5 	blt	b6d4 <Process_Out.constprop.1+0x19cc>
    b6fc:	e35a0000 	cmp	sl, #0
    b700:	e59d3008 	ldr	r3, [sp, #8]
    b704:	1a000895 	bne	d960 <Process_Out.constprop.1+0x3c58>
    b708:	e59d200c 	ldr	r2, [sp, #12]
    b70c:	e3520000 	cmp	r2, #0
    b710:	1a0008c3 	bne	da24 <Process_Out.constprop.1+0x3d1c>
    b714:	e59d2014 	ldr	r2, [sp, #20]
    b718:	e3120040 	tst	r2, #64	; 0x40
    b71c:	0a00000b 	beq	b750 <Process_Out.constprop.1+0x1a48>
    b720:	e3540008 	cmp	r4, #8
    b724:	0a000ad7 	beq	e288 <Process_Out.constprop.1+0x4580>
    b728:	e3540010 	cmp	r4, #16
    b72c:	1a000007 	bne	b750 <Process_Out.constprop.1+0x1a48>
    b730:	e3a00030 	mov	r0, #48	; 0x30
    b734:	e58d3008 	str	r3, [sp, #8]
    b738:	ebfff517 	bl	8b9c <Buffer_WriteChar>
    b73c:	e59d3020 	ldr	r3, [sp, #32]
    b740:	e2866002 	add	r6, r6, #2
    b744:	e3830058 	orr	r0, r3, #88	; 0x58
    b748:	ebfff513 	bl	8b9c <Buffer_WriteChar>
    b74c:	e59d3008 	ldr	r3, [sp, #8]
    b750:	e51f2b58 	ldr	r2, [pc, #-2904]	; ac00 <Process_Out.constprop.1+0xef8>
    b754:	e592e000 	ldr	lr, [r2]
    b758:	e5921004 	ldr	r1, [r2, #4]
    b75c:	e37e0001 	cmn	lr, #1
    b760:	e592c008 	ldr	ip, [r2, #8]
    b764:	0a00089b 	beq	d9d8 <Process_Out.constprop.1+0x3cd0>
    b768:	e35c0000 	cmp	ip, #0
    b76c:	0a000b2e 	beq	e42c <Process_Out.constprop.1+0x4724>
    b770:	e1a02007 	mov	r2, r7
    b774:	e59d4010 	ldr	r4, [sp, #16]
    b778:	e151000e 	cmp	r1, lr
    b77c:	b28d0058 	addlt	r0, sp, #88	; 0x58
    b780:	b7d00002 	ldrblt	r0, [r0, r2]
    b784:	e2422001 	sub	r2, r2, #1
    b788:	b7cc0001 	strblt	r0, [ip, r1]
    b78c:	e2820001 	add	r0, r2, #1
    b790:	b1a04005 	movlt	r4, r5
    b794:	b2811001 	addlt	r1, r1, #1
    b798:	e3500000 	cmp	r0, #0
    b79c:	cafffff5 	bgt	b778 <Process_Out.constprop.1+0x1a70>
    b7a0:	e2866001 	add	r6, r6, #1
    b7a4:	e3540000 	cmp	r4, #0
    b7a8:	e086c007 	add	ip, r6, r7
    b7ac:	1a000899 	bne	da18 <Process_Out.constprop.1+0x3d10>
    b7b0:	e35b0000 	cmp	fp, #0
    b7b4:	e24b4001 	sub	r4, fp, #1
    b7b8:	da000015 	ble	b814 <Process_Out.constprop.1+0x1b0c>
    b7bc:	e51f2bc4 	ldr	r2, [pc, #-3012]	; ac00 <Process_Out.constprop.1+0xef8>
    b7c0:	e592e000 	ldr	lr, [r2]
    b7c4:	e5920008 	ldr	r0, [r2, #8]
    b7c8:	e37e0001 	cmn	lr, #1
    b7cc:	e5922004 	ldr	r2, [r2, #4]
    b7d0:	0a0008f6 	beq	dbb0 <Process_Out.constprop.1+0x3ea8>
    b7d4:	e3500000 	cmp	r0, #0
    b7d8:	0a000af7 	beq	e3bc <Process_Out.constprop.1+0x46b4>
    b7dc:	e1a01004 	mov	r1, r4
    b7e0:	e3a07020 	mov	r7, #32
    b7e4:	e59d6010 	ldr	r6, [sp, #16]
    b7e8:	e152000e 	cmp	r2, lr
    b7ec:	e2411001 	sub	r1, r1, #1
    b7f0:	b7c07002 	strblt	r7, [r0, r2]
    b7f4:	b1a06005 	movlt	r6, r5
    b7f8:	b2822001 	addlt	r2, r2, #1
    b7fc:	e3710001 	cmn	r1, #1
    b800:	1afffff8 	bne	b7e8 <Process_Out.constprop.1+0x1ae0>
    b804:	e28cc001 	add	ip, ip, #1
    b808:	e3560000 	cmp	r6, #0
    b80c:	e084c00c 	add	ip, r4, ip
    b810:	1a0008f3 	bne	dbe4 <Process_Out.constprop.1+0x3edc>
    b814:	e59d2004 	ldr	r2, [sp, #4]
    b818:	e082200c 	add	r2, r2, ip
    b81c:	e58d2004 	str	r2, [sp, #4]
    b820:	e59d202c 	ldr	r2, [sp, #44]	; 0x2c
    b824:	e58d2014 	str	r2, [sp, #20]
    b828:	eafff961 	b	9db4 <Process_Out.constprop.1+0xac>
    b82c:	e2002001 	and	r2, r0, #1
    b830:	e2091001 	and	r1, r9, #1
    b834:	e59d000c 	ldr	r0, [sp, #12]
    b838:	e58d1020 	str	r1, [sp, #32]
    b83c:	e58d2030 	str	r2, [sp, #48]	; 0x30
    b840:	e1811082 	orr	r1, r1, r2, lsl #1
    b844:	e59d2008 	ldr	r2, [sp, #8]
    b848:	e2000001 	and	r0, r0, #1
    b84c:	e2022001 	and	r2, r2, #1
    b850:	e1811100 	orr	r1, r1, r0, lsl #2
    b854:	e1811182 	orr	r1, r1, r2, lsl #3
    b858:	e58d2024 	str	r2, [sp, #36]	; 0x24
    b85c:	e2062001 	and	r2, r6, #1
    b860:	e1811202 	orr	r1, r1, r2, lsl #4
    b864:	e58d000c 	str	r0, [sp, #12]
    b868:	e20e0001 	and	r0, lr, #1
    b86c:	e1811280 	orr	r1, r1, r0, lsl #5
    b870:	e58d202c 	str	r2, [sp, #44]	; 0x2c
    b874:	e2072001 	and	r2, r7, #1
    b878:	e1811302 	orr	r1, r1, r2, lsl #6
    b87c:	e58d0034 	str	r0, [sp, #52]	; 0x34
    b880:	e20c0001 	and	r0, ip, #1
    b884:	e1811380 	orr	r1, r1, r0, lsl #7
    b888:	e58d0008 	str	r0, [sp, #8]
    b88c:	e204001f 	and	r0, r4, #31
    b890:	e1811400 	orr	r1, r1, r0, lsl #8
    b894:	e58d2028 	str	r2, [sp, #40]	; 0x28
    b898:	e6ef007b 	uxtb	r0, fp
    b89c:	e59d201c 	ldr	r2, [sp, #28]
    b8a0:	e1811800 	orr	r1, r1, r0, lsl #16
    b8a4:	e1811c02 	orr	r1, r1, r2, lsl #24
    b8a8:	e59d2014 	ldr	r2, [sp, #20]
    b8ac:	e3110010 	tst	r1, #16
    b8b0:	e2820004 	add	r0, r2, #4
    b8b4:	e5927000 	ldr	r7, [r2]
    b8b8:	13a02000 	movne	r2, #0
    b8bc:	e58d0044 	str	r0, [sp, #68]	; 0x44
    b8c0:	e1a00421 	lsr	r0, r1, #8
    b8c4:	e200001f 	and	r0, r0, #31
    b8c8:	e240c008 	sub	ip, r0, #8
    b8cc:	e20cc0f7 	and	ip, ip, #247	; 0xf7
    b8d0:	059d2020 	ldreq	r2, [sp, #32]
    b8d4:	158d2048 	strne	r2, [sp, #72]	; 0x48
    b8d8:	158d2020 	strne	r2, [sp, #32]
    b8dc:	058d9048 	streq	r9, [sp, #72]	; 0x48
    b8e0:	e3500002 	cmp	r0, #2
    b8e4:	135c0000 	cmpne	ip, #0
    b8e8:	e3c11001 	bic	r1, r1, #1
    b8ec:	e1822001 	orr	r2, r2, r1
    b8f0:	e6ef1072 	uxtb	r1, r2
    b8f4:	13a0400a 	movne	r4, #10
    b8f8:	e3110001 	tst	r1, #1
    b8fc:	e58d204c 	str	r2, [sp, #76]	; 0x4c
    b900:	03a02020 	moveq	r2, #32
    b904:	13a02030 	movne	r2, #48	; 0x30
    b908:	e3110002 	tst	r1, #2
    b90c:	e58d2040 	str	r2, [sp, #64]	; 0x40
    b910:	e2012020 	and	r2, r1, #32
    b914:	e58db014 	str	fp, [sp, #20]
    b918:	e58d203c 	str	r2, [sp, #60]	; 0x3c
    b91c:	0a000379 	beq	c708 <Process_Out.constprop.1+0x2a00>
    b920:	e3570000 	cmp	r7, #0
    b924:	ba0003a4 	blt	c7bc <Process_Out.constprop.1+0x2ab4>
    b928:	e3110004 	tst	r1, #4
    b92c:	0a0007f2 	beq	d8fc <Process_Out.constprop.1+0x3bf4>
    b930:	e24b2001 	sub	r2, fp, #1
    b934:	e58d2014 	str	r2, [sp, #20]
    b938:	e3a0202b 	mov	r2, #43	; 0x2b
    b93c:	e58d2038 	str	r2, [sp, #56]	; 0x38
    b940:	e3570000 	cmp	r7, #0
    b944:	1a0003a1 	bne	c7d0 <Process_Out.constprop.1+0x2ac8>
    b948:	e3a02030 	mov	r2, #48	; 0x30
    b94c:	e3a0a000 	mov	sl, #0
    b950:	e5cd2058 	strb	r2, [sp, #88]	; 0x58
    b954:	e1a02005 	mov	r2, r5
    b958:	e59d101c 	ldr	r1, [sp, #28]
    b95c:	e1510002 	cmp	r1, r2
    b960:	b6af1072 	sxtblt	r1, r2
    b964:	b58d101c 	strlt	r1, [sp, #28]
    b968:	e59d1048 	ldr	r1, [sp, #72]	; 0x48
    b96c:	e59d001c 	ldr	r0, [sp, #28]
    b970:	e096b001 	adds	fp, r6, r1
    b974:	e59d1014 	ldr	r1, [sp, #20]
    b978:	13a0b000 	movne	fp, #0
    b97c:	e0417000 	sub	r7, r1, r0
    b980:	1a000018 	bne	b9e8 <Process_Out.constprop.1+0x1ce0>
    b984:	e3570000 	cmp	r7, #0
    b988:	e2470001 	sub	r0, r7, #1
    b98c:	da000b12 	ble	e5dc <Process_Out.constprop.1+0x48d4>
    b990:	e51f1d98 	ldr	r1, [pc, #-3480]	; ac00 <Process_Out.constprop.1+0xef8>
    b994:	e591e000 	ldr	lr, [r1]
    b998:	e591c008 	ldr	ip, [r1, #8]
    b99c:	e37e0001 	cmn	lr, #1
    b9a0:	e5911004 	ldr	r1, [r1, #4]
    b9a4:	0a000950 	beq	deec <Process_Out.constprop.1+0x41e4>
    b9a8:	e35c0000 	cmp	ip, #0
    b9ac:	0a000b0c 	beq	e5e4 <Process_Out.constprop.1+0x48dc>
    b9b0:	e3a09020 	mov	r9, #32
    b9b4:	e59d6010 	ldr	r6, [sp, #16]
    b9b8:	e15e0001 	cmp	lr, r1
    b9bc:	e2400001 	sub	r0, r0, #1
    b9c0:	c7cc9001 	strbgt	r9, [ip, r1]
    b9c4:	c1a06005 	movgt	r6, r5
    b9c8:	c2811001 	addgt	r1, r1, #1
    b9cc:	e3700001 	cmn	r0, #1
    b9d0:	1afffff8 	bne	b9b8 <Process_Out.constprop.1+0x1cb0>
    b9d4:	e3560000 	cmp	r6, #0
    b9d8:	e3e0c000 	mvn	ip, #0
    b9dc:	1a00094e 	bne	df1c <Process_Out.constprop.1+0x4214>
    b9e0:	e1a0b007 	mov	fp, r7
    b9e4:	e1a0700c 	mov	r7, ip
    b9e8:	e59d104c 	ldr	r1, [sp, #76]	; 0x4c
    b9ec:	e59d0020 	ldr	r0, [sp, #32]
    b9f0:	e3c11001 	bic	r1, r1, #1
    b9f4:	e1801001 	orr	r1, r0, r1
    b9f8:	e59d0030 	ldr	r0, [sp, #48]	; 0x30
    b9fc:	e3c11002 	bic	r1, r1, #2
    ba00:	e1811080 	orr	r1, r1, r0, lsl #1
    ba04:	e59d000c 	ldr	r0, [sp, #12]
    ba08:	e3c11004 	bic	r1, r1, #4
    ba0c:	e1811100 	orr	r1, r1, r0, lsl #2
    ba10:	e59d0024 	ldr	r0, [sp, #36]	; 0x24
    ba14:	e3c11008 	bic	r1, r1, #8
    ba18:	e1811180 	orr	r1, r1, r0, lsl #3
    ba1c:	e59d002c 	ldr	r0, [sp, #44]	; 0x2c
    ba20:	e3c11010 	bic	r1, r1, #16
    ba24:	e1811200 	orr	r1, r1, r0, lsl #4
    ba28:	e59d0034 	ldr	r0, [sp, #52]	; 0x34
    ba2c:	e3c11020 	bic	r1, r1, #32
    ba30:	e1811280 	orr	r1, r1, r0, lsl #5
    ba34:	e59d0028 	ldr	r0, [sp, #40]	; 0x28
    ba38:	e3c11040 	bic	r1, r1, #64	; 0x40
    ba3c:	e1811300 	orr	r1, r1, r0, lsl #6
    ba40:	e59d0008 	ldr	r0, [sp, #8]
    ba44:	e3c11080 	bic	r1, r1, #128	; 0x80
    ba48:	e1811380 	orr	r1, r1, r0, lsl #7
    ba4c:	e6ef1071 	uxtb	r1, r1
    ba50:	e3110010 	tst	r1, #16
    ba54:	e58d1008 	str	r1, [sp, #8]
    ba58:	1a000019 	bne	bac4 <Process_Out.constprop.1+0x1dbc>
    ba5c:	e3570000 	cmp	r7, #0
    ba60:	e2479001 	sub	r9, r7, #1
    ba64:	da000ad1 	ble	e5b0 <Process_Out.constprop.1+0x48a8>
    ba68:	e51f1e70 	ldr	r1, [pc, #-3696]	; ac00 <Process_Out.constprop.1+0xef8>
    ba6c:	e591e000 	ldr	lr, [r1]
    ba70:	e591c008 	ldr	ip, [r1, #8]
    ba74:	e37e0001 	cmn	lr, #1
    ba78:	e5911004 	ldr	r1, [r1, #4]
    ba7c:	0a000929 	beq	df28 <Process_Out.constprop.1+0x4220>
    ba80:	e35c0000 	cmp	ip, #0
    ba84:	0a000aae 	beq	e544 <Process_Out.constprop.1+0x483c>
    ba88:	e1a00009 	mov	r0, r9
    ba8c:	e59d7010 	ldr	r7, [sp, #16]
    ba90:	e59d6040 	ldr	r6, [sp, #64]	; 0x40
    ba94:	e15e0001 	cmp	lr, r1
    ba98:	e2400001 	sub	r0, r0, #1
    ba9c:	c7cc6001 	strbgt	r6, [ip, r1]
    baa0:	c1a07005 	movgt	r7, r5
    baa4:	c2811001 	addgt	r1, r1, #1
    baa8:	e3700001 	cmn	r0, #1
    baac:	1afffff8 	bne	ba94 <Process_Out.constprop.1+0x1d8c>
    bab0:	e28b6001 	add	r6, fp, #1
    bab4:	e3570000 	cmp	r7, #0
    bab8:	e086b009 	add	fp, r6, r9
    babc:	e3e07000 	mvn	r7, #0
    bac0:	1a000926 	bne	df60 <Process_Out.constprop.1+0x4258>
    bac4:	e59d101c 	ldr	r1, [sp, #28]
    bac8:	e1520001 	cmp	r2, r1
    bacc:	e2411001 	sub	r1, r1, #1
    bad0:	e6af1071 	sxtb	r1, r1
    bad4:	aa000016 	bge	bb34 <Process_Out.constprop.1+0x1e2c>
    bad8:	e51f0ee0 	ldr	r0, [pc, #-3808]	; ac00 <Process_Out.constprop.1+0xef8>
    badc:	e5906000 	ldr	r6, [r0]
    bae0:	e590e008 	ldr	lr, [r0, #8]
    bae4:	e3760001 	cmn	r6, #1
    bae8:	e590c004 	ldr	ip, [r0, #4]
    baec:	0a0006d8 	beq	d654 <Process_Out.constprop.1+0x394c>
    baf0:	e35e0000 	cmp	lr, #0
    baf4:	0a000272 	beq	c4c4 <Process_Out.constprop.1+0x27bc>
    baf8:	e3a09030 	mov	r9, #48	; 0x30
    bafc:	e59d0010 	ldr	r0, [sp, #16]
    bb00:	e58d300c 	str	r3, [sp, #12]
    bb04:	e156000c 	cmp	r6, ip
    bb08:	c7ce900c 	strbgt	r9, [lr, ip]
    bb0c:	e2413001 	sub	r3, r1, #1
    bb10:	c1a00005 	movgt	r0, r5
    bb14:	c28cc001 	addgt	ip, ip, #1
    bb18:	e1520001 	cmp	r2, r1
    bb1c:	e28bb001 	add	fp, fp, #1
    bb20:	e6af1073 	sxtb	r1, r3
    bb24:	bafffff6 	blt	bb04 <Process_Out.constprop.1+0x1dfc>
    bb28:	e3500000 	cmp	r0, #0
    bb2c:	e59d300c 	ldr	r3, [sp, #12]
    bb30:	1a0006d2 	bne	d680 <Process_Out.constprop.1+0x3978>
    bb34:	e59d2038 	ldr	r2, [sp, #56]	; 0x38
    bb38:	e3520000 	cmp	r2, #0
    bb3c:	1a000676 	bne	d51c <Process_Out.constprop.1+0x3814>
    bb40:	e59d2008 	ldr	r2, [sp, #8]
    bb44:	e3120040 	tst	r2, #64	; 0x40
    bb48:	0a00000b 	beq	bb7c <Process_Out.constprop.1+0x1e74>
    bb4c:	e3540008 	cmp	r4, #8
    bb50:	0a00089d 	beq	ddcc <Process_Out.constprop.1+0x40c4>
    bb54:	e3540010 	cmp	r4, #16
    bb58:	1a000007 	bne	bb7c <Process_Out.constprop.1+0x1e74>
    bb5c:	e3a00030 	mov	r0, #48	; 0x30
    bb60:	e58d3008 	str	r3, [sp, #8]
    bb64:	ebfff40c 	bl	8b9c <Buffer_WriteChar>
    bb68:	e59d303c 	ldr	r3, [sp, #60]	; 0x3c
    bb6c:	e28bb002 	add	fp, fp, #2
    bb70:	e3830058 	orr	r0, r3, #88	; 0x58
    bb74:	ebfff408 	bl	8b9c <Buffer_WriteChar>
    bb78:	e59d3008 	ldr	r3, [sp, #8]
    bb7c:	e51f2f84 	ldr	r2, [pc, #-3972]	; ac00 <Process_Out.constprop.1+0xef8>
    bb80:	e592c000 	ldr	ip, [r2]
    bb84:	e592e008 	ldr	lr, [r2, #8]
    bb88:	e37c0001 	cmn	ip, #1
    bb8c:	e5921004 	ldr	r1, [r2, #4]
    bb90:	0a000675 	beq	d56c <Process_Out.constprop.1+0x3864>
    bb94:	e35e0000 	cmp	lr, #0
    bb98:	0a0008f3 	beq	df6c <Process_Out.constprop.1+0x4264>
    bb9c:	e1a0200a 	mov	r2, sl
    bba0:	e59d4010 	ldr	r4, [sp, #16]
    bba4:	e15c0001 	cmp	ip, r1
    bba8:	c28d0058 	addgt	r0, sp, #88	; 0x58
    bbac:	c7d00002 	ldrbgt	r0, [r0, r2]
    bbb0:	e2422001 	sub	r2, r2, #1
    bbb4:	c7ce0001 	strbgt	r0, [lr, r1]
    bbb8:	e2820001 	add	r0, r2, #1
    bbbc:	c1a04005 	movgt	r4, r5
    bbc0:	c2811001 	addgt	r1, r1, #1
    bbc4:	e3500000 	cmp	r0, #0
    bbc8:	cafffff5 	bgt	bba4 <Process_Out.constprop.1+0x1e9c>
    bbcc:	e28bc001 	add	ip, fp, #1
    bbd0:	e3540000 	cmp	r4, #0
    bbd4:	e08cc00a 	add	ip, ip, sl
    bbd8:	1a000673 	bne	d5ac <Process_Out.constprop.1+0x38a4>
    bbdc:	e3570000 	cmp	r7, #0
    bbe0:	e2474001 	sub	r4, r7, #1
    bbe4:	da000015 	ble	bc40 <Process_Out.constprop.1+0x1f38>
    bbe8:	e51f2ff0 	ldr	r2, [pc, #-4080]	; ac00 <Process_Out.constprop.1+0xef8>
    bbec:	e592e000 	ldr	lr, [r2]
    bbf0:	e5921008 	ldr	r1, [r2, #8]
    bbf4:	e37e0001 	cmn	lr, #1
    bbf8:	e5920004 	ldr	r0, [r2, #4]
    bbfc:	0a0006f3 	beq	d7d0 <Process_Out.constprop.1+0x3ac8>
    bc00:	e3510000 	cmp	r1, #0
    bc04:	0a0005f6 	beq	d3e4 <Process_Out.constprop.1+0x36dc>
    bc08:	e1a02004 	mov	r2, r4
    bc0c:	e3a06020 	mov	r6, #32
    bc10:	e59d7010 	ldr	r7, [sp, #16]
    bc14:	e15e0000 	cmp	lr, r0
    bc18:	e2422001 	sub	r2, r2, #1
    bc1c:	c7c16000 	strbgt	r6, [r1, r0]
    bc20:	c1a07005 	movgt	r7, r5
    bc24:	c2800001 	addgt	r0, r0, #1
    bc28:	e3720001 	cmn	r2, #1
    bc2c:	1afffff8 	bne	bc14 <Process_Out.constprop.1+0x1f0c>
    bc30:	e28cc001 	add	ip, ip, #1
    bc34:	e3570000 	cmp	r7, #0
    bc38:	e084c00c 	add	ip, r4, ip
    bc3c:	1a0006f0 	bne	d804 <Process_Out.constprop.1+0x3afc>
    bc40:	e59d2004 	ldr	r2, [sp, #4]
    bc44:	e082200c 	add	r2, r2, ip
    bc48:	e58d2004 	str	r2, [sp, #4]
    bc4c:	e59d2044 	ldr	r2, [sp, #68]	; 0x44
    bc50:	e58d2014 	str	r2, [sp, #20]
    bc54:	eafff856 	b	9db4 <Process_Out.constprop.1+0xac>
    bc58:	e2002001 	and	r2, r0, #1
    bc5c:	e2091001 	and	r1, r9, #1
    bc60:	e59d000c 	ldr	r0, [sp, #12]
    bc64:	e58d1020 	str	r1, [sp, #32]
    bc68:	e58d2030 	str	r2, [sp, #48]	; 0x30
    bc6c:	e1811082 	orr	r1, r1, r2, lsl #1
    bc70:	e59d2008 	ldr	r2, [sp, #8]
    bc74:	e2000001 	and	r0, r0, #1
    bc78:	e2022001 	and	r2, r2, #1
    bc7c:	e1811100 	orr	r1, r1, r0, lsl #2
    bc80:	e1811182 	orr	r1, r1, r2, lsl #3
    bc84:	e58d2024 	str	r2, [sp, #36]	; 0x24
    bc88:	e2062001 	and	r2, r6, #1
    bc8c:	e1811202 	orr	r1, r1, r2, lsl #4
    bc90:	e58d000c 	str	r0, [sp, #12]
    bc94:	e20e0001 	and	r0, lr, #1
    bc98:	e1811280 	orr	r1, r1, r0, lsl #5
    bc9c:	e58d202c 	str	r2, [sp, #44]	; 0x2c
    bca0:	e2072001 	and	r2, r7, #1
    bca4:	e1811302 	orr	r1, r1, r2, lsl #6
    bca8:	e58d0034 	str	r0, [sp, #52]	; 0x34
    bcac:	e20c0001 	and	r0, ip, #1
    bcb0:	e1811380 	orr	r1, r1, r0, lsl #7
    bcb4:	e58d0008 	str	r0, [sp, #8]
    bcb8:	e204001f 	and	r0, r4, #31
    bcbc:	e1811400 	orr	r1, r1, r0, lsl #8
    bcc0:	e58d2028 	str	r2, [sp, #40]	; 0x28
    bcc4:	e6ef007b 	uxtb	r0, fp
    bcc8:	e59d201c 	ldr	r2, [sp, #28]
    bccc:	e1811800 	orr	r1, r1, r0, lsl #16
    bcd0:	e1811c02 	orr	r1, r1, r2, lsl #24
    bcd4:	e59d2014 	ldr	r2, [sp, #20]
    bcd8:	e3110010 	tst	r1, #16
    bcdc:	e2820004 	add	r0, r2, #4
    bce0:	e592a000 	ldr	sl, [r2]
    bce4:	13a02000 	movne	r2, #0
    bce8:	e58d0044 	str	r0, [sp, #68]	; 0x44
    bcec:	e1a00421 	lsr	r0, r1, #8
    bcf0:	e200001f 	and	r0, r0, #31
    bcf4:	e240c008 	sub	ip, r0, #8
    bcf8:	e20cc0f7 	and	ip, ip, #247	; 0xf7
    bcfc:	059d2020 	ldreq	r2, [sp, #32]
    bd00:	158d2048 	strne	r2, [sp, #72]	; 0x48
    bd04:	158d2020 	strne	r2, [sp, #32]
    bd08:	058d9048 	streq	r9, [sp, #72]	; 0x48
    bd0c:	e3500002 	cmp	r0, #2
    bd10:	135c0000 	cmpne	ip, #0
    bd14:	e3c11001 	bic	r1, r1, #1
    bd18:	e1822001 	orr	r2, r2, r1
    bd1c:	e6ef1072 	uxtb	r1, r2
    bd20:	13a0400a 	movne	r4, #10
    bd24:	e3110001 	tst	r1, #1
    bd28:	e58d204c 	str	r2, [sp, #76]	; 0x4c
    bd2c:	03a02020 	moveq	r2, #32
    bd30:	13a02030 	movne	r2, #48	; 0x30
    bd34:	e3110002 	tst	r1, #2
    bd38:	e58d2040 	str	r2, [sp, #64]	; 0x40
    bd3c:	e2012020 	and	r2, r1, #32
    bd40:	e58db014 	str	fp, [sp, #20]
    bd44:	e58d203c 	str	r2, [sp, #60]	; 0x3c
    bd48:	0a00026b 	beq	c6fc <Process_Out.constprop.1+0x29f4>
    bd4c:	e35a0000 	cmp	sl, #0
    bd50:	ba0002ba 	blt	c840 <Process_Out.constprop.1+0x2b38>
    bd54:	e3110004 	tst	r1, #4
    bd58:	0a0006ee 	beq	d918 <Process_Out.constprop.1+0x3c10>
    bd5c:	e24b2001 	sub	r2, fp, #1
    bd60:	e58d2014 	str	r2, [sp, #20]
    bd64:	e3a0202b 	mov	r2, #43	; 0x2b
    bd68:	e58d2038 	str	r2, [sp, #56]	; 0x38
    bd6c:	e35a0000 	cmp	sl, #0
    bd70:	1a0002b7 	bne	c854 <Process_Out.constprop.1+0x2b4c>
    bd74:	e3a02030 	mov	r2, #48	; 0x30
    bd78:	e3a07000 	mov	r7, #0
    bd7c:	e5cd2058 	strb	r2, [sp, #88]	; 0x58
    bd80:	e1a02005 	mov	r2, r5
    bd84:	e59d101c 	ldr	r1, [sp, #28]
    bd88:	e1510002 	cmp	r1, r2
    bd8c:	b6af1072 	sxtblt	r1, r2
    bd90:	b58d101c 	strlt	r1, [sp, #28]
    bd94:	e59d1048 	ldr	r1, [sp, #72]	; 0x48
    bd98:	e59d001c 	ldr	r0, [sp, #28]
    bd9c:	e096b001 	adds	fp, r6, r1
    bda0:	e59d1014 	ldr	r1, [sp, #20]
    bda4:	13a0b000 	movne	fp, #0
    bda8:	e041a000 	sub	sl, r1, r0
    bdac:	1a000019 	bne	be18 <Process_Out.constprop.1+0x2110>
    bdb0:	e35a0000 	cmp	sl, #0
    bdb4:	e24a0001 	sub	r0, sl, #1
    bdb8:	da000a45 	ble	e6d4 <Process_Out.constprop.1+0x49cc>
    bdbc:	e59f1ea4 	ldr	r1, [pc, #3748]	; cc68 <Process_Out.constprop.1+0x2f60>
    bdc0:	e59fcea0 	ldr	ip, [pc, #3744]	; cc68 <Process_Out.constprop.1+0x2f60>
    bdc4:	e591e000 	ldr	lr, [r1]
    bdc8:	e59cc008 	ldr	ip, [ip, #8]
    bdcc:	e37e0001 	cmn	lr, #1
    bdd0:	e5911004 	ldr	r1, [r1, #4]
    bdd4:	0a000802 	beq	dde4 <Process_Out.constprop.1+0x40dc>
    bdd8:	e35c0000 	cmp	ip, #0
    bddc:	0a0009c0 	beq	e4e4 <Process_Out.constprop.1+0x47dc>
    bde0:	e3a09020 	mov	r9, #32
    bde4:	e59d6010 	ldr	r6, [sp, #16]
    bde8:	e15e0001 	cmp	lr, r1
    bdec:	e2400001 	sub	r0, r0, #1
    bdf0:	c7cc9001 	strbgt	r9, [ip, r1]
    bdf4:	c1a06005 	movgt	r6, r5
    bdf8:	c2811001 	addgt	r1, r1, #1
    bdfc:	e3700001 	cmn	r0, #1
    be00:	1afffff8 	bne	bde8 <Process_Out.constprop.1+0x20e0>
    be04:	e3560000 	cmp	r6, #0
    be08:	e3e0c000 	mvn	ip, #0
    be0c:	1a000800 	bne	de14 <Process_Out.constprop.1+0x410c>
    be10:	e1a0b00a 	mov	fp, sl
    be14:	e1a0a00c 	mov	sl, ip
    be18:	e59d104c 	ldr	r1, [sp, #76]	; 0x4c
    be1c:	e59d0020 	ldr	r0, [sp, #32]
    be20:	e3c11001 	bic	r1, r1, #1
    be24:	e1801001 	orr	r1, r0, r1
    be28:	e59d0030 	ldr	r0, [sp, #48]	; 0x30
    be2c:	e3c11002 	bic	r1, r1, #2
    be30:	e1811080 	orr	r1, r1, r0, lsl #1
    be34:	e59d000c 	ldr	r0, [sp, #12]
    be38:	e3c11004 	bic	r1, r1, #4
    be3c:	e1811100 	orr	r1, r1, r0, lsl #2
    be40:	e59d0024 	ldr	r0, [sp, #36]	; 0x24
    be44:	e3c11008 	bic	r1, r1, #8
    be48:	e1811180 	orr	r1, r1, r0, lsl #3
    be4c:	e59d002c 	ldr	r0, [sp, #44]	; 0x2c
    be50:	e3c11010 	bic	r1, r1, #16
    be54:	e1811200 	orr	r1, r1, r0, lsl #4
    be58:	e59d0034 	ldr	r0, [sp, #52]	; 0x34
    be5c:	e3c11020 	bic	r1, r1, #32
    be60:	e1811280 	orr	r1, r1, r0, lsl #5
    be64:	e59d0028 	ldr	r0, [sp, #40]	; 0x28
    be68:	e3c11040 	bic	r1, r1, #64	; 0x40
    be6c:	e1811300 	orr	r1, r1, r0, lsl #6
    be70:	e59d0008 	ldr	r0, [sp, #8]
    be74:	e3c11080 	bic	r1, r1, #128	; 0x80
    be78:	e1811380 	orr	r1, r1, r0, lsl #7
    be7c:	e6ef1071 	uxtb	r1, r1
    be80:	e3110010 	tst	r1, #16
    be84:	e58d1008 	str	r1, [sp, #8]
    be88:	1a000019 	bne	bef4 <Process_Out.constprop.1+0x21ec>
    be8c:	e35a0000 	cmp	sl, #0
    be90:	e24a9001 	sub	r9, sl, #1
    be94:	da00096b 	ble	e448 <Process_Out.constprop.1+0x4740>
    be98:	e59f1dc8 	ldr	r1, [pc, #3528]	; cc68 <Process_Out.constprop.1+0x2f60>
    be9c:	e591e000 	ldr	lr, [r1]
    bea0:	e591c008 	ldr	ip, [r1, #8]
    bea4:	e37e0001 	cmn	lr, #1
    bea8:	e5911004 	ldr	r1, [r1, #4]
    beac:	0a000883 	beq	e0c0 <Process_Out.constprop.1+0x43b8>
    beb0:	e35c0000 	cmp	ip, #0
    beb4:	0a000a08 	beq	e6dc <Process_Out.constprop.1+0x49d4>
    beb8:	e1a00009 	mov	r0, r9
    bebc:	e59da010 	ldr	sl, [sp, #16]
    bec0:	e59d6040 	ldr	r6, [sp, #64]	; 0x40
    bec4:	e151000e 	cmp	r1, lr
    bec8:	e2400001 	sub	r0, r0, #1
    becc:	b7cc6001 	strblt	r6, [ip, r1]
    bed0:	b1a0a005 	movlt	sl, r5
    bed4:	b2811001 	addlt	r1, r1, #1
    bed8:	e3700001 	cmn	r0, #1
    bedc:	1afffff8 	bne	bec4 <Process_Out.constprop.1+0x21bc>
    bee0:	e28b6001 	add	r6, fp, #1
    bee4:	e35a0000 	cmp	sl, #0
    bee8:	e086b009 	add	fp, r6, r9
    beec:	e3e0a000 	mvn	sl, #0
    bef0:	1a000880 	bne	e0f8 <Process_Out.constprop.1+0x43f0>
    bef4:	e59d101c 	ldr	r1, [sp, #28]
    bef8:	e1520001 	cmp	r2, r1
    befc:	e2411001 	sub	r1, r1, #1
    bf00:	e6af1071 	sxtb	r1, r1
    bf04:	aa000015 	bge	bf60 <Process_Out.constprop.1+0x2258>
    bf08:	e59f0d58 	ldr	r0, [pc, #3416]	; cc68 <Process_Out.constprop.1+0x2f60>
    bf0c:	e8901040 	ldm	r0, {r6, ip}
    bf10:	e3760001 	cmn	r6, #1
    bf14:	e590e008 	ldr	lr, [r0, #8]
    bf18:	0a000659 	beq	d884 <Process_Out.constprop.1+0x3b7c>
    bf1c:	e35e0000 	cmp	lr, #0
    bf20:	0a000173 	beq	c4f4 <Process_Out.constprop.1+0x27ec>
    bf24:	e3a09030 	mov	r9, #48	; 0x30
    bf28:	e59d0010 	ldr	r0, [sp, #16]
    bf2c:	e58d300c 	str	r3, [sp, #12]
    bf30:	e15c0006 	cmp	ip, r6
    bf34:	b7ce900c 	strblt	r9, [lr, ip]
    bf38:	e2413001 	sub	r3, r1, #1
    bf3c:	b1a00005 	movlt	r0, r5
    bf40:	b28cc001 	addlt	ip, ip, #1
    bf44:	e1520001 	cmp	r2, r1
    bf48:	e28bb001 	add	fp, fp, #1
    bf4c:	e6af1073 	sxtb	r1, r3
    bf50:	bafffff6 	blt	bf30 <Process_Out.constprop.1+0x2228>
    bf54:	e3500000 	cmp	r0, #0
    bf58:	e59d300c 	ldr	r3, [sp, #12]
    bf5c:	1a000653 	bne	d8b0 <Process_Out.constprop.1+0x3ba8>
    bf60:	e59d2038 	ldr	r2, [sp, #56]	; 0x38
    bf64:	e3520000 	cmp	r2, #0
    bf68:	1a000304 	bne	cb80 <Process_Out.constprop.1+0x2e78>
    bf6c:	e59d2008 	ldr	r2, [sp, #8]
    bf70:	e3120040 	tst	r2, #64	; 0x40
    bf74:	0a00000b 	beq	bfa8 <Process_Out.constprop.1+0x22a0>
    bf78:	e3540008 	cmp	r4, #8
    bf7c:	0a0007d1 	beq	dec8 <Process_Out.constprop.1+0x41c0>
    bf80:	e3540010 	cmp	r4, #16
    bf84:	1a000007 	bne	bfa8 <Process_Out.constprop.1+0x22a0>
    bf88:	e3a00030 	mov	r0, #48	; 0x30
    bf8c:	e58d3008 	str	r3, [sp, #8]
    bf90:	ebfff301 	bl	8b9c <Buffer_WriteChar>
    bf94:	e59d303c 	ldr	r3, [sp, #60]	; 0x3c
    bf98:	e28bb002 	add	fp, fp, #2
    bf9c:	e3830058 	orr	r0, r3, #88	; 0x58
    bfa0:	ebfff2fd 	bl	8b9c <Buffer_WriteChar>
    bfa4:	e59d3008 	ldr	r3, [sp, #8]
    bfa8:	e59f2cb8 	ldr	r2, [pc, #3256]	; cc68 <Process_Out.constprop.1+0x2f60>
    bfac:	e592c000 	ldr	ip, [r2]
    bfb0:	e592e008 	ldr	lr, [r2, #8]
    bfb4:	e37c0001 	cmn	ip, #1
    bfb8:	e5921004 	ldr	r1, [r2, #4]
    bfbc:	0a0002dc 	beq	cb34 <Process_Out.constprop.1+0x2e2c>
    bfc0:	e35e0000 	cmp	lr, #0
    bfc4:	0a0007b9 	beq	deb0 <Process_Out.constprop.1+0x41a8>
    bfc8:	e1a02007 	mov	r2, r7
    bfcc:	e59d4010 	ldr	r4, [sp, #16]
    bfd0:	e151000c 	cmp	r1, ip
    bfd4:	b28d0058 	addlt	r0, sp, #88	; 0x58
    bfd8:	b7d00002 	ldrblt	r0, [r0, r2]
    bfdc:	e2422001 	sub	r2, r2, #1
    bfe0:	b7ce0001 	strblt	r0, [lr, r1]
    bfe4:	e2820001 	add	r0, r2, #1
    bfe8:	b1a04005 	movlt	r4, r5
    bfec:	b2811001 	addlt	r1, r1, #1
    bff0:	e3500000 	cmp	r0, #0
    bff4:	cafffff5 	bgt	bfd0 <Process_Out.constprop.1+0x22c8>
    bff8:	e28bc001 	add	ip, fp, #1
    bffc:	e3540000 	cmp	r4, #0
    c000:	e08cc007 	add	ip, ip, r7
    c004:	1a0002da 	bne	cb74 <Process_Out.constprop.1+0x2e6c>
    c008:	e35a0000 	cmp	sl, #0
    c00c:	e24a4001 	sub	r4, sl, #1
    c010:	daffff0a 	ble	bc40 <Process_Out.constprop.1+0x1f38>
    c014:	e59f2c4c 	ldr	r2, [pc, #3148]	; cc68 <Process_Out.constprop.1+0x2f60>
    c018:	e592e000 	ldr	lr, [r2]
    c01c:	e5920004 	ldr	r0, [r2, #4]
    c020:	e37e0001 	cmn	lr, #1
    c024:	e5921008 	ldr	r1, [r2, #8]
    c028:	0a0005f8 	beq	d810 <Process_Out.constprop.1+0x3b08>
    c02c:	e3510000 	cmp	r1, #0
    c030:	0a0004eb 	beq	d3e4 <Process_Out.constprop.1+0x36dc>
    c034:	e1a02004 	mov	r2, r4
    c038:	e3a06020 	mov	r6, #32
    c03c:	e59d7010 	ldr	r7, [sp, #16]
    c040:	e15e0000 	cmp	lr, r0
    c044:	e2422001 	sub	r2, r2, #1
    c048:	c7c16000 	strbgt	r6, [r1, r0]
    c04c:	c1a07005 	movgt	r7, r5
    c050:	c2800001 	addgt	r0, r0, #1
    c054:	e3720001 	cmn	r2, #1
    c058:	1afffff8 	bne	c040 <Process_Out.constprop.1+0x2338>
    c05c:	eafffef3 	b	bc30 <Process_Out.constprop.1+0x1f28>
    c060:	e3a0e000 	mov	lr, #0
    c064:	e1a03004 	mov	r3, r4
    c068:	e1a00005 	mov	r0, r5
    c06c:	e3a0400a 	mov	r4, #10
    c070:	e1a0c00e 	mov	ip, lr
    c074:	e2002001 	and	r2, r0, #1
    c078:	e2091001 	and	r1, r9, #1
    c07c:	e59d000c 	ldr	r0, [sp, #12]
    c080:	e58d1020 	str	r1, [sp, #32]
    c084:	e58d2030 	str	r2, [sp, #48]	; 0x30
    c088:	e1811082 	orr	r1, r1, r2, lsl #1
    c08c:	e59d2008 	ldr	r2, [sp, #8]
    c090:	e2000001 	and	r0, r0, #1
    c094:	e2022001 	and	r2, r2, #1
    c098:	e1811100 	orr	r1, r1, r0, lsl #2
    c09c:	e1811182 	orr	r1, r1, r2, lsl #3
    c0a0:	e58d2024 	str	r2, [sp, #36]	; 0x24
    c0a4:	e2062001 	and	r2, r6, #1
    c0a8:	e1811202 	orr	r1, r1, r2, lsl #4
    c0ac:	e58d000c 	str	r0, [sp, #12]
    c0b0:	e20e0001 	and	r0, lr, #1
    c0b4:	e1811280 	orr	r1, r1, r0, lsl #5
    c0b8:	e58d202c 	str	r2, [sp, #44]	; 0x2c
    c0bc:	e2072001 	and	r2, r7, #1
    c0c0:	e1811302 	orr	r1, r1, r2, lsl #6
    c0c4:	e58d0034 	str	r0, [sp, #52]	; 0x34
    c0c8:	e20c0001 	and	r0, ip, #1
    c0cc:	e1811380 	orr	r1, r1, r0, lsl #7
    c0d0:	e58d0008 	str	r0, [sp, #8]
    c0d4:	e204001f 	and	r0, r4, #31
    c0d8:	e1811400 	orr	r1, r1, r0, lsl #8
    c0dc:	e58d2028 	str	r2, [sp, #40]	; 0x28
    c0e0:	e6ef007b 	uxtb	r0, fp
    c0e4:	e59d201c 	ldr	r2, [sp, #28]
    c0e8:	e1811800 	orr	r1, r1, r0, lsl #16
    c0ec:	e1811c02 	orr	r1, r1, r2, lsl #24
    c0f0:	e59d2014 	ldr	r2, [sp, #20]
    c0f4:	e3110010 	tst	r1, #16
    c0f8:	e2820004 	add	r0, r2, #4
    c0fc:	e592a000 	ldr	sl, [r2]
    c100:	13a02000 	movne	r2, #0
    c104:	e58d0044 	str	r0, [sp, #68]	; 0x44
    c108:	e1a00421 	lsr	r0, r1, #8
    c10c:	e200001f 	and	r0, r0, #31
    c110:	e240c008 	sub	ip, r0, #8
    c114:	e20cc0f7 	and	ip, ip, #247	; 0xf7
    c118:	059d2020 	ldreq	r2, [sp, #32]
    c11c:	158d2048 	strne	r2, [sp, #72]	; 0x48
    c120:	158d2020 	strne	r2, [sp, #32]
    c124:	058d9048 	streq	r9, [sp, #72]	; 0x48
    c128:	e3500002 	cmp	r0, #2
    c12c:	135c0000 	cmpne	ip, #0
    c130:	e3c11001 	bic	r1, r1, #1
    c134:	e1822001 	orr	r2, r2, r1
    c138:	e6ef1072 	uxtb	r1, r2
    c13c:	13a0400a 	movne	r4, #10
    c140:	e3110001 	tst	r1, #1
    c144:	e58d204c 	str	r2, [sp, #76]	; 0x4c
    c148:	03a02020 	moveq	r2, #32
    c14c:	13a02030 	movne	r2, #48	; 0x30
    c150:	e3110002 	tst	r1, #2
    c154:	e58d2040 	str	r2, [sp, #64]	; 0x40
    c158:	e2012020 	and	r2, r1, #32
    c15c:	e58db014 	str	fp, [sp, #20]
    c160:	e58d203c 	str	r2, [sp, #60]	; 0x3c
    c164:	0a00016a 	beq	c714 <Process_Out.constprop.1+0x2a0c>
    c168:	e35a0000 	cmp	sl, #0
    c16c:	ba0001d2 	blt	c8bc <Process_Out.constprop.1+0x2bb4>
    c170:	e3110004 	tst	r1, #4
    c174:	0a000679 	beq	db60 <Process_Out.constprop.1+0x3e58>
    c178:	e24b2001 	sub	r2, fp, #1
    c17c:	e58d2014 	str	r2, [sp, #20]
    c180:	e3a0202b 	mov	r2, #43	; 0x2b
    c184:	e58d2038 	str	r2, [sp, #56]	; 0x38
    c188:	e35a0000 	cmp	sl, #0
    c18c:	1a0001cf 	bne	c8d0 <Process_Out.constprop.1+0x2bc8>
    c190:	e3a02030 	mov	r2, #48	; 0x30
    c194:	e3a09000 	mov	r9, #0
    c198:	e1a00005 	mov	r0, r5
    c19c:	e5cd2058 	strb	r2, [sp, #88]	; 0x58
    c1a0:	e59d201c 	ldr	r2, [sp, #28]
    c1a4:	e1520000 	cmp	r2, r0
    c1a8:	b6af2070 	sxtblt	r2, r0
    c1ac:	b58d201c 	strlt	r2, [sp, #28]
    c1b0:	e59d2048 	ldr	r2, [sp, #72]	; 0x48
    c1b4:	e59d101c 	ldr	r1, [sp, #28]
    c1b8:	e0966002 	adds	r6, r6, r2
    c1bc:	e59d2014 	ldr	r2, [sp, #20]
    c1c0:	13a06000 	movne	r6, #0
    c1c4:	e042b001 	sub	fp, r2, r1
    c1c8:	1a000019 	bne	c234 <Process_Out.constprop.1+0x252c>
    c1cc:	e35b0000 	cmp	fp, #0
    c1d0:	e24b1001 	sub	r1, fp, #1
    c1d4:	da00090f 	ble	e618 <Process_Out.constprop.1+0x4910>
    c1d8:	e59f2a88 	ldr	r2, [pc, #2696]	; cc68 <Process_Out.constprop.1+0x2f60>
    c1dc:	e59fca84 	ldr	ip, [pc, #2692]	; cc68 <Process_Out.constprop.1+0x2f60>
    c1e0:	e592e000 	ldr	lr, [r2]
    c1e4:	e59cc008 	ldr	ip, [ip, #8]
    c1e8:	e37e0001 	cmn	lr, #1
    c1ec:	e5922004 	ldr	r2, [r2, #4]
    c1f0:	0a000763 	beq	df84 <Process_Out.constprop.1+0x427c>
    c1f4:	e35c0000 	cmp	ip, #0
    c1f8:	0a0008d5 	beq	e554 <Process_Out.constprop.1+0x484c>
    c1fc:	e3a0a020 	mov	sl, #32
    c200:	e59d6010 	ldr	r6, [sp, #16]
    c204:	e152000e 	cmp	r2, lr
    c208:	e2411001 	sub	r1, r1, #1
    c20c:	b7cca002 	strblt	sl, [ip, r2]
    c210:	b1a06005 	movlt	r6, r5
    c214:	b2822001 	addlt	r2, r2, #1
    c218:	e3710001 	cmn	r1, #1
    c21c:	1afffff8 	bne	c204 <Process_Out.constprop.1+0x24fc>
    c220:	e3560000 	cmp	r6, #0
    c224:	e3e0c000 	mvn	ip, #0
    c228:	1a000761 	bne	dfb4 <Process_Out.constprop.1+0x42ac>
    c22c:	e1a0600b 	mov	r6, fp
    c230:	e1a0b00c 	mov	fp, ip
    c234:	e59d204c 	ldr	r2, [sp, #76]	; 0x4c
    c238:	e3c27001 	bic	r7, r2, #1
    c23c:	e59d2020 	ldr	r2, [sp, #32]
    c240:	e1822007 	orr	r2, r2, r7
    c244:	e3c27002 	bic	r7, r2, #2
    c248:	e59d2030 	ldr	r2, [sp, #48]	; 0x30
    c24c:	e1872082 	orr	r2, r7, r2, lsl #1
    c250:	e3c27004 	bic	r7, r2, #4
    c254:	e59d200c 	ldr	r2, [sp, #12]
    c258:	e1872102 	orr	r2, r7, r2, lsl #2
    c25c:	e3c27008 	bic	r7, r2, #8
    c260:	e59d2024 	ldr	r2, [sp, #36]	; 0x24
    c264:	e1872182 	orr	r2, r7, r2, lsl #3
    c268:	e3c27010 	bic	r7, r2, #16
    c26c:	e59d202c 	ldr	r2, [sp, #44]	; 0x2c
    c270:	e1872202 	orr	r2, r7, r2, lsl #4
    c274:	e3c27020 	bic	r7, r2, #32
    c278:	e59d2034 	ldr	r2, [sp, #52]	; 0x34
    c27c:	e1872282 	orr	r2, r7, r2, lsl #5
    c280:	e3c27040 	bic	r7, r2, #64	; 0x40
    c284:	e59d2028 	ldr	r2, [sp, #40]	; 0x28
    c288:	e1872302 	orr	r2, r7, r2, lsl #6
    c28c:	e3c27080 	bic	r7, r2, #128	; 0x80
    c290:	e59d2008 	ldr	r2, [sp, #8]
    c294:	e1872382 	orr	r2, r7, r2, lsl #7
    c298:	e6ef2072 	uxtb	r2, r2
    c29c:	e3120011 	tst	r2, #17
    c2a0:	e58d2008 	str	r2, [sp, #8]
    c2a4:	1a000019 	bne	c310 <Process_Out.constprop.1+0x2608>
    c2a8:	e35b0000 	cmp	fp, #0
    c2ac:	e24ba001 	sub	sl, fp, #1
    c2b0:	da00088d 	ble	e4ec <Process_Out.constprop.1+0x47e4>
    c2b4:	e59f29ac 	ldr	r2, [pc, #2476]	; cc68 <Process_Out.constprop.1+0x2f60>
    c2b8:	e592e000 	ldr	lr, [r2]
    c2bc:	e592c008 	ldr	ip, [r2, #8]
    c2c0:	e37e0001 	cmn	lr, #1
    c2c4:	e5922004 	ldr	r2, [r2, #4]
    c2c8:	0a0006e0 	beq	de50 <Process_Out.constprop.1+0x4148>
    c2cc:	e35c0000 	cmp	ip, #0
    c2d0:	0a000858 	beq	e438 <Process_Out.constprop.1+0x4730>
    c2d4:	e1a0100a 	mov	r1, sl
    c2d8:	e59d7010 	ldr	r7, [sp, #16]
    c2dc:	e59db040 	ldr	fp, [sp, #64]	; 0x40
    c2e0:	e152000e 	cmp	r2, lr
    c2e4:	e2411001 	sub	r1, r1, #1
    c2e8:	b7ccb002 	strblt	fp, [ip, r2]
    c2ec:	b1a07005 	movlt	r7, r5
    c2f0:	b2822001 	addlt	r2, r2, #1
    c2f4:	e3710001 	cmn	r1, #1
    c2f8:	1afffff8 	bne	c2e0 <Process_Out.constprop.1+0x25d8>
    c2fc:	e2866001 	add	r6, r6, #1
    c300:	e3570000 	cmp	r7, #0
    c304:	e08a6006 	add	r6, sl, r6
    c308:	e3e0b000 	mvn	fp, #0
    c30c:	1a0006dd 	bne	de88 <Process_Out.constprop.1+0x4180>
    c310:	e59d201c 	ldr	r2, [sp, #28]
    c314:	e1500002 	cmp	r0, r2
    c318:	e2422001 	sub	r2, r2, #1
    c31c:	e6af2072 	sxtb	r2, r2
    c320:	aa000015 	bge	c37c <Process_Out.constprop.1+0x2674>
    c324:	e59f193c 	ldr	r1, [pc, #2364]	; cc68 <Process_Out.constprop.1+0x2f60>
    c328:	e8911080 	ldm	r1, {r7, ip}
    c32c:	e3770001 	cmn	r7, #1
    c330:	e591e008 	ldr	lr, [r1, #8]
    c334:	0a000511 	beq	d780 <Process_Out.constprop.1+0x3a78>
    c338:	e35e0000 	cmp	lr, #0
    c33c:	159da010 	ldrne	sl, [sp, #16]
    c340:	158d300c 	strne	r3, [sp, #12]
    c344:	0a000070 	beq	c50c <Process_Out.constprop.1+0x2804>
    c348:	e15c0007 	cmp	ip, r7
    c34c:	b3a03030 	movlt	r3, #48	; 0x30
    c350:	e2421001 	sub	r1, r2, #1
    c354:	b7ce300c 	strblt	r3, [lr, ip]
    c358:	b1a0a005 	movlt	sl, r5
    c35c:	b28cc001 	addlt	ip, ip, #1
    c360:	e1500002 	cmp	r0, r2
    c364:	e2866001 	add	r6, r6, #1
    c368:	e6af2071 	sxtb	r2, r1
    c36c:	bafffff5 	blt	c348 <Process_Out.constprop.1+0x2640>
    c370:	e35a0000 	cmp	sl, #0
    c374:	e59d300c 	ldr	r3, [sp, #12]
    c378:	1a00050b 	bne	d7ac <Process_Out.constprop.1+0x3aa4>
    c37c:	e59d2038 	ldr	r2, [sp, #56]	; 0x38
    c380:	e3520000 	cmp	r2, #0
    c384:	1a00043e 	bne	d484 <Process_Out.constprop.1+0x377c>
    c388:	e59d2008 	ldr	r2, [sp, #8]
    c38c:	e3120040 	tst	r2, #64	; 0x40
    c390:	0a00000b 	beq	c3c4 <Process_Out.constprop.1+0x26bc>
    c394:	e3540008 	cmp	r4, #8
    c398:	0a0006a6 	beq	de38 <Process_Out.constprop.1+0x4130>
    c39c:	e3540010 	cmp	r4, #16
    c3a0:	1a000007 	bne	c3c4 <Process_Out.constprop.1+0x26bc>
    c3a4:	e3a00030 	mov	r0, #48	; 0x30
    c3a8:	e58d3008 	str	r3, [sp, #8]
    c3ac:	ebfff1fa 	bl	8b9c <Buffer_WriteChar>
    c3b0:	e59d303c 	ldr	r3, [sp, #60]	; 0x3c
    c3b4:	e2866002 	add	r6, r6, #2
    c3b8:	e3830058 	orr	r0, r3, #88	; 0x58
    c3bc:	ebfff1f6 	bl	8b9c <Buffer_WriteChar>
    c3c0:	e59d3008 	ldr	r3, [sp, #8]
    c3c4:	e59f289c 	ldr	r2, [pc, #2204]	; cc68 <Process_Out.constprop.1+0x2f60>
    c3c8:	e592c000 	ldr	ip, [r2]
    c3cc:	e592e008 	ldr	lr, [r2, #8]
    c3d0:	e37c0001 	cmn	ip, #1
    c3d4:	e5921004 	ldr	r1, [r2, #4]
    c3d8:	0a0004d5 	beq	d734 <Process_Out.constprop.1+0x3a2c>
    c3dc:	e35e0000 	cmp	lr, #0
    c3e0:	0a0006b5 	beq	debc <Process_Out.constprop.1+0x41b4>
    c3e4:	e1a02009 	mov	r2, r9
    c3e8:	e59d4010 	ldr	r4, [sp, #16]
    c3ec:	e151000c 	cmp	r1, ip
    c3f0:	b28d0058 	addlt	r0, sp, #88	; 0x58
    c3f4:	b7d00002 	ldrblt	r0, [r0, r2]
    c3f8:	e2422001 	sub	r2, r2, #1
    c3fc:	b7ce0001 	strblt	r0, [lr, r1]
    c400:	e2820001 	add	r0, r2, #1
    c404:	b1a04005 	movlt	r4, r5
    c408:	b2811001 	addlt	r1, r1, #1
    c40c:	e3500000 	cmp	r0, #0
    c410:	cafffff5 	bgt	c3ec <Process_Out.constprop.1+0x26e4>
    c414:	e2866001 	add	r6, r6, #1
    c418:	e3540000 	cmp	r4, #0
    c41c:	e089c006 	add	ip, r9, r6
    c420:	1a0004d3 	bne	d774 <Process_Out.constprop.1+0x3a6c>
    c424:	e35b0000 	cmp	fp, #0
    c428:	e24b4001 	sub	r4, fp, #1
    c42c:	dafffe03 	ble	bc40 <Process_Out.constprop.1+0x1f38>
    c430:	e59f2830 	ldr	r2, [pc, #2096]	; cc68 <Process_Out.constprop.1+0x2f60>
    c434:	e592e000 	ldr	lr, [r2]
    c438:	e5920004 	ldr	r0, [r2, #4]
    c43c:	e37e0001 	cmn	lr, #1
    c440:	e5921008 	ldr	r1, [r2, #8]
    c444:	0a000522 	beq	d8d4 <Process_Out.constprop.1+0x3bcc>
    c448:	e3510000 	cmp	r1, #0
    c44c:	0a0003e4 	beq	d3e4 <Process_Out.constprop.1+0x36dc>
    c450:	e1a02004 	mov	r2, r4
    c454:	e3a06020 	mov	r6, #32
    c458:	e59d7010 	ldr	r7, [sp, #16]
    c45c:	e15e0000 	cmp	lr, r0
    c460:	e2422001 	sub	r2, r2, #1
    c464:	c7c16000 	strbgt	r6, [r1, r0]
    c468:	c1a07005 	movgt	r7, r5
    c46c:	c2800001 	addgt	r0, r0, #1
    c470:	e3720001 	cmn	r2, #1
    c474:	1afffff8 	bne	c45c <Process_Out.constprop.1+0x2754>
    c478:	eafffdec 	b	bc30 <Process_Out.constprop.1+0x1f28>
    c47c:	e3a0e000 	mov	lr, #0
    c480:	e3a0400a 	mov	r4, #10
    c484:	e1a0000e 	mov	r0, lr
    c488:	eafff973 	b	aa5c <Process_Out.constprop.1+0xd54>
    c48c:	e1a03004 	mov	r3, r4
    c490:	e59d1014 	ldr	r1, [sp, #20]
    c494:	e5912000 	ldr	r2, [r1]
    c498:	e2811004 	add	r1, r1, #4
    c49c:	e58d1014 	str	r1, [sp, #20]
    c4a0:	e59d1004 	ldr	r1, [sp, #4]
    c4a4:	e5821000 	str	r1, [r2]
    c4a8:	eafff641 	b	9db4 <Process_Out.constprop.1+0xac>
    c4ac:	e2410001 	sub	r0, r1, #1
    c4b0:	e1520001 	cmp	r2, r1
    c4b4:	e2866001 	add	r6, r6, #1
    c4b8:	e6af1070 	sxtb	r1, r0
    c4bc:	bafffffa 	blt	c4ac <Process_Out.constprop.1+0x27a4>
    c4c0:	eafff895 	b	a71c <Process_Out.constprop.1+0xa14>
    c4c4:	e2410001 	sub	r0, r1, #1
    c4c8:	e1520001 	cmp	r2, r1
    c4cc:	e28bb001 	add	fp, fp, #1
    c4d0:	e6af1070 	sxtb	r1, r0
    c4d4:	bafffffa 	blt	c4c4 <Process_Out.constprop.1+0x27bc>
    c4d8:	eafffd95 	b	bb34 <Process_Out.constprop.1+0x1e2c>
    c4dc:	e2421001 	sub	r1, r2, #1
    c4e0:	e1500002 	cmp	r0, r2
    c4e4:	e2866001 	add	r6, r6, #1
    c4e8:	e6af2071 	sxtb	r2, r1
    c4ec:	bafffffa 	blt	c4dc <Process_Out.constprop.1+0x27d4>
    c4f0:	eafffb9b 	b	b364 <Process_Out.constprop.1+0x165c>
    c4f4:	e2410001 	sub	r0, r1, #1
    c4f8:	e1520001 	cmp	r2, r1
    c4fc:	e28bb001 	add	fp, fp, #1
    c500:	e6af1070 	sxtb	r1, r0
    c504:	bafffffa 	blt	c4f4 <Process_Out.constprop.1+0x27ec>
    c508:	eafffe94 	b	bf60 <Process_Out.constprop.1+0x2258>
    c50c:	e2421001 	sub	r1, r2, #1
    c510:	e1520000 	cmp	r2, r0
    c514:	e2866001 	add	r6, r6, #1
    c518:	e6af2071 	sxtb	r2, r1
    c51c:	cafffffa 	bgt	c50c <Process_Out.constprop.1+0x2804>
    c520:	eaffff95 	b	c37c <Process_Out.constprop.1+0x2674>
    c524:	e2421001 	sub	r1, r2, #1
    c528:	e1500002 	cmp	r0, r2
    c52c:	e2866001 	add	r6, r6, #1
    c530:	e6af2071 	sxtb	r2, r1
    c534:	bafffffa 	blt	c524 <Process_Out.constprop.1+0x281c>
    c538:	eafffc72 	b	b708 <Process_Out.constprop.1+0x1a00>
    c53c:	e2410001 	sub	r0, r1, #1
    c540:	e1510002 	cmp	r1, r2
    c544:	e2866001 	add	r6, r6, #1
    c548:	e6af1070 	sxtb	r1, r0
    c54c:	cafffffa 	bgt	c53c <Process_Out.constprop.1+0x2834>
    c550:	eafffa76 	b	af30 <Process_Out.constprop.1+0x1228>
    c554:	eddd7a01 	vldr	s15, [sp, #4]
    c558:	eeb87be7 	vcvt.f64.s32	d7, s15
    c55c:	e59d1014 	ldr	r1, [sp, #20]
    c560:	e5912000 	ldr	r2, [r1]
    c564:	e2811004 	add	r1, r1, #4
    c568:	e58d1014 	str	r1, [sp, #20]
    c56c:	ed827b00 	vstr	d7, [r2]
    c570:	eafff60f 	b	9db4 <Process_Out.constprop.1+0xac>
    c574:	e59d1014 	ldr	r1, [sp, #20]
    c578:	e5912000 	ldr	r2, [r1]
    c57c:	e2811004 	add	r1, r1, #4
    c580:	e58d1014 	str	r1, [sp, #20]
    c584:	e59d0004 	ldr	r0, [sp, #4]
    c588:	e1a01fc0 	asr	r1, r0, #31
    c58c:	e1c200f0 	strd	r0, [r2]
    c590:	eafff607 	b	9db4 <Process_Out.constprop.1+0xac>
    c594:	e59d1014 	ldr	r1, [sp, #20]
    c598:	e35c0000 	cmp	ip, #0
    c59c:	e5912000 	ldr	r2, [r1]
    c5a0:	e2811004 	add	r1, r1, #4
    c5a4:	e58d1014 	str	r1, [sp, #20]
    c5a8:	15dd1004 	ldrbne	r1, [sp, #4]
    c5ac:	01dd10b4 	ldrheq	r1, [sp, #4]
    c5b0:	15c21000 	strbne	r1, [r2]
    c5b4:	01c210b0 	strheq	r1, [r2]
    c5b8:	eafff5fd 	b	9db4 <Process_Out.constprop.1+0xac>
    c5bc:	e59d1014 	ldr	r1, [sp, #20]
    c5c0:	e35c0000 	cmp	ip, #0
    c5c4:	e5912000 	ldr	r2, [r1]
    c5c8:	e2811004 	add	r1, r1, #4
    c5cc:	e58d1014 	str	r1, [sp, #20]
    c5d0:	0affffb2 	beq	c4a0 <Process_Out.constprop.1+0x2798>
    c5d4:	eaffffea 	b	c584 <Process_Out.constprop.1+0x287c>
    c5d8:	e3a00000 	mov	r0, #0
    c5dc:	e1a03004 	mov	r3, r4
    c5e0:	e1a0c000 	mov	ip, r0
    c5e4:	e3a04008 	mov	r4, #8
    c5e8:	e1a0e000 	mov	lr, r0
    c5ec:	eafffea0 	b	c074 <Process_Out.constprop.1+0x236c>
    c5f0:	e3a00000 	mov	r0, #0
    c5f4:	e1a03004 	mov	r3, r4
    c5f8:	e1a0c000 	mov	ip, r0
    c5fc:	e3a04010 	mov	r4, #16
    c600:	e1a0e000 	mov	lr, r0
    c604:	eafffe9a 	b	c074 <Process_Out.constprop.1+0x236c>
    c608:	e1a03004 	mov	r3, r4
    c60c:	eafff92b 	b	aac0 <Process_Out.constprop.1+0xdb8>
    c610:	e3a00000 	mov	r0, #0
    c614:	e1a03004 	mov	r3, r4
    c618:	e1a0e005 	mov	lr, r5
    c61c:	e3a04010 	mov	r4, #16
    c620:	e1a0c000 	mov	ip, r0
    c624:	eafffe92 	b	c074 <Process_Out.constprop.1+0x236c>
    c628:	e3a00000 	mov	r0, #0
    c62c:	e1a03004 	mov	r3, r4
    c630:	e1a0c000 	mov	ip, r0
    c634:	e3a0400a 	mov	r4, #10
    c638:	e1a0e000 	mov	lr, r0
    c63c:	eafffe8c 	b	c074 <Process_Out.constprop.1+0x236c>
    c640:	e2841001 	add	r1, r4, #1
    c644:	e1580001 	cmp	r8, r1
    c648:	9afff5df 	bls	9dcc <Process_Out.constprop.1+0xc4>
    c64c:	e59d3000 	ldr	r3, [sp]
    c650:	e7d33001 	ldrb	r3, [r3, r1]
    c654:	e353002a 	cmp	r3, #42	; 0x2a
    c658:	0a000018 	beq	c6c0 <Process_Out.constprop.1+0x29b8>
    c65c:	e3e02000 	mvn	r2, #0
    c660:	e59d3000 	ldr	r3, [sp]
    c664:	e58d6020 	str	r6, [sp, #32]
    c668:	e0833004 	add	r3, r3, r4
    c66c:	e1a0a002 	mov	sl, r2
    c670:	e1a04001 	mov	r4, r1
    c674:	e1a06003 	mov	r6, r3
    c678:	ea000003 	b	c68c <Process_Out.constprop.1+0x2984>
    c67c:	e2844001 	add	r4, r4, #1
    c680:	e1580004 	cmp	r8, r4
    c684:	e6afa072 	sxtb	sl, r2
    c688:	9afff5cf 	bls	9dcc <Process_Out.constprop.1+0xc4>
    c68c:	eb00183c 	bl	12784 <__locale_ctype_ptr>
    c690:	e5f61001 	ldrb	r1, [r6, #1]!
    c694:	e1ca2fca 	bic	r2, sl, sl, asr #31
    c698:	e0800001 	add	r0, r0, r1
    c69c:	e5d00001 	ldrb	r0, [r0, #1]
    c6a0:	e0822102 	add	r2, r2, r2, lsl #2
    c6a4:	e241c030 	sub	ip, r1, #48	; 0x30
    c6a8:	e3100004 	tst	r0, #4
    c6ac:	e08c2082 	add	r2, ip, r2, lsl #1
    c6b0:	1afffff1 	bne	c67c <Process_Out.constprop.1+0x2974>
    c6b4:	e58da01c 	str	sl, [sp, #28]
    c6b8:	e59d6020 	ldr	r6, [sp, #32]
    c6bc:	eafff608 	b	9ee4 <Process_Out.constprop.1+0x1dc>
    c6c0:	e2844002 	add	r4, r4, #2
    c6c4:	e1580004 	cmp	r8, r4
    c6c8:	9afff5bf 	bls	9dcc <Process_Out.constprop.1+0xc4>
    c6cc:	e59d2014 	ldr	r2, [sp, #20]
    c6d0:	e59d1000 	ldr	r1, [sp]
    c6d4:	e1d230d0 	ldrsb	r3, [r2]
    c6d8:	e7d11004 	ldrb	r1, [r1, r4]
    c6dc:	e1c33fc3 	bic	r3, r3, r3, asr #31
    c6e0:	e58d301c 	str	r3, [sp, #28]
    c6e4:	e2823004 	add	r3, r2, #4
    c6e8:	e58d3014 	str	r3, [sp, #20]
    c6ec:	eafff5fc 	b	9ee4 <Process_Out.constprop.1+0x1dc>
    c6f0:	e3a02000 	mov	r2, #0
    c6f4:	e58d2014 	str	r2, [sp, #20]
    c6f8:	eafff791 	b	a544 <Process_Out.constprop.1+0x83c>
    c6fc:	e3a02000 	mov	r2, #0
    c700:	e58d2038 	str	r2, [sp, #56]	; 0x38
    c704:	eafffd98 	b	bd6c <Process_Out.constprop.1+0x2064>
    c708:	e3a02000 	mov	r2, #0
    c70c:	e58d2038 	str	r2, [sp, #56]	; 0x38
    c710:	eafffc8a 	b	b940 <Process_Out.constprop.1+0x1c38>
    c714:	e3a02000 	mov	r2, #0
    c718:	e58d2038 	str	r2, [sp, #56]	; 0x38
    c71c:	eafffe99 	b	c188 <Process_Out.constprop.1+0x2480>
    c720:	e3a02000 	mov	r2, #0
    c724:	e58d203c 	str	r2, [sp, #60]	; 0x3c
    c728:	eafffa90 	b	b170 <Process_Out.constprop.1+0x1468>
    c72c:	e3500000 	cmp	r0, #0
    c730:	cafff702 	bgt	a340 <Process_Out.constprop.1+0x638>
    c734:	eafff718 	b	a39c <Process_Out.constprop.1+0x694>
    c738:	e59d2030 	ldr	r2, [sp, #48]	; 0x30
    c73c:	e2644000 	rsb	r4, r4, #0
    c740:	e2422001 	sub	r2, r2, #1
    c744:	e58d2030 	str	r2, [sp, #48]	; 0x30
    c748:	e3a0202d 	mov	r2, #45	; 0x2d
    c74c:	e58d2014 	str	r2, [sp, #20]
    c750:	e3a07000 	mov	r7, #0
    c754:	e58d6050 	str	r6, [sp, #80]	; 0x50
    c758:	e28db057 	add	fp, sp, #87	; 0x57
    c75c:	e58d304c 	str	r3, [sp, #76]	; 0x4c
    c760:	e59da034 	ldr	sl, [sp, #52]	; 0x34
    c764:	e1a06007 	mov	r6, r7
    c768:	ea000000 	b	c770 <Process_Out.constprop.1+0x2a68>
    c76c:	e1a06003 	mov	r6, r3
    c770:	e1a00004 	mov	r0, r4
    c774:	e1a01009 	mov	r1, r9
    c778:	eb002c9d 	bl	179f4 <__aeabi_idivmod>
    c77c:	e1a07001 	mov	r7, r1
    c780:	e1a00004 	mov	r0, r4
    c784:	e1a01009 	mov	r1, r9
    c788:	eb002c4f 	bl	178cc <__divsi3>
    c78c:	e59f34cc 	ldr	r3, [pc, #1228]	; cc60 <Process_Out.constprop.1+0x2f58>
    c790:	e2504000 	subs	r4, r0, #0
    c794:	e7d33007 	ldrb	r3, [r3, r7]
    c798:	e18a3003 	orr	r3, sl, r3
    c79c:	e5eb3001 	strb	r3, [fp, #1]!
    c7a0:	e2863001 	add	r3, r6, #1
    c7a4:	1afffff0 	bne	c76c <Process_Out.constprop.1+0x2a64>
    c7a8:	e1a02003 	mov	r2, r3
    c7ac:	e1a07006 	mov	r7, r6
    c7b0:	e59d304c 	ldr	r3, [sp, #76]	; 0x4c
    c7b4:	e59d6050 	ldr	r6, [sp, #80]	; 0x50
    c7b8:	eafff767 	b	a55c <Process_Out.constprop.1+0x854>
    c7bc:	e24b2001 	sub	r2, fp, #1
    c7c0:	e58d2014 	str	r2, [sp, #20]
    c7c4:	e3a0202d 	mov	r2, #45	; 0x2d
    c7c8:	e2677000 	rsb	r7, r7, #0
    c7cc:	e58d2038 	str	r2, [sp, #56]	; 0x38
    c7d0:	e3a0a000 	mov	sl, #0
    c7d4:	e58d6054 	str	r6, [sp, #84]	; 0x54
    c7d8:	e28db057 	add	fp, sp, #87	; 0x57
    c7dc:	e1a0600a 	mov	r6, sl
    c7e0:	e58d3050 	str	r3, [sp, #80]	; 0x50
    c7e4:	e59d903c 	ldr	r9, [sp, #60]	; 0x3c
    c7e8:	e1a0a008 	mov	sl, r8
    c7ec:	ea000000 	b	c7f4 <Process_Out.constprop.1+0x2aec>
    c7f0:	e1a06002 	mov	r6, r2
    c7f4:	e1a00007 	mov	r0, r7
    c7f8:	e1a01004 	mov	r1, r4
    c7fc:	eb002c7c 	bl	179f4 <__aeabi_idivmod>
    c800:	e1a08001 	mov	r8, r1
    c804:	e1a00007 	mov	r0, r7
    c808:	e1a01004 	mov	r1, r4
    c80c:	eb002c2e 	bl	178cc <__divsi3>
    c810:	e59f3448 	ldr	r3, [pc, #1096]	; cc60 <Process_Out.constprop.1+0x2f58>
    c814:	e2507000 	subs	r7, r0, #0
    c818:	e7d33008 	ldrb	r3, [r3, r8]
    c81c:	e2862001 	add	r2, r6, #1
    c820:	e1893003 	orr	r3, r9, r3
    c824:	e5eb3001 	strb	r3, [fp, #1]!
    c828:	1afffff0 	bne	c7f0 <Process_Out.constprop.1+0x2ae8>
    c82c:	e1a0800a 	mov	r8, sl
    c830:	e59d3050 	ldr	r3, [sp, #80]	; 0x50
    c834:	e1a0a006 	mov	sl, r6
    c838:	e59d6054 	ldr	r6, [sp, #84]	; 0x54
    c83c:	eafffc45 	b	b958 <Process_Out.constprop.1+0x1c50>
    c840:	e24b2001 	sub	r2, fp, #1
    c844:	e58d2014 	str	r2, [sp, #20]
    c848:	e3a0202d 	mov	r2, #45	; 0x2d
    c84c:	e26aa000 	rsb	sl, sl, #0
    c850:	e58d2038 	str	r2, [sp, #56]	; 0x38
    c854:	e3a07000 	mov	r7, #0
    c858:	e58d6054 	str	r6, [sp, #84]	; 0x54
    c85c:	e28db057 	add	fp, sp, #87	; 0x57
    c860:	e58d3050 	str	r3, [sp, #80]	; 0x50
    c864:	e59d903c 	ldr	r9, [sp, #60]	; 0x3c
    c868:	e1a06007 	mov	r6, r7
    c86c:	ea000000 	b	c874 <Process_Out.constprop.1+0x2b6c>
    c870:	e1a06002 	mov	r6, r2
    c874:	e1a0000a 	mov	r0, sl
    c878:	e1a01004 	mov	r1, r4
    c87c:	eb002c5c 	bl	179f4 <__aeabi_idivmod>
    c880:	e1a07001 	mov	r7, r1
    c884:	e1a0000a 	mov	r0, sl
    c888:	e1a01004 	mov	r1, r4
    c88c:	eb002c0e 	bl	178cc <__divsi3>
    c890:	e59f33c8 	ldr	r3, [pc, #968]	; cc60 <Process_Out.constprop.1+0x2f58>
    c894:	e250a000 	subs	sl, r0, #0
    c898:	e7d33007 	ldrb	r3, [r3, r7]
    c89c:	e2862001 	add	r2, r6, #1
    c8a0:	e1893003 	orr	r3, r9, r3
    c8a4:	e5eb3001 	strb	r3, [fp, #1]!
    c8a8:	1afffff0 	bne	c870 <Process_Out.constprop.1+0x2b68>
    c8ac:	e1a07006 	mov	r7, r6
    c8b0:	e59d3050 	ldr	r3, [sp, #80]	; 0x50
    c8b4:	e59d6054 	ldr	r6, [sp, #84]	; 0x54
    c8b8:	eafffd31 	b	bd84 <Process_Out.constprop.1+0x207c>
    c8bc:	e24b2001 	sub	r2, fp, #1
    c8c0:	e58d2014 	str	r2, [sp, #20]
    c8c4:	e3a0202d 	mov	r2, #45	; 0x2d
    c8c8:	e26aa000 	rsb	sl, sl, #0
    c8cc:	e58d2038 	str	r2, [sp, #56]	; 0x38
    c8d0:	e3a09000 	mov	r9, #0
    c8d4:	e58d6054 	str	r6, [sp, #84]	; 0x54
    c8d8:	e28db057 	add	fp, sp, #87	; 0x57
    c8dc:	e1a06009 	mov	r6, r9
    c8e0:	e58d3050 	str	r3, [sp, #80]	; 0x50
    c8e4:	e59d703c 	ldr	r7, [sp, #60]	; 0x3c
    c8e8:	e1a09008 	mov	r9, r8
    c8ec:	ea000000 	b	c8f4 <Process_Out.constprop.1+0x2bec>
    c8f0:	e1a06000 	mov	r6, r0
    c8f4:	e1a0000a 	mov	r0, sl
    c8f8:	e1a01004 	mov	r1, r4
    c8fc:	eb002c3c 	bl	179f4 <__aeabi_idivmod>
    c900:	e1a08001 	mov	r8, r1
    c904:	e1a0000a 	mov	r0, sl
    c908:	e1a01004 	mov	r1, r4
    c90c:	eb002bee 	bl	178cc <__divsi3>
    c910:	e59f3348 	ldr	r3, [pc, #840]	; cc60 <Process_Out.constprop.1+0x2f58>
    c914:	e250a000 	subs	sl, r0, #0
    c918:	e7d33008 	ldrb	r3, [r3, r8]
    c91c:	e2860001 	add	r0, r6, #1
    c920:	e1873003 	orr	r3, r7, r3
    c924:	e5eb3001 	strb	r3, [fp, #1]!
    c928:	1afffff0 	bne	c8f0 <Process_Out.constprop.1+0x2be8>
    c92c:	e1a08009 	mov	r8, r9
    c930:	e59d3050 	ldr	r3, [sp, #80]	; 0x50
    c934:	e1a09006 	mov	r9, r6
    c938:	e59d6054 	ldr	r6, [sp, #84]	; 0x54
    c93c:	eafffe17 	b	c1a0 <Process_Out.constprop.1+0x2498>
    c940:	e24b2001 	sub	r2, fp, #1
    c944:	e58d2038 	str	r2, [sp, #56]	; 0x38
    c948:	e3a0202d 	mov	r2, #45	; 0x2d
    c94c:	e26aa000 	rsb	sl, sl, #0
    c950:	e58d203c 	str	r2, [sp, #60]	; 0x3c
    c954:	e3a09000 	mov	r9, #0
    c958:	e58d6054 	str	r6, [sp, #84]	; 0x54
    c95c:	e28db057 	add	fp, sp, #87	; 0x57
    c960:	e1a06009 	mov	r6, r9
    c964:	e58d3050 	str	r3, [sp, #80]	; 0x50
    c968:	e59d7040 	ldr	r7, [sp, #64]	; 0x40
    c96c:	e1a09008 	mov	r9, r8
    c970:	ea000000 	b	c978 <Process_Out.constprop.1+0x2c70>
    c974:	e1a06000 	mov	r6, r0
    c978:	e1a0000a 	mov	r0, sl
    c97c:	e1a01004 	mov	r1, r4
    c980:	eb002c1b 	bl	179f4 <__aeabi_idivmod>
    c984:	e1a08001 	mov	r8, r1
    c988:	e1a0000a 	mov	r0, sl
    c98c:	e1a01004 	mov	r1, r4
    c990:	eb002bcd 	bl	178cc <__divsi3>
    c994:	e59f32c4 	ldr	r3, [pc, #708]	; cc60 <Process_Out.constprop.1+0x2f58>
    c998:	e250a000 	subs	sl, r0, #0
    c99c:	e7d33008 	ldrb	r3, [r3, r8]
    c9a0:	e2860001 	add	r0, r6, #1
    c9a4:	e1873003 	orr	r3, r7, r3
    c9a8:	e5eb3001 	strb	r3, [fp, #1]!
    c9ac:	1afffff0 	bne	c974 <Process_Out.constprop.1+0x2c6c>
    c9b0:	e1a08009 	mov	r8, r9
    c9b4:	e59d3050 	ldr	r3, [sp, #80]	; 0x50
    c9b8:	e1a09006 	mov	r9, r6
    c9bc:	e59d6054 	ldr	r6, [sp, #84]	; 0x54
    c9c0:	eafff9f0 	b	b188 <Process_Out.constprop.1+0x1480>
    c9c4:	e3a02000 	mov	r2, #0
    c9c8:	e58d200c 	str	r2, [sp, #12]
    c9cc:	eafffae9 	b	b578 <Process_Out.constprop.1+0x1870>
    c9d0:	e3a02000 	mov	r2, #0
    c9d4:	e58d2038 	str	r2, [sp, #56]	; 0x38
    c9d8:	eafff8d4 	b	ad30 <Process_Out.constprop.1+0x1028>
    c9dc:	e24b2001 	sub	r2, fp, #1
    c9e0:	e58d2008 	str	r2, [sp, #8]
    c9e4:	e3a0202d 	mov	r2, #45	; 0x2d
    c9e8:	e26aa000 	rsb	sl, sl, #0
    c9ec:	e58d200c 	str	r2, [sp, #12]
    c9f0:	e3a07000 	mov	r7, #0
    c9f4:	e28d9057 	add	r9, sp, #87	; 0x57
    c9f8:	e58d6034 	str	r6, [sp, #52]	; 0x34
    c9fc:	e58d3030 	str	r3, [sp, #48]	; 0x30
    ca00:	e1a06009 	mov	r6, r9
    ca04:	e59db020 	ldr	fp, [sp, #32]
    ca08:	e1a09007 	mov	r9, r7
    ca0c:	ea000000 	b	ca14 <Process_Out.constprop.1+0x2d0c>
    ca10:	e1a09000 	mov	r9, r0
    ca14:	e1a0000a 	mov	r0, sl
    ca18:	e1a01004 	mov	r1, r4
    ca1c:	eb002bf4 	bl	179f4 <__aeabi_idivmod>
    ca20:	e1a07001 	mov	r7, r1
    ca24:	e1a0000a 	mov	r0, sl
    ca28:	e1a01004 	mov	r1, r4
    ca2c:	eb002ba6 	bl	178cc <__divsi3>
    ca30:	e59f3228 	ldr	r3, [pc, #552]	; cc60 <Process_Out.constprop.1+0x2f58>
    ca34:	e250a000 	subs	sl, r0, #0
    ca38:	e7d33007 	ldrb	r3, [r3, r7]
    ca3c:	e2890001 	add	r0, r9, #1
    ca40:	e18b3003 	orr	r3, fp, r3
    ca44:	e5e63001 	strb	r3, [r6, #1]!
    ca48:	1afffff0 	bne	ca10 <Process_Out.constprop.1+0x2d08>
    ca4c:	e59d3030 	ldr	r3, [sp, #48]	; 0x30
    ca50:	e1a07009 	mov	r7, r9
    ca54:	e59d6034 	ldr	r6, [sp, #52]	; 0x34
    ca58:	eafffacc 	b	b590 <Process_Out.constprop.1+0x1888>
    ca5c:	e24b2001 	sub	r2, fp, #1
    ca60:	e58d2014 	str	r2, [sp, #20]
    ca64:	e3a0202d 	mov	r2, #45	; 0x2d
    ca68:	e2677000 	rsb	r7, r7, #0
    ca6c:	e58d2038 	str	r2, [sp, #56]	; 0x38
    ca70:	e3a0a000 	mov	sl, #0
    ca74:	e58d6054 	str	r6, [sp, #84]	; 0x54
    ca78:	e28db057 	add	fp, sp, #87	; 0x57
    ca7c:	e1a0600a 	mov	r6, sl
    ca80:	e58d3050 	str	r3, [sp, #80]	; 0x50
    ca84:	e59d903c 	ldr	r9, [sp, #60]	; 0x3c
    ca88:	e1a0a008 	mov	sl, r8
    ca8c:	ea000000 	b	ca94 <Process_Out.constprop.1+0x2d8c>
    ca90:	e1a06003 	mov	r6, r3
    ca94:	e1a00007 	mov	r0, r7
    ca98:	e1a01004 	mov	r1, r4
    ca9c:	eb002bd4 	bl	179f4 <__aeabi_idivmod>
    caa0:	e1a08001 	mov	r8, r1
    caa4:	e1a00007 	mov	r0, r7
    caa8:	e1a01004 	mov	r1, r4
    caac:	eb002b86 	bl	178cc <__divsi3>
    cab0:	e59f31a8 	ldr	r3, [pc, #424]	; cc60 <Process_Out.constprop.1+0x2f58>
    cab4:	e2507000 	subs	r7, r0, #0
    cab8:	e7d33008 	ldrb	r3, [r3, r8]
    cabc:	e1893003 	orr	r3, r9, r3
    cac0:	e5eb3001 	strb	r3, [fp, #1]!
    cac4:	e2863001 	add	r3, r6, #1
    cac8:	1afffff0 	bne	ca90 <Process_Out.constprop.1+0x2d88>
    cacc:	e1a02003 	mov	r2, r3
    cad0:	e1a0800a 	mov	r8, sl
    cad4:	e59d3050 	ldr	r3, [sp, #80]	; 0x50
    cad8:	e1a0a006 	mov	sl, r6
    cadc:	e59d6054 	ldr	r6, [sp, #84]	; 0x54
    cae0:	eafff898 	b	ad48 <Process_Out.constprop.1+0x1040>
    cae4:	e59f217c 	ldr	r2, [pc, #380]	; cc68 <Process_Out.constprop.1+0x2f60>
    cae8:	e5922000 	ldr	r2, [r2]
    caec:	e3720001 	cmn	r2, #1
    caf0:	0a000003 	beq	cb04 <Process_Out.constprop.1+0x2dfc>
    caf4:	e59f116c 	ldr	r1, [pc, #364]	; cc68 <Process_Out.constprop.1+0x2f60>
    caf8:	e5911004 	ldr	r1, [r1, #4]
    cafc:	e1520001 	cmp	r2, r1
    cb00:	da000009 	ble	cb2c <Process_Out.constprop.1+0x2e24>
    cb04:	e59f215c 	ldr	r2, [pc, #348]	; cc68 <Process_Out.constprop.1+0x2f60>
    cb08:	e5921008 	ldr	r1, [r2, #8]
    cb0c:	e3510000 	cmp	r1, #0
    cb10:	0a000005 	beq	cb2c <Process_Out.constprop.1+0x2e24>
    cb14:	e5922004 	ldr	r2, [r2, #4]
    cb18:	e5ddc014 	ldrb	ip, [sp, #20]
    cb1c:	e2820001 	add	r0, r2, #1
    cb20:	e7c1c002 	strb	ip, [r1, r2]
    cb24:	e59f213c 	ldr	r2, [pc, #316]	; cc68 <Process_Out.constprop.1+0x2f60>
    cb28:	e5820004 	str	r0, [r2, #4]
    cb2c:	e2866001 	add	r6, r6, #1
    cb30:	eafff6fc 	b	a728 <Process_Out.constprop.1+0xa20>
    cb34:	e35e0000 	cmp	lr, #0
    cb38:	0a0004dc 	beq	deb0 <Process_Out.constprop.1+0x41a8>
    cb3c:	e28d2058 	add	r2, sp, #88	; 0x58
    cb40:	e2870001 	add	r0, r7, #1
    cb44:	e241c001 	sub	ip, r1, #1
    cb48:	e0820000 	add	r0, r2, r0
    cb4c:	e08ee00c 	add	lr, lr, ip
    cb50:	e570c001 	ldrb	ip, [r0, #-1]!
    cb54:	e0404002 	sub	r4, r0, r2
    cb58:	e3540000 	cmp	r4, #0
    cb5c:	e5eec001 	strb	ip, [lr, #1]!
    cb60:	cafffffa 	bgt	cb50 <Process_Out.constprop.1+0x2e48>
    cb64:	e28bc001 	add	ip, fp, #1
    cb68:	e2811001 	add	r1, r1, #1
    cb6c:	e08cc007 	add	ip, ip, r7
    cb70:	e0811007 	add	r1, r1, r7
    cb74:	e59f20ec 	ldr	r2, [pc, #236]	; cc68 <Process_Out.constprop.1+0x2f60>
    cb78:	e5821004 	str	r1, [r2, #4]
    cb7c:	eafffd21 	b	c008 <Process_Out.constprop.1+0x2300>
    cb80:	e59f20e0 	ldr	r2, [pc, #224]	; cc68 <Process_Out.constprop.1+0x2f60>
    cb84:	e5922000 	ldr	r2, [r2]
    cb88:	e3720001 	cmn	r2, #1
    cb8c:	0a000003 	beq	cba0 <Process_Out.constprop.1+0x2e98>
    cb90:	e59f10d0 	ldr	r1, [pc, #208]	; cc68 <Process_Out.constprop.1+0x2f60>
    cb94:	e5911004 	ldr	r1, [r1, #4]
    cb98:	e1520001 	cmp	r2, r1
    cb9c:	da000009 	ble	cbc8 <Process_Out.constprop.1+0x2ec0>
    cba0:	e59f20c0 	ldr	r2, [pc, #192]	; cc68 <Process_Out.constprop.1+0x2f60>
    cba4:	e5921008 	ldr	r1, [r2, #8]
    cba8:	e3510000 	cmp	r1, #0
    cbac:	0a000005 	beq	cbc8 <Process_Out.constprop.1+0x2ec0>
    cbb0:	e5922004 	ldr	r2, [r2, #4]
    cbb4:	e5ddc038 	ldrb	ip, [sp, #56]	; 0x38
    cbb8:	e2820001 	add	r0, r2, #1
    cbbc:	e7c1c002 	strb	ip, [r1, r2]
    cbc0:	e59f20a0 	ldr	r2, [pc, #160]	; cc68 <Process_Out.constprop.1+0x2f60>
    cbc4:	e5820004 	str	r0, [r2, #4]
    cbc8:	e28bb001 	add	fp, fp, #1
    cbcc:	eafffce6 	b	bf6c <Process_Out.constprop.1+0x2264>
    cbd0:	e35e0000 	cmp	lr, #0
    cbd4:	13a04030 	movne	r4, #48	; 0x30
    cbd8:	108e000c 	addne	r0, lr, ip
    cbdc:	0a000009 	beq	cc08 <Process_Out.constprop.1+0x2f00>
    cbe0:	e4c04001 	strb	r4, [r0], #1
    cbe4:	e1520001 	cmp	r2, r1
    cbe8:	e2411001 	sub	r1, r1, #1
    cbec:	e2866001 	add	r6, r6, #1
    cbf0:	e040c00e 	sub	ip, r0, lr
    cbf4:	e6af1071 	sxtb	r1, r1
    cbf8:	bafffff8 	blt	cbe0 <Process_Out.constprop.1+0x2ed8>
    cbfc:	e59f2064 	ldr	r2, [pc, #100]	; cc68 <Process_Out.constprop.1+0x2f60>
    cc00:	e582c004 	str	ip, [r2, #4]
    cc04:	eafff6c4 	b	a71c <Process_Out.constprop.1+0xa14>
    cc08:	e2410001 	sub	r0, r1, #1
    cc0c:	e1520001 	cmp	r2, r1
    cc10:	e2866001 	add	r6, r6, #1
    cc14:	e6af1070 	sxtb	r1, r0
    cc18:	bafffffa 	blt	cc08 <Process_Out.constprop.1+0x2f00>
    cc1c:	eafff6be 	b	a71c <Process_Out.constprop.1+0xa14>
    cc20:	e3500000 	cmp	r0, #0
    cc24:	108be002 	addne	lr, fp, r2
    cc28:	13a06020 	movne	r6, #32
    cc2c:	1080e00e 	addne	lr, r0, lr
    cc30:	10801002 	addne	r1, r0, r2
    cc34:	0a000461 	beq	ddc0 <Process_Out.constprop.1+0x40b8>
    cc38:	e4c16001 	strb	r6, [r1], #1
    cc3c:	e151000e 	cmp	r1, lr
    cc40:	1afffffc 	bne	cc38 <Process_Out.constprop.1+0x2f30>
    cc44:	e28cc001 	add	ip, ip, #1
    cc48:	e2822001 	add	r2, r2, #1
    cc4c:	e084c00c 	add	ip, r4, ip
    cc50:	e0822004 	add	r2, r2, r4
    cc54:	e59f100c 	ldr	r1, [pc, #12]	; cc68 <Process_Out.constprop.1+0x2f60>
    cc58:	e5812004 	str	r2, [r1, #4]
    cc5c:	eafff6f1 	b	a828 <Process_Out.constprop.1+0xb20>
    cc60:	00018688 	.word	0x00018688
    cc64:	00008b9c 	.word	0x00008b9c
    cc68:	000185c0 	.word	0x000185c0
    cc6c:	e204c01f 	and	ip, r4, #31
    cc70:	e181140c 	orr	r1, r1, ip, lsl #8
    cc74:	e59d201c 	ldr	r2, [sp, #28]
    cc78:	e6efc07b 	uxtb	ip, fp
    cc7c:	e181180c 	orr	r1, r1, ip, lsl #16
    cc80:	e1811c02 	orr	r1, r1, r2, lsl #24
    cc84:	e59d2014 	ldr	r2, [sp, #20]
    cc88:	e3100010 	tst	r0, #16
    cc8c:	e1d270d0 	ldrsb	r7, [r2]
    cc90:	e2820004 	add	r0, r2, #4
    cc94:	13a02000 	movne	r2, #0
    cc98:	e58d002c 	str	r0, [sp, #44]	; 0x2c
    cc9c:	e1a00421 	lsr	r0, r1, #8
    cca0:	e200001f 	and	r0, r0, #31
    cca4:	e240c008 	sub	ip, r0, #8
    cca8:	e20cc0f7 	and	ip, ip, #247	; 0xf7
    ccac:	059d2020 	ldreq	r2, [sp, #32]
    ccb0:	158d2020 	strne	r2, [sp, #32]
    ccb4:	158d2028 	strne	r2, [sp, #40]	; 0x28
    ccb8:	058d9028 	streq	r9, [sp, #40]	; 0x28
    ccbc:	e3500002 	cmp	r0, #2
    ccc0:	135c0000 	cmpne	ip, #0
    ccc4:	e20110fe 	and	r1, r1, #254	; 0xfe
    ccc8:	e1812002 	orr	r2, r1, r2
    cccc:	13a0400a 	movne	r4, #10
    ccd0:	e3120001 	tst	r2, #1
    ccd4:	03a01020 	moveq	r1, #32
    ccd8:	13a01030 	movne	r1, #48	; 0x30
    ccdc:	e58d2014 	str	r2, [sp, #20]
    cce0:	e3120002 	tst	r2, #2
    cce4:	e2022020 	and	r2, r2, #32
    cce8:	e58d1024 	str	r1, [sp, #36]	; 0x24
    ccec:	e58db008 	str	fp, [sp, #8]
    ccf0:	e58d2020 	str	r2, [sp, #32]
    ccf4:	0a0003aa 	beq	dba4 <Process_Out.constprop.1+0x3e9c>
    ccf8:	e3570000 	cmp	r7, #0
    ccfc:	ba000408 	blt	dd24 <Process_Out.constprop.1+0x401c>
    cd00:	e59d2014 	ldr	r2, [sp, #20]
    cd04:	e3120004 	tst	r2, #4
    cd08:	0a00066a 	beq	e6b8 <Process_Out.constprop.1+0x49b0>
    cd0c:	e24b2001 	sub	r2, fp, #1
    cd10:	e58d2008 	str	r2, [sp, #8]
    cd14:	e3a0202b 	mov	r2, #43	; 0x2b
    cd18:	e58d200c 	str	r2, [sp, #12]
    cd1c:	e3570000 	cmp	r7, #0
    cd20:	1a000404 	bne	dd38 <Process_Out.constprop.1+0x4030>
    cd24:	e3a02030 	mov	r2, #48	; 0x30
    cd28:	e3a0b000 	mov	fp, #0
    cd2c:	e1a00005 	mov	r0, r5
    cd30:	e5cd2058 	strb	r2, [sp, #88]	; 0x58
    cd34:	e59d201c 	ldr	r2, [sp, #28]
    cd38:	e1520000 	cmp	r2, r0
    cd3c:	b6af2070 	sxtblt	r2, r0
    cd40:	b58d201c 	strlt	r2, [sp, #28]
    cd44:	e59d2028 	ldr	r2, [sp, #40]	; 0x28
    cd48:	e59d101c 	ldr	r1, [sp, #28]
    cd4c:	e0966002 	adds	r6, r6, r2
    cd50:	e59d2008 	ldr	r2, [sp, #8]
    cd54:	13a06000 	movne	r6, #0
    cd58:	e042a001 	sub	sl, r2, r1
    cd5c:	1a000018 	bne	cdc4 <Process_Out.constprop.1+0x30bc>
    cd60:	e35a0000 	cmp	sl, #0
    cd64:	e24a7001 	sub	r7, sl, #1
    cd68:	da0006ae 	ble	e828 <Process_Out.constprop.1+0x4b20>
    cd6c:	e51f210c 	ldr	r2, [pc, #-268]	; cc68 <Process_Out.constprop.1+0x2f60>
    cd70:	e592e000 	ldr	lr, [r2]
    cd74:	e5921008 	ldr	r1, [r2, #8]
    cd78:	e37e0001 	cmn	lr, #1
    cd7c:	e5922004 	ldr	r2, [r2, #4]
    cd80:	0a00062d 	beq	e63c <Process_Out.constprop.1+0x4934>
    cd84:	e3510000 	cmp	r1, #0
    cd88:	0a000697 	beq	e7ec <Process_Out.constprop.1+0x4ae4>
    cd8c:	e3a06020 	mov	r6, #32
    cd90:	e59dc010 	ldr	ip, [sp, #16]
    cd94:	e152000e 	cmp	r2, lr
    cd98:	e2477001 	sub	r7, r7, #1
    cd9c:	b7c16002 	strblt	r6, [r1, r2]
    cda0:	b1a0c005 	movlt	ip, r5
    cda4:	b2822001 	addlt	r2, r2, #1
    cda8:	e3770001 	cmn	r7, #1
    cdac:	1afffff8 	bne	cd94 <Process_Out.constprop.1+0x308c>
    cdb0:	e35c0000 	cmp	ip, #0
    cdb4:	e3e01000 	mvn	r1, #0
    cdb8:	1a00062b 	bne	e66c <Process_Out.constprop.1+0x4964>
    cdbc:	e1a0600a 	mov	r6, sl
    cdc0:	e1a0a001 	mov	sl, r1
    cdc4:	e59d2014 	ldr	r2, [sp, #20]
    cdc8:	e3120011 	tst	r2, #17
    cdcc:	1a000019 	bne	ce38 <Process_Out.constprop.1+0x3130>
    cdd0:	e35a0000 	cmp	sl, #0
    cdd4:	e24a9001 	sub	r9, sl, #1
    cdd8:	da000685 	ble	e7f4 <Process_Out.constprop.1+0x4aec>
    cddc:	e51f217c 	ldr	r2, [pc, #-380]	; cc68 <Process_Out.constprop.1+0x2f60>
    cde0:	e592e000 	ldr	lr, [r2]
    cde4:	e5921008 	ldr	r1, [r2, #8]
    cde8:	e37e0001 	cmn	lr, #1
    cdec:	e5922004 	ldr	r2, [r2, #4]
    cdf0:	0a00064e 	beq	e730 <Process_Out.constprop.1+0x4a28>
    cdf4:	e3510000 	cmp	r1, #0
    cdf8:	0a000677 	beq	e7dc <Process_Out.constprop.1+0x4ad4>
    cdfc:	e1a0c009 	mov	ip, r9
    ce00:	e59d7010 	ldr	r7, [sp, #16]
    ce04:	e152000e 	cmp	r2, lr
    ce08:	b5dda024 	ldrblt	sl, [sp, #36]	; 0x24
    ce0c:	e24cc001 	sub	ip, ip, #1
    ce10:	b7c1a002 	strblt	sl, [r1, r2]
    ce14:	b1a07005 	movlt	r7, r5
    ce18:	b2822001 	addlt	r2, r2, #1
    ce1c:	e37c0001 	cmn	ip, #1
    ce20:	1afffff7 	bne	ce04 <Process_Out.constprop.1+0x30fc>
    ce24:	e2866001 	add	r6, r6, #1
    ce28:	e3570000 	cmp	r7, #0
    ce2c:	e0896006 	add	r6, r9, r6
    ce30:	e3e0a000 	mvn	sl, #0
    ce34:	1a00064b 	bne	e768 <Process_Out.constprop.1+0x4a60>
    ce38:	e59d201c 	ldr	r2, [sp, #28]
    ce3c:	e1500002 	cmp	r0, r2
    ce40:	e2422001 	sub	r2, r2, #1
    ce44:	e6af2072 	sxtb	r2, r2
    ce48:	aa000015 	bge	cea4 <Process_Out.constprop.1+0x319c>
    ce4c:	e51f11ec 	ldr	r1, [pc, #-492]	; cc68 <Process_Out.constprop.1+0x2f60>
    ce50:	e8911080 	ldm	r1, {r7, ip}
    ce54:	e3770001 	cmn	r7, #1
    ce58:	e591e008 	ldr	lr, [r1, #8]
    ce5c:	0a000644 	beq	e774 <Process_Out.constprop.1+0x4a6c>
    ce60:	e35e0000 	cmp	lr, #0
    ce64:	159d9010 	ldrne	r9, [sp, #16]
    ce68:	158d3008 	strne	r3, [sp, #8]
    ce6c:	0a00005a 	beq	cfdc <Process_Out.constprop.1+0x32d4>
    ce70:	e15c0007 	cmp	ip, r7
    ce74:	b3a03030 	movlt	r3, #48	; 0x30
    ce78:	e2421001 	sub	r1, r2, #1
    ce7c:	b7ce300c 	strblt	r3, [lr, ip]
    ce80:	b1a09005 	movlt	r9, r5
    ce84:	b28cc001 	addlt	ip, ip, #1
    ce88:	e1500002 	cmp	r0, r2
    ce8c:	e2866001 	add	r6, r6, #1
    ce90:	e6af2071 	sxtb	r2, r1
    ce94:	bafffff5 	blt	ce70 <Process_Out.constprop.1+0x3168>
    ce98:	e3590000 	cmp	r9, #0
    ce9c:	e59d3008 	ldr	r3, [sp, #8]
    cea0:	1a00063e 	bne	e7a0 <Process_Out.constprop.1+0x4a98>
    cea4:	e59d200c 	ldr	r2, [sp, #12]
    cea8:	e3520000 	cmp	r2, #0
    ceac:	0a000004 	beq	cec4 <Process_Out.constprop.1+0x31bc>
    ceb0:	e1a00002 	mov	r0, r2
    ceb4:	e58d3008 	str	r3, [sp, #8]
    ceb8:	ebffef37 	bl	8b9c <Buffer_WriteChar>
    cebc:	e59d3008 	ldr	r3, [sp, #8]
    cec0:	e2866001 	add	r6, r6, #1
    cec4:	e59d2014 	ldr	r2, [sp, #20]
    cec8:	e3120040 	tst	r2, #64	; 0x40
    cecc:	0a00000b 	beq	cf00 <Process_Out.constprop.1+0x31f8>
    ced0:	e3540008 	cmp	r4, #8
    ced4:	0a00063a 	beq	e7c4 <Process_Out.constprop.1+0x4abc>
    ced8:	e3540010 	cmp	r4, #16
    cedc:	1a000007 	bne	cf00 <Process_Out.constprop.1+0x31f8>
    cee0:	e3a00030 	mov	r0, #48	; 0x30
    cee4:	e58d3008 	str	r3, [sp, #8]
    cee8:	ebffef2b 	bl	8b9c <Buffer_WriteChar>
    ceec:	e59d3020 	ldr	r3, [sp, #32]
    cef0:	e2866002 	add	r6, r6, #2
    cef4:	e3830058 	orr	r0, r3, #88	; 0x58
    cef8:	ebffef27 	bl	8b9c <Buffer_WriteChar>
    cefc:	e59d3008 	ldr	r3, [sp, #8]
    cf00:	e51f22a0 	ldr	r2, [pc, #-672]	; cc68 <Process_Out.constprop.1+0x2f60>
    cf04:	e592e000 	ldr	lr, [r2]
    cf08:	e5921004 	ldr	r1, [r2, #4]
    cf0c:	e37e0001 	cmn	lr, #1
    cf10:	e592c008 	ldr	ip, [r2, #8]
    cf14:	0a0004a8 	beq	e1bc <Process_Out.constprop.1+0x44b4>
    cf18:	e35c0000 	cmp	ip, #0
    cf1c:	0a00064e 	beq	e85c <Process_Out.constprop.1+0x4b54>
    cf20:	e1a0200b 	mov	r2, fp
    cf24:	e59d4010 	ldr	r4, [sp, #16]
    cf28:	e151000e 	cmp	r1, lr
    cf2c:	b28d0058 	addlt	r0, sp, #88	; 0x58
    cf30:	b7d00002 	ldrblt	r0, [r0, r2]
    cf34:	e2422001 	sub	r2, r2, #1
    cf38:	b7cc0001 	strblt	r0, [ip, r1]
    cf3c:	e2820001 	add	r0, r2, #1
    cf40:	b1a04005 	movlt	r4, r5
    cf44:	b2811001 	addlt	r1, r1, #1
    cf48:	e3500000 	cmp	r0, #0
    cf4c:	cafffff5 	bgt	cf28 <Process_Out.constprop.1+0x3220>
    cf50:	e2866001 	add	r6, r6, #1
    cf54:	e3540000 	cmp	r4, #0
    cf58:	e086200b 	add	r2, r6, fp
    cf5c:	1a0004a6 	bne	e1fc <Process_Out.constprop.1+0x44f4>
    cf60:	e35a0000 	cmp	sl, #0
    cf64:	e24ae001 	sub	lr, sl, #1
    cf68:	da000015 	ble	cfc4 <Process_Out.constprop.1+0x32bc>
    cf6c:	e51f130c 	ldr	r1, [pc, #-780]	; cc68 <Process_Out.constprop.1+0x2f60>
    cf70:	e5914000 	ldr	r4, [r1]
    cf74:	e5910008 	ldr	r0, [r1, #8]
    cf78:	e3740001 	cmn	r4, #1
    cf7c:	e5911004 	ldr	r1, [r1, #4]
    cf80:	0a0005bc 	beq	e678 <Process_Out.constprop.1+0x4970>
    cf84:	e3500000 	cmp	r0, #0
    cf88:	0a000628 	beq	e830 <Process_Out.constprop.1+0x4b28>
    cf8c:	e1a0c00e 	mov	ip, lr
    cf90:	e3a07020 	mov	r7, #32
    cf94:	e59d6010 	ldr	r6, [sp, #16]
    cf98:	e1510004 	cmp	r1, r4
    cf9c:	e24cc001 	sub	ip, ip, #1
    cfa0:	b7c07001 	strblt	r7, [r0, r1]
    cfa4:	b1a06005 	movlt	r6, r5
    cfa8:	b2811001 	addlt	r1, r1, #1
    cfac:	e37c0001 	cmn	ip, #1
    cfb0:	1afffff8 	bne	cf98 <Process_Out.constprop.1+0x3290>
    cfb4:	e2822001 	add	r2, r2, #1
    cfb8:	e3560000 	cmp	r6, #0
    cfbc:	e08e2002 	add	r2, lr, r2
    cfc0:	1a0005b9 	bne	e6ac <Process_Out.constprop.1+0x49a4>
    cfc4:	e59d1004 	ldr	r1, [sp, #4]
    cfc8:	e0812002 	add	r2, r1, r2
    cfcc:	e58d2004 	str	r2, [sp, #4]
    cfd0:	e59d202c 	ldr	r2, [sp, #44]	; 0x2c
    cfd4:	e58d2014 	str	r2, [sp, #20]
    cfd8:	eafff375 	b	9db4 <Process_Out.constprop.1+0xac>
    cfdc:	e2421001 	sub	r1, r2, #1
    cfe0:	e1500002 	cmp	r0, r2
    cfe4:	e2866001 	add	r6, r6, #1
    cfe8:	e6af2071 	sxtb	r2, r1
    cfec:	bafffffa 	blt	cfdc <Process_Out.constprop.1+0x32d4>
    cff0:	eaffffab 	b	cea4 <Process_Out.constprop.1+0x319c>
    cff4:	e59d2014 	ldr	r2, [sp, #20]
    cff8:	e204c01f 	and	ip, r4, #31
    cffc:	e2827007 	add	r7, r2, #7
    d000:	e181140c 	orr	r1, r1, ip, lsl #8
    d004:	e59d201c 	ldr	r2, [sp, #28]
    d008:	e6efe07b 	uxtb	lr, fp
    d00c:	e3c7c007 	bic	ip, r7, #7
    d010:	e181180e 	orr	r1, r1, lr, lsl #16
    d014:	e3100010 	tst	r0, #16
    d018:	e1811c02 	orr	r1, r1, r2, lsl #24
    d01c:	e28c2008 	add	r2, ip, #8
    d020:	e58d2014 	str	r2, [sp, #20]
    d024:	13a02000 	movne	r2, #0
    d028:	e1a00421 	lsr	r0, r1, #8
    d02c:	e200001f 	and	r0, r0, #31
    d030:	e59c7000 	ldr	r7, [ip]
    d034:	e240c008 	sub	ip, r0, #8
    d038:	e20cc0f7 	and	ip, ip, #247	; 0xf7
    d03c:	059d2020 	ldreq	r2, [sp, #32]
    d040:	158d2048 	strne	r2, [sp, #72]	; 0x48
    d044:	158d2020 	strne	r2, [sp, #32]
    d048:	058d9048 	streq	r9, [sp, #72]	; 0x48
    d04c:	e3500002 	cmp	r0, #2
    d050:	135c0000 	cmpne	ip, #0
    d054:	e3c11001 	bic	r1, r1, #1
    d058:	e1822001 	orr	r2, r2, r1
    d05c:	e6ef1072 	uxtb	r1, r2
    d060:	13a0400a 	movne	r4, #10
    d064:	e3110001 	tst	r1, #1
    d068:	e58d204c 	str	r2, [sp, #76]	; 0x4c
    d06c:	03a02020 	moveq	r2, #32
    d070:	13a02030 	movne	r2, #48	; 0x30
    d074:	e3110002 	tst	r1, #2
    d078:	e58d2044 	str	r2, [sp, #68]	; 0x44
    d07c:	e2012020 	and	r2, r1, #32
    d080:	e58db038 	str	fp, [sp, #56]	; 0x38
    d084:	e58d2040 	str	r2, [sp, #64]	; 0x40
    d088:	0a0002c2 	beq	db98 <Process_Out.constprop.1+0x3e90>
    d08c:	e3570000 	cmp	r7, #0
    d090:	ba000300 	blt	dc98 <Process_Out.constprop.1+0x3f90>
    d094:	e3110004 	tst	r1, #4
    d098:	0a000560 	beq	e620 <Process_Out.constprop.1+0x4918>
    d09c:	e24b2001 	sub	r2, fp, #1
    d0a0:	e58d2038 	str	r2, [sp, #56]	; 0x38
    d0a4:	e3a0202b 	mov	r2, #43	; 0x2b
    d0a8:	e58d203c 	str	r2, [sp, #60]	; 0x3c
    d0ac:	e3570000 	cmp	r7, #0
    d0b0:	1a0002fd 	bne	dcac <Process_Out.constprop.1+0x3fa4>
    d0b4:	e3a02030 	mov	r2, #48	; 0x30
    d0b8:	e3a09000 	mov	r9, #0
    d0bc:	e5cd2058 	strb	r2, [sp, #88]	; 0x58
    d0c0:	e1a02005 	mov	r2, r5
    d0c4:	e59d101c 	ldr	r1, [sp, #28]
    d0c8:	e1510002 	cmp	r1, r2
    d0cc:	b6af1072 	sxtblt	r1, r2
    d0d0:	b58d101c 	strlt	r1, [sp, #28]
    d0d4:	e59d1048 	ldr	r1, [sp, #72]	; 0x48
    d0d8:	e59d001c 	ldr	r0, [sp, #28]
    d0dc:	e096b001 	adds	fp, r6, r1
    d0e0:	e59d1038 	ldr	r1, [sp, #56]	; 0x38
    d0e4:	13a0b000 	movne	fp, #0
    d0e8:	e041a000 	sub	sl, r1, r0
    d0ec:	1a000018 	bne	d154 <Process_Out.constprop.1+0x344c>
    d0f0:	e35a0000 	cmp	sl, #0
    d0f4:	e24a6001 	sub	r6, sl, #1
    d0f8:	da0005d2 	ble	e848 <Process_Out.constprop.1+0x4b40>
    d0fc:	e51f149c 	ldr	r1, [pc, #-1180]	; cc68 <Process_Out.constprop.1+0x2f60>
    d100:	e591e000 	ldr	lr, [r1]
    d104:	e5910008 	ldr	r0, [r1, #8]
    d108:	e37e0001 	cmn	lr, #1
    d10c:	e5911004 	ldr	r1, [r1, #4]
    d110:	0a000517 	beq	e574 <Process_Out.constprop.1+0x486c>
    d114:	e3500000 	cmp	r0, #0
    d118:	0a0005be 	beq	e818 <Process_Out.constprop.1+0x4b10>
    d11c:	e3a07020 	mov	r7, #32
    d120:	e59dc010 	ldr	ip, [sp, #16]
    d124:	e151000e 	cmp	r1, lr
    d128:	e2466001 	sub	r6, r6, #1
    d12c:	b7c07001 	strblt	r7, [r0, r1]
    d130:	b1a0c005 	movlt	ip, r5
    d134:	b2811001 	addlt	r1, r1, #1
    d138:	e3760001 	cmn	r6, #1
    d13c:	1afffff8 	bne	d124 <Process_Out.constprop.1+0x341c>
    d140:	e35c0000 	cmp	ip, #0
    d144:	e3e00000 	mvn	r0, #0
    d148:	1a000515 	bne	e5a4 <Process_Out.constprop.1+0x489c>
    d14c:	e1a0b00a 	mov	fp, sl
    d150:	e1a0a000 	mov	sl, r0
    d154:	e59d104c 	ldr	r1, [sp, #76]	; 0x4c
    d158:	e59d0020 	ldr	r0, [sp, #32]
    d15c:	e3c11001 	bic	r1, r1, #1
    d160:	e1801001 	orr	r1, r0, r1
    d164:	e59d0030 	ldr	r0, [sp, #48]	; 0x30
    d168:	e3c11002 	bic	r1, r1, #2
    d16c:	e1811080 	orr	r1, r1, r0, lsl #1
    d170:	e59d000c 	ldr	r0, [sp, #12]
    d174:	e3c11004 	bic	r1, r1, #4
    d178:	e1811100 	orr	r1, r1, r0, lsl #2
    d17c:	e59d0024 	ldr	r0, [sp, #36]	; 0x24
    d180:	e3c11008 	bic	r1, r1, #8
    d184:	e1811180 	orr	r1, r1, r0, lsl #3
    d188:	e59d002c 	ldr	r0, [sp, #44]	; 0x2c
    d18c:	e3c11010 	bic	r1, r1, #16
    d190:	e1811200 	orr	r1, r1, r0, lsl #4
    d194:	e59d0034 	ldr	r0, [sp, #52]	; 0x34
    d198:	e3c11020 	bic	r1, r1, #32
    d19c:	e1811280 	orr	r1, r1, r0, lsl #5
    d1a0:	e59d0028 	ldr	r0, [sp, #40]	; 0x28
    d1a4:	e3c11040 	bic	r1, r1, #64	; 0x40
    d1a8:	e1811300 	orr	r1, r1, r0, lsl #6
    d1ac:	e59d0008 	ldr	r0, [sp, #8]
    d1b0:	e3c11080 	bic	r1, r1, #128	; 0x80
    d1b4:	e1811380 	orr	r1, r1, r0, lsl #7
    d1b8:	e6ef1071 	uxtb	r1, r1
    d1bc:	e3110010 	tst	r1, #16
    d1c0:	e58d1008 	str	r1, [sp, #8]
    d1c4:	1a000019 	bne	d230 <Process_Out.constprop.1+0x3528>
    d1c8:	e35a0000 	cmp	sl, #0
    d1cc:	e24a7001 	sub	r7, sl, #1
    d1d0:	da000592 	ble	e820 <Process_Out.constprop.1+0x4b18>
    d1d4:	e51f1574 	ldr	r1, [pc, #-1396]	; cc68 <Process_Out.constprop.1+0x2f60>
    d1d8:	e5916000 	ldr	r6, [r1]
    d1dc:	e5910008 	ldr	r0, [r1, #8]
    d1e0:	e3760001 	cmn	r6, #1
    d1e4:	e5911004 	ldr	r1, [r1, #4]
    d1e8:	0a00053f 	beq	e6ec <Process_Out.constprop.1+0x49e4>
    d1ec:	e3500000 	cmp	r0, #0
    d1f0:	0a00059e 	beq	e870 <Process_Out.constprop.1+0x4b68>
    d1f4:	e1a0c007 	mov	ip, r7
    d1f8:	e59de010 	ldr	lr, [sp, #16]
    d1fc:	e1510006 	cmp	r1, r6
    d200:	b5dda044 	ldrblt	sl, [sp, #68]	; 0x44
    d204:	e24cc001 	sub	ip, ip, #1
    d208:	b7c0a001 	strblt	sl, [r0, r1]
    d20c:	b1a0e005 	movlt	lr, r5
    d210:	b2811001 	addlt	r1, r1, #1
    d214:	e37c0001 	cmn	ip, #1
    d218:	1afffff7 	bne	d1fc <Process_Out.constprop.1+0x34f4>
    d21c:	e28b6001 	add	r6, fp, #1
    d220:	e35e0000 	cmp	lr, #0
    d224:	e087b006 	add	fp, r7, r6
    d228:	e3e0a000 	mvn	sl, #0
    d22c:	1a00053c 	bne	e724 <Process_Out.constprop.1+0x4a1c>
    d230:	e59d101c 	ldr	r1, [sp, #28]
    d234:	e1520001 	cmp	r2, r1
    d238:	e2411001 	sub	r1, r1, #1
    d23c:	e6af1071 	sxtb	r1, r1
    d240:	aa000015 	bge	d29c <Process_Out.constprop.1+0x3594>
    d244:	e51f05e4 	ldr	r0, [pc, #-1508]	; cc68 <Process_Out.constprop.1+0x2f60>
    d248:	e8901040 	ldm	r0, {r6, ip}
    d24c:	e3760001 	cmn	r6, #1
    d250:	e590e008 	ldr	lr, [r0, #8]
    d254:	0a00047d 	beq	e450 <Process_Out.constprop.1+0x4748>
    d258:	e35e0000 	cmp	lr, #0
    d25c:	159d7010 	ldrne	r7, [sp, #16]
    d260:	158d300c 	strne	r3, [sp, #12]
    d264:	0a000058 	beq	d3cc <Process_Out.constprop.1+0x36c4>
    d268:	e15c0006 	cmp	ip, r6
    d26c:	b3a03030 	movlt	r3, #48	; 0x30
    d270:	e2410001 	sub	r0, r1, #1
    d274:	b7ce300c 	strblt	r3, [lr, ip]
    d278:	b1a07005 	movlt	r7, r5
    d27c:	b28cc001 	addlt	ip, ip, #1
    d280:	e1520001 	cmp	r2, r1
    d284:	e28bb001 	add	fp, fp, #1
    d288:	e6af1070 	sxtb	r1, r0
    d28c:	bafffff5 	blt	d268 <Process_Out.constprop.1+0x3560>
    d290:	e3570000 	cmp	r7, #0
    d294:	e59d300c 	ldr	r3, [sp, #12]
    d298:	1a000477 	bne	e47c <Process_Out.constprop.1+0x4774>
    d29c:	e59d203c 	ldr	r2, [sp, #60]	; 0x3c
    d2a0:	e3520000 	cmp	r2, #0
    d2a4:	0a000004 	beq	d2bc <Process_Out.constprop.1+0x35b4>
    d2a8:	e1a00002 	mov	r0, r2
    d2ac:	e58d300c 	str	r3, [sp, #12]
    d2b0:	ebffee39 	bl	8b9c <Buffer_WriteChar>
    d2b4:	e59d300c 	ldr	r3, [sp, #12]
    d2b8:	e28bb001 	add	fp, fp, #1
    d2bc:	e59d2008 	ldr	r2, [sp, #8]
    d2c0:	e3120040 	tst	r2, #64	; 0x40
    d2c4:	0a00000b 	beq	d2f8 <Process_Out.constprop.1+0x35f0>
    d2c8:	e3540008 	cmp	r4, #8
    d2cc:	0a000473 	beq	e4a0 <Process_Out.constprop.1+0x4798>
    d2d0:	e3540010 	cmp	r4, #16
    d2d4:	1a000007 	bne	d2f8 <Process_Out.constprop.1+0x35f0>
    d2d8:	e3a00030 	mov	r0, #48	; 0x30
    d2dc:	e58d3008 	str	r3, [sp, #8]
    d2e0:	ebffee2d 	bl	8b9c <Buffer_WriteChar>
    d2e4:	e59d3040 	ldr	r3, [sp, #64]	; 0x40
    d2e8:	e28bb002 	add	fp, fp, #2
    d2ec:	e3830058 	orr	r0, r3, #88	; 0x58
    d2f0:	ebffee29 	bl	8b9c <Buffer_WriteChar>
    d2f4:	e59d3008 	ldr	r3, [sp, #8]
    d2f8:	e51f2698 	ldr	r2, [pc, #-1688]	; cc68 <Process_Out.constprop.1+0x2f60>
    d2fc:	e592e000 	ldr	lr, [r2]
    d300:	e5921004 	ldr	r1, [r2, #4]
    d304:	e37e0001 	cmn	lr, #1
    d308:	e592c008 	ldr	ip, [r2, #8]
    d30c:	0a000411 	beq	e358 <Process_Out.constprop.1+0x4650>
    d310:	e35c0000 	cmp	ip, #0
    d314:	0a00054d 	beq	e850 <Process_Out.constprop.1+0x4b48>
    d318:	e1a02009 	mov	r2, r9
    d31c:	e59d4010 	ldr	r4, [sp, #16]
    d320:	e151000e 	cmp	r1, lr
    d324:	b28d0058 	addlt	r0, sp, #88	; 0x58
    d328:	b7d00002 	ldrblt	r0, [r0, r2]
    d32c:	e2422001 	sub	r2, r2, #1
    d330:	b7cc0001 	strblt	r0, [ip, r1]
    d334:	e2820001 	add	r0, r2, #1
    d338:	b1a04005 	movlt	r4, r5
    d33c:	b2811001 	addlt	r1, r1, #1
    d340:	e3500000 	cmp	r0, #0
    d344:	cafffff5 	bgt	d320 <Process_Out.constprop.1+0x3618>
    d348:	e28b2001 	add	r2, fp, #1
    d34c:	e3540000 	cmp	r4, #0
    d350:	e0892002 	add	r2, r9, r2
    d354:	1a00040f 	bne	e398 <Process_Out.constprop.1+0x4690>
    d358:	e35a0000 	cmp	sl, #0
    d35c:	e24ae001 	sub	lr, sl, #1
    d360:	da000015 	ble	d3bc <Process_Out.constprop.1+0x36b4>
    d364:	e51f1704 	ldr	r1, [pc, #-1796]	; cc68 <Process_Out.constprop.1+0x2f60>
    d368:	e5914000 	ldr	r4, [r1]
    d36c:	e5910008 	ldr	r0, [r1, #8]
    d370:	e3740001 	cmn	r4, #1
    d374:	e5911004 	ldr	r1, [r1, #4]
    d378:	0a00045f 	beq	e4fc <Process_Out.constprop.1+0x47f4>
    d37c:	e3500000 	cmp	r0, #0
    d380:	0a00052d 	beq	e83c <Process_Out.constprop.1+0x4b34>
    d384:	e1a0c00e 	mov	ip, lr
    d388:	e3a07020 	mov	r7, #32
    d38c:	e59d6010 	ldr	r6, [sp, #16]
    d390:	e1510004 	cmp	r1, r4
    d394:	e24cc001 	sub	ip, ip, #1
    d398:	b7c07001 	strblt	r7, [r0, r1]
    d39c:	b1a06005 	movlt	r6, r5
    d3a0:	b2811001 	addlt	r1, r1, #1
    d3a4:	e37c0001 	cmn	ip, #1
    d3a8:	1afffff8 	bne	d390 <Process_Out.constprop.1+0x3688>
    d3ac:	e2822001 	add	r2, r2, #1
    d3b0:	e3560000 	cmp	r6, #0
    d3b4:	e08e2002 	add	r2, lr, r2
    d3b8:	1a00045c 	bne	e530 <Process_Out.constprop.1+0x4828>
    d3bc:	e59d1004 	ldr	r1, [sp, #4]
    d3c0:	e0812002 	add	r2, r1, r2
    d3c4:	e58d2004 	str	r2, [sp, #4]
    d3c8:	eafff279 	b	9db4 <Process_Out.constprop.1+0xac>
    d3cc:	e2410001 	sub	r0, r1, #1
    d3d0:	e1510002 	cmp	r1, r2
    d3d4:	e28bb001 	add	fp, fp, #1
    d3d8:	e6af1070 	sxtb	r1, r0
    d3dc:	cafffffa 	bgt	d3cc <Process_Out.constprop.1+0x36c4>
    d3e0:	eaffffad 	b	d29c <Process_Out.constprop.1+0x3594>
    d3e4:	e28cc001 	add	ip, ip, #1
    d3e8:	e084c00c 	add	ip, r4, ip
    d3ec:	eafffa13 	b	bc40 <Process_Out.constprop.1+0x1f38>
    d3f0:	e58d3008 	str	r3, [sp, #8]
    d3f4:	e59d3014 	ldr	r3, [sp, #20]
    d3f8:	e51f079c 	ldr	r0, [pc, #-1948]	; cc64 <Process_Out.constprop.1+0x2f5c>
    d3fc:	e2837007 	add	r7, r3, #7
    d400:	e3c77007 	bic	r7, r7, #7
    d404:	ed970b00 	vldr	d0, [r7]
    d408:	eafff5b4 	b	aae0 <Process_Out.constprop.1+0xdd8>
    d40c:	e59d4014 	ldr	r4, [sp, #20]
    d410:	e58d3008 	str	r3, [sp, #8]
    d414:	e5940000 	ldr	r0, [r4]
    d418:	eb001ec8 	bl	14f40 <wctob>
    d41c:	e51f37bc 	ldr	r3, [pc, #-1980]	; cc68 <Process_Out.constprop.1+0x2f60>
    d420:	e2847004 	add	r7, r4, #4
    d424:	e593c000 	ldr	ip, [r3]
    d428:	e59d3008 	ldr	r3, [sp, #8]
    d42c:	e37c0001 	cmn	ip, #1
    d430:	0a000003 	beq	d444 <Process_Out.constprop.1+0x373c>
    d434:	e51f27d4 	ldr	r2, [pc, #-2004]	; cc68 <Process_Out.constprop.1+0x2f60>
    d438:	e5921004 	ldr	r1, [r2, #4]
    d43c:	e15c0001 	cmp	ip, r1
    d440:	da000006 	ble	d460 <Process_Out.constprop.1+0x3758>
    d444:	e51f27e4 	ldr	r2, [pc, #-2020]	; cc68 <Process_Out.constprop.1+0x2f60>
    d448:	e592e008 	ldr	lr, [r2, #8]
    d44c:	e35e0000 	cmp	lr, #0
    d450:	15921004 	ldrne	r1, [r2, #4]
    d454:	12814001 	addne	r4, r1, #1
    d458:	17ce0001 	strbne	r0, [lr, r1]
    d45c:	15824004 	strne	r4, [r2, #4]
    d460:	e59d2004 	ldr	r2, [sp, #4]
    d464:	e58d7014 	str	r7, [sp, #20]
    d468:	e2822001 	add	r2, r2, #1
    d46c:	e58d2004 	str	r2, [sp, #4]
    d470:	eafff53e 	b	a970 <Process_Out.constprop.1+0xc68>
    d474:	e3500000 	cmp	r0, #0
    d478:	c3a0b000 	movgt	fp, #0
    d47c:	cafff3af 	bgt	a340 <Process_Out.constprop.1+0x638>
    d480:	eafff3e7 	b	a424 <Process_Out.constprop.1+0x71c>
    d484:	e51f2824 	ldr	r2, [pc, #-2084]	; cc68 <Process_Out.constprop.1+0x2f60>
    d488:	e5922000 	ldr	r2, [r2]
    d48c:	e3720001 	cmn	r2, #1
    d490:	0a000003 	beq	d4a4 <Process_Out.constprop.1+0x379c>
    d494:	e51f1834 	ldr	r1, [pc, #-2100]	; cc68 <Process_Out.constprop.1+0x2f60>
    d498:	e5911004 	ldr	r1, [r1, #4]
    d49c:	e1520001 	cmp	r2, r1
    d4a0:	da000009 	ble	d4cc <Process_Out.constprop.1+0x37c4>
    d4a4:	e51f2844 	ldr	r2, [pc, #-2116]	; cc68 <Process_Out.constprop.1+0x2f60>
    d4a8:	e5921008 	ldr	r1, [r2, #8]
    d4ac:	e3510000 	cmp	r1, #0
    d4b0:	0a000005 	beq	d4cc <Process_Out.constprop.1+0x37c4>
    d4b4:	e5922004 	ldr	r2, [r2, #4]
    d4b8:	e5ddc038 	ldrb	ip, [sp, #56]	; 0x38
    d4bc:	e2820001 	add	r0, r2, #1
    d4c0:	e7c1c002 	strb	ip, [r1, r2]
    d4c4:	e51f2864 	ldr	r2, [pc, #-2148]	; cc68 <Process_Out.constprop.1+0x2f60>
    d4c8:	e5820004 	str	r0, [r2, #4]
    d4cc:	e2866001 	add	r6, r6, #1
    d4d0:	eafffbac 	b	c388 <Process_Out.constprop.1+0x2680>
    d4d4:	e35e0000 	cmp	lr, #0
    d4d8:	0a0003f6 	beq	e4b8 <Process_Out.constprop.1+0x47b0>
    d4dc:	e3a01000 	mov	r1, #0
    d4e0:	e59d2004 	ldr	r2, [sp, #4]
    d4e4:	e08ee00c 	add	lr, lr, ip
    d4e8:	e0426004 	sub	r6, r2, r4
    d4ec:	e04c9004 	sub	r9, ip, r4
    d4f0:	e4d42001 	ldrb	r2, [r4], #1
    d4f4:	e2811001 	add	r1, r1, #1
    d4f8:	e1500001 	cmp	r0, r1
    d4fc:	e4ce2001 	strb	r2, [lr], #1
    d500:	e089c004 	add	ip, r9, r4
    d504:	e086a004 	add	sl, r6, r4
    d508:	cafffff8 	bgt	d4f0 <Process_Out.constprop.1+0x37e8>
    d50c:	e51f28ac 	ldr	r2, [pc, #-2220]	; cc68 <Process_Out.constprop.1+0x2f60>
    d510:	e58da004 	str	sl, [sp, #4]
    d514:	e582c004 	str	ip, [r2, #4]
    d518:	eafff39f 	b	a39c <Process_Out.constprop.1+0x694>
    d51c:	e51f28bc 	ldr	r2, [pc, #-2236]	; cc68 <Process_Out.constprop.1+0x2f60>
    d520:	e5922000 	ldr	r2, [r2]
    d524:	e3720001 	cmn	r2, #1
    d528:	0a000003 	beq	d53c <Process_Out.constprop.1+0x3834>
    d52c:	e51f18cc 	ldr	r1, [pc, #-2252]	; cc68 <Process_Out.constprop.1+0x2f60>
    d530:	e5911004 	ldr	r1, [r1, #4]
    d534:	e1520001 	cmp	r2, r1
    d538:	da000009 	ble	d564 <Process_Out.constprop.1+0x385c>
    d53c:	e51f28dc 	ldr	r2, [pc, #-2268]	; cc68 <Process_Out.constprop.1+0x2f60>
    d540:	e5921008 	ldr	r1, [r2, #8]
    d544:	e3510000 	cmp	r1, #0
    d548:	0a000005 	beq	d564 <Process_Out.constprop.1+0x385c>
    d54c:	e5922004 	ldr	r2, [r2, #4]
    d550:	e5ddc038 	ldrb	ip, [sp, #56]	; 0x38
    d554:	e2820001 	add	r0, r2, #1
    d558:	e7c1c002 	strb	ip, [r1, r2]
    d55c:	e51f28fc 	ldr	r2, [pc, #-2300]	; cc68 <Process_Out.constprop.1+0x2f60>
    d560:	e5820004 	str	r0, [r2, #4]
    d564:	e28bb001 	add	fp, fp, #1
    d568:	eafff974 	b	bb40 <Process_Out.constprop.1+0x1e38>
    d56c:	e35e0000 	cmp	lr, #0
    d570:	0a00027d 	beq	df6c <Process_Out.constprop.1+0x4264>
    d574:	e28d2058 	add	r2, sp, #88	; 0x58
    d578:	e28a0001 	add	r0, sl, #1
    d57c:	e241c001 	sub	ip, r1, #1
    d580:	e0820000 	add	r0, r2, r0
    d584:	e08ee00c 	add	lr, lr, ip
    d588:	e570c001 	ldrb	ip, [r0, #-1]!
    d58c:	e0404002 	sub	r4, r0, r2
    d590:	e3540000 	cmp	r4, #0
    d594:	e5eec001 	strb	ip, [lr, #1]!
    d598:	cafffffa 	bgt	d588 <Process_Out.constprop.1+0x3880>
    d59c:	e28bc001 	add	ip, fp, #1
    d5a0:	e2811001 	add	r1, r1, #1
    d5a4:	e08cc00a 	add	ip, ip, sl
    d5a8:	e081100a 	add	r1, r1, sl
    d5ac:	e51f294c 	ldr	r2, [pc, #-2380]	; cc68 <Process_Out.constprop.1+0x2f60>
    d5b0:	e5821004 	str	r1, [r2, #4]
    d5b4:	eafff988 	b	bbdc <Process_Out.constprop.1+0x1ed4>
    d5b8:	e51f2958 	ldr	r2, [pc, #-2392]	; cc68 <Process_Out.constprop.1+0x2f60>
    d5bc:	e5922000 	ldr	r2, [r2]
    d5c0:	e3720001 	cmn	r2, #1
    d5c4:	0a000003 	beq	d5d8 <Process_Out.constprop.1+0x38d0>
    d5c8:	e51f1968 	ldr	r1, [pc, #-2408]	; cc68 <Process_Out.constprop.1+0x2f60>
    d5cc:	e5911004 	ldr	r1, [r1, #4]
    d5d0:	e1520001 	cmp	r2, r1
    d5d4:	da000009 	ble	d600 <Process_Out.constprop.1+0x38f8>
    d5d8:	e51f2978 	ldr	r2, [pc, #-2424]	; cc68 <Process_Out.constprop.1+0x2f60>
    d5dc:	e5921008 	ldr	r1, [r2, #8]
    d5e0:	e3510000 	cmp	r1, #0
    d5e4:	0a000005 	beq	d600 <Process_Out.constprop.1+0x38f8>
    d5e8:	e5922004 	ldr	r2, [r2, #4]
    d5ec:	e5ddc03c 	ldrb	ip, [sp, #60]	; 0x3c
    d5f0:	e2820001 	add	r0, r2, #1
    d5f4:	e7c1c002 	strb	ip, [r1, r2]
    d5f8:	e51f2998 	ldr	r2, [pc, #-2456]	; cc68 <Process_Out.constprop.1+0x2f60>
    d5fc:	e5820004 	str	r0, [r2, #4]
    d600:	e2866001 	add	r6, r6, #1
    d604:	eafff759 	b	b370 <Process_Out.constprop.1+0x1668>
    d608:	e35e0000 	cmp	lr, #0
    d60c:	0a000259 	beq	df78 <Process_Out.constprop.1+0x4270>
    d610:	e28d2058 	add	r2, sp, #88	; 0x58
    d614:	e2890001 	add	r0, r9, #1
    d618:	e241c001 	sub	ip, r1, #1
    d61c:	e0820000 	add	r0, r2, r0
    d620:	e08ee00c 	add	lr, lr, ip
    d624:	e570c001 	ldrb	ip, [r0, #-1]!
    d628:	e0404002 	sub	r4, r0, r2
    d62c:	e3540000 	cmp	r4, #0
    d630:	e5eec001 	strb	ip, [lr, #1]!
    d634:	cafffffa 	bgt	d624 <Process_Out.constprop.1+0x391c>
    d638:	e2866001 	add	r6, r6, #1
    d63c:	e2811001 	add	r1, r1, #1
    d640:	e086c009 	add	ip, r6, r9
    d644:	e0811009 	add	r1, r1, r9
    d648:	e51f29e8 	ldr	r2, [pc, #-2536]	; cc68 <Process_Out.constprop.1+0x2f60>
    d64c:	e5821004 	str	r1, [r2, #4]
    d650:	eafff76d 	b	b40c <Process_Out.constprop.1+0x1704>
    d654:	e35e0000 	cmp	lr, #0
    d658:	13a06030 	movne	r6, #48	; 0x30
    d65c:	108e000c 	addne	r0, lr, ip
    d660:	0a000009 	beq	d68c <Process_Out.constprop.1+0x3984>
    d664:	e4c06001 	strb	r6, [r0], #1
    d668:	e1520001 	cmp	r2, r1
    d66c:	e2411001 	sub	r1, r1, #1
    d670:	e28bb001 	add	fp, fp, #1
    d674:	e040c00e 	sub	ip, r0, lr
    d678:	e6af1071 	sxtb	r1, r1
    d67c:	bafffff8 	blt	d664 <Process_Out.constprop.1+0x395c>
    d680:	e51f2a20 	ldr	r2, [pc, #-2592]	; cc68 <Process_Out.constprop.1+0x2f60>
    d684:	e582c004 	str	ip, [r2, #4]
    d688:	eafff929 	b	bb34 <Process_Out.constprop.1+0x1e2c>
    d68c:	e2410001 	sub	r0, r1, #1
    d690:	e1520001 	cmp	r2, r1
    d694:	e28bb001 	add	fp, fp, #1
    d698:	e6af1070 	sxtb	r1, r0
    d69c:	bafffffa 	blt	d68c <Process_Out.constprop.1+0x3984>
    d6a0:	eafff923 	b	bb34 <Process_Out.constprop.1+0x1e2c>
    d6a4:	e3500000 	cmp	r0, #0
    d6a8:	108be002 	addne	lr, fp, r2
    d6ac:	13a06020 	movne	r6, #32
    d6b0:	1080e00e 	addne	lr, r0, lr
    d6b4:	10801002 	addne	r1, r0, r2
    d6b8:	0a000291 	beq	e104 <Process_Out.constprop.1+0x43fc>
    d6bc:	e4c16001 	strb	r6, [r1], #1
    d6c0:	e15e0001 	cmp	lr, r1
    d6c4:	1afffffc 	bne	d6bc <Process_Out.constprop.1+0x39b4>
    d6c8:	e28cc001 	add	ip, ip, #1
    d6cc:	e2822001 	add	r2, r2, #1
    d6d0:	e084c00c 	add	ip, r4, ip
    d6d4:	e0822004 	add	r2, r2, r4
    d6d8:	e51f1a78 	ldr	r1, [pc, #-2680]	; cc68 <Process_Out.constprop.1+0x2f60>
    d6dc:	e5812004 	str	r2, [r1, #4]
    d6e0:	eafff763 	b	b474 <Process_Out.constprop.1+0x176c>
    d6e4:	e35e0000 	cmp	lr, #0
    d6e8:	13a07030 	movne	r7, #48	; 0x30
    d6ec:	108e100c 	addne	r1, lr, ip
    d6f0:	0a000009 	beq	d71c <Process_Out.constprop.1+0x3a14>
    d6f4:	e4c17001 	strb	r7, [r1], #1
    d6f8:	e1500002 	cmp	r0, r2
    d6fc:	e2422001 	sub	r2, r2, #1
    d700:	e2866001 	add	r6, r6, #1
    d704:	e041c00e 	sub	ip, r1, lr
    d708:	e6af2072 	sxtb	r2, r2
    d70c:	bafffff8 	blt	d6f4 <Process_Out.constprop.1+0x39ec>
    d710:	e51f2ab0 	ldr	r2, [pc, #-2736]	; cc68 <Process_Out.constprop.1+0x2f60>
    d714:	e582c004 	str	ip, [r2, #4]
    d718:	eafff711 	b	b364 <Process_Out.constprop.1+0x165c>
    d71c:	e2421001 	sub	r1, r2, #1
    d720:	e1500002 	cmp	r0, r2
    d724:	e2866001 	add	r6, r6, #1
    d728:	e6af2071 	sxtb	r2, r1
    d72c:	bafffffa 	blt	d71c <Process_Out.constprop.1+0x3a14>
    d730:	eafff70b 	b	b364 <Process_Out.constprop.1+0x165c>
    d734:	e35e0000 	cmp	lr, #0
    d738:	0a0001df 	beq	debc <Process_Out.constprop.1+0x41b4>
    d73c:	e28d2058 	add	r2, sp, #88	; 0x58
    d740:	e2890001 	add	r0, r9, #1
    d744:	e241c001 	sub	ip, r1, #1
    d748:	e0820000 	add	r0, r2, r0
    d74c:	e08ee00c 	add	lr, lr, ip
    d750:	e570c001 	ldrb	ip, [r0, #-1]!
    d754:	e0404002 	sub	r4, r0, r2
    d758:	e3540000 	cmp	r4, #0
    d75c:	e5eec001 	strb	ip, [lr, #1]!
    d760:	cafffffa 	bgt	d750 <Process_Out.constprop.1+0x3a48>
    d764:	e2866001 	add	r6, r6, #1
    d768:	e2811001 	add	r1, r1, #1
    d76c:	e089c006 	add	ip, r9, r6
    d770:	e0811009 	add	r1, r1, r9
    d774:	e51f2b14 	ldr	r2, [pc, #-2836]	; cc68 <Process_Out.constprop.1+0x2f60>
    d778:	e5821004 	str	r1, [r2, #4]
    d77c:	eafffb28 	b	c424 <Process_Out.constprop.1+0x271c>
    d780:	e35e0000 	cmp	lr, #0
    d784:	13a07030 	movne	r7, #48	; 0x30
    d788:	108e100c 	addne	r1, lr, ip
    d78c:	0a000009 	beq	d7b8 <Process_Out.constprop.1+0x3ab0>
    d790:	e4c17001 	strb	r7, [r1], #1
    d794:	e1500002 	cmp	r0, r2
    d798:	e2422001 	sub	r2, r2, #1
    d79c:	e2866001 	add	r6, r6, #1
    d7a0:	e041c00e 	sub	ip, r1, lr
    d7a4:	e6af2072 	sxtb	r2, r2
    d7a8:	bafffff8 	blt	d790 <Process_Out.constprop.1+0x3a88>
    d7ac:	e51f2b4c 	ldr	r2, [pc, #-2892]	; cc68 <Process_Out.constprop.1+0x2f60>
    d7b0:	e582c004 	str	ip, [r2, #4]
    d7b4:	eafffaf0 	b	c37c <Process_Out.constprop.1+0x2674>
    d7b8:	e2421001 	sub	r1, r2, #1
    d7bc:	e1500002 	cmp	r0, r2
    d7c0:	e2866001 	add	r6, r6, #1
    d7c4:	e6af2071 	sxtb	r2, r1
    d7c8:	bafffffa 	blt	d7b8 <Process_Out.constprop.1+0x3ab0>
    d7cc:	eafffaea 	b	c37c <Process_Out.constprop.1+0x2674>
    d7d0:	e3510000 	cmp	r1, #0
    d7d4:	0affff02 	beq	d3e4 <Process_Out.constprop.1+0x36dc>
    d7d8:	e3a06020 	mov	r6, #32
    d7dc:	e087e000 	add	lr, r7, r0
    d7e0:	e081e00e 	add	lr, r1, lr
    d7e4:	e0812000 	add	r2, r1, r0
    d7e8:	e4c26001 	strb	r6, [r2], #1
    d7ec:	e152000e 	cmp	r2, lr
    d7f0:	1afffffc 	bne	d7e8 <Process_Out.constprop.1+0x3ae0>
    d7f4:	e28cc001 	add	ip, ip, #1
    d7f8:	e2800001 	add	r0, r0, #1
    d7fc:	e084c00c 	add	ip, r4, ip
    d800:	e0800004 	add	r0, r0, r4
    d804:	e51f2ba4 	ldr	r2, [pc, #-2980]	; cc68 <Process_Out.constprop.1+0x2f60>
    d808:	e5820004 	str	r0, [r2, #4]
    d80c:	eafff90b 	b	bc40 <Process_Out.constprop.1+0x1f38>
    d810:	e3510000 	cmp	r1, #0
    d814:	0afffef2 	beq	d3e4 <Process_Out.constprop.1+0x36dc>
    d818:	e3a06020 	mov	r6, #32
    d81c:	e08ae000 	add	lr, sl, r0
    d820:	e081e00e 	add	lr, r1, lr
    d824:	e0812000 	add	r2, r1, r0
    d828:	e4c26001 	strb	r6, [r2], #1
    d82c:	e152000e 	cmp	r2, lr
    d830:	1afffffc 	bne	d828 <Process_Out.constprop.1+0x3b20>
    d834:	eaffffee 	b	d7f4 <Process_Out.constprop.1+0x3aec>
    d838:	e35e0000 	cmp	lr, #0
    d83c:	0a0001a7 	beq	dee0 <Process_Out.constprop.1+0x41d8>
    d840:	e28d2058 	add	r2, sp, #88	; 0x58
    d844:	e2870001 	add	r0, r7, #1
    d848:	e241c001 	sub	ip, r1, #1
    d84c:	e0820000 	add	r0, r2, r0
    d850:	e08ee00c 	add	lr, lr, ip
    d854:	e570c001 	ldrb	ip, [r0, #-1]!
    d858:	e0404002 	sub	r4, r0, r2
    d85c:	e3540000 	cmp	r4, #0
    d860:	e5eec001 	strb	ip, [lr, #1]!
    d864:	cafffffa 	bgt	d854 <Process_Out.constprop.1+0x3b4c>
    d868:	e2866001 	add	r6, r6, #1
    d86c:	e2811001 	add	r1, r1, #1
    d870:	e087c006 	add	ip, r7, r6
    d874:	e0811007 	add	r1, r1, r7
    d878:	e51f2c18 	ldr	r2, [pc, #-3096]	; cc68 <Process_Out.constprop.1+0x2f60>
    d87c:	e5821004 	str	r1, [r2, #4]
    d880:	eafff3ce 	b	a7c0 <Process_Out.constprop.1+0xab8>
    d884:	e35e0000 	cmp	lr, #0
    d888:	13a06030 	movne	r6, #48	; 0x30
    d88c:	108e000c 	addne	r0, lr, ip
    d890:	0a000009 	beq	d8bc <Process_Out.constprop.1+0x3bb4>
    d894:	e4c06001 	strb	r6, [r0], #1
    d898:	e1520001 	cmp	r2, r1
    d89c:	e2411001 	sub	r1, r1, #1
    d8a0:	e28bb001 	add	fp, fp, #1
    d8a4:	e040c00e 	sub	ip, r0, lr
    d8a8:	e6af1071 	sxtb	r1, r1
    d8ac:	bafffff8 	blt	d894 <Process_Out.constprop.1+0x3b8c>
    d8b0:	e51f2c50 	ldr	r2, [pc, #-3152]	; cc68 <Process_Out.constprop.1+0x2f60>
    d8b4:	e582c004 	str	ip, [r2, #4]
    d8b8:	eafff9a8 	b	bf60 <Process_Out.constprop.1+0x2258>
    d8bc:	e2410001 	sub	r0, r1, #1
    d8c0:	e1520001 	cmp	r2, r1
    d8c4:	e28bb001 	add	fp, fp, #1
    d8c8:	e6af1070 	sxtb	r1, r0
    d8cc:	bafffffa 	blt	d8bc <Process_Out.constprop.1+0x3bb4>
    d8d0:	eafff9a2 	b	bf60 <Process_Out.constprop.1+0x2258>
    d8d4:	e3510000 	cmp	r1, #0
    d8d8:	108be000 	addne	lr, fp, r0
    d8dc:	13a06020 	movne	r6, #32
    d8e0:	1081e00e 	addne	lr, r1, lr
    d8e4:	10812000 	addne	r2, r1, r0
    d8e8:	0afffebd 	beq	d3e4 <Process_Out.constprop.1+0x36dc>
    d8ec:	e4c26001 	strb	r6, [r2], #1
    d8f0:	e15e0002 	cmp	lr, r2
    d8f4:	1afffffc 	bne	d8ec <Process_Out.constprop.1+0x3be4>
    d8f8:	eaffffbd 	b	d7f4 <Process_Out.constprop.1+0x3aec>
    d8fc:	e3110008 	tst	r1, #8
    d900:	0afffb80 	beq	c708 <Process_Out.constprop.1+0x2a00>
    d904:	e24b2001 	sub	r2, fp, #1
    d908:	e58d2014 	str	r2, [sp, #20]
    d90c:	e3a02020 	mov	r2, #32
    d910:	e58d2038 	str	r2, [sp, #56]	; 0x38
    d914:	eafff809 	b	b940 <Process_Out.constprop.1+0x1c38>
    d918:	e3110008 	tst	r1, #8
    d91c:	0afffb76 	beq	c6fc <Process_Out.constprop.1+0x29f4>
    d920:	e24b2001 	sub	r2, fp, #1
    d924:	e58d2014 	str	r2, [sp, #20]
    d928:	e3a02020 	mov	r2, #32
    d92c:	e58d2038 	str	r2, [sp, #56]	; 0x38
    d930:	eafff90d 	b	bd6c <Process_Out.constprop.1+0x2064>
    d934:	e35e0000 	cmp	lr, #0
    d938:	13a09030 	movne	r9, #48	; 0x30
    d93c:	108e100c 	addne	r1, lr, ip
    d940:	0a000009 	beq	d96c <Process_Out.constprop.1+0x3c64>
    d944:	e4c19001 	strb	r9, [r1], #1
    d948:	e1500002 	cmp	r0, r2
    d94c:	e2422001 	sub	r2, r2, #1
    d950:	e2866001 	add	r6, r6, #1
    d954:	e041c00e 	sub	ip, r1, lr
    d958:	e6af2072 	sxtb	r2, r2
    d95c:	bafffff8 	blt	d944 <Process_Out.constprop.1+0x3c3c>
    d960:	e51f2d00 	ldr	r2, [pc, #-3328]	; cc68 <Process_Out.constprop.1+0x2f60>
    d964:	e582c004 	str	ip, [r2, #4]
    d968:	eafff766 	b	b708 <Process_Out.constprop.1+0x1a00>
    d96c:	e2421001 	sub	r1, r2, #1
    d970:	e1500002 	cmp	r0, r2
    d974:	e2866001 	add	r6, r6, #1
    d978:	e6af2071 	sxtb	r2, r1
    d97c:	bafffffa 	blt	d96c <Process_Out.constprop.1+0x3c64>
    d980:	eafff760 	b	b708 <Process_Out.constprop.1+0x1a00>
    d984:	e35c0000 	cmp	ip, #0
    d988:	11a0100b 	movne	r1, fp
    d98c:	13a0e020 	movne	lr, #32
    d990:	108cc000 	addne	ip, ip, r0
    d994:	0a000296 	beq	e3f4 <Process_Out.constprop.1+0x46ec>
    d998:	e2411001 	sub	r1, r1, #1
    d99c:	e6af1071 	sxtb	r1, r1
    d9a0:	e3510000 	cmp	r1, #0
    d9a4:	e4cce001 	strb	lr, [ip], #1
    d9a8:	1afffffa 	bne	d998 <Process_Out.constprop.1+0x3c90>
    d9ac:	e59d1004 	ldr	r1, [sp, #4]
    d9b0:	e24b2001 	sub	r2, fp, #1
    d9b4:	e6af2072 	sxtb	r2, r2
    d9b8:	e2811001 	add	r1, r1, #1
    d9bc:	e2800001 	add	r0, r0, #1
    d9c0:	e0811002 	add	r1, r1, r2
    d9c4:	e58d1004 	str	r1, [sp, #4]
    d9c8:	e0800002 	add	r0, r0, r2
    d9cc:	e51f2d6c 	ldr	r2, [pc, #-3436]	; cc68 <Process_Out.constprop.1+0x2f60>
    d9d0:	e5820004 	str	r0, [r2, #4]
    d9d4:	eafff292 	b	a424 <Process_Out.constprop.1+0x71c>
    d9d8:	e35c0000 	cmp	ip, #0
    d9dc:	0a000292 	beq	e42c <Process_Out.constprop.1+0x4724>
    d9e0:	e28d2058 	add	r2, sp, #88	; 0x58
    d9e4:	e2870001 	add	r0, r7, #1
    d9e8:	e241e001 	sub	lr, r1, #1
    d9ec:	e0820000 	add	r0, r2, r0
    d9f0:	e08cc00e 	add	ip, ip, lr
    d9f4:	e570e001 	ldrb	lr, [r0, #-1]!
    d9f8:	e0404002 	sub	r4, r0, r2
    d9fc:	e3540000 	cmp	r4, #0
    da00:	e5ece001 	strb	lr, [ip, #1]!
    da04:	cafffffa 	bgt	d9f4 <Process_Out.constprop.1+0x3cec>
    da08:	e2866001 	add	r6, r6, #1
    da0c:	e2811001 	add	r1, r1, #1
    da10:	e086c007 	add	ip, r6, r7
    da14:	e0811007 	add	r1, r1, r7
    da18:	e51f2db8 	ldr	r2, [pc, #-3512]	; cc68 <Process_Out.constprop.1+0x2f60>
    da1c:	e5821004 	str	r1, [r2, #4]
    da20:	eafff762 	b	b7b0 <Process_Out.constprop.1+0x1aa8>
    da24:	e51f2dc4 	ldr	r2, [pc, #-3524]	; cc68 <Process_Out.constprop.1+0x2f60>
    da28:	e5922000 	ldr	r2, [r2]
    da2c:	e3720001 	cmn	r2, #1
    da30:	0a000003 	beq	da44 <Process_Out.constprop.1+0x3d3c>
    da34:	e51f1dd4 	ldr	r1, [pc, #-3540]	; cc68 <Process_Out.constprop.1+0x2f60>
    da38:	e5911004 	ldr	r1, [r1, #4]
    da3c:	e1520001 	cmp	r2, r1
    da40:	da000009 	ble	da6c <Process_Out.constprop.1+0x3d64>
    da44:	e51f2de4 	ldr	r2, [pc, #-3556]	; cc68 <Process_Out.constprop.1+0x2f60>
    da48:	e5921008 	ldr	r1, [r2, #8]
    da4c:	e3510000 	cmp	r1, #0
    da50:	0a000005 	beq	da6c <Process_Out.constprop.1+0x3d64>
    da54:	e5922004 	ldr	r2, [r2, #4]
    da58:	e5ddc00c 	ldrb	ip, [sp, #12]
    da5c:	e2820001 	add	r0, r2, #1
    da60:	e7c1c002 	strb	ip, [r1, r2]
    da64:	e51f2e04 	ldr	r2, [pc, #-3588]	; cc68 <Process_Out.constprop.1+0x2f60>
    da68:	e5820004 	str	r0, [r2, #4]
    da6c:	e2866001 	add	r6, r6, #1
    da70:	eafff727 	b	b714 <Process_Out.constprop.1+0x1a0c>
    da74:	e35e0000 	cmp	lr, #0
    da78:	0a000254 	beq	e3d0 <Process_Out.constprop.1+0x46c8>
    da7c:	e28d2058 	add	r2, sp, #88	; 0x58
    da80:	e28a0001 	add	r0, sl, #1
    da84:	e241c001 	sub	ip, r1, #1
    da88:	e0820000 	add	r0, r2, r0
    da8c:	e08ee00c 	add	lr, lr, ip
    da90:	e570c001 	ldrb	ip, [r0, #-1]!
    da94:	e0404002 	sub	r4, r0, r2
    da98:	e3540000 	cmp	r4, #0
    da9c:	e5eec001 	strb	ip, [lr, #1]!
    daa0:	cafffffa 	bgt	da90 <Process_Out.constprop.1+0x3d88>
    daa4:	e2866001 	add	r6, r6, #1
    daa8:	e2811001 	add	r1, r1, #1
    daac:	e08ac006 	add	ip, sl, r6
    dab0:	e081100a 	add	r1, r1, sl
    dab4:	e51f2e54 	ldr	r2, [pc, #-3668]	; cc68 <Process_Out.constprop.1+0x2f60>
    dab8:	e5821004 	str	r1, [r2, #4]
    dabc:	eafff545 	b	afd8 <Process_Out.constprop.1+0x12d0>
    dac0:	e35b0000 	cmp	fp, #0
    dac4:	13a0e030 	movne	lr, #48	; 0x30
    dac8:	108b000c 	addne	r0, fp, ip
    dacc:	0a000009 	beq	daf8 <Process_Out.constprop.1+0x3df0>
    dad0:	e4c0e001 	strb	lr, [r0], #1
    dad4:	e1520001 	cmp	r2, r1
    dad8:	e2411001 	sub	r1, r1, #1
    dadc:	e2866001 	add	r6, r6, #1
    dae0:	e040c00b 	sub	ip, r0, fp
    dae4:	e6af1071 	sxtb	r1, r1
    dae8:	bafffff8 	blt	dad0 <Process_Out.constprop.1+0x3dc8>
    daec:	e51f2e8c 	ldr	r2, [pc, #-3724]	; cc68 <Process_Out.constprop.1+0x2f60>
    daf0:	e582c004 	str	ip, [r2, #4]
    daf4:	eafff50d 	b	af30 <Process_Out.constprop.1+0x1228>
    daf8:	e2410001 	sub	r0, r1, #1
    dafc:	e1520001 	cmp	r2, r1
    db00:	e2866001 	add	r6, r6, #1
    db04:	e6af1070 	sxtb	r1, r0
    db08:	bafffffa 	blt	daf8 <Process_Out.constprop.1+0x3df0>
    db0c:	eafff507 	b	af30 <Process_Out.constprop.1+0x1228>
    db10:	e51f2eb0 	ldr	r2, [pc, #-3760]	; cc68 <Process_Out.constprop.1+0x2f60>
    db14:	e5922000 	ldr	r2, [r2]
    db18:	e3720001 	cmn	r2, #1
    db1c:	0a000003 	beq	db30 <Process_Out.constprop.1+0x3e28>
    db20:	e51f1ec0 	ldr	r1, [pc, #-3776]	; cc68 <Process_Out.constprop.1+0x2f60>
    db24:	e5911004 	ldr	r1, [r1, #4]
    db28:	e1520001 	cmp	r2, r1
    db2c:	da000009 	ble	db58 <Process_Out.constprop.1+0x3e50>
    db30:	e51f2ed0 	ldr	r2, [pc, #-3792]	; cc68 <Process_Out.constprop.1+0x2f60>
    db34:	e5921008 	ldr	r1, [r2, #8]
    db38:	e3510000 	cmp	r1, #0
    db3c:	0a000005 	beq	db58 <Process_Out.constprop.1+0x3e50>
    db40:	e5922004 	ldr	r2, [r2, #4]
    db44:	e5ddc038 	ldrb	ip, [sp, #56]	; 0x38
    db48:	e2820001 	add	r0, r2, #1
    db4c:	e7c1c002 	strb	ip, [r1, r2]
    db50:	e51f2ef0 	ldr	r2, [pc, #-3824]	; cc68 <Process_Out.constprop.1+0x2f60>
    db54:	e5820004 	str	r0, [r2, #4]
    db58:	e2866001 	add	r6, r6, #1
    db5c:	eafff4f6 	b	af3c <Process_Out.constprop.1+0x1234>
    db60:	e3110008 	tst	r1, #8
    db64:	0afffaea 	beq	c714 <Process_Out.constprop.1+0x2a0c>
    db68:	e24b2001 	sub	r2, fp, #1
    db6c:	e58d2014 	str	r2, [sp, #20]
    db70:	e3a02020 	mov	r2, #32
    db74:	e58d2038 	str	r2, [sp, #56]	; 0x38
    db78:	eafff982 	b	c188 <Process_Out.constprop.1+0x2480>
    db7c:	e3110008 	tst	r1, #8
    db80:	0afffae6 	beq	c720 <Process_Out.constprop.1+0x2a18>
    db84:	e24b2001 	sub	r2, fp, #1
    db88:	e58d2038 	str	r2, [sp, #56]	; 0x38
    db8c:	e3a02020 	mov	r2, #32
    db90:	e58d203c 	str	r2, [sp, #60]	; 0x3c
    db94:	eafff575 	b	b170 <Process_Out.constprop.1+0x1468>
    db98:	e3a02000 	mov	r2, #0
    db9c:	e58d203c 	str	r2, [sp, #60]	; 0x3c
    dba0:	eafffd41 	b	d0ac <Process_Out.constprop.1+0x33a4>
    dba4:	e3a02000 	mov	r2, #0
    dba8:	e58d200c 	str	r2, [sp, #12]
    dbac:	eafffc5a 	b	cd1c <Process_Out.constprop.1+0x3014>
    dbb0:	e3500000 	cmp	r0, #0
    dbb4:	108be002 	addne	lr, fp, r2
    dbb8:	13a06020 	movne	r6, #32
    dbbc:	1080e00e 	addne	lr, r0, lr
    dbc0:	10801002 	addne	r1, r0, r2
    dbc4:	0a0001fc 	beq	e3bc <Process_Out.constprop.1+0x46b4>
    dbc8:	e4c16001 	strb	r6, [r1], #1
    dbcc:	e15e0001 	cmp	lr, r1
    dbd0:	1afffffc 	bne	dbc8 <Process_Out.constprop.1+0x3ec0>
    dbd4:	e28cc001 	add	ip, ip, #1
    dbd8:	e2822001 	add	r2, r2, #1
    dbdc:	e084c00c 	add	ip, r4, ip
    dbe0:	e0822004 	add	r2, r2, r4
    dbe4:	e51f1f84 	ldr	r1, [pc, #-3972]	; cc68 <Process_Out.constprop.1+0x2f60>
    dbe8:	e5812004 	str	r2, [r1, #4]
    dbec:	eafff708 	b	b814 <Process_Out.constprop.1+0x1b0c>
    dbf0:	e35e0000 	cmp	lr, #0
    dbf4:	0a000204 	beq	e40c <Process_Out.constprop.1+0x4704>
    dbf8:	e3a01020 	mov	r1, #32
    dbfc:	e2422002 	sub	r2, r2, #2
    dc00:	e280c001 	add	ip, r0, #1
    dc04:	e6ef2072 	uxtb	r2, r2
    dc08:	e08c4002 	add	r4, ip, r2
    dc0c:	e08e0000 	add	r0, lr, r0
    dc10:	e08ee004 	add	lr, lr, r4
    dc14:	e4c01001 	strb	r1, [r0], #1
    dc18:	e150000e 	cmp	r0, lr
    dc1c:	1afffffc 	bne	dc14 <Process_Out.constprop.1+0x3f0c>
    dc20:	e59d1004 	ldr	r1, [sp, #4]
    dc24:	e08c0002 	add	r0, ip, r2
    dc28:	e2811001 	add	r1, r1, #1
    dc2c:	e0811002 	add	r1, r1, r2
    dc30:	e58d1004 	str	r1, [sp, #4]
    dc34:	eafff36e 	b	a9f4 <Process_Out.constprop.1+0xcec>
    dc38:	e3120008 	tst	r2, #8
    dc3c:	0afffaab 	beq	c6f0 <Process_Out.constprop.1+0x29e8>
    dc40:	e59d2030 	ldr	r2, [sp, #48]	; 0x30
    dc44:	e2422001 	sub	r2, r2, #1
    dc48:	e58d2030 	str	r2, [sp, #48]	; 0x30
    dc4c:	e3a02020 	mov	r2, #32
    dc50:	e58d2014 	str	r2, [sp, #20]
    dc54:	eafff23a 	b	a544 <Process_Out.constprop.1+0x83c>
    dc58:	e3500000 	cmp	r0, #0
    dc5c:	1087e002 	addne	lr, r7, r2
    dc60:	13a06020 	movne	r6, #32
    dc64:	1080e00e 	addne	lr, r0, lr
    dc68:	10801002 	addne	r1, r0, r2
    dc6c:	0a000266 	beq	e60c <Process_Out.constprop.1+0x4904>
    dc70:	e4c16001 	strb	r6, [r1], #1
    dc74:	e151000e 	cmp	r1, lr
    dc78:	1afffffc 	bne	dc70 <Process_Out.constprop.1+0x3f68>
    dc7c:	e28cc001 	add	ip, ip, #1
    dc80:	e2822001 	add	r2, r2, #1
    dc84:	e084c00c 	add	ip, r4, ip
    dc88:	e0822004 	add	r2, r2, r4
    dc8c:	e59f1bec 	ldr	r1, [pc, #3052]	; e880 <Process_Out.constprop.1+0x4b78>
    dc90:	e5812004 	str	r2, [r1, #4]
    dc94:	eafff4e8 	b	b03c <Process_Out.constprop.1+0x1334>
    dc98:	e24b2001 	sub	r2, fp, #1
    dc9c:	e58d2038 	str	r2, [sp, #56]	; 0x38
    dca0:	e3a0202d 	mov	r2, #45	; 0x2d
    dca4:	e2677000 	rsb	r7, r7, #0
    dca8:	e58d203c 	str	r2, [sp, #60]	; 0x3c
    dcac:	e3a09000 	mov	r9, #0
    dcb0:	e28da057 	add	sl, sp, #87	; 0x57
    dcb4:	e58d6054 	str	r6, [sp, #84]	; 0x54
    dcb8:	e58d3050 	str	r3, [sp, #80]	; 0x50
    dcbc:	e1a0600a 	mov	r6, sl
    dcc0:	e59db040 	ldr	fp, [sp, #64]	; 0x40
    dcc4:	e1a0a009 	mov	sl, r9
    dcc8:	e1a09008 	mov	r9, r8
    dccc:	ea000000 	b	dcd4 <Process_Out.constprop.1+0x3fcc>
    dcd0:	e1a0a003 	mov	sl, r3
    dcd4:	e1a00007 	mov	r0, r7
    dcd8:	e1a01004 	mov	r1, r4
    dcdc:	eb002744 	bl	179f4 <__aeabi_idivmod>
    dce0:	e1a08001 	mov	r8, r1
    dce4:	e1a00007 	mov	r0, r7
    dce8:	e1a01004 	mov	r1, r4
    dcec:	eb0026f6 	bl	178cc <__divsi3>
    dcf0:	e59f3b8c 	ldr	r3, [pc, #2956]	; e884 <Process_Out.constprop.1+0x4b7c>
    dcf4:	e2507000 	subs	r7, r0, #0
    dcf8:	e7d33008 	ldrb	r3, [r3, r8]
    dcfc:	e18b3003 	orr	r3, fp, r3
    dd00:	e5e63001 	strb	r3, [r6, #1]!
    dd04:	e28a3001 	add	r3, sl, #1
    dd08:	1afffff0 	bne	dcd0 <Process_Out.constprop.1+0x3fc8>
    dd0c:	e1a02003 	mov	r2, r3
    dd10:	e1a08009 	mov	r8, r9
    dd14:	e59d3050 	ldr	r3, [sp, #80]	; 0x50
    dd18:	e59d6054 	ldr	r6, [sp, #84]	; 0x54
    dd1c:	e1a0900a 	mov	r9, sl
    dd20:	eafffce7 	b	d0c4 <Process_Out.constprop.1+0x33bc>
    dd24:	e24b2001 	sub	r2, fp, #1
    dd28:	e58d2008 	str	r2, [sp, #8]
    dd2c:	e3a0202d 	mov	r2, #45	; 0x2d
    dd30:	e2677000 	rsb	r7, r7, #0
    dd34:	e58d200c 	str	r2, [sp, #12]
    dd38:	e28d9057 	add	r9, sp, #87	; 0x57
    dd3c:	e58d6034 	str	r6, [sp, #52]	; 0x34
    dd40:	e3a0b000 	mov	fp, #0
    dd44:	e1a06009 	mov	r6, r9
    dd48:	e58d3030 	str	r3, [sp, #48]	; 0x30
    dd4c:	e59da020 	ldr	sl, [sp, #32]
    dd50:	e1a09008 	mov	r9, r8
    dd54:	ea000000 	b	dd5c <Process_Out.constprop.1+0x4054>
    dd58:	e1a0b000 	mov	fp, r0
    dd5c:	e1a00007 	mov	r0, r7
    dd60:	e1a01004 	mov	r1, r4
    dd64:	eb002722 	bl	179f4 <__aeabi_idivmod>
    dd68:	e1a08001 	mov	r8, r1
    dd6c:	e1a00007 	mov	r0, r7
    dd70:	e1a01004 	mov	r1, r4
    dd74:	eb0026d4 	bl	178cc <__divsi3>
    dd78:	e59f3b04 	ldr	r3, [pc, #2820]	; e884 <Process_Out.constprop.1+0x4b7c>
    dd7c:	e2507000 	subs	r7, r0, #0
    dd80:	e7d33008 	ldrb	r3, [r3, r8]
    dd84:	e28b0001 	add	r0, fp, #1
    dd88:	e18a3003 	orr	r3, sl, r3
    dd8c:	e5e63001 	strb	r3, [r6, #1]!
    dd90:	1afffff0 	bne	dd58 <Process_Out.constprop.1+0x4050>
    dd94:	e59d3030 	ldr	r3, [sp, #48]	; 0x30
    dd98:	e59d6034 	ldr	r6, [sp, #52]	; 0x34
    dd9c:	e1a08009 	mov	r8, r9
    dda0:	eafffbe3 	b	cd34 <Process_Out.constprop.1+0x302c>
    dda4:	e3120008 	tst	r2, #8
    dda8:	0afffb05 	beq	c9c4 <Process_Out.constprop.1+0x2cbc>
    ddac:	e24b2001 	sub	r2, fp, #1
    ddb0:	e58d2008 	str	r2, [sp, #8]
    ddb4:	e3a02020 	mov	r2, #32
    ddb8:	e58d200c 	str	r2, [sp, #12]
    ddbc:	eafff5ed 	b	b578 <Process_Out.constprop.1+0x1870>
    ddc0:	e28cc001 	add	ip, ip, #1
    ddc4:	e084c00c 	add	ip, r4, ip
    ddc8:	eafff296 	b	a828 <Process_Out.constprop.1+0xb20>
    ddcc:	e3a00030 	mov	r0, #48	; 0x30
    ddd0:	e58d3008 	str	r3, [sp, #8]
    ddd4:	e28bb001 	add	fp, fp, #1
    ddd8:	ebffeb6f 	bl	8b9c <Buffer_WriteChar>
    dddc:	e59d3008 	ldr	r3, [sp, #8]
    dde0:	eafff765 	b	bb7c <Process_Out.constprop.1+0x1e74>
    dde4:	e35c0000 	cmp	ip, #0
    dde8:	108ae001 	addne	lr, sl, r1
    ddec:	108ce00e 	addne	lr, ip, lr
    ddf0:	13a06020 	movne	r6, #32
    ddf4:	108cc001 	addne	ip, ip, r1
    ddf8:	0a0001b9 	beq	e4e4 <Process_Out.constprop.1+0x47dc>
    ddfc:	e4cc6001 	strb	r6, [ip], #1
    de00:	e15c000e 	cmp	ip, lr
    de04:	1afffffc 	bne	ddfc <Process_Out.constprop.1+0x40f4>
    de08:	e3e0c000 	mvn	ip, #0
    de0c:	e2811001 	add	r1, r1, #1
    de10:	e0811000 	add	r1, r1, r0
    de14:	e59f0a64 	ldr	r0, [pc, #2660]	; e880 <Process_Out.constprop.1+0x4b78>
    de18:	e5801004 	str	r1, [r0, #4]
    de1c:	eafff7fb 	b	be10 <Process_Out.constprop.1+0x2108>
    de20:	e3a00030 	mov	r0, #48	; 0x30
    de24:	e58d3008 	str	r3, [sp, #8]
    de28:	e2866001 	add	r6, r6, #1
    de2c:	ebffeb5a 	bl	8b9c <Buffer_WriteChar>
    de30:	e59d3008 	ldr	r3, [sp, #8]
    de34:	eafff55c 	b	b3ac <Process_Out.constprop.1+0x16a4>
    de38:	e3a00030 	mov	r0, #48	; 0x30
    de3c:	e58d3008 	str	r3, [sp, #8]
    de40:	e2866001 	add	r6, r6, #1
    de44:	ebffeb54 	bl	8b9c <Buffer_WriteChar>
    de48:	e59d3008 	ldr	r3, [sp, #8]
    de4c:	eafff95c 	b	c3c4 <Process_Out.constprop.1+0x26bc>
    de50:	e35c0000 	cmp	ip, #0
    de54:	0a000177 	beq	e438 <Process_Out.constprop.1+0x4730>
    de58:	e08b1002 	add	r1, fp, r2
    de5c:	e59de040 	ldr	lr, [sp, #64]	; 0x40
    de60:	e08c1001 	add	r1, ip, r1
    de64:	e08cc002 	add	ip, ip, r2
    de68:	e4cce001 	strb	lr, [ip], #1
    de6c:	e15c0001 	cmp	ip, r1
    de70:	1afffffc 	bne	de68 <Process_Out.constprop.1+0x4160>
    de74:	e3e0b000 	mvn	fp, #0
    de78:	e2866001 	add	r6, r6, #1
    de7c:	e2822001 	add	r2, r2, #1
    de80:	e08a6006 	add	r6, sl, r6
    de84:	e082200a 	add	r2, r2, sl
    de88:	e59f19f0 	ldr	r1, [pc, #2544]	; e880 <Process_Out.constprop.1+0x4b78>
    de8c:	e5812004 	str	r2, [r1, #4]
    de90:	eafff91e 	b	c310 <Process_Out.constprop.1+0x2608>
    de94:	e3110008 	tst	r1, #8
    de98:	0afffacc 	beq	c9d0 <Process_Out.constprop.1+0x2cc8>
    de9c:	e24b2001 	sub	r2, fp, #1
    dea0:	e58d2014 	str	r2, [sp, #20]
    dea4:	e3a02020 	mov	r2, #32
    dea8:	e58d2038 	str	r2, [sp, #56]	; 0x38
    deac:	eafff39f 	b	ad30 <Process_Out.constprop.1+0x1028>
    deb0:	e28bc001 	add	ip, fp, #1
    deb4:	e08cc007 	add	ip, ip, r7
    deb8:	eafff852 	b	c008 <Process_Out.constprop.1+0x2300>
    debc:	e2866001 	add	r6, r6, #1
    dec0:	e089c006 	add	ip, r9, r6
    dec4:	eafff956 	b	c424 <Process_Out.constprop.1+0x271c>
    dec8:	e3a00030 	mov	r0, #48	; 0x30
    decc:	e58d3008 	str	r3, [sp, #8]
    ded0:	e28bb001 	add	fp, fp, #1
    ded4:	ebffeb30 	bl	8b9c <Buffer_WriteChar>
    ded8:	e59d3008 	ldr	r3, [sp, #8]
    dedc:	eafff831 	b	bfa8 <Process_Out.constprop.1+0x22a0>
    dee0:	e2866001 	add	r6, r6, #1
    dee4:	e087c006 	add	ip, r7, r6
    dee8:	eafff234 	b	a7c0 <Process_Out.constprop.1+0xab8>
    deec:	e35c0000 	cmp	ip, #0
    def0:	1087e001 	addne	lr, r7, r1
    def4:	108ce00e 	addne	lr, ip, lr
    def8:	13a06020 	movne	r6, #32
    defc:	108cc001 	addne	ip, ip, r1
    df00:	0a0001b7 	beq	e5e4 <Process_Out.constprop.1+0x48dc>
    df04:	e4cc6001 	strb	r6, [ip], #1
    df08:	e15c000e 	cmp	ip, lr
    df0c:	1afffffc 	bne	df04 <Process_Out.constprop.1+0x41fc>
    df10:	e3e0c000 	mvn	ip, #0
    df14:	e2811001 	add	r1, r1, #1
    df18:	e0811000 	add	r1, r1, r0
    df1c:	e59f095c 	ldr	r0, [pc, #2396]	; e880 <Process_Out.constprop.1+0x4b78>
    df20:	e5801004 	str	r1, [r0, #4]
    df24:	eafff6ad 	b	b9e0 <Process_Out.constprop.1+0x1cd8>
    df28:	e35c0000 	cmp	ip, #0
    df2c:	0a000184 	beq	e544 <Process_Out.constprop.1+0x483c>
    df30:	e0870001 	add	r0, r7, r1
    df34:	e59de040 	ldr	lr, [sp, #64]	; 0x40
    df38:	e08c0000 	add	r0, ip, r0
    df3c:	e08cc001 	add	ip, ip, r1
    df40:	e4cce001 	strb	lr, [ip], #1
    df44:	e15c0000 	cmp	ip, r0
    df48:	1afffffc 	bne	df40 <Process_Out.constprop.1+0x4238>
    df4c:	e3e07000 	mvn	r7, #0
    df50:	e28b6001 	add	r6, fp, #1
    df54:	e2811001 	add	r1, r1, #1
    df58:	e086b009 	add	fp, r6, r9
    df5c:	e0811009 	add	r1, r1, r9
    df60:	e59f0918 	ldr	r0, [pc, #2328]	; e880 <Process_Out.constprop.1+0x4b78>
    df64:	e5801004 	str	r1, [r0, #4]
    df68:	eafff6d5 	b	bac4 <Process_Out.constprop.1+0x1dbc>
    df6c:	e28bc001 	add	ip, fp, #1
    df70:	e08cc00a 	add	ip, ip, sl
    df74:	eafff718 	b	bbdc <Process_Out.constprop.1+0x1ed4>
    df78:	e2866001 	add	r6, r6, #1
    df7c:	e086c009 	add	ip, r6, r9
    df80:	eafff521 	b	b40c <Process_Out.constprop.1+0x1704>
    df84:	e35c0000 	cmp	ip, #0
    df88:	108be002 	addne	lr, fp, r2
    df8c:	108ce00e 	addne	lr, ip, lr
    df90:	13a06020 	movne	r6, #32
    df94:	108cc002 	addne	ip, ip, r2
    df98:	0a00016d 	beq	e554 <Process_Out.constprop.1+0x484c>
    df9c:	e4cc6001 	strb	r6, [ip], #1
    dfa0:	e15c000e 	cmp	ip, lr
    dfa4:	1afffffc 	bne	df9c <Process_Out.constprop.1+0x4294>
    dfa8:	e3e0c000 	mvn	ip, #0
    dfac:	e2822001 	add	r2, r2, #1
    dfb0:	e0822001 	add	r2, r2, r1
    dfb4:	e59f18c4 	ldr	r1, [pc, #2244]	; e880 <Process_Out.constprop.1+0x4b78>
    dfb8:	e5812004 	str	r2, [r1, #4]
    dfbc:	eafff89a 	b	c22c <Process_Out.constprop.1+0x2524>
    dfc0:	e35c0000 	cmp	ip, #0
    dfc4:	0a000142 	beq	e4d4 <Process_Out.constprop.1+0x47cc>
    dfc8:	e08b1002 	add	r1, fp, r2
    dfcc:	e59de044 	ldr	lr, [sp, #68]	; 0x44
    dfd0:	e08c1001 	add	r1, ip, r1
    dfd4:	e08cc002 	add	ip, ip, r2
    dfd8:	e4cce001 	strb	lr, [ip], #1
    dfdc:	e151000c 	cmp	r1, ip
    dfe0:	1afffffc 	bne	dfd8 <Process_Out.constprop.1+0x42d0>
    dfe4:	e3e0b000 	mvn	fp, #0
    dfe8:	e2866001 	add	r6, r6, #1
    dfec:	e2822001 	add	r2, r2, #1
    dff0:	e08a6006 	add	r6, sl, r6
    dff4:	e082200a 	add	r2, r2, sl
    dff8:	e59f1880 	ldr	r1, [pc, #2176]	; e880 <Process_Out.constprop.1+0x4b78>
    dffc:	e5812004 	str	r2, [r1, #4]
    e000:	eafff4bb 	b	b2f4 <Process_Out.constprop.1+0x15ec>
    e004:	e35c0000 	cmp	ip, #0
    e008:	0a000153 	beq	e55c <Process_Out.constprop.1+0x4854>
    e00c:	e08b0001 	add	r0, fp, r1
    e010:	e59de038 	ldr	lr, [sp, #56]	; 0x38
    e014:	e08c0000 	add	r0, ip, r0
    e018:	e08cc001 	add	ip, ip, r1
    e01c:	e4cce001 	strb	lr, [ip], #1
    e020:	e15c0000 	cmp	ip, r0
    e024:	1afffffc 	bne	e01c <Process_Out.constprop.1+0x4314>
    e028:	e3e0b000 	mvn	fp, #0
    e02c:	e2866001 	add	r6, r6, #1
    e030:	e2811001 	add	r1, r1, #1
    e034:	e0896006 	add	r6, r9, r6
    e038:	e0811009 	add	r1, r1, r9
    e03c:	e59f083c 	ldr	r0, [pc, #2108]	; e880 <Process_Out.constprop.1+0x4b78>
    e040:	e5801004 	str	r1, [r0, #4]
    e044:	eafff19a 	b	a6b4 <Process_Out.constprop.1+0x9ac>
    e048:	e35c0000 	cmp	ip, #0
    e04c:	108be001 	addne	lr, fp, r1
    e050:	108ce00e 	addne	lr, ip, lr
    e054:	13a04020 	movne	r4, #32
    e058:	108cc001 	addne	ip, ip, r1
    e05c:	0a000168 	beq	e604 <Process_Out.constprop.1+0x48fc>
    e060:	e4cc4001 	strb	r4, [ip], #1
    e064:	e15c000e 	cmp	ip, lr
    e068:	1afffffc 	bne	e060 <Process_Out.constprop.1+0x4358>
    e06c:	e3e0c000 	mvn	ip, #0
    e070:	e2811001 	add	r1, r1, #1
    e074:	e0811000 	add	r1, r1, r0
    e078:	e59f0800 	ldr	r0, [pc, #2048]	; e880 <Process_Out.constprop.1+0x4b78>
    e07c:	e5801004 	str	r1, [r0, #4]
    e080:	eafff157 	b	a5e4 <Process_Out.constprop.1+0x8dc>
    e084:	e35c0000 	cmp	ip, #0
    e088:	108be002 	addne	lr, fp, r2
    e08c:	108ce00e 	addne	lr, ip, lr
    e090:	13a06020 	movne	r6, #32
    e094:	108cc002 	addne	ip, ip, r2
    e098:	0a000153 	beq	e5ec <Process_Out.constprop.1+0x48e4>
    e09c:	e4cc6001 	strb	r6, [ip], #1
    e0a0:	e15c000e 	cmp	ip, lr
    e0a4:	1afffffc 	bne	e09c <Process_Out.constprop.1+0x4394>
    e0a8:	e3e0c000 	mvn	ip, #0
    e0ac:	e2822001 	add	r2, r2, #1
    e0b0:	e0822001 	add	r2, r2, r1
    e0b4:	e59f17c4 	ldr	r1, [pc, #1988]	; e880 <Process_Out.constprop.1+0x4b78>
    e0b8:	e5812004 	str	r2, [r1, #4]
    e0bc:	eafff453 	b	b210 <Process_Out.constprop.1+0x1508>
    e0c0:	e35c0000 	cmp	ip, #0
    e0c4:	0a000184 	beq	e6dc <Process_Out.constprop.1+0x49d4>
    e0c8:	e08a0001 	add	r0, sl, r1
    e0cc:	e59de040 	ldr	lr, [sp, #64]	; 0x40
    e0d0:	e08c0000 	add	r0, ip, r0
    e0d4:	e08cc001 	add	ip, ip, r1
    e0d8:	e4cce001 	strb	lr, [ip], #1
    e0dc:	e15c0000 	cmp	ip, r0
    e0e0:	1afffffc 	bne	e0d8 <Process_Out.constprop.1+0x43d0>
    e0e4:	e3e0a000 	mvn	sl, #0
    e0e8:	e28b6001 	add	r6, fp, #1
    e0ec:	e2811001 	add	r1, r1, #1
    e0f0:	e089b006 	add	fp, r9, r6
    e0f4:	e0811009 	add	r1, r1, r9
    e0f8:	e59f0780 	ldr	r0, [pc, #1920]	; e880 <Process_Out.constprop.1+0x4b78>
    e0fc:	e5801004 	str	r1, [r0, #4]
    e100:	eafff77b 	b	bef4 <Process_Out.constprop.1+0x21ec>
    e104:	e28cc001 	add	ip, ip, #1
    e108:	e08cc004 	add	ip, ip, r4
    e10c:	eafff4d8 	b	b474 <Process_Out.constprop.1+0x176c>
    e110:	e35e0000 	cmp	lr, #0
    e114:	0a0001b8 	beq	e7fc <Process_Out.constprop.1+0x4af4>
    e118:	e3a06020 	mov	r6, #32
    e11c:	e28c9001 	add	r9, ip, #1
    e120:	e2411001 	sub	r1, r1, #1
    e124:	e6e91071 	uxtab	r1, r9, r1
    e128:	e08e1001 	add	r1, lr, r1
    e12c:	e08ec00c 	add	ip, lr, ip
    e130:	e4cc6001 	strb	r6, [ip], #1
    e134:	e15c0001 	cmp	ip, r1
    e138:	1afffffc 	bne	e130 <Process_Out.constprop.1+0x4428>
    e13c:	e24b1001 	sub	r1, fp, #1
    e140:	e3a0b000 	mov	fp, #0
    e144:	e59d2004 	ldr	r2, [sp, #4]
    e148:	e6af1071 	sxtb	r1, r1
    e14c:	e282e001 	add	lr, r2, #1
    e150:	e08e2001 	add	r2, lr, r1
    e154:	e089c001 	add	ip, r9, r1
    e158:	e58d2004 	str	r2, [sp, #4]
    e15c:	e59f271c 	ldr	r2, [pc, #1820]	; e880 <Process_Out.constprop.1+0x4b78>
    e160:	e582c004 	str	ip, [r2, #4]
    e164:	eafff073 	b	a338 <Process_Out.constprop.1+0x630>
    e168:	e3540000 	cmp	r4, #0
    e16c:	0a000113 	beq	e5c0 <Process_Out.constprop.1+0x48b8>
    e170:	e3a02020 	mov	r2, #32
    e174:	e24e1002 	sub	r1, lr, #2
    e178:	e6ef1071 	uxtb	r1, r1
    e17c:	e28ce001 	add	lr, ip, #1
    e180:	e08e6001 	add	r6, lr, r1
    e184:	e084c00c 	add	ip, r4, ip
    e188:	e0844006 	add	r4, r4, r6
    e18c:	e4cc2001 	strb	r2, [ip], #1
    e190:	e15c0004 	cmp	ip, r4
    e194:	1afffffc 	bne	e18c <Process_Out.constprop.1+0x4484>
    e198:	e3a0b000 	mov	fp, #0
    e19c:	e59d2004 	ldr	r2, [sp, #4]
    e1a0:	e282c001 	add	ip, r2, #1
    e1a4:	e08c2001 	add	r2, ip, r1
    e1a8:	e58d2004 	str	r2, [sp, #4]
    e1ac:	e08ec001 	add	ip, lr, r1
    e1b0:	e59f26c8 	ldr	r2, [pc, #1736]	; e880 <Process_Out.constprop.1+0x4b78>
    e1b4:	e582c004 	str	ip, [r2, #4]
    e1b8:	eafff1d1 	b	a904 <Process_Out.constprop.1+0xbfc>
    e1bc:	e35c0000 	cmp	ip, #0
    e1c0:	0a0001a5 	beq	e85c <Process_Out.constprop.1+0x4b54>
    e1c4:	e28d2058 	add	r2, sp, #88	; 0x58
    e1c8:	e28b0001 	add	r0, fp, #1
    e1cc:	e241e001 	sub	lr, r1, #1
    e1d0:	e0820000 	add	r0, r2, r0
    e1d4:	e08cc00e 	add	ip, ip, lr
    e1d8:	e570e001 	ldrb	lr, [r0, #-1]!
    e1dc:	e0404002 	sub	r4, r0, r2
    e1e0:	e3540000 	cmp	r4, #0
    e1e4:	e5ece001 	strb	lr, [ip, #1]!
    e1e8:	cafffffa 	bgt	e1d8 <Process_Out.constprop.1+0x44d0>
    e1ec:	e2866001 	add	r6, r6, #1
    e1f0:	e2811001 	add	r1, r1, #1
    e1f4:	e086200b 	add	r2, r6, fp
    e1f8:	e081100b 	add	r1, r1, fp
    e1fc:	e59f067c 	ldr	r0, [pc, #1660]	; e880 <Process_Out.constprop.1+0x4b78>
    e200:	e5801004 	str	r1, [r0, #4]
    e204:	eafffb55 	b	cf60 <Process_Out.constprop.1+0x3258>
    e208:	e35c0000 	cmp	ip, #0
    e20c:	1087e001 	addne	lr, r7, r1
    e210:	108ce00e 	addne	lr, ip, lr
    e214:	13a06020 	movne	r6, #32
    e218:	108cc001 	addne	ip, ip, r1
    e21c:	0a000069 	beq	e3c8 <Process_Out.constprop.1+0x46c0>
    e220:	e4cc6001 	strb	r6, [ip], #1
    e224:	e15c000e 	cmp	ip, lr
    e228:	1afffffc 	bne	e220 <Process_Out.constprop.1+0x4518>
    e22c:	e3e0c000 	mvn	ip, #0
    e230:	e2811001 	add	r1, r1, #1
    e234:	e0811000 	add	r1, r1, r0
    e238:	e59f0640 	ldr	r0, [pc, #1600]	; e880 <Process_Out.constprop.1+0x4b78>
    e23c:	e5801004 	str	r1, [r0, #4]
    e240:	eafff2e2 	b	add0 <Process_Out.constprop.1+0x10c8>
    e244:	e35c0000 	cmp	ip, #0
    e248:	0a000063 	beq	e3dc <Process_Out.constprop.1+0x46d4>
    e24c:	e0870001 	add	r0, r7, r1
    e250:	e59de040 	ldr	lr, [sp, #64]	; 0x40
    e254:	e08c0000 	add	r0, ip, r0
    e258:	e08cc001 	add	ip, ip, r1
    e25c:	e4cce001 	strb	lr, [ip], #1
    e260:	e15c0000 	cmp	ip, r0
    e264:	1afffffc 	bne	e25c <Process_Out.constprop.1+0x4554>
    e268:	e3e07000 	mvn	r7, #0
    e26c:	e2866001 	add	r6, r6, #1
    e270:	e2811001 	add	r1, r1, #1
    e274:	e08b6006 	add	r6, fp, r6
    e278:	e081100b 	add	r1, r1, fp
    e27c:	e59f05fc 	ldr	r0, [pc, #1532]	; e880 <Process_Out.constprop.1+0x4b78>
    e280:	e5801004 	str	r1, [r0, #4]
    e284:	eafff30b 	b	aeb8 <Process_Out.constprop.1+0x11b0>
    e288:	e3a00030 	mov	r0, #48	; 0x30
    e28c:	e58d3008 	str	r3, [sp, #8]
    e290:	e2866001 	add	r6, r6, #1
    e294:	ebffea40 	bl	8b9c <Buffer_WriteChar>
    e298:	e59d3008 	ldr	r3, [sp, #8]
    e29c:	eafff52b 	b	b750 <Process_Out.constprop.1+0x1a48>
    e2a0:	e35c0000 	cmp	ip, #0
    e2a4:	0a00003e 	beq	e3a4 <Process_Out.constprop.1+0x469c>
    e2a8:	e08b1002 	add	r1, fp, r2
    e2ac:	e59de024 	ldr	lr, [sp, #36]	; 0x24
    e2b0:	e08c1001 	add	r1, ip, r1
    e2b4:	e08cc002 	add	ip, ip, r2
    e2b8:	e4cce001 	strb	lr, [ip], #1
    e2bc:	e151000c 	cmp	r1, ip
    e2c0:	1afffffc 	bne	e2b8 <Process_Out.constprop.1+0x45b0>
    e2c4:	e3e0b000 	mvn	fp, #0
    e2c8:	e2866001 	add	r6, r6, #1
    e2cc:	e2822001 	add	r2, r2, #1
    e2d0:	e08a6006 	add	r6, sl, r6
    e2d4:	e082200a 	add	r2, r2, sl
    e2d8:	e59f15a0 	ldr	r1, [pc, #1440]	; e880 <Process_Out.constprop.1+0x4b78>
    e2dc:	e5812004 	str	r2, [r1, #4]
    e2e0:	eafff4ec 	b	b698 <Process_Out.constprop.1+0x1990>
    e2e4:	e35c0000 	cmp	ip, #0
    e2e8:	108be002 	addne	lr, fp, r2
    e2ec:	108ce00e 	addne	lr, ip, lr
    e2f0:	13a06020 	movne	r6, #32
    e2f4:	108cc002 	addne	ip, ip, r2
    e2f8:	0a00007d 	beq	e4f4 <Process_Out.constprop.1+0x47ec>
    e2fc:	e4cc6001 	strb	r6, [ip], #1
    e300:	e15e000c 	cmp	lr, ip
    e304:	1afffffc 	bne	e2fc <Process_Out.constprop.1+0x45f4>
    e308:	e3e0c000 	mvn	ip, #0
    e30c:	e2822001 	add	r2, r2, #1
    e310:	e0822001 	add	r2, r2, r1
    e314:	e59f1564 	ldr	r1, [pc, #1380]	; e880 <Process_Out.constprop.1+0x4b78>
    e318:	e5812004 	str	r2, [r1, #4]
    e31c:	eafff4bd 	b	b618 <Process_Out.constprop.1+0x1910>
    e320:	e59d1004 	ldr	r1, [sp, #4]
    e324:	e1a02001 	mov	r2, r1
    e328:	e2811001 	add	r1, r1, #1
    e32c:	e041c002 	sub	ip, r1, r2
    e330:	e150000c 	cmp	r0, ip
    e334:	cafffffb 	bgt	e328 <Process_Out.constprop.1+0x4620>
    e338:	e58d1004 	str	r1, [sp, #4]
    e33c:	eafff016 	b	a39c <Process_Out.constprop.1+0x694>
    e340:	e3a00030 	mov	r0, #48	; 0x30
    e344:	e58d3008 	str	r3, [sp, #8]
    e348:	e2866001 	add	r6, r6, #1
    e34c:	ebffea12 	bl	8b9c <Buffer_WriteChar>
    e350:	e59d3008 	ldr	r3, [sp, #8]
    e354:	eafff307 	b	af78 <Process_Out.constprop.1+0x1270>
    e358:	e35c0000 	cmp	ip, #0
    e35c:	0a00013b 	beq	e850 <Process_Out.constprop.1+0x4b48>
    e360:	e28d2058 	add	r2, sp, #88	; 0x58
    e364:	e2890001 	add	r0, r9, #1
    e368:	e241e001 	sub	lr, r1, #1
    e36c:	e0820000 	add	r0, r2, r0
    e370:	e08cc00e 	add	ip, ip, lr
    e374:	e570e001 	ldrb	lr, [r0, #-1]!
    e378:	e0404002 	sub	r4, r0, r2
    e37c:	e3540000 	cmp	r4, #0
    e380:	e5ece001 	strb	lr, [ip, #1]!
    e384:	cafffffa 	bgt	e374 <Process_Out.constprop.1+0x466c>
    e388:	e28b2001 	add	r2, fp, #1
    e38c:	e2811001 	add	r1, r1, #1
    e390:	e0892002 	add	r2, r9, r2
    e394:	e0811009 	add	r1, r1, r9
    e398:	e59f04e0 	ldr	r0, [pc, #1248]	; e880 <Process_Out.constprop.1+0x4b78>
    e39c:	e5801004 	str	r1, [r0, #4]
    e3a0:	eafffbec 	b	d358 <Process_Out.constprop.1+0x3650>
    e3a4:	e2866001 	add	r6, r6, #1
    e3a8:	e086600a 	add	r6, r6, sl
    e3ac:	e3e0b000 	mvn	fp, #0
    e3b0:	eafff4b8 	b	b698 <Process_Out.constprop.1+0x1990>
    e3b4:	e1a0b00a 	mov	fp, sl
    e3b8:	eafff4b6 	b	b698 <Process_Out.constprop.1+0x1990>
    e3bc:	e28cc001 	add	ip, ip, #1
    e3c0:	e084c00c 	add	ip, r4, ip
    e3c4:	eafff512 	b	b814 <Process_Out.constprop.1+0x1b0c>
    e3c8:	e3e0c000 	mvn	ip, #0
    e3cc:	eafff27f 	b	add0 <Process_Out.constprop.1+0x10c8>
    e3d0:	e2866001 	add	r6, r6, #1
    e3d4:	e08ac006 	add	ip, sl, r6
    e3d8:	eafff2fe 	b	afd8 <Process_Out.constprop.1+0x12d0>
    e3dc:	e2866001 	add	r6, r6, #1
    e3e0:	e08b6006 	add	r6, fp, r6
    e3e4:	e3e07000 	mvn	r7, #0
    e3e8:	eafff2b2 	b	aeb8 <Process_Out.constprop.1+0x11b0>
    e3ec:	e1a07000 	mov	r7, r0
    e3f0:	eafff278 	b	add8 <Process_Out.constprop.1+0x10d0>
    e3f4:	e59d2004 	ldr	r2, [sp, #4]
    e3f8:	e2821001 	add	r1, r2, #1
    e3fc:	e24b2001 	sub	r2, fp, #1
    e400:	e6a12072 	sxtab	r2, r1, r2
    e404:	e58d2004 	str	r2, [sp, #4]
    e408:	eafff005 	b	a424 <Process_Out.constprop.1+0x71c>
    e40c:	e59d1004 	ldr	r1, [sp, #4]
    e410:	e2422002 	sub	r2, r2, #2
    e414:	e2811001 	add	r1, r1, #1
    e418:	e6e12072 	uxtab	r2, r1, r2
    e41c:	e58d2004 	str	r2, [sp, #4]
    e420:	eaffee63 	b	9db4 <Process_Out.constprop.1+0xac>
    e424:	e1a0700b 	mov	r7, fp
    e428:	eafff2a2 	b	aeb8 <Process_Out.constprop.1+0x11b0>
    e42c:	e2866001 	add	r6, r6, #1
    e430:	e086c007 	add	ip, r6, r7
    e434:	eafff4dd 	b	b7b0 <Process_Out.constprop.1+0x1aa8>
    e438:	e2866001 	add	r6, r6, #1
    e43c:	e08a6006 	add	r6, sl, r6
    e440:	e3e0b000 	mvn	fp, #0
    e444:	eafff7b1 	b	c310 <Process_Out.constprop.1+0x2608>
    e448:	e1a0a009 	mov	sl, r9
    e44c:	eafff6a8 	b	bef4 <Process_Out.constprop.1+0x21ec>
    e450:	e35e0000 	cmp	lr, #0
    e454:	13a06030 	movne	r6, #48	; 0x30
    e458:	108e000c 	addne	r0, lr, ip
    e45c:	0a000009 	beq	e488 <Process_Out.constprop.1+0x4780>
    e460:	e4c06001 	strb	r6, [r0], #1
    e464:	e1520001 	cmp	r2, r1
    e468:	e2411001 	sub	r1, r1, #1
    e46c:	e28bb001 	add	fp, fp, #1
    e470:	e040c00e 	sub	ip, r0, lr
    e474:	e6af1071 	sxtb	r1, r1
    e478:	bafffff8 	blt	e460 <Process_Out.constprop.1+0x4758>
    e47c:	e59f23fc 	ldr	r2, [pc, #1020]	; e880 <Process_Out.constprop.1+0x4b78>
    e480:	e582c004 	str	ip, [r2, #4]
    e484:	eafffb84 	b	d29c <Process_Out.constprop.1+0x3594>
    e488:	e2410001 	sub	r0, r1, #1
    e48c:	e1510002 	cmp	r1, r2
    e490:	e28bb001 	add	fp, fp, #1
    e494:	e6af1070 	sxtb	r1, r0
    e498:	cafffffa 	bgt	e488 <Process_Out.constprop.1+0x4780>
    e49c:	eafffb7e 	b	d29c <Process_Out.constprop.1+0x3594>
    e4a0:	e3a00030 	mov	r0, #48	; 0x30
    e4a4:	e58d3008 	str	r3, [sp, #8]
    e4a8:	e28bb001 	add	fp, fp, #1
    e4ac:	ebffe9ba 	bl	8b9c <Buffer_WriteChar>
    e4b0:	e59d3008 	ldr	r3, [sp, #8]
    e4b4:	eafffb8f 	b	d2f8 <Process_Out.constprop.1+0x35f0>
    e4b8:	e59d1004 	ldr	r1, [sp, #4]
    e4bc:	e1a02001 	mov	r2, r1
    e4c0:	e2811001 	add	r1, r1, #1
    e4c4:	e041c002 	sub	ip, r1, r2
    e4c8:	e150000c 	cmp	r0, ip
    e4cc:	cafffffb 	bgt	e4c0 <Process_Out.constprop.1+0x47b8>
    e4d0:	eaffff98 	b	e338 <Process_Out.constprop.1+0x4630>
    e4d4:	e2866001 	add	r6, r6, #1
    e4d8:	e08a6006 	add	r6, sl, r6
    e4dc:	e3e0b000 	mvn	fp, #0
    e4e0:	eafff383 	b	b2f4 <Process_Out.constprop.1+0x15ec>
    e4e4:	e3e0c000 	mvn	ip, #0
    e4e8:	eafff648 	b	be10 <Process_Out.constprop.1+0x2108>
    e4ec:	e1a0b00a 	mov	fp, sl
    e4f0:	eafff786 	b	c310 <Process_Out.constprop.1+0x2608>
    e4f4:	e3e0c000 	mvn	ip, #0
    e4f8:	eafff446 	b	b618 <Process_Out.constprop.1+0x1910>
    e4fc:	e3500000 	cmp	r0, #0
    e500:	108ac001 	addne	ip, sl, r1
    e504:	1080c00c 	addne	ip, r0, ip
    e508:	13a04020 	movne	r4, #32
    e50c:	10800001 	addne	r0, r0, r1
    e510:	0a0000c9 	beq	e83c <Process_Out.constprop.1+0x4b34>
    e514:	e4c04001 	strb	r4, [r0], #1
    e518:	e150000c 	cmp	r0, ip
    e51c:	1afffffc 	bne	e514 <Process_Out.constprop.1+0x480c>
    e520:	e2822001 	add	r2, r2, #1
    e524:	e2811001 	add	r1, r1, #1
    e528:	e08e2002 	add	r2, lr, r2
    e52c:	e081100e 	add	r1, r1, lr
    e530:	e59f0348 	ldr	r0, [pc, #840]	; e880 <Process_Out.constprop.1+0x4b78>
    e534:	e5801004 	str	r1, [r0, #4]
    e538:	eafffb9f 	b	d3bc <Process_Out.constprop.1+0x36b4>
    e53c:	e1a0b00a 	mov	fp, sl
    e540:	eafff36b 	b	b2f4 <Process_Out.constprop.1+0x15ec>
    e544:	e28b6001 	add	r6, fp, #1
    e548:	e086b009 	add	fp, r6, r9
    e54c:	e3e07000 	mvn	r7, #0
    e550:	eafff55b 	b	bac4 <Process_Out.constprop.1+0x1dbc>
    e554:	e3e0c000 	mvn	ip, #0
    e558:	eafff733 	b	c22c <Process_Out.constprop.1+0x2524>
    e55c:	e2866001 	add	r6, r6, #1
    e560:	e0896006 	add	r6, r9, r6
    e564:	e3e0b000 	mvn	fp, #0
    e568:	eafff051 	b	a6b4 <Process_Out.constprop.1+0x9ac>
    e56c:	e1a0b009 	mov	fp, r9
    e570:	eafff04f 	b	a6b4 <Process_Out.constprop.1+0x9ac>
    e574:	e3500000 	cmp	r0, #0
    e578:	108ac001 	addne	ip, sl, r1
    e57c:	1080c00c 	addne	ip, r0, ip
    e580:	13a0e020 	movne	lr, #32
    e584:	10800001 	addne	r0, r0, r1
    e588:	0a0000a2 	beq	e818 <Process_Out.constprop.1+0x4b10>
    e58c:	e4c0e001 	strb	lr, [r0], #1
    e590:	e150000c 	cmp	r0, ip
    e594:	1afffffc 	bne	e58c <Process_Out.constprop.1+0x4884>
    e598:	e3e00000 	mvn	r0, #0
    e59c:	e2811001 	add	r1, r1, #1
    e5a0:	e0811006 	add	r1, r1, r6
    e5a4:	e59fc2d4 	ldr	ip, [pc, #724]	; e880 <Process_Out.constprop.1+0x4b78>
    e5a8:	e58c1004 	str	r1, [ip, #4]
    e5ac:	eafffae6 	b	d14c <Process_Out.constprop.1+0x3444>
    e5b0:	e1a07009 	mov	r7, r9
    e5b4:	eafff542 	b	bac4 <Process_Out.constprop.1+0x1dbc>
    e5b8:	e1a0b001 	mov	fp, r1
    e5bc:	eafff417 	b	b620 <Process_Out.constprop.1+0x1918>
    e5c0:	e59d2004 	ldr	r2, [sp, #4]
    e5c4:	e24ee002 	sub	lr, lr, #2
    e5c8:	e2822001 	add	r2, r2, #1
    e5cc:	e6e2207e 	uxtab	r2, r2, lr
    e5d0:	e58d2004 	str	r2, [sp, #4]
    e5d4:	e3a0b000 	mov	fp, #0
    e5d8:	eafff0c9 	b	a904 <Process_Out.constprop.1+0xbfc>
    e5dc:	e1a07000 	mov	r7, r0
    e5e0:	eafff500 	b	b9e8 <Process_Out.constprop.1+0x1ce0>
    e5e4:	e3e0c000 	mvn	ip, #0
    e5e8:	eafff4fc 	b	b9e0 <Process_Out.constprop.1+0x1cd8>
    e5ec:	e3e0c000 	mvn	ip, #0
    e5f0:	eafff306 	b	b210 <Process_Out.constprop.1+0x1508>
    e5f4:	e1a0b001 	mov	fp, r1
    e5f8:	eafff306 	b	b218 <Process_Out.constprop.1+0x1510>
    e5fc:	e1a0b000 	mov	fp, r0
    e600:	eaffeff9 	b	a5ec <Process_Out.constprop.1+0x8e4>
    e604:	e3e0c000 	mvn	ip, #0
    e608:	eaffeff5 	b	a5e4 <Process_Out.constprop.1+0x8dc>
    e60c:	e28cc001 	add	ip, ip, #1
    e610:	e084c00c 	add	ip, r4, ip
    e614:	eafff288 	b	b03c <Process_Out.constprop.1+0x1334>
    e618:	e1a0b001 	mov	fp, r1
    e61c:	eafff704 	b	c234 <Process_Out.constprop.1+0x252c>
    e620:	e3110008 	tst	r1, #8
    e624:	0afffd5b 	beq	db98 <Process_Out.constprop.1+0x3e90>
    e628:	e24b2001 	sub	r2, fp, #1
    e62c:	e58d2038 	str	r2, [sp, #56]	; 0x38
    e630:	e3a02020 	mov	r2, #32
    e634:	e58d203c 	str	r2, [sp, #60]	; 0x3c
    e638:	eafffa9b 	b	d0ac <Process_Out.constprop.1+0x33a4>
    e63c:	e3510000 	cmp	r1, #0
    e640:	108ac002 	addne	ip, sl, r2
    e644:	1081c00c 	addne	ip, r1, ip
    e648:	13a0e020 	movne	lr, #32
    e64c:	10811002 	addne	r1, r1, r2
    e650:	0a000065 	beq	e7ec <Process_Out.constprop.1+0x4ae4>
    e654:	e4c1e001 	strb	lr, [r1], #1
    e658:	e151000c 	cmp	r1, ip
    e65c:	1afffffc 	bne	e654 <Process_Out.constprop.1+0x494c>
    e660:	e3e01000 	mvn	r1, #0
    e664:	e2822001 	add	r2, r2, #1
    e668:	e0822007 	add	r2, r2, r7
    e66c:	e59fc20c 	ldr	ip, [pc, #524]	; e880 <Process_Out.constprop.1+0x4b78>
    e670:	e58c2004 	str	r2, [ip, #4]
    e674:	eafff9d0 	b	cdbc <Process_Out.constprop.1+0x30b4>
    e678:	e3500000 	cmp	r0, #0
    e67c:	108ac001 	addne	ip, sl, r1
    e680:	1080c00c 	addne	ip, r0, ip
    e684:	13a04020 	movne	r4, #32
    e688:	10800001 	addne	r0, r0, r1
    e68c:	0a000067 	beq	e830 <Process_Out.constprop.1+0x4b28>
    e690:	e4c04001 	strb	r4, [r0], #1
    e694:	e15c0000 	cmp	ip, r0
    e698:	1afffffc 	bne	e690 <Process_Out.constprop.1+0x4988>
    e69c:	e2822001 	add	r2, r2, #1
    e6a0:	e2811001 	add	r1, r1, #1
    e6a4:	e082200e 	add	r2, r2, lr
    e6a8:	e081100e 	add	r1, r1, lr
    e6ac:	e59f01cc 	ldr	r0, [pc, #460]	; e880 <Process_Out.constprop.1+0x4b78>
    e6b0:	e5801004 	str	r1, [r0, #4]
    e6b4:	eafffa42 	b	cfc4 <Process_Out.constprop.1+0x32bc>
    e6b8:	e3120008 	tst	r2, #8
    e6bc:	0afffd38 	beq	dba4 <Process_Out.constprop.1+0x3e9c>
    e6c0:	e24b2001 	sub	r2, fp, #1
    e6c4:	e58d2008 	str	r2, [sp, #8]
    e6c8:	e3a02020 	mov	r2, #32
    e6cc:	e58d200c 	str	r2, [sp, #12]
    e6d0:	eafff991 	b	cd1c <Process_Out.constprop.1+0x3014>
    e6d4:	e1a0a000 	mov	sl, r0
    e6d8:	eafff5ce 	b	be18 <Process_Out.constprop.1+0x2110>
    e6dc:	e28b6001 	add	r6, fp, #1
    e6e0:	e089b006 	add	fp, r9, r6
    e6e4:	e3e0a000 	mvn	sl, #0
    e6e8:	eafff601 	b	bef4 <Process_Out.constprop.1+0x21ec>
    e6ec:	e3500000 	cmp	r0, #0
    e6f0:	108ac001 	addne	ip, sl, r1
    e6f4:	1080c00c 	addne	ip, r0, ip
    e6f8:	10800001 	addne	r0, r0, r1
    e6fc:	0a00005b 	beq	e870 <Process_Out.constprop.1+0x4b68>
    e700:	e5dde044 	ldrb	lr, [sp, #68]	; 0x44
    e704:	e4c0e001 	strb	lr, [r0], #1
    e708:	e150000c 	cmp	r0, ip
    e70c:	1afffffb 	bne	e700 <Process_Out.constprop.1+0x49f8>
    e710:	e3e0a000 	mvn	sl, #0
    e714:	e28b6001 	add	r6, fp, #1
    e718:	e2811001 	add	r1, r1, #1
    e71c:	e087b006 	add	fp, r7, r6
    e720:	e0811007 	add	r1, r1, r7
    e724:	e59f0154 	ldr	r0, [pc, #340]	; e880 <Process_Out.constprop.1+0x4b78>
    e728:	e5801004 	str	r1, [r0, #4]
    e72c:	eafffabf 	b	d230 <Process_Out.constprop.1+0x3528>
    e730:	e3510000 	cmp	r1, #0
    e734:	108ac002 	addne	ip, sl, r2
    e738:	1081c00c 	addne	ip, r1, ip
    e73c:	10811002 	addne	r1, r1, r2
    e740:	0a000025 	beq	e7dc <Process_Out.constprop.1+0x4ad4>
    e744:	e5dde024 	ldrb	lr, [sp, #36]	; 0x24
    e748:	e4c1e001 	strb	lr, [r1], #1
    e74c:	e15c0001 	cmp	ip, r1
    e750:	1afffffb 	bne	e744 <Process_Out.constprop.1+0x4a3c>
    e754:	e3e0a000 	mvn	sl, #0
    e758:	e2866001 	add	r6, r6, #1
    e75c:	e2822001 	add	r2, r2, #1
    e760:	e0896006 	add	r6, r9, r6
    e764:	e0822009 	add	r2, r2, r9
    e768:	e59f1110 	ldr	r1, [pc, #272]	; e880 <Process_Out.constprop.1+0x4b78>
    e76c:	e5812004 	str	r2, [r1, #4]
    e770:	eafff9b0 	b	ce38 <Process_Out.constprop.1+0x3130>
    e774:	e35e0000 	cmp	lr, #0
    e778:	13a07030 	movne	r7, #48	; 0x30
    e77c:	108e100c 	addne	r1, lr, ip
    e780:	0a000009 	beq	e7ac <Process_Out.constprop.1+0x4aa4>
    e784:	e4c17001 	strb	r7, [r1], #1
    e788:	e1500002 	cmp	r0, r2
    e78c:	e2422001 	sub	r2, r2, #1
    e790:	e2866001 	add	r6, r6, #1
    e794:	e041c00e 	sub	ip, r1, lr
    e798:	e6af2072 	sxtb	r2, r2
    e79c:	bafffff8 	blt	e784 <Process_Out.constprop.1+0x4a7c>
    e7a0:	e59f20d8 	ldr	r2, [pc, #216]	; e880 <Process_Out.constprop.1+0x4b78>
    e7a4:	e582c004 	str	ip, [r2, #4]
    e7a8:	eafff9bd 	b	cea4 <Process_Out.constprop.1+0x319c>
    e7ac:	e2421001 	sub	r1, r2, #1
    e7b0:	e1500002 	cmp	r0, r2
    e7b4:	e2866001 	add	r6, r6, #1
    e7b8:	e6af2071 	sxtb	r2, r1
    e7bc:	bafffffa 	blt	e7ac <Process_Out.constprop.1+0x4aa4>
    e7c0:	eafff9b7 	b	cea4 <Process_Out.constprop.1+0x319c>
    e7c4:	e3a00030 	mov	r0, #48	; 0x30
    e7c8:	e58d3008 	str	r3, [sp, #8]
    e7cc:	e2866001 	add	r6, r6, #1
    e7d0:	ebffe8f1 	bl	8b9c <Buffer_WriteChar>
    e7d4:	e59d3008 	ldr	r3, [sp, #8]
    e7d8:	eafff9c8 	b	cf00 <Process_Out.constprop.1+0x31f8>
    e7dc:	e2866001 	add	r6, r6, #1
    e7e0:	e0896006 	add	r6, r9, r6
    e7e4:	e3e0a000 	mvn	sl, #0
    e7e8:	eafff992 	b	ce38 <Process_Out.constprop.1+0x3130>
    e7ec:	e3e01000 	mvn	r1, #0
    e7f0:	eafff971 	b	cdbc <Process_Out.constprop.1+0x30b4>
    e7f4:	e1a0a009 	mov	sl, r9
    e7f8:	eafff98e 	b	ce38 <Process_Out.constprop.1+0x3130>
    e7fc:	e59d2004 	ldr	r2, [sp, #4]
    e800:	e2821001 	add	r1, r2, #1
    e804:	e24b2001 	sub	r2, fp, #1
    e808:	e6a12072 	sxtab	r2, r1, r2
    e80c:	e58d2004 	str	r2, [sp, #4]
    e810:	e3a0b000 	mov	fp, #0
    e814:	eaffeec7 	b	a338 <Process_Out.constprop.1+0x630>
    e818:	e3e00000 	mvn	r0, #0
    e81c:	eafffa4a 	b	d14c <Process_Out.constprop.1+0x3444>
    e820:	e1a0a007 	mov	sl, r7
    e824:	eafffa81 	b	d230 <Process_Out.constprop.1+0x3528>
    e828:	e1a0a007 	mov	sl, r7
    e82c:	eafff964 	b	cdc4 <Process_Out.constprop.1+0x30bc>
    e830:	e2822001 	add	r2, r2, #1
    e834:	e082200e 	add	r2, r2, lr
    e838:	eafff9e1 	b	cfc4 <Process_Out.constprop.1+0x32bc>
    e83c:	e2822001 	add	r2, r2, #1
    e840:	e082200e 	add	r2, r2, lr
    e844:	eafffadc 	b	d3bc <Process_Out.constprop.1+0x36b4>
    e848:	e1a0a006 	mov	sl, r6
    e84c:	eafffa40 	b	d154 <Process_Out.constprop.1+0x344c>
    e850:	e28b2001 	add	r2, fp, #1
    e854:	e0892002 	add	r2, r9, r2
    e858:	eafffabe 	b	d358 <Process_Out.constprop.1+0x3650>
    e85c:	e2866001 	add	r6, r6, #1
    e860:	e086200b 	add	r2, r6, fp
    e864:	eafff9bd 	b	cf60 <Process_Out.constprop.1+0x3258>
    e868:	e59da004 	ldr	sl, [sp, #4]
    e86c:	eafffb26 	b	d50c <Process_Out.constprop.1+0x3804>
    e870:	e28b6001 	add	r6, fp, #1
    e874:	e087b006 	add	fp, r7, r6
    e878:	e3e0a000 	mvn	sl, #0
    e87c:	eafffa6b 	b	d230 <Process_Out.constprop.1+0x3528>
    e880:	000185c0 	.word	0x000185c0
    e884:	00018688 	.word	0x00018688

0000e888 <snprintf.constprop.0>:
    e888:	e92d000c 	push	{r2, r3}
    e88c:	e3a01000 	mov	r1, #0
    e890:	e92d4030 	push	{r4, r5, lr}
    e894:	e3a02c02 	mov	r2, #512	; 0x200
    e898:	e1a05000 	mov	r5, r0
    e89c:	e24dd00c 	sub	sp, sp, #12
    e8a0:	e59f407c 	ldr	r4, [pc, #124]	; e924 <snprintf.constprop.0+0x9c>
    e8a4:	e28d301c 	add	r3, sp, #28
    e8a8:	e59d0018 	ldr	r0, [sp, #24]
    e8ac:	e58d3004 	str	r3, [sp, #4]
    e8b0:	e9840022 	stmib	r4, {r1, r5}
    e8b4:	e5842000 	str	r2, [r4]
    e8b8:	eb001106 	bl	12cd8 <strlen>
    e8bc:	e59d2004 	ldr	r2, [sp, #4]
    e8c0:	e1a01000 	mov	r1, r0
    e8c4:	e59d0018 	ldr	r0, [sp, #24]
    e8c8:	ebffed0e 	bl	9d08 <Process_Out.constprop.1>
    e8cc:	e5943000 	ldr	r3, [r4]
    e8d0:	e3730001 	cmn	r3, #1
    e8d4:	0a000002 	beq	e8e4 <snprintf.constprop.0+0x5c>
    e8d8:	e5942004 	ldr	r2, [r4, #4]
    e8dc:	e1530002 	cmp	r3, r2
    e8e0:	da00000d 	ble	e91c <snprintf.constprop.0+0x94>
    e8e4:	e5943008 	ldr	r3, [r4, #8]
    e8e8:	e3530000 	cmp	r3, #0
    e8ec:	13a0c000 	movne	ip, #0
    e8f0:	15942004 	ldrne	r2, [r4, #4]
    e8f4:	12821001 	addne	r1, r2, #1
    e8f8:	17c3c002 	strbne	ip, [r3, r2]
    e8fc:	15841004 	strne	r1, [r4, #4]
    e900:	e1530005 	cmp	r3, r5
    e904:	03a03000 	moveq	r3, #0
    e908:	05843008 	streq	r3, [r4, #8]
    e90c:	e28dd00c 	add	sp, sp, #12
    e910:	e8bd4030 	pop	{r4, r5, lr}
    e914:	e28dd008 	add	sp, sp, #8
    e918:	e12fff1e 	bx	lr
    e91c:	e5943008 	ldr	r3, [r4, #8]
    e920:	eafffff6 	b	e900 <snprintf.constprop.0+0x78>
    e924:	000185c0 	.word	0x000185c0

0000e928 <vsscanf>:
    e928:	e3500000 	cmp	r0, #0
    e92c:	13510000 	cmpne	r1, #0
    e930:	03a03001 	moveq	r3, #1
    e934:	13a03000 	movne	r3, #0
    e938:	e92d4ff0 	push	{r4, r5, r6, r7, r8, r9, sl, fp, lr}
    e93c:	e24dde52 	sub	sp, sp, #1312	; 0x520
    e940:	e24dd00c 	sub	sp, sp, #12
    e944:	e58d3014 	str	r3, [sp, #20]
    e948:	03a03000 	moveq	r3, #0
    e94c:	058d3000 	streq	r3, [sp]
    e950:	0a000021 	beq	e9dc <vsscanf+0xb4>
    e954:	e58d2004 	str	r2, [sp, #4]
    e958:	e28d2024 	add	r2, sp, #36	; 0x24
    e95c:	e58d2008 	str	r2, [sp, #8]
    e960:	e3a0200a 	mov	r2, #10
    e964:	e1a04001 	mov	r4, r1
    e968:	e1a05000 	mov	r5, r0
    e96c:	e58d3018 	str	r3, [sp, #24]
    e970:	e58d301c 	str	r3, [sp, #28]
    e974:	e58d3010 	str	r3, [sp, #16]
    e978:	e58d200c 	str	r2, [sp, #12]
    e97c:	e58d3000 	str	r3, [sp]
    e980:	e5d53000 	ldrb	r3, [r5]
    e984:	e3530000 	cmp	r3, #0
    e988:	0a000013 	beq	e9dc <vsscanf+0xb4>
    e98c:	e5d43000 	ldrb	r3, [r4]
    e990:	e3530000 	cmp	r3, #0
    e994:	0a000010 	beq	e9dc <vsscanf+0xb4>
    e998:	eb000f79 	bl	12784 <__locale_ctype_ptr>
    e99c:	e1a07004 	mov	r7, r4
    e9a0:	e4d42001 	ldrb	r2, [r4], #1
    e9a4:	e0800002 	add	r0, r0, r2
    e9a8:	e5d06001 	ldrb	r6, [r0, #1]
    e9ac:	e2166008 	ands	r6, r6, #8
    e9b0:	1afffff8 	bne	e998 <vsscanf+0x70>
    e9b4:	e3520025 	cmp	r2, #37	; 0x25
    e9b8:	0a00000b 	beq	e9ec <vsscanf+0xc4>
    e9bc:	e5d53000 	ldrb	r3, [r5]
    e9c0:	e1530002 	cmp	r3, r2
    e9c4:	1a000004 	bne	e9dc <vsscanf+0xb4>
    e9c8:	e2855001 	add	r5, r5, #1
    e9cc:	e5d53000 	ldrb	r3, [r5]
    e9d0:	e2874001 	add	r4, r7, #1
    e9d4:	e3530000 	cmp	r3, #0
    e9d8:	1affffeb 	bne	e98c <vsscanf+0x64>
    e9dc:	e59d0000 	ldr	r0, [sp]
    e9e0:	e28dde52 	add	sp, sp, #1312	; 0x520
    e9e4:	e28dd00c 	add	sp, sp, #12
    e9e8:	e8bd8ff0 	pop	{r4, r5, r6, r7, r8, r9, sl, fp, pc}
    e9ec:	e5d73001 	ldrb	r3, [r7, #1]
    e9f0:	e1a09004 	mov	r9, r4
    e9f4:	e353002a 	cmp	r3, #42	; 0x2a
    e9f8:	03a03001 	moveq	r3, #1
    e9fc:	058d3010 	streq	r3, [sp, #16]
    ea00:	00855003 	addeq	r5, r5, r3
    ea04:	eb000f5e 	bl	12784 <__locale_ctype_ptr>
    ea08:	e5d78001 	ldrb	r8, [r7, #1]
    ea0c:	e0800008 	add	r0, r0, r8
    ea10:	e5d03001 	ldrb	r3, [r0, #1]
    ea14:	e3130004 	tst	r3, #4
    ea18:	11a08004 	movne	r8, r4
    ea1c:	1a000011 	bne	ea68 <vsscanf+0x140>
    ea20:	e20830fb 	and	r3, r8, #251	; 0xfb
    ea24:	e3530068 	cmp	r3, #104	; 0x68
    ea28:	e3a07c01 	mov	r7, #256	; 0x100
    ea2c:	0a000028 	beq	ead4 <vsscanf+0x1ac>
    ea30:	e3580074 	cmp	r8, #116	; 0x74
    ea34:	1358004c 	cmpne	r8, #76	; 0x4c
    ea38:	03a03001 	moveq	r3, #1
    ea3c:	13a03000 	movne	r3, #0
    ea40:	e20820ef 	and	r2, r8, #239	; 0xef
    ea44:	e352006a 	cmp	r2, #106	; 0x6a
    ea48:	03833001 	orreq	r3, r3, #1
    ea4c:	e3530000 	cmp	r3, #0
    ea50:	15d9a001 	ldrbne	sl, [r9, #1]
    ea54:	1a000024 	bne	eaec <vsscanf+0x1c4>
    ea58:	e1a0a008 	mov	sl, r8
    ea5c:	e1a08006 	mov	r8, r6
    ea60:	ea000022 	b	eaf0 <vsscanf+0x1c8>
    ea64:	e1a08002 	mov	r8, r2
    ea68:	eb000f45 	bl	12784 <__locale_ctype_ptr>
    ea6c:	e5d83000 	ldrb	r3, [r8]
    ea70:	e2882001 	add	r2, r8, #1
    ea74:	e0800003 	add	r0, r0, r3
    ea78:	e5d03001 	ldrb	r3, [r0, #1]
    ea7c:	e2133004 	ands	r3, r3, #4
    ea80:	1afffff7 	bne	ea64 <vsscanf+0x13c>
    ea84:	e1a07003 	mov	r7, r3
    ea88:	e0489004 	sub	r9, r8, r4
    ea8c:	e1a02009 	mov	r2, r9
    ea90:	e1a01004 	mov	r1, r4
    ea94:	e28d0028 	add	r0, sp, #40	; 0x28
    ea98:	eb0010a6 	bl	12d38 <strncpy>
    ea9c:	e28d3e52 	add	r3, sp, #1312	; 0x520
    eaa0:	e2833008 	add	r3, r3, #8
    eaa4:	e0839009 	add	r9, r3, r9
    eaa8:	e1a00004 	mov	r0, r4
    eaac:	e3a0200a 	mov	r2, #10
    eab0:	e59d1008 	ldr	r1, [sp, #8]
    eab4:	e5497500 	strb	r7, [r9, #-1280]	; 0xfffffb00
    eab8:	eb0016e7 	bl	1465c <strtol>
    eabc:	e1a09008 	mov	r9, r8
    eac0:	e5d88000 	ldrb	r8, [r8]
    eac4:	e1a07000 	mov	r7, r0
    eac8:	e20830fb 	and	r3, r8, #251	; 0xfb
    eacc:	e3530068 	cmp	r3, #104	; 0x68
    ead0:	1affffd6 	bne	ea30 <vsscanf+0x108>
    ead4:	e5d9a001 	ldrb	sl, [r9, #1]
    ead8:	e15a0008 	cmp	sl, r8
    eadc:	03a03001 	moveq	r3, #1
    eae0:	05d9a002 	ldrbeq	sl, [r9, #2]
    eae4:	058d3018 	streq	r3, [sp, #24]
    eae8:	00899003 	addeq	r9, r9, r3
    eaec:	e2899001 	add	r9, r9, #1
    eaf0:	e2894001 	add	r4, r9, #1
    eaf4:	e35a0078 	cmp	sl, #120	; 0x78
    eaf8:	979ff10a 	ldrls	pc, [pc, sl, lsl #2]
    eafc:	ea00024c 	b	f434 <vsscanf+0xb0c>
    eb00:	0000e9dc 	.word	0x0000e9dc
    eb04:	0000f434 	.word	0x0000f434
    eb08:	0000f434 	.word	0x0000f434
    eb0c:	0000f434 	.word	0x0000f434
    eb10:	0000f434 	.word	0x0000f434
    eb14:	0000f434 	.word	0x0000f434
    eb18:	0000f434 	.word	0x0000f434
    eb1c:	0000f434 	.word	0x0000f434
    eb20:	0000f434 	.word	0x0000f434
    eb24:	0000f434 	.word	0x0000f434
    eb28:	0000f434 	.word	0x0000f434
    eb2c:	0000f434 	.word	0x0000f434
    eb30:	0000f434 	.word	0x0000f434
    eb34:	0000f434 	.word	0x0000f434
    eb38:	0000f434 	.word	0x0000f434
    eb3c:	0000f434 	.word	0x0000f434
    eb40:	0000f434 	.word	0x0000f434
    eb44:	0000f434 	.word	0x0000f434
    eb48:	0000f434 	.word	0x0000f434
    eb4c:	0000f434 	.word	0x0000f434
    eb50:	0000f434 	.word	0x0000f434
    eb54:	0000f434 	.word	0x0000f434
    eb58:	0000f434 	.word	0x0000f434
    eb5c:	0000f434 	.word	0x0000f434
    eb60:	0000f434 	.word	0x0000f434
    eb64:	0000f434 	.word	0x0000f434
    eb68:	0000f434 	.word	0x0000f434
    eb6c:	0000f434 	.word	0x0000f434
    eb70:	0000f434 	.word	0x0000f434
    eb74:	0000f434 	.word	0x0000f434
    eb78:	0000f434 	.word	0x0000f434
    eb7c:	0000f434 	.word	0x0000f434
    eb80:	0000f434 	.word	0x0000f434
    eb84:	0000f434 	.word	0x0000f434
    eb88:	0000f434 	.word	0x0000f434
    eb8c:	0000f434 	.word	0x0000f434
    eb90:	0000f434 	.word	0x0000f434
    eb94:	0000f434 	.word	0x0000f434
    eb98:	0000f434 	.word	0x0000f434
    eb9c:	0000f434 	.word	0x0000f434
    eba0:	0000f434 	.word	0x0000f434
    eba4:	0000f434 	.word	0x0000f434
    eba8:	0000f434 	.word	0x0000f434
    ebac:	0000f434 	.word	0x0000f434
    ebb0:	0000f434 	.word	0x0000f434
    ebb4:	0000f434 	.word	0x0000f434
    ebb8:	0000f434 	.word	0x0000f434
    ebbc:	0000f434 	.word	0x0000f434
    ebc0:	0000f434 	.word	0x0000f434
    ebc4:	0000f434 	.word	0x0000f434
    ebc8:	0000f434 	.word	0x0000f434
    ebcc:	0000f434 	.word	0x0000f434
    ebd0:	0000f434 	.word	0x0000f434
    ebd4:	0000f434 	.word	0x0000f434
    ebd8:	0000f434 	.word	0x0000f434
    ebdc:	0000f434 	.word	0x0000f434
    ebe0:	0000f434 	.word	0x0000f434
    ebe4:	0000f434 	.word	0x0000f434
    ebe8:	0000f434 	.word	0x0000f434
    ebec:	0000f434 	.word	0x0000f434
    ebf0:	0000f434 	.word	0x0000f434
    ebf4:	0000f434 	.word	0x0000f434
    ebf8:	0000f434 	.word	0x0000f434
    ebfc:	0000f434 	.word	0x0000f434
    ec00:	0000f434 	.word	0x0000f434
    ec04:	0000ee88 	.word	0x0000ee88
    ec08:	0000f434 	.word	0x0000f434
    ec0c:	0000f434 	.word	0x0000f434
    ec10:	0000f434 	.word	0x0000f434
    ec14:	0000ee88 	.word	0x0000ee88
    ec18:	0000ee88 	.word	0x0000ee88
    ec1c:	0000ee88 	.word	0x0000ee88
    ec20:	0000f434 	.word	0x0000f434
    ec24:	0000f434 	.word	0x0000f434
    ec28:	0000f434 	.word	0x0000f434
    ec2c:	0000f434 	.word	0x0000f434
    ec30:	0000f434 	.word	0x0000f434
    ec34:	0000f434 	.word	0x0000f434
    ec38:	0000f434 	.word	0x0000f434
    ec3c:	0000f434 	.word	0x0000f434
    ec40:	0000f434 	.word	0x0000f434
    ec44:	0000f434 	.word	0x0000f434
    ec48:	0000f434 	.word	0x0000f434
    ec4c:	0000f434 	.word	0x0000f434
    ec50:	0000f434 	.word	0x0000f434
    ec54:	0000f434 	.word	0x0000f434
    ec58:	0000f434 	.word	0x0000f434
    ec5c:	0000f434 	.word	0x0000f434
    ec60:	0000ee24 	.word	0x0000ee24
    ec64:	0000f434 	.word	0x0000f434
    ec68:	0000f434 	.word	0x0000f434
    ec6c:	0000ef78 	.word	0x0000ef78
    ec70:	0000f434 	.word	0x0000f434
    ec74:	0000f434 	.word	0x0000f434
    ec78:	0000f434 	.word	0x0000f434
    ec7c:	0000f434 	.word	0x0000f434
    ec80:	0000f434 	.word	0x0000f434
    ec84:	0000ee88 	.word	0x0000ee88
    ec88:	0000f434 	.word	0x0000f434
    ec8c:	0000eecc 	.word	0x0000eecc
    ec90:	0000ece4 	.word	0x0000ece4
    ec94:	0000ee88 	.word	0x0000ee88
    ec98:	0000ee88 	.word	0x0000ee88
    ec9c:	0000ee88 	.word	0x0000ee88
    eca0:	0000f434 	.word	0x0000f434
    eca4:	0000ece4 	.word	0x0000ece4
    eca8:	0000f434 	.word	0x0000f434
    ecac:	0000f434 	.word	0x0000f434
    ecb0:	0000f434 	.word	0x0000f434
    ecb4:	0000f434 	.word	0x0000f434
    ecb8:	0000f434 	.word	0x0000f434
    ecbc:	0000ee24 	.word	0x0000ee24
    ecc0:	0000ee24 	.word	0x0000ee24
    ecc4:	0000f434 	.word	0x0000f434
    ecc8:	0000f434 	.word	0x0000f434
    eccc:	0000eecc 	.word	0x0000eecc
    ecd0:	0000f434 	.word	0x0000f434
    ecd4:	0000ee24 	.word	0x0000ee24
    ecd8:	0000f434 	.word	0x0000f434
    ecdc:	0000f434 	.word	0x0000f434
    ece0:	0000ee24 	.word	0x0000ee24
    ece4:	eb000ea6 	bl	12784 <__locale_ctype_ptr>
    ece8:	e1a06005 	mov	r6, r5
    ecec:	e4d53001 	ldrb	r3, [r5], #1
    ecf0:	e243202b 	sub	r2, r3, #43	; 0x2b
    ecf4:	e20220fd 	and	r2, r2, #253	; 0xfd
    ecf8:	e3530000 	cmp	r3, #0
    ecfc:	13520000 	cmpne	r2, #0
    ed00:	13a02001 	movne	r2, #1
    ed04:	03a02000 	moveq	r2, #0
    ed08:	e0800003 	add	r0, r0, r3
    ed0c:	e5d01001 	ldrb	r1, [r0, #1]
    ed10:	e2211004 	eor	r1, r1, #4
    ed14:	e0122121 	ands	r2, r2, r1, lsr #2
    ed18:	1afffff1 	bne	ece4 <vsscanf+0x3bc>
    ed1c:	e3530000 	cmp	r3, #0
    ed20:	0affff2d 	beq	e9dc <vsscanf+0xb4>
    ed24:	e5d62001 	ldrb	r2, [r6, #1]
    ed28:	e2865001 	add	r5, r6, #1
    ed2c:	e3520000 	cmp	r2, #0
    ed30:	0affff29 	beq	e9dc <vsscanf+0xb4>
    ed34:	e24a2041 	sub	r2, sl, #65	; 0x41
    ed38:	e3520037 	cmp	r2, #55	; 0x37
    ed3c:	979ff102 	ldrls	pc, [pc, r2, lsl #2]
    ed40:	ea000078 	b	ef28 <vsscanf+0x600>
    ed44:	0000efc0 	.word	0x0000efc0
    ed48:	0000ef28 	.word	0x0000ef28
    ed4c:	0000ef28 	.word	0x0000ef28
    ed50:	0000ef28 	.word	0x0000ef28
    ed54:	0000efc0 	.word	0x0000efc0
    ed58:	0000efc0 	.word	0x0000efc0
    ed5c:	0000efc0 	.word	0x0000efc0
    ed60:	0000ef28 	.word	0x0000ef28
    ed64:	0000ef28 	.word	0x0000ef28
    ed68:	0000ef28 	.word	0x0000ef28
    ed6c:	0000ef28 	.word	0x0000ef28
    ed70:	0000ef28 	.word	0x0000ef28
    ed74:	0000ef28 	.word	0x0000ef28
    ed78:	0000ef28 	.word	0x0000ef28
    ed7c:	0000ef28 	.word	0x0000ef28
    ed80:	0000ef28 	.word	0x0000ef28
    ed84:	0000ef28 	.word	0x0000ef28
    ed88:	0000ef28 	.word	0x0000ef28
    ed8c:	0000ef28 	.word	0x0000ef28
    ed90:	0000ef28 	.word	0x0000ef28
    ed94:	0000ef28 	.word	0x0000ef28
    ed98:	0000ef28 	.word	0x0000ef28
    ed9c:	0000ef28 	.word	0x0000ef28
    eda0:	0000eeec 	.word	0x0000eeec
    eda4:	0000ef28 	.word	0x0000ef28
    eda8:	0000ef28 	.word	0x0000ef28
    edac:	0000ef98 	.word	0x0000ef98
    edb0:	0000ef28 	.word	0x0000ef28
    edb4:	0000ef28 	.word	0x0000ef28
    edb8:	0000ef28 	.word	0x0000ef28
    edbc:	0000ef28 	.word	0x0000ef28
    edc0:	0000ef28 	.word	0x0000ef28
    edc4:	0000efc0 	.word	0x0000efc0
    edc8:	0000ef28 	.word	0x0000ef28
    edcc:	0000ef28 	.word	0x0000ef28
    edd0:	0000f044 	.word	0x0000f044
    edd4:	0000efc0 	.word	0x0000efc0
    edd8:	0000efc0 	.word	0x0000efc0
    eddc:	0000efc0 	.word	0x0000efc0
    ede0:	0000ef28 	.word	0x0000ef28
    ede4:	0000f170 	.word	0x0000f170
    ede8:	0000ef28 	.word	0x0000ef28
    edec:	0000ef28 	.word	0x0000ef28
    edf0:	0000ef28 	.word	0x0000ef28
    edf4:	0000ef28 	.word	0x0000ef28
    edf8:	0000ef28 	.word	0x0000ef28
    edfc:	0000f1a0 	.word	0x0000f1a0
    ee00:	0000f170 	.word	0x0000f170
    ee04:	0000ef28 	.word	0x0000ef28
    ee08:	0000ef28 	.word	0x0000ef28
    ee0c:	0000f1cc 	.word	0x0000f1cc
    ee10:	0000ef28 	.word	0x0000ef28
    ee14:	0000f044 	.word	0x0000f044
    ee18:	0000ef28 	.word	0x0000ef28
    ee1c:	0000ef28 	.word	0x0000ef28
    ee20:	0000eeec 	.word	0x0000eeec
    ee24:	eb000e56 	bl	12784 <__locale_ctype_ptr>
    ee28:	e1a06005 	mov	r6, r5
    ee2c:	e4d52001 	ldrb	r2, [r5], #1
    ee30:	e0800002 	add	r0, r0, r2
    ee34:	e5d03001 	ldrb	r3, [r0, #1]
    ee38:	e1a03123 	lsr	r3, r3, #2
    ee3c:	e2233001 	eor	r3, r3, #1
    ee40:	e3520000 	cmp	r2, #0
    ee44:	03a03000 	moveq	r3, #0
    ee48:	12033001 	andne	r3, r3, #1
    ee4c:	e3530000 	cmp	r3, #0
    ee50:	1afffff3 	bne	ee24 <vsscanf+0x4fc>
    ee54:	e35a005b 	cmp	sl, #91	; 0x5b
    ee58:	15d63000 	ldrbne	r3, [r6]
    ee5c:	1affffae 	bne	ed1c <vsscanf+0x3f4>
    ee60:	e1a05006 	mov	r5, r6
    ee64:	e1a06004 	mov	r6, r4
    ee68:	e5d93001 	ldrb	r3, [r9, #1]
    ee6c:	e3530000 	cmp	r3, #0
    ee70:	0afffed9 	beq	e9dc <vsscanf+0xb4>
    ee74:	e5d62001 	ldrb	r2, [r6, #1]
    ee78:	e2864001 	add	r4, r6, #1
    ee7c:	e3520000 	cmp	r2, #0
    ee80:	1affffab 	bne	ed34 <vsscanf+0x40c>
    ee84:	eafffed4 	b	e9dc <vsscanf+0xb4>
    ee88:	eb000e3d 	bl	12784 <__locale_ctype_ptr>
    ee8c:	e1a06005 	mov	r6, r5
    ee90:	e4d53001 	ldrb	r3, [r5], #1
    ee94:	e353002b 	cmp	r3, #43	; 0x2b
    ee98:	13530000 	cmpne	r3, #0
    ee9c:	13a02001 	movne	r2, #1
    eea0:	03a02000 	moveq	r2, #0
    eea4:	e243102d 	sub	r1, r3, #45	; 0x2d
    eea8:	e3510001 	cmp	r1, #1
    eeac:	93a02000 	movls	r2, #0
    eeb0:	82022001 	andhi	r2, r2, #1
    eeb4:	e0800003 	add	r0, r0, r3
    eeb8:	e5d03001 	ldrb	r3, [r0, #1]
    eebc:	e2233004 	eor	r3, r3, #4
    eec0:	e0123123 	ands	r3, r2, r3, lsr #2
    eec4:	1affffef 	bne	ee88 <vsscanf+0x560>
    eec8:	eaffffe1 	b	ee54 <vsscanf+0x52c>
    eecc:	eb000e2c 	bl	12784 <__locale_ctype_ptr>
    eed0:	e1a06005 	mov	r6, r5
    eed4:	e4d53001 	ldrb	r3, [r5], #1
    eed8:	e0800003 	add	r0, r0, r3
    eedc:	e5d02001 	ldrb	r2, [r0, #1]
    eee0:	e3120008 	tst	r2, #8
    eee4:	1afffff8 	bne	eecc <vsscanf+0x5a4>
    eee8:	eaffff8b 	b	ed1c <vsscanf+0x3f4>
    eeec:	e1a09005 	mov	r9, r5
    eef0:	eb000e23 	bl	12784 <__locale_ctype_ptr>
    eef4:	e5d93000 	ldrb	r3, [r9]
    eef8:	e1a05009 	mov	r5, r9
    eefc:	e0800003 	add	r0, r0, r3
    ef00:	e5d02001 	ldrb	r2, [r0, #1]
    ef04:	e3c33020 	bic	r3, r3, #32
    ef08:	e3120004 	tst	r2, #4
    ef0c:	e2899001 	add	r9, r9, #1
    ef10:	e2433041 	sub	r3, r3, #65	; 0x41
    ef14:	1afffff5 	bne	eef0 <vsscanf+0x5c8>
    ef18:	e3530005 	cmp	r3, #5
    ef1c:	9afffff3 	bls	eef0 <vsscanf+0x5c8>
    ef20:	e3a03010 	mov	r3, #16
    ef24:	e58d300c 	str	r3, [sp, #12]
    ef28:	e35a0063 	cmp	sl, #99	; 0x63
    ef2c:	1a00013c 	bne	f424 <vsscanf+0xafc>
    ef30:	e59d3010 	ldr	r3, [sp, #16]
    ef34:	e3530000 	cmp	r3, #0
    ef38:	1a0000d0 	bne	f280 <vsscanf+0x958>
    ef3c:	e3580000 	cmp	r8, #0
    ef40:	0a000197 	beq	f5a4 <vsscanf+0xc7c>
    ef44:	e358006c 	cmp	r8, #108	; 0x6c
    ef48:	1a0000cc 	bne	f280 <vsscanf+0x958>
    ef4c:	e1a01006 	mov	r1, r6
    ef50:	e3a02001 	mov	r2, #1
    ef54:	e28d0f4a 	add	r0, sp, #296	; 0x128
    ef58:	eb000e13 	bl	127ac <mbstowcs>
    ef5c:	e59d1004 	ldr	r1, [sp, #4]
    ef60:	e59d2128 	ldr	r2, [sp, #296]	; 0x128
    ef64:	e5913000 	ldr	r3, [r1]
    ef68:	e2811004 	add	r1, r1, #4
    ef6c:	e58d1004 	str	r1, [sp, #4]
    ef70:	e5832000 	str	r2, [r3]
    ef74:	ea0000c1 	b	f280 <vsscanf+0x958>
    ef78:	e5d93001 	ldrb	r3, [r9, #1]
    ef7c:	e353005e 	cmp	r3, #94	; 0x5e
    ef80:	11a06004 	movne	r6, r4
    ef84:	03a02001 	moveq	r2, #1
    ef88:	02896002 	addeq	r6, r9, #2
    ef8c:	05d93002 	ldrbeq	r3, [r9, #2]
    ef90:	058d201c 	streq	r2, [sp, #28]
    ef94:	eaffffb4 	b	ee6c <vsscanf+0x544>
    ef98:	e5d43000 	ldrb	r3, [r4]
    ef9c:	e353005d 	cmp	r3, #93	; 0x5d
    efa0:	13530000 	cmpne	r3, #0
    efa4:	0a000003 	beq	efb8 <vsscanf+0x690>
    efa8:	e5f43001 	ldrb	r3, [r4, #1]!
    efac:	e353005d 	cmp	r3, #93	; 0x5d
    efb0:	13530000 	cmpne	r3, #0
    efb4:	1afffffb 	bne	efa8 <vsscanf+0x680>
    efb8:	e0449006 	sub	r9, r4, r6
    efbc:	ea00002a 	b	f06c <vsscanf+0x744>
    efc0:	e243b02e 	sub	fp, r3, #46	; 0x2e
    efc4:	e16fbf1b 	clz	fp, fp
    efc8:	e59d9014 	ldr	r9, [sp, #20]
    efcc:	e1a0b2ab 	lsr	fp, fp, #5
    efd0:	ea000000 	b	efd8 <vsscanf+0x6b0>
    efd4:	e2855001 	add	r5, r5, #1
    efd8:	e35b0000 	cmp	fp, #0
    efdc:	1a000003 	bne	eff0 <vsscanf+0x6c8>
    efe0:	e5d53000 	ldrb	r3, [r5]
    efe4:	e353002e 	cmp	r3, #46	; 0x2e
    efe8:	03a0b001 	moveq	fp, #1
    efec:	0085500b 	addeq	r5, r5, fp
    eff0:	e3590000 	cmp	r9, #0
    eff4:	1a000009 	bne	f020 <vsscanf+0x6f8>
    eff8:	e5d53000 	ldrb	r3, [r5]
    effc:	e20330df 	and	r3, r3, #223	; 0xdf
    f000:	e3530045 	cmp	r3, #69	; 0x45
    f004:	1a000005 	bne	f020 <vsscanf+0x6f8>
    f008:	e5d53001 	ldrb	r3, [r5, #1]
    f00c:	e353002d 	cmp	r3, #45	; 0x2d
    f010:	13a09001 	movne	r9, #1
    f014:	03a09001 	moveq	r9, #1
    f018:	12855001 	addne	r5, r5, #1
    f01c:	02855002 	addeq	r5, r5, #2
    f020:	eb000dd7 	bl	12784 <__locale_ctype_ptr>
    f024:	e5d53000 	ldrb	r3, [r5]
    f028:	e0800003 	add	r0, r0, r3
    f02c:	e5d03001 	ldrb	r3, [r0, #1]
    f030:	e3130004 	tst	r3, #4
    f034:	1affffe6 	bne	efd4 <vsscanf+0x6ac>
    f038:	e35a0063 	cmp	sl, #99	; 0x63
    f03c:	0affffbb 	beq	ef30 <vsscanf+0x608>
    f040:	ea0000f7 	b	f424 <vsscanf+0xafc>
    f044:	e1a09005 	mov	r9, r5
    f048:	eb000dcd 	bl	12784 <__locale_ctype_ptr>
    f04c:	e5d93000 	ldrb	r3, [r9]
    f050:	e1a05009 	mov	r5, r9
    f054:	e0800003 	add	r0, r0, r3
    f058:	e5d03001 	ldrb	r3, [r0, #1]
    f05c:	e2899001 	add	r9, r9, #1
    f060:	e3130004 	tst	r3, #4
    f064:	1afffff7 	bne	f048 <vsscanf+0x720>
    f068:	e0459006 	sub	r9, r5, r6
    f06c:	e1a02009 	mov	r2, r9
    f070:	e1a01006 	mov	r1, r6
    f074:	e28d0028 	add	r0, sp, #40	; 0x28
    f078:	eb000f2e 	bl	12d38 <strncpy>
    f07c:	e3a02000 	mov	r2, #0
    f080:	e28d3e52 	add	r3, sp, #1312	; 0x520
    f084:	e2833008 	add	r3, r3, #8
    f088:	e0839009 	add	r9, r3, r9
    f08c:	e24a3045 	sub	r3, sl, #69	; 0x45
    f090:	e5492500 	strb	r2, [r9, #-1280]	; 0xfffffb00
    f094:	e3530033 	cmp	r3, #51	; 0x33
    f098:	979ff103 	ldrls	pc, [pc, r3, lsl #2]
    f09c:	ea0000cb 	b	f3d0 <vsscanf+0xaa8>
    f0a0:	0000f3dc 	.word	0x0000f3dc
    f0a4:	0000f3dc 	.word	0x0000f3dc
    f0a8:	0000f3dc 	.word	0x0000f3dc
    f0ac:	0000f3d0 	.word	0x0000f3d0
    f0b0:	0000f3d0 	.word	0x0000f3d0
    f0b4:	0000f3d0 	.word	0x0000f3d0
    f0b8:	0000f3d0 	.word	0x0000f3d0
    f0bc:	0000f3d0 	.word	0x0000f3d0
    f0c0:	0000f3d0 	.word	0x0000f3d0
    f0c4:	0000f3d0 	.word	0x0000f3d0
    f0c8:	0000f3d0 	.word	0x0000f3d0
    f0cc:	0000f3d0 	.word	0x0000f3d0
    f0d0:	0000f3d0 	.word	0x0000f3d0
    f0d4:	0000f3d0 	.word	0x0000f3d0
    f0d8:	0000f3d0 	.word	0x0000f3d0
    f0dc:	0000f3d0 	.word	0x0000f3d0
    f0e0:	0000f3d0 	.word	0x0000f3d0
    f0e4:	0000f3d0 	.word	0x0000f3d0
    f0e8:	0000f3d0 	.word	0x0000f3d0
    f0ec:	0000f370 	.word	0x0000f370
    f0f0:	0000f3d0 	.word	0x0000f3d0
    f0f4:	0000f3d0 	.word	0x0000f3d0
    f0f8:	0000f2f4 	.word	0x0000f2f4
    f0fc:	0000f3d0 	.word	0x0000f3d0
    f100:	0000f3d0 	.word	0x0000f3d0
    f104:	0000f3d0 	.word	0x0000f3d0
    f108:	0000f3d0 	.word	0x0000f3d0
    f10c:	0000f3d0 	.word	0x0000f3d0
    f110:	0000f3d0 	.word	0x0000f3d0
    f114:	0000f3d0 	.word	0x0000f3d0
    f118:	0000ef30 	.word	0x0000ef30
    f11c:	0000f290 	.word	0x0000f290
    f120:	0000f3dc 	.word	0x0000f3dc
    f124:	0000f3dc 	.word	0x0000f3dc
    f128:	0000f3dc 	.word	0x0000f3dc
    f12c:	0000f3d0 	.word	0x0000f3d0
    f130:	0000f290 	.word	0x0000f290
    f134:	0000f3d0 	.word	0x0000f3d0
    f138:	0000f3d0 	.word	0x0000f3d0
    f13c:	0000f3d0 	.word	0x0000f3d0
    f140:	0000f3d0 	.word	0x0000f3d0
    f144:	0000f3d0 	.word	0x0000f3d0
    f148:	0000f370 	.word	0x0000f370
    f14c:	0000f264 	.word	0x0000f264
    f150:	0000f3d0 	.word	0x0000f3d0
    f154:	0000f3d0 	.word	0x0000f3d0
    f158:	0000f214 	.word	0x0000f214
    f15c:	0000f3d0 	.word	0x0000f3d0
    f160:	0000f370 	.word	0x0000f370
    f164:	0000f3d0 	.word	0x0000f3d0
    f168:	0000f3d0 	.word	0x0000f3d0
    f16c:	0000f370 	.word	0x0000f370
    f170:	e3530030 	cmp	r3, #48	; 0x30
    f174:	11a09005 	movne	r9, r5
    f178:	0a0000bc 	beq	f470 <vsscanf+0xb48>
    f17c:	eb000d80 	bl	12784 <__locale_ctype_ptr>
    f180:	e5d93000 	ldrb	r3, [r9]
    f184:	e1a05009 	mov	r5, r9
    f188:	e0800003 	add	r0, r0, r3
    f18c:	e5d03001 	ldrb	r3, [r0, #1]
    f190:	e2899001 	add	r9, r9, #1
    f194:	e3130004 	tst	r3, #4
    f198:	1afffff7 	bne	f17c <vsscanf+0x854>
    f19c:	eaffffb1 	b	f068 <vsscanf+0x740>
    f1a0:	e5d53000 	ldrb	r3, [r5]
    f1a4:	e2433030 	sub	r3, r3, #48	; 0x30
    f1a8:	e3530007 	cmp	r3, #7
    f1ac:	8a000003 	bhi	f1c0 <vsscanf+0x898>
    f1b0:	e5f53001 	ldrb	r3, [r5, #1]!
    f1b4:	e2433030 	sub	r3, r3, #48	; 0x30
    f1b8:	e3530007 	cmp	r3, #7
    f1bc:	9afffffb 	bls	f1b0 <vsscanf+0x888>
    f1c0:	e3a03008 	mov	r3, #8
    f1c4:	e58d300c 	str	r3, [sp, #12]
    f1c8:	eaffffa6 	b	f068 <vsscanf+0x740>
    f1cc:	e1a09005 	mov	r9, r5
    f1d0:	ea000002 	b	f1e0 <vsscanf+0x8b8>
    f1d4:	e3570000 	cmp	r7, #0
    f1d8:	0affffa2 	beq	f068 <vsscanf+0x740>
    f1dc:	e2477001 	sub	r7, r7, #1
    f1e0:	eb000d67 	bl	12784 <__locale_ctype_ptr>
    f1e4:	e1a05009 	mov	r5, r9
    f1e8:	e4d92001 	ldrb	r2, [r9], #1
    f1ec:	e0800002 	add	r0, r0, r2
    f1f0:	e5d03001 	ldrb	r3, [r0, #1]
    f1f4:	e1a031a3 	lsr	r3, r3, #3
    f1f8:	e2233001 	eor	r3, r3, #1
    f1fc:	e3520000 	cmp	r2, #0
    f200:	03a03000 	moveq	r3, #0
    f204:	12033001 	andne	r3, r3, #1
    f208:	e3530000 	cmp	r3, #0
    f20c:	1afffff0 	bne	f1d4 <vsscanf+0x8ac>
    f210:	eaffff94 	b	f068 <vsscanf+0x740>
    f214:	e59d3010 	ldr	r3, [sp, #16]
    f218:	e3530000 	cmp	r3, #0
    f21c:	1a000017 	bne	f280 <vsscanf+0x958>
    f220:	e3580000 	cmp	r8, #0
    f224:	0a0000e5 	beq	f5c0 <vsscanf+0xc98>
    f228:	e358006c 	cmp	r8, #108	; 0x6c
    f22c:	1a000013 	bne	f280 <vsscanf+0x958>
    f230:	e28d0028 	add	r0, sp, #40	; 0x28
    f234:	eb000ea7 	bl	12cd8 <strlen>
    f238:	e28d1028 	add	r1, sp, #40	; 0x28
    f23c:	e2802001 	add	r2, r0, #1
    f240:	e28d0f4a 	add	r0, sp, #296	; 0x128
    f244:	eb000d58 	bl	127ac <mbstowcs>
    f248:	e59d2004 	ldr	r2, [sp, #4]
    f24c:	e28d1f4a 	add	r1, sp, #296	; 0x128
    f250:	e2823004 	add	r3, r2, #4
    f254:	e5920000 	ldr	r0, [r2]
    f258:	e58d3004 	str	r3, [sp, #4]
    f25c:	eb00172a 	bl	14f0c <wcscpy>
    f260:	ea000006 	b	f280 <vsscanf+0x958>
    f264:	e3a02010 	mov	r2, #16
    f268:	e59d1008 	ldr	r1, [sp, #8]
    f26c:	e28d0028 	add	r0, sp, #40	; 0x28
    f270:	eb0014f9 	bl	1465c <strtol>
    f274:	e59d3010 	ldr	r3, [sp, #16]
    f278:	e3530000 	cmp	r3, #0
    f27c:	0a000075 	beq	f458 <vsscanf+0xb30>
    f280:	e59d3000 	ldr	r3, [sp]
    f284:	e2833001 	add	r3, r3, #1
    f288:	e58d3000 	str	r3, [sp]
    f28c:	eafffdbb 	b	e980 <vsscanf+0x58>
    f290:	e59d3010 	ldr	r3, [sp, #16]
    f294:	e3530000 	cmp	r3, #0
    f298:	1afffff8 	bne	f280 <vsscanf+0x958>
    f29c:	e358006a 	cmp	r8, #106	; 0x6a
    f2a0:	0a0000e4 	beq	f638 <vsscanf+0xd10>
    f2a4:	9a000086 	bls	f4c4 <vsscanf+0xb9c>
    f2a8:	e3580074 	cmp	r8, #116	; 0x74
    f2ac:	0a000065 	beq	f448 <vsscanf+0xb20>
    f2b0:	e358007a 	cmp	r8, #122	; 0x7a
    f2b4:	0a000063 	beq	f448 <vsscanf+0xb20>
    f2b8:	e358006c 	cmp	r8, #108	; 0x6c
    f2bc:	1affffef 	bne	f280 <vsscanf+0x958>
    f2c0:	e59d3018 	ldr	r3, [sp, #24]
    f2c4:	e59d200c 	ldr	r2, [sp, #12]
    f2c8:	e3530000 	cmp	r3, #0
    f2cc:	e59d1008 	ldr	r1, [sp, #8]
    f2d0:	e28d0028 	add	r0, sp, #40	; 0x28
    f2d4:	0a00005e 	beq	f454 <vsscanf+0xb2c>
    f2d8:	eb0015b9 	bl	149c4 <strtoll>
    f2dc:	e59d2004 	ldr	r2, [sp, #4]
    f2e0:	e5923000 	ldr	r3, [r2]
    f2e4:	e2822004 	add	r2, r2, #4
    f2e8:	e58d2004 	str	r2, [sp, #4]
    f2ec:	e1c300f0 	strd	r0, [r3]
    f2f0:	eaffffe2 	b	f280 <vsscanf+0x958>
    f2f4:	e59d301c 	ldr	r3, [sp, #28]
    f2f8:	e1a06005 	mov	r6, r5
    f2fc:	e3530000 	cmp	r3, #0
    f300:	1a000001 	bne	f30c <vsscanf+0x9e4>
    f304:	ea00000d 	b	f340 <vsscanf+0xa18>
    f308:	e2477001 	sub	r7, r7, #1
    f30c:	e5d61000 	ldrb	r1, [r6]
    f310:	e28d0028 	add	r0, sp, #40	; 0x28
    f314:	eb000dc8 	bl	12a3c <strchr>
    f318:	e2973000 	adds	r3, r7, #0
    f31c:	13a03001 	movne	r3, #1
    f320:	e3500000 	cmp	r0, #0
    f324:	13a03000 	movne	r3, #0
    f328:	e3530000 	cmp	r3, #0
    f32c:	e1a05006 	mov	r5, r6
    f330:	e2866001 	add	r6, r6, #1
    f334:	1afffff3 	bne	f308 <vsscanf+0x9e0>
    f338:	eafffd90 	b	e980 <vsscanf+0x58>
    f33c:	e2477001 	sub	r7, r7, #1
    f340:	e5d61000 	ldrb	r1, [r6]
    f344:	e28d0028 	add	r0, sp, #40	; 0x28
    f348:	eb000dbb 	bl	12a3c <strchr>
    f34c:	e3500000 	cmp	r0, #0
    f350:	13570000 	cmpne	r7, #0
    f354:	e1a05006 	mov	r5, r6
    f358:	13a00001 	movne	r0, #1
    f35c:	03a00000 	moveq	r0, #0
    f360:	e2866001 	add	r6, r6, #1
    f364:	1afffff4 	bne	f33c <vsscanf+0xa14>
    f368:	e58d001c 	str	r0, [sp, #28]
    f36c:	eafffd83 	b	e980 <vsscanf+0x58>
    f370:	e59d3010 	ldr	r3, [sp, #16]
    f374:	e3530000 	cmp	r3, #0
    f378:	1a000014 	bne	f3d0 <vsscanf+0xaa8>
    f37c:	e358006a 	cmp	r8, #106	; 0x6a
    f380:	0a0000b2 	beq	f650 <vsscanf+0xd28>
    f384:	9a00005f 	bls	f508 <vsscanf+0xbe0>
    f388:	e3580074 	cmp	r8, #116	; 0x74
    f38c:	0a00007a 	beq	f57c <vsscanf+0xc54>
    f390:	e358007a 	cmp	r8, #122	; 0x7a
    f394:	0a000078 	beq	f57c <vsscanf+0xc54>
    f398:	e358006c 	cmp	r8, #108	; 0x6c
    f39c:	1a00000b 	bne	f3d0 <vsscanf+0xaa8>
    f3a0:	e59d3018 	ldr	r3, [sp, #24]
    f3a4:	e59d200c 	ldr	r2, [sp, #12]
    f3a8:	e3530000 	cmp	r3, #0
    f3ac:	e59d1008 	ldr	r1, [sp, #8]
    f3b0:	e28d0028 	add	r0, sp, #40	; 0x28
    f3b4:	0a000073 	beq	f588 <vsscanf+0xc60>
    f3b8:	eb0016c0 	bl	14ec0 <strtoull>
    f3bc:	e59d2004 	ldr	r2, [sp, #4]
    f3c0:	e5923000 	ldr	r3, [r2]
    f3c4:	e2822004 	add	r2, r2, #4
    f3c8:	e1c300f0 	strd	r0, [r3]
    f3cc:	e58d2004 	str	r2, [sp, #4]
    f3d0:	e35a005b 	cmp	sl, #91	; 0x5b
    f3d4:	1affffa9 	bne	f280 <vsscanf+0x958>
    f3d8:	eafffd68 	b	e980 <vsscanf+0x58>
    f3dc:	e59d3010 	ldr	r3, [sp, #16]
    f3e0:	e3530000 	cmp	r3, #0
    f3e4:	1afffff9 	bne	f3d0 <vsscanf+0xaa8>
    f3e8:	e358004c 	cmp	r8, #76	; 0x4c
    f3ec:	0a000083 	beq	f600 <vsscanf+0xcd8>
    f3f0:	e358006c 	cmp	r8, #108	; 0x6c
    f3f4:	0a000078 	beq	f5dc <vsscanf+0xcb4>
    f3f8:	e3580000 	cmp	r8, #0
    f3fc:	1afffff3 	bne	f3d0 <vsscanf+0xaa8>
    f400:	e59d1008 	ldr	r1, [sp, #8]
    f404:	e28d0028 	add	r0, sp, #40	; 0x28
    f408:	eb0013e4 	bl	143a0 <strtof>
    f40c:	e59d2004 	ldr	r2, [sp, #4]
    f410:	e5923000 	ldr	r3, [r2]
    f414:	e2822004 	add	r2, r2, #4
    f418:	e58d2004 	str	r2, [sp, #4]
    f41c:	ed830a00 	vstr	s0, [r3]
    f420:	eaffffea 	b	f3d0 <vsscanf+0xaa8>
    f424:	e35a005b 	cmp	sl, #91	; 0x5b
    f428:	1affff0e 	bne	f068 <vsscanf+0x740>
    f42c:	e0449006 	sub	r9, r4, r6
    f430:	eaffff0d 	b	f06c <vsscanf+0x744>
    f434:	e1a06005 	mov	r6, r5
    f438:	e35a005b 	cmp	sl, #91	; 0x5b
    f43c:	15d63000 	ldrbne	r3, [r6]
    f440:	1afffe35 	bne	ed1c <vsscanf+0x3f4>
    f444:	eafffe85 	b	ee60 <vsscanf+0x538>
    f448:	e59d200c 	ldr	r2, [sp, #12]
    f44c:	e59d1008 	ldr	r1, [sp, #8]
    f450:	e28d0028 	add	r0, sp, #40	; 0x28
    f454:	eb001480 	bl	1465c <strtol>
    f458:	e59d2004 	ldr	r2, [sp, #4]
    f45c:	e5923000 	ldr	r3, [r2]
    f460:	e2822004 	add	r2, r2, #4
    f464:	e58d2004 	str	r2, [sp, #4]
    f468:	e5830000 	str	r0, [r3]
    f46c:	eaffff83 	b	f280 <vsscanf+0x958>
    f470:	e5d53000 	ldrb	r3, [r5]
    f474:	e3530062 	cmp	r3, #98	; 0x62
    f478:	0a000033 	beq	f54c <vsscanf+0xc24>
    f47c:	e3530078 	cmp	r3, #120	; 0x78
    f480:	1a000062 	bne	f610 <vsscanf+0xce8>
    f484:	e2859001 	add	r9, r5, #1
    f488:	eb000cbd 	bl	12784 <__locale_ctype_ptr>
    f48c:	e5d93000 	ldrb	r3, [r9]
    f490:	e1a05009 	mov	r5, r9
    f494:	e0800003 	add	r0, r0, r3
    f498:	e5d02001 	ldrb	r2, [r0, #1]
    f49c:	e3c33020 	bic	r3, r3, #32
    f4a0:	e3120004 	tst	r2, #4
    f4a4:	e2899001 	add	r9, r9, #1
    f4a8:	e2433041 	sub	r3, r3, #65	; 0x41
    f4ac:	1afffff5 	bne	f488 <vsscanf+0xb60>
    f4b0:	e3530005 	cmp	r3, #5
    f4b4:	9afffff3 	bls	f488 <vsscanf+0xb60>
    f4b8:	e3a03010 	mov	r3, #16
    f4bc:	e58d300c 	str	r3, [sp, #12]
    f4c0:	eafffee8 	b	f068 <vsscanf+0x740>
    f4c4:	e3580000 	cmp	r8, #0
    f4c8:	0affffde 	beq	f448 <vsscanf+0xb20>
    f4cc:	e3580068 	cmp	r8, #104	; 0x68
    f4d0:	1affff6a 	bne	f280 <vsscanf+0x958>
    f4d4:	e59d3018 	ldr	r3, [sp, #24]
    f4d8:	e59d200c 	ldr	r2, [sp, #12]
    f4dc:	e3530000 	cmp	r3, #0
    f4e0:	e59d1008 	ldr	r1, [sp, #8]
    f4e4:	e28d0028 	add	r0, sp, #40	; 0x28
    f4e8:	0a000064 	beq	f680 <vsscanf+0xd58>
    f4ec:	eb00145a 	bl	1465c <strtol>
    f4f0:	e59d2004 	ldr	r2, [sp, #4]
    f4f4:	e5923000 	ldr	r3, [r2]
    f4f8:	e2822004 	add	r2, r2, #4
    f4fc:	e58d2004 	str	r2, [sp, #4]
    f500:	e5c30000 	strb	r0, [r3]
    f504:	eaffff5d 	b	f280 <vsscanf+0x958>
    f508:	e3580000 	cmp	r8, #0
    f50c:	0a00001a 	beq	f57c <vsscanf+0xc54>
    f510:	e3580068 	cmp	r8, #104	; 0x68
    f514:	1affffad 	bne	f3d0 <vsscanf+0xaa8>
    f518:	e59d3018 	ldr	r3, [sp, #24]
    f51c:	e59d200c 	ldr	r2, [sp, #12]
    f520:	e3530000 	cmp	r3, #0
    f524:	e59d1008 	ldr	r1, [sp, #8]
    f528:	e28d0028 	add	r0, sp, #40	; 0x28
    f52c:	0a00005a 	beq	f69c <vsscanf+0xd74>
    f530:	eb0015b0 	bl	14bf8 <strtoul>
    f534:	e59d2004 	ldr	r2, [sp, #4]
    f538:	e5923000 	ldr	r3, [r2]
    f53c:	e2822004 	add	r2, r2, #4
    f540:	e58d2004 	str	r2, [sp, #4]
    f544:	e5c30000 	strb	r0, [r3]
    f548:	eaffffa0 	b	f3d0 <vsscanf+0xaa8>
    f54c:	e5d53001 	ldrb	r3, [r5, #1]
    f550:	e2855001 	add	r5, r5, #1
    f554:	e2433030 	sub	r3, r3, #48	; 0x30
    f558:	e3530001 	cmp	r3, #1
    f55c:	8a000003 	bhi	f570 <vsscanf+0xc48>
    f560:	e5f53001 	ldrb	r3, [r5, #1]!
    f564:	e2433030 	sub	r3, r3, #48	; 0x30
    f568:	e3530001 	cmp	r3, #1
    f56c:	9afffffb 	bls	f560 <vsscanf+0xc38>
    f570:	e3a03002 	mov	r3, #2
    f574:	e58d300c 	str	r3, [sp, #12]
    f578:	eafffeba 	b	f068 <vsscanf+0x740>
    f57c:	e59d200c 	ldr	r2, [sp, #12]
    f580:	e59d1008 	ldr	r1, [sp, #8]
    f584:	e28d0028 	add	r0, sp, #40	; 0x28
    f588:	eb00159a 	bl	14bf8 <strtoul>
    f58c:	e59d2004 	ldr	r2, [sp, #4]
    f590:	e5923000 	ldr	r3, [r2]
    f594:	e2822004 	add	r2, r2, #4
    f598:	e58d2004 	str	r2, [sp, #4]
    f59c:	e5830000 	str	r0, [r3]
    f5a0:	eaffff8a 	b	f3d0 <vsscanf+0xaa8>
    f5a4:	e59d1004 	ldr	r1, [sp, #4]
    f5a8:	e5d62000 	ldrb	r2, [r6]
    f5ac:	e5913000 	ldr	r3, [r1]
    f5b0:	e2811004 	add	r1, r1, #4
    f5b4:	e58d1004 	str	r1, [sp, #4]
    f5b8:	e5c32000 	strb	r2, [r3]
    f5bc:	eaffff2f 	b	f280 <vsscanf+0x958>
    f5c0:	e59d2004 	ldr	r2, [sp, #4]
    f5c4:	e28d1028 	add	r1, sp, #40	; 0x28
    f5c8:	e2823004 	add	r3, r2, #4
    f5cc:	e5920000 	ldr	r0, [r2]
    f5d0:	e58d3004 	str	r3, [sp, #4]
    f5d4:	eb000d83 	bl	12be8 <strcpy>
    f5d8:	eaffff28 	b	f280 <vsscanf+0x958>
    f5dc:	e59d1008 	ldr	r1, [sp, #8]
    f5e0:	e28d0028 	add	r0, sp, #40	; 0x28
    f5e4:	eb00135f 	bl	14368 <strtod>
    f5e8:	e59d2004 	ldr	r2, [sp, #4]
    f5ec:	e5923000 	ldr	r3, [r2]
    f5f0:	e2822004 	add	r2, r2, #4
    f5f4:	e58d2004 	str	r2, [sp, #4]
    f5f8:	ed830b00 	vstr	d0, [r3]
    f5fc:	eaffff73 	b	f3d0 <vsscanf+0xaa8>
    f600:	e59d1008 	ldr	r1, [sp, #8]
    f604:	e28d0028 	add	r0, sp, #40	; 0x28
    f608:	eb001426 	bl	146a8 <strtold>
    f60c:	eafffff5 	b	f5e8 <vsscanf+0xcc0>
    f610:	e5d53001 	ldrb	r3, [r5, #1]
    f614:	e2855001 	add	r5, r5, #1
    f618:	e2433030 	sub	r3, r3, #48	; 0x30
    f61c:	e3530007 	cmp	r3, #7
    f620:	8afffee6 	bhi	f1c0 <vsscanf+0x898>
    f624:	e5f53001 	ldrb	r3, [r5, #1]!
    f628:	e2433030 	sub	r3, r3, #48	; 0x30
    f62c:	e3530007 	cmp	r3, #7
    f630:	9afffffb 	bls	f624 <vsscanf+0xcfc>
    f634:	eafffee1 	b	f1c0 <vsscanf+0x898>
    f638:	e59d1008 	ldr	r1, [sp, #8]
    f63c:	e59d200c 	ldr	r2, [sp, #12]
    f640:	e28d0028 	add	r0, sp, #40	; 0x28
    f644:	eb001404 	bl	1465c <strtol>
    f648:	e1a01fc0 	asr	r1, r0, #31
    f64c:	eaffff22 	b	f2dc <vsscanf+0x9b4>
    f650:	e59d200c 	ldr	r2, [sp, #12]
    f654:	e59d1008 	ldr	r1, [sp, #8]
    f658:	e28d0028 	add	r0, sp, #40	; 0x28
    f65c:	eb001565 	bl	14bf8 <strtoul>
    f660:	e59d2004 	ldr	r2, [sp, #4]
    f664:	e5923000 	ldr	r3, [r2]
    f668:	e2822004 	add	r2, r2, #4
    f66c:	e58d2004 	str	r2, [sp, #4]
    f670:	e59d2010 	ldr	r2, [sp, #16]
    f674:	e5830000 	str	r0, [r3]
    f678:	e5832004 	str	r2, [r3, #4]
    f67c:	eaffff53 	b	f3d0 <vsscanf+0xaa8>
    f680:	eb0013f5 	bl	1465c <strtol>
    f684:	e59d2004 	ldr	r2, [sp, #4]
    f688:	e5923000 	ldr	r3, [r2]
    f68c:	e2822004 	add	r2, r2, #4
    f690:	e58d2004 	str	r2, [sp, #4]
    f694:	e1c300b0 	strh	r0, [r3]
    f698:	eafffef8 	b	f280 <vsscanf+0x958>
    f69c:	eb001555 	bl	14bf8 <strtoul>
    f6a0:	e59d2004 	ldr	r2, [sp, #4]
    f6a4:	e5923000 	ldr	r3, [r2]
    f6a8:	e2822004 	add	r2, r2, #4
    f6ac:	e58d2004 	str	r2, [sp, #4]
    f6b0:	e1c300b0 	strh	r0, [r3]
    f6b4:	eaffff45 	b	f3d0 <vsscanf+0xaa8>

0000f6b8 <sscanf>:
    f6b8:	e92d000e 	push	{r1, r2, r3}
    f6bc:	e52de004 	push	{lr}		; (str lr, [sp, #-4]!)
    f6c0:	e2503000 	subs	r3, r0, #0
    f6c4:	e24dd008 	sub	sp, sp, #8
    f6c8:	01a00003 	moveq	r0, r3
    f6cc:	0a000004 	beq	f6e4 <sscanf+0x2c>
    f6d0:	e28d3010 	add	r3, sp, #16
    f6d4:	e1a02003 	mov	r2, r3
    f6d8:	e59d100c 	ldr	r1, [sp, #12]
    f6dc:	e58d3004 	str	r3, [sp, #4]
    f6e0:	ebfffc90 	bl	e928 <vsscanf>
    f6e4:	e28dd008 	add	sp, sp, #8
    f6e8:	e49de004 	pop	{lr}		; (ldr lr, [sp], #4)
    f6ec:	e28dd00c 	add	sp, sp, #12
    f6f0:	e12fff1e 	bx	lr

0000f6f4 <Init_EmbStdio>:
    f6f4:	e59f300c 	ldr	r3, [pc, #12]	; f708 <Init_EmbStdio+0x14>
    f6f8:	e593200c 	ldr	r2, [r3, #12]
    f6fc:	e583000c 	str	r0, [r3, #12]
    f700:	e1a00002 	mov	r0, r2
    f704:	e12fff1e 	bx	lr
    f708:	000185c0 	.word	0x000185c0

0000f70c <printf>:
    f70c:	e92d000f 	push	{r0, r1, r2, r3}
    f710:	e92d4010 	push	{r4, lr}
    f714:	e59f2038 	ldr	r2, [pc, #56]	; f754 <printf+0x48>
    f718:	e24dd008 	sub	sp, sp, #8
    f71c:	e28d3014 	add	r3, sp, #20
    f720:	e59d0010 	ldr	r0, [sp, #16]
    f724:	e592400c 	ldr	r4, [r2, #12]
    f728:	e58d3004 	str	r3, [sp, #4]
    f72c:	eb000d69 	bl	12cd8 <strlen>
    f730:	e59d1010 	ldr	r1, [sp, #16]
    f734:	e1a02000 	mov	r2, r0
    f738:	e59d3004 	ldr	r3, [sp, #4]
    f73c:	e1a00004 	mov	r0, r4
    f740:	ebffe5f4 	bl	8f18 <Process_Out>
    f744:	e28dd008 	add	sp, sp, #8
    f748:	e8bd4010 	pop	{r4, lr}
    f74c:	e28dd010 	add	sp, sp, #16
    f750:	e12fff1e 	bx	lr
    f754:	000185c0 	.word	0x000185c0

0000f758 <sprintf>:
    f758:	e92d000e 	push	{r1, r2, r3}
    f75c:	e3a01000 	mov	r1, #0
    f760:	e92d4030 	push	{r4, r5, lr}
    f764:	e3e02000 	mvn	r2, #0
    f768:	e1a05000 	mov	r5, r0
    f76c:	e24dd008 	sub	sp, sp, #8
    f770:	e59f407c 	ldr	r4, [pc, #124]	; f7f4 <sprintf+0x9c>
    f774:	e28d3018 	add	r3, sp, #24
    f778:	e59d0014 	ldr	r0, [sp, #20]
    f77c:	e58d3004 	str	r3, [sp, #4]
    f780:	e9840022 	stmib	r4, {r1, r5}
    f784:	e5842000 	str	r2, [r4]
    f788:	eb000d52 	bl	12cd8 <strlen>
    f78c:	e59d2004 	ldr	r2, [sp, #4]
    f790:	e1a01000 	mov	r1, r0
    f794:	e59d0014 	ldr	r0, [sp, #20]
    f798:	ebffe95a 	bl	9d08 <Process_Out.constprop.1>
    f79c:	e5943000 	ldr	r3, [r4]
    f7a0:	e3730001 	cmn	r3, #1
    f7a4:	0a000002 	beq	f7b4 <sprintf+0x5c>
    f7a8:	e5942004 	ldr	r2, [r4, #4]
    f7ac:	e1530002 	cmp	r3, r2
    f7b0:	da00000d 	ble	f7ec <sprintf+0x94>
    f7b4:	e5943008 	ldr	r3, [r4, #8]
    f7b8:	e3530000 	cmp	r3, #0
    f7bc:	13a0c000 	movne	ip, #0
    f7c0:	15942004 	ldrne	r2, [r4, #4]
    f7c4:	12821001 	addne	r1, r2, #1
    f7c8:	17c3c002 	strbne	ip, [r3, r2]
    f7cc:	15841004 	strne	r1, [r4, #4]
    f7d0:	e1550003 	cmp	r5, r3
    f7d4:	03a03000 	moveq	r3, #0
    f7d8:	05843008 	streq	r3, [r4, #8]
    f7dc:	e28dd008 	add	sp, sp, #8
    f7e0:	e8bd4030 	pop	{r4, r5, lr}
    f7e4:	e28dd00c 	add	sp, sp, #12
    f7e8:	e12fff1e 	bx	lr
    f7ec:	e5943008 	ldr	r3, [r4, #8]
    f7f0:	eafffff6 	b	f7d0 <sprintf+0x78>
    f7f4:	000185c0 	.word	0x000185c0

0000f7f8 <snprintf>:
    f7f8:	e92d000c 	push	{r2, r3}
    f7fc:	e3a02000 	mov	r2, #0
    f800:	e92d4030 	push	{r4, r5, lr}
    f804:	e1a05000 	mov	r5, r0
    f808:	e24dd00c 	sub	sp, sp, #12
    f80c:	e59f4078 	ldr	r4, [pc, #120]	; f88c <snprintf+0x94>
    f810:	e28d301c 	add	r3, sp, #28
    f814:	e59d0018 	ldr	r0, [sp, #24]
    f818:	e8840026 	stm	r4, {r1, r2, r5}
    f81c:	e58d3004 	str	r3, [sp, #4]
    f820:	eb000d2c 	bl	12cd8 <strlen>
    f824:	e59d2004 	ldr	r2, [sp, #4]
    f828:	e1a01000 	mov	r1, r0
    f82c:	e59d0018 	ldr	r0, [sp, #24]
    f830:	ebffe934 	bl	9d08 <Process_Out.constprop.1>
    f834:	e5943000 	ldr	r3, [r4]
    f838:	e3730001 	cmn	r3, #1
    f83c:	0a000002 	beq	f84c <snprintf+0x54>
    f840:	e5942004 	ldr	r2, [r4, #4]
    f844:	e1530002 	cmp	r3, r2
    f848:	da00000d 	ble	f884 <snprintf+0x8c>
    f84c:	e5943008 	ldr	r3, [r4, #8]
    f850:	e3530000 	cmp	r3, #0
    f854:	13a0c000 	movne	ip, #0
    f858:	15942004 	ldrne	r2, [r4, #4]
    f85c:	12821001 	addne	r1, r2, #1
    f860:	17c3c002 	strbne	ip, [r3, r2]
    f864:	15841004 	strne	r1, [r4, #4]
    f868:	e1550003 	cmp	r5, r3
    f86c:	03a03000 	moveq	r3, #0
    f870:	05843008 	streq	r3, [r4, #8]
    f874:	e28dd00c 	add	sp, sp, #12
    f878:	e8bd4030 	pop	{r4, r5, lr}
    f87c:	e28dd008 	add	sp, sp, #8
    f880:	e12fff1e 	bx	lr
    f884:	e5943008 	ldr	r3, [r4, #8]
    f888:	eafffff6 	b	f868 <snprintf+0x70>
    f88c:	000185c0 	.word	0x000185c0

0000f890 <vprintf>:
    f890:	e59f3028 	ldr	r3, [pc, #40]	; f8c0 <vprintf+0x30>
    f894:	e92d4070 	push	{r4, r5, r6, lr}
    f898:	e1a06001 	mov	r6, r1
    f89c:	e593400c 	ldr	r4, [r3, #12]
    f8a0:	e1a05000 	mov	r5, r0
    f8a4:	eb000d0b 	bl	12cd8 <strlen>
    f8a8:	e1a03006 	mov	r3, r6
    f8ac:	e1a02000 	mov	r2, r0
    f8b0:	e1a01005 	mov	r1, r5
    f8b4:	e1a00004 	mov	r0, r4
    f8b8:	e8bd4070 	pop	{r4, r5, r6, lr}
    f8bc:	eaffe595 	b	8f18 <Process_Out>
    f8c0:	000185c0 	.word	0x000185c0

0000f8c4 <vsprintf>:
    f8c4:	e92d41f0 	push	{r4, r5, r6, r7, r8, lr}
    f8c8:	e1a06001 	mov	r6, r1
    f8cc:	e3e03000 	mvn	r3, #0
    f8d0:	e3a01000 	mov	r1, #0
    f8d4:	e1a05000 	mov	r5, r0
    f8d8:	e59f406c 	ldr	r4, [pc, #108]	; f94c <vsprintf+0x88>
    f8dc:	e1a00006 	mov	r0, r6
    f8e0:	e5843000 	str	r3, [r4]
    f8e4:	e1a07002 	mov	r7, r2
    f8e8:	e9840022 	stmib	r4, {r1, r5}
    f8ec:	eb000cf9 	bl	12cd8 <strlen>
    f8f0:	e1a02007 	mov	r2, r7
    f8f4:	e1a01000 	mov	r1, r0
    f8f8:	e1a00006 	mov	r0, r6
    f8fc:	ebffe901 	bl	9d08 <Process_Out.constprop.1>
    f900:	e5943000 	ldr	r3, [r4]
    f904:	e3730001 	cmn	r3, #1
    f908:	0a000002 	beq	f918 <vsprintf+0x54>
    f90c:	e5942004 	ldr	r2, [r4, #4]
    f910:	e1530002 	cmp	r3, r2
    f914:	da00000a 	ble	f944 <vsprintf+0x80>
    f918:	e5943008 	ldr	r3, [r4, #8]
    f91c:	e3530000 	cmp	r3, #0
    f920:	13a0c000 	movne	ip, #0
    f924:	15942004 	ldrne	r2, [r4, #4]
    f928:	12821001 	addne	r1, r2, #1
    f92c:	17c3c002 	strbne	ip, [r3, r2]
    f930:	15841004 	strne	r1, [r4, #4]
    f934:	e1550003 	cmp	r5, r3
    f938:	03a03000 	moveq	r3, #0
    f93c:	05843008 	streq	r3, [r4, #8]
    f940:	e8bd81f0 	pop	{r4, r5, r6, r7, r8, pc}
    f944:	e5943008 	ldr	r3, [r4, #8]
    f948:	eafffff9 	b	f934 <vsprintf+0x70>
    f94c:	000185c0 	.word	0x000185c0

0000f950 <vsnprintf>:
    f950:	e92d41f0 	push	{r4, r5, r6, r7, r8, lr}
    f954:	e1a06002 	mov	r6, r2
    f958:	e1a05000 	mov	r5, r0
    f95c:	e3a02000 	mov	r2, #0
    f960:	e59f4068 	ldr	r4, [pc, #104]	; f9d0 <vsnprintf+0x80>
    f964:	e1a00006 	mov	r0, r6
    f968:	e1a07003 	mov	r7, r3
    f96c:	e8840026 	stm	r4, {r1, r2, r5}
    f970:	eb000cd8 	bl	12cd8 <strlen>
    f974:	e1a02007 	mov	r2, r7
    f978:	e1a01000 	mov	r1, r0
    f97c:	e1a00006 	mov	r0, r6
    f980:	ebffe8e0 	bl	9d08 <Process_Out.constprop.1>
    f984:	e5943000 	ldr	r3, [r4]
    f988:	e3730001 	cmn	r3, #1
    f98c:	0a000002 	beq	f99c <vsnprintf+0x4c>
    f990:	e5942004 	ldr	r2, [r4, #4]
    f994:	e1530002 	cmp	r3, r2
    f998:	da00000a 	ble	f9c8 <vsnprintf+0x78>
    f99c:	e5943008 	ldr	r3, [r4, #8]
    f9a0:	e3530000 	cmp	r3, #0
    f9a4:	13a0c000 	movne	ip, #0
    f9a8:	15942004 	ldrne	r2, [r4, #4]
    f9ac:	12821001 	addne	r1, r2, #1
    f9b0:	17c3c002 	strbne	ip, [r3, r2]
    f9b4:	15841004 	strne	r1, [r4, #4]
    f9b8:	e1550003 	cmp	r5, r3
    f9bc:	03a03000 	moveq	r3, #0
    f9c0:	05843008 	streq	r3, [r4, #8]
    f9c4:	e8bd81f0 	pop	{r4, r5, r6, r7, r8, pc}
    f9c8:	e5943008 	ldr	r3, [r4, #8]
    f9cc:	eafffff9 	b	f9b8 <vsnprintf+0x68>
    f9d0:	000185c0 	.word	0x000185c0

0000f9d4 <check_buffer>:
    f9d4:	e92d4070 	push	{r4, r5, r6, lr}
    f9d8:	e5905000 	ldr	r5, [r0]
    f9dc:	e2855001 	add	r5, r5, #1
    f9e0:	e5805000 	str	r5, [r0]
    f9e4:	e5d13000 	ldrb	r3, [r1]
    f9e8:	e3530000 	cmp	r3, #0
    f9ec:	0a00000f 	beq	fa30 <check_buffer+0x5c>
    f9f0:	e5d20000 	ldrb	r0, [r2]
    f9f4:	e3500000 	cmp	r0, #0
    f9f8:	0a00000c 	beq	fa30 <check_buffer+0x5c>
    f9fc:	e1530000 	cmp	r3, r0
    fa00:	01a04002 	moveq	r4, r2
    fa04:	01a0e001 	moveq	lr, r1
    fa08:	0a000005 	beq	fa24 <check_buffer+0x50>
    fa0c:	ea000009 	b	fa38 <check_buffer+0x64>
    fa10:	e5f4c001 	ldrb	ip, [r4, #1]!
    fa14:	e35c0000 	cmp	ip, #0
    fa18:	0a000004 	beq	fa30 <check_buffer+0x5c>
    fa1c:	e150000c 	cmp	r0, ip
    fa20:	1a000004 	bne	fa38 <check_buffer+0x64>
    fa24:	e5fe0001 	ldrb	r0, [lr, #1]!
    fa28:	e3500000 	cmp	r0, #0
    fa2c:	1afffff7 	bne	fa10 <check_buffer+0x3c>
    fa30:	e3a00001 	mov	r0, #1
    fa34:	e8bd8070 	pop	{r4, r5, r6, pc}
    fa38:	e1a03002 	mov	r3, r2
    fa3c:	e59f0010 	ldr	r0, [pc, #16]	; fa54 <check_buffer+0x80>
    fa40:	e1a02001 	mov	r2, r1
    fa44:	e1a01005 	mov	r1, r5
    fa48:	ebffff2f 	bl	f70c <printf>
    fa4c:	e3a00000 	mov	r0, #0
    fa50:	e8bd8070 	pop	{r4, r5, r6, pc}
    fa54:	00018698 	.word	0x00018698

0000fa58 <BENCHTEST_snprintf>:
    fa58:	e92d4030 	push	{r4, r5, lr}
    fa5c:	e24ddf83 	sub	sp, sp, #524	; 0x20c
    fa60:	e3a03000 	mov	r3, #0
    fa64:	e28d0008 	add	r0, sp, #8
    fa68:	e59f2678 	ldr	r2, [pc, #1656]	; 100e8 <BENCHTEST_snprintf+0x690>
    fa6c:	e3a01c02 	mov	r1, #512	; 0x200
    fa70:	ebfffb84 	bl	e888 <snprintf.constprop.0>
    fa74:	e5dd3008 	ldrb	r3, [sp, #8]
    fa78:	e3530000 	cmp	r3, #0
    fa7c:	0a00000c 	beq	fab4 <BENCHTEST_snprintf+0x5c>
    fa80:	e3530020 	cmp	r3, #32
    fa84:	028d1008 	addeq	r1, sp, #8
    fa88:	059f065c 	ldreq	r0, [pc, #1628]	; 100ec <BENCHTEST_snprintf+0x694>
    fa8c:	0a000005 	beq	faa8 <BENCHTEST_snprintf+0x50>
    fa90:	ea00013d 	b	ff8c <BENCHTEST_snprintf+0x534>
    fa94:	e5f02001 	ldrb	r2, [r0, #1]!
    fa98:	e3520000 	cmp	r2, #0
    fa9c:	0a000004 	beq	fab4 <BENCHTEST_snprintf+0x5c>
    faa0:	e1530002 	cmp	r3, r2
    faa4:	1a000138 	bne	ff8c <BENCHTEST_snprintf+0x534>
    faa8:	e5f13001 	ldrb	r3, [r1, #1]!
    faac:	e3530000 	cmp	r3, #0
    fab0:	1afffff7 	bne	fa94 <BENCHTEST_snprintf+0x3c>
    fab4:	e3a04002 	mov	r4, #2
    fab8:	e3a05001 	mov	r5, #1
    fabc:	e59f362c 	ldr	r3, [pc, #1580]	; 100f0 <BENCHTEST_snprintf+0x698>
    fac0:	e59f2620 	ldr	r2, [pc, #1568]	; 100e8 <BENCHTEST_snprintf+0x690>
    fac4:	e3a01c02 	mov	r1, #512	; 0x200
    fac8:	e28d0008 	add	r0, sp, #8
    facc:	ebfffb6d 	bl	e888 <snprintf.constprop.0>
    fad0:	e5dd3008 	ldrb	r3, [sp, #8]
    fad4:	e3530000 	cmp	r3, #0
    fad8:	0a00000c 	beq	fb10 <BENCHTEST_snprintf+0xb8>
    fadc:	e3530031 	cmp	r3, #49	; 0x31
    fae0:	028d1008 	addeq	r1, sp, #8
    fae4:	059f0608 	ldreq	r0, [pc, #1544]	; 100f4 <BENCHTEST_snprintf+0x69c>
    fae8:	0a000005 	beq	fb04 <BENCHTEST_snprintf+0xac>
    faec:	ea000176 	b	100cc <BENCHTEST_snprintf+0x674>
    faf0:	e5f02001 	ldrb	r2, [r0, #1]!
    faf4:	e3520000 	cmp	r2, #0
    faf8:	0a000004 	beq	fb10 <BENCHTEST_snprintf+0xb8>
    fafc:	e1530002 	cmp	r3, r2
    fb00:	1a000171 	bne	100cc <BENCHTEST_snprintf+0x674>
    fb04:	e5f13001 	ldrb	r3, [r1, #1]!
    fb08:	e3530000 	cmp	r3, #0
    fb0c:	1afffff7 	bne	faf0 <BENCHTEST_snprintf+0x98>
    fb10:	e3e03009 	mvn	r3, #9
    fb14:	e59f25dc 	ldr	r2, [pc, #1500]	; 100f8 <BENCHTEST_snprintf+0x6a0>
    fb18:	e3a01c02 	mov	r1, #512	; 0x200
    fb1c:	e28d0008 	add	r0, sp, #8
    fb20:	ebfffb58 	bl	e888 <snprintf.constprop.0>
    fb24:	e5dd3008 	ldrb	r3, [sp, #8]
    fb28:	e3530000 	cmp	r3, #0
    fb2c:	0a00000c 	beq	fb64 <BENCHTEST_snprintf+0x10c>
    fb30:	e353002d 	cmp	r3, #45	; 0x2d
    fb34:	028d1008 	addeq	r1, sp, #8
    fb38:	059f05bc 	ldreq	r0, [pc, #1468]	; 100fc <BENCHTEST_snprintf+0x6a4>
    fb3c:	0a000005 	beq	fb58 <BENCHTEST_snprintf+0x100>
    fb40:	ea00015b 	b	100b4 <BENCHTEST_snprintf+0x65c>
    fb44:	e5f02001 	ldrb	r2, [r0, #1]!
    fb48:	e3520000 	cmp	r2, #0
    fb4c:	0a000004 	beq	fb64 <BENCHTEST_snprintf+0x10c>
    fb50:	e1530002 	cmp	r3, r2
    fb54:	1a000156 	bne	100b4 <BENCHTEST_snprintf+0x65c>
    fb58:	e5f13001 	ldrb	r3, [r1, #1]!
    fb5c:	e3530000 	cmp	r3, #0
    fb60:	1afffff7 	bne	fb44 <BENCHTEST_snprintf+0xec>
    fb64:	e2844001 	add	r4, r4, #1
    fb68:	e3a0300a 	mov	r3, #10
    fb6c:	e59f258c 	ldr	r2, [pc, #1420]	; 10100 <BENCHTEST_snprintf+0x6a8>
    fb70:	e3a01c02 	mov	r1, #512	; 0x200
    fb74:	e28d0008 	add	r0, sp, #8
    fb78:	ebfffb42 	bl	e888 <snprintf.constprop.0>
    fb7c:	e5dd3008 	ldrb	r3, [sp, #8]
    fb80:	e3530000 	cmp	r3, #0
    fb84:	0a00000c 	beq	fbbc <BENCHTEST_snprintf+0x164>
    fb88:	e3530027 	cmp	r3, #39	; 0x27
    fb8c:	028d1008 	addeq	r1, sp, #8
    fb90:	059f056c 	ldreq	r0, [pc, #1388]	; 10104 <BENCHTEST_snprintf+0x6ac>
    fb94:	0a000005 	beq	fbb0 <BENCHTEST_snprintf+0x158>
    fb98:	ea00013f 	b	1009c <BENCHTEST_snprintf+0x644>
    fb9c:	e5f02001 	ldrb	r2, [r0, #1]!
    fba0:	e3520000 	cmp	r2, #0
    fba4:	0a000004 	beq	fbbc <BENCHTEST_snprintf+0x164>
    fba8:	e1530002 	cmp	r3, r2
    fbac:	1a00013a 	bne	1009c <BENCHTEST_snprintf+0x644>
    fbb0:	e5f13001 	ldrb	r3, [r1, #1]!
    fbb4:	e3530000 	cmp	r3, #0
    fbb8:	1afffff7 	bne	fb9c <BENCHTEST_snprintf+0x144>
    fbbc:	e2844001 	add	r4, r4, #1
    fbc0:	e3a0300a 	mov	r3, #10
    fbc4:	e59f253c 	ldr	r2, [pc, #1340]	; 10108 <BENCHTEST_snprintf+0x6b0>
    fbc8:	e3a01c02 	mov	r1, #512	; 0x200
    fbcc:	e28d0008 	add	r0, sp, #8
    fbd0:	ebfffb2c 	bl	e888 <snprintf.constprop.0>
    fbd4:	e5dd3008 	ldrb	r3, [sp, #8]
    fbd8:	e3530000 	cmp	r3, #0
    fbdc:	0a00000c 	beq	fc14 <BENCHTEST_snprintf+0x1bc>
    fbe0:	e3530027 	cmp	r3, #39	; 0x27
    fbe4:	028d1008 	addeq	r1, sp, #8
    fbe8:	059f051c 	ldreq	r0, [pc, #1308]	; 1010c <BENCHTEST_snprintf+0x6b4>
    fbec:	0a000005 	beq	fc08 <BENCHTEST_snprintf+0x1b0>
    fbf0:	ea000123 	b	10084 <BENCHTEST_snprintf+0x62c>
    fbf4:	e5f02001 	ldrb	r2, [r0, #1]!
    fbf8:	e3520000 	cmp	r2, #0
    fbfc:	0a000004 	beq	fc14 <BENCHTEST_snprintf+0x1bc>
    fc00:	e1530002 	cmp	r3, r2
    fc04:	1a00011e 	bne	10084 <BENCHTEST_snprintf+0x62c>
    fc08:	e5f13001 	ldrb	r3, [r1, #1]!
    fc0c:	e3530000 	cmp	r3, #0
    fc10:	1afffff7 	bne	fbf4 <BENCHTEST_snprintf+0x19c>
    fc14:	e2844001 	add	r4, r4, #1
    fc18:	e3a0300c 	mov	r3, #12
    fc1c:	e59f24ec 	ldr	r2, [pc, #1260]	; 10110 <BENCHTEST_snprintf+0x6b8>
    fc20:	e3a01c02 	mov	r1, #512	; 0x200
    fc24:	e28d0008 	add	r0, sp, #8
    fc28:	ebfffb16 	bl	e888 <snprintf.constprop.0>
    fc2c:	e5dd3008 	ldrb	r3, [sp, #8]
    fc30:	e3530000 	cmp	r3, #0
    fc34:	0a00000c 	beq	fc6c <BENCHTEST_snprintf+0x214>
    fc38:	e353003c 	cmp	r3, #60	; 0x3c
    fc3c:	028d1008 	addeq	r1, sp, #8
    fc40:	059f04cc 	ldreq	r0, [pc, #1228]	; 10114 <BENCHTEST_snprintf+0x6bc>
    fc44:	0a000005 	beq	fc60 <BENCHTEST_snprintf+0x208>
    fc48:	ea000107 	b	1006c <BENCHTEST_snprintf+0x614>
    fc4c:	e5f02001 	ldrb	r2, [r0, #1]!
    fc50:	e3520000 	cmp	r2, #0
    fc54:	0a000004 	beq	fc6c <BENCHTEST_snprintf+0x214>
    fc58:	e1530002 	cmp	r3, r2
    fc5c:	1a000102 	bne	1006c <BENCHTEST_snprintf+0x614>
    fc60:	e5f13001 	ldrb	r3, [r1, #1]!
    fc64:	e3530000 	cmp	r3, #0
    fc68:	1afffff7 	bne	fc4c <BENCHTEST_snprintf+0x1f4>
    fc6c:	e2844001 	add	r4, r4, #1
    fc70:	e59f34a0 	ldr	r3, [pc, #1184]	; 10118 <BENCHTEST_snprintf+0x6c0>
    fc74:	e59f24a0 	ldr	r2, [pc, #1184]	; 1011c <BENCHTEST_snprintf+0x6c4>
    fc78:	e3a01c02 	mov	r1, #512	; 0x200
    fc7c:	e28d0008 	add	r0, sp, #8
    fc80:	ebfffb00 	bl	e888 <snprintf.constprop.0>
    fc84:	e5dd3008 	ldrb	r3, [sp, #8]
    fc88:	e3530000 	cmp	r3, #0
    fc8c:	0a00000c 	beq	fcc4 <BENCHTEST_snprintf+0x26c>
    fc90:	e353003c 	cmp	r3, #60	; 0x3c
    fc94:	028d1008 	addeq	r1, sp, #8
    fc98:	059f0480 	ldreq	r0, [pc, #1152]	; 10120 <BENCHTEST_snprintf+0x6c8>
    fc9c:	0a000005 	beq	fcb8 <BENCHTEST_snprintf+0x260>
    fca0:	ea0000eb 	b	10054 <BENCHTEST_snprintf+0x5fc>
    fca4:	e5f02001 	ldrb	r2, [r0, #1]!
    fca8:	e3520000 	cmp	r2, #0
    fcac:	0a000004 	beq	fcc4 <BENCHTEST_snprintf+0x26c>
    fcb0:	e1530002 	cmp	r3, r2
    fcb4:	1a0000e6 	bne	10054 <BENCHTEST_snprintf+0x5fc>
    fcb8:	e5f13001 	ldrb	r3, [r1, #1]!
    fcbc:	e3530000 	cmp	r3, #0
    fcc0:	1afffff7 	bne	fca4 <BENCHTEST_snprintf+0x24c>
    fcc4:	e2844001 	add	r4, r4, #1
    fcc8:	e59f3454 	ldr	r3, [pc, #1108]	; 10124 <BENCHTEST_snprintf+0x6cc>
    fccc:	e59f2454 	ldr	r2, [pc, #1108]	; 10128 <BENCHTEST_snprintf+0x6d0>
    fcd0:	e3a01c02 	mov	r1, #512	; 0x200
    fcd4:	e28d0008 	add	r0, sp, #8
    fcd8:	ebfffaea 	bl	e888 <snprintf.constprop.0>
    fcdc:	e5dd3008 	ldrb	r3, [sp, #8]
    fce0:	e3530000 	cmp	r3, #0
    fce4:	0a00000c 	beq	fd1c <BENCHTEST_snprintf+0x2c4>
    fce8:	e353003c 	cmp	r3, #60	; 0x3c
    fcec:	028d1008 	addeq	r1, sp, #8
    fcf0:	059f0434 	ldreq	r0, [pc, #1076]	; 1012c <BENCHTEST_snprintf+0x6d4>
    fcf4:	0a000005 	beq	fd10 <BENCHTEST_snprintf+0x2b8>
    fcf8:	ea0000cf 	b	1003c <BENCHTEST_snprintf+0x5e4>
    fcfc:	e5f02001 	ldrb	r2, [r0, #1]!
    fd00:	e3520000 	cmp	r2, #0
    fd04:	0a000004 	beq	fd1c <BENCHTEST_snprintf+0x2c4>
    fd08:	e1530002 	cmp	r3, r2
    fd0c:	1a0000ca 	bne	1003c <BENCHTEST_snprintf+0x5e4>
    fd10:	e5f13001 	ldrb	r3, [r1, #1]!
    fd14:	e3530000 	cmp	r3, #0
    fd18:	1afffff7 	bne	fcfc <BENCHTEST_snprintf+0x2a4>
    fd1c:	e2844001 	add	r4, r4, #1
    fd20:	e59f2408 	ldr	r2, [pc, #1032]	; 10130 <BENCHTEST_snprintf+0x6d8>
    fd24:	e59f3408 	ldr	r3, [pc, #1032]	; 10134 <BENCHTEST_snprintf+0x6dc>
    fd28:	e58d2004 	str	r2, [sp, #4]
    fd2c:	e58d3000 	str	r3, [sp]
    fd30:	e59f2400 	ldr	r2, [pc, #1024]	; 10138 <BENCHTEST_snprintf+0x6e0>
    fd34:	e59f3400 	ldr	r3, [pc, #1024]	; 1013c <BENCHTEST_snprintf+0x6e4>
    fd38:	e3a01c02 	mov	r1, #512	; 0x200
    fd3c:	e28d0008 	add	r0, sp, #8
    fd40:	ebfffad0 	bl	e888 <snprintf.constprop.0>
    fd44:	e5dd3008 	ldrb	r3, [sp, #8]
    fd48:	e3530000 	cmp	r3, #0
    fd4c:	0a00000c 	beq	fd84 <BENCHTEST_snprintf+0x32c>
    fd50:	e3530048 	cmp	r3, #72	; 0x48
    fd54:	028d1008 	addeq	r1, sp, #8
    fd58:	059f03e0 	ldreq	r0, [pc, #992]	; 10140 <BENCHTEST_snprintf+0x6e8>
    fd5c:	0a000005 	beq	fd78 <BENCHTEST_snprintf+0x320>
    fd60:	ea0000af 	b	10024 <BENCHTEST_snprintf+0x5cc>
    fd64:	e5f02001 	ldrb	r2, [r0, #1]!
    fd68:	e3520000 	cmp	r2, #0
    fd6c:	0a000004 	beq	fd84 <BENCHTEST_snprintf+0x32c>
    fd70:	e1530002 	cmp	r3, r2
    fd74:	1a0000aa 	bne	10024 <BENCHTEST_snprintf+0x5cc>
    fd78:	e5f13001 	ldrb	r3, [r1, #1]!
    fd7c:	e3530000 	cmp	r3, #0
    fd80:	1afffff7 	bne	fd64 <BENCHTEST_snprintf+0x30c>
    fd84:	e2844001 	add	r4, r4, #1
    fd88:	e59f33b4 	ldr	r3, [pc, #948]	; 10144 <BENCHTEST_snprintf+0x6ec>
    fd8c:	e59f23b4 	ldr	r2, [pc, #948]	; 10148 <BENCHTEST_snprintf+0x6f0>
    fd90:	e3a01c02 	mov	r1, #512	; 0x200
    fd94:	e28d0008 	add	r0, sp, #8
    fd98:	ebfffaba 	bl	e888 <snprintf.constprop.0>
    fd9c:	e5dd3008 	ldrb	r3, [sp, #8]
    fda0:	e3530000 	cmp	r3, #0
    fda4:	0a00000c 	beq	fddc <BENCHTEST_snprintf+0x384>
    fda8:	e3530063 	cmp	r3, #99	; 0x63
    fdac:	028d1008 	addeq	r1, sp, #8
    fdb0:	059f0394 	ldreq	r0, [pc, #916]	; 1014c <BENCHTEST_snprintf+0x6f4>
    fdb4:	0a000005 	beq	fdd0 <BENCHTEST_snprintf+0x378>
    fdb8:	ea000093 	b	1000c <BENCHTEST_snprintf+0x5b4>
    fdbc:	e5f02001 	ldrb	r2, [r0, #1]!
    fdc0:	e3520000 	cmp	r2, #0
    fdc4:	0a000004 	beq	fddc <BENCHTEST_snprintf+0x384>
    fdc8:	e1530002 	cmp	r3, r2
    fdcc:	1a00008e 	bne	1000c <BENCHTEST_snprintf+0x5b4>
    fdd0:	e5f13001 	ldrb	r3, [r1, #1]!
    fdd4:	e3530000 	cmp	r3, #0
    fdd8:	1afffff7 	bne	fdbc <BENCHTEST_snprintf+0x364>
    fddc:	e2844001 	add	r4, r4, #1
    fde0:	e3a02005 	mov	r2, #5
    fde4:	e3a0300e 	mov	r3, #14
    fde8:	e58d2000 	str	r2, [sp]
    fdec:	e3a01c02 	mov	r1, #512	; 0x200
    fdf0:	e59f2358 	ldr	r2, [pc, #856]	; 10150 <BENCHTEST_snprintf+0x6f8>
    fdf4:	e28d0008 	add	r0, sp, #8
    fdf8:	ebfffaa2 	bl	e888 <snprintf.constprop.0>
    fdfc:	e5dd3008 	ldrb	r3, [sp, #8]
    fe00:	e3530000 	cmp	r3, #0
    fe04:	0a00000c 	beq	fe3c <BENCHTEST_snprintf+0x3e4>
    fe08:	e3530031 	cmp	r3, #49	; 0x31
    fe0c:	028d1008 	addeq	r1, sp, #8
    fe10:	059f033c 	ldreq	r0, [pc, #828]	; 10154 <BENCHTEST_snprintf+0x6fc>
    fe14:	0a000005 	beq	fe30 <BENCHTEST_snprintf+0x3d8>
    fe18:	ea000075 	b	fff4 <BENCHTEST_snprintf+0x59c>
    fe1c:	e5f02001 	ldrb	r2, [r0, #1]!
    fe20:	e3520000 	cmp	r2, #0
    fe24:	0a000004 	beq	fe3c <BENCHTEST_snprintf+0x3e4>
    fe28:	e1530002 	cmp	r3, r2
    fe2c:	1a000070 	bne	fff4 <BENCHTEST_snprintf+0x59c>
    fe30:	e5f13001 	ldrb	r3, [r1, #1]!
    fe34:	e3530000 	cmp	r3, #0
    fe38:	1afffff7 	bne	fe1c <BENCHTEST_snprintf+0x3c4>
    fe3c:	e2844001 	add	r4, r4, #1
    fe40:	e3a03063 	mov	r3, #99	; 0x63
    fe44:	e59f230c 	ldr	r2, [pc, #780]	; 10158 <BENCHTEST_snprintf+0x700>
    fe48:	e3a01c02 	mov	r1, #512	; 0x200
    fe4c:	e28d0008 	add	r0, sp, #8
    fe50:	ebfffa8c 	bl	e888 <snprintf.constprop.0>
    fe54:	e5dd3008 	ldrb	r3, [sp, #8]
    fe58:	e3530000 	cmp	r3, #0
    fe5c:	0a00000c 	beq	fe94 <BENCHTEST_snprintf+0x43c>
    fe60:	e3530070 	cmp	r3, #112	; 0x70
    fe64:	028d1008 	addeq	r1, sp, #8
    fe68:	059f02ec 	ldreq	r0, [pc, #748]	; 1015c <BENCHTEST_snprintf+0x704>
    fe6c:	0a000005 	beq	fe88 <BENCHTEST_snprintf+0x430>
    fe70:	ea000059 	b	ffdc <BENCHTEST_snprintf+0x584>
    fe74:	e5f02001 	ldrb	r2, [r0, #1]!
    fe78:	e3520000 	cmp	r2, #0
    fe7c:	0a000004 	beq	fe94 <BENCHTEST_snprintf+0x43c>
    fe80:	e1530002 	cmp	r3, r2
    fe84:	1a000054 	bne	ffdc <BENCHTEST_snprintf+0x584>
    fe88:	e5f13001 	ldrb	r3, [r1, #1]!
    fe8c:	e3530000 	cmp	r3, #0
    fe90:	1afffff7 	bne	fe74 <BENCHTEST_snprintf+0x41c>
    fe94:	e2844001 	add	r4, r4, #1
    fe98:	e3a03058 	mov	r3, #88	; 0x58
    fe9c:	e59f22bc 	ldr	r2, [pc, #700]	; 10160 <BENCHTEST_snprintf+0x708>
    fea0:	e3a01c02 	mov	r1, #512	; 0x200
    fea4:	e28d0008 	add	r0, sp, #8
    fea8:	ebfffa76 	bl	e888 <snprintf.constprop.0>
    feac:	e5dd3008 	ldrb	r3, [sp, #8]
    feb0:	e3530000 	cmp	r3, #0
    feb4:	0a00000c 	beq	feec <BENCHTEST_snprintf+0x494>
    feb8:	e3530038 	cmp	r3, #56	; 0x38
    febc:	028d1008 	addeq	r1, sp, #8
    fec0:	059f029c 	ldreq	r0, [pc, #668]	; 10164 <BENCHTEST_snprintf+0x70c>
    fec4:	0a000005 	beq	fee0 <BENCHTEST_snprintf+0x488>
    fec8:	ea00003d 	b	ffc4 <BENCHTEST_snprintf+0x56c>
    fecc:	e5f02001 	ldrb	r2, [r0, #1]!
    fed0:	e3520000 	cmp	r2, #0
    fed4:	0a000004 	beq	feec <BENCHTEST_snprintf+0x494>
    fed8:	e1530002 	cmp	r3, r2
    fedc:	1a000038 	bne	ffc4 <BENCHTEST_snprintf+0x56c>
    fee0:	e5f13001 	ldrb	r3, [r1, #1]!
    fee4:	e3530000 	cmp	r3, #0
    fee8:	1afffff7 	bne	fecc <BENCHTEST_snprintf+0x474>
    feec:	e2844001 	add	r4, r4, #1
    fef0:	e3a0300a 	mov	r3, #10
    fef4:	e59f226c 	ldr	r2, [pc, #620]	; 10168 <BENCHTEST_snprintf+0x710>
    fef8:	e3a01c02 	mov	r1, #512	; 0x200
    fefc:	e28d0008 	add	r0, sp, #8
    ff00:	ebfffa60 	bl	e888 <snprintf.constprop.0>
    ff04:	e5dd3008 	ldrb	r3, [sp, #8]
    ff08:	e3530000 	cmp	r3, #0
    ff0c:	0a00000c 	beq	ff44 <BENCHTEST_snprintf+0x4ec>
    ff10:	e3530030 	cmp	r3, #48	; 0x30
    ff14:	028d1008 	addeq	r1, sp, #8
    ff18:	059f024c 	ldreq	r0, [pc, #588]	; 1016c <BENCHTEST_snprintf+0x714>
    ff1c:	0a000005 	beq	ff38 <BENCHTEST_snprintf+0x4e0>
    ff20:	ea000021 	b	ffac <BENCHTEST_snprintf+0x554>
    ff24:	e5f02001 	ldrb	r2, [r0, #1]!
    ff28:	e3520000 	cmp	r2, #0
    ff2c:	0a000004 	beq	ff44 <BENCHTEST_snprintf+0x4ec>
    ff30:	e1530002 	cmp	r3, r2
    ff34:	1a00001c 	bne	ffac <BENCHTEST_snprintf+0x554>
    ff38:	e5f13001 	ldrb	r3, [r1, #1]!
    ff3c:	e3530000 	cmp	r3, #0
    ff40:	1afffff7 	bne	ff24 <BENCHTEST_snprintf+0x4cc>
    ff44:	e2844001 	add	r4, r4, #1
    ff48:	e59f0220 	ldr	r0, [pc, #544]	; 10170 <BENCHTEST_snprintf+0x718>
    ff4c:	ebfffdee 	bl	f70c <printf>
    ff50:	e59f021c 	ldr	r0, [pc, #540]	; 10174 <BENCHTEST_snprintf+0x71c>
    ff54:	ebfffdec 	bl	f70c <printf>
    ff58:	e59f0210 	ldr	r0, [pc, #528]	; 10170 <BENCHTEST_snprintf+0x718>
    ff5c:	ebfffdea 	bl	f70c <printf>
    ff60:	e3a0100e 	mov	r1, #14
    ff64:	e59f020c 	ldr	r0, [pc, #524]	; 10178 <BENCHTEST_snprintf+0x720>
    ff68:	ebfffde7 	bl	f70c <printf>
    ff6c:	e1a01004 	mov	r1, r4
    ff70:	e59f0204 	ldr	r0, [pc, #516]	; 1017c <BENCHTEST_snprintf+0x724>
    ff74:	ebfffde4 	bl	f70c <printf>
    ff78:	e264100e 	rsb	r1, r4, #14
    ff7c:	e59f01fc 	ldr	r0, [pc, #508]	; 10180 <BENCHTEST_snprintf+0x728>
    ff80:	ebfffde1 	bl	f70c <printf>
    ff84:	e28ddf83 	add	sp, sp, #524	; 0x20c
    ff88:	e8bd8030 	pop	{r4, r5, pc}
    ff8c:	e59f3158 	ldr	r3, [pc, #344]	; 100ec <BENCHTEST_snprintf+0x694>
    ff90:	e28d2008 	add	r2, sp, #8
    ff94:	e3a01001 	mov	r1, #1
    ff98:	e59f01e4 	ldr	r0, [pc, #484]	; 10184 <BENCHTEST_snprintf+0x72c>
    ff9c:	ebfffdda 	bl	f70c <printf>
    ffa0:	e3a04001 	mov	r4, #1
    ffa4:	e3a05000 	mov	r5, #0
    ffa8:	eafffec3 	b	fabc <BENCHTEST_snprintf+0x64>
    ffac:	e28d2008 	add	r2, sp, #8
    ffb0:	e59f31b4 	ldr	r3, [pc, #436]	; 1016c <BENCHTEST_snprintf+0x714>
    ffb4:	e3a0100e 	mov	r1, #14
    ffb8:	e59f01c4 	ldr	r0, [pc, #452]	; 10184 <BENCHTEST_snprintf+0x72c>
    ffbc:	ebfffdd2 	bl	f70c <printf>
    ffc0:	eaffffe0 	b	ff48 <BENCHTEST_snprintf+0x4f0>
    ffc4:	e59f3198 	ldr	r3, [pc, #408]	; 10164 <BENCHTEST_snprintf+0x70c>
    ffc8:	e28d2008 	add	r2, sp, #8
    ffcc:	e3a0100d 	mov	r1, #13
    ffd0:	e59f01ac 	ldr	r0, [pc, #428]	; 10184 <BENCHTEST_snprintf+0x72c>
    ffd4:	ebfffdcc 	bl	f70c <printf>
    ffd8:	eaffffc4 	b	fef0 <BENCHTEST_snprintf+0x498>
    ffdc:	e59f3178 	ldr	r3, [pc, #376]	; 1015c <BENCHTEST_snprintf+0x704>
    ffe0:	e28d2008 	add	r2, sp, #8
    ffe4:	e3a0100c 	mov	r1, #12
    ffe8:	e59f0194 	ldr	r0, [pc, #404]	; 10184 <BENCHTEST_snprintf+0x72c>
    ffec:	ebfffdc6 	bl	f70c <printf>
    fff0:	eaffffa8 	b	fe98 <BENCHTEST_snprintf+0x440>
    fff4:	e59f3158 	ldr	r3, [pc, #344]	; 10154 <BENCHTEST_snprintf+0x6fc>
    fff8:	e28d2008 	add	r2, sp, #8
    fffc:	e3a0100b 	mov	r1, #11
   10000:	e59f017c 	ldr	r0, [pc, #380]	; 10184 <BENCHTEST_snprintf+0x72c>
   10004:	ebfffdc0 	bl	f70c <printf>
   10008:	eaffff8c 	b	fe40 <BENCHTEST_snprintf+0x3e8>
   1000c:	e59f3138 	ldr	r3, [pc, #312]	; 1014c <BENCHTEST_snprintf+0x6f4>
   10010:	e28d2008 	add	r2, sp, #8
   10014:	e3a0100a 	mov	r1, #10
   10018:	e59f0164 	ldr	r0, [pc, #356]	; 10184 <BENCHTEST_snprintf+0x72c>
   1001c:	ebfffdba 	bl	f70c <printf>
   10020:	eaffff6e 	b	fde0 <BENCHTEST_snprintf+0x388>
   10024:	e59f3114 	ldr	r3, [pc, #276]	; 10140 <BENCHTEST_snprintf+0x6e8>
   10028:	e28d2008 	add	r2, sp, #8
   1002c:	e3a01009 	mov	r1, #9
   10030:	e59f014c 	ldr	r0, [pc, #332]	; 10184 <BENCHTEST_snprintf+0x72c>
   10034:	ebfffdb4 	bl	f70c <printf>
   10038:	eaffff52 	b	fd88 <BENCHTEST_snprintf+0x330>
   1003c:	e59f30e8 	ldr	r3, [pc, #232]	; 1012c <BENCHTEST_snprintf+0x6d4>
   10040:	e28d2008 	add	r2, sp, #8
   10044:	e3a01008 	mov	r1, #8
   10048:	e59f0134 	ldr	r0, [pc, #308]	; 10184 <BENCHTEST_snprintf+0x72c>
   1004c:	ebfffdae 	bl	f70c <printf>
   10050:	eaffff32 	b	fd20 <BENCHTEST_snprintf+0x2c8>
   10054:	e59f30c4 	ldr	r3, [pc, #196]	; 10120 <BENCHTEST_snprintf+0x6c8>
   10058:	e28d2008 	add	r2, sp, #8
   1005c:	e3a01007 	mov	r1, #7
   10060:	e59f011c 	ldr	r0, [pc, #284]	; 10184 <BENCHTEST_snprintf+0x72c>
   10064:	ebfffda8 	bl	f70c <printf>
   10068:	eaffff16 	b	fcc8 <BENCHTEST_snprintf+0x270>
   1006c:	e59f30a0 	ldr	r3, [pc, #160]	; 10114 <BENCHTEST_snprintf+0x6bc>
   10070:	e28d2008 	add	r2, sp, #8
   10074:	e3a01006 	mov	r1, #6
   10078:	e59f0104 	ldr	r0, [pc, #260]	; 10184 <BENCHTEST_snprintf+0x72c>
   1007c:	ebfffda2 	bl	f70c <printf>
   10080:	eafffefa 	b	fc70 <BENCHTEST_snprintf+0x218>
   10084:	e59f3080 	ldr	r3, [pc, #128]	; 1010c <BENCHTEST_snprintf+0x6b4>
   10088:	e28d2008 	add	r2, sp, #8
   1008c:	e3a01005 	mov	r1, #5
   10090:	e59f00ec 	ldr	r0, [pc, #236]	; 10184 <BENCHTEST_snprintf+0x72c>
   10094:	ebfffd9c 	bl	f70c <printf>
   10098:	eafffede 	b	fc18 <BENCHTEST_snprintf+0x1c0>
   1009c:	e59f3060 	ldr	r3, [pc, #96]	; 10104 <BENCHTEST_snprintf+0x6ac>
   100a0:	e28d2008 	add	r2, sp, #8
   100a4:	e3a01004 	mov	r1, #4
   100a8:	e59f00d4 	ldr	r0, [pc, #212]	; 10184 <BENCHTEST_snprintf+0x72c>
   100ac:	ebfffd96 	bl	f70c <printf>
   100b0:	eafffec2 	b	fbc0 <BENCHTEST_snprintf+0x168>
   100b4:	e59f3040 	ldr	r3, [pc, #64]	; 100fc <BENCHTEST_snprintf+0x6a4>
   100b8:	e28d2008 	add	r2, sp, #8
   100bc:	e3a01003 	mov	r1, #3
   100c0:	e59f00bc 	ldr	r0, [pc, #188]	; 10184 <BENCHTEST_snprintf+0x72c>
   100c4:	ebfffd90 	bl	f70c <printf>
   100c8:	eafffea6 	b	fb68 <BENCHTEST_snprintf+0x110>
   100cc:	e59f3020 	ldr	r3, [pc, #32]	; 100f4 <BENCHTEST_snprintf+0x69c>
   100d0:	e28d2008 	add	r2, sp, #8
   100d4:	e3a01002 	mov	r1, #2
   100d8:	e59f00a4 	ldr	r0, [pc, #164]	; 10184 <BENCHTEST_snprintf+0x72c>
   100dc:	e1a04005 	mov	r4, r5
   100e0:	ebfffd89 	bl	f70c <printf>
   100e4:	eafffe89 	b	fb10 <BENCHTEST_snprintf+0xb8>
   100e8:	000186b8 	.word	0x000186b8
   100ec:	000186bc 	.word	0x000186bc
   100f0:	075bcd15 	.word	0x075bcd15
   100f4:	000186c0 	.word	0x000186c0
   100f8:	000186cc 	.word	0x000186cc
   100fc:	000186d4 	.word	0x000186d4
   10100:	000186dc 	.word	0x000186dc
   10104:	000186e4 	.word	0x000186e4
   10108:	000186ec 	.word	0x000186ec
   1010c:	000186f4 	.word	0x000186f4
   10110:	000186fc 	.word	0x000186fc
   10114:	00018704 	.word	0x00018704
   10118:	000014e5 	.word	0x000014e5
   1011c:	0001870c 	.word	0x0001870c
   10120:	00018714 	.word	0x00018714
   10124:	00018720 	.word	0x00018720
   10128:	00018724 	.word	0x00018724
   1012c:	0001872c 	.word	0x0001872c
   10130:	00018750 	.word	0x00018750
   10134:	00018754 	.word	0x00018754
   10138:	00018740 	.word	0x00018740
   1013c:	00018738 	.word	0x00018738
   10140:	0001875c 	.word	0x0001875c
   10144:	0001877c 	.word	0x0001877c
   10148:	0001878c 	.word	0x0001878c
   1014c:	00018794 	.word	0x00018794
   10150:	000187a0 	.word	0x000187a0
   10154:	000187a8 	.word	0x000187a8
   10158:	000187b0 	.word	0x000187b0
   1015c:	000187c4 	.word	0x000187c4
   10160:	000187d4 	.word	0x000187d4
   10164:	000187dc 	.word	0x000187dc
   10168:	000187e0 	.word	0x000187e0
   1016c:	000187e4 	.word	0x000187e4
   10170:	000187e8 	.word	0x000187e8
   10174:	00018800 	.word	0x00018800
   10178:	00018818 	.word	0x00018818
   1017c:	00018824 	.word	0x00018824
   10180:	00018830 	.word	0x00018830
   10184:	00018698 	.word	0x00018698

00010188 <ClearArea16>:
   10188:	e92d47f0 	push	{r4, r5, r6, r7, r8, r9, sl, lr}
   1018c:	e590a010 	ldr	sl, [r0, #16]
   10190:	e59d9020 	ldr	r9, [sp, #32]
   10194:	e0241a92 	mla	r4, r2, sl, r1
   10198:	e5906000 	ldr	r6, [r0]
   1019c:	e0599002 	subs	r9, r9, r2
   101a0:	e5d0e02e 	ldrb	lr, [r0, #46]	; 0x2e
   101a4:	e5d0c02d 	ldrb	ip, [r0, #45]	; 0x2d
   101a8:	e5d0202c 	ldrb	r2, [r0, #44]	; 0x2c
   101ac:	e0866084 	add	r6, r6, r4, lsl #1
   101b0:	08bd87f0 	popeq	{r4, r5, r6, r7, r8, r9, sl, pc}
   101b4:	e0533001 	subs	r3, r3, r1
   101b8:	e1a0a08a 	lsl	sl, sl, #1
   101bc:	08bd87f0 	popeq	{r4, r5, r6, r7, r8, r9, sl, pc}
   101c0:	e3a07000 	mov	r7, #0
   101c4:	e1a0c12c 	lsr	ip, ip, #2
   101c8:	e20c5007 	and	r5, ip, #7
   101cc:	e1a0e1ae 	lsr	lr, lr, #3
   101d0:	e1a021a2 	lsr	r2, r2, #3
   101d4:	e1a08083 	lsl	r8, r3, #1
   101d8:	e202401f 	and	r4, r2, #31
   101dc:	e1a0e18e 	lsl	lr, lr, #3
   101e0:	e1a05285 	lsl	r5, r5, #5
   101e4:	e1a0c1ac 	lsr	ip, ip, #3
   101e8:	e1a03006 	mov	r3, r6
   101ec:	e0860008 	add	r0, r6, r8
   101f0:	e1841005 	orr	r1, r4, r5
   101f4:	e18e200c 	orr	r2, lr, ip
   101f8:	e5c31000 	strb	r1, [r3]
   101fc:	e5c32001 	strb	r2, [r3, #1]
   10200:	e2833002 	add	r3, r3, #2
   10204:	e1500003 	cmp	r0, r3
   10208:	1afffff8 	bne	101f0 <ClearArea16+0x68>
   1020c:	e2877001 	add	r7, r7, #1
   10210:	e1570009 	cmp	r7, r9
   10214:	e086600a 	add	r6, r6, sl
   10218:	1afffff2 	bne	101e8 <ClearArea16+0x60>
   1021c:	e8bd87f0 	pop	{r4, r5, r6, r7, r8, r9, sl, pc}

00010220 <VertLine16>:
   10220:	e92d47f0 	push	{r4, r5, r6, r7, r8, r9, sl, lr}
   10224:	e5908010 	ldr	r8, [r0, #16]
   10228:	e590a018 	ldr	sl, [r0, #24]
   1022c:	e1a08088 	lsl	r8, r8, #1
   10230:	e00c089a 	mul	ip, sl, r8
   10234:	e5903014 	ldr	r3, [r0, #20]
   10238:	e590e000 	ldr	lr, [r0]
   1023c:	e08c3083 	add	r3, ip, r3, lsl #1
   10240:	e3510000 	cmp	r1, #0
   10244:	e5d06026 	ldrb	r6, [r0, #38]	; 0x26
   10248:	e5d05025 	ldrb	r5, [r0, #37]	; 0x25
   1024c:	e5d07024 	ldrb	r7, [r0, #36]	; 0x24
   10250:	e083300e 	add	r3, r3, lr
   10254:	0a000012 	beq	102a4 <VertLine16+0x84>
   10258:	e1a05125 	lsr	r5, r5, #2
   1025c:	e2059007 	and	r9, r5, #7
   10260:	e1a061a6 	lsr	r6, r6, #3
   10264:	e1a071a7 	lsr	r7, r7, #3
   10268:	e3520001 	cmp	r2, #1
   1026c:	e3a04000 	mov	r4, #0
   10270:	e207701f 	and	r7, r7, #31
   10274:	e1a06186 	lsl	r6, r6, #3
   10278:	e1a09289 	lsl	r9, r9, #5
   1027c:	e1a051a5 	lsr	r5, r5, #3
   10280:	0a00000a 	beq	102b0 <VertLine16+0x90>
   10284:	e2844001 	add	r4, r4, #1
   10288:	e187e009 	orr	lr, r7, r9
   1028c:	e186c005 	orr	ip, r6, r5
   10290:	e1510004 	cmp	r1, r4
   10294:	e5c3e000 	strb	lr, [r3]
   10298:	e5c3c001 	strb	ip, [r3, #1]
   1029c:	e0433008 	sub	r3, r3, r8
   102a0:	1afffff7 	bne	10284 <VertLine16+0x64>
   102a4:	e021a291 	mla	r1, r1, r2, sl
   102a8:	e5801018 	str	r1, [r0, #24]
   102ac:	e8bd87f0 	pop	{r4, r5, r6, r7, r8, r9, sl, pc}
   102b0:	e2844001 	add	r4, r4, #1
   102b4:	e187e009 	orr	lr, r7, r9
   102b8:	e186c005 	orr	ip, r6, r5
   102bc:	e1510004 	cmp	r1, r4
   102c0:	e5c3e000 	strb	lr, [r3]
   102c4:	e5c3c001 	strb	ip, [r3, #1]
   102c8:	e0833008 	add	r3, r3, r8
   102cc:	1afffff7 	bne	102b0 <VertLine16+0x90>
   102d0:	eafffff3 	b	102a4 <VertLine16+0x84>

000102d4 <HorzLine16>:
   102d4:	e2803010 	add	r3, r0, #16
   102d8:	e92d47f0 	push	{r4, r5, r6, r7, r8, r9, sl, lr}
   102dc:	e8934208 	ldm	r3, {r3, r9, lr}
   102e0:	e1a0c089 	lsl	ip, r9, #1
   102e4:	e1a03083 	lsl	r3, r3, #1
   102e8:	e023c39e 	mla	r3, lr, r3, ip
   102ec:	e590c000 	ldr	ip, [r0]
   102f0:	e3510000 	cmp	r1, #0
   102f4:	e5d06026 	ldrb	r6, [r0, #38]	; 0x26
   102f8:	e5d05025 	ldrb	r5, [r0, #37]	; 0x25
   102fc:	e5d07024 	ldrb	r7, [r0, #36]	; 0x24
   10300:	e083300c 	add	r3, r3, ip
   10304:	0a000011 	beq	10350 <HorzLine16+0x7c>
   10308:	e3a04000 	mov	r4, #0
   1030c:	e1a05125 	lsr	r5, r5, #2
   10310:	e2058007 	and	r8, r5, #7
   10314:	e1a061a6 	lsr	r6, r6, #3
   10318:	e1a071a7 	lsr	r7, r7, #3
   1031c:	e207701f 	and	r7, r7, #31
   10320:	e1a06186 	lsl	r6, r6, #3
   10324:	e1a08288 	lsl	r8, r8, #5
   10328:	e1a051a5 	lsr	r5, r5, #3
   1032c:	e1a0a082 	lsl	sl, r2, #1
   10330:	e2844001 	add	r4, r4, #1
   10334:	e187e008 	orr	lr, r7, r8
   10338:	e186c005 	orr	ip, r6, r5
   1033c:	e1510004 	cmp	r1, r4
   10340:	e5c3e000 	strb	lr, [r3]
   10344:	e5c3c001 	strb	ip, [r3, #1]
   10348:	e083300a 	add	r3, r3, sl
   1034c:	1afffff7 	bne	10330 <HorzLine16+0x5c>
   10350:	e0219291 	mla	r1, r1, r2, r9
   10354:	e5801014 	str	r1, [r0, #20]
   10358:	e8bd87f0 	pop	{r4, r5, r6, r7, r8, r9, sl, pc}

0001035c <DiagLine16>:
   1035c:	e92d4ff0 	push	{r4, r5, r6, r7, r8, r9, sl, fp, lr}
   10360:	e590e018 	ldr	lr, [r0, #24]
   10364:	e590c014 	ldr	ip, [r0, #20]
   10368:	e1a0400e 	mov	r4, lr
   1036c:	e590b010 	ldr	fp, [r0, #16]
   10370:	e24dd014 	sub	sp, sp, #20
   10374:	e58dc008 	str	ip, [sp, #8]
   10378:	e58de00c 	str	lr, [sp, #12]
   1037c:	e1a0e08c 	lsl	lr, ip, #1
   10380:	e1a0c08b 	lsl	ip, fp, #1
   10384:	e02cec94 	mla	ip, r4, ip, lr
   10388:	e1510002 	cmp	r1, r2
   1038c:	e590e000 	ldr	lr, [r0]
   10390:	31a02001 	movcc	r2, r1
   10394:	e3510000 	cmp	r1, #0
   10398:	e58d3004 	str	r3, [sp, #4]
   1039c:	e5d07026 	ldrb	r7, [r0, #38]	; 0x26
   103a0:	e5d06025 	ldrb	r6, [r0, #37]	; 0x25
   103a4:	e5d08024 	ldrb	r8, [r0, #36]	; 0x24
   103a8:	e08c300e 	add	r3, ip, lr
   103ac:	0a00001a 	beq	1041c <DiagLine16+0xc0>
   103b0:	e3a05000 	mov	r5, #0
   103b4:	e1a0c005 	mov	ip, r5
   103b8:	e59de038 	ldr	lr, [sp, #56]	; 0x38
   103bc:	e1a06126 	lsr	r6, r6, #2
   103c0:	e1a0e08e 	lsl	lr, lr, #1
   103c4:	e00b0e9b 	mul	fp, fp, lr
   103c8:	e59de004 	ldr	lr, [sp, #4]
   103cc:	e2069007 	and	r9, r6, #7
   103d0:	e1a071a7 	lsr	r7, r7, #3
   103d4:	e1a081a8 	lsr	r8, r8, #3
   103d8:	e208801f 	and	r8, r8, #31
   103dc:	e1a07187 	lsl	r7, r7, #3
   103e0:	e1a09289 	lsl	r9, r9, #5
   103e4:	e1a061a6 	lsr	r6, r6, #3
   103e8:	e1a0a08e 	lsl	sl, lr, #1
   103ec:	e08cc002 	add	ip, ip, r2
   103f0:	e1884009 	orr	r4, r8, r9
   103f4:	e187e006 	orr	lr, r7, r6
   103f8:	e151000c 	cmp	r1, ip
   103fc:	e2855001 	add	r5, r5, #1
   10400:	e5c34000 	strb	r4, [r3]
   10404:	e5c3e001 	strb	lr, [r3, #1]
   10408:	e083300a 	add	r3, r3, sl
   1040c:	904cc001 	subls	ip, ip, r1
   10410:	9083300b 	addls	r3, r3, fp
   10414:	e1510005 	cmp	r1, r5
   10418:	1afffff3 	bne	103ec <DiagLine16+0x90>
   1041c:	e99d1008 	ldmib	sp, {r3, ip}
   10420:	e021c391 	mla	r1, r1, r3, ip
   10424:	e59d3038 	ldr	r3, [sp, #56]	; 0x38
   10428:	e59dc00c 	ldr	ip, [sp, #12]
   1042c:	e5801014 	str	r1, [r0, #20]
   10430:	e022c392 	mla	r2, r2, r3, ip
   10434:	e5802018 	str	r2, [r0, #24]
   10438:	e28dd014 	add	sp, sp, #20
   1043c:	e8bd8ff0 	pop	{r4, r5, r6, r7, r8, r9, sl, fp, pc}

00010440 <WriteChar16>:
   10440:	e1a03000 	mov	r3, r0
   10444:	e92d4ff0 	push	{r4, r5, r6, r7, r8, r9, sl, fp, lr}
   10448:	e5902014 	ldr	r2, [r0, #20]
   1044c:	e24dd01c 	sub	sp, sp, #28
   10450:	e58d0014 	str	r0, [sp, #20]
   10454:	e1a00002 	mov	r0, r2
   10458:	e58d2010 	str	r2, [sp, #16]
   1045c:	e1a02003 	mov	r2, r3
   10460:	e5939010 	ldr	r9, [r3, #16]
   10464:	e5935018 	ldr	r5, [r3, #24]
   10468:	e1a09089 	lsl	r9, r9, #1
   1046c:	e1a03080 	lsl	r3, r0, #1
   10470:	e0253995 	mla	r5, r5, r9, r3
   10474:	e1a01201 	lsl	r1, r1, #4
   10478:	e5d20024 	ldrb	r0, [r2, #36]	; 0x24
   1047c:	e59f30d0 	ldr	r3, [pc, #208]	; 10554 <WriteChar16+0x114>
   10480:	e592c000 	ldr	ip, [r2]
   10484:	e5d2b026 	ldrb	fp, [r2, #38]	; 0x26
   10488:	e5d2a025 	ldrb	sl, [r2, #37]	; 0x25
   1048c:	e5d2802a 	ldrb	r8, [r2, #42]	; 0x2a
   10490:	e5d27029 	ldrb	r7, [r2, #41]	; 0x29
   10494:	e5d26028 	ldrb	r6, [r2, #40]	; 0x28
   10498:	e2812010 	add	r2, r1, #16
   1049c:	e0832002 	add	r2, r3, r2
   104a0:	e1a001a0 	lsr	r0, r0, #3
   104a4:	e0833001 	add	r3, r3, r1
   104a8:	e085500c 	add	r5, r5, ip
   104ac:	e1a0b1ab 	lsr	fp, fp, #3
   104b0:	e1a0a12a 	lsr	sl, sl, #2
   104b4:	e58d0004 	str	r0, [sp, #4]
   104b8:	e1a081a8 	lsr	r8, r8, #3
   104bc:	e1a07127 	lsr	r7, r7, #2
   104c0:	e1a061a6 	lsr	r6, r6, #3
   104c4:	e58d200c 	str	r2, [sp, #12]
   104c8:	e58d3008 	str	r3, [sp, #8]
   104cc:	e3a0c000 	mov	ip, #0
   104d0:	e4934004 	ldr	r4, [r3], #4
   104d4:	e58d3008 	str	r3, [sp, #8]
   104d8:	e3540000 	cmp	r4, #0
   104dc:	a1a00007 	movge	r0, r7
   104e0:	b1a0000a 	movlt	r0, sl
   104e4:	a1a03008 	movge	r3, r8
   104e8:	a1a01006 	movge	r1, r6
   104ec:	b1a0300b 	movlt	r3, fp
   104f0:	b59d1004 	ldrlt	r1, [sp, #4]
   104f4:	e20c2007 	and	r2, ip, #7
   104f8:	e200e007 	and	lr, r0, #7
   104fc:	e3520007 	cmp	r2, #7
   10500:	e1a03183 	lsl	r3, r3, #3
   10504:	e28cc001 	add	ip, ip, #1
   10508:	e181128e 	orr	r1, r1, lr, lsl #5
   1050c:	e18331a0 	orr	r3, r3, r0, lsr #3
   10510:	e7c51082 	strb	r1, [r5, r2, lsl #1]
   10514:	e0850082 	add	r0, r5, r2, lsl #1
   10518:	00855009 	addeq	r5, r5, r9
   1051c:	e35c0020 	cmp	ip, #32
   10520:	e1a04084 	lsl	r4, r4, #1
   10524:	e5c03001 	strb	r3, [r0, #1]
   10528:	1affffea 	bne	104d8 <WriteChar16+0x98>
   1052c:	e59d3008 	ldr	r3, [sp, #8]
   10530:	e59d200c 	ldr	r2, [sp, #12]
   10534:	e1530002 	cmp	r3, r2
   10538:	1affffe3 	bne	104cc <WriteChar16+0x8c>
   1053c:	e59d3010 	ldr	r3, [sp, #16]
   10540:	e59d2014 	ldr	r2, [sp, #20]
   10544:	e2833008 	add	r3, r3, #8
   10548:	e5823014 	str	r3, [r2, #20]
   1054c:	e28dd01c 	add	sp, sp, #28
   10550:	e8bd8ff0 	pop	{r4, r5, r6, r7, r8, r9, sl, fp, pc}
   10554:	0001883c 	.word	0x0001883c

00010558 <TransparentWriteChar16>:
   10558:	e92d4ff0 	push	{r4, r5, r6, r7, r8, r9, sl, fp, lr}
   1055c:	e5903014 	ldr	r3, [r0, #20]
   10560:	e5907010 	ldr	r7, [r0, #16]
   10564:	e24dd00c 	sub	sp, sp, #12
   10568:	e590c018 	ldr	ip, [r0, #24]
   1056c:	e1a01201 	lsl	r1, r1, #4
   10570:	e59fb0a8 	ldr	fp, [pc, #168]	; 10620 <TransparentWriteChar16+0xc8>
   10574:	e58d3000 	str	r3, [sp]
   10578:	e1a07087 	lsl	r7, r7, #1
   1057c:	e1a03083 	lsl	r3, r3, #1
   10580:	e02c379c 	mla	ip, ip, r7, r3
   10584:	e2813010 	add	r3, r1, #16
   10588:	e08b3003 	add	r3, fp, r3
   1058c:	e5d06025 	ldrb	r6, [r0, #37]	; 0x25
   10590:	e5902000 	ldr	r2, [r0]
   10594:	e5d09026 	ldrb	r9, [r0, #38]	; 0x26
   10598:	e5d08024 	ldrb	r8, [r0, #36]	; 0x24
   1059c:	e58d0004 	str	r0, [sp, #4]
   105a0:	e1a00003 	mov	r0, r3
   105a4:	e1a06126 	lsr	r6, r6, #2
   105a8:	e206a007 	and	sl, r6, #7
   105ac:	e08cc002 	add	ip, ip, r2
   105b0:	e1a0a28a 	lsl	sl, sl, #5
   105b4:	e1a061a6 	lsr	r6, r6, #3
   105b8:	e1a091a9 	lsr	r9, r9, #3
   105bc:	e1a081a8 	lsr	r8, r8, #3
   105c0:	e08bb001 	add	fp, fp, r1
   105c4:	e3a03000 	mov	r3, #0
   105c8:	e49b2004 	ldr	r2, [fp], #4
   105cc:	e3520000 	cmp	r2, #0
   105d0:	e2031007 	and	r1, r3, #7
   105d4:	b08ce081 	addlt	lr, ip, r1, lsl #1
   105d8:	b188500a 	orrlt	r5, r8, sl
   105dc:	b1864189 	orrlt	r4, r6, r9, lsl #3
   105e0:	b7cc5081 	strblt	r5, [ip, r1, lsl #1]
   105e4:	e2833001 	add	r3, r3, #1
   105e8:	b5ce4001 	strblt	r4, [lr, #1]
   105ec:	e3510007 	cmp	r1, #7
   105f0:	008cc007 	addeq	ip, ip, r7
   105f4:	e3530020 	cmp	r3, #32
   105f8:	e1a02082 	lsl	r2, r2, #1
   105fc:	1afffff2 	bne	105cc <TransparentWriteChar16+0x74>
   10600:	e15b0000 	cmp	fp, r0
   10604:	1affffee 	bne	105c4 <TransparentWriteChar16+0x6c>
   10608:	e59d3000 	ldr	r3, [sp]
   1060c:	e59d0004 	ldr	r0, [sp, #4]
   10610:	e2833008 	add	r3, r3, #8
   10614:	e5803014 	str	r3, [r0, #20]
   10618:	e28dd00c 	add	sp, sp, #12
   1061c:	e8bd8ff0 	pop	{r4, r5, r6, r7, r8, r9, sl, fp, pc}
   10620:	0001883c 	.word	0x0001883c

00010624 <PutImage16>:
   10624:	e92d4ff0 	push	{r4, r5, r6, r7, r8, r9, sl, fp, lr}
   10628:	e5909010 	ldr	r9, [r0, #16]
   1062c:	e590c018 	ldr	ip, [r0, #24]
   10630:	e1a09089 	lsl	r9, r9, #1
   10634:	e00c099c 	mul	ip, ip, r9
   10638:	e24dd00c 	sub	sp, sp, #12
   1063c:	e590e014 	ldr	lr, [r0, #20]
   10640:	e5904000 	ldr	r4, [r0]
   10644:	e252a000 	subs	sl, r2, #0
   10648:	e5dd2030 	ldrb	r2, [sp, #48]	; 0x30
   1064c:	e08cc08e 	add	ip, ip, lr, lsl #1
   10650:	e08c4004 	add	r4, ip, r4
   10654:	e58d2004 	str	r2, [sp, #4]
   10658:	0a000019 	beq	106c4 <PutImage16+0xa0>
   1065c:	e3510000 	cmp	r1, #0
   10660:	0a000017 	beq	106c4 <PutImage16+0xa0>
   10664:	e1a06001 	mov	r6, r1
   10668:	e3a08000 	mov	r8, #0
   1066c:	e3a07002 	mov	r7, #2
   10670:	e1a05003 	mov	r5, r3
   10674:	e1a03081 	lsl	r3, r1, #1
   10678:	e58d3000 	str	r3, [sp]
   1067c:	e3a0b000 	mov	fp, #0
   10680:	e1a0008b 	lsl	r0, fp, #1
   10684:	e0851000 	add	r1, r5, r0
   10688:	e28bb001 	add	fp, fp, #1
   1068c:	e0840000 	add	r0, r4, r0
   10690:	e1a02007 	mov	r2, r7
   10694:	eb00086a 	bl	12844 <memcpy>
   10698:	e156000b 	cmp	r6, fp
   1069c:	1afffff7 	bne	10680 <PutImage16+0x5c>
   106a0:	e59d3004 	ldr	r3, [sp, #4]
   106a4:	e2888001 	add	r8, r8, #1
   106a8:	e3530000 	cmp	r3, #0
   106ac:	0a000006 	beq	106cc <PutImage16+0xa8>
   106b0:	e59d3000 	ldr	r3, [sp]
   106b4:	e15a0008 	cmp	sl, r8
   106b8:	e0444009 	sub	r4, r4, r9
   106bc:	e0855003 	add	r5, r5, r3
   106c0:	1affffed 	bne	1067c <PutImage16+0x58>
   106c4:	e28dd00c 	add	sp, sp, #12
   106c8:	e8bd8ff0 	pop	{r4, r5, r6, r7, r8, r9, sl, fp, pc}
   106cc:	e59d3000 	ldr	r3, [sp]
   106d0:	e15a0008 	cmp	sl, r8
   106d4:	e0844009 	add	r4, r4, r9
   106d8:	e0855003 	add	r5, r5, r3
   106dc:	1affffe6 	bne	1067c <PutImage16+0x58>
   106e0:	e28dd00c 	add	sp, sp, #12
   106e4:	e8bd8ff0 	pop	{r4, r5, r6, r7, r8, r9, sl, fp, pc}

000106e8 <ClearArea24>:
   106e8:	e92d4ff8 	push	{r3, r4, r5, r6, r7, r8, r9, sl, fp, lr}
   106ec:	e5908010 	ldr	r8, [r0, #16]
   106f0:	e59d9028 	ldr	r9, [sp, #40]	; 0x28
   106f4:	e0251892 	mla	r5, r2, r8, r1
   106f8:	e590c000 	ldr	ip, [r0]
   106fc:	e0855085 	add	r5, r5, r5, lsl #1
   10700:	e0599002 	subs	r9, r9, r2
   10704:	e085500c 	add	r5, r5, ip
   10708:	08bd8ff8 	popeq	{r3, r4, r5, r6, r7, r8, r9, sl, fp, pc}
   1070c:	e0537001 	subs	r7, r3, r1
   10710:	e0888088 	add	r8, r8, r8, lsl #1
   10714:	08bd8ff8 	popeq	{r3, r4, r5, r6, r7, r8, r9, sl, fp, pc}
   10718:	e3a0b000 	mov	fp, #0
   1071c:	e3a0a003 	mov	sl, #3
   10720:	e0877087 	add	r7, r7, r7, lsl #1
   10724:	e280602c 	add	r6, r0, #44	; 0x2c
   10728:	e3a04000 	mov	r4, #0
   1072c:	e0850004 	add	r0, r5, r4
   10730:	e1a0200a 	mov	r2, sl
   10734:	e1a01006 	mov	r1, r6
   10738:	e2844003 	add	r4, r4, #3
   1073c:	eb000840 	bl	12844 <memcpy>
   10740:	e1540007 	cmp	r4, r7
   10744:	1afffff8 	bne	1072c <ClearArea24+0x44>
   10748:	e28bb001 	add	fp, fp, #1
   1074c:	e15b0009 	cmp	fp, r9
   10750:	e0855008 	add	r5, r5, r8
   10754:	1afffff3 	bne	10728 <ClearArea24+0x40>
   10758:	e8bd8ff8 	pop	{r3, r4, r5, r6, r7, r8, r9, sl, fp, pc}

0001075c <VertLine24>:
   1075c:	e92d4ff8 	push	{r3, r4, r5, r6, r7, r8, r9, sl, fp, lr}
   10760:	e5904010 	ldr	r4, [r0, #16]
   10764:	e5903014 	ldr	r3, [r0, #20]
   10768:	e5909018 	ldr	r9, [r0, #24]
   1076c:	e0844084 	add	r4, r4, r4, lsl #1
   10770:	e0833083 	add	r3, r3, r3, lsl #1
   10774:	e0233499 	mla	r3, r9, r4, r3
   10778:	e1a08000 	mov	r8, r0
   1077c:	e5900000 	ldr	r0, [r0]
   10780:	e2515000 	subs	r5, r1, #0
   10784:	e1a0a002 	mov	sl, r2
   10788:	e0833000 	add	r3, r3, r0
   1078c:	0a00000c 	beq	107c4 <VertLine24+0x68>
   10790:	e3520001 	cmp	r2, #1
   10794:	e3a0b000 	mov	fp, #0
   10798:	e3a07003 	mov	r7, #3
   1079c:	e2886024 	add	r6, r8, #36	; 0x24
   107a0:	0a00000a 	beq	107d0 <VertLine24+0x74>
   107a4:	e1a00003 	mov	r0, r3
   107a8:	e1a02007 	mov	r2, r7
   107ac:	e1a01006 	mov	r1, r6
   107b0:	eb000823 	bl	12844 <memcpy>
   107b4:	e28bb001 	add	fp, fp, #1
   107b8:	e155000b 	cmp	r5, fp
   107bc:	e0403004 	sub	r3, r0, r4
   107c0:	1afffff7 	bne	107a4 <VertLine24+0x48>
   107c4:	e0259a95 	mla	r5, r5, sl, r9
   107c8:	e5885018 	str	r5, [r8, #24]
   107cc:	e8bd8ff8 	pop	{r3, r4, r5, r6, r7, r8, r9, sl, fp, pc}
   107d0:	e1a00003 	mov	r0, r3
   107d4:	e1a02007 	mov	r2, r7
   107d8:	e1a01006 	mov	r1, r6
   107dc:	eb000818 	bl	12844 <memcpy>
   107e0:	e28bb001 	add	fp, fp, #1
   107e4:	e155000b 	cmp	r5, fp
   107e8:	e0803004 	add	r3, r0, r4
   107ec:	1afffff7 	bne	107d0 <VertLine24+0x74>
   107f0:	eafffff3 	b	107c4 <VertLine24+0x68>

000107f4 <HorzLine24>:
   107f4:	e92d4ff8 	push	{r3, r4, r5, r6, r7, r8, r9, sl, fp, lr}
   107f8:	e1a06000 	mov	r6, r0
   107fc:	e2803010 	add	r3, r0, #16
   10800:	e8931088 	ldm	r3, {r3, r7, ip}
   10804:	e0870087 	add	r0, r7, r7, lsl #1
   10808:	e0833083 	add	r3, r3, r3, lsl #1
   1080c:	e023039c 	mla	r3, ip, r3, r0
   10810:	e5960000 	ldr	r0, [r6]
   10814:	e2514000 	subs	r4, r1, #0
   10818:	e1a09002 	mov	r9, r2
   1081c:	e0833000 	add	r3, r3, r0
   10820:	13a0b000 	movne	fp, #0
   10824:	13a0a003 	movne	sl, #3
   10828:	10828082 	addne	r8, r2, r2, lsl #1
   1082c:	12865024 	addne	r5, r6, #36	; 0x24
   10830:	0a000007 	beq	10854 <HorzLine24+0x60>
   10834:	e1a00003 	mov	r0, r3
   10838:	e1a0200a 	mov	r2, sl
   1083c:	e1a01005 	mov	r1, r5
   10840:	eb0007ff 	bl	12844 <memcpy>
   10844:	e28bb001 	add	fp, fp, #1
   10848:	e154000b 	cmp	r4, fp
   1084c:	e0803008 	add	r3, r0, r8
   10850:	1afffff7 	bne	10834 <HorzLine24+0x40>
   10854:	e0247994 	mla	r4, r4, r9, r7
   10858:	e5864014 	str	r4, [r6, #20]
   1085c:	e8bd8ff8 	pop	{r3, r4, r5, r6, r7, r8, r9, sl, fp, pc}

00010860 <DiagLine24>:
   10860:	e1a0c000 	mov	ip, r0
   10864:	e92d4ff0 	push	{r4, r5, r6, r7, r8, r9, sl, fp, lr}
   10868:	e1a05001 	mov	r5, r1
   1086c:	e59c1018 	ldr	r1, [ip, #24]
   10870:	e24dd014 	sub	sp, sp, #20
   10874:	e1a0e001 	mov	lr, r1
   10878:	e58d0000 	str	r0, [sp]
   1087c:	e59ca010 	ldr	sl, [ip, #16]
   10880:	e5900014 	ldr	r0, [r0, #20]
   10884:	e58d100c 	str	r1, [sp, #12]
   10888:	e58d0008 	str	r0, [sp, #8]
   1088c:	e08a108a 	add	r1, sl, sl, lsl #1
   10890:	e0800080 	add	r0, r0, r0, lsl #1
   10894:	e021019e 	mla	r1, lr, r1, r0
   10898:	e1550002 	cmp	r5, r2
   1089c:	e59c0000 	ldr	r0, [ip]
   108a0:	31a06005 	movcc	r6, r5
   108a4:	21a06002 	movcs	r6, r2
   108a8:	e3550000 	cmp	r5, #0
   108ac:	e58d3004 	str	r3, [sp, #4]
   108b0:	e0813000 	add	r3, r1, r0
   108b4:	0a000015 	beq	10910 <DiagLine24+0xb0>
   108b8:	e3a0b000 	mov	fp, #0
   108bc:	e3a09003 	mov	r9, #3
   108c0:	e1a0400b 	mov	r4, fp
   108c4:	e59d2038 	ldr	r2, [sp, #56]	; 0x38
   108c8:	e0822082 	add	r2, r2, r2, lsl #1
   108cc:	e00a029a 	mul	sl, sl, r2
   108d0:	e59d2004 	ldr	r2, [sp, #4]
   108d4:	e0828082 	add	r8, r2, r2, lsl #1
   108d8:	e59d2000 	ldr	r2, [sp]
   108dc:	e2827024 	add	r7, r2, #36	; 0x24
   108e0:	e1a00003 	mov	r0, r3
   108e4:	e1a02009 	mov	r2, r9
   108e8:	e1a01007 	mov	r1, r7
   108ec:	eb0007d4 	bl	12844 <memcpy>
   108f0:	e0844006 	add	r4, r4, r6
   108f4:	e1550004 	cmp	r5, r4
   108f8:	e28bb001 	add	fp, fp, #1
   108fc:	e0803008 	add	r3, r0, r8
   10900:	90444005 	subls	r4, r4, r5
   10904:	9083300a 	addls	r3, r3, sl
   10908:	e155000b 	cmp	r5, fp
   1090c:	1afffff3 	bne	108e0 <DiagLine24+0x80>
   10910:	e59d3004 	ldr	r3, [sp, #4]
   10914:	e59d2008 	ldr	r2, [sp, #8]
   10918:	e0252395 	mla	r5, r5, r3, r2
   1091c:	e59d3038 	ldr	r3, [sp, #56]	; 0x38
   10920:	e59d200c 	ldr	r2, [sp, #12]
   10924:	e0262396 	mla	r6, r6, r3, r2
   10928:	e59d3000 	ldr	r3, [sp]
   1092c:	e5835014 	str	r5, [r3, #20]
   10930:	e5836018 	str	r6, [r3, #24]
   10934:	e28dd014 	add	sp, sp, #20
   10938:	e8bd8ff0 	pop	{r4, r5, r6, r7, r8, r9, sl, fp, pc}

0001093c <WriteChar24>:
   1093c:	e92d4ff0 	push	{r4, r5, r6, r7, r8, r9, sl, fp, lr}
   10940:	e590a014 	ldr	sl, [r0, #20]
   10944:	e5908010 	ldr	r8, [r0, #16]
   10948:	e5904018 	ldr	r4, [r0, #24]
   1094c:	e08a308a 	add	r3, sl, sl, lsl #1
   10950:	e0888088 	add	r8, r8, r8, lsl #1
   10954:	e0243894 	mla	r4, r4, r8, r3
   10958:	e1a01201 	lsl	r1, r1, #4
   1095c:	e59f9078 	ldr	r9, [pc, #120]	; 109dc <WriteChar24+0xa0>
   10960:	e5903000 	ldr	r3, [r0]
   10964:	e281b010 	add	fp, r1, #16
   10968:	e089b00b 	add	fp, r9, fp
   1096c:	e0844003 	add	r4, r4, r3
   10970:	e0899001 	add	r9, r9, r1
   10974:	e3a03000 	mov	r3, #0
   10978:	e4991004 	ldr	r1, [r9], #4
   1097c:	e3510000 	cmp	r1, #0
   10980:	e5d07028 	ldrb	r7, [r0, #40]	; 0x28
   10984:	e2032007 	and	r2, r3, #7
   10988:	b5d07024 	ldrblt	r7, [r0, #36]	; 0x24
   1098c:	e5d06029 	ldrb	r6, [r0, #41]	; 0x29
   10990:	e5d0502a 	ldrb	r5, [r0, #42]	; 0x2a
   10994:	b5d06025 	ldrblt	r6, [r0, #37]	; 0x25
   10998:	b5d05026 	ldrblt	r5, [r0, #38]	; 0x26
   1099c:	e082e082 	add	lr, r2, r2, lsl #1
   109a0:	e3520007 	cmp	r2, #7
   109a4:	e2833001 	add	r3, r3, #1
   109a8:	e084c00e 	add	ip, r4, lr
   109ac:	e7c4700e 	strb	r7, [r4, lr]
   109b0:	00844008 	addeq	r4, r4, r8
   109b4:	e3530020 	cmp	r3, #32
   109b8:	e1a01081 	lsl	r1, r1, #1
   109bc:	e5cc6001 	strb	r6, [ip, #1]
   109c0:	e5cc5002 	strb	r5, [ip, #2]
   109c4:	1affffec 	bne	1097c <WriteChar24+0x40>
   109c8:	e159000b 	cmp	r9, fp
   109cc:	1affffe8 	bne	10974 <WriteChar24+0x38>
   109d0:	e28aa008 	add	sl, sl, #8
   109d4:	e580a014 	str	sl, [r0, #20]
   109d8:	e8bd8ff0 	pop	{r4, r5, r6, r7, r8, r9, sl, fp, pc}
   109dc:	0001883c 	.word	0x0001883c

000109e0 <TransparentWriteChar24>:
   109e0:	e92d4ff0 	push	{r4, r5, r6, r7, r8, r9, sl, fp, lr}
   109e4:	e1a08000 	mov	r8, r0
   109e8:	e3a09003 	mov	r9, #3
   109ec:	e5902014 	ldr	r2, [r0, #20]
   109f0:	e5907010 	ldr	r7, [r0, #16]
   109f4:	e24dd014 	sub	sp, sp, #20
   109f8:	e5903018 	ldr	r3, [r0, #24]
   109fc:	e58d2008 	str	r2, [sp, #8]
   10a00:	e0877087 	add	r7, r7, r7, lsl #1
   10a04:	e0822082 	add	r2, r2, r2, lsl #1
   10a08:	e0232793 	mla	r3, r3, r7, r2
   10a0c:	e4982024 	ldr	r2, [r8], #36	; 0x24
   10a10:	e1a01201 	lsl	r1, r1, #4
   10a14:	e59fa080 	ldr	sl, [pc, #128]	; 10a9c <TransparentWriteChar24+0xbc>
   10a18:	e083b002 	add	fp, r3, r2
   10a1c:	e2812010 	add	r2, r1, #16
   10a20:	e08a3002 	add	r3, sl, r2
   10a24:	e58d000c 	str	r0, [sp, #12]
   10a28:	e58d3004 	str	r3, [sp, #4]
   10a2c:	e08aa001 	add	sl, sl, r1
   10a30:	e3a04000 	mov	r4, #0
   10a34:	e49a5004 	ldr	r5, [sl], #4
   10a38:	ea000004 	b	10a50 <TransparentWriteChar24+0x70>
   10a3c:	e3560007 	cmp	r6, #7
   10a40:	008bb007 	addeq	fp, fp, r7
   10a44:	e3540020 	cmp	r4, #32
   10a48:	e1a05085 	lsl	r5, r5, #1
   10a4c:	0a000009 	beq	10a78 <TransparentWriteChar24+0x98>
   10a50:	e3550000 	cmp	r5, #0
   10a54:	e2046007 	and	r6, r4, #7
   10a58:	e2844001 	add	r4, r4, #1
   10a5c:	aafffff6 	bge	10a3c <TransparentWriteChar24+0x5c>
   10a60:	e0860086 	add	r0, r6, r6, lsl #1
   10a64:	e08b0000 	add	r0, fp, r0
   10a68:	e1a02009 	mov	r2, r9
   10a6c:	e1a01008 	mov	r1, r8
   10a70:	eb000773 	bl	12844 <memcpy>
   10a74:	eafffff0 	b	10a3c <TransparentWriteChar24+0x5c>
   10a78:	e59d3004 	ldr	r3, [sp, #4]
   10a7c:	e15a0003 	cmp	sl, r3
   10a80:	1affffea 	bne	10a30 <TransparentWriteChar24+0x50>
   10a84:	e59d3008 	ldr	r3, [sp, #8]
   10a88:	e59d200c 	ldr	r2, [sp, #12]
   10a8c:	e2833008 	add	r3, r3, #8
   10a90:	e5823014 	str	r3, [r2, #20]
   10a94:	e28dd014 	add	sp, sp, #20
   10a98:	e8bd8ff0 	pop	{r4, r5, r6, r7, r8, r9, sl, fp, pc}
   10a9c:	0001883c 	.word	0x0001883c

00010aa0 <PutImage24>:
   10aa0:	e92d4ff0 	push	{r4, r5, r6, r7, r8, r9, sl, fp, lr}
   10aa4:	e590c014 	ldr	ip, [r0, #20]
   10aa8:	e5909010 	ldr	r9, [r0, #16]
   10aac:	e5905018 	ldr	r5, [r0, #24]
   10ab0:	e0899089 	add	r9, r9, r9, lsl #1
   10ab4:	e08cc08c 	add	ip, ip, ip, lsl #1
   10ab8:	e02cc995 	mla	ip, r5, r9, ip
   10abc:	e24dd00c 	sub	sp, sp, #12
   10ac0:	e5905000 	ldr	r5, [r0]
   10ac4:	e252a000 	subs	sl, r2, #0
   10ac8:	e5dd2030 	ldrb	r2, [sp, #48]	; 0x30
   10acc:	e08c5005 	add	r5, ip, r5
   10ad0:	e58d2004 	str	r2, [sp, #4]
   10ad4:	0a000015 	beq	10b30 <PutImage24+0x90>
   10ad8:	e3510000 	cmp	r1, #0
   10adc:	0a000013 	beq	10b30 <PutImage24+0x90>
   10ae0:	e1a04003 	mov	r4, r3
   10ae4:	e3a08000 	mov	r8, #0
   10ae8:	e3a07003 	mov	r7, #3
   10aec:	e0816081 	add	r6, r1, r1, lsl #1
   10af0:	e3a0b000 	mov	fp, #0
   10af4:	e084100b 	add	r1, r4, fp
   10af8:	e085000b 	add	r0, r5, fp
   10afc:	e1a02007 	mov	r2, r7
   10b00:	e28bb003 	add	fp, fp, #3
   10b04:	eb00074e 	bl	12844 <memcpy>
   10b08:	e15b0006 	cmp	fp, r6
   10b0c:	1afffff8 	bne	10af4 <PutImage24+0x54>
   10b10:	e59d3004 	ldr	r3, [sp, #4]
   10b14:	e2888001 	add	r8, r8, #1
   10b18:	e3530000 	cmp	r3, #0
   10b1c:	0a000005 	beq	10b38 <PutImage24+0x98>
   10b20:	e15a0008 	cmp	sl, r8
   10b24:	e0455009 	sub	r5, r5, r9
   10b28:	e0844006 	add	r4, r4, r6
   10b2c:	1affffef 	bne	10af0 <PutImage24+0x50>
   10b30:	e28dd00c 	add	sp, sp, #12
   10b34:	e8bd8ff0 	pop	{r4, r5, r6, r7, r8, r9, sl, fp, pc}
   10b38:	e15a0008 	cmp	sl, r8
   10b3c:	e0855009 	add	r5, r5, r9
   10b40:	e0844006 	add	r4, r4, r6
   10b44:	1affffe9 	bne	10af0 <PutImage24+0x50>
   10b48:	e28dd00c 	add	sp, sp, #12
   10b4c:	e8bd8ff0 	pop	{r4, r5, r6, r7, r8, r9, sl, fp, pc}

00010b50 <ClearArea32>:
   10b50:	e92d4030 	push	{r4, r5, lr}
   10b54:	e5904010 	ldr	r4, [r0, #16]
   10b58:	e1a0c102 	lsl	ip, r2, #2
   10b5c:	e02ccc94 	mla	ip, r4, ip, ip
   10b60:	e59d500c 	ldr	r5, [sp, #12]
   10b64:	e590e000 	ldr	lr, [r0]
   10b68:	e0555002 	subs	r5, r5, r2
   10b6c:	e08cc00e 	add	ip, ip, lr
   10b70:	08bd8030 	popeq	{r4, r5, pc}
   10b74:	e0531001 	subs	r1, r3, r1
   10b78:	e1a04104 	lsl	r4, r4, #2
   10b7c:	13a0e000 	movne	lr, #0
   10b80:	0a00000a 	beq	10bb0 <ClearArea32+0x60>
   10b84:	e3a03000 	mov	r3, #0
   10b88:	e590202c 	ldr	r2, [r0, #44]	; 0x2c
   10b8c:	e78c2103 	str	r2, [ip, r3, lsl #2]
   10b90:	e2833001 	add	r3, r3, #1
   10b94:	e1530001 	cmp	r3, r1
   10b98:	1afffffa 	bne	10b88 <ClearArea32+0x38>
   10b9c:	e28ee001 	add	lr, lr, #1
   10ba0:	e15e0005 	cmp	lr, r5
   10ba4:	e08cc004 	add	ip, ip, r4
   10ba8:	1afffff5 	bne	10b84 <ClearArea32+0x34>
   10bac:	e8bd8030 	pop	{r4, r5, pc}
   10bb0:	e8bd8030 	pop	{r4, r5, pc}

00010bb4 <VertLine32>:
   10bb4:	e92d4030 	push	{r4, r5, lr}
   10bb8:	e5904010 	ldr	r4, [r0, #16]
   10bbc:	e5905018 	ldr	r5, [r0, #24]
   10bc0:	e1a04104 	lsl	r4, r4, #2
   10bc4:	e00c0495 	mul	ip, r5, r4
   10bc8:	e5903014 	ldr	r3, [r0, #20]
   10bcc:	e590e000 	ldr	lr, [r0]
   10bd0:	e08c3103 	add	r3, ip, r3, lsl #2
   10bd4:	e3510000 	cmp	r1, #0
   10bd8:	e083300e 	add	r3, r3, lr
   10bdc:	0a000008 	beq	10c04 <VertLine32+0x50>
   10be0:	e3520001 	cmp	r2, #1
   10be4:	e3a0c000 	mov	ip, #0
   10be8:	0a000008 	beq	10c10 <VertLine32+0x5c>
   10bec:	e28cc001 	add	ip, ip, #1
   10bf0:	e590e024 	ldr	lr, [r0, #36]	; 0x24
   10bf4:	e151000c 	cmp	r1, ip
   10bf8:	e583e000 	str	lr, [r3]
   10bfc:	e0433004 	sub	r3, r3, r4
   10c00:	1afffff9 	bne	10bec <VertLine32+0x38>
   10c04:	e0215291 	mla	r1, r1, r2, r5
   10c08:	e5801018 	str	r1, [r0, #24]
   10c0c:	e8bd8030 	pop	{r4, r5, pc}
   10c10:	e28cc001 	add	ip, ip, #1
   10c14:	e590e024 	ldr	lr, [r0, #36]	; 0x24
   10c18:	e151000c 	cmp	r1, ip
   10c1c:	e683e004 	str	lr, [r3], r4
   10c20:	1afffffa 	bne	10c10 <VertLine32+0x5c>
   10c24:	eafffff6 	b	10c04 <VertLine32+0x50>

00010c28 <HorzLine32>:
   10c28:	e92d4030 	push	{r4, r5, lr}
   10c2c:	e590c010 	ldr	ip, [r0, #16]
   10c30:	e5904014 	ldr	r4, [r0, #20]
   10c34:	e590e018 	ldr	lr, [r0, #24]
   10c38:	e1a03104 	lsl	r3, r4, #2
   10c3c:	e1a0c10c 	lsl	ip, ip, #2
   10c40:	e02c3c9e 	mla	ip, lr, ip, r3
   10c44:	e5903000 	ldr	r3, [r0]
   10c48:	e3510000 	cmp	r1, #0
   10c4c:	e08cc003 	add	ip, ip, r3
   10c50:	11a05102 	lslne	r5, r2, #2
   10c54:	13a03000 	movne	r3, #0
   10c58:	0a000004 	beq	10c70 <HorzLine32+0x48>
   10c5c:	e2833001 	add	r3, r3, #1
   10c60:	e590e024 	ldr	lr, [r0, #36]	; 0x24
   10c64:	e1510003 	cmp	r1, r3
   10c68:	e68ce005 	str	lr, [ip], r5
   10c6c:	1afffffa 	bne	10c5c <HorzLine32+0x34>
   10c70:	e0214291 	mla	r1, r1, r2, r4
   10c74:	e5801014 	str	r1, [r0, #20]
   10c78:	e8bd8030 	pop	{r4, r5, pc}

00010c7c <DiagLine32>:
   10c7c:	e92d47f0 	push	{r4, r5, r6, r7, r8, r9, sl, lr}
   10c80:	e2806010 	add	r6, r0, #16
   10c84:	e89601c0 	ldm	r6, {r6, r7, r8}
   10c88:	e1a0c107 	lsl	ip, r7, #2
   10c8c:	e1a0e106 	lsl	lr, r6, #2
   10c90:	e02ece98 	mla	lr, r8, lr, ip
   10c94:	e1510002 	cmp	r1, r2
   10c98:	e590c000 	ldr	ip, [r0]
   10c9c:	31a02001 	movcc	r2, r1
   10ca0:	e3510000 	cmp	r1, #0
   10ca4:	e08ee00c 	add	lr, lr, ip
   10ca8:	e59d9020 	ldr	r9, [sp, #32]
   10cac:	0a00000d 	beq	10ce8 <DiagLine32+0x6c>
   10cb0:	e3a04000 	mov	r4, #0
   10cb4:	e1a0c004 	mov	ip, r4
   10cb8:	e1a05109 	lsl	r5, r9, #2
   10cbc:	e0060596 	mul	r6, r6, r5
   10cc0:	e1a0a103 	lsl	sl, r3, #2
   10cc4:	e5905024 	ldr	r5, [r0, #36]	; 0x24
   10cc8:	e08cc002 	add	ip, ip, r2
   10ccc:	e151000c 	cmp	r1, ip
   10cd0:	e2844001 	add	r4, r4, #1
   10cd4:	e68e500a 	str	r5, [lr], sl
   10cd8:	904cc001 	subls	ip, ip, r1
   10cdc:	908ee006 	addls	lr, lr, r6
   10ce0:	e1510004 	cmp	r1, r4
   10ce4:	1afffff6 	bne	10cc4 <DiagLine32+0x48>
   10ce8:	e0217391 	mla	r1, r1, r3, r7
   10cec:	e0228992 	mla	r2, r2, r9, r8
   10cf0:	e5801014 	str	r1, [r0, #20]
   10cf4:	e5802018 	str	r2, [r0, #24]
   10cf8:	e8bd87f0 	pop	{r4, r5, r6, r7, r8, r9, sl, pc}

00010cfc <WriteChar32>:
   10cfc:	e92d40f0 	push	{r4, r5, r6, r7, lr}
   10d00:	e2804010 	add	r4, r0, #16
   10d04:	e8944090 	ldm	r4, {r4, r7, lr}
   10d08:	e1a03107 	lsl	r3, r7, #2
   10d0c:	e1a04104 	lsl	r4, r4, #2
   10d10:	e02e349e 	mla	lr, lr, r4, r3
   10d14:	e1a01201 	lsl	r1, r1, #4
   10d18:	e59f5064 	ldr	r5, [pc, #100]	; 10d84 <WriteChar32+0x88>
   10d1c:	e5903000 	ldr	r3, [r0]
   10d20:	e2816010 	add	r6, r1, #16
   10d24:	e0856006 	add	r6, r5, r6
   10d28:	e24dd00c 	sub	sp, sp, #12
   10d2c:	e08ee003 	add	lr, lr, r3
   10d30:	e0855001 	add	r5, r5, r1
   10d34:	e3a03000 	mov	r3, #0
   10d38:	e4952004 	ldr	r2, [r5], #4
   10d3c:	e3520000 	cmp	r2, #0
   10d40:	e2031007 	and	r1, r3, #7
   10d44:	a590c028 	ldrge	ip, [r0, #40]	; 0x28
   10d48:	b590c024 	ldrlt	ip, [r0, #36]	; 0x24
   10d4c:	e2833001 	add	r3, r3, #1
   10d50:	e3510007 	cmp	r1, #7
   10d54:	e78ec101 	str	ip, [lr, r1, lsl #2]
   10d58:	008ee004 	addeq	lr, lr, r4
   10d5c:	e3530020 	cmp	r3, #32
   10d60:	e58dc004 	str	ip, [sp, #4]
   10d64:	e1a02082 	lsl	r2, r2, #1
   10d68:	1afffff3 	bne	10d3c <WriteChar32+0x40>
   10d6c:	e1560005 	cmp	r6, r5
   10d70:	1affffef 	bne	10d34 <WriteChar32+0x38>
   10d74:	e2877008 	add	r7, r7, #8
   10d78:	e5807014 	str	r7, [r0, #20]
   10d7c:	e28dd00c 	add	sp, sp, #12
   10d80:	e8bd80f0 	pop	{r4, r5, r6, r7, pc}
   10d84:	0001883c 	.word	0x0001883c

00010d88 <TransparentWriteChar32>:
   10d88:	e92d40f0 	push	{r4, r5, r6, r7, lr}
   10d8c:	e2804010 	add	r4, r0, #16
   10d90:	e8941090 	ldm	r4, {r4, r7, ip}
   10d94:	e1a03107 	lsl	r3, r7, #2
   10d98:	e1a04104 	lsl	r4, r4, #2
   10d9c:	e02c349c 	mla	ip, ip, r4, r3
   10da0:	e1a01201 	lsl	r1, r1, #4
   10da4:	e59f5054 	ldr	r5, [pc, #84]	; 10e00 <TransparentWriteChar32+0x78>
   10da8:	e5903000 	ldr	r3, [r0]
   10dac:	e2816010 	add	r6, r1, #16
   10db0:	e0856006 	add	r6, r5, r6
   10db4:	e08cc003 	add	ip, ip, r3
   10db8:	e0855001 	add	r5, r5, r1
   10dbc:	e3a03000 	mov	r3, #0
   10dc0:	e4952004 	ldr	r2, [r5], #4
   10dc4:	e3520000 	cmp	r2, #0
   10dc8:	b590e024 	ldrlt	lr, [r0, #36]	; 0x24
   10dcc:	e2031007 	and	r1, r3, #7
   10dd0:	b78ce101 	strlt	lr, [ip, r1, lsl #2]
   10dd4:	e2833001 	add	r3, r3, #1
   10dd8:	e3510007 	cmp	r1, #7
   10ddc:	008cc004 	addeq	ip, ip, r4
   10de0:	e3530020 	cmp	r3, #32
   10de4:	e1a02082 	lsl	r2, r2, #1
   10de8:	1afffff5 	bne	10dc4 <TransparentWriteChar32+0x3c>
   10dec:	e1560005 	cmp	r6, r5
   10df0:	1afffff1 	bne	10dbc <TransparentWriteChar32+0x34>
   10df4:	e2877008 	add	r7, r7, #8
   10df8:	e5807014 	str	r7, [r0, #20]
   10dfc:	e8bd80f0 	pop	{r4, r5, r6, r7, pc}
   10e00:	0001883c 	.word	0x0001883c

00010e04 <PutImage32>:
   10e04:	e92d40f0 	push	{r4, r5, r6, r7, lr}
   10e08:	e5905010 	ldr	r5, [r0, #16]
   10e0c:	e590c018 	ldr	ip, [r0, #24]
   10e10:	e1a05105 	lsl	r5, r5, #2
   10e14:	e00c059c 	mul	ip, ip, r5
   10e18:	e5904014 	ldr	r4, [r0, #20]
   10e1c:	e590e000 	ldr	lr, [r0]
   10e20:	e08cc104 	add	ip, ip, r4, lsl #2
   10e24:	e3520000 	cmp	r2, #0
   10e28:	e08ce00e 	add	lr, ip, lr
   10e2c:	e5dd7014 	ldrb	r7, [sp, #20]
   10e30:	0a000016 	beq	10e90 <PutImage32+0x8c>
   10e34:	e3510000 	cmp	r1, #0
   10e38:	08bd80f0 	popeq	{r4, r5, r6, r7, pc}
   10e3c:	e3a04000 	mov	r4, #0
   10e40:	e1a06101 	lsl	r6, r1, #2
   10e44:	e3a00000 	mov	r0, #0
   10e48:	e793c100 	ldr	ip, [r3, r0, lsl #2]
   10e4c:	e78ec100 	str	ip, [lr, r0, lsl #2]
   10e50:	e2800001 	add	r0, r0, #1
   10e54:	e1510000 	cmp	r1, r0
   10e58:	1afffffa 	bne	10e48 <PutImage32+0x44>
   10e5c:	e3570000 	cmp	r7, #0
   10e60:	e2844001 	add	r4, r4, #1
   10e64:	0a000004 	beq	10e7c <PutImage32+0x78>
   10e68:	e1520004 	cmp	r2, r4
   10e6c:	e04ee005 	sub	lr, lr, r5
   10e70:	e0833006 	add	r3, r3, r6
   10e74:	1afffff2 	bne	10e44 <PutImage32+0x40>
   10e78:	e8bd80f0 	pop	{r4, r5, r6, r7, pc}
   10e7c:	e1520004 	cmp	r2, r4
   10e80:	e08ee005 	add	lr, lr, r5
   10e84:	e0833006 	add	r3, r3, r6
   10e88:	1affffed 	bne	10e44 <PutImage32+0x40>
   10e8c:	e8bd80f0 	pop	{r4, r5, r6, r7, pc}
   10e90:	e8bd80f0 	pop	{r4, r5, r6, r7, pc}

00010e94 <mailbox_tag_message.constprop.4>:
   10e94:	e92d000e 	push	{r1, r2, r3}
   10e98:	e3a00020 	mov	r0, #32
   10e9c:	e3a02000 	mov	r2, #0
   10ea0:	e92d4870 	push	{r4, r5, r6, fp, lr}
   10ea4:	e28db010 	add	fp, sp, #16
   10ea8:	e24dd008 	sub	sp, sp, #8
   10eac:	e24dd090 	sub	sp, sp, #144	; 0x90
   10eb0:	e59b1018 	ldr	r1, [fp, #24]
   10eb4:	e59b6008 	ldr	r6, [fp, #8]
   10eb8:	e59b500c 	ldr	r5, [fp, #12]
   10ebc:	e59be010 	ldr	lr, [fp, #16]
   10ec0:	e59bc014 	ldr	ip, [fp, #20]
   10ec4:	e28d400f 	add	r4, sp, #15
   10ec8:	e3c4400f 	bic	r4, r4, #15
   10ecc:	e28b3008 	add	r3, fp, #8
   10ed0:	e5840000 	str	r0, [r4]
   10ed4:	e5841018 	str	r1, [r4, #24]
   10ed8:	e584201c 	str	r2, [r4, #28]
   10edc:	e5842004 	str	r2, [r4, #4]
   10ee0:	e1a00004 	mov	r0, r4
   10ee4:	e5846008 	str	r6, [r4, #8]
   10ee8:	e584500c 	str	r5, [r4, #12]
   10eec:	e584e010 	str	lr, [r4, #16]
   10ef0:	e584c014 	str	ip, [r4, #20]
   10ef4:	e50b3014 	str	r3, [fp, #-20]	; 0xffffffec
   10ef8:	ebffdd4f 	bl	843c <ARMaddrToGPUaddr>
   10efc:	e59f305c 	ldr	r3, [pc, #92]	; 10f60 <mailbox_tag_message.constprop.4+0xcc>
   10f00:	e3c0100f 	bic	r1, r0, #15
   10f04:	e5932000 	ldr	r2, [r3]
   10f08:	e3811008 	orr	r1, r1, #8
   10f0c:	e2822b2e 	add	r2, r2, #47104	; 0xb800
   10f10:	e2822080 	add	r2, r2, #128	; 0x80
   10f14:	e5923038 	ldr	r3, [r2, #56]	; 0x38
   10f18:	e3530000 	cmp	r3, #0
   10f1c:	bafffffc 	blt	10f14 <mailbox_tag_message.constprop.4+0x80>
   10f20:	e5821020 	str	r1, [r2, #32]
   10f24:	e5923018 	ldr	r3, [r2, #24]
   10f28:	e3130101 	tst	r3, #1073741824	; 0x40000000
   10f2c:	1afffffc 	bne	10f24 <mailbox_tag_message.constprop.4+0x90>
   10f30:	e5923000 	ldr	r3, [r2]
   10f34:	e203300f 	and	r3, r3, #15
   10f38:	e3530008 	cmp	r3, #8
   10f3c:	1afffff8 	bne	10f24 <mailbox_tag_message.constprop.4+0x90>
   10f40:	e5940004 	ldr	r0, [r4, #4]
   10f44:	e2400102 	sub	r0, r0, #-2147483648	; 0x80000000
   10f48:	e16f0f10 	clz	r0, r0
   10f4c:	e1a002a0 	lsr	r0, r0, #5
   10f50:	e24bd010 	sub	sp, fp, #16
   10f54:	e8bd4870 	pop	{r4, r5, r6, fp, lr}
   10f58:	e28dd00c 	add	sp, sp, #12
   10f5c:	e12fff1e 	bx	lr
   10f60:	00017bf8 	.word	0x00017bf8

00010f64 <mailbox_tag_message.constprop.5>:
   10f64:	e92d000e 	push	{r1, r2, r3}
   10f68:	e3a01020 	mov	r1, #32
   10f6c:	e3a02000 	mov	r2, #0
   10f70:	e92d48f0 	push	{r4, r5, r6, r7, fp, lr}
   10f74:	e28db014 	add	fp, sp, #20
   10f78:	e24dd00c 	sub	sp, sp, #12
   10f7c:	e24dd090 	sub	sp, sp, #144	; 0x90
   10f80:	e28d400f 	add	r4, sp, #15
   10f84:	e3c4400f 	bic	r4, r4, #15
   10f88:	e59b7008 	ldr	r7, [fp, #8]
   10f8c:	e59b600c 	ldr	r6, [fp, #12]
   10f90:	e59be010 	ldr	lr, [fp, #16]
   10f94:	e59bc014 	ldr	ip, [fp, #20]
   10f98:	e5841000 	str	r1, [r4]
   10f9c:	e59b1018 	ldr	r1, [fp, #24]
   10fa0:	e28b3008 	add	r3, fp, #8
   10fa4:	e5841018 	str	r1, [r4, #24]
   10fa8:	e1a05000 	mov	r5, r0
   10fac:	e5847008 	str	r7, [r4, #8]
   10fb0:	e1a00004 	mov	r0, r4
   10fb4:	e584600c 	str	r6, [r4, #12]
   10fb8:	e584e010 	str	lr, [r4, #16]
   10fbc:	e584c014 	str	ip, [r4, #20]
   10fc0:	e584201c 	str	r2, [r4, #28]
   10fc4:	e5842004 	str	r2, [r4, #4]
   10fc8:	e50b301c 	str	r3, [fp, #-28]	; 0xffffffe4
   10fcc:	ebffdd1a 	bl	843c <ARMaddrToGPUaddr>
   10fd0:	e59f3088 	ldr	r3, [pc, #136]	; 11060 <mailbox_tag_message.constprop.5+0xfc>
   10fd4:	e3c0100f 	bic	r1, r0, #15
   10fd8:	e5933000 	ldr	r3, [r3]
   10fdc:	e3811008 	orr	r1, r1, #8
   10fe0:	e2833b2e 	add	r3, r3, #47104	; 0xb800
   10fe4:	e2833080 	add	r3, r3, #128	; 0x80
   10fe8:	e5932038 	ldr	r2, [r3, #56]	; 0x38
   10fec:	e3520000 	cmp	r2, #0
   10ff0:	bafffffc 	blt	10fe8 <mailbox_tag_message.constprop.5+0x84>
   10ff4:	e5831020 	str	r1, [r3, #32]
   10ff8:	e5930018 	ldr	r0, [r3, #24]
   10ffc:	e2100101 	ands	r0, r0, #1073741824	; 0x40000000
   11000:	1afffffc 	bne	10ff8 <mailbox_tag_message.constprop.5+0x94>
   11004:	e5932000 	ldr	r2, [r3]
   11008:	e202200f 	and	r2, r2, #15
   1100c:	e3520008 	cmp	r2, #8
   11010:	1afffff8 	bne	10ff8 <mailbox_tag_message.constprop.5+0x94>
   11014:	e5943004 	ldr	r3, [r4, #4]
   11018:	e3530102 	cmp	r3, #-2147483648	; 0x80000000
   1101c:	0a000003 	beq	11030 <mailbox_tag_message.constprop.5+0xcc>
   11020:	e24bd014 	sub	sp, fp, #20
   11024:	e8bd48f0 	pop	{r4, r5, r6, r7, fp, lr}
   11028:	e28dd00c 	add	sp, sp, #12
   1102c:	e12fff1e 	bx	lr
   11030:	e3550000 	cmp	r5, #0
   11034:	0a000004 	beq	1104c <mailbox_tag_message.constprop.5+0xe8>
   11038:	e284000c 	add	r0, r4, #12
   1103c:	e890000f 	ldm	r0, {r0, r1, r2, r3}
   11040:	e985000f 	stmib	r5, {r0, r1, r2, r3}
   11044:	e594c008 	ldr	ip, [r4, #8]
   11048:	e585c000 	str	ip, [r5]
   1104c:	e3a00001 	mov	r0, #1
   11050:	e24bd014 	sub	sp, fp, #20
   11054:	e8bd48f0 	pop	{r4, r5, r6, r7, fp, lr}
   11058:	e28dd00c 	add	sp, sp, #12
   1105c:	e12fff1e 	bx	lr
   11060:	00017bf8 	.word	0x00017bf8

00011064 <mailbox_tag_message.constprop.6>:
   11064:	e92d000e 	push	{r1, r2, r3}
   11068:	e3a02000 	mov	r2, #0
   1106c:	e92d48f0 	push	{r4, r5, r6, r7, fp, lr}
   11070:	e3a0701c 	mov	r7, #28
   11074:	e28db014 	add	fp, sp, #20
   11078:	e24dd00c 	sub	sp, sp, #12
   1107c:	e24dd090 	sub	sp, sp, #144	; 0x90
   11080:	e59b1014 	ldr	r1, [fp, #20]
   11084:	e59b6008 	ldr	r6, [fp, #8]
   11088:	e59be00c 	ldr	lr, [fp, #12]
   1108c:	e59bc010 	ldr	ip, [fp, #16]
   11090:	e28d400f 	add	r4, sp, #15
   11094:	e3c4400f 	bic	r4, r4, #15
   11098:	e28b3008 	add	r3, fp, #8
   1109c:	e5841014 	str	r1, [r4, #20]
   110a0:	e1a05000 	mov	r5, r0
   110a4:	e5847000 	str	r7, [r4]
   110a8:	e1a00004 	mov	r0, r4
   110ac:	e5846008 	str	r6, [r4, #8]
   110b0:	e584e00c 	str	lr, [r4, #12]
   110b4:	e584c010 	str	ip, [r4, #16]
   110b8:	e5842018 	str	r2, [r4, #24]
   110bc:	e5842004 	str	r2, [r4, #4]
   110c0:	e50b301c 	str	r3, [fp, #-28]	; 0xffffffe4
   110c4:	ebffdcdc 	bl	843c <ARMaddrToGPUaddr>
   110c8:	e59f307c 	ldr	r3, [pc, #124]	; 1114c <mailbox_tag_message.constprop.6+0xe8>
   110cc:	e3c0100f 	bic	r1, r0, #15
   110d0:	e5933000 	ldr	r3, [r3]
   110d4:	e3811008 	orr	r1, r1, #8
   110d8:	e2833b2e 	add	r3, r3, #47104	; 0xb800
   110dc:	e2833080 	add	r3, r3, #128	; 0x80
   110e0:	e5932038 	ldr	r2, [r3, #56]	; 0x38
   110e4:	e3520000 	cmp	r2, #0
   110e8:	bafffffc 	blt	110e0 <mailbox_tag_message.constprop.6+0x7c>
   110ec:	e5831020 	str	r1, [r3, #32]
   110f0:	e5930018 	ldr	r0, [r3, #24]
   110f4:	e2100101 	ands	r0, r0, #1073741824	; 0x40000000
   110f8:	1afffffc 	bne	110f0 <mailbox_tag_message.constprop.6+0x8c>
   110fc:	e5932000 	ldr	r2, [r3]
   11100:	e202200f 	and	r2, r2, #15
   11104:	e3520008 	cmp	r2, #8
   11108:	1afffff8 	bne	110f0 <mailbox_tag_message.constprop.6+0x8c>
   1110c:	e5943004 	ldr	r3, [r4, #4]
   11110:	e3530102 	cmp	r3, #-2147483648	; 0x80000000
   11114:	0a000003 	beq	11128 <mailbox_tag_message.constprop.6+0xc4>
   11118:	e24bd014 	sub	sp, fp, #20
   1111c:	e8bd48f0 	pop	{r4, r5, r6, r7, fp, lr}
   11120:	e28dd00c 	add	sp, sp, #12
   11124:	e12fff1e 	bx	lr
   11128:	e3550000 	cmp	r5, #0
   1112c:	12840008 	addne	r0, r4, #8
   11130:	1890000f 	ldmne	r0, {r0, r1, r2, r3}
   11134:	1885000f 	stmne	r5, {r0, r1, r2, r3}
   11138:	e3a00001 	mov	r0, #1
   1113c:	e24bd014 	sub	sp, fp, #20
   11140:	e8bd48f0 	pop	{r4, r5, r6, r7, fp, lr}
   11144:	e28dd00c 	add	sp, sp, #12
   11148:	e12fff1e 	bx	lr
   1114c:	00017bf8 	.word	0x00017bf8

00011150 <mailbox_tag_message.constprop.7>:
   11150:	e92d000e 	push	{r1, r2, r3}
   11154:	e92d48f0 	push	{r4, r5, r6, r7, fp, lr}
   11158:	e28db014 	add	fp, sp, #20
   1115c:	e24dd00c 	sub	sp, sp, #12
   11160:	e24dd090 	sub	sp, sp, #144	; 0x90
   11164:	e28d700f 	add	r7, sp, #15
   11168:	e3c7700f 	bic	r7, r7, #15
   1116c:	e3a03000 	mov	r3, #0
   11170:	e1a06007 	mov	r6, r7
   11174:	e3a01068 	mov	r1, #104	; 0x68
   11178:	e5a63004 	str	r3, [r6, #4]!
   1117c:	e1a05000 	mov	r5, r0
   11180:	e1a04006 	mov	r4, r6
   11184:	e28b2008 	add	r2, fp, #8
   11188:	e5871000 	str	r1, [r7]
   1118c:	e5873064 	str	r3, [r7, #100]	; 0x64
   11190:	e2871060 	add	r1, r7, #96	; 0x60
   11194:	e50b201c 	str	r2, [fp, #-28]	; 0xffffffe4
   11198:	e28b3004 	add	r3, fp, #4
   1119c:	e5b32004 	ldr	r2, [r3, #4]!
   111a0:	e5a42004 	str	r2, [r4, #4]!
   111a4:	e1540001 	cmp	r4, r1
   111a8:	1afffffb 	bne	1119c <mailbox_tag_message.constprop.7+0x4c>
   111ac:	e1a00007 	mov	r0, r7
   111b0:	ebffdca1 	bl	843c <ARMaddrToGPUaddr>
   111b4:	e59f3088 	ldr	r3, [pc, #136]	; 11244 <mailbox_tag_message.constprop.7+0xf4>
   111b8:	e3c0100f 	bic	r1, r0, #15
   111bc:	e5933000 	ldr	r3, [r3]
   111c0:	e3811008 	orr	r1, r1, #8
   111c4:	e2833b2e 	add	r3, r3, #47104	; 0xb800
   111c8:	e2833080 	add	r3, r3, #128	; 0x80
   111cc:	e5932038 	ldr	r2, [r3, #56]	; 0x38
   111d0:	e3520000 	cmp	r2, #0
   111d4:	bafffffc 	blt	111cc <mailbox_tag_message.constprop.7+0x7c>
   111d8:	e5831020 	str	r1, [r3, #32]
   111dc:	e5930018 	ldr	r0, [r3, #24]
   111e0:	e2100101 	ands	r0, r0, #1073741824	; 0x40000000
   111e4:	1afffffc 	bne	111dc <mailbox_tag_message.constprop.7+0x8c>
   111e8:	e5932000 	ldr	r2, [r3]
   111ec:	e202200f 	and	r2, r2, #15
   111f0:	e3520008 	cmp	r2, #8
   111f4:	1afffff8 	bne	111dc <mailbox_tag_message.constprop.7+0x8c>
   111f8:	e5973004 	ldr	r3, [r7, #4]
   111fc:	e3530102 	cmp	r3, #-2147483648	; 0x80000000
   11200:	0a000003 	beq	11214 <mailbox_tag_message.constprop.7+0xc4>
   11204:	e24bd014 	sub	sp, fp, #20
   11208:	e8bd48f0 	pop	{r4, r5, r6, r7, fp, lr}
   1120c:	e28dd00c 	add	sp, sp, #12
   11210:	e12fff1e 	bx	lr
   11214:	e3550000 	cmp	r5, #0
   11218:	12455004 	subne	r5, r5, #4
   1121c:	0a000003 	beq	11230 <mailbox_tag_message.constprop.7+0xe0>
   11220:	e5b63004 	ldr	r3, [r6, #4]!
   11224:	e1560004 	cmp	r6, r4
   11228:	e5a53004 	str	r3, [r5, #4]!
   1122c:	1afffffb 	bne	11220 <mailbox_tag_message.constprop.7+0xd0>
   11230:	e3a00001 	mov	r0, #1
   11234:	e24bd014 	sub	sp, fp, #20
   11238:	e8bd48f0 	pop	{r4, r5, r6, r7, fp, lr}
   1123c:	e28dd00c 	add	sp, sp, #12
   11240:	e12fff1e 	bx	lr
   11244:	00017bf8 	.word	0x00017bf8

00011248 <RPi_CpuIdString>:
   11248:	e59f3044 	ldr	r3, [pc, #68]	; 11294 <RPi_CpuIdString+0x4c>
   1124c:	e59f2044 	ldr	r2, [pc, #68]	; 11298 <RPi_CpuIdString+0x50>
   11250:	e1d330b0 	ldrh	r3, [r3]
   11254:	e1a03223 	lsr	r3, r3, #4
   11258:	e1530002 	cmp	r3, r2
   1125c:	0a000008 	beq	11284 <RPi_CpuIdString+0x3c>
   11260:	e28220fc 	add	r2, r2, #252	; 0xfc
   11264:	e1530002 	cmp	r3, r2
   11268:	0a000007 	beq	1128c <RPi_CpuIdString+0x44>
   1126c:	e59f1028 	ldr	r1, [pc, #40]	; 1129c <RPi_CpuIdString+0x54>
   11270:	e59f2028 	ldr	r2, [pc, #40]	; 112a0 <RPi_CpuIdString+0x58>
   11274:	e1530001 	cmp	r3, r1
   11278:	e59f0024 	ldr	r0, [pc, #36]	; 112a4 <RPi_CpuIdString+0x5c>
   1127c:	11a00002 	movne	r0, r2
   11280:	e12fff1e 	bx	lr
   11284:	e59f001c 	ldr	r0, [pc, #28]	; 112a8 <RPi_CpuIdString+0x60>
   11288:	e12fff1e 	bx	lr
   1128c:	e59f0018 	ldr	r0, [pc, #24]	; 112ac <RPi_CpuIdString+0x64>
   11290:	e12fff1e 	bx	lr
   11294:	00017c08 	.word	0x00017c08
   11298:	00000c07 	.word	0x00000c07
   1129c:	00000b76 	.word	0x00000b76
   112a0:	00019868 	.word	0x00019868
   112a4:	00019840 	.word	0x00019840
   112a8:	00019850 	.word	0x00019850
   112ac:	0001985c 	.word	0x0001985c

000112b0 <gpio_setup>:
   112b0:	e3510007 	cmp	r1, #7
   112b4:	93500036 	cmpls	r0, #54	; 0x36
   112b8:	8a000010 	bhi	11300 <gpio_setup+0x50>
   112bc:	e52de004 	push	{lr}		; (str lr, [sp, #-4]!)
   112c0:	e3a0e007 	mov	lr, #7
   112c4:	e59f303c 	ldr	r3, [pc, #60]	; 11308 <gpio_setup+0x58>
   112c8:	e59f203c 	ldr	r2, [pc, #60]	; 1130c <gpio_setup+0x5c>
   112cc:	e083c093 	umull	ip, r3, r3, r0
   112d0:	e592c000 	ldr	ip, [r2]
   112d4:	e1a031a3 	lsr	r3, r3, #3
   112d8:	e0832103 	add	r2, r3, r3, lsl #2
   112dc:	e28cc602 	add	ip, ip, #2097152	; 0x200000
   112e0:	e0400082 	sub	r0, r0, r2, lsl #1
   112e4:	e79c2103 	ldr	r2, [ip, r3, lsl #2]
   112e8:	e0800080 	add	r0, r0, r0, lsl #1
   112ec:	e1c2201e 	bic	r2, r2, lr, lsl r0
   112f0:	e1820011 	orr	r0, r2, r1, lsl r0
   112f4:	e78c0103 	str	r0, [ip, r3, lsl #2]
   112f8:	e3a00001 	mov	r0, #1
   112fc:	e49df004 	pop	{pc}		; (ldr pc, [sp], #4)
   11300:	e3a00000 	mov	r0, #0
   11304:	e12fff1e 	bx	lr
   11308:	cccccccd 	.word	0xcccccccd
   1130c:	00017bf8 	.word	0x00017bf8

00011310 <gpio_output>:
   11310:	e3500035 	cmp	r0, #53	; 0x35
   11314:	8a00000d 	bhi	11350 <gpio_output+0x40>
   11318:	e3a02001 	mov	r2, #1
   1131c:	e200301f 	and	r3, r0, #31
   11320:	e1a02312 	lsl	r2, r2, r3
   11324:	e59f302c 	ldr	r3, [pc, #44]	; 11358 <gpio_output+0x48>
   11328:	e3510000 	cmp	r1, #0
   1132c:	e5933000 	ldr	r3, [r3]
   11330:	e1a002a0 	lsr	r0, r0, #5
   11334:	12800007 	addne	r0, r0, #7
   11338:	0280000a 	addeq	r0, r0, #10
   1133c:	e2833602 	add	r3, r3, #2097152	; 0x200000
   11340:	e0830100 	add	r0, r3, r0, lsl #2
   11344:	e5802000 	str	r2, [r0]
   11348:	e3a00001 	mov	r0, #1
   1134c:	e12fff1e 	bx	lr
   11350:	e3a00000 	mov	r0, #0
   11354:	e12fff1e 	bx	lr
   11358:	00017bf8 	.word	0x00017bf8

0001135c <gpio_input>:
   1135c:	e3500035 	cmp	r0, #53	; 0x35
   11360:	8a00000c 	bhi	11398 <gpio_input+0x3c>
   11364:	e3a01001 	mov	r1, #1
   11368:	e59f3030 	ldr	r3, [pc, #48]	; 113a0 <gpio_input+0x44>
   1136c:	e1a022a0 	lsr	r2, r0, #5
   11370:	e5933000 	ldr	r3, [r3]
   11374:	e282200c 	add	r2, r2, #12
   11378:	e2833602 	add	r3, r3, #2097152	; 0x200000
   1137c:	e0833102 	add	r3, r3, r2, lsl #2
   11380:	e5933004 	ldr	r3, [r3, #4]
   11384:	e200001f 	and	r0, r0, #31
   11388:	e0133011 	ands	r3, r3, r1, lsl r0
   1138c:	11a00001 	movne	r0, r1
   11390:	03a00000 	moveq	r0, #0
   11394:	e12fff1e 	bx	lr
   11398:	e3a00000 	mov	r0, #0
   1139c:	e12fff1e 	bx	lr
   113a0:	00017bf8 	.word	0x00017bf8

000113a4 <gpio_checkEvent>:
   113a4:	e3500035 	cmp	r0, #53	; 0x35
   113a8:	8a00000b 	bhi	113dc <gpio_checkEvent+0x38>
   113ac:	e3a01001 	mov	r1, #1
   113b0:	e59f302c 	ldr	r3, [pc, #44]	; 113e4 <gpio_checkEvent+0x40>
   113b4:	e1a022a0 	lsr	r2, r0, #5
   113b8:	e5933000 	ldr	r3, [r3]
   113bc:	e2822010 	add	r2, r2, #16
   113c0:	e2833602 	add	r3, r3, #2097152	; 0x200000
   113c4:	e7933102 	ldr	r3, [r3, r2, lsl #2]
   113c8:	e200001f 	and	r0, r0, #31
   113cc:	e0133011 	ands	r3, r3, r1, lsl r0
   113d0:	11a00001 	movne	r0, r1
   113d4:	03a00000 	moveq	r0, #0
   113d8:	e12fff1e 	bx	lr
   113dc:	e3a00000 	mov	r0, #0
   113e0:	e12fff1e 	bx	lr
   113e4:	00017bf8 	.word	0x00017bf8

000113e8 <gpio_clearEvent>:
   113e8:	e3500035 	cmp	r0, #53	; 0x35
   113ec:	8a00000a 	bhi	1141c <gpio_clearEvent+0x34>
   113f0:	e3a02001 	mov	r2, #1
   113f4:	e59f3028 	ldr	r3, [pc, #40]	; 11424 <gpio_clearEvent+0x3c>
   113f8:	e200c01f 	and	ip, r0, #31
   113fc:	e5931000 	ldr	r1, [r3]
   11400:	e1a032a0 	lsr	r3, r0, #5
   11404:	e2811602 	add	r1, r1, #2097152	; 0x200000
   11408:	e1a00c12 	lsl	r0, r2, ip
   1140c:	e2833010 	add	r3, r3, #16
   11410:	e7810103 	str	r0, [r1, r3, lsl #2]
   11414:	e1a00002 	mov	r0, r2
   11418:	e12fff1e 	bx	lr
   1141c:	e3a00000 	mov	r0, #0
   11420:	e12fff1e 	bx	lr
   11424:	00017bf8 	.word	0x00017bf8

00011428 <gpio_edgeDetect>:
   11428:	e3500035 	cmp	r0, #53	; 0x35
   1142c:	8a00001a 	bhi	1149c <gpio_edgeDetect+0x74>
   11430:	e3a0c001 	mov	ip, #1
   11434:	e200301f 	and	r3, r0, #31
   11438:	e3510000 	cmp	r1, #0
   1143c:	e52de004 	push	{lr}		; (str lr, [sp, #-4]!)
   11440:	e1a0e31c 	lsl	lr, ip, r3
   11444:	0a00000a 	beq	11474 <gpio_edgeDetect+0x4c>
   11448:	e3520000 	cmp	r2, #0
   1144c:	0a000014 	beq	114a4 <gpio_edgeDetect+0x7c>
   11450:	e59f1090 	ldr	r1, [pc, #144]	; 114e8 <gpio_edgeDetect+0xc0>
   11454:	e1a032a0 	lsr	r3, r0, #5
   11458:	e5910000 	ldr	r0, [r1]
   1145c:	e283301e 	add	r3, r3, #30
   11460:	e2800602 	add	r0, r0, #2097152	; 0x200000
   11464:	e0803103 	add	r3, r0, r3, lsl #2
   11468:	e583e004 	str	lr, [r3, #4]
   1146c:	e1a00002 	mov	r0, r2
   11470:	e49df004 	pop	{pc}		; (ldr pc, [sp], #4)
   11474:	e3520000 	cmp	r2, #0
   11478:	1a000012 	bne	114c8 <gpio_edgeDetect+0xa0>
   1147c:	e59f2064 	ldr	r2, [pc, #100]	; 114e8 <gpio_edgeDetect+0xc0>
   11480:	e1a032a0 	lsr	r3, r0, #5
   11484:	e5922000 	ldr	r2, [r2]
   11488:	e2833016 	add	r3, r3, #22
   1148c:	e2822602 	add	r2, r2, #2097152	; 0x200000
   11490:	e1a0000c 	mov	r0, ip
   11494:	e782e103 	str	lr, [r2, r3, lsl #2]
   11498:	e49df004 	pop	{pc}		; (ldr pc, [sp], #4)
   1149c:	e3a00000 	mov	r0, #0
   114a0:	e12fff1e 	bx	lr
   114a4:	e59f203c 	ldr	r2, [pc, #60]	; 114e8 <gpio_edgeDetect+0xc0>
   114a8:	e1a032a0 	lsr	r3, r0, #5
   114ac:	e5920000 	ldr	r0, [r2]
   114b0:	e2833012 	add	r3, r3, #18
   114b4:	e2800602 	add	r0, r0, #2097152	; 0x200000
   114b8:	e0803103 	add	r3, r0, r3, lsl #2
   114bc:	e583e004 	str	lr, [r3, #4]
   114c0:	e1a00001 	mov	r0, r1
   114c4:	e49df004 	pop	{pc}		; (ldr pc, [sp], #4)
   114c8:	e59f1018 	ldr	r1, [pc, #24]	; 114e8 <gpio_edgeDetect+0xc0>
   114cc:	e1a032a0 	lsr	r3, r0, #5
   114d0:	e5911000 	ldr	r1, [r1]
   114d4:	e2833022 	add	r3, r3, #34	; 0x22
   114d8:	e2811602 	add	r1, r1, #2097152	; 0x200000
   114dc:	e1a00002 	mov	r0, r2
   114e0:	e781e103 	str	lr, [r1, r3, lsl #2]
   114e4:	e49df004 	pop	{pc}		; (ldr pc, [sp], #4)
   114e8:	00017bf8 	.word	0x00017bf8

000114ec <gpio_fixResistor>:
   114ec:	e3500036 	cmp	r0, #54	; 0x36
   114f0:	93510002 	cmpls	r1, #2
   114f4:	8a000044 	bhi	1160c <gpio_fixResistor+0x120>
   114f8:	e92d4ff0 	push	{r4, r5, r6, r7, r8, r9, sl, fp, lr}
   114fc:	e1a0a000 	mov	sl, r0
   11500:	e59f310c 	ldr	r3, [pc, #268]	; 11614 <gpio_fixResistor+0x128>
   11504:	e593c000 	ldr	ip, [r3]
   11508:	e28cb602 	add	fp, ip, #2097152	; 0x200000
   1150c:	e58b1094 	str	r1, [fp, #148]	; 0x94
   11510:	e28cca03 	add	ip, ip, #12288	; 0x3000
   11514:	e3a03000 	mov	r3, #0
   11518:	e3a01000 	mov	r1, #0
   1151c:	e59c2008 	ldr	r2, [ip, #8]
   11520:	e59ce004 	ldr	lr, [ip, #4]
   11524:	e59c0008 	ldr	r0, [ip, #8]
   11528:	e1530001 	cmp	r3, r1
   1152c:	01520000 	cmpeq	r2, r0
   11530:	1afffff7 	bne	11514 <gpio_fixResistor+0x28>
   11534:	e3a00000 	mov	r0, #0
   11538:	e180000e 	orr	r0, r0, lr
   1153c:	e2908002 	adds	r8, r0, #2
   11540:	e2a29000 	adc	r9, r2, #0
   11544:	e3a03000 	mov	r3, #0
   11548:	e3a01000 	mov	r1, #0
   1154c:	e59c2008 	ldr	r2, [ip, #8]
   11550:	e59ce004 	ldr	lr, [ip, #4]
   11554:	e59c0008 	ldr	r0, [ip, #8]
   11558:	e1530001 	cmp	r3, r1
   1155c:	01520000 	cmpeq	r2, r0
   11560:	1afffff7 	bne	11544 <gpio_fixResistor+0x58>
   11564:	e1a07002 	mov	r7, r2
   11568:	e3a06000 	mov	r6, #0
   1156c:	e1590007 	cmp	r9, r7
   11570:	e186200e 	orr	r2, r6, lr
   11574:	01580002 	cmpeq	r8, r2
   11578:	8afffff1 	bhi	11544 <gpio_fixResistor+0x58>
   1157c:	e3a03001 	mov	r3, #1
   11580:	e20a201f 	and	r2, sl, #31
   11584:	e1a0e2aa 	lsr	lr, sl, #5
   11588:	e1a03213 	lsl	r3, r3, r2
   1158c:	e08be10e 	add	lr, fp, lr, lsl #2
   11590:	e58e3098 	str	r3, [lr, #152]	; 0x98
   11594:	e3a03000 	mov	r3, #0
   11598:	e3a01000 	mov	r1, #0
   1159c:	e59c2008 	ldr	r2, [ip, #8]
   115a0:	e59c7004 	ldr	r7, [ip, #4]
   115a4:	e59c0008 	ldr	r0, [ip, #8]
   115a8:	e1530001 	cmp	r3, r1
   115ac:	01520000 	cmpeq	r2, r0
   115b0:	1afffff7 	bne	11594 <gpio_fixResistor+0xa8>
   115b4:	e3a00000 	mov	r0, #0
   115b8:	e1800007 	orr	r0, r0, r7
   115bc:	e2906002 	adds	r6, r0, #2
   115c0:	e2a27000 	adc	r7, r2, #0
   115c4:	e3a03000 	mov	r3, #0
   115c8:	e3a01000 	mov	r1, #0
   115cc:	e59c2008 	ldr	r2, [ip, #8]
   115d0:	e59c8004 	ldr	r8, [ip, #4]
   115d4:	e59c0008 	ldr	r0, [ip, #8]
   115d8:	e1530001 	cmp	r3, r1
   115dc:	01520000 	cmpeq	r2, r0
   115e0:	1afffff7 	bne	115c4 <gpio_fixResistor+0xd8>
   115e4:	e1a05002 	mov	r5, r2
   115e8:	e3a04000 	mov	r4, #0
   115ec:	e1570005 	cmp	r7, r5
   115f0:	e1842008 	orr	r2, r4, r8
   115f4:	01560002 	cmpeq	r6, r2
   115f8:	8afffff1 	bhi	115c4 <gpio_fixResistor+0xd8>
   115fc:	e58b4094 	str	r4, [fp, #148]	; 0x94
   11600:	e3a00001 	mov	r0, #1
   11604:	e58e4098 	str	r4, [lr, #152]	; 0x98
   11608:	e8bd8ff0 	pop	{r4, r5, r6, r7, r8, r9, sl, fp, pc}
   1160c:	e3a00000 	mov	r0, #0
   11610:	e12fff1e 	bx	lr
   11614:	00017bf8 	.word	0x00017bf8

00011618 <timer_getTickCount>:
   11618:	e59f3044 	ldr	r3, [pc, #68]	; 11664 <timer_getTickCount+0x4c>
   1161c:	e92d0030 	push	{r4, r5}
   11620:	e5931000 	ldr	r1, [r3]
   11624:	e2811a03 	add	r1, r1, #12288	; 0x3000
   11628:	e3a03000 	mov	r3, #0
   1162c:	e3a05000 	mov	r5, #0
   11630:	e5912008 	ldr	r2, [r1, #8]
   11634:	e5910004 	ldr	r0, [r1, #4]
   11638:	e5914008 	ldr	r4, [r1, #8]
   1163c:	e1530005 	cmp	r3, r5
   11640:	01520004 	cmpeq	r2, r4
   11644:	1afffff7 	bne	11628 <timer_getTickCount+0x10>
   11648:	e3a04000 	mov	r4, #0
   1164c:	e1a05002 	mov	r5, r2
   11650:	e1844000 	orr	r4, r4, r0
   11654:	e1a00004 	mov	r0, r4
   11658:	e1a01005 	mov	r1, r5
   1165c:	e8bd0030 	pop	{r4, r5}
   11660:	e12fff1e 	bx	lr
   11664:	00017bf8 	.word	0x00017bf8

00011668 <timer_wait>:
   11668:	e59f3074 	ldr	r3, [pc, #116]	; 116e4 <timer_wait+0x7c>
   1166c:	e92d40f0 	push	{r4, r5, r6, r7, lr}
   11670:	e593c000 	ldr	ip, [r3]
   11674:	e28cca03 	add	ip, ip, #12288	; 0x3000
   11678:	e3a03000 	mov	r3, #0
   1167c:	e3a07000 	mov	r7, #0
   11680:	e59c2008 	ldr	r2, [ip, #8]
   11684:	e59ce004 	ldr	lr, [ip, #4]
   11688:	e59c6008 	ldr	r6, [ip, #8]
   1168c:	e1530007 	cmp	r3, r7
   11690:	01520006 	cmpeq	r2, r6
   11694:	1afffff7 	bne	11678 <timer_wait+0x10>
   11698:	e3a06000 	mov	r6, #0
   1169c:	e186600e 	orr	r6, r6, lr
   116a0:	e0966000 	adds	r6, r6, r0
   116a4:	e0a27001 	adc	r7, r2, r1
   116a8:	e3a03000 	mov	r3, #0
   116ac:	e3a01000 	mov	r1, #0
   116b0:	e59c2008 	ldr	r2, [ip, #8]
   116b4:	e59ce004 	ldr	lr, [ip, #4]
   116b8:	e59c0008 	ldr	r0, [ip, #8]
   116bc:	e1530001 	cmp	r3, r1
   116c0:	01520000 	cmpeq	r2, r0
   116c4:	1afffff7 	bne	116a8 <timer_wait+0x40>
   116c8:	e1a05002 	mov	r5, r2
   116cc:	e3a04000 	mov	r4, #0
   116d0:	e1570005 	cmp	r7, r5
   116d4:	e184200e 	orr	r2, r4, lr
   116d8:	01560002 	cmpeq	r6, r2
   116dc:	8afffff1 	bhi	116a8 <timer_wait+0x40>
   116e0:	e8bd80f0 	pop	{r4, r5, r6, r7, pc}
   116e4:	00017bf8 	.word	0x00017bf8

000116e8 <tick_difference>:
   116e8:	e0520000 	subs	r0, r2, r0
   116ec:	e0c31001 	sbc	r1, r3, r1
   116f0:	e12fff1e 	bx	lr

000116f4 <mailbox_write>:
   116f4:	e3500009 	cmp	r0, #9
   116f8:	8a00000b 	bhi	1172c <mailbox_write+0x38>
   116fc:	e59f3030 	ldr	r3, [pc, #48]	; 11734 <mailbox_write+0x40>
   11700:	e3c1100f 	bic	r1, r1, #15
   11704:	e5932000 	ldr	r2, [r3]
   11708:	e1800001 	orr	r0, r0, r1
   1170c:	e2822b2e 	add	r2, r2, #47104	; 0xb800
   11710:	e2822080 	add	r2, r2, #128	; 0x80
   11714:	e5923038 	ldr	r3, [r2, #56]	; 0x38
   11718:	e3530000 	cmp	r3, #0
   1171c:	bafffffc 	blt	11714 <mailbox_write+0x20>
   11720:	e5820020 	str	r0, [r2, #32]
   11724:	e3a00001 	mov	r0, #1
   11728:	e12fff1e 	bx	lr
   1172c:	e3a00000 	mov	r0, #0
   11730:	e12fff1e 	bx	lr
   11734:	00017bf8 	.word	0x00017bf8

00011738 <mailbox_read>:
   11738:	e3500009 	cmp	r0, #9
   1173c:	9a000001 	bls	11748 <mailbox_read+0x10>
   11740:	e59f0034 	ldr	r0, [pc, #52]	; 1177c <mailbox_read+0x44>
   11744:	e12fff1e 	bx	lr
   11748:	e59f3030 	ldr	r3, [pc, #48]	; 11780 <mailbox_read+0x48>
   1174c:	e5932000 	ldr	r2, [r3]
   11750:	e2822b2e 	add	r2, r2, #47104	; 0xb800
   11754:	e2822080 	add	r2, r2, #128	; 0x80
   11758:	e5923018 	ldr	r3, [r2, #24]
   1175c:	e3130101 	tst	r3, #1073741824	; 0x40000000
   11760:	1afffffc 	bne	11758 <mailbox_read+0x20>
   11764:	e5923000 	ldr	r3, [r2]
   11768:	e203100f 	and	r1, r3, #15
   1176c:	e1510000 	cmp	r1, r0
   11770:	1afffff8 	bne	11758 <mailbox_read+0x20>
   11774:	e3c3000f 	bic	r0, r3, #15
   11778:	e12fff1e 	bx	lr
   1177c:	feeddead 	.word	0xfeeddead
   11780:	00017bf8 	.word	0x00017bf8

00011784 <mailbox_tag_message>:
   11784:	e92d000e 	push	{r1, r2, r3}
   11788:	e92d4870 	push	{r4, r5, r6, fp, lr}
   1178c:	e28db010 	add	fp, sp, #16
   11790:	e24dd008 	sub	sp, sp, #8
   11794:	e3a02000 	mov	r2, #0
   11798:	e5db6004 	ldrb	r6, [fp, #4]
   1179c:	e24dd090 	sub	sp, sp, #144	; 0x90
   117a0:	e1560002 	cmp	r6, r2
   117a4:	e28d500f 	add	r5, sp, #15
   117a8:	e2863003 	add	r3, r6, #3
   117ac:	e3c5500f 	bic	r5, r5, #15
   117b0:	e1a03103 	lsl	r3, r3, #2
   117b4:	e1a04000 	mov	r4, r0
   117b8:	e2861002 	add	r1, r6, #2
   117bc:	e28bc008 	add	ip, fp, #8
   117c0:	12860001 	addne	r0, r6, #1
   117c4:	e5853000 	str	r3, [r5]
   117c8:	e50bc014 	str	ip, [fp, #-20]	; 0xffffffec
   117cc:	e7852101 	str	r2, [r5, r1, lsl #2]
   117d0:	10850100 	addne	r0, r5, r0, lsl #2
   117d4:	e5852004 	str	r2, [r5, #4]
   117d8:	12853004 	addne	r3, r5, #4
   117dc:	128b2004 	addne	r2, fp, #4
   117e0:	0a000003 	beq	117f4 <mailbox_tag_message+0x70>
   117e4:	e5b21004 	ldr	r1, [r2, #4]!
   117e8:	e5a31004 	str	r1, [r3, #4]!
   117ec:	e1530000 	cmp	r3, r0
   117f0:	1afffffb 	bne	117e4 <mailbox_tag_message+0x60>
   117f4:	e1a00005 	mov	r0, r5
   117f8:	ebffdb0f 	bl	843c <ARMaddrToGPUaddr>
   117fc:	e59f309c 	ldr	r3, [pc, #156]	; 118a0 <mailbox_tag_message+0x11c>
   11800:	e3c0100f 	bic	r1, r0, #15
   11804:	e5933000 	ldr	r3, [r3]
   11808:	e3811008 	orr	r1, r1, #8
   1180c:	e2833b2e 	add	r3, r3, #47104	; 0xb800
   11810:	e2833080 	add	r3, r3, #128	; 0x80
   11814:	e5932038 	ldr	r2, [r3, #56]	; 0x38
   11818:	e3520000 	cmp	r2, #0
   1181c:	bafffffc 	blt	11814 <mailbox_tag_message+0x90>
   11820:	e5831020 	str	r1, [r3, #32]
   11824:	e5930018 	ldr	r0, [r3, #24]
   11828:	e2100101 	ands	r0, r0, #1073741824	; 0x40000000
   1182c:	1afffffc 	bne	11824 <mailbox_tag_message+0xa0>
   11830:	e5932000 	ldr	r2, [r3]
   11834:	e202200f 	and	r2, r2, #15
   11838:	e3520008 	cmp	r2, #8
   1183c:	1afffff8 	bne	11824 <mailbox_tag_message+0xa0>
   11840:	e5953004 	ldr	r3, [r5, #4]
   11844:	e3530102 	cmp	r3, #-2147483648	; 0x80000000
   11848:	0a000003 	beq	1185c <mailbox_tag_message+0xd8>
   1184c:	e24bd010 	sub	sp, fp, #16
   11850:	e8bd4870 	pop	{r4, r5, r6, fp, lr}
   11854:	e28dd00c 	add	sp, sp, #12
   11858:	e12fff1e 	bx	lr
   1185c:	e3540000 	cmp	r4, #0
   11860:	0a000009 	beq	1188c <mailbox_tag_message+0x108>
   11864:	e3560000 	cmp	r6, #0
   11868:	0a000007 	beq	1188c <mailbox_tag_message+0x108>
   1186c:	e2862001 	add	r2, r6, #1
   11870:	e0852102 	add	r2, r5, r2, lsl #2
   11874:	e2444004 	sub	r4, r4, #4
   11878:	e2855004 	add	r5, r5, #4
   1187c:	e5b53004 	ldr	r3, [r5, #4]!
   11880:	e1550002 	cmp	r5, r2
   11884:	e5a43004 	str	r3, [r4, #4]!
   11888:	1afffffb 	bne	1187c <mailbox_tag_message+0xf8>
   1188c:	e3a00001 	mov	r0, #1
   11890:	e24bd010 	sub	sp, fp, #16
   11894:	e8bd4870 	pop	{r4, r5, r6, fp, lr}
   11898:	e28dd00c 	add	sp, sp, #12
   1189c:	e12fff1e 	bx	lr
   118a0:	00017bf8 	.word	0x00017bf8

000118a4 <TimerIrqSetup>:
   118a4:	e3a02000 	mov	r2, #0
   118a8:	e92d4070 	push	{r4, r5, r6, lr}
   118ac:	e3a03008 	mov	r3, #8
   118b0:	e3a0e004 	mov	lr, #4
   118b4:	e1a05000 	mov	r5, r0
   118b8:	e59f40c8 	ldr	r4, [pc, #200]	; 11988 <TimerIrqSetup+0xe4>
   118bc:	e24dd028 	sub	sp, sp, #40	; 0x28
   118c0:	e594c000 	ldr	ip, [r4]
   118c4:	e58d2014 	str	r2, [sp, #20]
   118c8:	e58d2018 	str	r2, [sp, #24]
   118cc:	e58d201c 	str	r2, [sp, #28]
   118d0:	e58d2020 	str	r2, [sp, #32]
   118d4:	e58d2024 	str	r2, [sp, #36]	; 0x24
   118d8:	e28ccb2d 	add	ip, ip, #46080	; 0xb400
   118dc:	e59c0008 	ldr	r0, [ip, #8]
   118e0:	e1a06001 	mov	r6, r1
   118e4:	e3c01080 	bic	r1, r0, #128	; 0x80
   118e8:	e58c1008 	str	r1, [ip, #8]
   118ec:	e28d0014 	add	r0, sp, #20
   118f0:	e88d4008 	stm	sp, {r3, lr}
   118f4:	e58d2008 	str	r2, [sp, #8]
   118f8:	e3a01005 	mov	r1, #5
   118fc:	e59f2088 	ldr	r2, [pc, #136]	; 1198c <TimerIrqSetup+0xe8>
   11900:	ebfffd97 	bl	10f64 <mailbox_tag_message.constprop.5>
   11904:	e59dc024 	ldr	ip, [sp, #36]	; 0x24
   11908:	e59f1080 	ldr	r1, [pc, #128]	; 11990 <TimerIrqSetup+0xec>
   1190c:	e59f2080 	ldr	r2, [pc, #128]	; 11994 <TimerIrqSetup+0xf0>
   11910:	e08c1c91 	umull	r1, ip, r1, ip
   11914:	e1a0c22c 	lsr	ip, ip, #4
   11918:	e0810c95 	umull	r0, r1, r5, ip
   1191c:	e3a03000 	mov	r3, #0
   11920:	e58dc024 	str	ip, [sp, #36]	; 0x24
   11924:	eb00183b 	bl	17a18 <__aeabi_uldivmod>
   11928:	e1a05000 	mov	r5, r0
   1192c:	e1a00006 	mov	r0, r6
   11930:	ebffdaba 	bl	8420 <setTimerIrqAddress>
   11934:	e5943000 	ldr	r3, [r4]
   11938:	e2831cb2 	add	r1, r3, #45568	; 0xb200
   1193c:	e5912018 	ldr	r2, [r1, #24]
   11940:	e2833b2d 	add	r3, r3, #46080	; 0xb400
   11944:	e3822001 	orr	r2, r2, #1
   11948:	e5812018 	str	r2, [r1, #24]
   1194c:	e5835000 	str	r5, [r3]
   11950:	e5932008 	ldr	r2, [r3, #8]
   11954:	e3822002 	orr	r2, r2, #2
   11958:	e5832008 	str	r2, [r3, #8]
   1195c:	e5d32008 	ldrb	r2, [r3, #8]
   11960:	e3c2200c 	bic	r2, r2, #12
   11964:	e5c32008 	strb	r2, [r3, #8]
   11968:	e5932008 	ldr	r2, [r3, #8]
   1196c:	e3822020 	orr	r2, r2, #32
   11970:	e5832008 	str	r2, [r3, #8]
   11974:	e5932008 	ldr	r2, [r3, #8]
   11978:	e3822080 	orr	r2, r2, #128	; 0x80
   1197c:	e5832008 	str	r2, [r3, #8]
   11980:	e28dd028 	add	sp, sp, #40	; 0x28
   11984:	e8bd8070 	pop	{r4, r5, r6, pc}
   11988:	00017bf8 	.word	0x00017bf8
   1198c:	00030002 	.word	0x00030002
   11990:	10624dd3 	.word	0x10624dd3
   11994:	000f4240 	.word	0x000f4240

00011998 <set_Activity_LED>:
   11998:	e59f313c 	ldr	r3, [pc, #316]	; 11adc <set_Activity_LED+0x144>
   1199c:	e59f213c 	ldr	r2, [pc, #316]	; 11ae0 <set_Activity_LED+0x148>
   119a0:	e1d330b0 	ldrh	r3, [r3]
   119a4:	e1a03223 	lsr	r3, r3, #4
   119a8:	e1530002 	cmp	r3, r2
   119ac:	0a00002c 	beq	11a64 <set_Activity_LED+0xcc>
   119b0:	e92d4010 	push	{r4, lr}
   119b4:	e28220fc 	add	r2, r2, #252	; 0xfc
   119b8:	e1530002 	cmp	r3, r2
   119bc:	e24dd020 	sub	sp, sp, #32
   119c0:	e1a04000 	mov	r4, r0
   119c4:	0a00001c 	beq	11a3c <set_Activity_LED+0xa4>
   119c8:	e59f2114 	ldr	r2, [pc, #276]	; 11ae4 <set_Activity_LED+0x14c>
   119cc:	e1530002 	cmp	r3, r2
   119d0:	13a00000 	movne	r0, #0
   119d4:	0a000001 	beq	119e0 <set_Activity_LED+0x48>
   119d8:	e28dd020 	add	sp, sp, #32
   119dc:	e8bd8010 	pop	{r4, pc}
   119e0:	e59fc100 	ldr	ip, [pc, #256]	; 11ae8 <set_Activity_LED+0x150>
   119e4:	e5dc2000 	ldrb	r2, [ip]
   119e8:	e3520000 	cmp	r2, #0
   119ec:	0a000026 	beq	11a8c <set_Activity_LED+0xf4>
   119f0:	e59f30f4 	ldr	r3, [pc, #244]	; 11aec <set_Activity_LED+0x154>
   119f4:	e5933000 	ldr	r3, [r3]
   119f8:	e3530035 	cmp	r3, #53	; 0x35
   119fc:	83a00001 	movhi	r0, #1
   11a00:	8afffff4 	bhi	119d8 <set_Activity_LED+0x40>
   11a04:	e3a01001 	mov	r1, #1
   11a08:	e203201f 	and	r2, r3, #31
   11a0c:	e1a01211 	lsl	r1, r1, r2
   11a10:	e59f20d8 	ldr	r2, [pc, #216]	; 11af0 <set_Activity_LED+0x158>
   11a14:	e1a032a3 	lsr	r3, r3, #5
   11a18:	e5922000 	ldr	r2, [r2]
   11a1c:	e3540000 	cmp	r4, #0
   11a20:	12833007 	addne	r3, r3, #7
   11a24:	0283300a 	addeq	r3, r3, #10
   11a28:	e2822602 	add	r2, r2, #2097152	; 0x200000
   11a2c:	e0823103 	add	r3, r2, r3, lsl #2
   11a30:	e5831000 	str	r1, [r3]
   11a34:	e3a00001 	mov	r0, #1
   11a38:	eaffffe6 	b	119d8 <set_Activity_LED+0x40>
   11a3c:	e3a03008 	mov	r3, #8
   11a40:	e3a02082 	mov	r2, #130	; 0x82
   11a44:	e58d3000 	str	r3, [sp]
   11a48:	e98d0014 	stmib	sp, {r2, r4}
   11a4c:	e3a01005 	mov	r1, #5
   11a50:	e59f209c 	ldr	r2, [pc, #156]	; 11af4 <set_Activity_LED+0x15c>
   11a54:	e3a00000 	mov	r0, #0
   11a58:	ebfffd0d 	bl	10e94 <mailbox_tag_message.constprop.4>
   11a5c:	e28dd020 	add	sp, sp, #32
   11a60:	e8bd8010 	pop	{r4, pc}
   11a64:	e3a02902 	mov	r2, #32768	; 0x8000
   11a68:	e59f3080 	ldr	r3, [pc, #128]	; 11af0 <set_Activity_LED+0x158>
   11a6c:	e3500000 	cmp	r0, #0
   11a70:	e5933000 	ldr	r3, [r3]
   11a74:	e3a00001 	mov	r0, #1
   11a78:	e2833602 	add	r3, r3, #2097152	; 0x200000
   11a7c:	12833020 	addne	r3, r3, #32
   11a80:	0283302c 	addeq	r3, r3, #44	; 0x2c
   11a84:	e5832000 	str	r2, [r3]
   11a88:	e12fff1e 	bx	lr
   11a8c:	e3a03004 	mov	r3, #4
   11a90:	e3a0e001 	mov	lr, #1
   11a94:	e58d2004 	str	r2, [sp, #4]
   11a98:	e58d2000 	str	r2, [sp]
   11a9c:	e1a01003 	mov	r1, r3
   11aa0:	e59f2050 	ldr	r2, [pc, #80]	; 11af8 <set_Activity_LED+0x160>
   11aa4:	e28d0010 	add	r0, sp, #16
   11aa8:	e5cce000 	strb	lr, [ip]
   11aac:	ebfffd6c 	bl	11064 <mailbox_tag_message.constprop.6>
   11ab0:	e3500000 	cmp	r0, #0
   11ab4:	0affffcd 	beq	119f0 <set_Activity_LED+0x58>
   11ab8:	e59d301c 	ldr	r3, [sp, #28]
   11abc:	e59f1028 	ldr	r1, [pc, #40]	; 11aec <set_Activity_LED+0x154>
   11ac0:	e2433002 	sub	r3, r3, #2
   11ac4:	e353000d 	cmp	r3, #13
   11ac8:	93a02010 	movls	r2, #16
   11acc:	83a0202f 	movhi	r2, #47	; 0x2f
   11ad0:	e1a03002 	mov	r3, r2
   11ad4:	e5812000 	str	r2, [r1]
   11ad8:	eaffffc9 	b	11a04 <set_Activity_LED+0x6c>
   11adc:	00017c08 	.word	0x00017c08
   11ae0:	00000c07 	.word	0x00000c07
   11ae4:	00000b76 	.word	0x00000b76
   11ae8:	000185d0 	.word	0x000185d0
   11aec:	00017c14 	.word	0x00017c14
   11af0:	00017bf8 	.word	0x00017bf8
   11af4:	00038041 	.word	0x00038041
   11af8:	00010002 	.word	0x00010002

00011afc <ARM_setmaxspeed>:
   11afc:	e92d4070 	push	{r4, r5, r6, lr}
   11b00:	e3a0c000 	mov	ip, #0
   11b04:	e3a04008 	mov	r4, #8
   11b08:	e3a05003 	mov	r5, #3
   11b0c:	e24dd028 	sub	sp, sp, #40	; 0x28
   11b10:	e1a06000 	mov	r6, r0
   11b14:	e58dc008 	str	ip, [sp, #8]
   11b18:	e28d0014 	add	r0, sp, #20
   11b1c:	e88d0030 	stm	sp, {r4, r5}
   11b20:	e1a03004 	mov	r3, r4
   11b24:	e59f2078 	ldr	r2, [pc, #120]	; 11ba4 <ARM_setmaxspeed+0xa8>
   11b28:	e3a01005 	mov	r1, #5
   11b2c:	e58dc014 	str	ip, [sp, #20]
   11b30:	e58dc018 	str	ip, [sp, #24]
   11b34:	e58dc01c 	str	ip, [sp, #28]
   11b38:	e58dc020 	str	ip, [sp, #32]
   11b3c:	e58dc024 	str	ip, [sp, #36]	; 0x24
   11b40:	ebfffd07 	bl	10f64 <mailbox_tag_message.constprop.5>
   11b44:	e3500000 	cmp	r0, #0
   11b48:	1a000003 	bne	11b5c <ARM_setmaxspeed+0x60>
   11b4c:	e3a04000 	mov	r4, #0
   11b50:	e1a00004 	mov	r0, r4
   11b54:	e28dd028 	add	sp, sp, #40	; 0x28
   11b58:	e8bd8070 	pop	{r4, r5, r6, pc}
   11b5c:	e59d2024 	ldr	r2, [sp, #36]	; 0x24
   11b60:	e88d0030 	stm	sp, {r4, r5}
   11b64:	e1a03004 	mov	r3, r4
   11b68:	e58d2008 	str	r2, [sp, #8]
   11b6c:	e28d0014 	add	r0, sp, #20
   11b70:	e59f2030 	ldr	r2, [pc, #48]	; 11ba8 <ARM_setmaxspeed+0xac>
   11b74:	e3a01005 	mov	r1, #5
   11b78:	ebfffcf9 	bl	10f64 <mailbox_tag_message.constprop.5>
   11b7c:	e2504000 	subs	r4, r0, #0
   11b80:	0afffff1 	beq	11b4c <ARM_setmaxspeed+0x50>
   11b84:	e3560000 	cmp	r6, #0
   11b88:	0afffff0 	beq	11b50 <ARM_setmaxspeed+0x54>
   11b8c:	e59d1024 	ldr	r1, [sp, #36]	; 0x24
   11b90:	e59f0014 	ldr	r0, [pc, #20]	; 11bac <ARM_setmaxspeed+0xb0>
   11b94:	e12fff36 	blx	r6
   11b98:	e1a00004 	mov	r0, r4
   11b9c:	e28dd028 	add	sp, sp, #40	; 0x28
   11ba0:	e8bd8070 	pop	{r4, r5, r6, pc}
   11ba4:	00030004 	.word	0x00030004
   11ba8:	00038002 	.word	0x00038002
   11bac:	00019878 	.word	0x00019878

00011bb0 <displaySmartStart>:
   11bb0:	e92d4010 	push	{r4, lr}
   11bb4:	e2504000 	subs	r4, r0, #0
   11bb8:	08bd8010 	popeq	{r4, pc}
   11bbc:	e59f3080 	ldr	r3, [pc, #128]	; 11c44 <displaySmartStart+0x94>
   11bc0:	e59f0080 	ldr	r0, [pc, #128]	; 11c48 <displaySmartStart+0x98>
   11bc4:	e5d31000 	ldrb	r1, [r3]
   11bc8:	e1a02221 	lsr	r2, r1, #4
   11bcc:	e2022001 	and	r2, r2, #1
   11bd0:	e2822001 	add	r2, r2, #1
   11bd4:	e1a032a1 	lsr	r3, r1, #5
   11bd8:	e1a02282 	lsl	r2, r2, #5
   11bdc:	e201100f 	and	r1, r1, #15
   11be0:	e12fff34 	blx	r4
   11be4:	e59f2060 	ldr	r2, [pc, #96]	; 11c4c <displaySmartStart+0x9c>
   11be8:	e59f3060 	ldr	r3, [pc, #96]	; 11c50 <displaySmartStart+0xa0>
   11bec:	e1d220b0 	ldrh	r2, [r2]
   11bf0:	e1a02222 	lsr	r2, r2, #4
   11bf4:	e1520003 	cmp	r2, r3
   11bf8:	0a00000f 	beq	11c3c <displaySmartStart+0x8c>
   11bfc:	e28330fc 	add	r3, r3, #252	; 0xfc
   11c00:	e1520003 	cmp	r2, r3
   11c04:	0a00000a 	beq	11c34 <displaySmartStart+0x84>
   11c08:	e59f0044 	ldr	r0, [pc, #68]	; 11c54 <displaySmartStart+0xa4>
   11c0c:	e59f3044 	ldr	r3, [pc, #68]	; 11c58 <displaySmartStart+0xa8>
   11c10:	e1520000 	cmp	r2, r0
   11c14:	e59f1040 	ldr	r1, [pc, #64]	; 11c5c <displaySmartStart+0xac>
   11c18:	11a01003 	movne	r1, r3
   11c1c:	e59f303c 	ldr	r3, [pc, #60]	; 11c60 <displaySmartStart+0xb0>
   11c20:	e1a0c004 	mov	ip, r4
   11c24:	e8bd4010 	pop	{r4, lr}
   11c28:	e5933000 	ldr	r3, [r3]
   11c2c:	e59f0030 	ldr	r0, [pc, #48]	; 11c64 <displaySmartStart+0xb4>
   11c30:	e12fff1c 	bx	ip
   11c34:	e59f102c 	ldr	r1, [pc, #44]	; 11c68 <displaySmartStart+0xb8>
   11c38:	eafffff7 	b	11c1c <displaySmartStart+0x6c>
   11c3c:	e59f1028 	ldr	r1, [pc, #40]	; 11c6c <displaySmartStart+0xbc>
   11c40:	eafffff5 	b	11c1c <displaySmartStart+0x6c>
   11c44:	00017c0c 	.word	0x00017c0c
   11c48:	00019894 	.word	0x00019894
   11c4c:	00017c08 	.word	0x00017c08
   11c50:	00000c07 	.word	0x00000c07
   11c54:	00000b76 	.word	0x00000b76
   11c58:	00019868 	.word	0x00019868
   11c5c:	00019840 	.word	0x00019840
   11c60:	00017c00 	.word	0x00017c00
   11c64:	000198dc 	.word	0x000198dc
   11c68:	0001985c 	.word	0x0001985c
   11c6c:	00019850 	.word	0x00019850

00011c70 <Embedded_Console_WriteChar>:
   11c70:	e350000a 	cmp	r0, #10
   11c74:	0a000022 	beq	11d04 <Embedded_Console_WriteChar+0x94>
   11c78:	e350000d 	cmp	r0, #13
   11c7c:	0a00001c 	beq	11cf4 <Embedded_Console_WriteChar+0x84>
   11c80:	e3500009 	cmp	r0, #9
   11c84:	0a00000f 	beq	11cc8 <Embedded_Console_WriteChar+0x58>
   11c88:	e92d4010 	push	{r4, lr}
   11c8c:	e59f408c 	ldr	r4, [pc, #140]	; 11d20 <Embedded_Console_WriteChar+0xb0>
   11c90:	e1a01000 	mov	r1, r0
   11c94:	e5942020 	ldr	r2, [r4, #32]
   11c98:	e5943024 	ldr	r3, [r4, #36]	; 0x24
   11c9c:	e1a02182 	lsl	r2, r2, #3
   11ca0:	e1a03203 	lsl	r3, r3, #4
   11ca4:	e584301c 	str	r3, [r4, #28]
   11ca8:	e5842018 	str	r2, [r4, #24]
   11cac:	e5943044 	ldr	r3, [r4, #68]	; 0x44
   11cb0:	e2840004 	add	r0, r4, #4
   11cb4:	e12fff33 	blx	r3
   11cb8:	e5943020 	ldr	r3, [r4, #32]
   11cbc:	e2833001 	add	r3, r3, #1
   11cc0:	e5843020 	str	r3, [r4, #32]
   11cc4:	e8bd8010 	pop	{r4, pc}
   11cc8:	e59f0050 	ldr	r0, [pc, #80]	; 11d20 <Embedded_Console_WriteChar+0xb0>
   11ccc:	e5903020 	ldr	r3, [r0, #32]
   11cd0:	e2833005 	add	r3, r3, #5
   11cd4:	e1a02fc3 	asr	r2, r3, #31
   11cd8:	e1a01f22 	lsr	r1, r2, #30
   11cdc:	e0832001 	add	r2, r3, r1
   11ce0:	e2022003 	and	r2, r2, #3
   11ce4:	e0422001 	sub	r2, r2, r1
   11ce8:	e0433002 	sub	r3, r3, r2
   11cec:	e5803020 	str	r3, [r0, #32]
   11cf0:	e12fff1e 	bx	lr
   11cf4:	e3a02000 	mov	r2, #0
   11cf8:	e59f3020 	ldr	r3, [pc, #32]	; 11d20 <Embedded_Console_WriteChar+0xb0>
   11cfc:	e5832020 	str	r2, [r3, #32]
   11d00:	e12fff1e 	bx	lr
   11d04:	e3a01000 	mov	r1, #0
   11d08:	e59f3010 	ldr	r3, [pc, #16]	; 11d20 <Embedded_Console_WriteChar+0xb0>
   11d0c:	e5932024 	ldr	r2, [r3, #36]	; 0x24
   11d10:	e5831020 	str	r1, [r3, #32]
   11d14:	e2822001 	add	r2, r2, #1
   11d18:	e5832024 	str	r2, [r3, #36]	; 0x24
   11d1c:	e12fff1e 	bx	lr
   11d20:	000185d0 	.word	0x000185d0

00011d24 <WriteText>:
   11d24:	e92d41f0 	push	{r4, r5, r6, r7, r8, lr}
   11d28:	e2524000 	subs	r4, r2, #0
   11d2c:	08bd81f0 	popeq	{r4, r5, r6, r7, r8, pc}
   11d30:	e1a03000 	mov	r3, r0
   11d34:	e59f50c0 	ldr	r5, [pc, #192]	; 11dfc <WriteText+0xd8>
   11d38:	e1a00004 	mov	r0, r4
   11d3c:	e5853020 	str	r3, [r5, #32]
   11d40:	e5851024 	str	r1, [r5, #36]	; 0x24
   11d44:	eb0003e3 	bl	12cd8 <strlen>
   11d48:	e3500000 	cmp	r0, #0
   11d4c:	08bd81f0 	popeq	{r4, r5, r6, r7, r8, pc}
   11d50:	e3a08000 	mov	r8, #0
   11d54:	e0847000 	add	r7, r4, r0
   11d58:	e2856004 	add	r6, r5, #4
   11d5c:	ea000012 	b	11dac <WriteText+0x88>
   11d60:	e351000d 	cmp	r1, #13
   11d64:	05858020 	streq	r8, [r5, #32]
   11d68:	0a00000d 	beq	11da4 <WriteText+0x80>
   11d6c:	e3510009 	cmp	r1, #9
   11d70:	0a000017 	beq	11dd4 <WriteText+0xb0>
   11d74:	e5952020 	ldr	r2, [r5, #32]
   11d78:	e5953024 	ldr	r3, [r5, #36]	; 0x24
   11d7c:	e1a02182 	lsl	r2, r2, #3
   11d80:	e1a03203 	lsl	r3, r3, #4
   11d84:	e585301c 	str	r3, [r5, #28]
   11d88:	e5852018 	str	r2, [r5, #24]
   11d8c:	e5953044 	ldr	r3, [r5, #68]	; 0x44
   11d90:	e1a00006 	mov	r0, r6
   11d94:	e12fff33 	blx	r3
   11d98:	e5953020 	ldr	r3, [r5, #32]
   11d9c:	e2833001 	add	r3, r3, #1
   11da0:	e5853020 	str	r3, [r5, #32]
   11da4:	e1540007 	cmp	r4, r7
   11da8:	0a000008 	beq	11dd0 <WriteText+0xac>
   11dac:	e4d41001 	ldrb	r1, [r4], #1
   11db0:	e351000a 	cmp	r1, #10
   11db4:	1affffe9 	bne	11d60 <WriteText+0x3c>
   11db8:	e5953024 	ldr	r3, [r5, #36]	; 0x24
   11dbc:	e1540007 	cmp	r4, r7
   11dc0:	e2833001 	add	r3, r3, #1
   11dc4:	e5858020 	str	r8, [r5, #32]
   11dc8:	e5853024 	str	r3, [r5, #36]	; 0x24
   11dcc:	1afffff6 	bne	11dac <WriteText+0x88>
   11dd0:	e8bd81f0 	pop	{r4, r5, r6, r7, r8, pc}
   11dd4:	e5953020 	ldr	r3, [r5, #32]
   11dd8:	e2833005 	add	r3, r3, #5
   11ddc:	e1a02fc3 	asr	r2, r3, #31
   11de0:	e1a01f22 	lsr	r1, r2, #30
   11de4:	e0832001 	add	r2, r3, r1
   11de8:	e2022003 	and	r2, r2, #3
   11dec:	e0422001 	sub	r2, r2, r1
   11df0:	e0433002 	sub	r3, r3, r2
   11df4:	e5853020 	str	r3, [r5, #32]
   11df8:	eaffffe9 	b	11da4 <WriteText+0x80>
   11dfc:	000185d0 	.word	0x000185d0

00011e00 <SetDCPenColor>:
   11e00:	e2503000 	subs	r3, r0, #0
   11e04:	15930024 	ldrne	r0, [r3, #36]	; 0x24
   11e08:	15831024 	strne	r1, [r3, #36]	; 0x24
   11e0c:	01a00003 	moveq	r0, r3
   11e10:	e12fff1e 	bx	lr

00011e14 <SetDCBrushColor>:
   11e14:	e2503000 	subs	r3, r0, #0
   11e18:	1593002c 	ldrne	r0, [r3, #44]	; 0x2c
   11e1c:	1583102c 	strne	r1, [r3, #44]	; 0x2c
   11e20:	01a00003 	moveq	r0, r3
   11e24:	e12fff1e 	bx	lr

00011e28 <MoveToEx>:
   11e28:	e250c000 	subs	ip, r0, #0
   11e2c:	0a000009 	beq	11e58 <MoveToEx+0x30>
   11e30:	e52de004 	push	{lr}		; (str lr, [sp, #-4]!)
   11e34:	e1a0e001 	mov	lr, r1
   11e38:	e3530000 	cmp	r3, #0
   11e3c:	128c1014 	addne	r1, ip, #20
   11e40:	18910003 	ldmne	r1, {r0, r1}
   11e44:	18830003 	stmne	r3, {r0, r1}
   11e48:	e58ce014 	str	lr, [ip, #20]
   11e4c:	e58c2018 	str	r2, [ip, #24]
   11e50:	e3a00001 	mov	r0, #1
   11e54:	e49df004 	pop	{pc}		; (ldr pc, [sp], #4)
   11e58:	e1a0000c 	mov	r0, ip
   11e5c:	e12fff1e 	bx	lr

00011e60 <LineTo>:
   11e60:	e3500000 	cmp	r0, #0
   11e64:	012fff1e 	bxeq	lr
   11e68:	e590c014 	ldr	ip, [r0, #20]
   11e6c:	e92d4010 	push	{r4, lr}
   11e70:	e15c0001 	cmp	ip, r1
   11e74:	c04c1001 	subgt	r1, ip, r1
   11e78:	d041100c 	suble	r1, r1, ip
   11e7c:	e590c018 	ldr	ip, [r0, #24]
   11e80:	c3e03000 	mvngt	r3, #0
   11e84:	d3a03001 	movle	r3, #1
   11e88:	e15c0002 	cmp	ip, r2
   11e8c:	c04cc002 	subgt	ip, ip, r2
   11e90:	c3e0e000 	mvngt	lr, #0
   11e94:	d3a0e001 	movle	lr, #1
   11e98:	d042c00c 	suble	ip, r2, ip
   11e9c:	e3510000 	cmp	r1, #0
   11ea0:	e24dd008 	sub	sp, sp, #8
   11ea4:	0a00000e 	beq	11ee4 <LineTo+0x84>
   11ea8:	e35c0000 	cmp	ip, #0
   11eac:	0a000006 	beq	11ecc <LineTo+0x6c>
   11eb0:	e58de000 	str	lr, [sp]
   11eb4:	e590403c 	ldr	r4, [r0, #60]	; 0x3c
   11eb8:	e1a0200c 	mov	r2, ip
   11ebc:	e12fff34 	blx	r4
   11ec0:	e3a00001 	mov	r0, #1
   11ec4:	e28dd008 	add	sp, sp, #8
   11ec8:	e8bd8010 	pop	{r4, pc}
   11ecc:	e1a02003 	mov	r2, r3
   11ed0:	e5903038 	ldr	r3, [r0, #56]	; 0x38
   11ed4:	e12fff33 	blx	r3
   11ed8:	e3a00001 	mov	r0, #1
   11edc:	e28dd008 	add	sp, sp, #8
   11ee0:	e8bd8010 	pop	{r4, pc}
   11ee4:	e5903034 	ldr	r3, [r0, #52]	; 0x34
   11ee8:	e1a0200e 	mov	r2, lr
   11eec:	e1a0100c 	mov	r1, ip
   11ef0:	e12fff33 	blx	r3
   11ef4:	e3a00001 	mov	r0, #1
   11ef8:	e28dd008 	add	sp, sp, #8
   11efc:	e8bd8010 	pop	{r4, pc}

00011f00 <TextOut>:
   11f00:	e92d47f0 	push	{r4, r5, r6, r7, r8, r9, sl, lr}
   11f04:	e59d7020 	ldr	r7, [sp, #32]
   11f08:	e3570000 	cmp	r7, #0
   11f0c:	13530000 	cmpne	r3, #0
   11f10:	13a00001 	movne	r0, #1
   11f14:	03a00000 	moveq	r0, #0
   11f18:	08bd87f0 	popeq	{r4, r5, r6, r7, r8, r9, sl, pc}
   11f1c:	e3570000 	cmp	r7, #0
   11f20:	da00000e 	ble	11f60 <TextOut+0x60>
   11f24:	e1a06001 	mov	r6, r1
   11f28:	e1a08002 	mov	r8, r2
   11f2c:	e1a04003 	mov	r4, r3
   11f30:	e59f5030 	ldr	r5, [pc, #48]	; 11f68 <TextOut+0x68>
   11f34:	e0837007 	add	r7, r3, r7
   11f38:	e2859004 	add	r9, r5, #4
   11f3c:	e5856018 	str	r6, [r5, #24]
   11f40:	e585801c 	str	r8, [r5, #28]
   11f44:	e4d41001 	ldrb	r1, [r4], #1
   11f48:	e5953044 	ldr	r3, [r5, #68]	; 0x44
   11f4c:	e1a00009 	mov	r0, r9
   11f50:	e12fff33 	blx	r3
   11f54:	e1570004 	cmp	r7, r4
   11f58:	e2866008 	add	r6, r6, #8
   11f5c:	1afffff6 	bne	11f3c <TextOut+0x3c>
   11f60:	e3a00001 	mov	r0, #1
   11f64:	e8bd87f0 	pop	{r4, r5, r6, r7, r8, r9, sl, pc}
   11f68:	000185d0 	.word	0x000185d0

00011f6c <TransparentTextOut>:
   11f6c:	e92d41f0 	push	{r4, r5, r6, r7, r8, lr}
   11f70:	e2524000 	subs	r4, r2, #0
   11f74:	0a000012 	beq	11fc4 <TransparentTextOut+0x58>
   11f78:	e5d43000 	ldrb	r3, [r4]
   11f7c:	e3530000 	cmp	r3, #0
   11f80:	0a00000d 	beq	11fbc <TransparentTextOut+0x50>
   11f84:	e1a06000 	mov	r6, r0
   11f88:	e1a07001 	mov	r7, r1
   11f8c:	e59f5038 	ldr	r5, [pc, #56]	; 11fcc <TransparentTextOut+0x60>
   11f90:	e2858004 	add	r8, r5, #4
   11f94:	e5856018 	str	r6, [r5, #24]
   11f98:	e585701c 	str	r7, [r5, #28]
   11f9c:	e4d41001 	ldrb	r1, [r4], #1
   11fa0:	e5953048 	ldr	r3, [r5, #72]	; 0x48
   11fa4:	e1a00008 	mov	r0, r8
   11fa8:	e12fff33 	blx	r3
   11fac:	e5d43000 	ldrb	r3, [r4]
   11fb0:	e2866008 	add	r6, r6, #8
   11fb4:	e3530000 	cmp	r3, #0
   11fb8:	1afffff5 	bne	11f94 <TransparentTextOut+0x28>
   11fbc:	e3a00001 	mov	r0, #1
   11fc0:	e8bd81f0 	pop	{r4, r5, r6, r7, r8, pc}
   11fc4:	e1a00004 	mov	r0, r4
   11fc8:	e8bd81f0 	pop	{r4, r5, r6, r7, r8, pc}
   11fcc:	000185d0 	.word	0x000185d0

00011fd0 <BmpOut>:
   11fd0:	e250c000 	subs	ip, r0, #0
   11fd4:	0a00000f 	beq	12018 <BmpOut+0x48>
   11fd8:	e92d4030 	push	{r4, r5, lr}
   11fdc:	e3a04001 	mov	r4, #1
   11fe0:	e24dd00c 	sub	sp, sp, #12
   11fe4:	e59de018 	ldr	lr, [sp, #24]
   11fe8:	e58c1014 	str	r1, [ip, #20]
   11fec:	e082200e 	add	r2, r2, lr
   11ff0:	e58c2018 	str	r2, [ip, #24]
   11ff4:	e58d4000 	str	r4, [sp]
   11ff8:	e1a01003 	mov	r1, r3
   11ffc:	e59c5048 	ldr	r5, [ip, #72]	; 0x48
   12000:	e59d301c 	ldr	r3, [sp, #28]
   12004:	e1a0200e 	mov	r2, lr
   12008:	e12fff35 	blx	r5
   1200c:	e1a00004 	mov	r0, r4
   12010:	e28dd00c 	add	sp, sp, #12
   12014:	e8bd8030 	pop	{r4, r5, pc}
   12018:	e1a0000c 	mov	r0, ip
   1201c:	e12fff1e 	bx	lr

00012020 <CvtBmpLine>:
   12020:	e92d4070 	push	{r4, r5, r6, lr}
   12024:	e24dda01 	sub	sp, sp, #4096	; 0x1000
   12028:	e24dd008 	sub	sp, sp, #8
   1202c:	e28dca01 	add	ip, sp, #4096	; 0x1000
   12030:	e28cc018 	add	ip, ip, #24
   12034:	e3500000 	cmp	r0, #0
   12038:	e59ce000 	ldr	lr, [ip]
   1203c:	0a000012 	beq	1208c <CvtBmpLine+0x6c>
   12040:	e590c00c 	ldr	ip, [r0, #12]
   12044:	e5801014 	str	r1, [r0, #20]
   12048:	e15c000e 	cmp	ip, lr
   1204c:	e5802018 	str	r2, [r0, #24]
   12050:	0a000005 	beq	1206c <CvtBmpLine+0x4c>
   12054:	e35c0018 	cmp	ip, #24
   12058:	0a00000e 	beq	12098 <CvtBmpLine+0x78>
   1205c:	e35c0020 	cmp	ip, #32
   12060:	0a00003f 	beq	12164 <CvtBmpLine+0x144>
   12064:	e35c0010 	cmp	ip, #16
   12068:	0a00001e 	beq	120e8 <CvtBmpLine+0xc8>
   1206c:	e3a04001 	mov	r4, #1
   12070:	e58d4000 	str	r4, [sp]
   12074:	e1a01003 	mov	r1, r3
   12078:	e5905048 	ldr	r5, [r0, #72]	; 0x48
   1207c:	e28d3008 	add	r3, sp, #8
   12080:	e1a02004 	mov	r2, r4
   12084:	e12fff35 	blx	r5
   12088:	e1a00004 	mov	r0, r4
   1208c:	e28dda01 	add	sp, sp, #4096	; 0x1000
   12090:	e28dd008 	add	sp, sp, #8
   12094:	e8bd8070 	pop	{r4, r5, r6, pc}
   12098:	e35e0010 	cmp	lr, #16
   1209c:	0a000044 	beq	121b4 <CvtBmpLine+0x194>
   120a0:	e3530000 	cmp	r3, #0
   120a4:	0afffff0 	beq	1206c <CvtBmpLine+0x4c>
   120a8:	e28d2a01 	add	r2, sp, #4096	; 0x1000
   120ac:	e282201c 	add	r2, r2, #28
   120b0:	e5921000 	ldr	r1, [r2]
   120b4:	e0834083 	add	r4, r3, r3, lsl #1
   120b8:	e28d2008 	add	r2, sp, #8
   120bc:	e0824004 	add	r4, r2, r4
   120c0:	e2811004 	add	r1, r1, #4
   120c4:	e551c004 	ldrb	ip, [r1, #-4]
   120c8:	e551e003 	ldrb	lr, [r1, #-3]
   120cc:	e4c2c003 	strb	ip, [r2], #3
   120d0:	e551c002 	ldrb	ip, [r1, #-2]
   120d4:	e1520004 	cmp	r2, r4
   120d8:	e542e002 	strb	lr, [r2, #-2]
   120dc:	e542c001 	strb	ip, [r2, #-1]
   120e0:	1afffff6 	bne	120c0 <CvtBmpLine+0xa0>
   120e4:	eaffffe0 	b	1206c <CvtBmpLine+0x4c>
   120e8:	e35e0018 	cmp	lr, #24
   120ec:	0a00005e 	beq	1226c <CvtBmpLine+0x24c>
   120f0:	e3530000 	cmp	r3, #0
   120f4:	0affffdc 	beq	1206c <CvtBmpLine+0x4c>
   120f8:	e3a01000 	mov	r1, #0
   120fc:	e28d2a01 	add	r2, sp, #4096	; 0x1000
   12100:	e282201c 	add	r2, r2, #28
   12104:	e5922000 	ldr	r2, [r2]
   12108:	e28dc008 	add	ip, sp, #8
   1210c:	e5dce000 	ldrb	lr, [ip]
   12110:	e2822004 	add	r2, r2, #4
   12114:	e5524004 	ldrb	r4, [r2, #-4]
   12118:	e3cee01f 	bic	lr, lr, #31
   1211c:	e18ee1a4 	orr	lr, lr, r4, lsr #3
   12120:	e5cce000 	strb	lr, [ip]
   12124:	e1dce0b0 	ldrh	lr, [ip]
   12128:	e5525003 	ldrb	r5, [r2, #-3]
   1212c:	e5524002 	ldrb	r4, [r2, #-2]
   12130:	e1a05125 	lsr	r5, r5, #2
   12134:	e3ceee7e 	bic	lr, lr, #2016	; 0x7e0
   12138:	e18ee285 	orr	lr, lr, r5, lsl #5
   1213c:	e2811001 	add	r1, r1, #1
   12140:	e20440f8 	and	r4, r4, #248	; 0xf8
   12144:	e1a05a8e 	lsl	r5, lr, #21
   12148:	e1844ea5 	orr	r4, r4, r5, lsr #29
   1214c:	e1530001 	cmp	r3, r1
   12150:	e1cce0b0 	strh	lr, [ip]
   12154:	e5cc4001 	strb	r4, [ip, #1]
   12158:	e28cc002 	add	ip, ip, #2
   1215c:	1affffea 	bne	1210c <CvtBmpLine+0xec>
   12160:	eaffffc1 	b	1206c <CvtBmpLine+0x4c>
   12164:	e35e0010 	cmp	lr, #16
   12168:	0a000028 	beq	12210 <CvtBmpLine+0x1f0>
   1216c:	e3530000 	cmp	r3, #0
   12170:	0affffbd 	beq	1206c <CvtBmpLine+0x4c>
   12174:	e28d2a01 	add	r2, sp, #4096	; 0x1000
   12178:	e282201c 	add	r2, r2, #28
   1217c:	e5922000 	ldr	r2, [r2]
   12180:	e083c083 	add	ip, r3, r3, lsl #1
   12184:	e28d1008 	add	r1, sp, #8
   12188:	e082c00c 	add	ip, r2, ip
   1218c:	e2822003 	add	r2, r2, #3
   12190:	e5525003 	ldrb	r5, [r2, #-3]
   12194:	e5524002 	ldrb	r4, [r2, #-2]
   12198:	e552e001 	ldrb	lr, [r2, #-1]
   1219c:	e4c15004 	strb	r5, [r1], #4
   121a0:	e152000c 	cmp	r2, ip
   121a4:	e5414003 	strb	r4, [r1, #-3]
   121a8:	e541e002 	strb	lr, [r1, #-2]
   121ac:	1afffff6 	bne	1218c <CvtBmpLine+0x16c>
   121b0:	eaffffad 	b	1206c <CvtBmpLine+0x4c>
   121b4:	e3530000 	cmp	r3, #0
   121b8:	0affffab 	beq	1206c <CvtBmpLine+0x4c>
   121bc:	e28d2a01 	add	r2, sp, #4096	; 0x1000
   121c0:	e282201c 	add	r2, r2, #28
   121c4:	e28d1008 	add	r1, sp, #8
   121c8:	e0836083 	add	r6, r3, r3, lsl #1
   121cc:	e592e000 	ldr	lr, [r2]
   121d0:	e0816006 	add	r6, r1, r6
   121d4:	e5dec001 	ldrb	ip, [lr, #1]
   121d8:	e5de4000 	ldrb	r4, [lr]
   121dc:	e20c2007 	and	r2, ip, #7
   121e0:	e1a02182 	lsl	r2, r2, #3
   121e4:	e1a05184 	lsl	r5, r4, #3
   121e8:	e4c15003 	strb	r5, [r1], #3
   121ec:	e18222a4 	orr	r2, r2, r4, lsr #5
   121f0:	e20cc0f8 	and	ip, ip, #248	; 0xf8
   121f4:	e1a02102 	lsl	r2, r2, #2
   121f8:	e1510006 	cmp	r1, r6
   121fc:	e541c001 	strb	ip, [r1, #-1]
   12200:	e5412002 	strb	r2, [r1, #-2]
   12204:	e28ee002 	add	lr, lr, #2
   12208:	1afffff1 	bne	121d4 <CvtBmpLine+0x1b4>
   1220c:	eaffff96 	b	1206c <CvtBmpLine+0x4c>
   12210:	e3530000 	cmp	r3, #0
   12214:	0affff94 	beq	1206c <CvtBmpLine+0x4c>
   12218:	e3a05000 	mov	r5, #0
   1221c:	e28d2a01 	add	r2, sp, #4096	; 0x1000
   12220:	e282201c 	add	r2, r2, #28
   12224:	e5924000 	ldr	r4, [r2]
   12228:	e28de008 	add	lr, sp, #8
   1222c:	e5d41001 	ldrb	r1, [r4, #1]
   12230:	e5d4c000 	ldrb	ip, [r4]
   12234:	e2012007 	and	r2, r1, #7
   12238:	e1a02182 	lsl	r2, r2, #3
   1223c:	e18222ac 	orr	r2, r2, ip, lsr #5
   12240:	e2855001 	add	r5, r5, #1
   12244:	e1a0c18c 	lsl	ip, ip, #3
   12248:	e4cec004 	strb	ip, [lr], #4
   1224c:	e20110f8 	and	r1, r1, #248	; 0xf8
   12250:	e1a02102 	lsl	r2, r2, #2
   12254:	e1530005 	cmp	r3, r5
   12258:	e54e1002 	strb	r1, [lr, #-2]
   1225c:	e54e2003 	strb	r2, [lr, #-3]
   12260:	e2844002 	add	r4, r4, #2
   12264:	1afffff0 	bne	1222c <CvtBmpLine+0x20c>
   12268:	eaffff7f 	b	1206c <CvtBmpLine+0x4c>
   1226c:	e3530000 	cmp	r3, #0
   12270:	0affff7d 	beq	1206c <CvtBmpLine+0x4c>
   12274:	e28d2a01 	add	r2, sp, #4096	; 0x1000
   12278:	e282201c 	add	r2, r2, #28
   1227c:	e592e000 	ldr	lr, [r2]
   12280:	e0831083 	add	r1, r3, r3, lsl #1
   12284:	e28dc008 	add	ip, sp, #8
   12288:	e08e1001 	add	r1, lr, r1
   1228c:	e28ee003 	add	lr, lr, #3
   12290:	e5dc2000 	ldrb	r2, [ip]
   12294:	e55e4003 	ldrb	r4, [lr, #-3]
   12298:	e3c2201f 	bic	r2, r2, #31
   1229c:	e18221a4 	orr	r2, r2, r4, lsr #3
   122a0:	e5cc2000 	strb	r2, [ip]
   122a4:	e1dc20b0 	ldrh	r2, [ip]
   122a8:	e55e5002 	ldrb	r5, [lr, #-2]
   122ac:	e55e4001 	ldrb	r4, [lr, #-1]
   122b0:	e1a05125 	lsr	r5, r5, #2
   122b4:	e3c22e7e 	bic	r2, r2, #2016	; 0x7e0
   122b8:	e1822285 	orr	r2, r2, r5, lsl #5
   122bc:	e20440f8 	and	r4, r4, #248	; 0xf8
   122c0:	e1a05a82 	lsl	r5, r2, #21
   122c4:	e1844ea5 	orr	r4, r4, r5, lsr #29
   122c8:	e15e0001 	cmp	lr, r1
   122cc:	e1cc20b0 	strh	r2, [ip]
   122d0:	e5cc4001 	strb	r4, [ip, #1]
   122d4:	e28cc002 	add	ip, ip, #2
   122d8:	1affffeb 	bne	1228c <CvtBmpLine+0x26c>
   122dc:	eaffff62 	b	1206c <CvtBmpLine+0x4c>

000122e0 <Rectangle>:
   122e0:	e250c000 	subs	ip, r0, #0
   122e4:	0a000008 	beq	1230c <Rectangle+0x2c>
   122e8:	e92d4010 	push	{r4, lr}
   122ec:	e24dd008 	sub	sp, sp, #8
   122f0:	e59de010 	ldr	lr, [sp, #16]
   122f4:	e58de000 	str	lr, [sp]
   122f8:	e59c4030 	ldr	r4, [ip, #48]	; 0x30
   122fc:	e12fff34 	blx	r4
   12300:	e3a00001 	mov	r0, #1
   12304:	e28dd008 	add	sp, sp, #8
   12308:	e8bd8010 	pop	{r4, pc}
   1230c:	e1a0000c 	mov	r0, ip
   12310:	e12fff1e 	bx	lr

00012314 <PiConsole_Init>:
   12314:	e3510000 	cmp	r1, #0
   12318:	13500000 	cmpne	r0, #0
   1231c:	e92d43f0 	push	{r4, r5, r6, r7, r8, r9, lr}
   12320:	e24dd0bc 	sub	sp, sp, #188	; 0xbc
   12324:	e1a04002 	mov	r4, r2
   12328:	e1a08003 	mov	r8, r3
   1232c:	e1a05000 	mov	r5, r0
   12330:	e1a07001 	mov	r7, r1
   12334:	128d905c 	addne	r9, sp, #92	; 0x5c
   12338:	0a00005f 	beq	124bc <PiConsole_Init+0x1a8>
   1233c:	e3540000 	cmp	r4, #0
   12340:	1a000008 	bne	12368 <PiConsole_Init+0x54>
   12344:	e3a03004 	mov	r3, #4
   12348:	e59f2248 	ldr	r2, [pc, #584]	; 12598 <PiConsole_Init+0x284>
   1234c:	e88d0018 	stm	sp, {r3, r4}
   12350:	e1a01003 	mov	r1, r3
   12354:	e1a00009 	mov	r0, r9
   12358:	ebfffb41 	bl	11064 <mailbox_tag_message.constprop.6>
   1235c:	e3500000 	cmp	r0, #0
   12360:	0a000022 	beq	123f0 <PiConsole_Init+0xdc>
   12364:	e59d4068 	ldr	r4, [sp, #104]	; 0x68
   12368:	e3a02004 	mov	r2, #4
   1236c:	e3a03008 	mov	r3, #8
   12370:	e3a06000 	mov	r6, #0
   12374:	e3a0e010 	mov	lr, #16
   12378:	e59f121c 	ldr	r1, [pc, #540]	; 1259c <PiConsole_Init+0x288>
   1237c:	e59fc21c 	ldr	ip, [pc, #540]	; 125a0 <PiConsole_Init+0x28c>
   12380:	e58d100c 	str	r1, [sp, #12]
   12384:	e59f1218 	ldr	r1, [pc, #536]	; 125a4 <PiConsole_Init+0x290>
   12388:	e58dc020 	str	ip, [sp, #32]
   1238c:	e59fc214 	ldr	ip, [pc, #532]	; 125a8 <PiConsole_Init+0x294>
   12390:	e1a00009 	mov	r0, r9
   12394:	e58d2028 	str	r2, [sp, #40]	; 0x28
   12398:	e58d2024 	str	r2, [sp, #36]	; 0x24
   1239c:	e58d2048 	str	r2, [sp, #72]	; 0x48
   123a0:	e58d2038 	str	r2, [sp, #56]	; 0x38
   123a4:	e58d1044 	str	r1, [sp, #68]	; 0x44
   123a8:	e58d701c 	str	r7, [sp, #28]
   123ac:	e58d5018 	str	r5, [sp, #24]
   123b0:	e98d00a0 	stmib	sp, {r5, r7}
   123b4:	e58d3014 	str	r3, [sp, #20]
   123b8:	e58d3010 	str	r3, [sp, #16]
   123bc:	e58d3000 	str	r3, [sp]
   123c0:	e59f21e4 	ldr	r2, [pc, #484]	; 125ac <PiConsole_Init+0x298>
   123c4:	e3a01017 	mov	r1, #23
   123c8:	e58d402c 	str	r4, [sp, #44]	; 0x2c
   123cc:	e58d3034 	str	r3, [sp, #52]	; 0x34
   123d0:	e58d6050 	str	r6, [sp, #80]	; 0x50
   123d4:	e58d604c 	str	r6, [sp, #76]	; 0x4c
   123d8:	e58d6040 	str	r6, [sp, #64]	; 0x40
   123dc:	e58de03c 	str	lr, [sp, #60]	; 0x3c
   123e0:	e58dc030 	str	ip, [sp, #48]	; 0x30
   123e4:	ebfffb59 	bl	11150 <mailbox_tag_message.constprop.7>
   123e8:	e2509000 	subs	r9, r0, #0
   123ec:	1a000003 	bne	12400 <PiConsole_Init+0xec>
   123f0:	e3a09000 	mov	r9, #0
   123f4:	e1a00009 	mov	r0, r9
   123f8:	e28dd0bc 	add	sp, sp, #188	; 0xbc
   123fc:	e8bd83f0 	pop	{r4, r5, r6, r7, r8, r9, pc}
   12400:	e59d00a0 	ldr	r0, [sp, #160]	; 0xa0
   12404:	ebffd811 	bl	8450 <GPUaddrToARMaddr>
   12408:	e3e0c000 	mvn	ip, #0
   1240c:	e59f319c 	ldr	r3, [pc, #412]	; 125b0 <PiConsole_Init+0x29c>
   12410:	e59f119c 	ldr	r1, [pc, #412]	; 125b4 <PiConsole_Init+0x2a0>
   12414:	e59d20b4 	ldr	r2, [sp, #180]	; 0xb4
   12418:	e3540018 	cmp	r4, #24
   1241c:	e5830004 	str	r0, [r3, #4]
   12420:	e583602c 	str	r6, [r3, #44]	; 0x2c
   12424:	e5835008 	str	r5, [r3, #8]
   12428:	e583700c 	str	r7, [r3, #12]
   1242c:	e5834010 	str	r4, [r3, #16]
   12430:	e583c028 	str	ip, [r3, #40]	; 0x28
   12434:	e5831030 	str	r1, [r3, #48]	; 0x30
   12438:	e5832014 	str	r2, [r3, #20]
   1243c:	0a000042 	beq	1254c <PiConsole_Init+0x238>
   12440:	e3540020 	cmp	r4, #32
   12444:	0a00002f 	beq	12508 <PiConsole_Init+0x1f4>
   12448:	e3540010 	cmp	r4, #16
   1244c:	1a00000f 	bne	12490 <PiConsole_Init+0x17c>
   12450:	e59f1160 	ldr	r1, [pc, #352]	; 125b8 <PiConsole_Init+0x2a4>
   12454:	e59f0160 	ldr	r0, [pc, #352]	; 125bc <PiConsole_Init+0x2a8>
   12458:	e5831034 	str	r1, [r3, #52]	; 0x34
   1245c:	e59f115c 	ldr	r1, [pc, #348]	; 125c0 <PiConsole_Init+0x2ac>
   12460:	e5830038 	str	r0, [r3, #56]	; 0x38
   12464:	e583103c 	str	r1, [r3, #60]	; 0x3c
   12468:	e59f0154 	ldr	r0, [pc, #340]	; 125c4 <PiConsole_Init+0x2b0>
   1246c:	e59f1154 	ldr	r1, [pc, #340]	; 125c8 <PiConsole_Init+0x2b4>
   12470:	e5830040 	str	r0, [r3, #64]	; 0x40
   12474:	e5831044 	str	r1, [r3, #68]	; 0x44
   12478:	e59f014c 	ldr	r0, [pc, #332]	; 125cc <PiConsole_Init+0x2b8>
   1247c:	e59f114c 	ldr	r1, [pc, #332]	; 125d0 <PiConsole_Init+0x2bc>
   12480:	e1a020a2 	lsr	r2, r2, #1
   12484:	e5832014 	str	r2, [r3, #20]
   12488:	e5830048 	str	r0, [r3, #72]	; 0x48
   1248c:	e583104c 	str	r1, [r3, #76]	; 0x4c
   12490:	e3580000 	cmp	r8, #0
   12494:	0affffd6 	beq	123f4 <PiConsole_Init+0xe0>
   12498:	e58d2000 	str	r2, [sp]
   1249c:	e1a03004 	mov	r3, r4
   124a0:	e1a02007 	mov	r2, r7
   124a4:	e1a01005 	mov	r1, r5
   124a8:	e59f0124 	ldr	r0, [pc, #292]	; 125d4 <PiConsole_Init+0x2c0>
   124ac:	e12fff38 	blx	r8
   124b0:	e1a00009 	mov	r0, r9
   124b4:	e28dd0bc 	add	sp, sp, #188	; 0xbc
   124b8:	e8bd83f0 	pop	{r4, r5, r6, r7, r8, r9, pc}
   124bc:	e3a03000 	mov	r3, #0
   124c0:	e28d905c 	add	r9, sp, #92	; 0x5c
   124c4:	e58d3008 	str	r3, [sp, #8]
   124c8:	e58d3004 	str	r3, [sp, #4]
   124cc:	e58d3000 	str	r3, [sp]
   124d0:	e1a00009 	mov	r0, r9
   124d4:	e3a03008 	mov	r3, #8
   124d8:	e59f20f8 	ldr	r2, [pc, #248]	; 125d8 <PiConsole_Init+0x2c4>
   124dc:	e3a01005 	mov	r1, #5
   124e0:	ebfffa9f 	bl	10f64 <mailbox_tag_message.constprop.5>
   124e4:	e3500000 	cmp	r0, #0
   124e8:	0affffc0 	beq	123f0 <PiConsole_Init+0xdc>
   124ec:	e3550000 	cmp	r5, #0
   124f0:	1a000002 	bne	12500 <PiConsole_Init+0x1ec>
   124f4:	e3570000 	cmp	r7, #0
   124f8:	e59d5068 	ldr	r5, [sp, #104]	; 0x68
   124fc:	1affff8e 	bne	1233c <PiConsole_Init+0x28>
   12500:	e59d706c 	ldr	r7, [sp, #108]	; 0x6c
   12504:	eaffff8c 	b	1233c <PiConsole_Init+0x28>
   12508:	e59f10cc 	ldr	r1, [pc, #204]	; 125dc <PiConsole_Init+0x2c8>
   1250c:	e59f00cc 	ldr	r0, [pc, #204]	; 125e0 <PiConsole_Init+0x2cc>
   12510:	e5831034 	str	r1, [r3, #52]	; 0x34
   12514:	e59f10c8 	ldr	r1, [pc, #200]	; 125e4 <PiConsole_Init+0x2d0>
   12518:	e5830038 	str	r0, [r3, #56]	; 0x38
   1251c:	e583103c 	str	r1, [r3, #60]	; 0x3c
   12520:	e59f00c0 	ldr	r0, [pc, #192]	; 125e8 <PiConsole_Init+0x2d4>
   12524:	e59f10c0 	ldr	r1, [pc, #192]	; 125ec <PiConsole_Init+0x2d8>
   12528:	e5830040 	str	r0, [r3, #64]	; 0x40
   1252c:	e5831044 	str	r1, [r3, #68]	; 0x44
   12530:	e59f00b8 	ldr	r0, [pc, #184]	; 125f0 <PiConsole_Init+0x2dc>
   12534:	e59f10b8 	ldr	r1, [pc, #184]	; 125f4 <PiConsole_Init+0x2e0>
   12538:	e1a02122 	lsr	r2, r2, #2
   1253c:	e5832014 	str	r2, [r3, #20]
   12540:	e5830048 	str	r0, [r3, #72]	; 0x48
   12544:	e583104c 	str	r1, [r3, #76]	; 0x4c
   12548:	eaffffd0 	b	12490 <PiConsole_Init+0x17c>
   1254c:	e59f10a4 	ldr	r1, [pc, #164]	; 125f8 <PiConsole_Init+0x2e4>
   12550:	e59f00a4 	ldr	r0, [pc, #164]	; 125fc <PiConsole_Init+0x2e8>
   12554:	e0821291 	umull	r1, r2, r1, r2
   12558:	e59f10a0 	ldr	r1, [pc, #160]	; 12600 <PiConsole_Init+0x2ec>
   1255c:	e5830038 	str	r0, [r3, #56]	; 0x38
   12560:	e583103c 	str	r1, [r3, #60]	; 0x3c
   12564:	e59f0098 	ldr	r0, [pc, #152]	; 12604 <PiConsole_Init+0x2f0>
   12568:	e59f1098 	ldr	r1, [pc, #152]	; 12608 <PiConsole_Init+0x2f4>
   1256c:	e59fc098 	ldr	ip, [pc, #152]	; 1260c <PiConsole_Init+0x2f8>
   12570:	e5830040 	str	r0, [r3, #64]	; 0x40
   12574:	e5831044 	str	r1, [r3, #68]	; 0x44
   12578:	e59f0090 	ldr	r0, [pc, #144]	; 12610 <PiConsole_Init+0x2fc>
   1257c:	e59f1090 	ldr	r1, [pc, #144]	; 12614 <PiConsole_Init+0x300>
   12580:	e1a020a2 	lsr	r2, r2, #1
   12584:	e5832014 	str	r2, [r3, #20]
   12588:	e583c034 	str	ip, [r3, #52]	; 0x34
   1258c:	e5830048 	str	r0, [r3, #72]	; 0x48
   12590:	e583104c 	str	r1, [r3, #76]	; 0x4c
   12594:	eaffffbd 	b	12490 <PiConsole_Init+0x17c>
   12598:	00040005 	.word	0x00040005
   1259c:	00048004 	.word	0x00048004
   125a0:	00048005 	.word	0x00048005
   125a4:	00040008 	.word	0x00040008
   125a8:	00040001 	.word	0x00040001
   125ac:	00048003 	.word	0x00048003
   125b0:	000185d0 	.word	0x000185d0
   125b4:	ff00ff00 	.word	0xff00ff00
   125b8:	00010188 	.word	0x00010188
   125bc:	00010220 	.word	0x00010220
   125c0:	000102d4 	.word	0x000102d4
   125c4:	0001035c 	.word	0x0001035c
   125c8:	00010440 	.word	0x00010440
   125cc:	00010558 	.word	0x00010558
   125d0:	00010624 	.word	0x00010624
   125d4:	0001991c 	.word	0x0001991c
   125d8:	00040003 	.word	0x00040003
   125dc:	00010b50 	.word	0x00010b50
   125e0:	00010bb4 	.word	0x00010bb4
   125e4:	00010c28 	.word	0x00010c28
   125e8:	00010c7c 	.word	0x00010c7c
   125ec:	00010cfc 	.word	0x00010cfc
   125f0:	00010d88 	.word	0x00010d88
   125f4:	00010e04 	.word	0x00010e04
   125f8:	aaaaaaab 	.word	0xaaaaaaab
   125fc:	0001075c 	.word	0x0001075c
   12600:	000107f4 	.word	0x000107f4
   12604:	00010860 	.word	0x00010860
   12608:	0001093c 	.word	0x0001093c
   1260c:	000106e8 	.word	0x000106e8
   12610:	000109e0 	.word	0x000109e0
   12614:	00010aa0 	.word	0x00010aa0

00012618 <GetConsoleDC>:
   12618:	e59f0000 	ldr	r0, [pc]	; 12620 <GetConsoleDC+0x8>
   1261c:	e12fff1e 	bx	lr
   12620:	000185d4 	.word	0x000185d4

00012624 <GetConsole_FrameBuffer>:
   12624:	e59f3004 	ldr	r3, [pc, #4]	; 12630 <GetConsole_FrameBuffer+0xc>
   12628:	e5930004 	ldr	r0, [r3, #4]
   1262c:	e12fff1e 	bx	lr
   12630:	000185d0 	.word	0x000185d0

00012634 <GetConsole_Width>:
   12634:	e59f3004 	ldr	r3, [pc, #4]	; 12640 <GetConsole_Width+0xc>
   12638:	e5930008 	ldr	r0, [r3, #8]
   1263c:	e12fff1e 	bx	lr
   12640:	000185d0 	.word	0x000185d0

00012644 <GetConsole_Height>:
   12644:	e59f3004 	ldr	r3, [pc, #4]	; 12650 <GetConsole_Height+0xc>
   12648:	e593000c 	ldr	r0, [r3, #12]
   1264c:	e12fff1e 	bx	lr
   12650:	000185d0 	.word	0x000185d0

00012654 <WhereXY>:
   12654:	e3500000 	cmp	r0, #0
   12658:	159f3018 	ldrne	r3, [pc, #24]	; 12678 <WhereXY+0x24>
   1265c:	15933020 	ldrne	r3, [r3, #32]
   12660:	15803000 	strne	r3, [r0]
   12664:	e3510000 	cmp	r1, #0
   12668:	159f3008 	ldrne	r3, [pc, #8]	; 12678 <WhereXY+0x24>
   1266c:	15933024 	ldrne	r3, [r3, #36]	; 0x24
   12670:	15813000 	strne	r3, [r1]
   12674:	e12fff1e 	bx	lr
   12678:	000185d0 	.word	0x000185d0

0001267c <GotoXY>:
   1267c:	e59f3008 	ldr	r3, [pc, #8]	; 1268c <GotoXY+0x10>
   12680:	e5830020 	str	r0, [r3, #32]
   12684:	e5831024 	str	r1, [r3, #36]	; 0x24
   12688:	e12fff1e 	bx	lr
   1268c:	000185d0 	.word	0x000185d0

00012690 <_sbrk>:
   12690:	e59f201c 	ldr	r2, [pc, #28]	; 126b4 <_sbrk+0x24>
   12694:	e59f101c 	ldr	r1, [pc, #28]	; 126b8 <_sbrk+0x28>
   12698:	e5923050 	ldr	r3, [r2, #80]	; 0x50
   1269c:	e3530000 	cmp	r3, #0
   126a0:	01a03001 	moveq	r3, r1
   126a4:	e0830000 	add	r0, r3, r0
   126a8:	e5820050 	str	r0, [r2, #80]	; 0x50
   126ac:	e1a00003 	mov	r0, r3
   126b0:	e12fff1e 	bx	lr
   126b4:	000185d0 	.word	0x000185d0
   126b8:	000274e8 	.word	0x000274e8

000126bc <c_irq_handler>:
   126bc:	e59f301c 	ldr	r3, [pc, #28]	; 126e0 <c_irq_handler+0x24>
   126c0:	e5d32000 	ldrb	r2, [r3]
   126c4:	e3520000 	cmp	r2, #0
   126c8:	03a02001 	moveq	r2, #1
   126cc:	13a00000 	movne	r0, #0
   126d0:	01a00002 	moveq	r0, r2
   126d4:	15c30000 	strbne	r0, [r3]
   126d8:	05c32000 	strbeq	r2, [r3]
   126dc:	eafffcad 	b	11998 <set_Activity_LED>
   126e0:	00018624 	.word	0x00018624

000126e4 <kernel_main>:
   126e4:	e92d41f0 	push	{r4, r5, r6, r7, r8, lr}
   126e8:	e59f0070 	ldr	r0, [pc, #112]	; 12760 <kernel_main+0x7c>
   126ec:	ebfff400 	bl	f6f4 <Init_EmbStdio>
   126f0:	e3a02000 	mov	r2, #0
   126f4:	e59f3068 	ldr	r3, [pc, #104]	; 12764 <kernel_main+0x80>
   126f8:	e1a01002 	mov	r1, r2
   126fc:	e1a00002 	mov	r0, r2
   12700:	ebffff03 	bl	12314 <PiConsole_Init>
   12704:	e59f0058 	ldr	r0, [pc, #88]	; 12764 <kernel_main+0x80>
   12708:	ebfffd28 	bl	11bb0 <displaySmartStart>
   1270c:	e59f0050 	ldr	r0, [pc, #80]	; 12764 <kernel_main+0x80>
   12710:	ebfffcf9 	bl	11afc <ARM_setmaxspeed>
   12714:	e59f104c 	ldr	r1, [pc, #76]	; 12768 <kernel_main+0x84>
   12718:	e59f004c 	ldr	r0, [pc, #76]	; 1276c <kernel_main+0x88>
   1271c:	ebfffc60 	bl	118a4 <TimerIrqSetup>
   12720:	e3a04000 	mov	r4, #0
   12724:	ebffd74e 	bl	8464 <EnableInterrupts>
   12728:	e3a07000 	mov	r7, #0
   1272c:	e3a0107c 	mov	r1, #124	; 0x7c
   12730:	e59f6038 	ldr	r6, [pc, #56]	; 12770 <kernel_main+0x8c>
   12734:	e59f8038 	ldr	r8, [pc, #56]	; 12774 <kernel_main+0x90>
   12738:	e59f5038 	ldr	r5, [pc, #56]	; 12778 <kernel_main+0x94>
   1273c:	e1a00005 	mov	r0, r5
   12740:	e2844001 	add	r4, r4, #1
   12744:	ebfff3f0 	bl	f70c <printf>
   12748:	e2044003 	and	r4, r4, #3
   1274c:	e1a01007 	mov	r1, r7
   12750:	e1a00006 	mov	r0, r6
   12754:	ebfffbc3 	bl	11668 <timer_wait>
   12758:	e7d81004 	ldrb	r1, [r8, r4]
   1275c:	eafffff6 	b	1273c <kernel_main+0x58>
   12760:	00011c70 	.word	0x00011c70
   12764:	0000f70c 	.word	0x0000f70c
   12768:	000126bc 	.word	0x000126bc
   1276c:	0007a120 	.word	0x0007a120
   12770:	0000c350 	.word	0x0000c350
   12774:	00019958 	.word	0x00019958
   12778:	0001995c 	.word	0x0001995c

0001277c <__locale_ctype_ptr_l>:
   1277c:	e59000ec 	ldr	r0, [r0, #236]	; 0xec
   12780:	e12fff1e 	bx	lr

00012784 <__locale_ctype_ptr>:
   12784:	e59f3018 	ldr	r3, [pc, #24]	; 127a4 <__locale_ctype_ptr+0x20>
   12788:	e5933000 	ldr	r3, [r3]
   1278c:	e5933034 	ldr	r3, [r3, #52]	; 0x34
   12790:	e59f2010 	ldr	r2, [pc, #16]	; 127a8 <__locale_ctype_ptr+0x24>
   12794:	e3530000 	cmp	r3, #0
   12798:	01a03002 	moveq	r3, r2
   1279c:	e59300ec 	ldr	r0, [r3, #236]	; 0xec
   127a0:	e12fff1e 	bx	lr
   127a4:	00017d84 	.word	0x00017d84
   127a8:	00017c18 	.word	0x00017c18

000127ac <mbstowcs>:
   127ac:	e3520000 	cmp	r2, #0
   127b0:	0a00000e 	beq	127f0 <mbstowcs+0x44>
   127b4:	e52de004 	push	{lr}		; (str lr, [sp, #-4]!)
   127b8:	e240c004 	sub	ip, r0, #4
   127bc:	e3a0e000 	mov	lr, #0
   127c0:	e0812002 	add	r2, r1, r2
   127c4:	ea000002 	b	127d4 <mbstowcs+0x28>
   127c8:	e1510002 	cmp	r1, r2
   127cc:	e28ee001 	add	lr, lr, #1
   127d0:	0a000003 	beq	127e4 <mbstowcs+0x38>
   127d4:	e4d13001 	ldrb	r3, [r1], #1
   127d8:	e3530000 	cmp	r3, #0
   127dc:	e5ac3004 	str	r3, [ip, #4]!
   127e0:	1afffff8 	bne	127c8 <mbstowcs+0x1c>
   127e4:	e1a0000e 	mov	r0, lr
   127e8:	e49de004 	pop	{lr}		; (ldr lr, [sp], #4)
   127ec:	e12fff1e 	bx	lr
   127f0:	e1a00002 	mov	r0, r2
   127f4:	e12fff1e 	bx	lr

000127f8 <__ascii_mbtowc>:
   127f8:	e3510000 	cmp	r1, #0
   127fc:	e24dd008 	sub	sp, sp, #8
   12800:	028d1004 	addeq	r1, sp, #4
   12804:	e3520000 	cmp	r2, #0
   12808:	0a000008 	beq	12830 <__ascii_mbtowc+0x38>
   1280c:	e3530000 	cmp	r3, #0
   12810:	0a000009 	beq	1283c <__ascii_mbtowc+0x44>
   12814:	e5d23000 	ldrb	r3, [r2]
   12818:	e5813000 	str	r3, [r1]
   1281c:	e5d22000 	ldrb	r2, [r2]
   12820:	e2920000 	adds	r0, r2, #0
   12824:	13a00001 	movne	r0, #1
   12828:	e28dd008 	add	sp, sp, #8
   1282c:	e12fff1e 	bx	lr
   12830:	e1a00002 	mov	r0, r2
   12834:	e28dd008 	add	sp, sp, #8
   12838:	e12fff1e 	bx	lr
   1283c:	e3e00001 	mvn	r0, #1
   12840:	eafffff8 	b	12828 <__ascii_mbtowc+0x30>

00012844 <memcpy>:
   12844:	e352000f 	cmp	r2, #15
   12848:	8a000009 	bhi	12874 <memcpy+0x30>
   1284c:	e3520000 	cmp	r2, #0
   12850:	e1a03000 	mov	r3, r0
   12854:	0a00003c 	beq	1294c <memcpy+0x108>
   12858:	e2433001 	sub	r3, r3, #1
   1285c:	e0812002 	add	r2, r1, r2
   12860:	e4d1c001 	ldrb	ip, [r1], #1
   12864:	e1510002 	cmp	r1, r2
   12868:	e5e3c001 	strb	ip, [r3, #1]!
   1286c:	1afffffb 	bne	12860 <memcpy+0x1c>
   12870:	e12fff1e 	bx	lr
   12874:	e1813000 	orr	r3, r1, r0
   12878:	e3130003 	tst	r3, #3
   1287c:	1a000030 	bne	12944 <memcpy+0x100>
   12880:	e92d40f0 	push	{r4, r5, r6, r7, lr}
   12884:	e1a0e002 	mov	lr, r2
   12888:	e280c010 	add	ip, r0, #16
   1288c:	e2813010 	add	r3, r1, #16
   12890:	e5137010 	ldr	r7, [r3, #-16]
   12894:	e513600c 	ldr	r6, [r3, #-12]
   12898:	e5135008 	ldr	r5, [r3, #-8]
   1289c:	e5134004 	ldr	r4, [r3, #-4]
   128a0:	e24ee010 	sub	lr, lr, #16
   128a4:	e35e000f 	cmp	lr, #15
   128a8:	e50c7010 	str	r7, [ip, #-16]
   128ac:	e50c600c 	str	r6, [ip, #-12]
   128b0:	e50c5008 	str	r5, [ip, #-8]
   128b4:	e50c4004 	str	r4, [ip, #-4]
   128b8:	e2833010 	add	r3, r3, #16
   128bc:	e28cc010 	add	ip, ip, #16
   128c0:	8afffff2 	bhi	12890 <memcpy+0x4c>
   128c4:	e2423010 	sub	r3, r2, #16
   128c8:	e3c3300f 	bic	r3, r3, #15
   128cc:	e202600f 	and	r6, r2, #15
   128d0:	e2833010 	add	r3, r3, #16
   128d4:	e3560003 	cmp	r6, #3
   128d8:	e0811003 	add	r1, r1, r3
   128dc:	e0803003 	add	r3, r0, r3
   128e0:	9a00001a 	bls	12950 <memcpy+0x10c>
   128e4:	e1a04001 	mov	r4, r1
   128e8:	e1a0c006 	mov	ip, r6
   128ec:	e243e004 	sub	lr, r3, #4
   128f0:	e24cc004 	sub	ip, ip, #4
   128f4:	e4945004 	ldr	r5, [r4], #4
   128f8:	e35c0003 	cmp	ip, #3
   128fc:	e5ae5004 	str	r5, [lr, #4]!
   12900:	8afffffa 	bhi	128f0 <memcpy+0xac>
   12904:	e246c004 	sub	ip, r6, #4
   12908:	e3ccc003 	bic	ip, ip, #3
   1290c:	e28cc004 	add	ip, ip, #4
   12910:	e081100c 	add	r1, r1, ip
   12914:	e083300c 	add	r3, r3, ip
   12918:	e2022003 	and	r2, r2, #3
   1291c:	e3520000 	cmp	r2, #0
   12920:	12433001 	subne	r3, r3, #1
   12924:	10812002 	addne	r2, r1, r2
   12928:	0a000003 	beq	1293c <memcpy+0xf8>
   1292c:	e4d1c001 	ldrb	ip, [r1], #1
   12930:	e1510002 	cmp	r1, r2
   12934:	e5e3c001 	strb	ip, [r3, #1]!
   12938:	1afffffb 	bne	1292c <memcpy+0xe8>
   1293c:	e8bd40f0 	pop	{r4, r5, r6, r7, lr}
   12940:	e12fff1e 	bx	lr
   12944:	e1a03000 	mov	r3, r0
   12948:	eaffffc2 	b	12858 <memcpy+0x14>
   1294c:	e12fff1e 	bx	lr
   12950:	e1a02006 	mov	r2, r6
   12954:	eafffff0 	b	1291c <memcpy+0xd8>

00012958 <modf>:
   12958:	e92d4070 	push	{r4, r5, r6, lr}
   1295c:	ec554b10 	vmov	r4, r5, d0
   12960:	e59f30cc 	ldr	r3, [pc, #204]	; 12a34 <modf+0xdc>
   12964:	e0033a45 	and	r3, r3, r5, asr #20
   12968:	e2432fff 	sub	r2, r3, #1020	; 0x3fc
   1296c:	e2422003 	sub	r2, r2, #3
   12970:	e3520013 	cmp	r2, #19
   12974:	ca000011 	bgt	129c0 <modf+0x68>
   12978:	e3520000 	cmp	r2, #0
   1297c:	ba000028 	blt	12a24 <modf+0xcc>
   12980:	e59fe0b0 	ldr	lr, [pc, #176]	; 12a38 <modf+0xe0>
   12984:	e1a0e25e 	asr	lr, lr, r2
   12988:	e3a02000 	mov	r2, #0
   1298c:	e005300e 	and	r3, r5, lr
   12990:	e193c004 	orrs	ip, r3, r4
   12994:	11c5300e 	bicne	r3, r5, lr
   12998:	1c432b10 	vmovne	d0, r2, r3
   1299c:	01a0200c 	moveq	r2, ip
   129a0:	1c454b17 	vmovne	d7, r4, r5
   129a4:	02053102 	andeq	r3, r5, #-2147483648	; 0x80000000
   129a8:	1d800b00 	vstrne	d0, [r0]
   129ac:	0c432b10 	vmoveq	d0, r2, r3
   129b0:	1e370b40 	vsubne.f64	d0, d7, d0
   129b4:	08800030 	stmeq	r0, {r4, r5}
   129b8:	e8bd4070 	pop	{r4, r5, r6, lr}
   129bc:	e12fff1e 	bx	lr
   129c0:	e3520033 	cmp	r2, #51	; 0x33
   129c4:	ca000010 	bgt	12a0c <modf+0xb4>
   129c8:	e3e0e000 	mvn	lr, #0
   129cc:	e2433e41 	sub	r3, r3, #1040	; 0x410
   129d0:	e2433003 	sub	r3, r3, #3
   129d4:	e1a0e33e 	lsr	lr, lr, r3
   129d8:	e014600e 	ands	r6, r4, lr
   129dc:	11a03005 	movne	r3, r5
   129e0:	11c4200e 	bicne	r2, r4, lr
   129e4:	1c432b10 	vmovne	d0, r2, r3
   129e8:	01a02006 	moveq	r2, r6
   129ec:	1c454b17 	vmovne	d7, r4, r5
   129f0:	02053102 	andeq	r3, r5, #-2147483648	; 0x80000000
   129f4:	08800030 	stmeq	r0, {r4, r5}
   129f8:	0c432b10 	vmoveq	d0, r2, r3
   129fc:	1d800b00 	vstrne	d0, [r0]
   12a00:	e8bd4070 	pop	{r4, r5, r6, lr}
   12a04:	1e370b40 	vsubne.f64	d0, d7, d0
   12a08:	e12fff1e 	bx	lr
   12a0c:	e3a02000 	mov	r2, #0
   12a10:	e2053102 	and	r3, r5, #-2147483648	; 0x80000000
   12a14:	ed800b00 	vstr	d0, [r0]
   12a18:	e8bd4070 	pop	{r4, r5, r6, lr}
   12a1c:	ec432b10 	vmov	d0, r2, r3
   12a20:	e12fff1e 	bx	lr
   12a24:	e3a02000 	mov	r2, #0
   12a28:	e2053102 	and	r3, r5, #-2147483648	; 0x80000000
   12a2c:	e880000c 	stm	r0, {r2, r3}
   12a30:	eaffffe0 	b	129b8 <modf+0x60>
   12a34:	000007ff 	.word	0x000007ff
   12a38:	000fffff 	.word	0x000fffff

00012a3c <strchr>:
   12a3c:	e21110ff 	ands	r1, r1, #255	; 0xff
   12a40:	0a000038 	beq	12b28 <strchr+0xec>
   12a44:	e3100003 	tst	r0, #3
   12a48:	0a00005e 	beq	12bc8 <strchr+0x18c>
   12a4c:	e5d03000 	ldrb	r3, [r0]
   12a50:	e3530000 	cmp	r3, #0
   12a54:	0a00005d 	beq	12bd0 <strchr+0x194>
   12a58:	e1510003 	cmp	r1, r3
   12a5c:	012fff1e 	bxeq	lr
   12a60:	e2803001 	add	r3, r0, #1
   12a64:	ea000004 	b	12a7c <strchr+0x40>
   12a68:	e4d30001 	ldrb	r0, [r3], #1
   12a6c:	e3500000 	cmp	r0, #0
   12a70:	012fff1e 	bxeq	lr
   12a74:	e1510000 	cmp	r1, r0
   12a78:	0a00004c 	beq	12bb0 <strchr+0x174>
   12a7c:	e3130003 	tst	r3, #3
   12a80:	e1a0c003 	mov	ip, r3
   12a84:	1afffff7 	bne	12a68 <strchr+0x2c>
   12a88:	e59c2000 	ldr	r2, [ip]
   12a8c:	e1813401 	orr	r3, r1, r1, lsl #8
   12a90:	e92d4070 	push	{r4, r5, r6, lr}
   12a94:	e1833803 	orr	r3, r3, r3, lsl #16
   12a98:	e59f6140 	ldr	r6, [pc, #320]	; 12be0 <strchr+0x1a4>
   12a9c:	e0234002 	eor	r4, r3, r2
   12aa0:	e0820006 	add	r0, r2, r6
   12aa4:	e084e006 	add	lr, r4, r6
   12aa8:	e1c00002 	bic	r0, r0, r2
   12aac:	e1cee004 	bic	lr, lr, r4
   12ab0:	e59f212c 	ldr	r2, [pc, #300]	; 12be4 <strchr+0x1a8>
   12ab4:	e180000e 	orr	r0, r0, lr
   12ab8:	e1100002 	tst	r0, r2
   12abc:	1a00000b 	bne	12af0 <strchr+0xb4>
   12ac0:	e1a0000c 	mov	r0, ip
   12ac4:	e1a0c002 	mov	ip, r2
   12ac8:	e5b04004 	ldr	r4, [r0, #4]!
   12acc:	e0235004 	eor	r5, r3, r4
   12ad0:	e085e006 	add	lr, r5, r6
   12ad4:	e0842006 	add	r2, r4, r6
   12ad8:	e1cee005 	bic	lr, lr, r5
   12adc:	e1c22004 	bic	r2, r2, r4
   12ae0:	e182200e 	orr	r2, r2, lr
   12ae4:	e112000c 	tst	r2, ip
   12ae8:	0afffff6 	beq	12ac8 <strchr+0x8c>
   12aec:	e1a0c000 	mov	ip, r0
   12af0:	e5dc2000 	ldrb	r2, [ip]
   12af4:	e3520000 	cmp	r2, #0
   12af8:	0a000036 	beq	12bd8 <strchr+0x19c>
   12afc:	e1510002 	cmp	r1, r2
   12b00:	1a000002 	bne	12b10 <strchr+0xd4>
   12b04:	ea00002b 	b	12bb8 <strchr+0x17c>
   12b08:	e1510003 	cmp	r1, r3
   12b0c:	0a000029 	beq	12bb8 <strchr+0x17c>
   12b10:	e5fc3001 	ldrb	r3, [ip, #1]!
   12b14:	e3530000 	cmp	r3, #0
   12b18:	1afffffa 	bne	12b08 <strchr+0xcc>
   12b1c:	e1a00003 	mov	r0, r3
   12b20:	e8bd4070 	pop	{r4, r5, r6, lr}
   12b24:	e12fff1e 	bx	lr
   12b28:	e3100003 	tst	r0, #3
   12b2c:	0a000023 	beq	12bc0 <strchr+0x184>
   12b30:	e5d03000 	ldrb	r3, [r0]
   12b34:	e3530000 	cmp	r3, #0
   12b38:	012fff1e 	bxeq	lr
   12b3c:	e2803001 	add	r3, r0, #1
   12b40:	ea000003 	b	12b54 <strchr+0x118>
   12b44:	e5d02000 	ldrb	r2, [r0]
   12b48:	e3520000 	cmp	r2, #0
   12b4c:	e2833001 	add	r3, r3, #1
   12b50:	012fff1e 	bxeq	lr
   12b54:	e3130003 	tst	r3, #3
   12b58:	e1a00003 	mov	r0, r3
   12b5c:	1afffff8 	bne	12b44 <strchr+0x108>
   12b60:	e5931000 	ldr	r1, [r3]
   12b64:	e59fc074 	ldr	ip, [pc, #116]	; 12be0 <strchr+0x1a4>
   12b68:	e59f0074 	ldr	r0, [pc, #116]	; 12be4 <strchr+0x1a8>
   12b6c:	e081200c 	add	r2, r1, ip
   12b70:	e1c22001 	bic	r2, r2, r1
   12b74:	e1120000 	tst	r2, r0
   12b78:	1a000004 	bne	12b90 <strchr+0x154>
   12b7c:	e5b31004 	ldr	r1, [r3, #4]!
   12b80:	e081200c 	add	r2, r1, ip
   12b84:	e1c22001 	bic	r2, r2, r1
   12b88:	e1120000 	tst	r2, r0
   12b8c:	0afffffa 	beq	12b7c <strchr+0x140>
   12b90:	e5d32000 	ldrb	r2, [r3]
   12b94:	e3520000 	cmp	r2, #0
   12b98:	e1a00003 	mov	r0, r3
   12b9c:	0a00000b 	beq	12bd0 <strchr+0x194>
   12ba0:	e5f03001 	ldrb	r3, [r0, #1]!
   12ba4:	e3530000 	cmp	r3, #0
   12ba8:	1afffffc 	bne	12ba0 <strchr+0x164>
   12bac:	e12fff1e 	bx	lr
   12bb0:	e1a0000c 	mov	r0, ip
   12bb4:	e12fff1e 	bx	lr
   12bb8:	e1a0000c 	mov	r0, ip
   12bbc:	eaffffd7 	b	12b20 <strchr+0xe4>
   12bc0:	e1a03000 	mov	r3, r0
   12bc4:	eaffffe5 	b	12b60 <strchr+0x124>
   12bc8:	e1a0c000 	mov	ip, r0
   12bcc:	eaffffad 	b	12a88 <strchr+0x4c>
   12bd0:	e1a00003 	mov	r0, r3
   12bd4:	e12fff1e 	bx	lr
   12bd8:	e1a00002 	mov	r0, r2
   12bdc:	eaffffcf 	b	12b20 <strchr+0xe4>
   12be0:	fefefeff 	.word	0xfefefeff
   12be4:	80808080 	.word	0x80808080

00012be8 <strcpy>:
   12be8:	e0202001 	eor	r2, r0, r1
   12bec:	e1a0c000 	mov	ip, r0
   12bf0:	e3120003 	tst	r2, #3
   12bf4:	1a000032 	bne	12cc4 <strcpy+0xdc>
   12bf8:	e3110003 	tst	r1, #3
   12bfc:	1a000021 	bne	12c88 <strcpy+0xa0>
   12c00:	e52d5004 	push	{r5}		; (str r5, [sp, #-4]!)
   12c04:	e3a05001 	mov	r5, #1
   12c08:	e1855405 	orr	r5, r5, r5, lsl #8
   12c0c:	e1855805 	orr	r5, r5, r5, lsl #16
   12c10:	e52d4004 	push	{r4}		; (str r4, [sp, #-4]!)
   12c14:	e3110004 	tst	r1, #4
   12c18:	e4913004 	ldr	r3, [r1], #4
   12c1c:	0a000005 	beq	12c38 <strcpy+0x50>
   12c20:	e0432005 	sub	r2, r3, r5
   12c24:	e1d22003 	bics	r2, r2, r3
   12c28:	e1120385 	tst	r2, r5, lsl #7
   12c2c:	048c3004 	streq	r3, [ip], #4
   12c30:	04913004 	ldreq	r3, [r1], #4
   12c34:	1a00000c 	bne	12c6c <strcpy+0x84>
   12c38:	e4914004 	ldr	r4, [r1], #4
   12c3c:	e0432005 	sub	r2, r3, r5
   12c40:	e1d22003 	bics	r2, r2, r3
   12c44:	e1120385 	tst	r2, r5, lsl #7
   12c48:	e0442005 	sub	r2, r4, r5
   12c4c:	1a000006 	bne	12c6c <strcpy+0x84>
   12c50:	e48c3004 	str	r3, [ip], #4
   12c54:	e1d22004 	bics	r2, r2, r4
   12c58:	e1120385 	tst	r2, r5, lsl #7
   12c5c:	04913004 	ldreq	r3, [r1], #4
   12c60:	048c4004 	streq	r4, [ip], #4
   12c64:	0afffff3 	beq	12c38 <strcpy+0x50>
   12c68:	e1a03004 	mov	r3, r4
   12c6c:	e4cc3001 	strb	r3, [ip], #1
   12c70:	e31300ff 	tst	r3, #255	; 0xff
   12c74:	e1a03463 	ror	r3, r3, #8
   12c78:	1afffffb 	bne	12c6c <strcpy+0x84>
   12c7c:	e49d4004 	pop	{r4}		; (ldr r4, [sp], #4)
   12c80:	e49d5004 	pop	{r5}		; (ldr r5, [sp], #4)
   12c84:	e12fff1e 	bx	lr
   12c88:	e3110001 	tst	r1, #1
   12c8c:	0a000003 	beq	12ca0 <strcpy+0xb8>
   12c90:	e4d12001 	ldrb	r2, [r1], #1
   12c94:	e4cc2001 	strb	r2, [ip], #1
   12c98:	e3520000 	cmp	r2, #0
   12c9c:	012fff1e 	bxeq	lr
   12ca0:	e3110002 	tst	r1, #2
   12ca4:	0affffd5 	beq	12c00 <strcpy+0x18>
   12ca8:	e0d120b2 	ldrh	r2, [r1], #2
   12cac:	e31200ff 	tst	r2, #255	; 0xff
   12cb0:	10cc20b2 	strhne	r2, [ip], #2
   12cb4:	05cc2000 	strbeq	r2, [ip]
   12cb8:	13120cff 	tstne	r2, #65280	; 0xff00
   12cbc:	1affffcf 	bne	12c00 <strcpy+0x18>
   12cc0:	e12fff1e 	bx	lr
   12cc4:	e4d12001 	ldrb	r2, [r1], #1
   12cc8:	e4cc2001 	strb	r2, [ip], #1
   12ccc:	e3520000 	cmp	r2, #0
   12cd0:	1afffffb 	bne	12cc4 <strcpy+0xdc>
   12cd4:	e12fff1e 	bx	lr

00012cd8 <strlen>:
   12cd8:	e3c01003 	bic	r1, r0, #3
   12cdc:	e2100003 	ands	r0, r0, #3
   12ce0:	e2600000 	rsb	r0, r0, #0
   12ce4:	e4913004 	ldr	r3, [r1], #4
   12ce8:	e280c004 	add	ip, r0, #4
   12cec:	e1a0c18c 	lsl	ip, ip, #3
   12cf0:	e3e02000 	mvn	r2, #0
   12cf4:	11833c32 	orrne	r3, r3, r2, lsr ip
   12cf8:	e3a0c001 	mov	ip, #1
   12cfc:	e18cc40c 	orr	ip, ip, ip, lsl #8
   12d00:	e18cc80c 	orr	ip, ip, ip, lsl #16
   12d04:	e043200c 	sub	r2, r3, ip
   12d08:	e1c22003 	bic	r2, r2, r3
   12d0c:	e012238c 	ands	r2, r2, ip, lsl #7
   12d10:	04913004 	ldreq	r3, [r1], #4
   12d14:	02800004 	addeq	r0, r0, #4
   12d18:	0afffff9 	beq	12d04 <strlen+0x2c>
   12d1c:	e31300ff 	tst	r3, #255	; 0xff
   12d20:	12800001 	addne	r0, r0, #1
   12d24:	13130cff 	tstne	r3, #65280	; 0xff00
   12d28:	12800001 	addne	r0, r0, #1
   12d2c:	131308ff 	tstne	r3, #16711680	; 0xff0000
   12d30:	12800001 	addne	r0, r0, #1
   12d34:	e12fff1e 	bx	lr

00012d38 <strncpy>:
   12d38:	e1803001 	orr	r3, r0, r1
   12d3c:	e3130003 	tst	r3, #3
   12d40:	03a03001 	moveq	r3, #1
   12d44:	13a03000 	movne	r3, #0
   12d48:	e3520003 	cmp	r2, #3
   12d4c:	93a03000 	movls	r3, #0
   12d50:	82033001 	andhi	r3, r3, #1
   12d54:	e3530000 	cmp	r3, #0
   12d58:	e92d4070 	push	{r4, r5, r6, lr}
   12d5c:	e1a03000 	mov	r3, r0
   12d60:	0a00000b 	beq	12d94 <strncpy+0x5c>
   12d64:	e59f50a0 	ldr	r5, [pc, #160]	; 12e0c <strncpy+0xd4>
   12d68:	e59f40a0 	ldr	r4, [pc, #160]	; 12e10 <strncpy+0xd8>
   12d6c:	e1a06001 	mov	r6, r1
   12d70:	e491e004 	ldr	lr, [r1], #4
   12d74:	e08ec005 	add	ip, lr, r5
   12d78:	e1ccc00e 	bic	ip, ip, lr
   12d7c:	e11c0004 	tst	ip, r4
   12d80:	1a00001f 	bne	12e04 <strncpy+0xcc>
   12d84:	e2422004 	sub	r2, r2, #4
   12d88:	e3520003 	cmp	r2, #3
   12d8c:	e483e004 	str	lr, [r3], #4
   12d90:	8afffff5 	bhi	12d6c <strncpy+0x34>
   12d94:	e3520000 	cmp	r2, #0
   12d98:	0a00000e 	beq	12dd8 <strncpy+0xa0>
   12d9c:	e5d1c000 	ldrb	ip, [r1]
   12da0:	e35c0000 	cmp	ip, #0
   12da4:	e5c3c000 	strb	ip, [r3]
   12da8:	e2422001 	sub	r2, r2, #1
   12dac:	e2833001 	add	r3, r3, #1
   12db0:	e2811001 	add	r1, r1, #1
   12db4:	1a000005 	bne	12dd0 <strncpy+0x98>
   12db8:	ea000008 	b	12de0 <strncpy+0xa8>
   12dbc:	e4d1c001 	ldrb	ip, [r1], #1
   12dc0:	e35c0000 	cmp	ip, #0
   12dc4:	e2422001 	sub	r2, r2, #1
   12dc8:	e4c3c001 	strb	ip, [r3], #1
   12dcc:	0a000003 	beq	12de0 <strncpy+0xa8>
   12dd0:	e3520000 	cmp	r2, #0
   12dd4:	1afffff8 	bne	12dbc <strncpy+0x84>
   12dd8:	e8bd4070 	pop	{r4, r5, r6, lr}
   12ddc:	e12fff1e 	bx	lr
   12de0:	e3520000 	cmp	r2, #0
   12de4:	13a01000 	movne	r1, #0
   12de8:	10832002 	addne	r2, r3, r2
   12dec:	0afffff9 	beq	12dd8 <strncpy+0xa0>
   12df0:	e4c31001 	strb	r1, [r3], #1
   12df4:	e1520003 	cmp	r2, r3
   12df8:	1afffffc 	bne	12df0 <strncpy+0xb8>
   12dfc:	e8bd4070 	pop	{r4, r5, r6, lr}
   12e00:	e12fff1e 	bx	lr
   12e04:	e1a01006 	mov	r1, r6
   12e08:	eaffffe3 	b	12d9c <strncpy+0x64>
   12e0c:	fefefeff 	.word	0xfefefeff
   12e10:	80808080 	.word	0x80808080

00012e14 <strnlen>:
   12e14:	e3510000 	cmp	r1, #0
   12e18:	0a000010 	beq	12e60 <strnlen+0x4c>
   12e1c:	e5d03000 	ldrb	r3, [r0]
   12e20:	e3530000 	cmp	r3, #0
   12e24:	0a00000f 	beq	12e68 <strnlen+0x54>
   12e28:	e0801001 	add	r1, r0, r1
   12e2c:	e2803001 	add	r3, r0, #1
   12e30:	ea000004 	b	12e48 <strnlen+0x34>
   12e34:	e5d32000 	ldrb	r2, [r3]
   12e38:	e3520000 	cmp	r2, #0
   12e3c:	e2832001 	add	r2, r3, #1
   12e40:	0a000004 	beq	12e58 <strnlen+0x44>
   12e44:	e1a03002 	mov	r3, r2
   12e48:	e1510003 	cmp	r1, r3
   12e4c:	1afffff8 	bne	12e34 <strnlen+0x20>
   12e50:	e0410000 	sub	r0, r1, r0
   12e54:	e12fff1e 	bx	lr
   12e58:	e0430000 	sub	r0, r3, r0
   12e5c:	e12fff1e 	bx	lr
   12e60:	e1a00001 	mov	r0, r1
   12e64:	e12fff1e 	bx	lr
   12e68:	e1a00003 	mov	r0, r3
   12e6c:	e12fff1e 	bx	lr

00012e70 <sulp>:
   12e70:	e92d4070 	push	{r4, r5, r6, lr}
   12e74:	e1a04000 	mov	r4, r0
   12e78:	e1a05001 	mov	r5, r1
   12e7c:	e1a06002 	mov	r6, r2
   12e80:	ec454b10 	vmov	d0, r4, r5
   12e84:	eb000dec 	bl	1663c <__ulp>
   12e88:	e3560000 	cmp	r6, #0
   12e8c:	0a00000a 	beq	12ebc <sulp+0x4c>
   12e90:	e59f302c 	ldr	r3, [pc, #44]	; 12ec4 <sulp+0x54>
   12e94:	e0033a25 	and	r3, r3, r5, lsr #20
   12e98:	e263306b 	rsb	r3, r3, #107	; 0x6b
   12e9c:	e3530000 	cmp	r3, #0
   12ea0:	da000005 	ble	12ebc <sulp+0x4c>
   12ea4:	e3a00000 	mov	r0, #0
   12ea8:	e1a03a03 	lsl	r3, r3, #20
   12eac:	e28335ff 	add	r3, r3, #1069547520	; 0x3fc00000
   12eb0:	e2831603 	add	r1, r3, #3145728	; 0x300000
   12eb4:	ec410b17 	vmov	d7, r0, r1
   12eb8:	ee200b07 	vmul.f64	d0, d0, d7
   12ebc:	e8bd4070 	pop	{r4, r5, r6, lr}
   12ec0:	e12fff1e 	bx	lr
   12ec4:	000007ff 	.word	0x000007ff

00012ec8 <_strtod_l>:
   12ec8:	e92d4ff0 	push	{r4, r5, r6, r7, r8, r9, sl, fp, lr}
   12ecc:	e1a05003 	mov	r5, r3
   12ed0:	ed2d8b10 	vpush	{d8-d15}
   12ed4:	e3a03000 	mov	r3, #0
   12ed8:	e24dd06c 	sub	sp, sp, #108	; 0x6c
   12edc:	e1a09000 	mov	r9, r0
   12ee0:	e1a00005 	mov	r0, r5
   12ee4:	e1a0b001 	mov	fp, r1
   12ee8:	e1a0a002 	mov	sl, r2
   12eec:	e58d3058 	str	r3, [sp, #88]	; 0x58
   12ef0:	eb000b35 	bl	15bcc <__localeconv_l>
   12ef4:	e1a01000 	mov	r1, r0
   12ef8:	e5900000 	ldr	r0, [r0]
   12efc:	e58d1028 	str	r1, [sp, #40]	; 0x28
   12f00:	ebffff74 	bl	12cd8 <strlen>
   12f04:	e3a01000 	mov	r1, #0
   12f08:	e1a03000 	mov	r3, r0
   12f0c:	e3a00000 	mov	r0, #0
   12f10:	e1a0200b 	mov	r2, fp
   12f14:	e58d0010 	str	r0, [sp, #16]
   12f18:	e58d1014 	str	r1, [sp, #20]
   12f1c:	e58db054 	str	fp, [sp, #84]	; 0x54
   12f20:	e59d1028 	ldr	r1, [sp, #40]	; 0x28
   12f24:	e1a00002 	mov	r0, r2
   12f28:	e4d24001 	ldrb	r4, [r2], #1
   12f2c:	e354002d 	cmp	r4, #45	; 0x2d
   12f30:	979ff104 	ldrls	pc, [pc, r4, lsl #2]
   12f34:	ea0000e4 	b	132cc <_strtod_l+0x404>
   12f38:	000130d4 	.word	0x000130d4
   12f3c:	000132cc 	.word	0x000132cc
   12f40:	000132cc 	.word	0x000132cc
   12f44:	000132cc 	.word	0x000132cc
   12f48:	000132cc 	.word	0x000132cc
   12f4c:	000132cc 	.word	0x000132cc
   12f50:	000132cc 	.word	0x000132cc
   12f54:	000132cc 	.word	0x000132cc
   12f58:	000132cc 	.word	0x000132cc
   12f5c:	0001320c 	.word	0x0001320c
   12f60:	0001320c 	.word	0x0001320c
   12f64:	0001320c 	.word	0x0001320c
   12f68:	0001320c 	.word	0x0001320c
   12f6c:	0001320c 	.word	0x0001320c
   12f70:	000132cc 	.word	0x000132cc
   12f74:	000132cc 	.word	0x000132cc
   12f78:	000132cc 	.word	0x000132cc
   12f7c:	000132cc 	.word	0x000132cc
   12f80:	000132cc 	.word	0x000132cc
   12f84:	000132cc 	.word	0x000132cc
   12f88:	000132cc 	.word	0x000132cc
   12f8c:	000132cc 	.word	0x000132cc
   12f90:	000132cc 	.word	0x000132cc
   12f94:	000132cc 	.word	0x000132cc
   12f98:	000132cc 	.word	0x000132cc
   12f9c:	000132cc 	.word	0x000132cc
   12fa0:	000132cc 	.word	0x000132cc
   12fa4:	000132cc 	.word	0x000132cc
   12fa8:	000132cc 	.word	0x000132cc
   12fac:	000132cc 	.word	0x000132cc
   12fb0:	000132cc 	.word	0x000132cc
   12fb4:	000132cc 	.word	0x000132cc
   12fb8:	0001320c 	.word	0x0001320c
   12fbc:	000132cc 	.word	0x000132cc
   12fc0:	000132cc 	.word	0x000132cc
   12fc4:	000132cc 	.word	0x000132cc
   12fc8:	000132cc 	.word	0x000132cc
   12fcc:	000132cc 	.word	0x000132cc
   12fd0:	000132cc 	.word	0x000132cc
   12fd4:	000132cc 	.word	0x000132cc
   12fd8:	000132cc 	.word	0x000132cc
   12fdc:	000132cc 	.word	0x000132cc
   12fe0:	000132cc 	.word	0x000132cc
   12fe4:	00013110 	.word	0x00013110
   12fe8:	000132cc 	.word	0x000132cc
   12fec:	00013214 	.word	0x00013214
   12ff0:	e3a01000 	mov	r1, #0
   12ff4:	e58d102c 	str	r1, [sp, #44]	; 0x2c
   12ff8:	e28b1002 	add	r1, fp, #2
   12ffc:	e58d1054 	str	r1, [sp, #84]	; 0x54
   13000:	e5db4002 	ldrb	r4, [fp, #2]
   13004:	e2441030 	sub	r1, r4, #48	; 0x30
   13008:	e3510009 	cmp	r1, #9
   1300c:	858db054 	strhi	fp, [sp, #84]	; 0x54
   13010:	83a01000 	movhi	r1, #0
   13014:	8a000026 	bhi	130b4 <_strtod_l+0x1ec>
   13018:	e3540030 	cmp	r4, #48	; 0x30
   1301c:	1a000005 	bne	13038 <_strtod_l+0x170>
   13020:	e59d1054 	ldr	r1, [sp, #84]	; 0x54
   13024:	e2811001 	add	r1, r1, #1
   13028:	e58d1054 	str	r1, [sp, #84]	; 0x54
   1302c:	e5d14000 	ldrb	r4, [r1]
   13030:	e3540030 	cmp	r4, #48	; 0x30
   13034:	0afffffa 	beq	13024 <_strtod_l+0x15c>
   13038:	e2441031 	sub	r1, r4, #49	; 0x31
   1303c:	e3510008 	cmp	r1, #8
   13040:	8a0000bc 	bhi	13338 <_strtod_l+0x470>
   13044:	e59d1054 	ldr	r1, [sp, #84]	; 0x54
   13048:	e1a0e001 	mov	lr, r1
   1304c:	e281c001 	add	ip, r1, #1
   13050:	e58dc054 	str	ip, [sp, #84]	; 0x54
   13054:	e58d1030 	str	r1, [sp, #48]	; 0x30
   13058:	e2441030 	sub	r1, r4, #48	; 0x30
   1305c:	e5de4001 	ldrb	r4, [lr, #1]
   13060:	e244e030 	sub	lr, r4, #48	; 0x30
   13064:	e35e0009 	cmp	lr, #9
   13068:	8a000008 	bhi	13090 <_strtod_l+0x1c8>
   1306c:	e28cc001 	add	ip, ip, #1
   13070:	e58dc054 	str	ip, [sp, #84]	; 0x54
   13074:	e0811101 	add	r1, r1, r1, lsl #2
   13078:	e0841081 	add	r1, r4, r1, lsl #1
   1307c:	e5dc4000 	ldrb	r4, [ip]
   13080:	e244e030 	sub	lr, r4, #48	; 0x30
   13084:	e35e0009 	cmp	lr, #9
   13088:	e2411030 	sub	r1, r1, #48	; 0x30
   1308c:	9afffff6 	bls	1306c <_strtod_l+0x1a4>
   13090:	e59de030 	ldr	lr, [sp, #48]	; 0x30
   13094:	e04cc00e 	sub	ip, ip, lr
   13098:	e59fe7a0 	ldr	lr, [pc, #1952]	; 13840 <_strtod_l+0x978>
   1309c:	e151000e 	cmp	r1, lr
   130a0:	d35c0008 	cmple	ip, #8
   130a4:	c1a0100e 	movgt	r1, lr
   130a8:	e59dc02c 	ldr	ip, [sp, #44]	; 0x2c
   130ac:	e35c0000 	cmp	ip, #0
   130b0:	12611000 	rsbne	r1, r1, #0
   130b4:	e3550000 	cmp	r5, #0
   130b8:	1a0000a1 	bne	13344 <_strtod_l+0x47c>
   130bc:	e59d2020 	ldr	r2, [sp, #32]
   130c0:	e1933002 	orrs	r3, r3, r2
   130c4:	1a000095 	bne	13320 <_strtod_l+0x458>
   130c8:	e59d3018 	ldr	r3, [sp, #24]
   130cc:	e3530000 	cmp	r3, #0
   130d0:	0a0001ed 	beq	1388c <_strtod_l+0x9c4>
   130d4:	e35a0000 	cmp	sl, #0
   130d8:	13a03000 	movne	r3, #0
   130dc:	e3a07000 	mov	r7, #0
   130e0:	e3a08000 	mov	r8, #0
   130e4:	158d3028 	strne	r3, [sp, #40]	; 0x28
   130e8:	0a000003 	beq	130fc <_strtod_l+0x234>
   130ec:	e58ab000 	str	fp, [sl]
   130f0:	e59d3028 	ldr	r3, [sp, #40]	; 0x28
   130f4:	e3530000 	cmp	r3, #0
   130f8:	12288102 	eorne	r8, r8, #-2147483648	; 0x80000000
   130fc:	ec487b10 	vmov	d0, r7, r8
   13100:	e28dd06c 	add	sp, sp, #108	; 0x6c
   13104:	ecbd8b10 	vpop	{d8-d15}
   13108:	e8bd4ff0 	pop	{r4, r5, r6, r7, r8, r9, sl, fp, lr}
   1310c:	e12fff1e 	bx	lr
   13110:	e3a02000 	mov	r2, #0
   13114:	e58d2028 	str	r2, [sp, #40]	; 0x28
   13118:	e2808001 	add	r8, r0, #1
   1311c:	e58d8054 	str	r8, [sp, #84]	; 0x54
   13120:	e5d04001 	ldrb	r4, [r0, #1]
   13124:	e3540000 	cmp	r4, #0
   13128:	0affffe9 	beq	130d4 <_strtod_l+0x20c>
   1312c:	e3540030 	cmp	r4, #48	; 0x30
   13130:	13a02000 	movne	r2, #0
   13134:	158d2020 	strne	r2, [sp, #32]
   13138:	0a00006a 	beq	132e8 <_strtod_l+0x420>
   1313c:	e2442030 	sub	r2, r4, #48	; 0x30
   13140:	e3520009 	cmp	r2, #9
   13144:	8a000323 	bhi	13dd8 <_strtod_l+0xf10>
   13148:	e3a07000 	mov	r7, #0
   1314c:	e1a00008 	mov	r0, r8
   13150:	e1a06007 	mov	r6, r7
   13154:	e1a05007 	mov	r5, r7
   13158:	e2800001 	add	r0, r0, #1
   1315c:	e3550008 	cmp	r5, #8
   13160:	e58d0054 	str	r0, [sp, #84]	; 0x54
   13164:	c0877107 	addgt	r7, r7, r7, lsl #2
   13168:	e0862106 	add	r2, r6, r6, lsl #2
   1316c:	e0842082 	add	r2, r4, r2, lsl #1
   13170:	c0847087 	addgt	r7, r4, r7, lsl #1
   13174:	e5d04000 	ldrb	r4, [r0]
   13178:	d2426030 	suble	r6, r2, #48	; 0x30
   1317c:	e2442030 	sub	r2, r4, #48	; 0x30
   13180:	c2477030 	subgt	r7, r7, #48	; 0x30
   13184:	e3520009 	cmp	r2, #9
   13188:	e2855001 	add	r5, r5, #1
   1318c:	9afffff1 	bls	13158 <_strtod_l+0x290>
   13190:	e1a02003 	mov	r2, r3
   13194:	e5911000 	ldr	r1, [r1]
   13198:	e58d3018 	str	r3, [sp, #24]
   1319c:	eb000e21 	bl	16a28 <strncmp>
   131a0:	e3500000 	cmp	r0, #0
   131a4:	e59d3018 	ldr	r3, [sp, #24]
   131a8:	0a00001c 	beq	13220 <_strtod_l+0x358>
   131ac:	e3a03000 	mov	r3, #0
   131b0:	e1a02005 	mov	r2, r5
   131b4:	e1a00003 	mov	r0, r3
   131b8:	e58d3018 	str	r3, [sp, #24]
   131bc:	e3c41020 	bic	r1, r4, #32
   131c0:	e3510045 	cmp	r1, #69	; 0x45
   131c4:	1a00005b 	bne	13338 <_strtod_l+0x470>
   131c8:	e59dc020 	ldr	ip, [sp, #32]
   131cc:	e1851003 	orr	r1, r5, r3
   131d0:	e191100c 	orrs	r1, r1, ip
   131d4:	0affffbe 	beq	130d4 <_strtod_l+0x20c>
   131d8:	e59db054 	ldr	fp, [sp, #84]	; 0x54
   131dc:	e28b1001 	add	r1, fp, #1
   131e0:	e58d1054 	str	r1, [sp, #84]	; 0x54
   131e4:	e5db4001 	ldrb	r4, [fp, #1]
   131e8:	e354002b 	cmp	r4, #43	; 0x2b
   131ec:	0affff7f 	beq	12ff0 <_strtod_l+0x128>
   131f0:	e354002d 	cmp	r4, #45	; 0x2d
   131f4:	13a01000 	movne	r1, #0
   131f8:	03a01001 	moveq	r1, #1
   131fc:	158d102c 	strne	r1, [sp, #44]	; 0x2c
   13200:	058d102c 	streq	r1, [sp, #44]	; 0x2c
   13204:	0affff7b 	beq	12ff8 <_strtod_l+0x130>
   13208:	eaffff7d 	b	13004 <_strtod_l+0x13c>
   1320c:	e58d2054 	str	r2, [sp, #84]	; 0x54
   13210:	eaffff43 	b	12f24 <_strtod_l+0x5c>
   13214:	e3a02001 	mov	r2, #1
   13218:	e58d2028 	str	r2, [sp, #40]	; 0x28
   1321c:	eaffffbd 	b	13118 <_strtod_l+0x250>
   13220:	e59d1054 	ldr	r1, [sp, #84]	; 0x54
   13224:	e0812003 	add	r2, r1, r3
   13228:	e58d2054 	str	r2, [sp, #84]	; 0x54
   1322c:	e1a02005 	mov	r2, r5
   13230:	e7d14003 	ldrb	r4, [r1, r3]
   13234:	e1a03000 	mov	r3, r0
   13238:	e2441030 	sub	r1, r4, #48	; 0x30
   1323c:	e3510009 	cmp	r1, #9
   13240:	8a000074 	bhi	13418 <_strtod_l+0x550>
   13244:	e3510000 	cmp	r1, #0
   13248:	e283c001 	add	ip, r3, #1
   1324c:	01a0300c 	moveq	r3, ip
   13250:	e1a04001 	mov	r4, r1
   13254:	059dc054 	ldreq	ip, [sp, #84]	; 0x54
   13258:	0a000017 	beq	132bc <_strtod_l+0x3f4>
   1325c:	e35c0001 	cmp	ip, #1
   13260:	e080000c 	add	r0, r0, ip
   13264:	10833005 	addne	r3, r3, r5
   13268:	1a000001 	bne	13274 <_strtod_l+0x3ac>
   1326c:	ea000439 	b	14358 <_strtod_l+0x1490>
   13270:	e1a0500e 	mov	r5, lr
   13274:	e3550008 	cmp	r5, #8
   13278:	e086c106 	add	ip, r6, r6, lsl #2
   1327c:	e285e001 	add	lr, r5, #1
   13280:	d1a0608c 	lslle	r6, ip, #1
   13284:	da000002 	ble	13294 <_strtod_l+0x3cc>
   13288:	e35e0010 	cmp	lr, #16
   1328c:	d0877107 	addle	r7, r7, r7, lsl #2
   13290:	d1a07087 	lslle	r7, r7, #1
   13294:	e15e0003 	cmp	lr, r3
   13298:	1afffff4 	bne	13270 <_strtod_l+0x3a8>
   1329c:	e59dc054 	ldr	ip, [sp, #84]	; 0x54
   132a0:	e2855002 	add	r5, r5, #2
   132a4:	e35e0008 	cmp	lr, #8
   132a8:	da000329 	ble	13f54 <_strtod_l+0x108c>
   132ac:	e3a03000 	mov	r3, #0
   132b0:	e3550010 	cmp	r5, #16
   132b4:	d0877107 	addle	r7, r7, r7, lsl #2
   132b8:	d0817087 	addle	r7, r1, r7, lsl #1
   132bc:	e28c1001 	add	r1, ip, #1
   132c0:	e58d1054 	str	r1, [sp, #84]	; 0x54
   132c4:	e5dc4001 	ldrb	r4, [ip, #1]
   132c8:	eaffffda 	b	13238 <_strtod_l+0x370>
   132cc:	e3a02000 	mov	r2, #0
   132d0:	e3540030 	cmp	r4, #48	; 0x30
   132d4:	e58d2028 	str	r2, [sp, #40]	; 0x28
   132d8:	13a02000 	movne	r2, #0
   132dc:	e1a08000 	mov	r8, r0
   132e0:	158d2020 	strne	r2, [sp, #32]
   132e4:	1affff94 	bne	1313c <_strtod_l+0x274>
   132e8:	e5d82001 	ldrb	r2, [r8, #1]
   132ec:	e3520058 	cmp	r2, #88	; 0x58
   132f0:	0a0001f6 	beq	13ad0 <_strtod_l+0xc08>
   132f4:	e3520078 	cmp	r2, #120	; 0x78
   132f8:	0a0001f4 	beq	13ad0 <_strtod_l+0xc08>
   132fc:	e2888001 	add	r8, r8, #1
   13300:	e58d8054 	str	r8, [sp, #84]	; 0x54
   13304:	e5d84000 	ldrb	r4, [r8]
   13308:	e3540030 	cmp	r4, #48	; 0x30
   1330c:	0afffffa 	beq	132fc <_strtod_l+0x434>
   13310:	e3540000 	cmp	r4, #0
   13314:	13a02001 	movne	r2, #1
   13318:	158d2020 	strne	r2, [sp, #32]
   1331c:	1affff86 	bne	1313c <_strtod_l+0x274>
   13320:	e3a07000 	mov	r7, #0
   13324:	e3a08000 	mov	r8, #0
   13328:	e35a0000 	cmp	sl, #0
   1332c:	0affff6f 	beq	130f0 <_strtod_l+0x228>
   13330:	e59db054 	ldr	fp, [sp, #84]	; 0x54
   13334:	eaffff6c 	b	130ec <_strtod_l+0x224>
   13338:	e3550000 	cmp	r5, #0
   1333c:	e3a01000 	mov	r1, #0
   13340:	0affff5d 	beq	130bc <_strtod_l+0x1f4>
   13344:	ee076a90 	vmov	s15, r6
   13348:	e3520000 	cmp	r2, #0
   1334c:	eeb87b67 	vcvt.f64.u32	d7, s15
   13350:	01a02005 	moveq	r2, r5
   13354:	e3550010 	cmp	r5, #16
   13358:	b1a03005 	movlt	r3, r5
   1335c:	a3a03010 	movge	r3, #16
   13360:	ed8d7b06 	vstr	d7, [sp, #24]
   13364:	e0414000 	sub	r4, r1, r0
   13368:	e28d1018 	add	r1, sp, #24
   1336c:	e8910003 	ldm	r1, {r0, r1}
   13370:	e3530009 	cmp	r3, #9
   13374:	e58d0010 	str	r0, [sp, #16]
   13378:	e58d1014 	str	r1, [sp, #20]
   1337c:	da000007 	ble	133a0 <_strtod_l+0x4d8>
   13380:	ee077a90 	vmov	s15, r7
   13384:	e59f14b8 	ldr	r1, [pc, #1208]	; 13844 <_strtod_l+0x97c>
   13388:	e0811183 	add	r1, r1, r3, lsl #3
   1338c:	ed116b12 	vldr	d6, [r1, #-72]	; 0xffffffb8
   13390:	eeb87b67 	vcvt.f64.u32	d7, s15
   13394:	ed9d5b06 	vldr	d5, [sp, #24]
   13398:	ee057b06 	vmla.f64	d7, d5, d6
   1339c:	ed8d7b04 	vstr	d7, [sp, #16]
   133a0:	e355000f 	cmp	r5, #15
   133a4:	ca00001e 	bgt	13424 <_strtod_l+0x55c>
   133a8:	e3540000 	cmp	r4, #0
   133ac:	0a000016 	beq	1340c <_strtod_l+0x544>
   133b0:	da0002fa 	ble	13fa0 <_strtod_l+0x10d8>
   133b4:	e3540016 	cmp	r4, #22
   133b8:	ca0002e9 	bgt	13f64 <_strtod_l+0x109c>
   133bc:	e59f0480 	ldr	r0, [pc, #1152]	; 13844 <_strtod_l+0x97c>
   133c0:	e0800184 	add	r0, r0, r4, lsl #3
   133c4:	ed907b00 	vldr	d7, [r0]
   133c8:	ed9d6b04 	vldr	d6, [sp, #16]
   133cc:	ee277b06 	vmul.f64	d7, d7, d6
   133d0:	ec587b17 	vmov	r7, r8, d7
   133d4:	eaffffd3 	b	13328 <_strtod_l+0x460>
   133d8:	e28d0054 	add	r0, sp, #84	; 0x54
   133dc:	e59f1464 	ldr	r1, [pc, #1124]	; 13848 <_strtod_l+0x980>
   133e0:	eb000942 	bl	158f0 <__match>
   133e4:	e3500000 	cmp	r0, #0
   133e8:	0affff39 	beq	130d4 <_strtod_l+0x20c>
   133ec:	e59d3054 	ldr	r3, [sp, #84]	; 0x54
   133f0:	e5d33000 	ldrb	r3, [r3]
   133f4:	e3530028 	cmp	r3, #40	; 0x28
   133f8:	0a000376 	beq	141d8 <_strtod_l+0x1310>
   133fc:	e59f3448 	ldr	r3, [pc, #1096]	; 1384c <_strtod_l+0x984>
   13400:	e58d3014 	str	r3, [sp, #20]
   13404:	e3a03000 	mov	r3, #0
   13408:	e58d3010 	str	r3, [sp, #16]
   1340c:	e28d8010 	add	r8, sp, #16
   13410:	e8980180 	ldm	r8, {r7, r8}
   13414:	eaffffc3 	b	13328 <_strtod_l+0x460>
   13418:	e3a01001 	mov	r1, #1
   1341c:	e58d1018 	str	r1, [sp, #24]
   13420:	eaffff65 	b	131bc <_strtod_l+0x2f4>
   13424:	e0453003 	sub	r3, r5, r3
   13428:	e0833004 	add	r3, r3, r4
   1342c:	e3530000 	cmp	r3, #0
   13430:	da000235 	ble	13d0c <_strtod_l+0xe44>
   13434:	e213000f 	ands	r0, r3, #15
   13438:	0a000005 	beq	13454 <_strtod_l+0x58c>
   1343c:	e59f1400 	ldr	r1, [pc, #1024]	; 13844 <_strtod_l+0x97c>
   13440:	e0811180 	add	r1, r1, r0, lsl #3
   13444:	ed9d6b04 	vldr	d6, [sp, #16]
   13448:	ed917b00 	vldr	d7, [r1]
   1344c:	ee277b06 	vmul.f64	d7, d7, d6
   13450:	ed8d7b04 	vstr	d7, [sp, #16]
   13454:	e3d3300f 	bics	r3, r3, #15
   13458:	1a000135 	bne	13934 <_strtod_l+0xa6c>
   1345c:	e3a03000 	mov	r3, #0
   13460:	e58d3018 	str	r3, [sp, #24]
   13464:	e1a03005 	mov	r3, r5
   13468:	e58d6000 	str	r6, [sp]
   1346c:	e1a01008 	mov	r1, r8
   13470:	e1a00009 	mov	r0, r9
   13474:	eb000a7c 	bl	15e6c <__s2b>
   13478:	e2503000 	subs	r3, r0, #0
   1347c:	e58d3044 	str	r3, [sp, #68]	; 0x44
   13480:	0a0001ca 	beq	13bb0 <_strtod_l+0xce8>
   13484:	e3a02000 	mov	r2, #0
   13488:	e1540002 	cmp	r4, r2
   1348c:	a3a01000 	movge	r1, #0
   13490:	e1a0b002 	mov	fp, r2
   13494:	b2641000 	rsblt	r1, r4, #0
   13498:	e1a05002 	mov	r5, r2
   1349c:	e1c42fc4 	bic	r2, r4, r4, asr #31
   134a0:	e58d102c 	str	r1, [sp, #44]	; 0x2c
   134a4:	ed9f9bd9 	vldr	d9, [pc, #868]	; 13810 <_strtod_l+0x948>
   134a8:	ed9fbbda 	vldr	d11, [pc, #872]	; 13818 <_strtod_l+0x950>
   134ac:	ed9fabdb 	vldr	d10, [pc, #876]	; 13820 <_strtod_l+0x958>
   134b0:	ed9fcbdc 	vldr	d12, [pc, #880]	; 13828 <_strtod_l+0x960>
   134b4:	ed9fdbdd 	vldr	d13, [pc, #884]	; 13830 <_strtod_l+0x968>
   134b8:	e1a07002 	mov	r7, r2
   134bc:	e1a08003 	mov	r8, r3
   134c0:	e58da040 	str	sl, [sp, #64]	; 0x40
   134c4:	ea0000a0 	b	1374c <_strtod_l+0x884>
   134c8:	e0411003 	sub	r1, r1, r3
   134cc:	e351001f 	cmp	r1, #31
   134d0:	e0400001 	sub	r0, r0, r1
   134d4:	ca000164 	bgt	13a6c <_strtod_l+0xba4>
   134d8:	e3a03001 	mov	r3, #1
   134dc:	e1a03113 	lsl	r3, r3, r1
   134e0:	e58d3034 	str	r3, [sp, #52]	; 0x34
   134e4:	e3a03000 	mov	r3, #0
   134e8:	e58d3038 	str	r3, [sp, #56]	; 0x38
   134ec:	e0863000 	add	r3, r6, r0
   134f0:	e1560003 	cmp	r6, r3
   134f4:	a1a02003 	movge	r2, r3
   134f8:	b1a02006 	movlt	r2, r6
   134fc:	e59d1018 	ldr	r1, [sp, #24]
   13500:	e0844000 	add	r4, r4, r0
   13504:	e0814004 	add	r4, r1, r4
   13508:	e1520004 	cmp	r2, r4
   1350c:	a1a02004 	movge	r2, r4
   13510:	e3520000 	cmp	r2, #0
   13514:	c0433002 	subgt	r3, r3, r2
   13518:	c0444002 	subgt	r4, r4, r2
   1351c:	c0466002 	subgt	r6, r6, r2
   13520:	e59d202c 	ldr	r2, [sp, #44]	; 0x2c
   13524:	e3520000 	cmp	r2, #0
   13528:	0a000016 	beq	13588 <_strtod_l+0x6c0>
   1352c:	e1a01005 	mov	r1, r5
   13530:	e1a00009 	mov	r0, r9
   13534:	e58d3030 	str	r3, [sp, #48]	; 0x30
   13538:	eb000b42 	bl	16248 <__pow5mult>
   1353c:	e2505000 	subs	r5, r0, #0
   13540:	e59d3030 	ldr	r3, [sp, #48]	; 0x30
   13544:	0a0001a3 	beq	13bd8 <_strtod_l+0xd10>
   13548:	e59d2058 	ldr	r2, [sp, #88]	; 0x58
   1354c:	e1a01005 	mov	r1, r5
   13550:	e1a00009 	mov	r0, r9
   13554:	e58d3030 	str	r3, [sp, #48]	; 0x30
   13558:	eb000ac6 	bl	16078 <__multiply>
   1355c:	e2502000 	subs	r2, r0, #0
   13560:	e59d3030 	ldr	r3, [sp, #48]	; 0x30
   13564:	0a00019b 	beq	13bd8 <_strtod_l+0xd10>
   13568:	e59d1058 	ldr	r1, [sp, #88]	; 0x58
   1356c:	e1a00009 	mov	r0, r9
   13570:	e58d203c 	str	r2, [sp, #60]	; 0x3c
   13574:	e58d3030 	str	r3, [sp, #48]	; 0x30
   13578:	eb0009fd 	bl	15d74 <_Bfree>
   1357c:	e59d203c 	ldr	r2, [sp, #60]	; 0x3c
   13580:	e59d3030 	ldr	r3, [sp, #48]	; 0x30
   13584:	e58d2058 	str	r2, [sp, #88]	; 0x58
   13588:	e3530000 	cmp	r3, #0
   1358c:	da000006 	ble	135ac <_strtod_l+0x6e4>
   13590:	e1a02003 	mov	r2, r3
   13594:	e59d1058 	ldr	r1, [sp, #88]	; 0x58
   13598:	e1a00009 	mov	r0, r9
   1359c:	eb000b6a 	bl	1634c <__lshift>
   135a0:	e3500000 	cmp	r0, #0
   135a4:	e58d0058 	str	r0, [sp, #88]	; 0x58
   135a8:	0a000285 	beq	13fc4 <_strtod_l+0x10fc>
   135ac:	e3570000 	cmp	r7, #0
   135b0:	0a000005 	beq	135cc <_strtod_l+0x704>
   135b4:	e1a0100a 	mov	r1, sl
   135b8:	e1a02007 	mov	r2, r7
   135bc:	e1a00009 	mov	r0, r9
   135c0:	eb000b20 	bl	16248 <__pow5mult>
   135c4:	e250a000 	subs	sl, r0, #0
   135c8:	0a000182 	beq	13bd8 <_strtod_l+0xd10>
   135cc:	e3540000 	cmp	r4, #0
   135d0:	da000005 	ble	135ec <_strtod_l+0x724>
   135d4:	e1a0100a 	mov	r1, sl
   135d8:	e1a02004 	mov	r2, r4
   135dc:	e1a00009 	mov	r0, r9
   135e0:	eb000b59 	bl	1634c <__lshift>
   135e4:	e250a000 	subs	sl, r0, #0
   135e8:	0a00017a 	beq	13bd8 <_strtod_l+0xd10>
   135ec:	e3560000 	cmp	r6, #0
   135f0:	da000005 	ble	1360c <_strtod_l+0x744>
   135f4:	e1a01005 	mov	r1, r5
   135f8:	e1a02006 	mov	r2, r6
   135fc:	e1a00009 	mov	r0, r9
   13600:	eb000b51 	bl	1634c <__lshift>
   13604:	e2505000 	subs	r5, r0, #0
   13608:	0a000172 	beq	13bd8 <_strtod_l+0xd10>
   1360c:	e1a0200a 	mov	r2, sl
   13610:	e59d1058 	ldr	r1, [sp, #88]	; 0x58
   13614:	e1a00009 	mov	r0, r9
   13618:	eb000b9d 	bl	16494 <__mdiff>
   1361c:	e250b000 	subs	fp, r0, #0
   13620:	0a00016c 	beq	13bd8 <_strtod_l+0xd10>
   13624:	e3a03000 	mov	r3, #0
   13628:	e59b400c 	ldr	r4, [fp, #12]
   1362c:	e1a01005 	mov	r1, r5
   13630:	e58b300c 	str	r3, [fp, #12]
   13634:	eb000b7e 	bl	16434 <__mcmp>
   13638:	e3500000 	cmp	r0, #0
   1363c:	ba0002a2 	blt	140cc <_strtod_l+0x1204>
   13640:	0a00026f 	beq	14004 <_strtod_l+0x113c>
   13644:	e1a01005 	mov	r1, r5
   13648:	e1a0000b 	mov	r0, fp
   1364c:	eb000c94 	bl	168a4 <__ratio>
   13650:	eeb40bc9 	vcmpe.f64	d0, d9
   13654:	eef1fa10 	vmrs	APSR_nzcv, fpscr
   13658:	8a0000fc 	bhi	13a50 <_strtod_l+0xb88>
   1365c:	e3540000 	cmp	r4, #0
   13660:	0a000108 	beq	13a88 <_strtod_l+0xbc0>
   13664:	e3a02000 	mov	r2, #0
   13668:	eeb0eb4a 	vmov.f64	d14, d10
   1366c:	e59f31dc 	ldr	r3, [pc, #476]	; 13850 <_strtod_l+0x988>
   13670:	e59d0014 	ldr	r0, [sp, #20]
   13674:	e59f120c 	ldr	r1, [pc, #524]	; 13888 <_strtod_l+0x9c0>
   13678:	e59fc1d4 	ldr	ip, [pc, #468]	; 13854 <_strtod_l+0x98c>
   1367c:	e0006001 	and	r6, r0, r1
   13680:	e156000c 	cmp	r6, ip
   13684:	0a00012b 	beq	13b38 <_strtod_l+0xc70>
   13688:	e59d1018 	ldr	r1, [sp, #24]
   1368c:	e2911000 	adds	r1, r1, #0
   13690:	13a01001 	movne	r1, #1
   13694:	e356066a 	cmp	r6, #111149056	; 0x6a00000
   13698:	83a01000 	movhi	r1, #0
   1369c:	e3510000 	cmp	r1, #0
   136a0:	0a00000e 	beq	136e0 <_strtod_l+0x818>
   136a4:	ed9f7b63 	vldr	d7, [pc, #396]	; 13838 <_strtod_l+0x970>
   136a8:	eeb4ebc7 	vcmpe.f64	d14, d7
   136ac:	eef1fa10 	vmrs	APSR_nzcv, fpscr
   136b0:	8a000008 	bhi	136d8 <_strtod_l+0x810>
   136b4:	eebcebce 	vcvt.u32.f64	s28, d14
   136b8:	ee1e3a10 	vmov	r3, s28
   136bc:	e3530000 	cmp	r3, #0
   136c0:	0eb0eb4a 	vmoveq.f64	d14, d10
   136c4:	1eb8eb4e 	vcvtne.f64.u32	d14, s28
   136c8:	e3540000 	cmp	r4, #0
   136cc:	0eb17b4e 	vnegeq.f64	d7, d14
   136d0:	1c532b1e 	vmovne	r2, r3, d14
   136d4:	0c532b17 	vmoveq	r2, r3, d7
   136d8:	e283166b 	add	r1, r3, #112197632	; 0x6b00000
   136dc:	e0413006 	sub	r3, r1, r6
   136e0:	ed9d0b08 	vldr	d0, [sp, #32]
   136e4:	ec432b18 	vmov	d8, r2, r3
   136e8:	eb000bd3 	bl	1663c <__ulp>
   136ec:	ed9d7b08 	vldr	d7, [sp, #32]
   136f0:	ee087b00 	vmla.f64	d7, d8, d0
   136f4:	ec532b17 	vmov	r2, r3, d7
   136f8:	e58d2010 	str	r2, [sp, #16]
   136fc:	e58d3014 	str	r3, [sp, #20]
   13700:	e1a02003 	mov	r2, r3
   13704:	e59f317c 	ldr	r3, [pc, #380]	; 13888 <_strtod_l+0x9c0>
   13708:	e59d1018 	ldr	r1, [sp, #24]
   1370c:	e0033002 	and	r3, r3, r2
   13710:	e1530006 	cmp	r3, r6
   13714:	03510000 	cmpeq	r1, #0
   13718:	0a00014a 	beq	13c48 <_strtod_l+0xd80>
   1371c:	e59d1058 	ldr	r1, [sp, #88]	; 0x58
   13720:	e1a00009 	mov	r0, r9
   13724:	eb000992 	bl	15d74 <_Bfree>
   13728:	e1a0100a 	mov	r1, sl
   1372c:	e1a00009 	mov	r0, r9
   13730:	eb00098f 	bl	15d74 <_Bfree>
   13734:	e1a01005 	mov	r1, r5
   13738:	e1a00009 	mov	r0, r9
   1373c:	eb00098c 	bl	15d74 <_Bfree>
   13740:	e1a0100b 	mov	r1, fp
   13744:	e1a00009 	mov	r0, r9
   13748:	eb000989 	bl	15d74 <_Bfree>
   1374c:	e5981004 	ldr	r1, [r8, #4]
   13750:	e1a00009 	mov	r0, r9
   13754:	eb000963 	bl	15ce8 <_Balloc>
   13758:	e250a000 	subs	sl, r0, #0
   1375c:	0a00011d 	beq	13bd8 <_strtod_l+0xd10>
   13760:	ed9d7b04 	vldr	d7, [sp, #16]
   13764:	e5982010 	ldr	r2, [r8, #16]
   13768:	e2822002 	add	r2, r2, #2
   1376c:	e1a02102 	lsl	r2, r2, #2
   13770:	e288100c 	add	r1, r8, #12
   13774:	e28a000c 	add	r0, sl, #12
   13778:	ed8d7b08 	vstr	d7, [sp, #32]
   1377c:	ebfffc30 	bl	12844 <memcpy>
   13780:	ed9d0b08 	vldr	d0, [sp, #32]
   13784:	e28d2060 	add	r2, sp, #96	; 0x60
   13788:	e28d105c 	add	r1, sp, #92	; 0x5c
   1378c:	e1a00009 	mov	r0, r9
   13790:	eb000bff 	bl	16794 <__d2b>
   13794:	e3500000 	cmp	r0, #0
   13798:	e58d0058 	str	r0, [sp, #88]	; 0x58
   1379c:	0a000208 	beq	13fc4 <_strtod_l+0x10fc>
   137a0:	e3a01001 	mov	r1, #1
   137a4:	e1a00009 	mov	r0, r9
   137a8:	eb000a29 	bl	16054 <__i2b>
   137ac:	e2505000 	subs	r5, r0, #0
   137b0:	0a000108 	beq	13bd8 <_strtod_l+0xd10>
   137b4:	e59d305c 	ldr	r3, [sp, #92]	; 0x5c
   137b8:	e3530000 	cmp	r3, #0
   137bc:	b1a02007 	movlt	r2, r7
   137c0:	a59d202c 	ldrge	r2, [sp, #44]	; 0x2c
   137c4:	e59d1018 	ldr	r1, [sp, #24]
   137c8:	a0826003 	addge	r6, r2, r3
   137cc:	b0424003 	sublt	r4, r2, r3
   137d0:	e59d2060 	ldr	r2, [sp, #96]	; 0x60
   137d4:	e0433001 	sub	r3, r3, r1
   137d8:	e0833002 	add	r3, r3, r2
   137dc:	e59f1074 	ldr	r1, [pc, #116]	; 13858 <_strtod_l+0x990>
   137e0:	e2433001 	sub	r3, r3, #1
   137e4:	a1a04007 	movge	r4, r7
   137e8:	b59d602c 	ldrlt	r6, [sp, #44]	; 0x2c
   137ec:	e1530001 	cmp	r3, r1
   137f0:	e2620036 	rsb	r0, r2, #54	; 0x36
   137f4:	baffff33 	blt	134c8 <_strtod_l+0x600>
   137f8:	e3a03000 	mov	r3, #0
   137fc:	e58d3038 	str	r3, [sp, #56]	; 0x38
   13800:	e3a03001 	mov	r3, #1
   13804:	e58d3034 	str	r3, [sp, #52]	; 0x34
   13808:	eaffff37 	b	134ec <_strtod_l+0x624>
   1380c:	e1a00000 	nop			; (mov r0, r0)
   13810:	00000000 	.word	0x00000000
   13814:	40000000 	.word	0x40000000
   13818:	00000000 	.word	0x00000000
   1381c:	3fe00000 	.word	0x3fe00000
   13820:	00000000 	.word	0x00000000
   13824:	3ff00000 	.word	0x3ff00000
   13828:	94a03595 	.word	0x94a03595
   1382c:	3fdfffff 	.word	0x3fdfffff
   13830:	35afe535 	.word	0x35afe535
   13834:	3fe00000 	.word	0x3fe00000
   13838:	ffc00000 	.word	0xffc00000
   1383c:	41dfffff 	.word	0x41dfffff
   13840:	00004e1f 	.word	0x00004e1f
   13844:	00019c10 	.word	0x00019c10
   13848:	00019988 	.word	0x00019988
   1384c:	fff80000 	.word	0xfff80000
   13850:	3ff00000 	.word	0x3ff00000
   13854:	7fe00000 	.word	0x7fe00000
   13858:	fffffc02 	.word	0xfffffc02
   1385c:	00019be8 	.word	0x00019be8
   13860:	7ca00000 	.word	0x7ca00000
   13864:	7c900000 	.word	0x7c900000
   13868:	0001997c 	.word	0x0001997c
   1386c:	00019980 	.word	0x00019980
   13870:	fffffbe2 	.word	0xfffffbe2
   13874:	bfe00000 	.word	0xbfe00000
   13878:	0001998c 	.word	0x0001998c
   1387c:	bff00000 	.word	0xbff00000
   13880:	7c9fffff 	.word	0x7c9fffff
   13884:	7fefffff 	.word	0x7fefffff
   13888:	7ff00000 	.word	0x7ff00000
   1388c:	e2444049 	sub	r4, r4, #73	; 0x49
   13890:	e3540025 	cmp	r4, #37	; 0x25
   13894:	979ff104 	ldrls	pc, [pc, r4, lsl #2]
   13898:	eafffe0d 	b	130d4 <_strtod_l+0x20c>
   1389c:	00013a00 	.word	0x00013a00
   138a0:	000130d4 	.word	0x000130d4
   138a4:	000130d4 	.word	0x000130d4
   138a8:	000130d4 	.word	0x000130d4
   138ac:	000130d4 	.word	0x000130d4
   138b0:	000133d8 	.word	0x000133d8
   138b4:	000130d4 	.word	0x000130d4
   138b8:	000130d4 	.word	0x000130d4
   138bc:	000130d4 	.word	0x000130d4
   138c0:	000130d4 	.word	0x000130d4
   138c4:	000130d4 	.word	0x000130d4
   138c8:	000130d4 	.word	0x000130d4
   138cc:	000130d4 	.word	0x000130d4
   138d0:	000130d4 	.word	0x000130d4
   138d4:	000130d4 	.word	0x000130d4
   138d8:	000130d4 	.word	0x000130d4
   138dc:	000130d4 	.word	0x000130d4
   138e0:	000130d4 	.word	0x000130d4
   138e4:	000130d4 	.word	0x000130d4
   138e8:	000130d4 	.word	0x000130d4
   138ec:	000130d4 	.word	0x000130d4
   138f0:	000130d4 	.word	0x000130d4
   138f4:	000130d4 	.word	0x000130d4
   138f8:	000130d4 	.word	0x000130d4
   138fc:	000130d4 	.word	0x000130d4
   13900:	000130d4 	.word	0x000130d4
   13904:	000130d4 	.word	0x000130d4
   13908:	000130d4 	.word	0x000130d4
   1390c:	000130d4 	.word	0x000130d4
   13910:	000130d4 	.word	0x000130d4
   13914:	000130d4 	.word	0x000130d4
   13918:	000130d4 	.word	0x000130d4
   1391c:	00013a00 	.word	0x00013a00
   13920:	000130d4 	.word	0x000130d4
   13924:	000130d4 	.word	0x000130d4
   13928:	000130d4 	.word	0x000130d4
   1392c:	000130d4 	.word	0x000130d4
   13930:	000133d8 	.word	0x000133d8
   13934:	e3530f4d 	cmp	r3, #308	; 0x134
   13938:	ca00009c 	bgt	13bb0 <_strtod_l+0xce8>
   1393c:	e1a03243 	asr	r3, r3, #4
   13940:	e3530001 	cmp	r3, #1
   13944:	da000220 	ble	141cc <_strtod_l+0x1304>
   13948:	e3a0c000 	mov	ip, #0
   1394c:	ed9d7b04 	vldr	d7, [sp, #16]
   13950:	e51f70fc 	ldr	r7, [pc, #-252]	; 1385c <_strtod_l+0x994>
   13954:	ed8d7b06 	vstr	d7, [sp, #24]
   13958:	e1a0000c 	mov	r0, ip
   1395c:	e1a01007 	mov	r1, r7
   13960:	e3a0e001 	mov	lr, #1
   13964:	e3130001 	tst	r3, #1
   13968:	1d917b00 	vldrne	d7, [r1]
   1396c:	1d9d6b06 	vldrne	d6, [sp, #24]
   13970:	1e267b07 	vmulne.f64	d7, d6, d7
   13974:	e1a030c3 	asr	r3, r3, #1
   13978:	11a0c00e 	movne	ip, lr
   1397c:	1d8d7b06 	vstrne	d7, [sp, #24]
   13980:	e3530001 	cmp	r3, #1
   13984:	e2800001 	add	r0, r0, #1
   13988:	e2811008 	add	r1, r1, #8
   1398c:	1afffff4 	bne	13964 <_strtod_l+0xa9c>
   13990:	e35c0000 	cmp	ip, #0
   13994:	1a000265 	bne	14330 <_strtod_l+0x1468>
   13998:	e59d3014 	ldr	r3, [sp, #20]
   1399c:	e2433635 	sub	r3, r3, #55574528	; 0x3500000
   139a0:	e58d3014 	str	r3, [sp, #20]
   139a4:	e0870180 	add	r0, r7, r0, lsl #3
   139a8:	ed9d6b04 	vldr	d6, [sp, #16]
   139ac:	ed907b00 	vldr	d7, [r0]
   139b0:	ee277b06 	vmul.f64	d7, d7, d6
   139b4:	ec5cbb17 	vmov	fp, ip, d7
   139b8:	e3cc3102 	bic	r3, ip, #-2147483648	; 0x80000000
   139bc:	e1a03a23 	lsr	r3, r3, #20
   139c0:	e51f1168 	ldr	r1, [pc, #-360]	; 13860 <_strtod_l+0x998>
   139c4:	e1a03a03 	lsl	r3, r3, #20
   139c8:	e1530001 	cmp	r3, r1
   139cc:	e58db010 	str	fp, [sp, #16]
   139d0:	e58dc014 	str	ip, [sp, #20]
   139d4:	8a000075 	bhi	13bb0 <_strtod_l+0xce8>
   139d8:	e51f017c 	ldr	r0, [pc, #-380]	; 13864 <_strtod_l+0x99c>
   139dc:	e1530000 	cmp	r3, r0
   139e0:	9a0001e4 	bls	14178 <_strtod_l+0x12b0>
   139e4:	e51f3168 	ldr	r3, [pc, #-360]	; 13884 <_strtod_l+0x9bc>
   139e8:	e58d3014 	str	r3, [sp, #20]
   139ec:	e3a03000 	mov	r3, #0
   139f0:	e58d3018 	str	r3, [sp, #24]
   139f4:	e3e03000 	mvn	r3, #0
   139f8:	e58d3010 	str	r3, [sp, #16]
   139fc:	eafffe98 	b	13464 <_strtod_l+0x59c>
   13a00:	e28d0054 	add	r0, sp, #84	; 0x54
   13a04:	e51f11a4 	ldr	r1, [pc, #-420]	; 13868 <_strtod_l+0x9a0>
   13a08:	eb0007b8 	bl	158f0 <__match>
   13a0c:	e3500000 	cmp	r0, #0
   13a10:	0afffdaf 	beq	130d4 <_strtod_l+0x20c>
   13a14:	e59d3054 	ldr	r3, [sp, #84]	; 0x54
   13a18:	e28d0054 	add	r0, sp, #84	; 0x54
   13a1c:	e2433001 	sub	r3, r3, #1
   13a20:	e51f11bc 	ldr	r1, [pc, #-444]	; 1386c <_strtod_l+0x9a4>
   13a24:	e58d3054 	str	r3, [sp, #84]	; 0x54
   13a28:	eb0007b0 	bl	158f0 <__match>
   13a2c:	e3500000 	cmp	r0, #0
   13a30:	059d3054 	ldreq	r3, [sp, #84]	; 0x54
   13a34:	02833001 	addeq	r3, r3, #1
   13a38:	058d3054 	streq	r3, [sp, #84]	; 0x54
   13a3c:	e51f31bc 	ldr	r3, [pc, #-444]	; 13888 <_strtod_l+0x9c0>
   13a40:	e58d3014 	str	r3, [sp, #20]
   13a44:	e3a03000 	mov	r3, #0
   13a48:	e58d3010 	str	r3, [sp, #16]
   13a4c:	eafffe6e 	b	1340c <_strtod_l+0x544>
   13a50:	ee20eb0b 	vmul.f64	d14, d0, d11
   13a54:	e3540000 	cmp	r4, #0
   13a58:	0eb17b4e 	vnegeq.f64	d7, d14
   13a5c:	1c532b1e 	vmovne	r2, r3, d14
   13a60:	0c532b17 	vmoveq	r2, r3, d7
   13a64:	e59d0014 	ldr	r0, [sp, #20]
   13a68:	eaffff01 	b	13674 <_strtod_l+0x7ac>
   13a6c:	e3a01001 	mov	r1, #1
   13a70:	e51f2208 	ldr	r2, [pc, #-520]	; 13870 <_strtod_l+0x9a8>
   13a74:	e0422003 	sub	r2, r2, r3
   13a78:	e1a03211 	lsl	r3, r1, r2
   13a7c:	e58d3038 	str	r3, [sp, #56]	; 0x38
   13a80:	e58d1034 	str	r1, [sp, #52]	; 0x34
   13a84:	eafffe98 	b	134ec <_strtod_l+0x624>
   13a88:	e28d2010 	add	r2, sp, #16
   13a8c:	e8920006 	ldm	r2, {r1, r2}
   13a90:	e3510000 	cmp	r1, #0
   13a94:	1a000082 	bne	13ca4 <_strtod_l+0xddc>
   13a98:	e3c234ff 	bic	r3, r2, #-16777216	; 0xff000000
   13a9c:	e3c3360f 	bic	r3, r3, #15728640	; 0xf00000
   13aa0:	e3530000 	cmp	r3, #0
   13aa4:	e1a00002 	mov	r0, r2
   13aa8:	1a00001e 	bne	13b28 <_strtod_l+0xc60>
   13aac:	eeb40bca 	vcmpe.f64	d0, d10
   13ab0:	eef1fa10 	vmrs	APSR_nzcv, fpscr
   13ab4:	5e20eb0b 	vmulpl.f64	d14, d0, d11
   13ab8:	5eb17b4e 	vnegpl.f64	d7, d14
   13abc:	43a02000 	movmi	r2, #0
   13ac0:	5c532b17 	vmovpl	r2, r3, d7
   13ac4:	451f3258 	ldrmi	r3, [pc, #-600]	; 13874 <_strtod_l+0x9ac>
   13ac8:	4eb0eb4b 	vmovmi.f64	d14, d11
   13acc:	eafffee8 	b	13674 <_strtod_l+0x7ac>
   13ad0:	e59d2028 	ldr	r2, [sp, #40]	; 0x28
   13ad4:	e28d3058 	add	r3, sp, #88	; 0x58
   13ad8:	e58d5008 	str	r5, [sp, #8]
   13adc:	e58d2004 	str	r2, [sp, #4]
   13ae0:	e58d3000 	str	r3, [sp]
   13ae4:	e51f2274 	ldr	r2, [pc, #-628]	; 13878 <_strtod_l+0x9b0>
   13ae8:	e28d305c 	add	r3, sp, #92	; 0x5c
   13aec:	e28d1054 	add	r1, sp, #84	; 0x54
   13af0:	e1a00009 	mov	r0, r9
   13af4:	eb00057c 	bl	150ec <__gethex>
   13af8:	e2105007 	ands	r5, r0, #7
   13afc:	e1a04000 	mov	r4, r0
   13b00:	0afffe06 	beq	13320 <_strtod_l+0x458>
   13b04:	e3550006 	cmp	r5, #6
   13b08:	1a0000dd 	bne	13e84 <_strtod_l+0xfbc>
   13b0c:	e3a03000 	mov	r3, #0
   13b10:	e2888001 	add	r8, r8, #1
   13b14:	e58d8054 	str	r8, [sp, #84]	; 0x54
   13b18:	e3a07000 	mov	r7, #0
   13b1c:	e3a08000 	mov	r8, #0
   13b20:	e58d3028 	str	r3, [sp, #40]	; 0x28
   13b24:	eafffdff 	b	13328 <_strtod_l+0x460>
   13b28:	e3a02000 	mov	r2, #0
   13b2c:	e51f32b8 	ldr	r3, [pc, #-696]	; 1387c <_strtod_l+0x9b4>
   13b30:	eeb0eb4a 	vmov.f64	d14, d10
   13b34:	eafffece 	b	13674 <_strtod_l+0x7ac>
   13b38:	e58d1030 	str	r1, [sp, #48]	; 0x30
   13b3c:	e2401635 	sub	r1, r0, #55574528	; 0x3500000
   13b40:	e58d1014 	str	r1, [sp, #20]
   13b44:	ed9dfb04 	vldr	d15, [sp, #16]
   13b48:	eeb00b4f 	vmov.f64	d0, d15
   13b4c:	ec432b18 	vmov	d8, r2, r3
   13b50:	eb000ab9 	bl	1663c <__ulp>
   13b54:	ee08fb00 	vmla.f64	d15, d8, d0
   13b58:	ec521b1f 	vmov	r1, r2, d15
   13b5c:	e58d1010 	str	r1, [sp, #16]
   13b60:	e58d2014 	str	r2, [sp, #20]
   13b64:	e59d1030 	ldr	r1, [sp, #48]	; 0x30
   13b68:	e51f32f0 	ldr	r3, [pc, #-752]	; 13880 <_strtod_l+0x9b8>
   13b6c:	e0011002 	and	r1, r1, r2
   13b70:	e1510003 	cmp	r1, r3
   13b74:	e28d3020 	add	r3, sp, #32
   13b78:	e893000c 	ldm	r3, {r2, r3}
   13b7c:	e1a01002 	mov	r1, r2
   13b80:	e1a02003 	mov	r2, r3
   13b84:	e58d1048 	str	r1, [sp, #72]	; 0x48
   13b88:	e58d204c 	str	r2, [sp, #76]	; 0x4c
   13b8c:	9a0000b8 	bls	13e74 <_strtod_l+0xfac>
   13b90:	e51f3314 	ldr	r3, [pc, #-788]	; 13884 <_strtod_l+0x9bc>
   13b94:	e1520003 	cmp	r2, r3
   13b98:	0a00000b 	beq	13bcc <_strtod_l+0xd04>
   13b9c:	e51f3320 	ldr	r3, [pc, #-800]	; 13884 <_strtod_l+0x9bc>
   13ba0:	e58d3014 	str	r3, [sp, #20]
   13ba4:	e3e03000 	mvn	r3, #0
   13ba8:	e58d3010 	str	r3, [sp, #16]
   13bac:	eafffeda 	b	1371c <_strtod_l+0x854>
   13bb0:	e51f3330 	ldr	r3, [pc, #-816]	; 13888 <_strtod_l+0x9c0>
   13bb4:	e3a02000 	mov	r2, #0
   13bb8:	e58d3014 	str	r3, [sp, #20]
   13bbc:	e3a03022 	mov	r3, #34	; 0x22
   13bc0:	e58d2010 	str	r2, [sp, #16]
   13bc4:	e5893000 	str	r3, [r9]
   13bc8:	eafffe0f 	b	1340c <_strtod_l+0x544>
   13bcc:	e59d3048 	ldr	r3, [sp, #72]	; 0x48
   13bd0:	e3730001 	cmn	r3, #1
   13bd4:	1afffff0 	bne	13b9c <_strtod_l+0xcd4>
   13bd8:	e1a0600b 	mov	r6, fp
   13bdc:	e58da02c 	str	sl, [sp, #44]	; 0x2c
   13be0:	e59da040 	ldr	sl, [sp, #64]	; 0x40
   13be4:	e59d0058 	ldr	r0, [sp, #88]	; 0x58
   13be8:	e51f3368 	ldr	r3, [pc, #-872]	; 13888 <_strtod_l+0x9c0>
   13bec:	e3a02000 	mov	r2, #0
   13bf0:	e58d3014 	str	r3, [sp, #20]
   13bf4:	e3a03022 	mov	r3, #34	; 0x22
   13bf8:	e58d2010 	str	r2, [sp, #16]
   13bfc:	e5893000 	str	r3, [r9]
   13c00:	e28d8010 	add	r8, sp, #16
   13c04:	e8980180 	ldm	r8, {r7, r8}
   13c08:	e1a01000 	mov	r1, r0
   13c0c:	e1a00009 	mov	r0, r9
   13c10:	eb000857 	bl	15d74 <_Bfree>
   13c14:	e59d102c 	ldr	r1, [sp, #44]	; 0x2c
   13c18:	e1a00009 	mov	r0, r9
   13c1c:	eb000854 	bl	15d74 <_Bfree>
   13c20:	e1a01005 	mov	r1, r5
   13c24:	e1a00009 	mov	r0, r9
   13c28:	eb000851 	bl	15d74 <_Bfree>
   13c2c:	e59d1044 	ldr	r1, [sp, #68]	; 0x44
   13c30:	e1a00009 	mov	r0, r9
   13c34:	eb00084e 	bl	15d74 <_Bfree>
   13c38:	e1a01006 	mov	r1, r6
   13c3c:	e1a00009 	mov	r0, r9
   13c40:	eb00084b 	bl	15d74 <_Bfree>
   13c44:	eafffdb7 	b	13328 <_strtod_l+0x460>
   13c48:	eebd7bce 	vcvt.s32.f64	s14, d14
   13c4c:	eeb87bc7 	vcvt.f64.s32	d7, s14
   13c50:	e3540000 	cmp	r4, #0
   13c54:	ee3eeb47 	vsub.f64	d14, d14, d7
   13c58:	1a000024 	bne	13cf0 <_strtod_l+0xe28>
   13c5c:	e59d3010 	ldr	r3, [sp, #16]
   13c60:	e3530000 	cmp	r3, #0
   13c64:	1a000021 	bne	13cf0 <_strtod_l+0xe28>
   13c68:	e3c224ff 	bic	r2, r2, #-16777216	; 0xff000000
   13c6c:	e3c2260f 	bic	r2, r2, #15728640	; 0xf00000
   13c70:	e3520000 	cmp	r2, #0
   13c74:	1a00001d 	bne	13cf0 <_strtod_l+0xe28>
   13c78:	ed9f7bd6 	vldr	d7, [pc, #856]	; 13fd8 <_strtod_l+0x1110>
   13c7c:	eeb4ebc7 	vcmpe.f64	d14, d7
   13c80:	eef1fa10 	vmrs	APSR_nzcv, fpscr
   13c84:	5afffea4 	bpl	1371c <_strtod_l+0x854>
   13c88:	e58da02c 	str	sl, [sp, #44]	; 0x2c
   13c8c:	e1a0600b 	mov	r6, fp
   13c90:	e59da040 	ldr	sl, [sp, #64]	; 0x40
   13c94:	e28d8010 	add	r8, sp, #16
   13c98:	e8980180 	ldm	r8, {r7, r8}
   13c9c:	e59d0058 	ldr	r0, [sp, #88]	; 0x58
   13ca0:	eaffffd8 	b	13c08 <_strtod_l+0xd40>
   13ca4:	e28d3010 	add	r3, sp, #16
   13ca8:	e893000c 	ldm	r3, {r2, r3}
   13cac:	e3520001 	cmp	r2, #1
   13cb0:	11a00003 	movne	r0, r3
   13cb4:	1affff9b 	bne	13b28 <_strtod_l+0xc60>
   13cb8:	e28d3010 	add	r3, sp, #16
   13cbc:	e893000c 	ldm	r3, {r2, r3}
   13cc0:	e3530000 	cmp	r3, #0
   13cc4:	e1a00003 	mov	r0, r3
   13cc8:	1affff96 	bne	13b28 <_strtod_l+0xc60>
   13ccc:	e1a0600b 	mov	r6, fp
   13cd0:	e58da02c 	str	sl, [sp, #44]	; 0x2c
   13cd4:	e59da040 	ldr	sl, [sp, #64]	; 0x40
   13cd8:	e3a03022 	mov	r3, #34	; 0x22
   13cdc:	e59d0058 	ldr	r0, [sp, #88]	; 0x58
   13ce0:	e5893000 	str	r3, [r9]
   13ce4:	e3a07000 	mov	r7, #0
   13ce8:	e3a08000 	mov	r8, #0
   13cec:	eaffffc5 	b	13c08 <_strtod_l+0xd40>
   13cf0:	eeb4ebcc 	vcmpe.f64	d14, d12
   13cf4:	eef1fa10 	vmrs	APSR_nzcv, fpscr
   13cf8:	4affffe2 	bmi	13c88 <_strtod_l+0xdc0>
   13cfc:	eeb4ebcd 	vcmpe.f64	d14, d13
   13d00:	eef1fa10 	vmrs	APSR_nzcv, fpscr
   13d04:	dafffe84 	ble	1371c <_strtod_l+0x854>
   13d08:	eaffffde 	b	13c88 <_strtod_l+0xdc0>
   13d0c:	0afffdd2 	beq	1345c <_strtod_l+0x594>
   13d10:	e2633000 	rsb	r3, r3, #0
   13d14:	e213000f 	ands	r0, r3, #15
   13d18:	0a000005 	beq	13d34 <_strtod_l+0xe6c>
   13d1c:	e59f12bc 	ldr	r1, [pc, #700]	; 13fe0 <_strtod_l+0x1118>
   13d20:	e0811180 	add	r1, r1, r0, lsl #3
   13d24:	ed9d5b04 	vldr	d5, [sp, #16]
   13d28:	ed917b00 	vldr	d7, [r1]
   13d2c:	ee856b07 	vdiv.f64	d6, d5, d7
   13d30:	ed8d6b04 	vstr	d6, [sp, #16]
   13d34:	e1b03243 	asrs	r3, r3, #4
   13d38:	0afffdc7 	beq	1345c <_strtod_l+0x594>
   13d3c:	e353001f 	cmp	r3, #31
   13d40:	ca00001f 	bgt	13dc4 <_strtod_l+0xefc>
   13d44:	e2131010 	ands	r1, r3, #16
   13d48:	e58d1018 	str	r1, [sp, #24]
   13d4c:	0a000136 	beq	1422c <_strtod_l+0x1364>
   13d50:	e3530000 	cmp	r3, #0
   13d54:	d3a0306a 	movle	r3, #106	; 0x6a
   13d58:	d58d3018 	strle	r3, [sp, #24]
   13d5c:	da000153 	ble	142b0 <_strtod_l+0x13e8>
   13d60:	e3a0106a 	mov	r1, #106	; 0x6a
   13d64:	e58d1018 	str	r1, [sp, #24]
   13d68:	ed9d7b04 	vldr	d7, [sp, #16]
   13d6c:	e3a00000 	mov	r0, #0
   13d70:	ed8d7b08 	vstr	d7, [sp, #32]
   13d74:	e3a0c001 	mov	ip, #1
   13d78:	e59f1264 	ldr	r1, [pc, #612]	; 13fe4 <_strtod_l+0x111c>
   13d7c:	e3130001 	tst	r3, #1
   13d80:	1d917b00 	vldrne	d7, [r1]
   13d84:	1d9d6b08 	vldrne	d6, [sp, #32]
   13d88:	1e267b07 	vmulne.f64	d7, d6, d7
   13d8c:	11a0000c 	movne	r0, ip
   13d90:	1d8d7b08 	vstrne	d7, [sp, #32]
   13d94:	e1b030c3 	asrs	r3, r3, #1
   13d98:	e2811008 	add	r1, r1, #8
   13d9c:	1afffff6 	bne	13d7c <_strtod_l+0xeb4>
   13da0:	e3500000 	cmp	r0, #0
   13da4:	1a000166 	bne	14344 <_strtod_l+0x147c>
   13da8:	e59d3018 	ldr	r3, [sp, #24]
   13dac:	e3530000 	cmp	r3, #0
   13db0:	1a00013e 	bne	142b0 <_strtod_l+0x13e8>
   13db4:	ed9d7b04 	vldr	d7, [sp, #16]
   13db8:	eeb57b40 	vcmp.f64	d7, #0.0
   13dbc:	eef1fa10 	vmrs	APSR_nzcv, fpscr
   13dc0:	1afffda7 	bne	13464 <_strtod_l+0x59c>
   13dc4:	e3a03022 	mov	r3, #34	; 0x22
   13dc8:	e3a07000 	mov	r7, #0
   13dcc:	e3a08000 	mov	r8, #0
   13dd0:	e5893000 	str	r3, [r9]
   13dd4:	eafffd53 	b	13328 <_strtod_l+0x460>
   13dd8:	e1a02003 	mov	r2, r3
   13ddc:	e5911000 	ldr	r1, [r1]
   13de0:	e1a00008 	mov	r0, r8
   13de4:	e58d3018 	str	r3, [sp, #24]
   13de8:	eb000b0e 	bl	16a28 <strncmp>
   13dec:	e2502000 	subs	r2, r0, #0
   13df0:	e59d3018 	ldr	r3, [sp, #24]
   13df4:	0a000007 	beq	13e18 <_strtod_l+0xf50>
   13df8:	e3a02000 	mov	r2, #0
   13dfc:	e1a07002 	mov	r7, r2
   13e00:	e1a06002 	mov	r6, r2
   13e04:	e1a03002 	mov	r3, r2
   13e08:	e1a00002 	mov	r0, r2
   13e0c:	e1a05002 	mov	r5, r2
   13e10:	e58d2018 	str	r2, [sp, #24]
   13e14:	eafffce8 	b	131bc <_strtod_l+0x2f4>
   13e18:	e59d0054 	ldr	r0, [sp, #84]	; 0x54
   13e1c:	e0801003 	add	r1, r0, r3
   13e20:	e58d1054 	str	r1, [sp, #84]	; 0x54
   13e24:	e7d04003 	ldrb	r4, [r0, r3]
   13e28:	e3540030 	cmp	r4, #48	; 0x30
   13e2c:	e1a03002 	mov	r3, r2
   13e30:	1a000005 	bne	13e4c <_strtod_l+0xf84>
   13e34:	e2811001 	add	r1, r1, #1
   13e38:	e58d1054 	str	r1, [sp, #84]	; 0x54
   13e3c:	e5d14000 	ldrb	r4, [r1]
   13e40:	e3540030 	cmp	r4, #48	; 0x30
   13e44:	e2833001 	add	r3, r3, #1
   13e48:	0afffff9 	beq	13e34 <_strtod_l+0xf6c>
   13e4c:	e2441031 	sub	r1, r4, #49	; 0x31
   13e50:	e3510008 	cmp	r1, #8
   13e54:	9a000037 	bls	13f38 <_strtod_l+0x1070>
   13e58:	e3a07000 	mov	r7, #0
   13e5c:	e3a01001 	mov	r1, #1
   13e60:	e1a00002 	mov	r0, r2
   13e64:	e1a06007 	mov	r6, r7
   13e68:	e1a05002 	mov	r5, r2
   13e6c:	e58d1018 	str	r1, [sp, #24]
   13e70:	eafffcd1 	b	131bc <_strtod_l+0x2f4>
   13e74:	e59d3014 	ldr	r3, [sp, #20]
   13e78:	e2832635 	add	r2, r3, #55574528	; 0x3500000
   13e7c:	e58d2014 	str	r2, [sp, #20]
   13e80:	eafffe1f 	b	13704 <_strtod_l+0x83c>
   13e84:	e59d2058 	ldr	r2, [sp, #88]	; 0x58
   13e88:	e3520000 	cmp	r2, #0
   13e8c:	0a000005 	beq	13ea8 <_strtod_l+0xfe0>
   13e90:	e3a01035 	mov	r1, #53	; 0x35
   13e94:	e28d0060 	add	r0, sp, #96	; 0x60
   13e98:	eb000aa3 	bl	1692c <__copybits>
   13e9c:	e1a00009 	mov	r0, r9
   13ea0:	e59d1058 	ldr	r1, [sp, #88]	; 0x58
   13ea4:	eb0007b2 	bl	15d74 <_Bfree>
   13ea8:	e2455001 	sub	r5, r5, #1
   13eac:	e3550004 	cmp	r5, #4
   13eb0:	979ff105 	ldrls	pc, [pc, r5, lsl #2]
   13eb4:	ea000006 	b	13ed4 <_strtod_l+0x100c>
   13eb8:	00013f10 	.word	0x00013f10
   13ebc:	00013ee8 	.word	0x00013ee8
   13ec0:	00013ecc 	.word	0x00013ecc
   13ec4:	00013efc 	.word	0x00013efc
   13ec8:	00013f10 	.word	0x00013f10
   13ecc:	e59f3128 	ldr	r3, [pc, #296]	; 13ffc <_strtod_l+0x1134>
   13ed0:	e58d3014 	str	r3, [sp, #20]
   13ed4:	e3140008 	tst	r4, #8
   13ed8:	159d3014 	ldrne	r3, [sp, #20]
   13edc:	13833102 	orrne	r3, r3, #-2147483648	; 0x80000000
   13ee0:	158d3014 	strne	r3, [sp, #20]
   13ee4:	eafffd48 	b	1340c <_strtod_l+0x544>
   13ee8:	e59d3060 	ldr	r3, [sp, #96]	; 0x60
   13eec:	e58d3010 	str	r3, [sp, #16]
   13ef0:	e59d3064 	ldr	r3, [sp, #100]	; 0x64
   13ef4:	e58d3014 	str	r3, [sp, #20]
   13ef8:	eafffff5 	b	13ed4 <_strtod_l+0x100c>
   13efc:	e3e03102 	mvn	r3, #-2147483648	; 0x80000000
   13f00:	e58d3014 	str	r3, [sp, #20]
   13f04:	e3e03000 	mvn	r3, #0
   13f08:	e58d3010 	str	r3, [sp, #16]
   13f0c:	eafffff0 	b	13ed4 <_strtod_l+0x100c>
   13f10:	e59d305c 	ldr	r3, [sp, #92]	; 0x5c
   13f14:	e28d1060 	add	r1, sp, #96	; 0x60
   13f18:	e8910006 	ldm	r1, {r1, r2}
   13f1c:	e2833e43 	add	r3, r3, #1072	; 0x430
   13f20:	e2833003 	add	r3, r3, #3
   13f24:	e3c22601 	bic	r2, r2, #1048576	; 0x100000
   13f28:	e1823a03 	orr	r3, r2, r3, lsl #20
   13f2c:	e58d1010 	str	r1, [sp, #16]
   13f30:	e58d3014 	str	r3, [sp, #20]
   13f34:	eaffffe6 	b	13ed4 <_strtod_l+0x100c>
   13f38:	e3a06000 	mov	r6, #0
   13f3c:	e59dc054 	ldr	ip, [sp, #84]	; 0x54
   13f40:	e1a07006 	mov	r7, r6
   13f44:	e1a0800c 	mov	r8, ip
   13f48:	e3a05001 	mov	r5, #1
   13f4c:	e2444030 	sub	r4, r4, #48	; 0x30
   13f50:	e2830001 	add	r0, r3, #1
   13f54:	e0866106 	add	r6, r6, r6, lsl #2
   13f58:	e0846086 	add	r6, r4, r6, lsl #1
   13f5c:	e3a03000 	mov	r3, #0
   13f60:	eafffcd5 	b	132bc <_strtod_l+0x3f4>
   13f64:	e2651025 	rsb	r1, r5, #37	; 0x25
   13f68:	e1540001 	cmp	r4, r1
   13f6c:	cafffd2c 	bgt	13424 <_strtod_l+0x55c>
   13f70:	e59f3068 	ldr	r3, [pc, #104]	; 13fe0 <_strtod_l+0x1118>
   13f74:	e265500f 	rsb	r5, r5, #15
   13f78:	e0832185 	add	r2, r3, r5, lsl #3
   13f7c:	ed927b00 	vldr	d7, [r2]
   13f80:	ed9d5b04 	vldr	d5, [sp, #16]
   13f84:	e0445005 	sub	r5, r4, r5
   13f88:	e0833185 	add	r3, r3, r5, lsl #3
   13f8c:	ed936b00 	vldr	d6, [r3]
   13f90:	ee277b05 	vmul.f64	d7, d7, d5
   13f94:	ee277b06 	vmul.f64	d7, d7, d6
   13f98:	ec587b17 	vmov	r7, r8, d7
   13f9c:	eafffce1 	b	13328 <_strtod_l+0x460>
   13fa0:	e3740016 	cmn	r4, #22
   13fa4:	bafffd1e 	blt	13424 <_strtod_l+0x55c>
   13fa8:	e59f0030 	ldr	r0, [pc, #48]	; 13fe0 <_strtod_l+0x1118>
   13fac:	e0400184 	sub	r0, r0, r4, lsl #3
   13fb0:	ed907b00 	vldr	d7, [r0]
   13fb4:	ed9d5b04 	vldr	d5, [sp, #16]
   13fb8:	ee856b07 	vdiv.f64	d6, d5, d7
   13fbc:	ec587b16 	vmov	r7, r8, d6
   13fc0:	eafffcd8 	b	13328 <_strtod_l+0x460>
   13fc4:	e58da02c 	str	sl, [sp, #44]	; 0x2c
   13fc8:	e1a0600b 	mov	r6, fp
   13fcc:	e59da040 	ldr	sl, [sp, #64]	; 0x40
   13fd0:	eaffff04 	b	13be8 <_strtod_l+0xd20>
   13fd4:	e1a00000 	nop			; (mov r0, r0)
   13fd8:	94a03595 	.word	0x94a03595
   13fdc:	3fcfffff 	.word	0x3fcfffff
   13fe0:	00019c10 	.word	0x00019c10
   13fe4:	000199b8 	.word	0x000199b8
   13fe8:	000fffff 	.word	0x000fffff
   13fec:	39500000 	.word	0x39500000
   13ff0:	00019be8 	.word	0x00019be8
   13ff4:	000199a0 	.word	0x000199a0
   13ff8:	7fefffff 	.word	0x7fefffff
   13ffc:	7ff00000 	.word	0x7ff00000
   14000:	000007ff 	.word	0x000007ff
   14004:	e3540000 	cmp	r4, #0
   14008:	e58da02c 	str	sl, [sp, #44]	; 0x2c
   1400c:	e1a0600b 	mov	r6, fp
   14010:	e28d8020 	add	r8, sp, #32
   14014:	e8980180 	ldm	r8, {r7, r8}
   14018:	e59da040 	ldr	sl, [sp, #64]	; 0x40
   1401c:	0a00005d 	beq	14198 <_strtod_l+0x12d0>
   14020:	e51f3040 	ldr	r3, [pc, #-64]	; 13fe8 <_strtod_l+0x1120>
   14024:	e28d2010 	add	r2, sp, #16
   14028:	e8920006 	ldm	r2, {r1, r2}
   1402c:	e1d33002 	bics	r3, r3, r2
   14030:	0a000080 	beq	14238 <_strtod_l+0x1370>
   14034:	e59d3038 	ldr	r3, [sp, #56]	; 0x38
   14038:	e3530000 	cmp	r3, #0
   1403c:	0a000050 	beq	14184 <_strtod_l+0x12bc>
   14040:	e59d2014 	ldr	r2, [sp, #20]
   14044:	e1130002 	tst	r3, r2
   14048:	0a000008 	beq	14070 <_strtod_l+0x11a8>
   1404c:	e3540000 	cmp	r4, #0
   14050:	e28d1010 	add	r1, sp, #16
   14054:	e8910003 	ldm	r1, {r0, r1}
   14058:	e59d2018 	ldr	r2, [sp, #24]
   1405c:	0a00006a 	beq	1420c <_strtod_l+0x1344>
   14060:	ebfffb82 	bl	12e70 <sulp>
   14064:	ec487b17 	vmov	d7, r7, r8
   14068:	ee377b00 	vadd.f64	d7, d7, d0
   1406c:	ec587b17 	vmov	r7, r8, d7
   14070:	e59d3018 	ldr	r3, [sp, #24]
   14074:	e3530000 	cmp	r3, #0
   14078:	0a000011 	beq	140c4 <_strtod_l+0x11fc>
   1407c:	e51f3098 	ldr	r3, [pc, #-152]	; 13fec <_strtod_l+0x1124>
   14080:	e58d304c 	str	r3, [sp, #76]	; 0x4c
   14084:	e3a03000 	mov	r3, #0
   14088:	e58d3048 	str	r3, [sp, #72]	; 0x48
   1408c:	ec487b17 	vmov	d7, r7, r8
   14090:	ed9d6b12 	vldr	d6, [sp, #72]	; 0x48
   14094:	ee277b06 	vmul.f64	d7, d7, d6
   14098:	ec587b17 	vmov	r7, r8, d7
   1409c:	ee173a10 	vmov	r3, s14
   140a0:	e1a04008 	mov	r4, r8
   140a4:	e3580000 	cmp	r8, #0
   140a8:	e58d3010 	str	r3, [sp, #16]
   140ac:	e58d4014 	str	r4, [sp, #20]
   140b0:	1a000003 	bne	140c4 <_strtod_l+0x11fc>
   140b4:	e59d3010 	ldr	r3, [sp, #16]
   140b8:	e3530000 	cmp	r3, #0
   140bc:	03a03022 	moveq	r3, #34	; 0x22
   140c0:	05893000 	streq	r3, [r9]
   140c4:	e59d0058 	ldr	r0, [sp, #88]	; 0x58
   140c8:	eafffece 	b	13c08 <_strtod_l+0xd40>
   140cc:	e3540000 	cmp	r4, #0
   140d0:	e58da02c 	str	sl, [sp, #44]	; 0x2c
   140d4:	e1a0600b 	mov	r6, fp
   140d8:	e28d8020 	add	r8, sp, #32
   140dc:	e8980180 	ldm	r8, {r7, r8}
   140e0:	e59da040 	ldr	sl, [sp, #64]	; 0x40
   140e4:	1affffe1 	bne	14070 <_strtod_l+0x11a8>
   140e8:	e28d2010 	add	r2, sp, #16
   140ec:	e8920006 	ldm	r2, {r1, r2}
   140f0:	e3510000 	cmp	r1, #0
   140f4:	1affffdd 	bne	14070 <_strtod_l+0x11a8>
   140f8:	e3c234ff 	bic	r3, r2, #-16777216	; 0xff000000
   140fc:	e3c3360f 	bic	r3, r3, #15728640	; 0xf00000
   14100:	e3530000 	cmp	r3, #0
   14104:	1affffd9 	bne	14070 <_strtod_l+0x11a8>
   14108:	e3c24102 	bic	r4, r2, #-2147483648	; 0x80000000
   1410c:	e1a04a24 	lsr	r4, r4, #20
   14110:	e1a04a04 	lsl	r4, r4, #20
   14114:	e354066b 	cmp	r4, #112197632	; 0x6b00000
   14118:	9affffd4 	bls	14070 <_strtod_l+0x11a8>
   1411c:	e59b3014 	ldr	r3, [fp, #20]
   14120:	e3530000 	cmp	r3, #0
   14124:	1a000002 	bne	14134 <_strtod_l+0x126c>
   14128:	e59b3010 	ldr	r3, [fp, #16]
   1412c:	e3530001 	cmp	r3, #1
   14130:	daffffce 	ble	14070 <_strtod_l+0x11a8>
   14134:	e1a01006 	mov	r1, r6
   14138:	e3a02001 	mov	r2, #1
   1413c:	e1a00009 	mov	r0, r9
   14140:	eb000881 	bl	1634c <__lshift>
   14144:	e1a01005 	mov	r1, r5
   14148:	e1a06000 	mov	r6, r0
   1414c:	eb0008b8 	bl	16434 <__mcmp>
   14150:	e3500000 	cmp	r0, #0
   14154:	daffffc5 	ble	14070 <_strtod_l+0x11a8>
   14158:	e59d3018 	ldr	r3, [sp, #24]
   1415c:	e3530000 	cmp	r3, #0
   14160:	0a000064 	beq	142f8 <_strtod_l+0x1430>
   14164:	e354066b 	cmp	r4, #112197632	; 0x6b00000
   14168:	ca000062 	bgt	142f8 <_strtod_l+0x1430>
   1416c:	e3540637 	cmp	r4, #57671680	; 0x3700000
   14170:	caffffc1 	bgt	1407c <_strtod_l+0x11b4>
   14174:	eafffed7 	b	13cd8 <_strtod_l+0xe10>
   14178:	e28c3635 	add	r3, ip, #55574528	; 0x3500000
   1417c:	e58d3014 	str	r3, [sp, #20]
   14180:	eafffcb5 	b	1345c <_strtod_l+0x594>
   14184:	e59d3034 	ldr	r3, [sp, #52]	; 0x34
   14188:	e59d2010 	ldr	r2, [sp, #16]
   1418c:	e1130002 	tst	r3, r2
   14190:	0affffb6 	beq	14070 <_strtod_l+0x11a8>
   14194:	eaffffac 	b	1404c <_strtod_l+0x1184>
   14198:	e28d2010 	add	r2, sp, #16
   1419c:	e8920006 	ldm	r2, {r1, r2}
   141a0:	e3c234ff 	bic	r3, r2, #-16777216	; 0xff000000
   141a4:	e3c3360f 	bic	r3, r3, #15728640	; 0xf00000
   141a8:	e3530000 	cmp	r3, #0
   141ac:	1affffa0 	bne	14034 <_strtod_l+0x116c>
   141b0:	e3510000 	cmp	r1, #0
   141b4:	e1a03002 	mov	r3, r2
   141b8:	1affff9d 	bne	14034 <_strtod_l+0x116c>
   141bc:	e3c34102 	bic	r4, r3, #-2147483648	; 0x80000000
   141c0:	e1a04a24 	lsr	r4, r4, #20
   141c4:	e1a04a04 	lsl	r4, r4, #20
   141c8:	eaffffe2 	b	14158 <_strtod_l+0x1290>
   141cc:	e3a00000 	mov	r0, #0
   141d0:	e51f71e8 	ldr	r7, [pc, #-488]	; 13ff0 <_strtod_l+0x1128>
   141d4:	eafffdef 	b	13998 <_strtod_l+0xad0>
   141d8:	e28d0054 	add	r0, sp, #84	; 0x54
   141dc:	e28d2060 	add	r2, sp, #96	; 0x60
   141e0:	e51f11f4 	ldr	r1, [pc, #-500]	; 13ff4 <_strtod_l+0x112c>
   141e4:	eb0005dc 	bl	1595c <__hexnan>
   141e8:	e3500005 	cmp	r0, #5
   141ec:	1afffc82 	bne	133fc <_strtod_l+0x534>
   141f0:	e59d3064 	ldr	r3, [sp, #100]	; 0x64
   141f4:	e383347f 	orr	r3, r3, #2130706432	; 0x7f000000
   141f8:	e383360f 	orr	r3, r3, #15728640	; 0xf00000
   141fc:	e58d3014 	str	r3, [sp, #20]
   14200:	e59d3060 	ldr	r3, [sp, #96]	; 0x60
   14204:	e58d3010 	str	r3, [sp, #16]
   14208:	eafffc7f 	b	1340c <_strtod_l+0x544>
   1420c:	ebfffb17 	bl	12e70 <sulp>
   14210:	ec487b17 	vmov	d7, r7, r8
   14214:	ee377b40 	vsub.f64	d7, d7, d0
   14218:	eeb57b40 	vcmp.f64	d7, #0.0
   1421c:	eef1fa10 	vmrs	APSR_nzcv, fpscr
   14220:	ec587b17 	vmov	r7, r8, d7
   14224:	0afffeab 	beq	13cd8 <_strtod_l+0xe10>
   14228:	eaffff90 	b	14070 <_strtod_l+0x11a8>
   1422c:	e3530000 	cmp	r3, #0
   14230:	cafffecc 	bgt	13d68 <_strtod_l+0xea0>
   14234:	eafffede 	b	13db4 <_strtod_l+0xeec>
   14238:	e59d3018 	ldr	r3, [sp, #24]
   1423c:	e3530000 	cmp	r3, #0
   14240:	e59d1010 	ldr	r1, [sp, #16]
   14244:	0a000017 	beq	142a8 <_strtod_l+0x13e0>
   14248:	e51f3254 	ldr	r3, [pc, #-596]	; 13ffc <_strtod_l+0x1134>
   1424c:	e0033002 	and	r3, r3, r2
   14250:	e353066a 	cmp	r3, #111149056	; 0x6a00000
   14254:	8a000013 	bhi	142a8 <_strtod_l+0x13e0>
   14258:	e3e00000 	mvn	r0, #0
   1425c:	e1a03a23 	lsr	r3, r3, #20
   14260:	e263306b 	rsb	r3, r3, #107	; 0x6b
   14264:	e1a03310 	lsl	r3, r0, r3
   14268:	e1530001 	cmp	r3, r1
   1426c:	1affff70 	bne	14034 <_strtod_l+0x116c>
   14270:	e51f1280 	ldr	r1, [pc, #-640]	; 13ff8 <_strtod_l+0x1130>
   14274:	e1520001 	cmp	r2, r1
   14278:	03730001 	cmneq	r3, #1
   1427c:	03a03001 	moveq	r3, #1
   14280:	13a03000 	movne	r3, #0
   14284:	0afffe56 	beq	13be4 <_strtod_l+0xd1c>
   14288:	e51f1294 	ldr	r1, [pc, #-660]	; 13ffc <_strtod_l+0x1134>
   1428c:	e0011002 	and	r1, r1, r2
   14290:	e2812601 	add	r2, r1, #1048576	; 0x100000
   14294:	e58d2014 	str	r2, [sp, #20]
   14298:	e58d3010 	str	r3, [sp, #16]
   1429c:	e28d8010 	add	r8, sp, #16
   142a0:	e8980180 	ldm	r8, {r7, r8}
   142a4:	eaffff71 	b	14070 <_strtod_l+0x11a8>
   142a8:	e3e03000 	mvn	r3, #0
   142ac:	eaffffed 	b	14268 <_strtod_l+0x13a0>
   142b0:	e51f32b8 	ldr	r3, [pc, #-696]	; 14000 <_strtod_l+0x1138>
   142b4:	e28d1010 	add	r1, sp, #16
   142b8:	e8910003 	ldm	r1, {r0, r1}
   142bc:	e0033a21 	and	r3, r3, r1, lsr #20
   142c0:	e263306b 	rsb	r3, r3, #107	; 0x6b
   142c4:	e3530000 	cmp	r3, #0
   142c8:	dafffeb9 	ble	13db4 <_strtod_l+0xeec>
   142cc:	e353001f 	cmp	r3, #31
   142d0:	da000011 	ble	1431c <_strtod_l+0x1454>
   142d4:	e3a00000 	mov	r0, #0
   142d8:	e3530034 	cmp	r3, #52	; 0x34
   142dc:	e58d0010 	str	r0, [sp, #16]
   142e0:	d3e00000 	mvnle	r0, #0
   142e4:	c3a03637 	movgt	r3, #57671680	; 0x3700000
   142e8:	d2433020 	suble	r3, r3, #32
   142ec:	d0013310 	andle	r3, r1, r0, lsl r3
   142f0:	e58d3014 	str	r3, [sp, #20]
   142f4:	eafffeae 	b	13db4 <_strtod_l+0xeec>
   142f8:	e2444601 	sub	r4, r4, #1048576	; 0x100000
   142fc:	e1e03a24 	mvn	r3, r4, lsr #20
   14300:	e1e03a03 	mvn	r3, r3, lsl #20
   14304:	e58d3014 	str	r3, [sp, #20]
   14308:	e3e03000 	mvn	r3, #0
   1430c:	e58d3010 	str	r3, [sp, #16]
   14310:	e28d8010 	add	r8, sp, #16
   14314:	e8980180 	ldm	r8, {r7, r8}
   14318:	eaffff54 	b	14070 <_strtod_l+0x11a8>
   1431c:	e3e01000 	mvn	r1, #0
   14320:	e59d0010 	ldr	r0, [sp, #16]
   14324:	e0003311 	and	r3, r0, r1, lsl r3
   14328:	e58d3010 	str	r3, [sp, #16]
   1432c:	eafffea0 	b	13db4 <_strtod_l+0xeec>
   14330:	e28dc018 	add	ip, sp, #24
   14334:	e89c1800 	ldm	ip, {fp, ip}
   14338:	e58db010 	str	fp, [sp, #16]
   1433c:	e58dc014 	str	ip, [sp, #20]
   14340:	eafffd94 	b	13998 <_strtod_l+0xad0>
   14344:	e28d1020 	add	r1, sp, #32
   14348:	e8910003 	ldm	r1, {r0, r1}
   1434c:	e58d0010 	str	r0, [sp, #16]
   14350:	e58d1014 	str	r1, [sp, #20]
   14354:	eafffe93 	b	13da8 <_strtod_l+0xee0>
   14358:	e1a0e005 	mov	lr, r5
   1435c:	e59dc054 	ldr	ip, [sp, #84]	; 0x54
   14360:	e2855001 	add	r5, r5, #1
   14364:	eafffbce 	b	132a4 <_strtod_l+0x3dc>

00014368 <strtod>:
   14368:	e59f3028 	ldr	r3, [pc, #40]	; 14398 <strtod+0x30>
   1436c:	e593c000 	ldr	ip, [r3]
   14370:	e59c3034 	ldr	r3, [ip, #52]	; 0x34
   14374:	e52de004 	push	{lr}		; (str lr, [sp, #-4]!)
   14378:	e59fe01c 	ldr	lr, [pc, #28]	; 1439c <strtod+0x34>
   1437c:	e3530000 	cmp	r3, #0
   14380:	e1a02001 	mov	r2, r1
   14384:	01a0300e 	moveq	r3, lr
   14388:	e1a01000 	mov	r1, r0
   1438c:	e49de004 	pop	{lr}		; (ldr lr, [sp], #4)
   14390:	e1a0000c 	mov	r0, ip
   14394:	eafffacb 	b	12ec8 <_strtod_l>
   14398:	00017d84 	.word	0x00017d84
   1439c:	00017c18 	.word	0x00017c18

000143a0 <strtof>:
   143a0:	e92d4010 	push	{r4, lr}
   143a4:	e59f4088 	ldr	r4, [pc, #136]	; 14434 <strtof+0x94>
   143a8:	e594c000 	ldr	ip, [r4]
   143ac:	e59c3034 	ldr	r3, [ip, #52]	; 0x34
   143b0:	e59fe080 	ldr	lr, [pc, #128]	; 14438 <strtof+0x98>
   143b4:	e3530000 	cmp	r3, #0
   143b8:	e1a02001 	mov	r2, r1
   143bc:	01a0300e 	moveq	r3, lr
   143c0:	e1a01000 	mov	r1, r0
   143c4:	e1a0000c 	mov	r0, ip
   143c8:	ebfffabe 	bl	12ec8 <_strtod_l>
   143cc:	eeb40b40 	vcmp.f64	d0, d0
   143d0:	eef1fa10 	vmrs	APSR_nzcv, fpscr
   143d4:	6a00000f 	bvs	14418 <strtof+0x78>
   143d8:	eeb07b40 	vmov.f64	d7, d0
   143dc:	eeb70bc0 	vcvt.f32.f64	s0, d0
   143e0:	eddf6a12 	vldr	s13, [pc, #72]	; 14430 <strtof+0x90>
   143e4:	eeb06ac0 	vabs.f32	s12, s0
   143e8:	eeb46a66 	vcmp.f32	s12, s13
   143ec:	eef1fa10 	vmrs	APSR_nzcv, fpscr
   143f0:	da000006 	ble	14410 <strtof+0x70>
   143f4:	eeb07bc7 	vabs.f64	d7, d7
   143f8:	ed9f6b0a 	vldr	d6, [pc, #40]	; 14428 <strtof+0x88>
   143fc:	eeb47b46 	vcmp.f64	d7, d6
   14400:	eef1fa10 	vmrs	APSR_nzcv, fpscr
   14404:	d3a02022 	movle	r2, #34	; 0x22
   14408:	d5943000 	ldrle	r3, [r4]
   1440c:	d5832000 	strle	r2, [r3]
   14410:	e8bd4010 	pop	{r4, lr}
   14414:	e12fff1e 	bx	lr
   14418:	e3a00000 	mov	r0, #0
   1441c:	eb00097e 	bl	16a1c <nanf>
   14420:	eafffffa 	b	14410 <strtof+0x70>
   14424:	e1a00000 	nop			; (mov r0, r0)
   14428:	ffffffff 	.word	0xffffffff
   1442c:	7fefffff 	.word	0x7fefffff
   14430:	7f7fffff 	.word	0x7f7fffff
   14434:	00017d84 	.word	0x00017d84
   14438:	00017c18 	.word	0x00017c18

0001443c <_strtol_l.isra.0>:
   1443c:	e92d4ff0 	push	{r4, r5, r6, r7, r8, r9, sl, fp, lr}
   14440:	e24dd00c 	sub	sp, sp, #12
   14444:	e58d1000 	str	r1, [sp]
   14448:	e58d0004 	str	r0, [sp, #4]
   1444c:	e1a08002 	mov	r8, r2
   14450:	e1a06003 	mov	r6, r3
   14454:	e1a05001 	mov	r5, r1
   14458:	e59da030 	ldr	sl, [sp, #48]	; 0x30
   1445c:	ea000000 	b	14464 <_strtol_l.isra.0+0x28>
   14460:	e1a05007 	mov	r5, r7
   14464:	e1a07005 	mov	r7, r5
   14468:	e1a0000a 	mov	r0, sl
   1446c:	e4d74001 	ldrb	r4, [r7], #1
   14470:	ebfff8c1 	bl	1277c <__locale_ctype_ptr_l>
   14474:	e0800004 	add	r0, r0, r4
   14478:	e5d03001 	ldrb	r3, [r0, #1]
   1447c:	e3130008 	tst	r3, #8
   14480:	1afffff6 	bne	14460 <_strtol_l.isra.0+0x24>
   14484:	e354002d 	cmp	r4, #45	; 0x2d
   14488:	0a000043 	beq	1459c <_strtol_l.isra.0+0x160>
   1448c:	e354002b 	cmp	r4, #43	; 0x2b
   14490:	0a000066 	beq	14630 <_strtol_l.isra.0+0x1f4>
   14494:	e3d69010 	bics	r9, r6, #16
   14498:	e1a05007 	mov	r5, r7
   1449c:	11a0b006 	movne	fp, r6
   144a0:	13a09000 	movne	r9, #0
   144a4:	13e07102 	mvnne	r7, #-2147483648	; 0x80000000
   144a8:	0a000053 	beq	145fc <_strtol_l.isra.0+0x1c0>
   144ac:	e1a0100b 	mov	r1, fp
   144b0:	e1a00007 	mov	r0, r7
   144b4:	eb000cfc 	bl	178ac <__aeabi_uidivmod>
   144b8:	e1a00007 	mov	r0, r7
   144bc:	e1a0a001 	mov	sl, r1
   144c0:	e1a0100b 	mov	r1, fp
   144c4:	eb000cbb 	bl	177b8 <__udivsi3>
   144c8:	e3a03000 	mov	r3, #0
   144cc:	e3e01000 	mvn	r1, #0
   144d0:	e1a02003 	mov	r2, r3
   144d4:	e3a0c001 	mov	ip, #1
   144d8:	ea000009 	b	14504 <_strtol_l.isra.0+0xc8>
   144dc:	e0404002 	sub	r4, r0, r2
   144e0:	e2743000 	rsbs	r3, r4, #0
   144e4:	e0a33004 	adc	r3, r3, r4
   144e8:	e15a000e 	cmp	sl, lr
   144ec:	a3a03000 	movge	r3, #0
   144f0:	e3530000 	cmp	r3, #0
   144f4:	1a000014 	bne	1454c <_strtol_l.isra.0+0x110>
   144f8:	e1a0300c 	mov	r3, ip
   144fc:	e022e29b 	mla	r2, fp, r2, lr
   14500:	e4d54001 	ldrb	r4, [r5], #1
   14504:	e244e030 	sub	lr, r4, #48	; 0x30
   14508:	e35e0009 	cmp	lr, #9
   1450c:	9a000007 	bls	14530 <_strtol_l.isra.0+0xf4>
   14510:	e244e041 	sub	lr, r4, #65	; 0x41
   14514:	e35e0019 	cmp	lr, #25
   14518:	9244e037 	subls	lr, r4, #55	; 0x37
   1451c:	9a000003 	bls	14530 <_strtol_l.isra.0+0xf4>
   14520:	e244e061 	sub	lr, r4, #97	; 0x61
   14524:	e35e0019 	cmp	lr, #25
   14528:	8a000009 	bhi	14554 <_strtol_l.isra.0+0x118>
   1452c:	e244e057 	sub	lr, r4, #87	; 0x57
   14530:	e15e0006 	cmp	lr, r6
   14534:	aa000006 	bge	14554 <_strtol_l.isra.0+0x118>
   14538:	e1500002 	cmp	r0, r2
   1453c:	23a04000 	movcs	r4, #0
   14540:	33a04001 	movcc	r4, #1
   14544:	e1943fa3 	orrs	r3, r4, r3, lsr #31
   14548:	0affffe3 	beq	144dc <_strtol_l.isra.0+0xa0>
   1454c:	e1a03001 	mov	r3, r1
   14550:	eaffffea 	b	14500 <_strtol_l.isra.0+0xc4>
   14554:	e3730001 	cmn	r3, #1
   14558:	0a000020 	beq	145e0 <_strtol_l.isra.0+0x1a4>
   1455c:	e3590000 	cmp	r9, #0
   14560:	12622000 	rsbne	r2, r2, #0
   14564:	e3580000 	cmp	r8, #0
   14568:	0a000003 	beq	1457c <_strtol_l.isra.0+0x140>
   1456c:	e3530000 	cmp	r3, #0
   14570:	059d9000 	ldreq	r9, [sp]
   14574:	1a000004 	bne	1458c <_strtol_l.isra.0+0x150>
   14578:	e5889000 	str	r9, [r8]
   1457c:	e1a00002 	mov	r0, r2
   14580:	e28dd00c 	add	sp, sp, #12
   14584:	e8bd4ff0 	pop	{r4, r5, r6, r7, r8, r9, sl, fp, lr}
   14588:	e12fff1e 	bx	lr
   1458c:	e1a07002 	mov	r7, r2
   14590:	e2459001 	sub	r9, r5, #1
   14594:	e1a02007 	mov	r2, r7
   14598:	eafffff6 	b	14578 <_strtol_l.isra.0+0x13c>
   1459c:	e2763001 	rsbs	r3, r6, #1
   145a0:	33a03000 	movcc	r3, #0
   145a4:	e3d62010 	bics	r2, r6, #16
   145a8:	e2855002 	add	r5, r5, #2
   145ac:	e5d74000 	ldrb	r4, [r7]
   145b0:	03a09001 	moveq	r9, #1
   145b4:	1a000024 	bne	1464c <_strtol_l.isra.0+0x210>
   145b8:	e3540030 	cmp	r4, #48	; 0x30
   145bc:	0a000012 	beq	1460c <_strtol_l.isra.0+0x1d0>
   145c0:	e3530000 	cmp	r3, #0
   145c4:	0a00001e 	beq	14644 <_strtol_l.isra.0+0x208>
   145c8:	e3a0600a 	mov	r6, #10
   145cc:	e1a0b006 	mov	fp, r6
   145d0:	e3590000 	cmp	r9, #0
   145d4:	13a07102 	movne	r7, #-2147483648	; 0x80000000
   145d8:	03e07102 	mvneq	r7, #-2147483648	; 0x80000000
   145dc:	eaffffb2 	b	144ac <_strtol_l.isra.0+0x70>
   145e0:	e3a03022 	mov	r3, #34	; 0x22
   145e4:	e59d2004 	ldr	r2, [sp, #4]
   145e8:	e3580000 	cmp	r8, #0
   145ec:	e5823000 	str	r3, [r2]
   145f0:	01a02007 	moveq	r2, r7
   145f4:	1affffe5 	bne	14590 <_strtol_l.isra.0+0x154>
   145f8:	eaffffdf 	b	1457c <_strtol_l.isra.0+0x140>
   145fc:	e2763001 	rsbs	r3, r6, #1
   14600:	33a03000 	movcc	r3, #0
   14604:	e3540030 	cmp	r4, #48	; 0x30
   14608:	1affffec 	bne	145c0 <_strtol_l.isra.0+0x184>
   1460c:	e5d52000 	ldrb	r2, [r5]
   14610:	e20220df 	and	r2, r2, #223	; 0xdf
   14614:	e3520058 	cmp	r2, #88	; 0x58
   14618:	1a000007 	bne	1463c <_strtol_l.isra.0+0x200>
   1461c:	e3a06010 	mov	r6, #16
   14620:	e5d54001 	ldrb	r4, [r5, #1]
   14624:	e1a0b006 	mov	fp, r6
   14628:	e2855002 	add	r5, r5, #2
   1462c:	eaffffe7 	b	145d0 <_strtol_l.isra.0+0x194>
   14630:	e5d74000 	ldrb	r4, [r7]
   14634:	e2857002 	add	r7, r5, #2
   14638:	eaffff95 	b	14494 <_strtol_l.isra.0+0x58>
   1463c:	e3530000 	cmp	r3, #0
   14640:	13a06008 	movne	r6, #8
   14644:	e1a0b006 	mov	fp, r6
   14648:	eaffffe0 	b	145d0 <_strtol_l.isra.0+0x194>
   1464c:	e1a0b006 	mov	fp, r6
   14650:	e3a09001 	mov	r9, #1
   14654:	e3a07102 	mov	r7, #-2147483648	; 0x80000000
   14658:	eaffff93 	b	144ac <_strtol_l.isra.0+0x70>

0001465c <strtol>:
   1465c:	e59f303c 	ldr	r3, [pc, #60]	; 146a0 <strtol+0x44>
   14660:	e52de004 	push	{lr}		; (str lr, [sp, #-4]!)
   14664:	e593e000 	ldr	lr, [r3]
   14668:	e59ec034 	ldr	ip, [lr, #52]	; 0x34
   1466c:	e59f3030 	ldr	r3, [pc, #48]	; 146a4 <strtol+0x48>
   14670:	e35c0000 	cmp	ip, #0
   14674:	01a0c003 	moveq	ip, r3
   14678:	e24dd00c 	sub	sp, sp, #12
   1467c:	e1a03002 	mov	r3, r2
   14680:	e58dc000 	str	ip, [sp]
   14684:	e1a02001 	mov	r2, r1
   14688:	e1a01000 	mov	r1, r0
   1468c:	e1a0000e 	mov	r0, lr
   14690:	ebffff69 	bl	1443c <_strtol_l.isra.0>
   14694:	e28dd00c 	add	sp, sp, #12
   14698:	e49de004 	pop	{lr}		; (ldr lr, [sp], #4)
   1469c:	e12fff1e 	bx	lr
   146a0:	00017d84 	.word	0x00017d84
   146a4:	00017c18 	.word	0x00017c18

000146a8 <strtold>:
   146a8:	e59f302c 	ldr	r3, [pc, #44]	; 146dc <strtold+0x34>
   146ac:	e593c000 	ldr	ip, [r3]
   146b0:	e92d4010 	push	{r4, lr}
   146b4:	e59c3034 	ldr	r3, [ip, #52]	; 0x34
   146b8:	e59fe020 	ldr	lr, [pc, #32]	; 146e0 <strtold+0x38>
   146bc:	e3530000 	cmp	r3, #0
   146c0:	e1a02001 	mov	r2, r1
   146c4:	01a0300e 	moveq	r3, lr
   146c8:	e1a01000 	mov	r1, r0
   146cc:	e1a0000c 	mov	r0, ip
   146d0:	ebfff9fc 	bl	12ec8 <_strtod_l>
   146d4:	e8bd4010 	pop	{r4, lr}
   146d8:	e12fff1e 	bx	lr
   146dc:	00017d84 	.word	0x00017d84
   146e0:	00017c18 	.word	0x00017c18

000146e4 <_strtoll_l.isra.0>:
   146e4:	e92d4ff0 	push	{r4, r5, r6, r7, r8, r9, sl, fp, lr}
   146e8:	e24dd01c 	sub	sp, sp, #28
   146ec:	e58d1010 	str	r1, [sp, #16]
   146f0:	e58d0014 	str	r0, [sp, #20]
   146f4:	e58d2000 	str	r2, [sp]
   146f8:	e1a06003 	mov	r6, r3
   146fc:	e1a05001 	mov	r5, r1
   14700:	e59d8040 	ldr	r8, [sp, #64]	; 0x40
   14704:	ea000000 	b	1470c <_strtoll_l.isra.0+0x28>
   14708:	e1a05007 	mov	r5, r7
   1470c:	e1a07005 	mov	r7, r5
   14710:	e1a00008 	mov	r0, r8
   14714:	e4d74001 	ldrb	r4, [r7], #1
   14718:	ebfff817 	bl	1277c <__locale_ctype_ptr_l>
   1471c:	e0800004 	add	r0, r0, r4
   14720:	e5d03001 	ldrb	r3, [r0, #1]
   14724:	e3130008 	tst	r3, #8
   14728:	1afffff6 	bne	14708 <_strtoll_l.isra.0+0x24>
   1472c:	e354002d 	cmp	r4, #45	; 0x2d
   14730:	0a000063 	beq	148c4 <_strtoll_l.isra.0+0x1e0>
   14734:	e354002b 	cmp	r4, #43	; 0x2b
   14738:	0a00008f 	beq	1497c <_strtoll_l.isra.0+0x298>
   1473c:	e3d63010 	bics	r3, r6, #16
   14740:	e1a05007 	mov	r5, r7
   14744:	e58d3004 	str	r3, [sp, #4]
   14748:	0a00007d 	beq	14944 <_strtoll_l.isra.0+0x260>
   1474c:	e3a03000 	mov	r3, #0
   14750:	e1a0a006 	mov	sl, r6
   14754:	e58d3004 	str	r3, [sp, #4]
   14758:	e1a0bfc6 	asr	fp, r6, #31
   1475c:	e3e03000 	mvn	r3, #0
   14760:	e58d3008 	str	r3, [sp, #8]
   14764:	e3e03102 	mvn	r3, #-2147483648	; 0x80000000
   14768:	e58d300c 	str	r3, [sp, #12]
   1476c:	e59d800c 	ldr	r8, [sp, #12]
   14770:	e59d9008 	ldr	r9, [sp, #8]
   14774:	e1a01008 	mov	r1, r8
   14778:	e1a0200a 	mov	r2, sl
   1477c:	e1a0300b 	mov	r3, fp
   14780:	e1a00009 	mov	r0, r9
   14784:	eb000ca3 	bl	17a18 <__aeabi_uldivmod>
   14788:	e1a0300b 	mov	r3, fp
   1478c:	e1a01008 	mov	r1, r8
   14790:	e1a07002 	mov	r7, r2
   14794:	e1a00009 	mov	r0, r9
   14798:	e1a0200a 	mov	r2, sl
   1479c:	eb000c9d 	bl	17a18 <__aeabi_uldivmod>
   147a0:	e3a08000 	mov	r8, #0
   147a4:	e3a02000 	mov	r2, #0
   147a8:	e3a03000 	mov	r3, #0
   147ac:	e3e0c000 	mvn	ip, #0
   147b0:	e3a0e001 	mov	lr, #1
   147b4:	ea000011 	b	14800 <_strtoll_l.isra.0+0x11c>
   147b8:	e1510003 	cmp	r1, r3
   147bc:	01500002 	cmpeq	r0, r2
   147c0:	03a08001 	moveq	r8, #1
   147c4:	13a08000 	movne	r8, #0
   147c8:	e1570004 	cmp	r7, r4
   147cc:	a3a08000 	movge	r8, #0
   147d0:	b2088001 	andlt	r8, r8, #1
   147d4:	e3580000 	cmp	r8, #0
   147d8:	1a00001c 	bne	14850 <_strtoll_l.isra.0+0x16c>
   147dc:	e0080b92 	mul	r8, r2, fp
   147e0:	e029839a 	mla	r9, sl, r3, r8
   147e4:	e1a03009 	mov	r3, r9
   147e8:	e0898a92 	umull	r8, r9, r2, sl
   147ec:	e0982004 	adds	r2, r8, r4
   147f0:	e1a0800e 	mov	r8, lr
   147f4:	e0839009 	add	r9, r3, r9
   147f8:	e0a93fc4 	adc	r3, r9, r4, asr #31
   147fc:	e4d54001 	ldrb	r4, [r5], #1
   14800:	e2449030 	sub	r9, r4, #48	; 0x30
   14804:	e3590009 	cmp	r9, #9
   14808:	91a04009 	movls	r4, r9
   1480c:	9a000007 	bls	14830 <_strtoll_l.isra.0+0x14c>
   14810:	e2449041 	sub	r9, r4, #65	; 0x41
   14814:	e3590019 	cmp	r9, #25
   14818:	92444037 	subls	r4, r4, #55	; 0x37
   1481c:	9a000003 	bls	14830 <_strtoll_l.isra.0+0x14c>
   14820:	e2449061 	sub	r9, r4, #97	; 0x61
   14824:	e3590019 	cmp	r9, #25
   14828:	8a00000a 	bhi	14858 <_strtoll_l.isra.0+0x174>
   1482c:	e2444057 	sub	r4, r4, #87	; 0x57
   14830:	e1540006 	cmp	r4, r6
   14834:	aa000007 	bge	14858 <_strtoll_l.isra.0+0x174>
   14838:	e1510003 	cmp	r1, r3
   1483c:	01500002 	cmpeq	r0, r2
   14840:	33a09001 	movcc	r9, #1
   14844:	23a09000 	movcs	r9, #0
   14848:	e1998fa8 	orrs	r8, r9, r8, lsr #31
   1484c:	0affffd9 	beq	147b8 <_strtoll_l.isra.0+0xd4>
   14850:	e1a0800c 	mov	r8, ip
   14854:	eaffffe8 	b	147fc <_strtoll_l.isra.0+0x118>
   14858:	e3780001 	cmn	r8, #1
   1485c:	0a00002f 	beq	14920 <_strtoll_l.isra.0+0x23c>
   14860:	e59d1004 	ldr	r1, [sp, #4]
   14864:	e3510000 	cmp	r1, #0
   14868:	1a00000c 	bne	148a0 <_strtoll_l.isra.0+0x1bc>
   1486c:	e59d1000 	ldr	r1, [sp]
   14870:	e3510000 	cmp	r1, #0
   14874:	0a000004 	beq	1488c <_strtoll_l.isra.0+0x1a8>
   14878:	e3580000 	cmp	r8, #0
   1487c:	059d5010 	ldreq	r5, [sp, #16]
   14880:	1a000009 	bne	148ac <_strtoll_l.isra.0+0x1c8>
   14884:	e59d1000 	ldr	r1, [sp]
   14888:	e5815000 	str	r5, [r1]
   1488c:	e1a00002 	mov	r0, r2
   14890:	e1a01003 	mov	r1, r3
   14894:	e28dd01c 	add	sp, sp, #28
   14898:	e8bd4ff0 	pop	{r4, r5, r6, r7, r8, r9, sl, fp, lr}
   1489c:	e12fff1e 	bx	lr
   148a0:	e2722000 	rsbs	r2, r2, #0
   148a4:	e2e33000 	rsc	r3, r3, #0
   148a8:	eaffffef 	b	1486c <_strtoll_l.isra.0+0x188>
   148ac:	e58d2008 	str	r2, [sp, #8]
   148b0:	e58d300c 	str	r3, [sp, #12]
   148b4:	e59d2008 	ldr	r2, [sp, #8]
   148b8:	e2455001 	sub	r5, r5, #1
   148bc:	e59d300c 	ldr	r3, [sp, #12]
   148c0:	eaffffef 	b	14884 <_strtoll_l.isra.0+0x1a0>
   148c4:	e2763001 	rsbs	r3, r6, #1
   148c8:	33a03000 	movcc	r3, #0
   148cc:	e3d62010 	bics	r2, r6, #16
   148d0:	03a02001 	moveq	r2, #1
   148d4:	e2855002 	add	r5, r5, #2
   148d8:	e5d74000 	ldrb	r4, [r7]
   148dc:	058d2004 	streq	r2, [sp, #4]
   148e0:	1a000030 	bne	149a8 <_strtoll_l.isra.0+0x2c4>
   148e4:	e3540030 	cmp	r4, #48	; 0x30
   148e8:	0a000019 	beq	14954 <_strtoll_l.isra.0+0x270>
   148ec:	e3530000 	cmp	r3, #0
   148f0:	0a000029 	beq	1499c <_strtoll_l.isra.0+0x2b8>
   148f4:	e3a0a00a 	mov	sl, #10
   148f8:	e3a0b000 	mov	fp, #0
   148fc:	e3a0600a 	mov	r6, #10
   14900:	e59d3004 	ldr	r3, [sp, #4]
   14904:	e3530000 	cmp	r3, #0
   14908:	0affff93 	beq	1475c <_strtoll_l.isra.0+0x78>
   1490c:	e3a03000 	mov	r3, #0
   14910:	e58d3008 	str	r3, [sp, #8]
   14914:	e3a03102 	mov	r3, #-2147483648	; 0x80000000
   14918:	e58d300c 	str	r3, [sp, #12]
   1491c:	eaffff92 	b	1476c <_strtoll_l.isra.0+0x88>
   14920:	e3a03022 	mov	r3, #34	; 0x22
   14924:	e59d2000 	ldr	r2, [sp]
   14928:	e3520000 	cmp	r2, #0
   1492c:	e59d2014 	ldr	r2, [sp, #20]
   14930:	e5823000 	str	r3, [r2]
   14934:	1affffde 	bne	148b4 <_strtoll_l.isra.0+0x1d0>
   14938:	e28d2008 	add	r2, sp, #8
   1493c:	e892000c 	ldm	r2, {r2, r3}
   14940:	eaffffd1 	b	1488c <_strtoll_l.isra.0+0x1a8>
   14944:	e2763001 	rsbs	r3, r6, #1
   14948:	33a03000 	movcc	r3, #0
   1494c:	e3540030 	cmp	r4, #48	; 0x30
   14950:	1affffe5 	bne	148ec <_strtoll_l.isra.0+0x208>
   14954:	e5d52000 	ldrb	r2, [r5]
   14958:	e20220df 	and	r2, r2, #223	; 0xdf
   1495c:	e3520058 	cmp	r2, #88	; 0x58
   14960:	1a000008 	bne	14988 <_strtoll_l.isra.0+0x2a4>
   14964:	e5d54001 	ldrb	r4, [r5, #1]
   14968:	e3a0a010 	mov	sl, #16
   1496c:	e3a0b000 	mov	fp, #0
   14970:	e2855002 	add	r5, r5, #2
   14974:	e3a06010 	mov	r6, #16
   14978:	eaffffe0 	b	14900 <_strtoll_l.isra.0+0x21c>
   1497c:	e5d74000 	ldrb	r4, [r7]
   14980:	e2857002 	add	r7, r5, #2
   14984:	eaffff6c 	b	1473c <_strtoll_l.isra.0+0x58>
   14988:	e3530000 	cmp	r3, #0
   1498c:	13a0a008 	movne	sl, #8
   14990:	13a0b000 	movne	fp, #0
   14994:	13a06008 	movne	r6, #8
   14998:	1affffd8 	bne	14900 <_strtoll_l.isra.0+0x21c>
   1499c:	e1a0a006 	mov	sl, r6
   149a0:	e1a0bfc6 	asr	fp, r6, #31
   149a4:	eaffffd5 	b	14900 <_strtoll_l.isra.0+0x21c>
   149a8:	e3a01001 	mov	r1, #1
   149ac:	e3a02000 	mov	r2, #0
   149b0:	e3a03102 	mov	r3, #-2147483648	; 0x80000000
   149b4:	e1a0a006 	mov	sl, r6
   149b8:	e1a0bfc6 	asr	fp, r6, #31
   149bc:	e98d000e 	stmib	sp, {r1, r2, r3}
   149c0:	eaffff69 	b	1476c <_strtoll_l.isra.0+0x88>

000149c4 <strtoll>:
   149c4:	e59f303c 	ldr	r3, [pc, #60]	; 14a08 <strtoll+0x44>
   149c8:	e52de004 	push	{lr}		; (str lr, [sp, #-4]!)
   149cc:	e593e000 	ldr	lr, [r3]
   149d0:	e59ec034 	ldr	ip, [lr, #52]	; 0x34
   149d4:	e59f3030 	ldr	r3, [pc, #48]	; 14a0c <strtoll+0x48>
   149d8:	e35c0000 	cmp	ip, #0
   149dc:	01a0c003 	moveq	ip, r3
   149e0:	e24dd00c 	sub	sp, sp, #12
   149e4:	e1a03002 	mov	r3, r2
   149e8:	e58dc000 	str	ip, [sp]
   149ec:	e1a02001 	mov	r2, r1
   149f0:	e1a01000 	mov	r1, r0
   149f4:	e1a0000e 	mov	r0, lr
   149f8:	ebffff39 	bl	146e4 <_strtoll_l.isra.0>
   149fc:	e28dd00c 	add	sp, sp, #12
   14a00:	e49de004 	pop	{lr}		; (ldr lr, [sp], #4)
   14a04:	e12fff1e 	bx	lr
   14a08:	00017d84 	.word	0x00017d84
   14a0c:	00017c18 	.word	0x00017c18

00014a10 <_strtoul_l.isra.0>:
   14a10:	e92d4ff0 	push	{r4, r5, r6, r7, r8, r9, sl, fp, lr}
   14a14:	e24dd00c 	sub	sp, sp, #12
   14a18:	e1a08001 	mov	r8, r1
   14a1c:	e58d0004 	str	r0, [sp, #4]
   14a20:	e1a07002 	mov	r7, r2
   14a24:	e1a06003 	mov	r6, r3
   14a28:	e1a0b001 	mov	fp, r1
   14a2c:	e59da030 	ldr	sl, [sp, #48]	; 0x30
   14a30:	ea000000 	b	14a38 <_strtoul_l.isra.0+0x28>
   14a34:	e1a0b005 	mov	fp, r5
   14a38:	e1a0500b 	mov	r5, fp
   14a3c:	e1a0000a 	mov	r0, sl
   14a40:	e4d54001 	ldrb	r4, [r5], #1
   14a44:	ebfff74c 	bl	1277c <__locale_ctype_ptr_l>
   14a48:	e0800004 	add	r0, r0, r4
   14a4c:	e5d03001 	ldrb	r3, [r0, #1]
   14a50:	e2133008 	ands	r3, r3, #8
   14a54:	1afffff6 	bne	14a34 <_strtoul_l.isra.0+0x24>
   14a58:	e354002d 	cmp	r4, #45	; 0x2d
   14a5c:	0a000055 	beq	14bb8 <_strtoul_l.isra.0+0x1a8>
   14a60:	e354002b 	cmp	r4, #43	; 0x2b
   14a64:	01a09003 	moveq	r9, r3
   14a68:	11a09003 	movne	r9, r3
   14a6c:	05d54000 	ldrbeq	r4, [r5]
   14a70:	028b5002 	addeq	r5, fp, #2
   14a74:	e3d63010 	bics	r3, r6, #16
   14a78:	1a00000e 	bne	14ab8 <_strtoul_l.isra.0+0xa8>
   14a7c:	e3540030 	cmp	r4, #48	; 0x30
   14a80:	0a000050 	beq	14bc8 <_strtoul_l.isra.0+0x1b8>
   14a84:	e3560000 	cmp	r6, #0
   14a88:	1a00000a 	bne	14ab8 <_strtoul_l.isra.0+0xa8>
   14a8c:	e3a0600a 	mov	r6, #10
   14a90:	e3a01005 	mov	r1, #5
   14a94:	e1a0c006 	mov	ip, r6
   14a98:	e59fa154 	ldr	sl, [pc, #340]	; 14bf4 <_strtoul_l.isra.0+0x1e4>
   14a9c:	ea00000d 	b	14ad8 <_strtoul_l.isra.0+0xc8>
   14aa0:	e3560000 	cmp	r6, #0
   14aa4:	03a06008 	moveq	r6, #8
   14aa8:	03a01007 	moveq	r1, #7
   14aac:	01a0c006 	moveq	ip, r6
   14ab0:	03e0a20e 	mvneq	sl, #-536870912	; 0xe0000000
   14ab4:	0a000007 	beq	14ad8 <_strtoul_l.isra.0+0xc8>
   14ab8:	e1a01006 	mov	r1, r6
   14abc:	e3e00000 	mvn	r0, #0
   14ac0:	eb000b3c 	bl	177b8 <__udivsi3>
   14ac4:	e1a01006 	mov	r1, r6
   14ac8:	e1a0a000 	mov	sl, r0
   14acc:	e3e00000 	mvn	r0, #0
   14ad0:	eb000b75 	bl	178ac <__aeabi_uidivmod>
   14ad4:	e1a0c006 	mov	ip, r6
   14ad8:	e3a03000 	mov	r3, #0
   14adc:	e3e02000 	mvn	r2, #0
   14ae0:	e1a00003 	mov	r0, r3
   14ae4:	e3a0e001 	mov	lr, #1
   14ae8:	e1a0b004 	mov	fp, r4
   14aec:	ea000009 	b	14b18 <_strtoul_l.isra.0+0x108>
   14af0:	e040b00a 	sub	fp, r0, sl
   14af4:	e27b3000 	rsbs	r3, fp, #0
   14af8:	e0a3300b 	adc	r3, r3, fp
   14afc:	e1540001 	cmp	r4, r1
   14b00:	d3a03000 	movle	r3, #0
   14b04:	e3530000 	cmp	r3, #0
   14b08:	1a000014 	bne	14b60 <_strtoul_l.isra.0+0x150>
   14b0c:	e1a0300e 	mov	r3, lr
   14b10:	e020409c 	mla	r0, ip, r0, r4
   14b14:	e4d5b001 	ldrb	fp, [r5], #1
   14b18:	e24b4030 	sub	r4, fp, #48	; 0x30
   14b1c:	e3540009 	cmp	r4, #9
   14b20:	9a000007 	bls	14b44 <_strtoul_l.isra.0+0x134>
   14b24:	e24b4041 	sub	r4, fp, #65	; 0x41
   14b28:	e3540019 	cmp	r4, #25
   14b2c:	924b4037 	subls	r4, fp, #55	; 0x37
   14b30:	9a000003 	bls	14b44 <_strtoul_l.isra.0+0x134>
   14b34:	e24b4061 	sub	r4, fp, #97	; 0x61
   14b38:	e3540019 	cmp	r4, #25
   14b3c:	8a000009 	bhi	14b68 <_strtoul_l.isra.0+0x158>
   14b40:	e24b4057 	sub	r4, fp, #87	; 0x57
   14b44:	e1560004 	cmp	r6, r4
   14b48:	da000006 	ble	14b68 <_strtoul_l.isra.0+0x158>
   14b4c:	e150000a 	cmp	r0, sl
   14b50:	93a0b000 	movls	fp, #0
   14b54:	83a0b001 	movhi	fp, #1
   14b58:	e19b3fa3 	orrs	r3, fp, r3, lsr #31
   14b5c:	0affffe3 	beq	14af0 <_strtoul_l.isra.0+0xe0>
   14b60:	e1a03002 	mov	r3, r2
   14b64:	eaffffea 	b	14b14 <_strtoul_l.isra.0+0x104>
   14b68:	e3530000 	cmp	r3, #0
   14b6c:	ba000009 	blt	14b98 <_strtoul_l.isra.0+0x188>
   14b70:	e3590000 	cmp	r9, #0
   14b74:	12600000 	rsbne	r0, r0, #0
   14b78:	e3570000 	cmp	r7, #0
   14b7c:	0a000002 	beq	14b8c <_strtoul_l.isra.0+0x17c>
   14b80:	e3530000 	cmp	r3, #0
   14b84:	1a000009 	bne	14bb0 <_strtoul_l.isra.0+0x1a0>
   14b88:	e5878000 	str	r8, [r7]
   14b8c:	e28dd00c 	add	sp, sp, #12
   14b90:	e8bd4ff0 	pop	{r4, r5, r6, r7, r8, r9, sl, fp, lr}
   14b94:	e12fff1e 	bx	lr
   14b98:	e3a03022 	mov	r3, #34	; 0x22
   14b9c:	e59d2004 	ldr	r2, [sp, #4]
   14ba0:	e3570000 	cmp	r7, #0
   14ba4:	e3e00000 	mvn	r0, #0
   14ba8:	e5823000 	str	r3, [r2]
   14bac:	0afffff6 	beq	14b8c <_strtoul_l.isra.0+0x17c>
   14bb0:	e2458001 	sub	r8, r5, #1
   14bb4:	eafffff3 	b	14b88 <_strtoul_l.isra.0+0x178>
   14bb8:	e5d54000 	ldrb	r4, [r5]
   14bbc:	e3a09001 	mov	r9, #1
   14bc0:	e28b5002 	add	r5, fp, #2
   14bc4:	eaffffaa 	b	14a74 <_strtoul_l.isra.0+0x64>
   14bc8:	e5d53000 	ldrb	r3, [r5]
   14bcc:	e20330df 	and	r3, r3, #223	; 0xdf
   14bd0:	e3530058 	cmp	r3, #88	; 0x58
   14bd4:	1affffb1 	bne	14aa0 <_strtoul_l.isra.0+0x90>
   14bd8:	e3a06010 	mov	r6, #16
   14bdc:	e5d54001 	ldrb	r4, [r5, #1]
   14be0:	e1a0c006 	mov	ip, r6
   14be4:	e2855002 	add	r5, r5, #2
   14be8:	e3a0100f 	mov	r1, #15
   14bec:	e3e0a20f 	mvn	sl, #-268435456	; 0xf0000000
   14bf0:	eaffffb8 	b	14ad8 <_strtoul_l.isra.0+0xc8>
   14bf4:	19999999 	.word	0x19999999

00014bf8 <strtoul>:
   14bf8:	e59f303c 	ldr	r3, [pc, #60]	; 14c3c <strtoul+0x44>
   14bfc:	e52de004 	push	{lr}		; (str lr, [sp, #-4]!)
   14c00:	e593e000 	ldr	lr, [r3]
   14c04:	e59ec034 	ldr	ip, [lr, #52]	; 0x34
   14c08:	e59f3030 	ldr	r3, [pc, #48]	; 14c40 <strtoul+0x48>
   14c0c:	e35c0000 	cmp	ip, #0
   14c10:	01a0c003 	moveq	ip, r3
   14c14:	e24dd00c 	sub	sp, sp, #12
   14c18:	e1a03002 	mov	r3, r2
   14c1c:	e58dc000 	str	ip, [sp]
   14c20:	e1a02001 	mov	r2, r1
   14c24:	e1a01000 	mov	r1, r0
   14c28:	e1a0000e 	mov	r0, lr
   14c2c:	ebffff77 	bl	14a10 <_strtoul_l.isra.0>
   14c30:	e28dd00c 	add	sp, sp, #12
   14c34:	e49de004 	pop	{lr}		; (ldr lr, [sp], #4)
   14c38:	e12fff1e 	bx	lr
   14c3c:	00017d84 	.word	0x00017d84
   14c40:	00017c18 	.word	0x00017c18
   14c44:	00000000 	.word	0x00000000

00014c48 <_strtoull_l.isra.0>:
   14c48:	e92d4ff0 	push	{r4, r5, r6, r7, r8, r9, sl, fp, lr}
   14c4c:	e24dd014 	sub	sp, sp, #20
   14c50:	e58d1008 	str	r1, [sp, #8]
   14c54:	e58d000c 	str	r0, [sp, #12]
   14c58:	e58d2000 	str	r2, [sp]
   14c5c:	e1a0a003 	mov	sl, r3
   14c60:	e1a07001 	mov	r7, r1
   14c64:	e59d6038 	ldr	r6, [sp, #56]	; 0x38
   14c68:	ea000000 	b	14c70 <_strtoull_l.isra.0+0x28>
   14c6c:	e1a07005 	mov	r7, r5
   14c70:	e1a05007 	mov	r5, r7
   14c74:	e1a00006 	mov	r0, r6
   14c78:	e4d54001 	ldrb	r4, [r5], #1
   14c7c:	ebfff6be 	bl	1277c <__locale_ctype_ptr_l>
   14c80:	e0800004 	add	r0, r0, r4
   14c84:	e5d03001 	ldrb	r3, [r0, #1]
   14c88:	e2133008 	ands	r3, r3, #8
   14c8c:	1afffff6 	bne	14c6c <_strtoull_l.isra.0+0x24>
   14c90:	e354002d 	cmp	r4, #45	; 0x2d
   14c94:	0a00006b 	beq	14e48 <_strtoull_l.isra.0+0x200>
   14c98:	e354002b 	cmp	r4, #43	; 0x2b
   14c9c:	058d3004 	streq	r3, [sp, #4]
   14ca0:	158d3004 	strne	r3, [sp, #4]
   14ca4:	05d54000 	ldrbeq	r4, [r5]
   14ca8:	02875002 	addeq	r5, r7, #2
   14cac:	e3da3010 	bics	r3, sl, #16
   14cb0:	1a00000a 	bne	14ce0 <_strtoull_l.isra.0+0x98>
   14cb4:	e3540030 	cmp	r4, #48	; 0x30
   14cb8:	0a000067 	beq	14e5c <_strtoull_l.isra.0+0x214>
   14cbc:	e35a0000 	cmp	sl, #0
   14cc0:	1a000006 	bne	14ce0 <_strtoull_l.isra.0+0x98>
   14cc4:	e3a0e005 	mov	lr, #5
   14cc8:	e28f7f7a 	add	r7, pc, #488	; 0x1e8
   14ccc:	e89700c0 	ldm	r7, {r6, r7}
   14cd0:	e3a0800a 	mov	r8, #10
   14cd4:	e3a09000 	mov	r9, #0
   14cd8:	e3a0a00a 	mov	sl, #10
   14cdc:	ea00000e 	b	14d1c <_strtoull_l.isra.0+0xd4>
   14ce0:	e1a09fca 	asr	r9, sl, #31
   14ce4:	e1a0200a 	mov	r2, sl
   14ce8:	e1a03009 	mov	r3, r9
   14cec:	e3e00000 	mvn	r0, #0
   14cf0:	e3e01000 	mvn	r1, #0
   14cf4:	eb000b47 	bl	17a18 <__aeabi_uldivmod>
   14cf8:	e1a0200a 	mov	r2, sl
   14cfc:	e1a06000 	mov	r6, r0
   14d00:	e1a07001 	mov	r7, r1
   14d04:	e1a03009 	mov	r3, r9
   14d08:	e3e00000 	mvn	r0, #0
   14d0c:	e3e01000 	mvn	r1, #0
   14d10:	eb000b40 	bl	17a18 <__aeabi_uldivmod>
   14d14:	e1a0800a 	mov	r8, sl
   14d18:	e1a0e002 	mov	lr, r2
   14d1c:	e3a03000 	mov	r3, #0
   14d20:	e3a00000 	mov	r0, #0
   14d24:	e3a01000 	mov	r1, #0
   14d28:	e3e0c000 	mvn	ip, #0
   14d2c:	e3a0b001 	mov	fp, #1
   14d30:	ea000011 	b	14d7c <_strtoull_l.isra.0+0x134>
   14d34:	e1510007 	cmp	r1, r7
   14d38:	01500006 	cmpeq	r0, r6
   14d3c:	03a03001 	moveq	r3, #1
   14d40:	13a03000 	movne	r3, #0
   14d44:	e154000e 	cmp	r4, lr
   14d48:	d3a03000 	movle	r3, #0
   14d4c:	c2033001 	andgt	r3, r3, #1
   14d50:	e3530000 	cmp	r3, #0
   14d54:	1a00001c 	bne	14dcc <_strtoull_l.isra.0+0x184>
   14d58:	e0030990 	mul	r3, r0, r9
   14d5c:	e0223198 	mla	r2, r8, r1, r3
   14d60:	e1a01002 	mov	r1, r2
   14d64:	e0832890 	umull	r2, r3, r0, r8
   14d68:	e0813003 	add	r3, r1, r3
   14d6c:	e0920004 	adds	r0, r2, r4
   14d70:	e0a31fc4 	adc	r1, r3, r4, asr #31
   14d74:	e1a0300b 	mov	r3, fp
   14d78:	e4d54001 	ldrb	r4, [r5], #1
   14d7c:	e2442030 	sub	r2, r4, #48	; 0x30
   14d80:	e3520009 	cmp	r2, #9
   14d84:	91a04002 	movls	r4, r2
   14d88:	9a000007 	bls	14dac <_strtoull_l.isra.0+0x164>
   14d8c:	e2442041 	sub	r2, r4, #65	; 0x41
   14d90:	e3520019 	cmp	r2, #25
   14d94:	92444037 	subls	r4, r4, #55	; 0x37
   14d98:	9a000003 	bls	14dac <_strtoull_l.isra.0+0x164>
   14d9c:	e2442061 	sub	r2, r4, #97	; 0x61
   14da0:	e3520019 	cmp	r2, #25
   14da4:	8a00000a 	bhi	14dd4 <_strtoull_l.isra.0+0x18c>
   14da8:	e2444057 	sub	r4, r4, #87	; 0x57
   14dac:	e15a0004 	cmp	sl, r4
   14db0:	da000007 	ble	14dd4 <_strtoull_l.isra.0+0x18c>
   14db4:	e1510007 	cmp	r1, r7
   14db8:	01500006 	cmpeq	r0, r6
   14dbc:	83a02001 	movhi	r2, #1
   14dc0:	93a02000 	movls	r2, #0
   14dc4:	e1923fa3 	orrs	r3, r2, r3, lsr #31
   14dc8:	0affffd9 	beq	14d34 <_strtoull_l.isra.0+0xec>
   14dcc:	e1a0300c 	mov	r3, ip
   14dd0:	eaffffe8 	b	14d78 <_strtoull_l.isra.0+0x130>
   14dd4:	e3530000 	cmp	r3, #0
   14dd8:	ba000010 	blt	14e20 <_strtoull_l.isra.0+0x1d8>
   14ddc:	e59d2004 	ldr	r2, [sp, #4]
   14de0:	e3520000 	cmp	r2, #0
   14de4:	1a00000a 	bne	14e14 <_strtoull_l.isra.0+0x1cc>
   14de8:	e59d2000 	ldr	r2, [sp]
   14dec:	e3520000 	cmp	r2, #0
   14df0:	0a000004 	beq	14e08 <_strtoull_l.isra.0+0x1c0>
   14df4:	e3530000 	cmp	r3, #0
   14df8:	059d5008 	ldreq	r5, [sp, #8]
   14dfc:	1a00000f 	bne	14e40 <_strtoull_l.isra.0+0x1f8>
   14e00:	e59d3000 	ldr	r3, [sp]
   14e04:	e5835000 	str	r5, [r3]
   14e08:	e28dd014 	add	sp, sp, #20
   14e0c:	e8bd4ff0 	pop	{r4, r5, r6, r7, r8, r9, sl, fp, lr}
   14e10:	e12fff1e 	bx	lr
   14e14:	e2700000 	rsbs	r0, r0, #0
   14e18:	e2e11000 	rsc	r1, r1, #0
   14e1c:	eafffff1 	b	14de8 <_strtoull_l.isra.0+0x1a0>
   14e20:	e3a03022 	mov	r3, #34	; 0x22
   14e24:	e59d2000 	ldr	r2, [sp]
   14e28:	e3520000 	cmp	r2, #0
   14e2c:	e59d200c 	ldr	r2, [sp, #12]
   14e30:	e3e00000 	mvn	r0, #0
   14e34:	e3e01000 	mvn	r1, #0
   14e38:	e5823000 	str	r3, [r2]
   14e3c:	0afffff1 	beq	14e08 <_strtoull_l.isra.0+0x1c0>
   14e40:	e2455001 	sub	r5, r5, #1
   14e44:	eaffffed 	b	14e00 <_strtoull_l.isra.0+0x1b8>
   14e48:	e3a03001 	mov	r3, #1
   14e4c:	e5d54000 	ldrb	r4, [r5]
   14e50:	e58d3004 	str	r3, [sp, #4]
   14e54:	e2875002 	add	r5, r7, #2
   14e58:	eaffff93 	b	14cac <_strtoull_l.isra.0+0x64>
   14e5c:	e5d53000 	ldrb	r3, [r5]
   14e60:	e20330df 	and	r3, r3, #223	; 0xdf
   14e64:	e3530058 	cmp	r3, #88	; 0x58
   14e68:	1a000008 	bne	14e90 <_strtoull_l.isra.0+0x248>
   14e6c:	e5d54001 	ldrb	r4, [r5, #1]
   14e70:	e3a0e00f 	mov	lr, #15
   14e74:	e2855002 	add	r5, r5, #2
   14e78:	e3e06000 	mvn	r6, #0
   14e7c:	e3e0720f 	mvn	r7, #-268435456	; 0xf0000000
   14e80:	e3a08010 	mov	r8, #16
   14e84:	e3a09000 	mov	r9, #0
   14e88:	e3a0a010 	mov	sl, #16
   14e8c:	eaffffa2 	b	14d1c <_strtoull_l.isra.0+0xd4>
   14e90:	e35a0000 	cmp	sl, #0
   14e94:	1affff91 	bne	14ce0 <_strtoull_l.isra.0+0x98>
   14e98:	e3a0e007 	mov	lr, #7
   14e9c:	e3e06000 	mvn	r6, #0
   14ea0:	e3e0720e 	mvn	r7, #-536870912	; 0xe0000000
   14ea4:	e3a08008 	mov	r8, #8
   14ea8:	e3a09000 	mov	r9, #0
   14eac:	e3a0a008 	mov	sl, #8
   14eb0:	eaffff99 	b	14d1c <_strtoull_l.isra.0+0xd4>
   14eb4:	e1a00000 	nop			; (mov r0, r0)
   14eb8:	99999999 	.word	0x99999999
   14ebc:	19999999 	.word	0x19999999

00014ec0 <strtoull>:
   14ec0:	e59f303c 	ldr	r3, [pc, #60]	; 14f04 <strtoull+0x44>
   14ec4:	e52de004 	push	{lr}		; (str lr, [sp, #-4]!)
   14ec8:	e593e000 	ldr	lr, [r3]
   14ecc:	e59ec034 	ldr	ip, [lr, #52]	; 0x34
   14ed0:	e59f3030 	ldr	r3, [pc, #48]	; 14f08 <strtoull+0x48>
   14ed4:	e35c0000 	cmp	ip, #0
   14ed8:	01a0c003 	moveq	ip, r3
   14edc:	e24dd00c 	sub	sp, sp, #12
   14ee0:	e1a03002 	mov	r3, r2
   14ee4:	e58dc000 	str	ip, [sp]
   14ee8:	e1a02001 	mov	r2, r1
   14eec:	e1a01000 	mov	r1, r0
   14ef0:	e1a0000e 	mov	r0, lr
   14ef4:	ebffff53 	bl	14c48 <_strtoull_l.isra.0>
   14ef8:	e28dd00c 	add	sp, sp, #12
   14efc:	e49de004 	pop	{lr}		; (ldr lr, [sp], #4)
   14f00:	e12fff1e 	bx	lr
   14f04:	00017d84 	.word	0x00017d84
   14f08:	00017c18 	.word	0x00017c18

00014f0c <wcscpy>:
   14f0c:	e3a02000 	mov	r2, #0
   14f10:	e5913000 	ldr	r3, [r1]
   14f14:	e1530002 	cmp	r3, r2
   14f18:	e5802000 	str	r2, [r0]
   14f1c:	e1a02000 	mov	r2, r0
   14f20:	0a000003 	beq	14f34 <wcscpy+0x28>
   14f24:	e4823004 	str	r3, [r2], #4
   14f28:	e5b13004 	ldr	r3, [r1, #4]!
   14f2c:	e3530000 	cmp	r3, #0
   14f30:	1afffffb 	bne	14f24 <wcscpy+0x18>
   14f34:	e3a03000 	mov	r3, #0
   14f38:	e5823000 	str	r3, [r2]
   14f3c:	e12fff1e 	bx	lr

00014f40 <wctob>:
   14f40:	e3700001 	cmn	r0, #1
   14f44:	0a00001c 	beq	14fbc <wctob+0x7c>
   14f48:	e92d4010 	push	{r4, lr}
   14f4c:	e24dd010 	sub	sp, sp, #16
   14f50:	e1a04000 	mov	r4, r0
   14f54:	e3a02008 	mov	r2, #8
   14f58:	e3a01000 	mov	r1, #0
   14f5c:	e28d0008 	add	r0, sp, #8
   14f60:	eb00031b 	bl	15bd4 <memset>
   14f64:	e59f3058 	ldr	r3, [pc, #88]	; 14fc4 <wctob+0x84>
   14f68:	e5930000 	ldr	r0, [r3]
   14f6c:	e5901034 	ldr	r1, [r0, #52]	; 0x34
   14f70:	e59f3050 	ldr	r3, [pc, #80]	; 14fc8 <wctob+0x88>
   14f74:	e3510000 	cmp	r1, #0
   14f78:	01a01003 	moveq	r1, r3
   14f7c:	e1a02004 	mov	r2, r4
   14f80:	e28d3008 	add	r3, sp, #8
   14f84:	e59140e0 	ldr	r4, [r1, #224]	; 0xe0
   14f88:	e28d1004 	add	r1, sp, #4
   14f8c:	e1a0e00f 	mov	lr, pc
   14f90:	e12fff14 	bx	r4
   14f94:	e3500001 	cmp	r0, #1
   14f98:	1a000003 	bne	14fac <wctob+0x6c>
   14f9c:	e5dd0004 	ldrb	r0, [sp, #4]
   14fa0:	e28dd010 	add	sp, sp, #16
   14fa4:	e8bd4010 	pop	{r4, lr}
   14fa8:	e12fff1e 	bx	lr
   14fac:	e3e00000 	mvn	r0, #0
   14fb0:	e28dd010 	add	sp, sp, #16
   14fb4:	e8bd4010 	pop	{r4, lr}
   14fb8:	e12fff1e 	bx	lr
   14fbc:	e3e00000 	mvn	r0, #0
   14fc0:	e12fff1e 	bx	lr
   14fc4:	00017d84 	.word	0x00017d84
   14fc8:	00017c18 	.word	0x00017c18

00014fcc <__ascii_wctomb>:
   14fcc:	e3510000 	cmp	r1, #0
   14fd0:	0a000005 	beq	14fec <__ascii_wctomb+0x20>
   14fd4:	e35200ff 	cmp	r2, #255	; 0xff
   14fd8:	83a0308a 	movhi	r3, #138	; 0x8a
   14fdc:	95c12000 	strbls	r2, [r1]
   14fe0:	83e01000 	mvnhi	r1, #0
   14fe4:	93a01001 	movls	r1, #1
   14fe8:	85803000 	strhi	r3, [r0]
   14fec:	e1a00001 	mov	r0, r1
   14ff0:	e12fff1e 	bx	lr

00014ff4 <rshift>:
   14ff4:	e92d40f0 	push	{r4, r5, r6, r7, lr}
   14ff8:	e590e010 	ldr	lr, [r0, #16]
   14ffc:	e1a032c1 	asr	r3, r1, #5
   15000:	e153000e 	cmp	r3, lr
   15004:	aa000022 	bge	15094 <rshift+0xa0>
   15008:	e2805014 	add	r5, r0, #20
   1500c:	e211101f 	ands	r1, r1, #31
   15010:	e085e10e 	add	lr, r5, lr, lsl #2
   15014:	e0854103 	add	r4, r5, r3, lsl #2
   15018:	0a000023 	beq	150ac <rshift+0xb8>
   1501c:	e7953103 	ldr	r3, [r5, r3, lsl #2]
   15020:	e2842004 	add	r2, r4, #4
   15024:	e15e0002 	cmp	lr, r2
   15028:	e1a03133 	lsr	r3, r3, r1
   1502c:	e2617020 	rsb	r7, r1, #32
   15030:	9a00002b 	bls	150e4 <rshift+0xf0>
   15034:	e1a06005 	mov	r6, r5
   15038:	e592c000 	ldr	ip, [r2]
   1503c:	e183371c 	orr	r3, r3, ip, lsl r7
   15040:	e4863004 	str	r3, [r6], #4
   15044:	e4923004 	ldr	r3, [r2], #4
   15048:	e15e0002 	cmp	lr, r2
   1504c:	e1a03133 	lsr	r3, r3, r1
   15050:	8afffff8 	bhi	15038 <rshift+0x44>
   15054:	e04e2004 	sub	r2, lr, r4
   15058:	e2422005 	sub	r2, r2, #5
   1505c:	e3c22003 	bic	r2, r2, #3
   15060:	e2822004 	add	r2, r2, #4
   15064:	e0852002 	add	r2, r5, r2
   15068:	e3530000 	cmp	r3, #0
   1506c:	e5823000 	str	r3, [r2]
   15070:	12823004 	addne	r3, r2, #4
   15074:	00423005 	subeq	r3, r2, r5
   15078:	10433005 	subne	r3, r3, r5
   1507c:	e1a03143 	asr	r3, r3, #2
   15080:	e3530000 	cmp	r3, #0
   15084:	e5803010 	str	r3, [r0, #16]
   15088:	0a000003 	beq	1509c <rshift+0xa8>
   1508c:	e8bd40f0 	pop	{r4, r5, r6, r7, lr}
   15090:	e12fff1e 	bx	lr
   15094:	e3a03000 	mov	r3, #0
   15098:	e5803010 	str	r3, [r0, #16]
   1509c:	e3a03000 	mov	r3, #0
   150a0:	e8bd40f0 	pop	{r4, r5, r6, r7, lr}
   150a4:	e5803014 	str	r3, [r0, #20]
   150a8:	e12fff1e 	bx	lr
   150ac:	e15e0004 	cmp	lr, r4
   150b0:	81a03004 	movhi	r3, r4
   150b4:	82802010 	addhi	r2, r0, #16
   150b8:	9afffff5 	bls	15094 <rshift+0xa0>
   150bc:	e4931004 	ldr	r1, [r3], #4
   150c0:	e15e0003 	cmp	lr, r3
   150c4:	e5a21004 	str	r1, [r2, #4]!
   150c8:	8afffffb 	bhi	150bc <rshift+0xc8>
   150cc:	e1e03004 	mvn	r3, r4
   150d0:	e083300e 	add	r3, r3, lr
   150d4:	e3c33003 	bic	r3, r3, #3
   150d8:	e2833004 	add	r3, r3, #4
   150dc:	e1a03143 	asr	r3, r3, #2
   150e0:	eaffffe6 	b	15080 <rshift+0x8c>
   150e4:	e1a02005 	mov	r2, r5
   150e8:	eaffffde 	b	15068 <rshift+0x74>

000150ec <__gethex>:
   150ec:	e92d4ff0 	push	{r4, r5, r6, r7, r8, r9, sl, fp, lr}
   150f0:	e24dd034 	sub	sp, sp, #52	; 0x34
   150f4:	e58d001c 	str	r0, [sp, #28]
   150f8:	e59d0060 	ldr	r0, [sp, #96]	; 0x60
   150fc:	e1a08001 	mov	r8, r1
   15100:	e58d2014 	str	r2, [sp, #20]
   15104:	e58d3028 	str	r3, [sp, #40]	; 0x28
   15108:	eb0002af 	bl	15bcc <__localeconv_l>
   1510c:	e5903000 	ldr	r3, [r0]
   15110:	e1a00003 	mov	r0, r3
   15114:	e1a04003 	mov	r4, r3
   15118:	e58d3010 	str	r3, [sp, #16]
   1511c:	ebfff6ed 	bl	12cd8 <strlen>
   15120:	e5983000 	ldr	r3, [r8]
   15124:	e5d32002 	ldrb	r2, [r3, #2]
   15128:	e0841000 	add	r1, r4, r0
   1512c:	e3520030 	cmp	r2, #48	; 0x30
   15130:	e58d0008 	str	r0, [sp, #8]
   15134:	e3a07000 	mov	r7, #0
   15138:	e551b001 	ldrb	fp, [r1, #-1]
   1513c:	1a00014e 	bne	1567c <__gethex+0x590>
   15140:	e2833003 	add	r3, r3, #3
   15144:	e1a04003 	mov	r4, r3
   15148:	e4d32001 	ldrb	r2, [r3], #1
   1514c:	e3520030 	cmp	r2, #48	; 0x30
   15150:	e2877001 	add	r7, r7, #1
   15154:	0afffffa 	beq	15144 <__gethex+0x58>
   15158:	e59f678c 	ldr	r6, [pc, #1932]	; 158ec <__gethex+0x800>
   1515c:	e7d63002 	ldrb	r3, [r6, r2]
   15160:	e3530000 	cmp	r3, #0
   15164:	0a000097 	beq	153c8 <__gethex+0x2dc>
   15168:	e3a03000 	mov	r3, #0
   1516c:	e1a05003 	mov	r5, r3
   15170:	e58d3004 	str	r3, [sp, #4]
   15174:	e5d43000 	ldrb	r3, [r4]
   15178:	e7d63003 	ldrb	r3, [r6, r3]
   1517c:	e3530000 	cmp	r3, #0
   15180:	e1a09004 	mov	r9, r4
   15184:	0a000003 	beq	15198 <__gethex+0xac>
   15188:	e5f93001 	ldrb	r3, [r9, #1]!
   1518c:	e7d63003 	ldrb	r3, [r6, r3]
   15190:	e3530000 	cmp	r3, #0
   15194:	1afffffb 	bne	15188 <__gethex+0x9c>
   15198:	e59d2008 	ldr	r2, [sp, #8]
   1519c:	e59d1010 	ldr	r1, [sp, #16]
   151a0:	e1a00009 	mov	r0, r9
   151a4:	eb00061f 	bl	16a28 <strncmp>
   151a8:	e3500000 	cmp	r0, #0
   151ac:	0a000074 	beq	15384 <__gethex+0x298>
   151b0:	e3550000 	cmp	r5, #0
   151b4:	e5d93000 	ldrb	r3, [r9]
   151b8:	058d500c 	streq	r5, [sp, #12]
   151bc:	0a000002 	beq	151cc <__gethex+0xe0>
   151c0:	e0455009 	sub	r5, r5, r9
   151c4:	e1a02105 	lsl	r2, r5, #2
   151c8:	e58d200c 	str	r2, [sp, #12]
   151cc:	e3530050 	cmp	r3, #80	; 0x50
   151d0:	0a00008e 	beq	15410 <__gethex+0x324>
   151d4:	e3530070 	cmp	r3, #112	; 0x70
   151d8:	0a00008c 	beq	15410 <__gethex+0x324>
   151dc:	e1a05009 	mov	r5, r9
   151e0:	e59d3004 	ldr	r3, [sp, #4]
   151e4:	e3530000 	cmp	r3, #0
   151e8:	e5889000 	str	r9, [r8]
   151ec:	1a00006e 	bne	153ac <__gethex+0x2c0>
   151f0:	e0453004 	sub	r3, r5, r4
   151f4:	e2433001 	sub	r3, r3, #1
   151f8:	e3530007 	cmp	r3, #7
   151fc:	e59d1004 	ldr	r1, [sp, #4]
   15200:	da000003 	ble	15214 <__gethex+0x128>
   15204:	e1a030c3 	asr	r3, r3, #1
   15208:	e3530007 	cmp	r3, #7
   1520c:	e2811001 	add	r1, r1, #1
   15210:	cafffffb 	bgt	15204 <__gethex+0x118>
   15214:	e59d001c 	ldr	r0, [sp, #28]
   15218:	eb0002b2 	bl	15ce8 <_Balloc>
   1521c:	e1540005 	cmp	r4, r5
   15220:	e2803014 	add	r3, r0, #20
   15224:	e58d0018 	str	r0, [sp, #24]
   15228:	e58d3024 	str	r3, [sp, #36]	; 0x24
   1522c:	2a00016d 	bcs	157e8 <__gethex+0x6fc>
   15230:	e1a09003 	mov	r9, r3
   15234:	e59d3008 	ldr	r3, [sp, #8]
   15238:	e2633001 	rsb	r3, r3, #1
   1523c:	e59d7004 	ldr	r7, [sp, #4]
   15240:	e3a08000 	mov	r8, #0
   15244:	e58d3020 	str	r3, [sp, #32]
   15248:	ea00000a 	b	15278 <__gethex+0x18c>
   1524c:	e3570020 	cmp	r7, #32
   15250:	11a02007 	movne	r2, r7
   15254:	12877004 	addne	r7, r7, #4
   15258:	0a00004d 	beq	15394 <__gethex+0x2a8>
   1525c:	e5553001 	ldrb	r3, [r5, #-1]
   15260:	e1a0500a 	mov	r5, sl
   15264:	e7d63003 	ldrb	r3, [r6, r3]
   15268:	e1550004 	cmp	r5, r4
   1526c:	e203300f 	and	r3, r3, #15
   15270:	e1888213 	orr	r8, r8, r3, lsl r2
   15274:	9a000012 	bls	152c4 <__gethex+0x1d8>
   15278:	e5553001 	ldrb	r3, [r5, #-1]
   1527c:	e153000b 	cmp	r3, fp
   15280:	e245a001 	sub	sl, r5, #1
   15284:	1afffff0 	bne	1524c <__gethex+0x160>
   15288:	e59d3020 	ldr	r3, [sp, #32]
   1528c:	e08a3003 	add	r3, sl, r3
   15290:	e1530004 	cmp	r3, r4
   15294:	3affffec 	bcc	1524c <__gethex+0x160>
   15298:	e1a00003 	mov	r0, r3
   1529c:	e59d2008 	ldr	r2, [sp, #8]
   152a0:	e59d1010 	ldr	r1, [sp, #16]
   152a4:	e58d302c 	str	r3, [sp, #44]	; 0x2c
   152a8:	eb0005de 	bl	16a28 <strncmp>
   152ac:	e59d302c 	ldr	r3, [sp, #44]	; 0x2c
   152b0:	e3500000 	cmp	r0, #0
   152b4:	01a05003 	moveq	r5, r3
   152b8:	1affffe3 	bne	1524c <__gethex+0x160>
   152bc:	e1550004 	cmp	r5, r4
   152c0:	8affffec 	bhi	15278 <__gethex+0x18c>
   152c4:	e4898004 	str	r8, [r9], #4
   152c8:	e59d3024 	ldr	r3, [sp, #36]	; 0x24
   152cc:	e0499003 	sub	r9, r9, r3
   152d0:	e59d3018 	ldr	r3, [sp, #24]
   152d4:	e1a09149 	asr	r9, r9, #2
   152d8:	e5839010 	str	r9, [r3, #16]
   152dc:	e1a00008 	mov	r0, r8
   152e0:	eb00031d 	bl	15f5c <__hi0bits>
   152e4:	e59d3014 	ldr	r3, [sp, #20]
   152e8:	e1a09289 	lsl	r9, r9, #5
   152ec:	e5934000 	ldr	r4, [r3]
   152f0:	e0490000 	sub	r0, r9, r0
   152f4:	e1500004 	cmp	r0, r4
   152f8:	ca0000b5 	bgt	155d4 <__gethex+0x4e8>
   152fc:	a3a06000 	movge	r6, #0
   15300:	ba0000d0 	blt	15648 <__gethex+0x55c>
   15304:	e59d3014 	ldr	r3, [sp, #20]
   15308:	e59d200c 	ldr	r2, [sp, #12]
   1530c:	e5933008 	ldr	r3, [r3, #8]
   15310:	e1520003 	cmp	r2, r3
   15314:	ca00007e 	bgt	15514 <__gethex+0x428>
   15318:	e59d1014 	ldr	r1, [sp, #20]
   1531c:	e59d200c 	ldr	r2, [sp, #12]
   15320:	e5913004 	ldr	r3, [r1, #4]
   15324:	e1520003 	cmp	r2, r3
   15328:	ba000097 	blt	1558c <__gethex+0x4a0>
   1532c:	e3a07001 	mov	r7, #1
   15330:	e3560000 	cmp	r6, #0
   15334:	0a000008 	beq	1535c <__gethex+0x270>
   15338:	e59d3014 	ldr	r3, [sp, #20]
   1533c:	e593300c 	ldr	r3, [r3, #12]
   15340:	e3530002 	cmp	r3, #2
   15344:	0a0000f4 	beq	1571c <__gethex+0x630>
   15348:	e3530003 	cmp	r3, #3
   1534c:	0a0000f5 	beq	15728 <__gethex+0x63c>
   15350:	e3530001 	cmp	r3, #1
   15354:	0a00011b 	beq	157c8 <__gethex+0x6dc>
   15358:	e3877010 	orr	r7, r7, #16
   1535c:	e1a00007 	mov	r0, r7
   15360:	e59d3058 	ldr	r3, [sp, #88]	; 0x58
   15364:	e59d2018 	ldr	r2, [sp, #24]
   15368:	e5832000 	str	r2, [r3]
   1536c:	e59d3028 	ldr	r3, [sp, #40]	; 0x28
   15370:	e59d200c 	ldr	r2, [sp, #12]
   15374:	e5832000 	str	r2, [r3]
   15378:	e28dd034 	add	sp, sp, #52	; 0x34
   1537c:	e8bd4ff0 	pop	{r4, r5, r6, r7, r8, r9, sl, fp, lr}
   15380:	e12fff1e 	bx	lr
   15384:	e3550000 	cmp	r5, #0
   15388:	0a0000d7 	beq	156ec <__gethex+0x600>
   1538c:	e5d93000 	ldrb	r3, [r9]
   15390:	eaffff8a 	b	151c0 <__gethex+0xd4>
   15394:	e3a07004 	mov	r7, #4
   15398:	e5898000 	str	r8, [r9]
   1539c:	e59d2004 	ldr	r2, [sp, #4]
   153a0:	e3a08000 	mov	r8, #0
   153a4:	e0899007 	add	r9, r9, r7
   153a8:	eaffffab 	b	1525c <__gethex+0x170>
   153ac:	e3570000 	cmp	r7, #0
   153b0:	03a07006 	moveq	r7, #6
   153b4:	13a07000 	movne	r7, #0
   153b8:	e1a00007 	mov	r0, r7
   153bc:	e28dd034 	add	sp, sp, #52	; 0x34
   153c0:	e8bd4ff0 	pop	{r4, r5, r6, r7, r8, r9, sl, fp, lr}
   153c4:	e12fff1e 	bx	lr
   153c8:	e59d5008 	ldr	r5, [sp, #8]
   153cc:	e59d1010 	ldr	r1, [sp, #16]
   153d0:	e1a02005 	mov	r2, r5
   153d4:	e1a00004 	mov	r0, r4
   153d8:	eb000592 	bl	16a28 <strncmp>
   153dc:	e3500000 	cmp	r0, #0
   153e0:	0a000056 	beq	15540 <__gethex+0x454>
   153e4:	e1a09004 	mov	r9, r4
   153e8:	e5d42000 	ldrb	r2, [r4]
   153ec:	e3520050 	cmp	r2, #80	; 0x50
   153f0:	0a000002 	beq	15400 <__gethex+0x314>
   153f4:	e3520070 	cmp	r2, #112	; 0x70
   153f8:	15889000 	strne	r9, [r8]
   153fc:	1affffea 	bne	153ac <__gethex+0x2c0>
   15400:	e3a03000 	mov	r3, #0
   15404:	e58d300c 	str	r3, [sp, #12]
   15408:	e3a03001 	mov	r3, #1
   1540c:	e58d3004 	str	r3, [sp, #4]
   15410:	e5d93001 	ldrb	r3, [r9, #1]
   15414:	e353002b 	cmp	r3, #43	; 0x2b
   15418:	0a00001f 	beq	1549c <__gethex+0x3b0>
   1541c:	e353002d 	cmp	r3, #45	; 0x2d
   15420:	03a0c001 	moveq	ip, #1
   15424:	12891001 	addne	r1, r9, #1
   15428:	13a0c000 	movne	ip, #0
   1542c:	0a00001b 	beq	154a0 <__gethex+0x3b4>
   15430:	e7d63003 	ldrb	r3, [r6, r3]
   15434:	e2432001 	sub	r2, r3, #1
   15438:	e3520018 	cmp	r2, #24
   1543c:	8affff66 	bhi	151dc <__gethex+0xf0>
   15440:	e5d12001 	ldrb	r2, [r1, #1]
   15444:	e7d62002 	ldrb	r2, [r6, r2]
   15448:	e2420001 	sub	r0, r2, #1
   1544c:	e3500018 	cmp	r0, #24
   15450:	e2433010 	sub	r3, r3, #16
   15454:	e2811001 	add	r1, r1, #1
   15458:	8a000007 	bhi	1547c <__gethex+0x390>
   1545c:	e5f10001 	ldrb	r0, [r1, #1]!
   15460:	e0833103 	add	r3, r3, r3, lsl #2
   15464:	e0823083 	add	r3, r2, r3, lsl #1
   15468:	e7d62000 	ldrb	r2, [r6, r0]
   1546c:	e2420001 	sub	r0, r2, #1
   15470:	e3500018 	cmp	r0, #24
   15474:	e2433010 	sub	r3, r3, #16
   15478:	9afffff7 	bls	1545c <__gethex+0x370>
   1547c:	e59d200c 	ldr	r2, [sp, #12]
   15480:	e35c0000 	cmp	ip, #0
   15484:	12633000 	rsbne	r3, r3, #0
   15488:	e0823003 	add	r3, r2, r3
   1548c:	e1a05009 	mov	r5, r9
   15490:	e58d300c 	str	r3, [sp, #12]
   15494:	e1a09001 	mov	r9, r1
   15498:	eaffff50 	b	151e0 <__gethex+0xf4>
   1549c:	e3a0c000 	mov	ip, #0
   154a0:	e5d93002 	ldrb	r3, [r9, #2]
   154a4:	e2891002 	add	r1, r9, #2
   154a8:	eaffffe0 	b	15430 <__gethex+0x344>
   154ac:	e59d3018 	ldr	r3, [sp, #24]
   154b0:	e5933008 	ldr	r3, [r3, #8]
   154b4:	e1550003 	cmp	r5, r3
   154b8:	aa0000f5 	bge	15894 <__gethex+0x7a8>
   154bc:	e1a02005 	mov	r2, r5
   154c0:	e59d3024 	ldr	r3, [sp, #36]	; 0x24
   154c4:	e3a00001 	mov	r0, #1
   154c8:	e59dc018 	ldr	ip, [sp, #24]
   154cc:	e0821000 	add	r1, r2, r0
   154d0:	e3570002 	cmp	r7, #2
   154d4:	e08c2102 	add	r2, ip, r2, lsl #2
   154d8:	e58c1010 	str	r1, [ip, #16]
   154dc:	e5820014 	str	r0, [r2, #20]
   154e0:	0a0000d5 	beq	1583c <__gethex+0x750>
   154e4:	e1550001 	cmp	r5, r1
   154e8:	aa0000fd 	bge	158e4 <__gethex+0x7f8>
   154ec:	e3a01001 	mov	r1, #1
   154f0:	e59d0018 	ldr	r0, [sp, #24]
   154f4:	ebfffebe 	bl	14ff4 <rshift>
   154f8:	e59d3014 	ldr	r3, [sp, #20]
   154fc:	e59d200c 	ldr	r2, [sp, #12]
   15500:	e5933008 	ldr	r3, [r3, #8]
   15504:	e2822001 	add	r2, r2, #1
   15508:	e1520003 	cmp	r2, r3
   1550c:	e58d200c 	str	r2, [sp, #12]
   15510:	da00009c 	ble	15788 <__gethex+0x69c>
   15514:	e3a070a3 	mov	r7, #163	; 0xa3
   15518:	e59d001c 	ldr	r0, [sp, #28]
   1551c:	e59d1018 	ldr	r1, [sp, #24]
   15520:	eb000213 	bl	15d74 <_Bfree>
   15524:	e3a03000 	mov	r3, #0
   15528:	e1a00007 	mov	r0, r7
   1552c:	e59d2058 	ldr	r2, [sp, #88]	; 0x58
   15530:	e5823000 	str	r3, [r2]
   15534:	e28dd034 	add	sp, sp, #52	; 0x34
   15538:	e8bd4ff0 	pop	{r4, r5, r6, r7, r8, r9, sl, fp, lr}
   1553c:	e12fff1e 	bx	lr
   15540:	e7d42005 	ldrb	r2, [r4, r5]
   15544:	e7d63002 	ldrb	r3, [r6, r2]
   15548:	e3530000 	cmp	r3, #0
   1554c:	e1a01005 	mov	r1, r5
   15550:	e0849005 	add	r9, r4, r5
   15554:	0affffa4 	beq	153ec <__gethex+0x300>
   15558:	e3520030 	cmp	r2, #48	; 0x30
   1555c:	e1a04009 	mov	r4, r9
   15560:	1a000003 	bne	15574 <__gethex+0x488>
   15564:	e5f43001 	ldrb	r3, [r4, #1]!
   15568:	e3530030 	cmp	r3, #48	; 0x30
   1556c:	0afffffc 	beq	15564 <__gethex+0x478>
   15570:	e7d63003 	ldrb	r3, [r6, r3]
   15574:	e2732001 	rsbs	r2, r3, #1
   15578:	33a02000 	movcc	r2, #0
   1557c:	e1a05009 	mov	r5, r9
   15580:	e58d2004 	str	r2, [sp, #4]
   15584:	e3a07001 	mov	r7, #1
   15588:	eafffefb 	b	1517c <__gethex+0x90>
   1558c:	e0435002 	sub	r5, r3, r2
   15590:	e1540005 	cmp	r4, r5
   15594:	ca00003a 	bgt	15684 <__gethex+0x598>
   15598:	e591200c 	ldr	r2, [r1, #12]
   1559c:	e3520002 	cmp	r2, #2
   155a0:	0a0000a1 	beq	1582c <__gethex+0x740>
   155a4:	e3520003 	cmp	r2, #3
   155a8:	0a000078 	beq	15790 <__gethex+0x6a4>
   155ac:	e3520001 	cmp	r2, #1
   155b0:	0a000091 	beq	157fc <__gethex+0x710>
   155b4:	e59d1018 	ldr	r1, [sp, #24]
   155b8:	e59d001c 	ldr	r0, [sp, #28]
   155bc:	eb0001ec 	bl	15d74 <_Bfree>
   155c0:	e3a03000 	mov	r3, #0
   155c4:	e59d2058 	ldr	r2, [sp, #88]	; 0x58
   155c8:	e3a07050 	mov	r7, #80	; 0x50
   155cc:	e5823000 	str	r3, [r2]
   155d0:	eaffff78 	b	153b8 <__gethex+0x2cc>
   155d4:	e0405004 	sub	r5, r0, r4
   155d8:	e1a01005 	mov	r1, r5
   155dc:	e59d0018 	ldr	r0, [sp, #24]
   155e0:	eb0004ed 	bl	1699c <__any_on>
   155e4:	e2506000 	subs	r6, r0, #0
   155e8:	0a00000f 	beq	1562c <__gethex+0x540>
   155ec:	e3a06001 	mov	r6, #1
   155f0:	e2453001 	sub	r3, r5, #1
   155f4:	e59d1024 	ldr	r1, [sp, #36]	; 0x24
   155f8:	e1a022c3 	asr	r2, r3, #5
   155fc:	e7912102 	ldr	r2, [r1, r2, lsl #2]
   15600:	e203101f 	and	r1, r3, #31
   15604:	e0122116 	ands	r2, r2, r6, lsl r1
   15608:	0a000007 	beq	1562c <__gethex+0x540>
   1560c:	e1530006 	cmp	r3, r6
   15610:	da000077 	ble	157f4 <__gethex+0x708>
   15614:	e2451002 	sub	r1, r5, #2
   15618:	e59d0018 	ldr	r0, [sp, #24]
   1561c:	eb0004de 	bl	1699c <__any_on>
   15620:	e3500000 	cmp	r0, #0
   15624:	0a000072 	beq	157f4 <__gethex+0x708>
   15628:	e3a06003 	mov	r6, #3
   1562c:	e59d300c 	ldr	r3, [sp, #12]
   15630:	e1a01005 	mov	r1, r5
   15634:	e0833005 	add	r3, r3, r5
   15638:	e59d0018 	ldr	r0, [sp, #24]
   1563c:	e58d300c 	str	r3, [sp, #12]
   15640:	ebfffe6b 	bl	14ff4 <rshift>
   15644:	eaffff2e 	b	15304 <__gethex+0x218>
   15648:	e0445000 	sub	r5, r4, r0
   1564c:	e1a02005 	mov	r2, r5
   15650:	e59d1018 	ldr	r1, [sp, #24]
   15654:	e59d001c 	ldr	r0, [sp, #28]
   15658:	eb00033b 	bl	1634c <__lshift>
   1565c:	e59d200c 	ldr	r2, [sp, #12]
   15660:	e2803014 	add	r3, r0, #20
   15664:	e0422005 	sub	r2, r2, r5
   15668:	e58d0018 	str	r0, [sp, #24]
   1566c:	e58d200c 	str	r2, [sp, #12]
   15670:	e58d3024 	str	r3, [sp, #36]	; 0x24
   15674:	e3a06000 	mov	r6, #0
   15678:	eaffff21 	b	15304 <__gethex+0x218>
   1567c:	e2834002 	add	r4, r3, #2
   15680:	eafffeb4 	b	15158 <__gethex+0x6c>
   15684:	e3560000 	cmp	r6, #0
   15688:	e2457001 	sub	r7, r5, #1
   1568c:	13a06001 	movne	r6, #1
   15690:	1a000005 	bne	156ac <__gethex+0x5c0>
   15694:	e3570000 	cmp	r7, #0
   15698:	0a000003 	beq	156ac <__gethex+0x5c0>
   1569c:	e1a01007 	mov	r1, r7
   156a0:	e59d0018 	ldr	r0, [sp, #24]
   156a4:	eb0004bc 	bl	1699c <__any_on>
   156a8:	e1a06000 	mov	r6, r0
   156ac:	e3a02001 	mov	r2, #1
   156b0:	e59d1024 	ldr	r1, [sp, #36]	; 0x24
   156b4:	e1a032c7 	asr	r3, r7, #5
   156b8:	e7913103 	ldr	r3, [r1, r3, lsl #2]
   156bc:	e207701f 	and	r7, r7, #31
   156c0:	e0133712 	ands	r3, r3, r2, lsl r7
   156c4:	e1a01005 	mov	r1, r5
   156c8:	e59d0018 	ldr	r0, [sp, #24]
   156cc:	13866002 	orrne	r6, r6, #2
   156d0:	ebfffe47 	bl	14ff4 <rshift>
   156d4:	e59d3014 	ldr	r3, [sp, #20]
   156d8:	e5933004 	ldr	r3, [r3, #4]
   156dc:	e0444005 	sub	r4, r4, r5
   156e0:	e3a07002 	mov	r7, #2
   156e4:	e58d300c 	str	r3, [sp, #12]
   156e8:	eaffff10 	b	15330 <__gethex+0x244>
   156ec:	e59d1008 	ldr	r1, [sp, #8]
   156f0:	e7d93001 	ldrb	r3, [r9, r1]
   156f4:	e7d62003 	ldrb	r2, [r6, r3]
   156f8:	e0895001 	add	r5, r9, r1
   156fc:	e3520000 	cmp	r2, #0
   15700:	e1a09005 	mov	r9, r5
   15704:	0afffead 	beq	151c0 <__gethex+0xd4>
   15708:	e5f93001 	ldrb	r3, [r9, #1]!
   1570c:	e7d62003 	ldrb	r2, [r6, r3]
   15710:	e3520000 	cmp	r2, #0
   15714:	1afffffb 	bne	15708 <__gethex+0x61c>
   15718:	eafffea8 	b	151c0 <__gethex+0xd4>
   1571c:	e59d305c 	ldr	r3, [sp, #92]	; 0x5c
   15720:	e2633001 	rsb	r3, r3, #1
   15724:	e58d305c 	str	r3, [sp, #92]	; 0x5c
   15728:	e59d305c 	ldr	r3, [sp, #92]	; 0x5c
   1572c:	e3530000 	cmp	r3, #0
   15730:	0affff08 	beq	15358 <__gethex+0x26c>
   15734:	e59d0018 	ldr	r0, [sp, #24]
   15738:	e5905010 	ldr	r5, [r0, #16]
   1573c:	e59d2024 	ldr	r2, [sp, #36]	; 0x24
   15740:	e1a06105 	lsl	r6, r5, #2
   15744:	e1a01002 	mov	r1, r2
   15748:	e1a03002 	mov	r3, r2
   1574c:	e3a0c000 	mov	ip, #0
   15750:	e0820006 	add	r0, r2, r6
   15754:	ea000002 	b	15764 <__gethex+0x678>
   15758:	e483c004 	str	ip, [r3], #4
   1575c:	e1500003 	cmp	r0, r3
   15760:	9affff51 	bls	154ac <__gethex+0x3c0>
   15764:	e5932000 	ldr	r2, [r3]
   15768:	e3720001 	cmn	r2, #1
   1576c:	0afffff9 	beq	15758 <__gethex+0x66c>
   15770:	e2822001 	add	r2, r2, #1
   15774:	e3570002 	cmp	r7, #2
   15778:	e5832000 	str	r2, [r3]
   1577c:	0a00002f 	beq	15840 <__gethex+0x754>
   15780:	e214401f 	ands	r4, r4, #31
   15784:	1a00003b 	bne	15878 <__gethex+0x78c>
   15788:	e3a07021 	mov	r7, #33	; 0x21
   1578c:	eafffef2 	b	1535c <__gethex+0x270>
   15790:	e59d205c 	ldr	r2, [sp, #92]	; 0x5c
   15794:	e3520000 	cmp	r2, #0
   15798:	0affff85 	beq	155b4 <__gethex+0x4c8>
   1579c:	e3a02001 	mov	r2, #1
   157a0:	e59d1028 	ldr	r1, [sp, #40]	; 0x28
   157a4:	e5813000 	str	r3, [r1]
   157a8:	e59d3018 	ldr	r3, [sp, #24]
   157ac:	e59d1024 	ldr	r1, [sp, #36]	; 0x24
   157b0:	e5832010 	str	r2, [r3, #16]
   157b4:	e5812000 	str	r2, [r1]
   157b8:	e59d2058 	ldr	r2, [sp, #88]	; 0x58
   157bc:	e3a07062 	mov	r7, #98	; 0x62
   157c0:	e5823000 	str	r3, [r2]
   157c4:	eafffefb 	b	153b8 <__gethex+0x2cc>
   157c8:	e3160002 	tst	r6, #2
   157cc:	0afffee1 	beq	15358 <__gethex+0x26c>
   157d0:	e59d3024 	ldr	r3, [sp, #36]	; 0x24
   157d4:	e5933000 	ldr	r3, [r3]
   157d8:	e1866003 	orr	r6, r6, r3
   157dc:	e3160001 	tst	r6, #1
   157e0:	1affffd3 	bne	15734 <__gethex+0x648>
   157e4:	eafffedb 	b	15358 <__gethex+0x26c>
   157e8:	e59d9024 	ldr	r9, [sp, #36]	; 0x24
   157ec:	e3a08000 	mov	r8, #0
   157f0:	eafffeb3 	b	152c4 <__gethex+0x1d8>
   157f4:	e3a06002 	mov	r6, #2
   157f8:	eaffff8b 	b	1562c <__gethex+0x540>
   157fc:	e1540005 	cmp	r4, r5
   15800:	1affff6b 	bne	155b4 <__gethex+0x4c8>
   15804:	e3540001 	cmp	r4, #1
   15808:	daffffe3 	ble	1579c <__gethex+0x6b0>
   1580c:	e2441001 	sub	r1, r4, #1
   15810:	e59d0018 	ldr	r0, [sp, #24]
   15814:	eb000460 	bl	1699c <__any_on>
   15818:	e3500000 	cmp	r0, #0
   1581c:	0affff64 	beq	155b4 <__gethex+0x4c8>
   15820:	e59d3014 	ldr	r3, [sp, #20]
   15824:	e5933004 	ldr	r3, [r3, #4]
   15828:	eaffffdb 	b	1579c <__gethex+0x6b0>
   1582c:	e59d205c 	ldr	r2, [sp, #92]	; 0x5c
   15830:	e3520000 	cmp	r2, #0
   15834:	0affffd8 	beq	1579c <__gethex+0x6b0>
   15838:	eaffff5d 	b	155b4 <__gethex+0x4c8>
   1583c:	e1a01003 	mov	r1, r3
   15840:	e59d3014 	ldr	r3, [sp, #20]
   15844:	e5933000 	ldr	r3, [r3]
   15848:	e2433001 	sub	r3, r3, #1
   1584c:	e1540003 	cmp	r4, r3
   15850:	13a07022 	movne	r7, #34	; 0x22
   15854:	1afffec0 	bne	1535c <__gethex+0x270>
   15858:	e3a02001 	mov	r2, #1
   1585c:	e1a032c4 	asr	r3, r4, #5
   15860:	e7913103 	ldr	r3, [r1, r3, lsl #2]
   15864:	e204401f 	and	r4, r4, #31
   15868:	e0133412 	ands	r3, r3, r2, lsl r4
   1586c:	13a07021 	movne	r7, #33	; 0x21
   15870:	03a07022 	moveq	r7, #34	; 0x22
   15874:	eafffeb8 	b	1535c <__gethex+0x270>
   15878:	e0813006 	add	r3, r1, r6
   1587c:	e5130004 	ldr	r0, [r3, #-4]
   15880:	eb0001b5 	bl	15f5c <__hi0bits>
   15884:	e2644020 	rsb	r4, r4, #32
   15888:	e1500004 	cmp	r0, r4
   1588c:	aaffffbd 	bge	15788 <__gethex+0x69c>
   15890:	eaffff15 	b	154ec <__gethex+0x400>
   15894:	e59d9018 	ldr	r9, [sp, #24]
   15898:	e59da01c 	ldr	sl, [sp, #28]
   1589c:	e5991004 	ldr	r1, [r9, #4]
   158a0:	e1a0000a 	mov	r0, sl
   158a4:	e2811001 	add	r1, r1, #1
   158a8:	eb00010e 	bl	15ce8 <_Balloc>
   158ac:	e1a08000 	mov	r8, r0
   158b0:	e5992010 	ldr	r2, [r9, #16]
   158b4:	e2822002 	add	r2, r2, #2
   158b8:	e1a02102 	lsl	r2, r2, #2
   158bc:	e289100c 	add	r1, r9, #12
   158c0:	e280000c 	add	r0, r0, #12
   158c4:	ebfff3de 	bl	12844 <memcpy>
   158c8:	e1a01009 	mov	r1, r9
   158cc:	e1a0000a 	mov	r0, sl
   158d0:	eb000127 	bl	15d74 <_Bfree>
   158d4:	e58d8018 	str	r8, [sp, #24]
   158d8:	e2883014 	add	r3, r8, #20
   158dc:	e5982010 	ldr	r2, [r8, #16]
   158e0:	eafffef7 	b	154c4 <__gethex+0x3d8>
   158e4:	e1a01003 	mov	r1, r3
   158e8:	eaffffa4 	b	15780 <__gethex+0x694>
   158ec:	00019ae4 	.word	0x00019ae4

000158f0 <__match>:
   158f0:	e4d12001 	ldrb	r2, [r1], #1
   158f4:	e3520000 	cmp	r2, #0
   158f8:	e590c000 	ldr	ip, [r0]
   158fc:	0a000012 	beq	1594c <__match+0x5c>
   15900:	e52de004 	push	{lr}		; (str lr, [sp, #-4]!)
   15904:	ea000002 	b	15914 <__match+0x24>
   15908:	e4d12001 	ldrb	r2, [r1], #1
   1590c:	e3520000 	cmp	r2, #0
   15910:	0a000008 	beq	15938 <__match+0x48>
   15914:	e5fc3001 	ldrb	r3, [ip, #1]!
   15918:	e243e041 	sub	lr, r3, #65	; 0x41
   1591c:	e35e0019 	cmp	lr, #25
   15920:	92833020 	addls	r3, r3, #32
   15924:	e1530002 	cmp	r3, r2
   15928:	0afffff6 	beq	15908 <__match+0x18>
   1592c:	e3a00000 	mov	r0, #0
   15930:	e49de004 	pop	{lr}		; (ldr lr, [sp], #4)
   15934:	e12fff1e 	bx	lr
   15938:	e28cc001 	add	ip, ip, #1
   1593c:	e580c000 	str	ip, [r0]
   15940:	e49de004 	pop	{lr}		; (ldr lr, [sp], #4)
   15944:	e3a00001 	mov	r0, #1
   15948:	e12fff1e 	bx	lr
   1594c:	e28cc001 	add	ip, ip, #1
   15950:	e580c000 	str	ip, [r0]
   15954:	e3a00001 	mov	r0, #1
   15958:	e12fff1e 	bx	lr

0001595c <__hexnan>:
   1595c:	e92d4ff0 	push	{r4, r5, r6, r7, r8, r9, sl, fp, lr}
   15960:	e5913000 	ldr	r3, [r1]
   15964:	e24dd014 	sub	sp, sp, #20
   15968:	e1a012c3 	asr	r1, r3, #5
   1596c:	e213301f 	ands	r3, r3, #31
   15970:	e58d300c 	str	r3, [sp, #12]
   15974:	e0823101 	add	r3, r2, r1, lsl #2
   15978:	e58d3004 	str	r3, [sp, #4]
   1597c:	12833004 	addne	r3, r3, #4
   15980:	158d3004 	strne	r3, [sp, #4]
   15984:	e3a03000 	mov	r3, #0
   15988:	e58d0008 	str	r0, [sp, #8]
   1598c:	e59d0004 	ldr	r0, [sp, #4]
   15990:	e1a01003 	mov	r1, r3
   15994:	e5003004 	str	r3, [r0, #-4]
   15998:	e1a0b003 	mov	fp, r3
   1599c:	e1a07003 	mov	r7, r3
   159a0:	e59d3008 	ldr	r3, [sp, #8]
   159a4:	e593c000 	ldr	ip, [r3]
   159a8:	e2408004 	sub	r8, r0, #4
   159ac:	e5dc0001 	ldrb	r0, [ip, #1]
   159b0:	e3500000 	cmp	r0, #0
   159b4:	e1a05008 	mov	r5, r8
   159b8:	e1a0e008 	mov	lr, r8
   159bc:	e59fa204 	ldr	sl, [pc, #516]	; 15bc8 <__hexnan+0x26c>
   159c0:	e28c4001 	add	r4, ip, #1
   159c4:	0a000027 	beq	15a68 <__hexnan+0x10c>
   159c8:	e7da3000 	ldrb	r3, [sl, r0]
   159cc:	e3530000 	cmp	r3, #0
   159d0:	1a000050 	bne	15b18 <__hexnan+0x1bc>
   159d4:	e3500020 	cmp	r0, #32
   159d8:	8a00005d 	bhi	15b54 <__hexnan+0x1f8>
   159dc:	e157000b 	cmp	r7, fp
   159e0:	da00001b 	ble	15a54 <__hexnan+0xf8>
   159e4:	e15e0005 	cmp	lr, r5
   159e8:	23a03000 	movcs	r3, #0
   159ec:	33a03001 	movcc	r3, #1
   159f0:	e3510007 	cmp	r1, #7
   159f4:	c3a03000 	movgt	r3, #0
   159f8:	e3530000 	cmp	r3, #0
   159fc:	0a00000b 	beq	15a30 <__hexnan+0xd4>
   15a00:	e1a0300e 	mov	r3, lr
   15a04:	e2611008 	rsb	r1, r1, #8
   15a08:	e1a06101 	lsl	r6, r1, #2
   15a0c:	e59e1000 	ldr	r1, [lr]
   15a10:	e2669020 	rsb	r9, r6, #32
   15a14:	e5930004 	ldr	r0, [r3, #4]
   15a18:	e181c910 	orr	ip, r1, r0, lsl r9
   15a1c:	e1a01630 	lsr	r1, r0, r6
   15a20:	e583c000 	str	ip, [r3]
   15a24:	e5a31004 	str	r1, [r3, #4]!
   15a28:	e1550003 	cmp	r5, r3
   15a2c:	8afffff8 	bhi	15a14 <__hexnan+0xb8>
   15a30:	e15e0002 	cmp	lr, r2
   15a34:	93a01008 	movls	r1, #8
   15a38:	9a000005 	bls	15a54 <__hexnan+0xf8>
   15a3c:	e3a03000 	mov	r3, #0
   15a40:	e24e5004 	sub	r5, lr, #4
   15a44:	e50e3004 	str	r3, [lr, #-4]
   15a48:	e1a0b007 	mov	fp, r7
   15a4c:	e1a0e005 	mov	lr, r5
   15a50:	e1a01003 	mov	r1, r3
   15a54:	e1a0c004 	mov	ip, r4
   15a58:	e5dc0001 	ldrb	r0, [ip, #1]
   15a5c:	e3500000 	cmp	r0, #0
   15a60:	e28c4001 	add	r4, ip, #1
   15a64:	1affffd7 	bne	159c8 <__hexnan+0x6c>
   15a68:	e3570000 	cmp	r7, #0
   15a6c:	0a00003a 	beq	15b5c <__hexnan+0x200>
   15a70:	e15e0005 	cmp	lr, r5
   15a74:	23a03000 	movcs	r3, #0
   15a78:	33a03001 	movcc	r3, #1
   15a7c:	e3510007 	cmp	r1, #7
   15a80:	c3a03000 	movgt	r3, #0
   15a84:	e3530000 	cmp	r3, #0
   15a88:	0a00000b 	beq	15abc <__hexnan+0x160>
   15a8c:	e1a0000e 	mov	r0, lr
   15a90:	e2613008 	rsb	r3, r1, #8
   15a94:	e1a03103 	lsl	r3, r3, #2
   15a98:	e59e1000 	ldr	r1, [lr]
   15a9c:	e2636020 	rsb	r6, r3, #32
   15aa0:	e590c004 	ldr	ip, [r0, #4]
   15aa4:	e181461c 	orr	r4, r1, ip, lsl r6
   15aa8:	e1a0133c 	lsr	r1, ip, r3
   15aac:	e5804000 	str	r4, [r0]
   15ab0:	e5a01004 	str	r1, [r0, #4]!
   15ab4:	e1550000 	cmp	r5, r0
   15ab8:	8afffff8 	bhi	15aa0 <__hexnan+0x144>
   15abc:	e15e0002 	cmp	lr, r2
   15ac0:	9a000029 	bls	15b6c <__hexnan+0x210>
   15ac4:	e1a03002 	mov	r3, r2
   15ac8:	e49e1004 	ldr	r1, [lr], #4
   15acc:	e158000e 	cmp	r8, lr
   15ad0:	e4831004 	str	r1, [r3], #4
   15ad4:	2afffffb 	bcs	15ac8 <__hexnan+0x16c>
   15ad8:	e3a01000 	mov	r1, #0
   15adc:	e4831004 	str	r1, [r3], #4
   15ae0:	e1580003 	cmp	r8, r3
   15ae4:	2afffffc 	bcs	15adc <__hexnan+0x180>
   15ae8:	e59d3004 	ldr	r3, [sp, #4]
   15aec:	e5133004 	ldr	r3, [r3, #-4]
   15af0:	ea000002 	b	15b00 <__hexnan+0x1a4>
   15af4:	e1520008 	cmp	r2, r8
   15af8:	0a000026 	beq	15b98 <__hexnan+0x23c>
   15afc:	e5383004 	ldr	r3, [r8, #-4]!
   15b00:	e3530000 	cmp	r3, #0
   15b04:	0afffffa 	beq	15af4 <__hexnan+0x198>
   15b08:	e3a00005 	mov	r0, #5
   15b0c:	e28dd014 	add	sp, sp, #20
   15b10:	e8bd4ff0 	pop	{r4, r5, r6, r7, r8, r9, sl, fp, lr}
   15b14:	e12fff1e 	bx	lr
   15b18:	e2811001 	add	r1, r1, #1
   15b1c:	e3510008 	cmp	r1, #8
   15b20:	e2877001 	add	r7, r7, #1
   15b24:	da000005 	ble	15b40 <__hexnan+0x1e4>
   15b28:	e15e0002 	cmp	lr, r2
   15b2c:	9affffc8 	bls	15a54 <__hexnan+0xf8>
   15b30:	e3a00000 	mov	r0, #0
   15b34:	e3a01001 	mov	r1, #1
   15b38:	e50e0004 	str	r0, [lr, #-4]
   15b3c:	e24ee004 	sub	lr, lr, #4
   15b40:	e59e0000 	ldr	r0, [lr]
   15b44:	e203300f 	and	r3, r3, #15
   15b48:	e1833200 	orr	r3, r3, r0, lsl #4
   15b4c:	e58e3000 	str	r3, [lr]
   15b50:	eaffffbf 	b	15a54 <__hexnan+0xf8>
   15b54:	e3500029 	cmp	r0, #41	; 0x29
   15b58:	0a000014 	beq	15bb0 <__hexnan+0x254>
   15b5c:	e3a00004 	mov	r0, #4
   15b60:	e28dd014 	add	sp, sp, #20
   15b64:	e8bd4ff0 	pop	{r4, r5, r6, r7, r8, r9, sl, fp, lr}
   15b68:	e12fff1e 	bx	lr
   15b6c:	e59d300c 	ldr	r3, [sp, #12]
   15b70:	e3530000 	cmp	r3, #0
   15b74:	0affffdb 	beq	15ae8 <__hexnan+0x18c>
   15b78:	e3e00000 	mvn	r0, #0
   15b7c:	e59dc004 	ldr	ip, [sp, #4]
   15b80:	e59d300c 	ldr	r3, [sp, #12]
   15b84:	e51c1004 	ldr	r1, [ip, #-4]
   15b88:	e2633020 	rsb	r3, r3, #32
   15b8c:	e0013330 	and	r3, r1, r0, lsr r3
   15b90:	e50c3004 	str	r3, [ip, #-4]
   15b94:	eaffffd9 	b	15b00 <__hexnan+0x1a4>
   15b98:	e3a03001 	mov	r3, #1
   15b9c:	e3a00005 	mov	r0, #5
   15ba0:	e5823000 	str	r3, [r2]
   15ba4:	e28dd014 	add	sp, sp, #20
   15ba8:	e8bd4ff0 	pop	{r4, r5, r6, r7, r8, r9, sl, fp, lr}
   15bac:	e12fff1e 	bx	lr
   15bb0:	e59d3008 	ldr	r3, [sp, #8]
   15bb4:	e28cc002 	add	ip, ip, #2
   15bb8:	e3570000 	cmp	r7, #0
   15bbc:	e583c000 	str	ip, [r3]
   15bc0:	1affffaa 	bne	15a70 <__hexnan+0x114>
   15bc4:	eaffffe4 	b	15b5c <__hexnan+0x200>
   15bc8:	00019ae4 	.word	0x00019ae4

00015bcc <__localeconv_l>:
   15bcc:	e28000f0 	add	r0, r0, #240	; 0xf0
   15bd0:	e12fff1e 	bx	lr

00015bd4 <memset>:
   15bd4:	e3100003 	tst	r0, #3
   15bd8:	0a000040 	beq	15ce0 <memset+0x10c>
   15bdc:	e3520000 	cmp	r2, #0
   15be0:	e2422001 	sub	r2, r2, #1
   15be4:	012fff1e 	bxeq	lr
   15be8:	e201c0ff 	and	ip, r1, #255	; 0xff
   15bec:	e1a03000 	mov	r3, r0
   15bf0:	ea000002 	b	15c00 <memset+0x2c>
   15bf4:	e2422001 	sub	r2, r2, #1
   15bf8:	e3720001 	cmn	r2, #1
   15bfc:	012fff1e 	bxeq	lr
   15c00:	e4c3c001 	strb	ip, [r3], #1
   15c04:	e3130003 	tst	r3, #3
   15c08:	1afffff9 	bne	15bf4 <memset+0x20>
   15c0c:	e3520003 	cmp	r2, #3
   15c10:	9a00002a 	bls	15cc0 <memset+0xec>
   15c14:	e92d4010 	push	{r4, lr}
   15c18:	e201e0ff 	and	lr, r1, #255	; 0xff
   15c1c:	e18ee40e 	orr	lr, lr, lr, lsl #8
   15c20:	e352000f 	cmp	r2, #15
   15c24:	e18ee80e 	orr	lr, lr, lr, lsl #16
   15c28:	9a000010 	bls	15c70 <memset+0x9c>
   15c2c:	e1a04002 	mov	r4, r2
   15c30:	e283c010 	add	ip, r3, #16
   15c34:	e2444010 	sub	r4, r4, #16
   15c38:	e354000f 	cmp	r4, #15
   15c3c:	e50ce010 	str	lr, [ip, #-16]
   15c40:	e50ce00c 	str	lr, [ip, #-12]
   15c44:	e50ce008 	str	lr, [ip, #-8]
   15c48:	e50ce004 	str	lr, [ip, #-4]
   15c4c:	e28cc010 	add	ip, ip, #16
   15c50:	8afffff7 	bhi	15c34 <memset+0x60>
   15c54:	e242c010 	sub	ip, r2, #16
   15c58:	e3ccc00f 	bic	ip, ip, #15
   15c5c:	e202200f 	and	r2, r2, #15
   15c60:	e28cc010 	add	ip, ip, #16
   15c64:	e3520003 	cmp	r2, #3
   15c68:	e083300c 	add	r3, r3, ip
   15c6c:	9a00000a 	bls	15c9c <memset+0xc8>
   15c70:	e1a04003 	mov	r4, r3
   15c74:	e1a0c002 	mov	ip, r2
   15c78:	e24cc004 	sub	ip, ip, #4
   15c7c:	e35c0003 	cmp	ip, #3
   15c80:	e484e004 	str	lr, [r4], #4
   15c84:	8afffffb 	bhi	15c78 <memset+0xa4>
   15c88:	e242c004 	sub	ip, r2, #4
   15c8c:	e3ccc003 	bic	ip, ip, #3
   15c90:	e28cc004 	add	ip, ip, #4
   15c94:	e083300c 	add	r3, r3, ip
   15c98:	e2022003 	and	r2, r2, #3
   15c9c:	e3520000 	cmp	r2, #0
   15ca0:	0a000004 	beq	15cb8 <memset+0xe4>
   15ca4:	e20110ff 	and	r1, r1, #255	; 0xff
   15ca8:	e0832002 	add	r2, r3, r2
   15cac:	e4c31001 	strb	r1, [r3], #1
   15cb0:	e1520003 	cmp	r2, r3
   15cb4:	1afffffc 	bne	15cac <memset+0xd8>
   15cb8:	e8bd4010 	pop	{r4, lr}
   15cbc:	e12fff1e 	bx	lr
   15cc0:	e3520000 	cmp	r2, #0
   15cc4:	012fff1e 	bxeq	lr
   15cc8:	e20110ff 	and	r1, r1, #255	; 0xff
   15ccc:	e0832002 	add	r2, r3, r2
   15cd0:	e4c31001 	strb	r1, [r3], #1
   15cd4:	e1520003 	cmp	r2, r3
   15cd8:	1afffffc 	bne	15cd0 <memset+0xfc>
   15cdc:	e12fff1e 	bx	lr
   15ce0:	e1a03000 	mov	r3, r0
   15ce4:	eaffffc8 	b	15c0c <memset+0x38>

00015ce8 <_Balloc>:
   15ce8:	e590304c 	ldr	r3, [r0, #76]	; 0x4c
   15cec:	e3530000 	cmp	r3, #0
   15cf0:	e92d4070 	push	{r4, r5, r6, lr}
   15cf4:	e1a05000 	mov	r5, r0
   15cf8:	e1a04001 	mov	r4, r1
   15cfc:	0a000009 	beq	15d28 <_Balloc+0x40>
   15d00:	e7930104 	ldr	r0, [r3, r4, lsl #2]
   15d04:	e3500000 	cmp	r0, #0
   15d08:	0a00000f 	beq	15d4c <_Balloc+0x64>
   15d0c:	e5902000 	ldr	r2, [r0]
   15d10:	e7832104 	str	r2, [r3, r4, lsl #2]
   15d14:	e3a03000 	mov	r3, #0
   15d18:	e5803010 	str	r3, [r0, #16]
   15d1c:	e580300c 	str	r3, [r0, #12]
   15d20:	e8bd4070 	pop	{r4, r5, r6, lr}
   15d24:	e12fff1e 	bx	lr
   15d28:	e3a02021 	mov	r2, #33	; 0x21
   15d2c:	e3a01004 	mov	r1, #4
   15d30:	eb000380 	bl	16b38 <_calloc_r>
   15d34:	e3500000 	cmp	r0, #0
   15d38:	e585004c 	str	r0, [r5, #76]	; 0x4c
   15d3c:	11a03000 	movne	r3, r0
   15d40:	1affffee 	bne	15d00 <_Balloc+0x18>
   15d44:	e3a00000 	mov	r0, #0
   15d48:	eafffff4 	b	15d20 <_Balloc+0x38>
   15d4c:	e3a01001 	mov	r1, #1
   15d50:	e1a06411 	lsl	r6, r1, r4
   15d54:	e2862005 	add	r2, r6, #5
   15d58:	e1a00005 	mov	r0, r5
   15d5c:	e1a02102 	lsl	r2, r2, #2
   15d60:	eb000374 	bl	16b38 <_calloc_r>
   15d64:	e3500000 	cmp	r0, #0
   15d68:	0afffff5 	beq	15d44 <_Balloc+0x5c>
   15d6c:	e9800050 	stmib	r0, {r4, r6}
   15d70:	eaffffe7 	b	15d14 <_Balloc+0x2c>

00015d74 <_Bfree>:
   15d74:	e3510000 	cmp	r1, #0
   15d78:	1590304c 	ldrne	r3, [r0, #76]	; 0x4c
   15d7c:	15912004 	ldrne	r2, [r1, #4]
   15d80:	17930102 	ldrne	r0, [r3, r2, lsl #2]
   15d84:	15810000 	strne	r0, [r1]
   15d88:	17831102 	strne	r1, [r3, r2, lsl #2]
   15d8c:	e12fff1e 	bx	lr

00015d90 <__multadd>:
   15d90:	e92d40f0 	push	{r4, r5, r6, r7, lr}
   15d94:	e1a04001 	mov	r4, r1
   15d98:	e1a05000 	mov	r5, r0
   15d9c:	e3a0e000 	mov	lr, #0
   15da0:	e5916010 	ldr	r6, [r1, #16]
   15da4:	e59f70bc 	ldr	r7, [pc, #188]	; 15e68 <__multadd+0xd8>
   15da8:	e24dd00c 	sub	sp, sp, #12
   15dac:	e281c014 	add	ip, r1, #20
   15db0:	e59c0000 	ldr	r0, [ip]
   15db4:	e0001007 	and	r1, r0, r7
   15db8:	e0233192 	mla	r3, r2, r1, r3
   15dbc:	e1a01820 	lsr	r1, r0, #16
   15dc0:	e1a00823 	lsr	r0, r3, #16
   15dc4:	e0210192 	mla	r1, r2, r1, r0
   15dc8:	e28ee001 	add	lr, lr, #1
   15dcc:	e0033007 	and	r3, r3, r7
   15dd0:	e0833801 	add	r3, r3, r1, lsl #16
   15dd4:	e156000e 	cmp	r6, lr
   15dd8:	e48c3004 	str	r3, [ip], #4
   15ddc:	e1a03821 	lsr	r3, r1, #16
   15de0:	cafffff2 	bgt	15db0 <__multadd+0x20>
   15de4:	e3530000 	cmp	r3, #0
   15de8:	0a000006 	beq	15e08 <__multadd+0x78>
   15dec:	e5942008 	ldr	r2, [r4, #8]
   15df0:	e1560002 	cmp	r6, r2
   15df4:	aa000007 	bge	15e18 <__multadd+0x88>
   15df8:	e0842106 	add	r2, r4, r6, lsl #2
   15dfc:	e2866001 	add	r6, r6, #1
   15e00:	e5823014 	str	r3, [r2, #20]
   15e04:	e5846010 	str	r6, [r4, #16]
   15e08:	e1a00004 	mov	r0, r4
   15e0c:	e28dd00c 	add	sp, sp, #12
   15e10:	e8bd40f0 	pop	{r4, r5, r6, r7, lr}
   15e14:	e12fff1e 	bx	lr
   15e18:	e5941004 	ldr	r1, [r4, #4]
   15e1c:	e1a00005 	mov	r0, r5
   15e20:	e2811001 	add	r1, r1, #1
   15e24:	e58d3004 	str	r3, [sp, #4]
   15e28:	ebffffae 	bl	15ce8 <_Balloc>
   15e2c:	e1a07000 	mov	r7, r0
   15e30:	e5942010 	ldr	r2, [r4, #16]
   15e34:	e2822002 	add	r2, r2, #2
   15e38:	e284100c 	add	r1, r4, #12
   15e3c:	e1a02102 	lsl	r2, r2, #2
   15e40:	e280000c 	add	r0, r0, #12
   15e44:	ebfff27e 	bl	12844 <memcpy>
   15e48:	e595204c 	ldr	r2, [r5, #76]	; 0x4c
   15e4c:	e5941004 	ldr	r1, [r4, #4]
   15e50:	e7920101 	ldr	r0, [r2, r1, lsl #2]
   15e54:	e59d3004 	ldr	r3, [sp, #4]
   15e58:	e5840000 	str	r0, [r4]
   15e5c:	e7824101 	str	r4, [r2, r1, lsl #2]
   15e60:	e1a04007 	mov	r4, r7
   15e64:	eaffffe3 	b	15df8 <__multadd+0x68>
   15e68:	0000ffff 	.word	0x0000ffff

00015e6c <__s2b>:
   15e6c:	e59fc0e4 	ldr	ip, [pc, #228]	; 15f58 <__s2b+0xec>
   15e70:	e92d47f0 	push	{r4, r5, r6, r7, r8, r9, sl, lr}
   15e74:	e1a07003 	mov	r7, r3
   15e78:	e2833008 	add	r3, r3, #8
   15e7c:	e0ccec93 	smull	lr, ip, r3, ip
   15e80:	e1a03fc3 	asr	r3, r3, #31
   15e84:	e063c0cc 	rsb	ip, r3, ip, asr #1
   15e88:	e35c0001 	cmp	ip, #1
   15e8c:	e1a05000 	mov	r5, r0
   15e90:	e1a04001 	mov	r4, r1
   15e94:	e1a08002 	mov	r8, r2
   15e98:	e59d6020 	ldr	r6, [sp, #32]
   15e9c:	da00002b 	ble	15f50 <__s2b+0xe4>
   15ea0:	e3a03001 	mov	r3, #1
   15ea4:	e3a01000 	mov	r1, #0
   15ea8:	e1a03083 	lsl	r3, r3, #1
   15eac:	e15c0003 	cmp	ip, r3
   15eb0:	e2811001 	add	r1, r1, #1
   15eb4:	cafffffb 	bgt	15ea8 <__s2b+0x3c>
   15eb8:	e1a00005 	mov	r0, r5
   15ebc:	ebffff89 	bl	15ce8 <_Balloc>
   15ec0:	e3a03001 	mov	r3, #1
   15ec4:	e3580009 	cmp	r8, #9
   15ec8:	e5806014 	str	r6, [r0, #20]
   15ecc:	e5803010 	str	r3, [r0, #16]
   15ed0:	d284400a 	addle	r4, r4, #10
   15ed4:	d3a08009 	movle	r8, #9
   15ed8:	da00000d 	ble	15f14 <__s2b+0xa8>
   15edc:	e284a009 	add	sl, r4, #9
   15ee0:	e1a0600a 	mov	r6, sl
   15ee4:	e3a0900a 	mov	r9, #10
   15ee8:	e0844008 	add	r4, r4, r8
   15eec:	e4d63001 	ldrb	r3, [r6], #1
   15ef0:	e1a01000 	mov	r1, r0
   15ef4:	e2433030 	sub	r3, r3, #48	; 0x30
   15ef8:	e1a02009 	mov	r2, r9
   15efc:	e1a00005 	mov	r0, r5
   15f00:	ebffffa2 	bl	15d90 <__multadd>
   15f04:	e1560004 	cmp	r6, r4
   15f08:	1afffff7 	bne	15eec <__s2b+0x80>
   15f0c:	e2484008 	sub	r4, r8, #8
   15f10:	e08a4004 	add	r4, sl, r4
   15f14:	e1570008 	cmp	r7, r8
   15f18:	c0477008 	subgt	r7, r7, r8
   15f1c:	c3a0600a 	movgt	r6, #10
   15f20:	c0847007 	addgt	r7, r4, r7
   15f24:	da000007 	ble	15f48 <__s2b+0xdc>
   15f28:	e4d43001 	ldrb	r3, [r4], #1
   15f2c:	e1a01000 	mov	r1, r0
   15f30:	e2433030 	sub	r3, r3, #48	; 0x30
   15f34:	e1a02006 	mov	r2, r6
   15f38:	e1a00005 	mov	r0, r5
   15f3c:	ebffff93 	bl	15d90 <__multadd>
   15f40:	e1570004 	cmp	r7, r4
   15f44:	1afffff7 	bne	15f28 <__s2b+0xbc>
   15f48:	e8bd47f0 	pop	{r4, r5, r6, r7, r8, r9, sl, lr}
   15f4c:	e12fff1e 	bx	lr
   15f50:	e3a01000 	mov	r1, #0
   15f54:	eaffffd7 	b	15eb8 <__s2b+0x4c>
   15f58:	38e38e39 	.word	0x38e38e39

00015f5c <__hi0bits>:
   15f5c:	e1a02820 	lsr	r2, r0, #16
   15f60:	e1a03000 	mov	r3, r0
   15f64:	e1a02802 	lsl	r2, r2, #16
   15f68:	e3520000 	cmp	r2, #0
   15f6c:	01a03800 	lsleq	r3, r0, #16
   15f70:	13a00000 	movne	r0, #0
   15f74:	03a00010 	moveq	r0, #16
   15f78:	e31304ff 	tst	r3, #-16777216	; 0xff000000
   15f7c:	01a03403 	lsleq	r3, r3, #8
   15f80:	02800008 	addeq	r0, r0, #8
   15f84:	e313020f 	tst	r3, #-268435456	; 0xf0000000
   15f88:	01a03203 	lsleq	r3, r3, #4
   15f8c:	02800004 	addeq	r0, r0, #4
   15f90:	e3130103 	tst	r3, #-1073741824	; 0xc0000000
   15f94:	01a03103 	lsleq	r3, r3, #2
   15f98:	02800002 	addeq	r0, r0, #2
   15f9c:	e3530000 	cmp	r3, #0
   15fa0:	b12fff1e 	bxlt	lr
   15fa4:	e3130101 	tst	r3, #1073741824	; 0x40000000
   15fa8:	12800001 	addne	r0, r0, #1
   15fac:	03a00020 	moveq	r0, #32
   15fb0:	e12fff1e 	bx	lr

00015fb4 <__lo0bits>:
   15fb4:	e5903000 	ldr	r3, [r0]
   15fb8:	e2132007 	ands	r2, r3, #7
   15fbc:	e1a01000 	mov	r1, r0
   15fc0:	0a000009 	beq	15fec <__lo0bits+0x38>
   15fc4:	e3130001 	tst	r3, #1
   15fc8:	1a00001f 	bne	1604c <__lo0bits+0x98>
   15fcc:	e3130002 	tst	r3, #2
   15fd0:	11a030a3 	lsrne	r3, r3, #1
   15fd4:	01a03123 	lsreq	r3, r3, #2
   15fd8:	15803000 	strne	r3, [r0]
   15fdc:	05813000 	streq	r3, [r1]
   15fe0:	13a00001 	movne	r0, #1
   15fe4:	03a00002 	moveq	r0, #2
   15fe8:	e12fff1e 	bx	lr
   15fec:	e1a00803 	lsl	r0, r3, #16
   15ff0:	e1a00820 	lsr	r0, r0, #16
   15ff4:	e3500000 	cmp	r0, #0
   15ff8:	03a00010 	moveq	r0, #16
   15ffc:	11a00002 	movne	r0, r2
   16000:	01a03823 	lsreq	r3, r3, #16
   16004:	e31300ff 	tst	r3, #255	; 0xff
   16008:	01a03423 	lsreq	r3, r3, #8
   1600c:	02800008 	addeq	r0, r0, #8
   16010:	e313000f 	tst	r3, #15
   16014:	01a03223 	lsreq	r3, r3, #4
   16018:	02800004 	addeq	r0, r0, #4
   1601c:	e3130003 	tst	r3, #3
   16020:	01a03123 	lsreq	r3, r3, #2
   16024:	02800002 	addeq	r0, r0, #2
   16028:	e3130001 	tst	r3, #1
   1602c:	1a000004 	bne	16044 <__lo0bits+0x90>
   16030:	e1b030a3 	lsrs	r3, r3, #1
   16034:	1a000001 	bne	16040 <__lo0bits+0x8c>
   16038:	e3a00020 	mov	r0, #32
   1603c:	e12fff1e 	bx	lr
   16040:	e2800001 	add	r0, r0, #1
   16044:	e5813000 	str	r3, [r1]
   16048:	e12fff1e 	bx	lr
   1604c:	e3a00000 	mov	r0, #0
   16050:	e12fff1e 	bx	lr

00016054 <__i2b>:
   16054:	e92d4010 	push	{r4, lr}
   16058:	e1a04001 	mov	r4, r1
   1605c:	e3a01001 	mov	r1, #1
   16060:	ebffff20 	bl	15ce8 <_Balloc>
   16064:	e3a02001 	mov	r2, #1
   16068:	e5804014 	str	r4, [r0, #20]
   1606c:	e5802010 	str	r2, [r0, #16]
   16070:	e8bd4010 	pop	{r4, lr}
   16074:	e12fff1e 	bx	lr

00016078 <__multiply>:
   16078:	e92d4ff0 	push	{r4, r5, r6, r7, r8, r9, sl, fp, lr}
   1607c:	e5918010 	ldr	r8, [r1, #16]
   16080:	e5925010 	ldr	r5, [r2, #16]
   16084:	e1580005 	cmp	r8, r5
   16088:	e24dd014 	sub	sp, sp, #20
   1608c:	e1a04001 	mov	r4, r1
   16090:	e1a09002 	mov	r9, r2
   16094:	aa000004 	bge	160ac <__multiply+0x34>
   16098:	e1a02008 	mov	r2, r8
   1609c:	e1a04009 	mov	r4, r9
   160a0:	e1a08005 	mov	r8, r5
   160a4:	e1a09001 	mov	r9, r1
   160a8:	e1a05002 	mov	r5, r2
   160ac:	e5943008 	ldr	r3, [r4, #8]
   160b0:	e5941004 	ldr	r1, [r4, #4]
   160b4:	e0887005 	add	r7, r8, r5
   160b8:	e1570003 	cmp	r7, r3
   160bc:	c2811001 	addgt	r1, r1, #1
   160c0:	ebffff08 	bl	15ce8 <_Balloc>
   160c4:	e280a014 	add	sl, r0, #20
   160c8:	e08ab107 	add	fp, sl, r7, lsl #2
   160cc:	e15a000b 	cmp	sl, fp
   160d0:	e1a03000 	mov	r3, r0
   160d4:	e58d0004 	str	r0, [sp, #4]
   160d8:	31a0300a 	movcc	r3, sl
   160dc:	33a01000 	movcc	r1, #0
   160e0:	2a000002 	bcs	160f0 <__multiply+0x78>
   160e4:	e4831004 	str	r1, [r3], #4
   160e8:	e15b0003 	cmp	fp, r3
   160ec:	8afffffc 	bhi	160e4 <__multiply+0x6c>
   160f0:	e2899014 	add	r9, r9, #20
   160f4:	e0893105 	add	r3, r9, r5, lsl #2
   160f8:	e1a02003 	mov	r2, r3
   160fc:	e1590003 	cmp	r9, r3
   16100:	e2843014 	add	r3, r4, #20
   16104:	e0838108 	add	r8, r3, r8, lsl #2
   16108:	2a00003b 	bcs	161fc <__multiply+0x184>
   1610c:	e58db008 	str	fp, [sp, #8]
   16110:	e58d700c 	str	r7, [sp, #12]
   16114:	e1a0b002 	mov	fp, r2
   16118:	e1a07003 	mov	r7, r3
   1611c:	e59fe120 	ldr	lr, [pc, #288]	; 16244 <__multiply+0x1cc>
   16120:	e599c000 	ldr	ip, [r9]
   16124:	e01c600e 	ands	r6, ip, lr
   16128:	0a000014 	beq	16180 <__multiply+0x108>
   1612c:	e1a0400a 	mov	r4, sl
   16130:	e1a05007 	mov	r5, r7
   16134:	e3a01000 	mov	r1, #0
   16138:	e4952004 	ldr	r2, [r5], #4
   1613c:	e5940000 	ldr	r0, [r4]
   16140:	e002300e 	and	r3, r2, lr
   16144:	e000c00e 	and	ip, r0, lr
   16148:	e1a02822 	lsr	r2, r2, #16
   1614c:	e023c396 	mla	r3, r6, r3, ip
   16150:	e1a00820 	lsr	r0, r0, #16
   16154:	e0220296 	mla	r2, r6, r2, r0
   16158:	e0833001 	add	r3, r3, r1
   1615c:	e0821823 	add	r1, r2, r3, lsr #16
   16160:	e003300e 	and	r3, r3, lr
   16164:	e1833801 	orr	r3, r3, r1, lsl #16
   16168:	e1580005 	cmp	r8, r5
   1616c:	e4843004 	str	r3, [r4], #4
   16170:	e1a01821 	lsr	r1, r1, #16
   16174:	8affffef 	bhi	16138 <__multiply+0xc0>
   16178:	e5841000 	str	r1, [r4]
   1617c:	e599c000 	ldr	ip, [r9]
   16180:	e1b0c82c 	lsrs	ip, ip, #16
   16184:	0a000016 	beq	161e4 <__multiply+0x16c>
   16188:	e59a3000 	ldr	r3, [sl]
   1618c:	e1a0000a 	mov	r0, sl
   16190:	e1a04003 	mov	r4, r3
   16194:	e1a01007 	mov	r1, r7
   16198:	e3a02000 	mov	r2, #0
   1619c:	e5915000 	ldr	r5, [r1]
   161a0:	e1a06824 	lsr	r6, r4, #16
   161a4:	e005400e 	and	r4, r5, lr
   161a8:	e024649c 	mla	r4, ip, r4, r6
   161ac:	e003300e 	and	r3, r3, lr
   161b0:	e0842002 	add	r2, r4, r2
   161b4:	e1833802 	orr	r3, r3, r2, lsl #16
   161b8:	e4803004 	str	r3, [r0], #4
   161bc:	e4913004 	ldr	r3, [r1], #4
   161c0:	e5904000 	ldr	r4, [r0]
   161c4:	e1a03823 	lsr	r3, r3, #16
   161c8:	e004500e 	and	r5, r4, lr
   161cc:	e023539c 	mla	r3, ip, r3, r5
   161d0:	e1580001 	cmp	r8, r1
   161d4:	e0833822 	add	r3, r3, r2, lsr #16
   161d8:	e1a02823 	lsr	r2, r3, #16
   161dc:	8affffee 	bhi	1619c <__multiply+0x124>
   161e0:	e5803000 	str	r3, [r0]
   161e4:	e2899004 	add	r9, r9, #4
   161e8:	e15b0009 	cmp	fp, r9
   161ec:	e28aa004 	add	sl, sl, #4
   161f0:	8affffca 	bhi	16120 <__multiply+0xa8>
   161f4:	e59db008 	ldr	fp, [sp, #8]
   161f8:	e59d700c 	ldr	r7, [sp, #12]
   161fc:	e3570000 	cmp	r7, #0
   16200:	da000009 	ble	1622c <__multiply+0x1b4>
   16204:	e51b3004 	ldr	r3, [fp, #-4]
   16208:	e3530000 	cmp	r3, #0
   1620c:	e24bb004 	sub	fp, fp, #4
   16210:	0a000003 	beq	16224 <__multiply+0x1ac>
   16214:	ea000004 	b	1622c <__multiply+0x1b4>
   16218:	e53b3004 	ldr	r3, [fp, #-4]!
   1621c:	e3530000 	cmp	r3, #0
   16220:	1a000001 	bne	1622c <__multiply+0x1b4>
   16224:	e2577001 	subs	r7, r7, #1
   16228:	1afffffa 	bne	16218 <__multiply+0x1a0>
   1622c:	e59d3004 	ldr	r3, [sp, #4]
   16230:	e1a00003 	mov	r0, r3
   16234:	e5837010 	str	r7, [r3, #16]
   16238:	e28dd014 	add	sp, sp, #20
   1623c:	e8bd4ff0 	pop	{r4, r5, r6, r7, r8, r9, sl, fp, lr}
   16240:	e12fff1e 	bx	lr
   16244:	0000ffff 	.word	0x0000ffff

00016248 <__pow5mult>:
   16248:	e2123003 	ands	r3, r2, #3
   1624c:	e92d41f0 	push	{r4, r5, r6, r7, r8, lr}
   16250:	e1a04002 	mov	r4, r2
   16254:	e1a07000 	mov	r7, r0
   16258:	01a05001 	moveq	r5, r1
   1625c:	1a000025 	bne	162f8 <__pow5mult+0xb0>
   16260:	e1b04144 	asrs	r4, r4, #2
   16264:	0a000019 	beq	162d0 <__pow5mult+0x88>
   16268:	e5976048 	ldr	r6, [r7, #72]	; 0x48
   1626c:	e3560000 	cmp	r6, #0
   16270:	0a000027 	beq	16314 <__pow5mult+0xcc>
   16274:	e3a08000 	mov	r8, #0
   16278:	ea000005 	b	16294 <__pow5mult+0x4c>
   1627c:	e1b040c4 	asrs	r4, r4, #1
   16280:	0a000012 	beq	162d0 <__pow5mult+0x88>
   16284:	e5960000 	ldr	r0, [r6]
   16288:	e3500000 	cmp	r0, #0
   1628c:	0a000012 	beq	162dc <__pow5mult+0x94>
   16290:	e1a06000 	mov	r6, r0
   16294:	e3140001 	tst	r4, #1
   16298:	0afffff7 	beq	1627c <__pow5mult+0x34>
   1629c:	e1a02006 	mov	r2, r6
   162a0:	e1a01005 	mov	r1, r5
   162a4:	e1a00007 	mov	r0, r7
   162a8:	ebffff72 	bl	16078 <__multiply>
   162ac:	e3550000 	cmp	r5, #0
   162b0:	15952004 	ldrne	r2, [r5, #4]
   162b4:	1597304c 	ldrne	r3, [r7, #76]	; 0x4c
   162b8:	17931102 	ldrne	r1, [r3, r2, lsl #2]
   162bc:	15851000 	strne	r1, [r5]
   162c0:	17835102 	strne	r5, [r3, r2, lsl #2]
   162c4:	e1b040c4 	asrs	r4, r4, #1
   162c8:	e1a05000 	mov	r5, r0
   162cc:	1affffec 	bne	16284 <__pow5mult+0x3c>
   162d0:	e1a00005 	mov	r0, r5
   162d4:	e8bd41f0 	pop	{r4, r5, r6, r7, r8, lr}
   162d8:	e12fff1e 	bx	lr
   162dc:	e1a02006 	mov	r2, r6
   162e0:	e1a01006 	mov	r1, r6
   162e4:	e1a00007 	mov	r0, r7
   162e8:	ebffff62 	bl	16078 <__multiply>
   162ec:	e5860000 	str	r0, [r6]
   162f0:	e5808000 	str	r8, [r0]
   162f4:	eaffffe5 	b	16290 <__pow5mult+0x48>
   162f8:	e59f2044 	ldr	r2, [pc, #68]	; 16344 <__pow5mult+0xfc>
   162fc:	e2433001 	sub	r3, r3, #1
   16300:	e7922103 	ldr	r2, [r2, r3, lsl #2]
   16304:	e3a03000 	mov	r3, #0
   16308:	ebfffea0 	bl	15d90 <__multadd>
   1630c:	e1a05000 	mov	r5, r0
   16310:	eaffffd2 	b	16260 <__pow5mult+0x18>
   16314:	e3a01001 	mov	r1, #1
   16318:	e1a00007 	mov	r0, r7
   1631c:	ebfffe71 	bl	15ce8 <_Balloc>
   16320:	e3a01001 	mov	r1, #1
   16324:	e3a03000 	mov	r3, #0
   16328:	e59f2018 	ldr	r2, [pc, #24]	; 16348 <__pow5mult+0x100>
   1632c:	e5801010 	str	r1, [r0, #16]
   16330:	e5802014 	str	r2, [r0, #20]
   16334:	e1a06000 	mov	r6, r0
   16338:	e5870048 	str	r0, [r7, #72]	; 0x48
   1633c:	e5803000 	str	r3, [r0]
   16340:	eaffffcb 	b	16274 <__pow5mult+0x2c>
   16344:	00019cd8 	.word	0x00019cd8
   16348:	00000271 	.word	0x00000271

0001634c <__lshift>:
   1634c:	e92d47f0 	push	{r4, r5, r6, r7, r8, r9, sl, lr}
   16350:	e5917010 	ldr	r7, [r1, #16]
   16354:	e1a092c2 	asr	r9, r2, #5
   16358:	e5913008 	ldr	r3, [r1, #8]
   1635c:	e0897007 	add	r7, r9, r7
   16360:	e2874001 	add	r4, r7, #1
   16364:	e1540003 	cmp	r4, r3
   16368:	e1a05001 	mov	r5, r1
   1636c:	e1a08002 	mov	r8, r2
   16370:	e1a06000 	mov	r6, r0
   16374:	e5911004 	ldr	r1, [r1, #4]
   16378:	da000003 	ble	1638c <__lshift+0x40>
   1637c:	e1a03083 	lsl	r3, r3, #1
   16380:	e1540003 	cmp	r4, r3
   16384:	e2811001 	add	r1, r1, #1
   16388:	cafffffb 	bgt	1637c <__lshift+0x30>
   1638c:	e1a00006 	mov	r0, r6
   16390:	ebfffe54 	bl	15ce8 <_Balloc>
   16394:	e3590000 	cmp	r9, #0
   16398:	e2803014 	add	r3, r0, #20
   1639c:	da000004 	ble	163b4 <__lshift+0x68>
   163a0:	e3a02000 	mov	r2, #0
   163a4:	e0831109 	add	r1, r3, r9, lsl #2
   163a8:	e4832004 	str	r2, [r3], #4
   163ac:	e1510003 	cmp	r1, r3
   163b0:	1afffffc 	bne	163a8 <__lshift+0x5c>
   163b4:	e595e010 	ldr	lr, [r5, #16]
   163b8:	e2851014 	add	r1, r5, #20
   163bc:	e218801f 	ands	r8, r8, #31
   163c0:	e081e10e 	add	lr, r1, lr, lsl #2
   163c4:	0a000014 	beq	1641c <__lshift+0xd0>
   163c8:	e3a0c000 	mov	ip, #0
   163cc:	e2682020 	rsb	r2, r8, #32
   163d0:	e5919000 	ldr	r9, [r1]
   163d4:	e18cc819 	orr	ip, ip, r9, lsl r8
   163d8:	e483c004 	str	ip, [r3], #4
   163dc:	e491c004 	ldr	ip, [r1], #4
   163e0:	e15e0001 	cmp	lr, r1
   163e4:	e1a0c23c 	lsr	ip, ip, r2
   163e8:	8afffff8 	bhi	163d0 <__lshift+0x84>
   163ec:	e35c0000 	cmp	ip, #0
   163f0:	e583c000 	str	ip, [r3]
   163f4:	12874002 	addne	r4, r7, #2
   163f8:	e596304c 	ldr	r3, [r6, #76]	; 0x4c
   163fc:	e5952004 	ldr	r2, [r5, #4]
   16400:	e7931102 	ldr	r1, [r3, r2, lsl #2]
   16404:	e2444001 	sub	r4, r4, #1
   16408:	e5804010 	str	r4, [r0, #16]
   1640c:	e5851000 	str	r1, [r5]
   16410:	e7835102 	str	r5, [r3, r2, lsl #2]
   16414:	e8bd47f0 	pop	{r4, r5, r6, r7, r8, r9, sl, lr}
   16418:	e12fff1e 	bx	lr
   1641c:	e2433004 	sub	r3, r3, #4
   16420:	e4912004 	ldr	r2, [r1], #4
   16424:	e15e0001 	cmp	lr, r1
   16428:	e5a32004 	str	r2, [r3, #4]!
   1642c:	8afffffb 	bhi	16420 <__lshift+0xd4>
   16430:	eafffff0 	b	163f8 <__lshift+0xac>

00016434 <__mcmp>:
   16434:	e52de004 	push	{lr}		; (str lr, [sp, #-4]!)
   16438:	e5913010 	ldr	r3, [r1, #16]
   1643c:	e1a0e000 	mov	lr, r0
   16440:	e5900010 	ldr	r0, [r0, #16]
   16444:	e0500003 	subs	r0, r0, r3
   16448:	1a00000d 	bne	16484 <__mcmp+0x50>
   1644c:	e1a03103 	lsl	r3, r3, #2
   16450:	e28ee014 	add	lr, lr, #20
   16454:	e2811014 	add	r1, r1, #20
   16458:	e0811003 	add	r1, r1, r3
   1645c:	e08e3003 	add	r3, lr, r3
   16460:	ea000001 	b	1646c <__mcmp+0x38>
   16464:	e15e0003 	cmp	lr, r3
   16468:	2a000005 	bcs	16484 <__mcmp+0x50>
   1646c:	e533c004 	ldr	ip, [r3, #-4]!
   16470:	e5312004 	ldr	r2, [r1, #-4]!
   16474:	e15c0002 	cmp	ip, r2
   16478:	0afffff9 	beq	16464 <__mcmp+0x30>
   1647c:	3a000002 	bcc	1648c <__mcmp+0x58>
   16480:	e3a00001 	mov	r0, #1
   16484:	e49de004 	pop	{lr}		; (ldr lr, [sp], #4)
   16488:	e12fff1e 	bx	lr
   1648c:	e3e00000 	mvn	r0, #0
   16490:	eafffffb 	b	16484 <__mcmp+0x50>

00016494 <__mdiff>:
   16494:	e92d4ff8 	push	{r3, r4, r5, r6, r7, r8, r9, sl, fp, lr}
   16498:	e1a0b002 	mov	fp, r2
   1649c:	e5919010 	ldr	r9, [r1, #16]
   164a0:	e5922010 	ldr	r2, [r2, #16]
   164a4:	e0499002 	sub	r9, r9, r2
   164a8:	e3590000 	cmp	r9, #0
   164ac:	e1a07001 	mov	r7, r1
   164b0:	1a000047 	bne	165d4 <__mdiff+0x140>
   164b4:	e1a02102 	lsl	r2, r2, #2
   164b8:	e2816014 	add	r6, r1, #20
   164bc:	e28be014 	add	lr, fp, #20
   164c0:	e0863002 	add	r3, r6, r2
   164c4:	e08e2002 	add	r2, lr, r2
   164c8:	ea000001 	b	164d4 <__mdiff+0x40>
   164cc:	e1560003 	cmp	r6, r3
   164d0:	2a000049 	bcs	165fc <__mdiff+0x168>
   164d4:	e533c004 	ldr	ip, [r3, #-4]!
   164d8:	e5321004 	ldr	r1, [r2, #-4]!
   164dc:	e15c0001 	cmp	ip, r1
   164e0:	0afffff9 	beq	164cc <__mdiff+0x38>
   164e4:	21a0800e 	movcs	r8, lr
   164e8:	3a00004b 	bcc	1661c <__mdiff+0x188>
   164ec:	e5971004 	ldr	r1, [r7, #4]
   164f0:	ebfffdfc 	bl	15ce8 <_Balloc>
   164f4:	e3a0a000 	mov	sl, #0
   164f8:	e5977010 	ldr	r7, [r7, #16]
   164fc:	e59b3010 	ldr	r3, [fp, #16]
   16500:	e59fe130 	ldr	lr, [pc, #304]	; 16638 <__mdiff+0x1a4>
   16504:	e580900c 	str	r9, [r0, #12]
   16508:	e1a04008 	mov	r4, r8
   1650c:	e1a05006 	mov	r5, r6
   16510:	e0888103 	add	r8, r8, r3, lsl #2
   16514:	e0866107 	add	r6, r6, r7, lsl #2
   16518:	e280c014 	add	ip, r0, #20
   1651c:	e4959004 	ldr	r9, [r5], #4
   16520:	e4941004 	ldr	r1, [r4], #4
   16524:	e009300e 	and	r3, r9, lr
   16528:	e083300a 	add	r3, r3, sl
   1652c:	e1a02821 	lsr	r2, r1, #16
   16530:	e001a00e 	and	sl, r1, lr
   16534:	e043300a 	sub	r3, r3, sl
   16538:	e0622829 	rsb	r2, r2, r9, lsr #16
   1653c:	e0822843 	add	r2, r2, r3, asr #16
   16540:	e003300e 	and	r3, r3, lr
   16544:	e1833802 	orr	r3, r3, r2, lsl #16
   16548:	e1580004 	cmp	r8, r4
   1654c:	e48c3004 	str	r3, [ip], #4
   16550:	e1a0a842 	asr	sl, r2, #16
   16554:	8afffff0 	bhi	1651c <__mdiff+0x88>
   16558:	e1560005 	cmp	r6, r5
   1655c:	9a000012 	bls	165ac <__mdiff+0x118>
   16560:	e1a0400c 	mov	r4, ip
   16564:	e1a01005 	mov	r1, r5
   16568:	e59fe0c8 	ldr	lr, [pc, #200]	; 16638 <__mdiff+0x1a4>
   1656c:	e4918004 	ldr	r8, [r1], #4
   16570:	e008300e 	and	r3, r8, lr
   16574:	e083300a 	add	r3, r3, sl
   16578:	e1a02843 	asr	r2, r3, #16
   1657c:	e0822828 	add	r2, r2, r8, lsr #16
   16580:	e003300e 	and	r3, r3, lr
   16584:	e1833802 	orr	r3, r3, r2, lsl #16
   16588:	e1560001 	cmp	r6, r1
   1658c:	e4843004 	str	r3, [r4], #4
   16590:	e1a0a842 	asr	sl, r2, #16
   16594:	8afffff4 	bhi	1656c <__mdiff+0xd8>
   16598:	e1e05005 	mvn	r5, r5
   1659c:	e0856006 	add	r6, r5, r6
   165a0:	e3c66003 	bic	r6, r6, #3
   165a4:	e2866004 	add	r6, r6, #4
   165a8:	e08cc006 	add	ip, ip, r6
   165ac:	e3530000 	cmp	r3, #0
   165b0:	e24cc004 	sub	ip, ip, #4
   165b4:	1a000003 	bne	165c8 <__mdiff+0x134>
   165b8:	e53c3004 	ldr	r3, [ip, #-4]!
   165bc:	e3530000 	cmp	r3, #0
   165c0:	e2477001 	sub	r7, r7, #1
   165c4:	0afffffb 	beq	165b8 <__mdiff+0x124>
   165c8:	e5807010 	str	r7, [r0, #16]
   165cc:	e8bd4ff8 	pop	{r3, r4, r5, r6, r7, r8, r9, sl, fp, lr}
   165d0:	e12fff1e 	bx	lr
   165d4:	a2816014 	addge	r6, r1, #20
   165d8:	a28b8014 	addge	r8, fp, #20
   165dc:	a3a09000 	movge	r9, #0
   165e0:	aaffffc1 	bge	164ec <__mdiff+0x58>
   165e4:	e28b6014 	add	r6, fp, #20
   165e8:	e1a0700b 	mov	r7, fp
   165ec:	e2818014 	add	r8, r1, #20
   165f0:	e3a09001 	mov	r9, #1
   165f4:	e1a0b001 	mov	fp, r1
   165f8:	eaffffbb 	b	164ec <__mdiff+0x58>
   165fc:	e3a01000 	mov	r1, #0
   16600:	ebfffdb8 	bl	15ce8 <_Balloc>
   16604:	e3a03000 	mov	r3, #0
   16608:	e3a02001 	mov	r2, #1
   1660c:	e5803014 	str	r3, [r0, #20]
   16610:	e5802010 	str	r2, [r0, #16]
   16614:	e8bd4ff8 	pop	{r3, r4, r5, r6, r7, r8, r9, sl, fp, lr}
   16618:	e12fff1e 	bx	lr
   1661c:	e1a03007 	mov	r3, r7
   16620:	e1a08006 	mov	r8, r6
   16624:	e1a0700b 	mov	r7, fp
   16628:	e1a0600e 	mov	r6, lr
   1662c:	e1a0b003 	mov	fp, r3
   16630:	e3a09001 	mov	r9, #1
   16634:	eaffffac 	b	164ec <__mdiff+0x58>
   16638:	0000ffff 	.word	0x0000ffff

0001663c <__ulp>:
   1663c:	ee102a90 	vmov	r2, s1
   16640:	e59f3068 	ldr	r3, [pc, #104]	; 166b0 <__ulp+0x74>
   16644:	e0022003 	and	r2, r2, r3
   16648:	e242350d 	sub	r3, r2, #54525952	; 0x3400000
   1664c:	e3530000 	cmp	r3, #0
   16650:	da000003 	ble	16664 <__ulp+0x28>
   16654:	e3a00000 	mov	r0, #0
   16658:	e1a01003 	mov	r1, r3
   1665c:	ec410b10 	vmov	d0, r0, r1
   16660:	e12fff1e 	bx	lr
   16664:	e2633000 	rsb	r3, r3, #0
   16668:	e1a03a43 	asr	r3, r3, #20
   1666c:	e3530013 	cmp	r3, #19
   16670:	da000009 	ble	1669c <__ulp+0x60>
   16674:	e2433014 	sub	r3, r3, #20
   16678:	e353001e 	cmp	r3, #30
   1667c:	d3a02001 	movle	r2, #1
   16680:	c3a03001 	movgt	r3, #1
   16684:	d263301f 	rsble	r3, r3, #31
   16688:	d1a03312 	lslle	r3, r2, r3
   1668c:	e3a01000 	mov	r1, #0
   16690:	e1a00003 	mov	r0, r3
   16694:	ec410b10 	vmov	d0, r0, r1
   16698:	e12fff1e 	bx	lr
   1669c:	e3a02702 	mov	r2, #524288	; 0x80000
   166a0:	e3a00000 	mov	r0, #0
   166a4:	e1a01352 	asr	r1, r2, r3
   166a8:	ec410b10 	vmov	d0, r0, r1
   166ac:	e12fff1e 	bx	lr
   166b0:	7ff00000 	.word	0x7ff00000

000166b4 <__b2d>:
   166b4:	e92d41f0 	push	{r4, r5, r6, r7, r8, lr}
   166b8:	e5905010 	ldr	r5, [r0, #16]
   166bc:	e2804014 	add	r4, r0, #20
   166c0:	e0845105 	add	r5, r4, r5, lsl #2
   166c4:	e5156004 	ldr	r6, [r5, #-4]
   166c8:	e1a00006 	mov	r0, r6
   166cc:	ebfffe22 	bl	15f5c <__hi0bits>
   166d0:	e2603020 	rsb	r3, r0, #32
   166d4:	e350000a 	cmp	r0, #10
   166d8:	e5813000 	str	r3, [r1]
   166dc:	e2451004 	sub	r1, r5, #4
   166e0:	ca00000b 	bgt	16714 <__b2d+0x60>
   166e4:	e1540001 	cmp	r4, r1
   166e8:	23a01000 	movcs	r1, #0
   166ec:	35151008 	ldrcc	r1, [r5, #-8]
   166f0:	e260c00b 	rsb	ip, r0, #11
   166f4:	e59fe094 	ldr	lr, [pc, #148]	; 16790 <__b2d+0xdc>
   166f8:	31a01c31 	lsrcc	r1, r1, ip
   166fc:	e2800015 	add	r0, r0, #21
   16700:	e18e3c36 	orr	r3, lr, r6, lsr ip
   16704:	e1812016 	orr	r2, r1, r6, lsl r0
   16708:	ec432b10 	vmov	d0, r2, r3
   1670c:	e8bd41f0 	pop	{r4, r5, r6, r7, r8, lr}
   16710:	e12fff1e 	bx	lr
   16714:	e1540001 	cmp	r4, r1
   16718:	2a000010 	bcs	16760 <__b2d+0xac>
   1671c:	e250c00b 	subs	ip, r0, #11
   16720:	e5150008 	ldr	r0, [r5, #-8]
   16724:	0a00000f 	beq	16768 <__b2d+0xb4>
   16728:	e59f1060 	ldr	r1, [pc, #96]	; 16790 <__b2d+0xdc>
   1672c:	e245e008 	sub	lr, r5, #8
   16730:	e154000e 	cmp	r4, lr
   16734:	e1816c16 	orr	r6, r1, r6, lsl ip
   16738:	e26c7020 	rsb	r7, ip, #32
   1673c:	3515100c 	ldrcc	r1, [r5, #-12]
   16740:	e1863730 	orr	r3, r6, r0, lsr r7
   16744:	31a00c10 	lslcc	r0, r0, ip
   16748:	21a01c10 	lslcs	r1, r0, ip
   1674c:	31801731 	orrcc	r1, r0, r1, lsr r7
   16750:	e1a02001 	mov	r2, r1
   16754:	e8bd41f0 	pop	{r4, r5, r6, r7, r8, lr}
   16758:	ec432b10 	vmov	d0, r2, r3
   1675c:	e12fff1e 	bx	lr
   16760:	e250000b 	subs	r0, r0, #11
   16764:	1a000005 	bne	16780 <__b2d+0xcc>
   16768:	e1a02000 	mov	r2, r0
   1676c:	e38635ff 	orr	r3, r6, #1069547520	; 0x3fc00000
   16770:	e3833603 	orr	r3, r3, #3145728	; 0x300000
   16774:	ec432b10 	vmov	d0, r2, r3
   16778:	e8bd41f0 	pop	{r4, r5, r6, r7, r8, lr}
   1677c:	e12fff1e 	bx	lr
   16780:	e59fc008 	ldr	ip, [pc, #8]	; 16790 <__b2d+0xdc>
   16784:	e3a01000 	mov	r1, #0
   16788:	e18c3016 	orr	r3, ip, r6, lsl r0
   1678c:	eaffffef 	b	16750 <__b2d+0x9c>
   16790:	3ff00000 	.word	0x3ff00000

00016794 <__d2b>:
   16794:	e92d41f0 	push	{r4, r5, r6, r7, r8, lr}
   16798:	ee104a90 	vmov	r4, s1
   1679c:	e24dd008 	sub	sp, sp, #8
   167a0:	ee108a10 	vmov	r8, s0
   167a4:	e1a06001 	mov	r6, r1
   167a8:	e3a01001 	mov	r1, #1
   167ac:	e1a05002 	mov	r5, r2
   167b0:	ebfffd4c 	bl	15ce8 <_Balloc>
   167b4:	e59f20e4 	ldr	r2, [pc, #228]	; 168a0 <__d2b+0x10c>
   167b8:	e3c434ff 	bic	r3, r4, #-16777216	; 0xff000000
   167bc:	e3c3360f 	bic	r3, r3, #15728640	; 0xf00000
   167c0:	e0124a24 	ands	r4, r2, r4, lsr #20
   167c4:	13833601 	orrne	r3, r3, #1048576	; 0x100000
   167c8:	e3580000 	cmp	r8, #0
   167cc:	e1a07000 	mov	r7, r0
   167d0:	e58d3004 	str	r3, [sp, #4]
   167d4:	0a00001d 	beq	16850 <__d2b+0xbc>
   167d8:	e28d0008 	add	r0, sp, #8
   167dc:	e5208008 	str	r8, [r0, #-8]!
   167e0:	ebfffdf3 	bl	15fb4 <__lo0bits>
   167e4:	e89d000c 	ldm	sp, {r2, r3}
   167e8:	e3500000 	cmp	r0, #0
   167ec:	12601020 	rsbne	r1, r0, #32
   167f0:	11822113 	orrne	r2, r2, r3, lsl r1
   167f4:	11a03033 	lsrne	r3, r3, r0
   167f8:	15872014 	strne	r2, [r7, #20]
   167fc:	158d3004 	strne	r3, [sp, #4]
   16800:	05872014 	streq	r2, [r7, #20]
   16804:	e3530000 	cmp	r3, #0
   16808:	03a01001 	moveq	r1, #1
   1680c:	13a01002 	movne	r1, #2
   16810:	e3540000 	cmp	r4, #0
   16814:	e5873018 	str	r3, [r7, #24]
   16818:	e5871010 	str	r1, [r7, #16]
   1681c:	1a000015 	bne	16878 <__d2b+0xe4>
   16820:	e2400e43 	sub	r0, r0, #1072	; 0x430
   16824:	e0873101 	add	r3, r7, r1, lsl #2
   16828:	e2400002 	sub	r0, r0, #2
   1682c:	e5860000 	str	r0, [r6]
   16830:	e5930010 	ldr	r0, [r3, #16]
   16834:	ebfffdc8 	bl	15f5c <__hi0bits>
   16838:	e0600281 	rsb	r0, r0, r1, lsl #5
   1683c:	e5850000 	str	r0, [r5]
   16840:	e1a00007 	mov	r0, r7
   16844:	e28dd008 	add	sp, sp, #8
   16848:	e8bd41f0 	pop	{r4, r5, r6, r7, r8, lr}
   1684c:	e12fff1e 	bx	lr
   16850:	e28d0004 	add	r0, sp, #4
   16854:	ebfffdd6 	bl	15fb4 <__lo0bits>
   16858:	e3a03001 	mov	r3, #1
   1685c:	e59d2004 	ldr	r2, [sp, #4]
   16860:	e3540000 	cmp	r4, #0
   16864:	e1a01003 	mov	r1, r3
   16868:	e5873010 	str	r3, [r7, #16]
   1686c:	e5872014 	str	r2, [r7, #20]
   16870:	e2800020 	add	r0, r0, #32
   16874:	0affffe9 	beq	16820 <__d2b+0x8c>
   16878:	e2444e43 	sub	r4, r4, #1072	; 0x430
   1687c:	e2444003 	sub	r4, r4, #3
   16880:	e0844000 	add	r4, r4, r0
   16884:	e2600035 	rsb	r0, r0, #53	; 0x35
   16888:	e5864000 	str	r4, [r6]
   1688c:	e5850000 	str	r0, [r5]
   16890:	e1a00007 	mov	r0, r7
   16894:	e28dd008 	add	sp, sp, #8
   16898:	e8bd41f0 	pop	{r4, r5, r6, r7, r8, lr}
   1689c:	e12fff1e 	bx	lr
   168a0:	000007ff 	.word	0x000007ff

000168a4 <__ratio>:
   168a4:	e92d4030 	push	{r4, r5, lr}
   168a8:	e24dd01c 	sub	sp, sp, #28
   168ac:	e1a04001 	mov	r4, r1
   168b0:	e28d1010 	add	r1, sp, #16
   168b4:	e1a05000 	mov	r5, r0
   168b8:	ebffff7d 	bl	166b4 <__b2d>
   168bc:	e1a00004 	mov	r0, r4
   168c0:	e28d1014 	add	r1, sp, #20
   168c4:	ed8d0b00 	vstr	d0, [sp]
   168c8:	ebffff79 	bl	166b4 <__b2d>
   168cc:	e5940010 	ldr	r0, [r4, #16]
   168d0:	e5952010 	ldr	r2, [r5, #16]
   168d4:	e59d1014 	ldr	r1, [sp, #20]
   168d8:	e59d3010 	ldr	r3, [sp, #16]
   168dc:	e0422000 	sub	r2, r2, r0
   168e0:	e0433001 	sub	r3, r3, r1
   168e4:	ed8d0b02 	vstr	d0, [sp, #8]
   168e8:	e0833282 	add	r3, r3, r2, lsl #5
   168ec:	e3530000 	cmp	r3, #0
   168f0:	e89d0003 	ldm	sp, {r0, r1}
   168f4:	e28d5008 	add	r5, sp, #8
   168f8:	e8950030 	ldm	r5, {r4, r5}
   168fc:	d0633603 	rsble	r3, r3, r3, lsl #12
   16900:	c0811a03 	addgt	r1, r1, r3, lsl #20
   16904:	d0855a03 	addle	r5, r5, r3, lsl #20
   16908:	c88d0003 	stmgt	sp, {r0, r1}
   1690c:	d58d4008 	strle	r4, [sp, #8]
   16910:	d58d500c 	strle	r5, [sp, #12]
   16914:	ed9d7b00 	vldr	d7, [sp]
   16918:	ed9d6b02 	vldr	d6, [sp, #8]
   1691c:	ee870b06 	vdiv.f64	d0, d7, d6
   16920:	e28dd01c 	add	sp, sp, #28
   16924:	e8bd4030 	pop	{r4, r5, lr}
   16928:	e12fff1e 	bx	lr

0001692c <__copybits>:
   1692c:	e592c010 	ldr	ip, [r2, #16]
   16930:	e2823014 	add	r3, r2, #20
   16934:	e92d4010 	push	{r4, lr}
   16938:	e2414001 	sub	r4, r1, #1
   1693c:	e1a042c4 	asr	r4, r4, #5
   16940:	e083c10c 	add	ip, r3, ip, lsl #2
   16944:	e2844001 	add	r4, r4, #1
   16948:	e153000c 	cmp	r3, ip
   1694c:	e0804104 	add	r4, r0, r4, lsl #2
   16950:	2a000009 	bcs	1697c <__copybits+0x50>
   16954:	e2401004 	sub	r1, r0, #4
   16958:	e493e004 	ldr	lr, [r3], #4
   1695c:	e15c0003 	cmp	ip, r3
   16960:	e5a1e004 	str	lr, [r1, #4]!
   16964:	8afffffb 	bhi	16958 <__copybits+0x2c>
   16968:	e04c3002 	sub	r3, ip, r2
   1696c:	e2433015 	sub	r3, r3, #21
   16970:	e3c33003 	bic	r3, r3, #3
   16974:	e2833004 	add	r3, r3, #4
   16978:	e0800003 	add	r0, r0, r3
   1697c:	e1540000 	cmp	r4, r0
   16980:	9a000003 	bls	16994 <__copybits+0x68>
   16984:	e3a03000 	mov	r3, #0
   16988:	e4803004 	str	r3, [r0], #4
   1698c:	e1540000 	cmp	r4, r0
   16990:	8afffffc 	bhi	16988 <__copybits+0x5c>
   16994:	e8bd4010 	pop	{r4, lr}
   16998:	e12fff1e 	bx	lr

0001699c <__any_on>:
   1699c:	e5903010 	ldr	r3, [r0, #16]
   169a0:	e1a022c1 	asr	r2, r1, #5
   169a4:	e1530002 	cmp	r3, r2
   169a8:	e280c014 	add	ip, r0, #20
   169ac:	b08c3103 	addlt	r3, ip, r3, lsl #2
   169b0:	ba00000a 	blt	169e0 <__any_on+0x44>
   169b4:	da000008 	ble	169dc <__any_on+0x40>
   169b8:	e211101f 	ands	r1, r1, #31
   169bc:	0a000006 	beq	169dc <__any_on+0x40>
   169c0:	e79c3102 	ldr	r3, [ip, r2, lsl #2]
   169c4:	e1a00133 	lsr	r0, r3, r1
   169c8:	e1530110 	cmp	r3, r0, lsl r1
   169cc:	e08c3102 	add	r3, ip, r2, lsl #2
   169d0:	0a000002 	beq	169e0 <__any_on+0x44>
   169d4:	e3a00001 	mov	r0, #1
   169d8:	e12fff1e 	bx	lr
   169dc:	e08c3102 	add	r3, ip, r2, lsl #2
   169e0:	e15c0003 	cmp	ip, r3
   169e4:	2a00000a 	bcs	16a14 <__any_on+0x78>
   169e8:	e5130004 	ldr	r0, [r3, #-4]
   169ec:	e3500000 	cmp	r0, #0
   169f0:	e2433004 	sub	r3, r3, #4
   169f4:	0a000003 	beq	16a08 <__any_on+0x6c>
   169f8:	eafffff5 	b	169d4 <__any_on+0x38>
   169fc:	e5332004 	ldr	r2, [r3, #-4]!
   16a00:	e3520000 	cmp	r2, #0
   16a04:	1afffff2 	bne	169d4 <__any_on+0x38>
   16a08:	e15c0003 	cmp	ip, r3
   16a0c:	3afffffa 	bcc	169fc <__any_on+0x60>
   16a10:	e12fff1e 	bx	lr
   16a14:	e3a00000 	mov	r0, #0
   16a18:	e12fff1e 	bx	lr

00016a1c <nanf>:
   16a1c:	ed9f0a00 	vldr	s0, [pc]	; 16a24 <nanf+0x8>
   16a20:	e12fff1e 	bx	lr
   16a24:	7fc00000 	.word	0x7fc00000

00016a28 <strncmp>:
   16a28:	e3520000 	cmp	r2, #0
   16a2c:	0a000037 	beq	16b10 <strncmp+0xe8>
   16a30:	e1803001 	orr	r3, r0, r1
   16a34:	e2133003 	ands	r3, r3, #3
   16a38:	e92d40f0 	push	{r4, r5, r6, r7, lr}
   16a3c:	1a00001f 	bne	16ac0 <strncmp+0x98>
   16a40:	e3520003 	cmp	r2, #3
   16a44:	9a00001d 	bls	16ac0 <strncmp+0x98>
   16a48:	e590c000 	ldr	ip, [r0]
   16a4c:	e591e000 	ldr	lr, [r1]
   16a50:	e15c000e 	cmp	ip, lr
   16a54:	1a000019 	bne	16ac0 <strncmp+0x98>
   16a58:	e2522004 	subs	r2, r2, #4
   16a5c:	0a00002d 	beq	16b18 <strncmp+0xf0>
   16a60:	e59f50c8 	ldr	r5, [pc, #200]	; 16b30 <strncmp+0x108>
   16a64:	e59f60c8 	ldr	r6, [pc, #200]	; 16b34 <strncmp+0x10c>
   16a68:	e08ce005 	add	lr, ip, r5
   16a6c:	e1cec00c 	bic	ip, lr, ip
   16a70:	e11c0006 	tst	ip, r6
   16a74:	02800004 	addeq	r0, r0, #4
   16a78:	02811004 	addeq	r1, r1, #4
   16a7c:	0a00000b 	beq	16ab0 <strncmp+0x88>
   16a80:	ea000024 	b	16b18 <strncmp+0xf0>
   16a84:	e4903004 	ldr	r3, [r0], #4
   16a88:	e5914000 	ldr	r4, [r1]
   16a8c:	e083c005 	add	ip, r3, r5
   16a90:	e1530004 	cmp	r3, r4
   16a94:	e1ccc003 	bic	ip, ip, r3
   16a98:	e2811004 	add	r1, r1, #4
   16a9c:	1a000020 	bne	16b24 <strncmp+0xfc>
   16aa0:	e2522004 	subs	r2, r2, #4
   16aa4:	0a00001b 	beq	16b18 <strncmp+0xf0>
   16aa8:	e11c0006 	tst	ip, r6
   16aac:	1a000019 	bne	16b18 <strncmp+0xf0>
   16ab0:	e3520003 	cmp	r2, #3
   16ab4:	e1a07000 	mov	r7, r0
   16ab8:	e1a0e001 	mov	lr, r1
   16abc:	8afffff0 	bhi	16a84 <strncmp+0x5c>
   16ac0:	e5d03000 	ldrb	r3, [r0]
   16ac4:	e5d1c000 	ldrb	ip, [r1]
   16ac8:	e15c0003 	cmp	ip, r3
   16acc:	e2422001 	sub	r2, r2, #1
   16ad0:	1a00000b 	bne	16b04 <strncmp+0xdc>
   16ad4:	e3520000 	cmp	r2, #0
   16ad8:	135c0000 	cmpne	ip, #0
   16adc:	1a000003 	bne	16af0 <strncmp+0xc8>
   16ae0:	ea00000c 	b	16b18 <strncmp+0xf0>
   16ae4:	e3520000 	cmp	r2, #0
   16ae8:	13530000 	cmpne	r3, #0
   16aec:	0a000009 	beq	16b18 <strncmp+0xf0>
   16af0:	e5f03001 	ldrb	r3, [r0, #1]!
   16af4:	e5f1c001 	ldrb	ip, [r1, #1]!
   16af8:	e153000c 	cmp	r3, ip
   16afc:	e2422001 	sub	r2, r2, #1
   16b00:	0afffff7 	beq	16ae4 <strncmp+0xbc>
   16b04:	e043000c 	sub	r0, r3, ip
   16b08:	e8bd40f0 	pop	{r4, r5, r6, r7, lr}
   16b0c:	e12fff1e 	bx	lr
   16b10:	e1a00002 	mov	r0, r2
   16b14:	e12fff1e 	bx	lr
   16b18:	e3a00000 	mov	r0, #0
   16b1c:	e8bd40f0 	pop	{r4, r5, r6, r7, lr}
   16b20:	e12fff1e 	bx	lr
   16b24:	e1a0100e 	mov	r1, lr
   16b28:	e1a00007 	mov	r0, r7
   16b2c:	eaffffe3 	b	16ac0 <strncmp+0x98>
   16b30:	fefefeff 	.word	0xfefefeff
   16b34:	80808080 	.word	0x80808080

00016b38 <_calloc_r>:
   16b38:	e92d4010 	push	{r4, lr}
   16b3c:	e0010192 	mul	r1, r2, r1
   16b40:	eb000022 	bl	16bd0 <_malloc_r>
   16b44:	e2504000 	subs	r4, r0, #0
   16b48:	0a000018 	beq	16bb0 <_calloc_r+0x78>
   16b4c:	e5142004 	ldr	r2, [r4, #-4]
   16b50:	e3c22003 	bic	r2, r2, #3
   16b54:	e2422004 	sub	r2, r2, #4
   16b58:	e3520024 	cmp	r2, #36	; 0x24
   16b5c:	8a000016 	bhi	16bbc <_calloc_r+0x84>
   16b60:	e3520013 	cmp	r2, #19
   16b64:	91a02004 	movls	r2, r4
   16b68:	9a00000c 	bls	16ba0 <_calloc_r+0x68>
   16b6c:	e3a03000 	mov	r3, #0
   16b70:	e352001b 	cmp	r2, #27
   16b74:	e5843000 	str	r3, [r4]
   16b78:	e5843004 	str	r3, [r4, #4]
   16b7c:	92842008 	addls	r2, r4, #8
   16b80:	9a000006 	bls	16ba0 <_calloc_r+0x68>
   16b84:	e3520024 	cmp	r2, #36	; 0x24
   16b88:	e5843008 	str	r3, [r4, #8]
   16b8c:	e584300c 	str	r3, [r4, #12]
   16b90:	05843010 	streq	r3, [r4, #16]
   16b94:	05843014 	streq	r3, [r4, #20]
   16b98:	12842010 	addne	r2, r4, #16
   16b9c:	02842018 	addeq	r2, r4, #24
   16ba0:	e3a03000 	mov	r3, #0
   16ba4:	e5823000 	str	r3, [r2]
   16ba8:	e5823004 	str	r3, [r2, #4]
   16bac:	e5823008 	str	r3, [r2, #8]
   16bb0:	e1a00004 	mov	r0, r4
   16bb4:	e8bd4010 	pop	{r4, lr}
   16bb8:	e12fff1e 	bx	lr
   16bbc:	e3a01000 	mov	r1, #0
   16bc0:	ebfffc03 	bl	15bd4 <memset>
   16bc4:	e1a00004 	mov	r0, r4
   16bc8:	e8bd4010 	pop	{r4, lr}
   16bcc:	e12fff1e 	bx	lr

00016bd0 <_malloc_r>:
   16bd0:	e92d4ff0 	push	{r4, r5, r6, r7, r8, r9, sl, fp, lr}
   16bd4:	e281600b 	add	r6, r1, #11
   16bd8:	e3560016 	cmp	r6, #22
   16bdc:	e24dd00c 	sub	sp, sp, #12
   16be0:	e1a05000 	mov	r5, r0
   16be4:	9a000072 	bls	16db4 <_malloc_r+0x1e4>
   16be8:	e3c66007 	bic	r6, r6, #7
   16bec:	e1510006 	cmp	r1, r6
   16bf0:	93a01000 	movls	r1, #0
   16bf4:	83a01001 	movhi	r1, #1
   16bf8:	e1913fa6 	orrs	r3, r1, r6, lsr #31
   16bfc:	1a000089 	bne	16e28 <_malloc_r+0x258>
   16c00:	eb0001d5 	bl	1735c <__malloc_lock>
   16c04:	e3560f7e 	cmp	r6, #504	; 0x1f8
   16c08:	3a0001c8 	bcc	17330 <_malloc_r+0x760>
   16c0c:	e1b034a6 	lsrs	r3, r6, #9
   16c10:	0a00008b 	beq	16e44 <_malloc_r+0x274>
   16c14:	e3530004 	cmp	r3, #4
   16c18:	8a0000d6 	bhi	16f78 <_malloc_r+0x3a8>
   16c1c:	e1a03326 	lsr	r3, r6, #6
   16c20:	e2830039 	add	r0, r3, #57	; 0x39
   16c24:	e283c038 	add	ip, r3, #56	; 0x38
   16c28:	e1a01180 	lsl	r1, r0, #3
   16c2c:	e59f7708 	ldr	r7, [pc, #1800]	; 1733c <_malloc_r+0x76c>
   16c30:	e0871001 	add	r1, r7, r1
   16c34:	e5914004 	ldr	r4, [r1, #4]
   16c38:	e2411008 	sub	r1, r1, #8
   16c3c:	e1510004 	cmp	r1, r4
   16c40:	1a000005 	bne	16c5c <_malloc_r+0x8c>
   16c44:	ea00000a 	b	16c74 <_malloc_r+0xa4>
   16c48:	e3520000 	cmp	r2, #0
   16c4c:	aa000066 	bge	16dec <_malloc_r+0x21c>
   16c50:	e594400c 	ldr	r4, [r4, #12]
   16c54:	e1510004 	cmp	r1, r4
   16c58:	0a000005 	beq	16c74 <_malloc_r+0xa4>
   16c5c:	e5943004 	ldr	r3, [r4, #4]
   16c60:	e3c33003 	bic	r3, r3, #3
   16c64:	e0432006 	sub	r2, r3, r6
   16c68:	e352000f 	cmp	r2, #15
   16c6c:	dafffff5 	ble	16c48 <_malloc_r+0x78>
   16c70:	e1a0000c 	mov	r0, ip
   16c74:	e5974010 	ldr	r4, [r7, #16]
   16c78:	e59fc6c0 	ldr	ip, [pc, #1728]	; 17340 <_malloc_r+0x770>
   16c7c:	e154000c 	cmp	r4, ip
   16c80:	05973004 	ldreq	r3, [r7, #4]
   16c84:	0a000018 	beq	16cec <_malloc_r+0x11c>
   16c88:	e5943004 	ldr	r3, [r4, #4]
   16c8c:	e3c33003 	bic	r3, r3, #3
   16c90:	e0432006 	sub	r2, r3, r6
   16c94:	e352000f 	cmp	r2, #15
   16c98:	ca0000da 	bgt	17008 <_malloc_r+0x438>
   16c9c:	e3520000 	cmp	r2, #0
   16ca0:	e587c014 	str	ip, [r7, #20]
   16ca4:	e587c010 	str	ip, [r7, #16]
   16ca8:	aa000069 	bge	16e54 <_malloc_r+0x284>
   16cac:	e3530c02 	cmp	r3, #512	; 0x200
   16cb0:	2a0000b9 	bcs	16f9c <_malloc_r+0x3cc>
   16cb4:	e3a08001 	mov	r8, #1
   16cb8:	e5972004 	ldr	r2, [r7, #4]
   16cbc:	e1a031a3 	lsr	r3, r3, #3
   16cc0:	e0831008 	add	r1, r3, r8
   16cc4:	e1a03143 	asr	r3, r3, #2
   16cc8:	e1823318 	orr	r3, r2, r8, lsl r3
   16ccc:	e087e181 	add	lr, r7, r1, lsl #3
   16cd0:	e7978181 	ldr	r8, [r7, r1, lsl #3]
   16cd4:	e24e2008 	sub	r2, lr, #8
   16cd8:	e584200c 	str	r2, [r4, #12]
   16cdc:	e5848008 	str	r8, [r4, #8]
   16ce0:	e5873004 	str	r3, [r7, #4]
   16ce4:	e7874181 	str	r4, [r7, r1, lsl #3]
   16ce8:	e588400c 	str	r4, [r8, #12]
   16cec:	e3a01001 	mov	r1, #1
   16cf0:	e1a02140 	asr	r2, r0, #2
   16cf4:	e1a0e211 	lsl	lr, r1, r2
   16cf8:	e15e0003 	cmp	lr, r3
   16cfc:	8a00005f 	bhi	16e80 <_malloc_r+0x2b0>
   16d00:	e11e0003 	tst	lr, r3
   16d04:	1a000008 	bne	16d2c <_malloc_r+0x15c>
   16d08:	e1a0e11e 	lsl	lr, lr, r1
   16d0c:	e3c00003 	bic	r0, r0, #3
   16d10:	e11e0003 	tst	lr, r3
   16d14:	e2800004 	add	r0, r0, #4
   16d18:	1a000003 	bne	16d2c <_malloc_r+0x15c>
   16d1c:	e1a0e08e 	lsl	lr, lr, #1
   16d20:	e11e0003 	tst	lr, r3
   16d24:	e2800004 	add	r0, r0, #4
   16d28:	0afffffb 	beq	16d1c <_malloc_r+0x14c>
   16d2c:	e0879180 	add	r9, r7, r0, lsl #3
   16d30:	e1a01009 	mov	r1, r9
   16d34:	e1a04000 	mov	r4, r0
   16d38:	e591800c 	ldr	r8, [r1, #12]
   16d3c:	e1510008 	cmp	r1, r8
   16d40:	1a000005 	bne	16d5c <_malloc_r+0x18c>
   16d44:	ea0000bc 	b	1703c <_malloc_r+0x46c>
   16d48:	e3520000 	cmp	r2, #0
   16d4c:	aa0000c4 	bge	17064 <_malloc_r+0x494>
   16d50:	e598800c 	ldr	r8, [r8, #12]
   16d54:	e1510008 	cmp	r1, r8
   16d58:	0a0000b7 	beq	1703c <_malloc_r+0x46c>
   16d5c:	e5983004 	ldr	r3, [r8, #4]
   16d60:	e3c33003 	bic	r3, r3, #3
   16d64:	e0432006 	sub	r2, r3, r6
   16d68:	e352000f 	cmp	r2, #15
   16d6c:	dafffff5 	ble	16d48 <_malloc_r+0x178>
   16d70:	e598100c 	ldr	r1, [r8, #12]
   16d74:	e598e008 	ldr	lr, [r8, #8]
   16d78:	e3864001 	orr	r4, r6, #1
   16d7c:	e5884004 	str	r4, [r8, #4]
   16d80:	e0886006 	add	r6, r8, r6
   16d84:	e3824001 	orr	r4, r2, #1
   16d88:	e58e100c 	str	r1, [lr, #12]
   16d8c:	e1a00005 	mov	r0, r5
   16d90:	e581e008 	str	lr, [r1, #8]
   16d94:	e5876014 	str	r6, [r7, #20]
   16d98:	e5876010 	str	r6, [r7, #16]
   16d9c:	e9861010 	stmib	r6, {r4, ip}
   16da0:	e586c00c 	str	ip, [r6, #12]
   16da4:	e7882003 	str	r2, [r8, r3]
   16da8:	eb000171 	bl	17374 <__malloc_unlock>
   16dac:	e2884008 	add	r4, r8, #8
   16db0:	ea000018 	b	16e18 <_malloc_r+0x248>
   16db4:	e3510010 	cmp	r1, #16
   16db8:	8a00001a 	bhi	16e28 <_malloc_r+0x258>
   16dbc:	eb000166 	bl	1735c <__malloc_lock>
   16dc0:	e3a06010 	mov	r6, #16
   16dc4:	e3a03018 	mov	r3, #24
   16dc8:	e3a00002 	mov	r0, #2
   16dcc:	e59f7568 	ldr	r7, [pc, #1384]	; 1733c <_malloc_r+0x76c>
   16dd0:	e0873003 	add	r3, r7, r3
   16dd4:	e5934004 	ldr	r4, [r3, #4]
   16dd8:	e2432008 	sub	r2, r3, #8
   16ddc:	e1540002 	cmp	r4, r2
   16de0:	0a00009a 	beq	17050 <_malloc_r+0x480>
   16de4:	e5943004 	ldr	r3, [r4, #4]
   16de8:	e3c33003 	bic	r3, r3, #3
   16dec:	e0843003 	add	r3, r4, r3
   16df0:	e5932004 	ldr	r2, [r3, #4]
   16df4:	e594100c 	ldr	r1, [r4, #12]
   16df8:	e594c008 	ldr	ip, [r4, #8]
   16dfc:	e3822001 	orr	r2, r2, #1
   16e00:	e58c100c 	str	r1, [ip, #12]
   16e04:	e1a00005 	mov	r0, r5
   16e08:	e581c008 	str	ip, [r1, #8]
   16e0c:	e5832004 	str	r2, [r3, #4]
   16e10:	eb000157 	bl	17374 <__malloc_unlock>
   16e14:	e2844008 	add	r4, r4, #8
   16e18:	e1a00004 	mov	r0, r4
   16e1c:	e28dd00c 	add	sp, sp, #12
   16e20:	e8bd4ff0 	pop	{r4, r5, r6, r7, r8, r9, sl, fp, lr}
   16e24:	e12fff1e 	bx	lr
   16e28:	e3a04000 	mov	r4, #0
   16e2c:	e3a0300c 	mov	r3, #12
   16e30:	e1a00004 	mov	r0, r4
   16e34:	e5853000 	str	r3, [r5]
   16e38:	e28dd00c 	add	sp, sp, #12
   16e3c:	e8bd4ff0 	pop	{r4, r5, r6, r7, r8, r9, sl, fp, lr}
   16e40:	e12fff1e 	bx	lr
   16e44:	e3a01c02 	mov	r1, #512	; 0x200
   16e48:	e3a00040 	mov	r0, #64	; 0x40
   16e4c:	e3a0c03f 	mov	ip, #63	; 0x3f
   16e50:	eaffff75 	b	16c2c <_malloc_r+0x5c>
   16e54:	e0843003 	add	r3, r4, r3
   16e58:	e5932004 	ldr	r2, [r3, #4]
   16e5c:	e3822001 	orr	r2, r2, #1
   16e60:	e1a00005 	mov	r0, r5
   16e64:	e5832004 	str	r2, [r3, #4]
   16e68:	e2844008 	add	r4, r4, #8
   16e6c:	eb000140 	bl	17374 <__malloc_unlock>
   16e70:	e1a00004 	mov	r0, r4
   16e74:	e28dd00c 	add	sp, sp, #12
   16e78:	e8bd4ff0 	pop	{r4, r5, r6, r7, r8, r9, sl, fp, lr}
   16e7c:	e12fff1e 	bx	lr
   16e80:	e5974008 	ldr	r4, [r7, #8]
   16e84:	e5943004 	ldr	r3, [r4, #4]
   16e88:	e3c39003 	bic	r9, r3, #3
   16e8c:	e0493006 	sub	r3, r9, r6
   16e90:	e353000f 	cmp	r3, #15
   16e94:	c3a02000 	movgt	r2, #0
   16e98:	d3a02001 	movle	r2, #1
   16e9c:	e1590006 	cmp	r9, r6
   16ea0:	33822001 	orrcc	r2, r2, #1
   16ea4:	e3520000 	cmp	r2, #0
   16ea8:	0a000025 	beq	16f44 <_malloc_r+0x374>
   16eac:	e59fa490 	ldr	sl, [pc, #1168]	; 17344 <_malloc_r+0x774>
   16eb0:	e59f2490 	ldr	r2, [pc, #1168]	; 17348 <_malloc_r+0x778>
   16eb4:	e59a3000 	ldr	r3, [sl]
   16eb8:	e5922000 	ldr	r2, [r2]
   16ebc:	e3730001 	cmn	r3, #1
   16ec0:	e0862002 	add	r2, r6, r2
   16ec4:	12823a01 	addne	r3, r2, #4096	; 0x1000
   16ec8:	1283300f 	addne	r3, r3, #15
   16ecc:	13c32eff 	bicne	r2, r3, #4080	; 0xff0
   16ed0:	02822010 	addeq	r2, r2, #16
   16ed4:	13c2200f 	bicne	r2, r2, #15
   16ed8:	e1a01002 	mov	r1, r2
   16edc:	e1a00005 	mov	r0, r5
   16ee0:	e58d2004 	str	r2, [sp, #4]
   16ee4:	eb000128 	bl	1738c <_sbrk_r>
   16ee8:	e3700001 	cmn	r0, #1
   16eec:	e1a0b000 	mov	fp, r0
   16ef0:	e59d2004 	ldr	r2, [sp, #4]
   16ef4:	0a000003 	beq	16f08 <_malloc_r+0x338>
   16ef8:	e0843009 	add	r3, r4, r9
   16efc:	e1540007 	cmp	r4, r7
   16f00:	11530000 	cmpne	r3, r0
   16f04:	9a000084 	bls	1711c <_malloc_r+0x54c>
   16f08:	e5974008 	ldr	r4, [r7, #8]
   16f0c:	e5943004 	ldr	r3, [r4, #4]
   16f10:	e3c33003 	bic	r3, r3, #3
   16f14:	e1560003 	cmp	r6, r3
   16f18:	93a02000 	movls	r2, #0
   16f1c:	83a02001 	movhi	r2, #1
   16f20:	e0433006 	sub	r3, r3, r6
   16f24:	e353000f 	cmp	r3, #15
   16f28:	d3822001 	orrle	r2, r2, #1
   16f2c:	e3520000 	cmp	r2, #0
   16f30:	0a000003 	beq	16f44 <_malloc_r+0x374>
   16f34:	e1a00005 	mov	r0, r5
   16f38:	eb00010d 	bl	17374 <__malloc_unlock>
   16f3c:	e3a04000 	mov	r4, #0
   16f40:	eaffffb4 	b	16e18 <_malloc_r+0x248>
   16f44:	e3862001 	orr	r2, r6, #1
   16f48:	e3833001 	orr	r3, r3, #1
   16f4c:	e0846006 	add	r6, r4, r6
   16f50:	e5842004 	str	r2, [r4, #4]
   16f54:	e1a00005 	mov	r0, r5
   16f58:	e5876008 	str	r6, [r7, #8]
   16f5c:	e2844008 	add	r4, r4, #8
   16f60:	e5863004 	str	r3, [r6, #4]
   16f64:	eb000102 	bl	17374 <__malloc_unlock>
   16f68:	e1a00004 	mov	r0, r4
   16f6c:	e28dd00c 	add	sp, sp, #12
   16f70:	e8bd4ff0 	pop	{r4, r5, r6, r7, r8, r9, sl, fp, lr}
   16f74:	e12fff1e 	bx	lr
   16f78:	e3530014 	cmp	r3, #20
   16f7c:	9a000044 	bls	17094 <_malloc_r+0x4c4>
   16f80:	e3530054 	cmp	r3, #84	; 0x54
   16f84:	8a0000a8 	bhi	1722c <_malloc_r+0x65c>
   16f88:	e1a03626 	lsr	r3, r6, #12
   16f8c:	e283006f 	add	r0, r3, #111	; 0x6f
   16f90:	e283c06e 	add	ip, r3, #110	; 0x6e
   16f94:	e1a01180 	lsl	r1, r0, #3
   16f98:	eaffff23 	b	16c2c <_malloc_r+0x5c>
   16f9c:	e1a024a3 	lsr	r2, r3, #9
   16fa0:	e3520004 	cmp	r2, #4
   16fa4:	9a00003e 	bls	170a4 <_malloc_r+0x4d4>
   16fa8:	e3520014 	cmp	r2, #20
   16fac:	8a0000b4 	bhi	17284 <_malloc_r+0x6b4>
   16fb0:	e282805c 	add	r8, r2, #92	; 0x5c
   16fb4:	e1a08188 	lsl	r8, r8, #3
   16fb8:	e282105b 	add	r1, r2, #91	; 0x5b
   16fbc:	e087e008 	add	lr, r7, r8
   16fc0:	e7972008 	ldr	r2, [r7, r8]
   16fc4:	e24ee008 	sub	lr, lr, #8
   16fc8:	e15e0002 	cmp	lr, r2
   16fcc:	0a00009d 	beq	17248 <_malloc_r+0x678>
   16fd0:	e5921004 	ldr	r1, [r2, #4]
   16fd4:	e3c11003 	bic	r1, r1, #3
   16fd8:	e1530001 	cmp	r3, r1
   16fdc:	2a000090 	bcs	17224 <_malloc_r+0x654>
   16fe0:	e5922008 	ldr	r2, [r2, #8]
   16fe4:	e15e0002 	cmp	lr, r2
   16fe8:	1afffff8 	bne	16fd0 <_malloc_r+0x400>
   16fec:	e59e200c 	ldr	r2, [lr, #12]
   16ff0:	e5973004 	ldr	r3, [r7, #4]
   16ff4:	e584200c 	str	r2, [r4, #12]
   16ff8:	e584e008 	str	lr, [r4, #8]
   16ffc:	e5824008 	str	r4, [r2, #8]
   17000:	e58e400c 	str	r4, [lr, #12]
   17004:	eaffff38 	b	16cec <_malloc_r+0x11c>
   17008:	e386e001 	orr	lr, r6, #1
   1700c:	e3821001 	orr	r1, r2, #1
   17010:	e0846006 	add	r6, r4, r6
   17014:	e584e004 	str	lr, [r4, #4]
   17018:	e1a00005 	mov	r0, r5
   1701c:	e5876014 	str	r6, [r7, #20]
   17020:	e5876010 	str	r6, [r7, #16]
   17024:	e586c00c 	str	ip, [r6, #12]
   17028:	e9861002 	stmib	r6, {r1, ip}
   1702c:	e7842003 	str	r2, [r4, r3]
   17030:	eb0000cf 	bl	17374 <__malloc_unlock>
   17034:	e2844008 	add	r4, r4, #8
   17038:	eaffff76 	b	16e18 <_malloc_r+0x248>
   1703c:	e2844001 	add	r4, r4, #1
   17040:	e3140003 	tst	r4, #3
   17044:	e2811008 	add	r1, r1, #8
   17048:	1affff3a 	bne	16d38 <_malloc_r+0x168>
   1704c:	ea00001d 	b	170c8 <_malloc_r+0x4f8>
   17050:	e593400c 	ldr	r4, [r3, #12]
   17054:	e1530004 	cmp	r3, r4
   17058:	02800002 	addeq	r0, r0, #2
   1705c:	0affff04 	beq	16c74 <_malloc_r+0xa4>
   17060:	eaffff5f 	b	16de4 <_malloc_r+0x214>
   17064:	e1a04008 	mov	r4, r8
   17068:	e0883003 	add	r3, r8, r3
   1706c:	e5932004 	ldr	r2, [r3, #4]
   17070:	e598100c 	ldr	r1, [r8, #12]
   17074:	e5b4c008 	ldr	ip, [r4, #8]!
   17078:	e3822001 	orr	r2, r2, #1
   1707c:	e5832004 	str	r2, [r3, #4]
   17080:	e1a00005 	mov	r0, r5
   17084:	e58c100c 	str	r1, [ip, #12]
   17088:	e581c008 	str	ip, [r1, #8]
   1708c:	eb0000b8 	bl	17374 <__malloc_unlock>
   17090:	eaffff60 	b	16e18 <_malloc_r+0x248>
   17094:	e283005c 	add	r0, r3, #92	; 0x5c
   17098:	e283c05b 	add	ip, r3, #91	; 0x5b
   1709c:	e1a01180 	lsl	r1, r0, #3
   170a0:	eafffee1 	b	16c2c <_malloc_r+0x5c>
   170a4:	e1a02323 	lsr	r2, r3, #6
   170a8:	e2828039 	add	r8, r2, #57	; 0x39
   170ac:	e1a08188 	lsl	r8, r8, #3
   170b0:	e2821038 	add	r1, r2, #56	; 0x38
   170b4:	eaffffc0 	b	16fbc <_malloc_r+0x3ec>
   170b8:	e4193008 	ldr	r3, [r9], #-8
   170bc:	e1590003 	cmp	r9, r3
   170c0:	e2400001 	sub	r0, r0, #1
   170c4:	1a000097 	bne	17328 <_malloc_r+0x758>
   170c8:	e3100003 	tst	r0, #3
   170cc:	1afffff9 	bne	170b8 <_malloc_r+0x4e8>
   170d0:	e5973004 	ldr	r3, [r7, #4]
   170d4:	e1c3300e 	bic	r3, r3, lr
   170d8:	e5873004 	str	r3, [r7, #4]
   170dc:	e1b0e08e 	lsls	lr, lr, #1
   170e0:	13a02001 	movne	r2, #1
   170e4:	03a02000 	moveq	r2, #0
   170e8:	e15e0003 	cmp	lr, r3
   170ec:	83a02000 	movhi	r2, #0
   170f0:	92022001 	andls	r2, r2, #1
   170f4:	e3520000 	cmp	r2, #0
   170f8:	0affff60 	beq	16e80 <_malloc_r+0x2b0>
   170fc:	e11e0003 	tst	lr, r3
   17100:	e1a00004 	mov	r0, r4
   17104:	1affff08 	bne	16d2c <_malloc_r+0x15c>
   17108:	e1a0e08e 	lsl	lr, lr, #1
   1710c:	e11e0003 	tst	lr, r3
   17110:	e2800004 	add	r0, r0, #4
   17114:	0afffffb 	beq	17108 <_malloc_r+0x538>
   17118:	eaffff03 	b	16d2c <_malloc_r+0x15c>
   1711c:	e59f8228 	ldr	r8, [pc, #552]	; 1734c <_malloc_r+0x77c>
   17120:	e5981000 	ldr	r1, [r8]
   17124:	e1530000 	cmp	r3, r0
   17128:	e0821001 	add	r1, r2, r1
   1712c:	e5881000 	str	r1, [r8]
   17130:	0a00005e 	beq	172b0 <_malloc_r+0x6e0>
   17134:	e59a0000 	ldr	r0, [sl]
   17138:	e3700001 	cmn	r0, #1
   1713c:	104b3003 	subne	r3, fp, r3
   17140:	10831001 	addne	r1, r3, r1
   17144:	058ab000 	streq	fp, [sl]
   17148:	15881000 	strne	r1, [r8]
   1714c:	e21b1007 	ands	r1, fp, #7
   17150:	03a01a01 	moveq	r1, #4096	; 0x1000
   17154:	12613008 	rsbne	r3, r1, #8
   17158:	108bb003 	addne	fp, fp, r3
   1715c:	e08b2002 	add	r2, fp, r2
   17160:	12611a01 	rsbne	r1, r1, #4096	; 0x1000
   17164:	e1a02a02 	lsl	r2, r2, #20
   17168:	12811008 	addne	r1, r1, #8
   1716c:	e1a02a22 	lsr	r2, r2, #20
   17170:	e041a002 	sub	sl, r1, r2
   17174:	e1a0100a 	mov	r1, sl
   17178:	e1a00005 	mov	r0, r5
   1717c:	eb000082 	bl	1738c <_sbrk_r>
   17180:	e3700001 	cmn	r0, #1
   17184:	03a0a000 	moveq	sl, #0
   17188:	03a03001 	moveq	r3, #1
   1718c:	1040300b 	subne	r3, r0, fp
   17190:	e5981000 	ldr	r1, [r8]
   17194:	1083300a 	addne	r3, r3, sl
   17198:	13833001 	orrne	r3, r3, #1
   1719c:	e08a1001 	add	r1, sl, r1
   171a0:	e1540007 	cmp	r4, r7
   171a4:	e587b008 	str	fp, [r7, #8]
   171a8:	e5881000 	str	r1, [r8]
   171ac:	e58b3004 	str	r3, [fp, #4]
   171b0:	0a00000f 	beq	171f4 <_malloc_r+0x624>
   171b4:	e359000f 	cmp	r9, #15
   171b8:	93a03001 	movls	r3, #1
   171bc:	958b3004 	strls	r3, [fp, #4]
   171c0:	9affff5b 	bls	16f34 <_malloc_r+0x364>
   171c4:	e3a00005 	mov	r0, #5
   171c8:	e5942004 	ldr	r2, [r4, #4]
   171cc:	e249300c 	sub	r3, r9, #12
   171d0:	e3c33007 	bic	r3, r3, #7
   171d4:	e2022001 	and	r2, r2, #1
   171d8:	e1822003 	orr	r2, r2, r3
   171dc:	e353000f 	cmp	r3, #15
   171e0:	e0843003 	add	r3, r4, r3
   171e4:	e5842004 	str	r2, [r4, #4]
   171e8:	e5830004 	str	r0, [r3, #4]
   171ec:	e5830008 	str	r0, [r3, #8]
   171f0:	8a000037 	bhi	172d4 <_malloc_r+0x704>
   171f4:	e59f3154 	ldr	r3, [pc, #340]	; 17350 <_malloc_r+0x780>
   171f8:	e5932000 	ldr	r2, [r3]
   171fc:	e1510002 	cmp	r1, r2
   17200:	e59f214c 	ldr	r2, [pc, #332]	; 17354 <_malloc_r+0x784>
   17204:	85831000 	strhi	r1, [r3]
   17208:	e5974008 	ldr	r4, [r7, #8]
   1720c:	e5923000 	ldr	r3, [r2]
   17210:	e1510003 	cmp	r1, r3
   17214:	e5943004 	ldr	r3, [r4, #4]
   17218:	85821000 	strhi	r1, [r2]
   1721c:	e3c33003 	bic	r3, r3, #3
   17220:	eaffff3b 	b	16f14 <_malloc_r+0x344>
   17224:	e1a0e002 	mov	lr, r2
   17228:	eaffff6f 	b	16fec <_malloc_r+0x41c>
   1722c:	e3530f55 	cmp	r3, #340	; 0x154
   17230:	8a00000b 	bhi	17264 <_malloc_r+0x694>
   17234:	e1a037a6 	lsr	r3, r6, #15
   17238:	e2830078 	add	r0, r3, #120	; 0x78
   1723c:	e283c077 	add	ip, r3, #119	; 0x77
   17240:	e1a01180 	lsl	r1, r0, #3
   17244:	eafffe78 	b	16c2c <_malloc_r+0x5c>
   17248:	e3a08001 	mov	r8, #1
   1724c:	e5973004 	ldr	r3, [r7, #4]
   17250:	e1a02141 	asr	r2, r1, #2
   17254:	e1833218 	orr	r3, r3, r8, lsl r2
   17258:	e5873004 	str	r3, [r7, #4]
   1725c:	e1a0200e 	mov	r2, lr
   17260:	eaffff63 	b	16ff4 <_malloc_r+0x424>
   17264:	e59f20ec 	ldr	r2, [pc, #236]	; 17358 <_malloc_r+0x788>
   17268:	e1530002 	cmp	r3, r2
   1726c:	8a00000b 	bhi	172a0 <_malloc_r+0x6d0>
   17270:	e1a03926 	lsr	r3, r6, #18
   17274:	e283007d 	add	r0, r3, #125	; 0x7d
   17278:	e283c07c 	add	ip, r3, #124	; 0x7c
   1727c:	e1a01180 	lsl	r1, r0, #3
   17280:	eafffe69 	b	16c2c <_malloc_r+0x5c>
   17284:	e3520054 	cmp	r2, #84	; 0x54
   17288:	8a000016 	bhi	172e8 <_malloc_r+0x718>
   1728c:	e1a02623 	lsr	r2, r3, #12
   17290:	e282806f 	add	r8, r2, #111	; 0x6f
   17294:	e1a08188 	lsl	r8, r8, #3
   17298:	e282106e 	add	r1, r2, #110	; 0x6e
   1729c:	eaffff46 	b	16fbc <_malloc_r+0x3ec>
   172a0:	e3a01ffe 	mov	r1, #1016	; 0x3f8
   172a4:	e3a0007f 	mov	r0, #127	; 0x7f
   172a8:	e3a0c07e 	mov	ip, #126	; 0x7e
   172ac:	eafffe5e 	b	16c2c <_malloc_r+0x5c>
   172b0:	e1a00a03 	lsl	r0, r3, #20
   172b4:	e1a00a20 	lsr	r0, r0, #20
   172b8:	e3500000 	cmp	r0, #0
   172bc:	1affff9c 	bne	17134 <_malloc_r+0x564>
   172c0:	e0893002 	add	r3, r9, r2
   172c4:	e5972008 	ldr	r2, [r7, #8]
   172c8:	e3833001 	orr	r3, r3, #1
   172cc:	e5823004 	str	r3, [r2, #4]
   172d0:	eaffffc7 	b	171f4 <_malloc_r+0x624>
   172d4:	e2841008 	add	r1, r4, #8
   172d8:	e1a00005 	mov	r0, r5
   172dc:	eb00007b 	bl	174d0 <_free_r>
   172e0:	e5981000 	ldr	r1, [r8]
   172e4:	eaffffc2 	b	171f4 <_malloc_r+0x624>
   172e8:	e3520f55 	cmp	r2, #340	; 0x154
   172ec:	8a000004 	bhi	17304 <_malloc_r+0x734>
   172f0:	e1a027a3 	lsr	r2, r3, #15
   172f4:	e2828078 	add	r8, r2, #120	; 0x78
   172f8:	e1a08188 	lsl	r8, r8, #3
   172fc:	e2821077 	add	r1, r2, #119	; 0x77
   17300:	eaffff2d 	b	16fbc <_malloc_r+0x3ec>
   17304:	e59f104c 	ldr	r1, [pc, #76]	; 17358 <_malloc_r+0x788>
   17308:	e1520001 	cmp	r2, r1
   1730c:	91a02923 	lsrls	r2, r3, #18
   17310:	9282807d 	addls	r8, r2, #125	; 0x7d
   17314:	91a08188 	lslls	r8, r8, #3
   17318:	9282107c 	addls	r1, r2, #124	; 0x7c
   1731c:	83a08ffe 	movhi	r8, #1016	; 0x3f8
   17320:	83a0107e 	movhi	r1, #126	; 0x7e
   17324:	eaffff24 	b	16fbc <_malloc_r+0x3ec>
   17328:	e5973004 	ldr	r3, [r7, #4]
   1732c:	eaffff6a 	b	170dc <_malloc_r+0x50c>
   17330:	e1a001a6 	lsr	r0, r6, #3
   17334:	e2863008 	add	r3, r6, #8
   17338:	eafffea3 	b	16dcc <_malloc_r+0x1fc>
   1733c:	000181b0 	.word	0x000181b0
   17340:	000181b8 	.word	0x000181b8
   17344:	000185b8 	.word	0x000185b8
   17348:	00018658 	.word	0x00018658
   1734c:	00018628 	.word	0x00018628
   17350:	00018650 	.word	0x00018650
   17354:	00018654 	.word	0x00018654
   17358:	00000554 	.word	0x00000554

0001735c <__malloc_lock>:
   1735c:	e92d4010 	push	{r4, lr}
   17360:	e59f0008 	ldr	r0, [pc, #8]	; 17370 <__malloc_lock+0x14>
   17364:	eb000111 	bl	177b0 <__retarget_lock_acquire_recursive>
   17368:	e8bd4010 	pop	{r4, lr}
   1736c:	e12fff1e 	bx	lr
   17370:	0001866c 	.word	0x0001866c

00017374 <__malloc_unlock>:
   17374:	e92d4010 	push	{r4, lr}
   17378:	e59f0008 	ldr	r0, [pc, #8]	; 17388 <__malloc_unlock+0x14>
   1737c:	eb00010c 	bl	177b4 <__retarget_lock_release_recursive>
   17380:	e8bd4010 	pop	{r4, lr}
   17384:	e12fff1e 	bx	lr
   17388:	0001866c 	.word	0x0001866c

0001738c <_sbrk_r>:
   1738c:	e3a03000 	mov	r3, #0
   17390:	e92d4070 	push	{r4, r5, r6, lr}
   17394:	e59f4030 	ldr	r4, [pc, #48]	; 173cc <_sbrk_r+0x40>
   17398:	e1a05000 	mov	r5, r0
   1739c:	e1a00001 	mov	r0, r1
   173a0:	e5843000 	str	r3, [r4]
   173a4:	ebffecb9 	bl	12690 <_sbrk>
   173a8:	e3700001 	cmn	r0, #1
   173ac:	0a000001 	beq	173b8 <_sbrk_r+0x2c>
   173b0:	e8bd4070 	pop	{r4, r5, r6, lr}
   173b4:	e12fff1e 	bx	lr
   173b8:	e5943000 	ldr	r3, [r4]
   173bc:	e3530000 	cmp	r3, #0
   173c0:	15853000 	strne	r3, [r5]
   173c4:	e8bd4070 	pop	{r4, r5, r6, lr}
   173c8:	e12fff1e 	bx	lr
   173cc:	00018680 	.word	0x00018680

000173d0 <_malloc_trim_r>:
   173d0:	e92d41f0 	push	{r4, r5, r6, r7, r8, lr}
   173d4:	e1a04001 	mov	r4, r1
   173d8:	e59f70e4 	ldr	r7, [pc, #228]	; 174c4 <_malloc_trim_r+0xf4>
   173dc:	e1a06000 	mov	r6, r0
   173e0:	ebffffdd 	bl	1735c <__malloc_lock>
   173e4:	e5973008 	ldr	r3, [r7, #8]
   173e8:	e5935004 	ldr	r5, [r3, #4]
   173ec:	e2641efe 	rsb	r1, r4, #4064	; 0xfe0
   173f0:	e281100f 	add	r1, r1, #15
   173f4:	e3c55003 	bic	r5, r5, #3
   173f8:	e0814005 	add	r4, r1, r5
   173fc:	e1a04624 	lsr	r4, r4, #12
   17400:	e2444001 	sub	r4, r4, #1
   17404:	e1a04604 	lsl	r4, r4, #12
   17408:	e3540a01 	cmp	r4, #4096	; 0x1000
   1740c:	ba000006 	blt	1742c <_malloc_trim_r+0x5c>
   17410:	e3a01000 	mov	r1, #0
   17414:	e1a00006 	mov	r0, r6
   17418:	ebffffdb 	bl	1738c <_sbrk_r>
   1741c:	e5973008 	ldr	r3, [r7, #8]
   17420:	e0833005 	add	r3, r3, r5
   17424:	e1500003 	cmp	r0, r3
   17428:	0a000004 	beq	17440 <_malloc_trim_r+0x70>
   1742c:	e1a00006 	mov	r0, r6
   17430:	ebffffcf 	bl	17374 <__malloc_unlock>
   17434:	e3a00000 	mov	r0, #0
   17438:	e8bd41f0 	pop	{r4, r5, r6, r7, r8, lr}
   1743c:	e12fff1e 	bx	lr
   17440:	e2641000 	rsb	r1, r4, #0
   17444:	e1a00006 	mov	r0, r6
   17448:	ebffffcf 	bl	1738c <_sbrk_r>
   1744c:	e3700001 	cmn	r0, #1
   17450:	0a00000c 	beq	17488 <_malloc_trim_r+0xb8>
   17454:	e59f206c 	ldr	r2, [pc, #108]	; 174c8 <_malloc_trim_r+0xf8>
   17458:	e5971008 	ldr	r1, [r7, #8]
   1745c:	e5923000 	ldr	r3, [r2]
   17460:	e0455004 	sub	r5, r5, r4
   17464:	e3855001 	orr	r5, r5, #1
   17468:	e1a00006 	mov	r0, r6
   1746c:	e0434004 	sub	r4, r3, r4
   17470:	e5815004 	str	r5, [r1, #4]
   17474:	e5824000 	str	r4, [r2]
   17478:	ebffffbd 	bl	17374 <__malloc_unlock>
   1747c:	e3a00001 	mov	r0, #1
   17480:	e8bd41f0 	pop	{r4, r5, r6, r7, r8, lr}
   17484:	e12fff1e 	bx	lr
   17488:	e3a01000 	mov	r1, #0
   1748c:	e1a00006 	mov	r0, r6
   17490:	ebffffbd 	bl	1738c <_sbrk_r>
   17494:	e5972008 	ldr	r2, [r7, #8]
   17498:	e0403002 	sub	r3, r0, r2
   1749c:	e353000f 	cmp	r3, #15
   174a0:	daffffe1 	ble	1742c <_malloc_trim_r+0x5c>
   174a4:	e59f1020 	ldr	r1, [pc, #32]	; 174cc <_malloc_trim_r+0xfc>
   174a8:	e591c000 	ldr	ip, [r1]
   174ac:	e59f1014 	ldr	r1, [pc, #20]	; 174c8 <_malloc_trim_r+0xf8>
   174b0:	e3833001 	orr	r3, r3, #1
   174b4:	e040000c 	sub	r0, r0, ip
   174b8:	e5823004 	str	r3, [r2, #4]
   174bc:	e5810000 	str	r0, [r1]
   174c0:	eaffffd9 	b	1742c <_malloc_trim_r+0x5c>
   174c4:	000181b0 	.word	0x000181b0
   174c8:	00018628 	.word	0x00018628
   174cc:	000185b8 	.word	0x000185b8

000174d0 <_free_r>:
   174d0:	e92d4070 	push	{r4, r5, r6, lr}
   174d4:	e2514000 	subs	r4, r1, #0
   174d8:	0a000031 	beq	175a4 <_free_r+0xd4>
   174dc:	e1a05000 	mov	r5, r0
   174e0:	ebffff9d 	bl	1735c <__malloc_lock>
   174e4:	e5141004 	ldr	r1, [r4, #-4]
   174e8:	e59fe2ac 	ldr	lr, [pc, #684]	; 1779c <_free_r+0x2cc>
   174ec:	e3c13001 	bic	r3, r1, #1
   174f0:	e244c008 	sub	ip, r4, #8
   174f4:	e08c0003 	add	r0, ip, r3
   174f8:	e59e6008 	ldr	r6, [lr, #8]
   174fc:	e5902004 	ldr	r2, [r0, #4]
   17500:	e1500006 	cmp	r0, r6
   17504:	e3c22003 	bic	r2, r2, #3
   17508:	0a00004e 	beq	17648 <_free_r+0x178>
   1750c:	e3110001 	tst	r1, #1
   17510:	e5802004 	str	r2, [r0, #4]
   17514:	1a000009 	bne	17540 <_free_r+0x70>
   17518:	e5144008 	ldr	r4, [r4, #-8]
   1751c:	e04cc004 	sub	ip, ip, r4
   17520:	e59c1008 	ldr	r1, [ip, #8]
   17524:	e28e6008 	add	r6, lr, #8
   17528:	e1510006 	cmp	r1, r6
   1752c:	e0833004 	add	r3, r3, r4
   17530:	0a00005c 	beq	176a8 <_free_r+0x1d8>
   17534:	e59c400c 	ldr	r4, [ip, #12]
   17538:	e581400c 	str	r4, [r1, #12]
   1753c:	e5841008 	str	r1, [r4, #8]
   17540:	e0801002 	add	r1, r0, r2
   17544:	e5911004 	ldr	r1, [r1, #4]
   17548:	e3110001 	tst	r1, #1
   1754c:	13832001 	orrne	r2, r3, #1
   17550:	158c2004 	strne	r2, [ip, #4]
   17554:	178c3003 	strne	r3, [ip, r3]
   17558:	0a00002c 	beq	17610 <_free_r+0x140>
   1755c:	e3530c02 	cmp	r3, #512	; 0x200
   17560:	2a000011 	bcs	175ac <_free_r+0xdc>
   17564:	e3a04001 	mov	r4, #1
   17568:	e59e0004 	ldr	r0, [lr, #4]
   1756c:	e1a031a3 	lsr	r3, r3, #3
   17570:	e0832004 	add	r2, r3, r4
   17574:	e1a03143 	asr	r3, r3, #2
   17578:	e1803314 	orr	r3, r0, r4, lsl r3
   1757c:	e08e1182 	add	r1, lr, r2, lsl #3
   17580:	e79e0182 	ldr	r0, [lr, r2, lsl #3]
   17584:	e2411008 	sub	r1, r1, #8
   17588:	e58e3004 	str	r3, [lr, #4]
   1758c:	e58c100c 	str	r1, [ip, #12]
   17590:	e58c0008 	str	r0, [ip, #8]
   17594:	e78ec182 	str	ip, [lr, r2, lsl #3]
   17598:	e580c00c 	str	ip, [r0, #12]
   1759c:	e1a00005 	mov	r0, r5
   175a0:	ebffff73 	bl	17374 <__malloc_unlock>
   175a4:	e8bd4070 	pop	{r4, r5, r6, lr}
   175a8:	e12fff1e 	bx	lr
   175ac:	e1a024a3 	lsr	r2, r3, #9
   175b0:	e3520004 	cmp	r2, #4
   175b4:	8a000048 	bhi	176dc <_free_r+0x20c>
   175b8:	e1a02323 	lsr	r2, r3, #6
   175bc:	e2824039 	add	r4, r2, #57	; 0x39
   175c0:	e1a04184 	lsl	r4, r4, #3
   175c4:	e2821038 	add	r1, r2, #56	; 0x38
   175c8:	e08e0004 	add	r0, lr, r4
   175cc:	e79e2004 	ldr	r2, [lr, r4]
   175d0:	e2400008 	sub	r0, r0, #8
   175d4:	e1500002 	cmp	r0, r2
   175d8:	0a000045 	beq	176f4 <_free_r+0x224>
   175dc:	e5921004 	ldr	r1, [r2, #4]
   175e0:	e3c11003 	bic	r1, r1, #3
   175e4:	e1530001 	cmp	r3, r1
   175e8:	2a00002c 	bcs	176a0 <_free_r+0x1d0>
   175ec:	e5922008 	ldr	r2, [r2, #8]
   175f0:	e1500002 	cmp	r0, r2
   175f4:	1afffff8 	bne	175dc <_free_r+0x10c>
   175f8:	e590300c 	ldr	r3, [r0, #12]
   175fc:	e58c300c 	str	r3, [ip, #12]
   17600:	e58c0008 	str	r0, [ip, #8]
   17604:	e583c008 	str	ip, [r3, #8]
   17608:	e580c00c 	str	ip, [r0, #12]
   1760c:	eaffffe2 	b	1759c <_free_r+0xcc>
   17610:	e5901008 	ldr	r1, [r0, #8]
   17614:	e59f4184 	ldr	r4, [pc, #388]	; 177a0 <_free_r+0x2d0>
   17618:	e1510004 	cmp	r1, r4
   1761c:	e0833002 	add	r3, r3, r2
   17620:	0a00003a 	beq	17710 <_free_r+0x240>
   17624:	e590000c 	ldr	r0, [r0, #12]
   17628:	e3832001 	orr	r2, r3, #1
   1762c:	e3530c02 	cmp	r3, #512	; 0x200
   17630:	e581000c 	str	r0, [r1, #12]
   17634:	e5801008 	str	r1, [r0, #8]
   17638:	e58c2004 	str	r2, [ip, #4]
   1763c:	e78c3003 	str	r3, [ip, r3]
   17640:	2affffd9 	bcs	175ac <_free_r+0xdc>
   17644:	eaffffc6 	b	17564 <_free_r+0x94>
   17648:	e3110001 	tst	r1, #1
   1764c:	e0833002 	add	r3, r3, r2
   17650:	1a000006 	bne	17670 <_free_r+0x1a0>
   17654:	e5142008 	ldr	r2, [r4, #-8]
   17658:	e04cc002 	sub	ip, ip, r2
   1765c:	e28c0008 	add	r0, ip, #8
   17660:	e8900003 	ldm	r0, {r0, r1}
   17664:	e580100c 	str	r1, [r0, #12]
   17668:	e5810008 	str	r0, [r1, #8]
   1766c:	e0833002 	add	r3, r3, r2
   17670:	e59f212c 	ldr	r2, [pc, #300]	; 177a4 <_free_r+0x2d4>
   17674:	e5921000 	ldr	r1, [r2]
   17678:	e3832001 	orr	r2, r3, #1
   1767c:	e1530001 	cmp	r3, r1
   17680:	e58c2004 	str	r2, [ip, #4]
   17684:	e58ec008 	str	ip, [lr, #8]
   17688:	3affffc3 	bcc	1759c <_free_r+0xcc>
   1768c:	e59f3114 	ldr	r3, [pc, #276]	; 177a8 <_free_r+0x2d8>
   17690:	e1a00005 	mov	r0, r5
   17694:	e5931000 	ldr	r1, [r3]
   17698:	ebffff4c 	bl	173d0 <_malloc_trim_r>
   1769c:	eaffffbe 	b	1759c <_free_r+0xcc>
   176a0:	e1a00002 	mov	r0, r2
   176a4:	eaffffd3 	b	175f8 <_free_r+0x128>
   176a8:	e0801002 	add	r1, r0, r2
   176ac:	e5911004 	ldr	r1, [r1, #4]
   176b0:	e3110001 	tst	r1, #1
   176b4:	1a000034 	bne	1778c <_free_r+0x2bc>
   176b8:	e2801008 	add	r1, r0, #8
   176bc:	e0823003 	add	r3, r2, r3
   176c0:	e8910006 	ldm	r1, {r1, r2}
   176c4:	e3830001 	orr	r0, r3, #1
   176c8:	e581200c 	str	r2, [r1, #12]
   176cc:	e5821008 	str	r1, [r2, #8]
   176d0:	e58c0004 	str	r0, [ip, #4]
   176d4:	e78c3003 	str	r3, [ip, r3]
   176d8:	eaffffaf 	b	1759c <_free_r+0xcc>
   176dc:	e3520014 	cmp	r2, #20
   176e0:	8a000012 	bhi	17730 <_free_r+0x260>
   176e4:	e282405c 	add	r4, r2, #92	; 0x5c
   176e8:	e1a04184 	lsl	r4, r4, #3
   176ec:	e282105b 	add	r1, r2, #91	; 0x5b
   176f0:	eaffffb4 	b	175c8 <_free_r+0xf8>
   176f4:	e3a04001 	mov	r4, #1
   176f8:	e59e3004 	ldr	r3, [lr, #4]
   176fc:	e1a02141 	asr	r2, r1, #2
   17700:	e1832214 	orr	r2, r3, r4, lsl r2
   17704:	e58e2004 	str	r2, [lr, #4]
   17708:	e1a03000 	mov	r3, r0
   1770c:	eaffffba 	b	175fc <_free_r+0x12c>
   17710:	e3832001 	orr	r2, r3, #1
   17714:	e58ec014 	str	ip, [lr, #20]
   17718:	e58ec010 	str	ip, [lr, #16]
   1771c:	e58c100c 	str	r1, [ip, #12]
   17720:	e58c1008 	str	r1, [ip, #8]
   17724:	e58c2004 	str	r2, [ip, #4]
   17728:	e78c3003 	str	r3, [ip, r3]
   1772c:	eaffff9a 	b	1759c <_free_r+0xcc>
   17730:	e3520054 	cmp	r2, #84	; 0x54
   17734:	8a000004 	bhi	1774c <_free_r+0x27c>
   17738:	e1a02623 	lsr	r2, r3, #12
   1773c:	e282406f 	add	r4, r2, #111	; 0x6f
   17740:	e1a04184 	lsl	r4, r4, #3
   17744:	e282106e 	add	r1, r2, #110	; 0x6e
   17748:	eaffff9e 	b	175c8 <_free_r+0xf8>
   1774c:	e3520f55 	cmp	r2, #340	; 0x154
   17750:	8a000004 	bhi	17768 <_free_r+0x298>
   17754:	e1a027a3 	lsr	r2, r3, #15
   17758:	e2824078 	add	r4, r2, #120	; 0x78
   1775c:	e1a04184 	lsl	r4, r4, #3
   17760:	e2821077 	add	r1, r2, #119	; 0x77
   17764:	eaffff97 	b	175c8 <_free_r+0xf8>
   17768:	e59f103c 	ldr	r1, [pc, #60]	; 177ac <_free_r+0x2dc>
   1776c:	e1520001 	cmp	r2, r1
   17770:	91a02923 	lsrls	r2, r3, #18
   17774:	9282407d 	addls	r4, r2, #125	; 0x7d
   17778:	91a04184 	lslls	r4, r4, #3
   1777c:	9282107c 	addls	r1, r2, #124	; 0x7c
   17780:	83a04ffe 	movhi	r4, #1016	; 0x3f8
   17784:	83a0107e 	movhi	r1, #126	; 0x7e
   17788:	eaffff8e 	b	175c8 <_free_r+0xf8>
   1778c:	e3832001 	orr	r2, r3, #1
   17790:	e58c2004 	str	r2, [ip, #4]
   17794:	e5803000 	str	r3, [r0]
   17798:	eaffff7f 	b	1759c <_free_r+0xcc>
   1779c:	000181b0 	.word	0x000181b0
   177a0:	000181b8 	.word	0x000181b8
   177a4:	000185bc 	.word	0x000185bc
   177a8:	00018658 	.word	0x00018658
   177ac:	00000554 	.word	0x00000554

000177b0 <__retarget_lock_acquire_recursive>:
   177b0:	e12fff1e 	bx	lr

000177b4 <__retarget_lock_release_recursive>:
   177b4:	e12fff1e 	bx	lr

000177b8 <__udivsi3>:
   177b8:	e2512001 	subs	r2, r1, #1
   177bc:	012fff1e 	bxeq	lr
   177c0:	3a000036 	bcc	178a0 <__udivsi3+0xe8>
   177c4:	e1500001 	cmp	r0, r1
   177c8:	9a000022 	bls	17858 <__udivsi3+0xa0>
   177cc:	e1110002 	tst	r1, r2
   177d0:	0a000023 	beq	17864 <__udivsi3+0xac>
   177d4:	e311020e 	tst	r1, #-536870912	; 0xe0000000
   177d8:	01a01181 	lsleq	r1, r1, #3
   177dc:	03a03008 	moveq	r3, #8
   177e0:	13a03001 	movne	r3, #1
   177e4:	e3510201 	cmp	r1, #268435456	; 0x10000000
   177e8:	31510000 	cmpcc	r1, r0
   177ec:	31a01201 	lslcc	r1, r1, #4
   177f0:	31a03203 	lslcc	r3, r3, #4
   177f4:	3afffffa 	bcc	177e4 <__udivsi3+0x2c>
   177f8:	e3510102 	cmp	r1, #-2147483648	; 0x80000000
   177fc:	31510000 	cmpcc	r1, r0
   17800:	31a01081 	lslcc	r1, r1, #1
   17804:	31a03083 	lslcc	r3, r3, #1
   17808:	3afffffa 	bcc	177f8 <__udivsi3+0x40>
   1780c:	e3a02000 	mov	r2, #0
   17810:	e1500001 	cmp	r0, r1
   17814:	20400001 	subcs	r0, r0, r1
   17818:	21822003 	orrcs	r2, r2, r3
   1781c:	e15000a1 	cmp	r0, r1, lsr #1
   17820:	204000a1 	subcs	r0, r0, r1, lsr #1
   17824:	218220a3 	orrcs	r2, r2, r3, lsr #1
   17828:	e1500121 	cmp	r0, r1, lsr #2
   1782c:	20400121 	subcs	r0, r0, r1, lsr #2
   17830:	21822123 	orrcs	r2, r2, r3, lsr #2
   17834:	e15001a1 	cmp	r0, r1, lsr #3
   17838:	204001a1 	subcs	r0, r0, r1, lsr #3
   1783c:	218221a3 	orrcs	r2, r2, r3, lsr #3
   17840:	e3500000 	cmp	r0, #0
   17844:	11b03223 	lsrsne	r3, r3, #4
   17848:	11a01221 	lsrne	r1, r1, #4
   1784c:	1affffef 	bne	17810 <__udivsi3+0x58>
   17850:	e1a00002 	mov	r0, r2
   17854:	e12fff1e 	bx	lr
   17858:	03a00001 	moveq	r0, #1
   1785c:	13a00000 	movne	r0, #0
   17860:	e12fff1e 	bx	lr
   17864:	e3510801 	cmp	r1, #65536	; 0x10000
   17868:	21a01821 	lsrcs	r1, r1, #16
   1786c:	23a02010 	movcs	r2, #16
   17870:	33a02000 	movcc	r2, #0
   17874:	e3510c01 	cmp	r1, #256	; 0x100
   17878:	21a01421 	lsrcs	r1, r1, #8
   1787c:	22822008 	addcs	r2, r2, #8
   17880:	e3510010 	cmp	r1, #16
   17884:	21a01221 	lsrcs	r1, r1, #4
   17888:	22822004 	addcs	r2, r2, #4
   1788c:	e3510004 	cmp	r1, #4
   17890:	82822003 	addhi	r2, r2, #3
   17894:	908220a1 	addls	r2, r2, r1, lsr #1
   17898:	e1a00230 	lsr	r0, r0, r2
   1789c:	e12fff1e 	bx	lr
   178a0:	e3500000 	cmp	r0, #0
   178a4:	13e00000 	mvnne	r0, #0
   178a8:	ea000059 	b	17a14 <__aeabi_idiv0>

000178ac <__aeabi_uidivmod>:
   178ac:	e3510000 	cmp	r1, #0
   178b0:	0afffffa 	beq	178a0 <__udivsi3+0xe8>
   178b4:	e92d4003 	push	{r0, r1, lr}
   178b8:	ebffffbe 	bl	177b8 <__udivsi3>
   178bc:	e8bd4006 	pop	{r1, r2, lr}
   178c0:	e0030092 	mul	r3, r2, r0
   178c4:	e0411003 	sub	r1, r1, r3
   178c8:	e12fff1e 	bx	lr

000178cc <__divsi3>:
   178cc:	e3510000 	cmp	r1, #0
   178d0:	0a000043 	beq	179e4 <.divsi3_skip_div0_test+0x110>

000178d4 <.divsi3_skip_div0_test>:
   178d4:	e020c001 	eor	ip, r0, r1
   178d8:	42611000 	rsbmi	r1, r1, #0
   178dc:	e2512001 	subs	r2, r1, #1
   178e0:	0a000027 	beq	17984 <.divsi3_skip_div0_test+0xb0>
   178e4:	e1b03000 	movs	r3, r0
   178e8:	42603000 	rsbmi	r3, r0, #0
   178ec:	e1530001 	cmp	r3, r1
   178f0:	9a000026 	bls	17990 <.divsi3_skip_div0_test+0xbc>
   178f4:	e1110002 	tst	r1, r2
   178f8:	0a000028 	beq	179a0 <.divsi3_skip_div0_test+0xcc>
   178fc:	e311020e 	tst	r1, #-536870912	; 0xe0000000
   17900:	01a01181 	lsleq	r1, r1, #3
   17904:	03a02008 	moveq	r2, #8
   17908:	13a02001 	movne	r2, #1
   1790c:	e3510201 	cmp	r1, #268435456	; 0x10000000
   17910:	31510003 	cmpcc	r1, r3
   17914:	31a01201 	lslcc	r1, r1, #4
   17918:	31a02202 	lslcc	r2, r2, #4
   1791c:	3afffffa 	bcc	1790c <.divsi3_skip_div0_test+0x38>
   17920:	e3510102 	cmp	r1, #-2147483648	; 0x80000000
   17924:	31510003 	cmpcc	r1, r3
   17928:	31a01081 	lslcc	r1, r1, #1
   1792c:	31a02082 	lslcc	r2, r2, #1
   17930:	3afffffa 	bcc	17920 <.divsi3_skip_div0_test+0x4c>
   17934:	e3a00000 	mov	r0, #0
   17938:	e1530001 	cmp	r3, r1
   1793c:	20433001 	subcs	r3, r3, r1
   17940:	21800002 	orrcs	r0, r0, r2
   17944:	e15300a1 	cmp	r3, r1, lsr #1
   17948:	204330a1 	subcs	r3, r3, r1, lsr #1
   1794c:	218000a2 	orrcs	r0, r0, r2, lsr #1
   17950:	e1530121 	cmp	r3, r1, lsr #2
   17954:	20433121 	subcs	r3, r3, r1, lsr #2
   17958:	21800122 	orrcs	r0, r0, r2, lsr #2
   1795c:	e15301a1 	cmp	r3, r1, lsr #3
   17960:	204331a1 	subcs	r3, r3, r1, lsr #3
   17964:	218001a2 	orrcs	r0, r0, r2, lsr #3
   17968:	e3530000 	cmp	r3, #0
   1796c:	11b02222 	lsrsne	r2, r2, #4
   17970:	11a01221 	lsrne	r1, r1, #4
   17974:	1affffef 	bne	17938 <.divsi3_skip_div0_test+0x64>
   17978:	e35c0000 	cmp	ip, #0
   1797c:	42600000 	rsbmi	r0, r0, #0
   17980:	e12fff1e 	bx	lr
   17984:	e13c0000 	teq	ip, r0
   17988:	42600000 	rsbmi	r0, r0, #0
   1798c:	e12fff1e 	bx	lr
   17990:	33a00000 	movcc	r0, #0
   17994:	01a00fcc 	asreq	r0, ip, #31
   17998:	03800001 	orreq	r0, r0, #1
   1799c:	e12fff1e 	bx	lr
   179a0:	e3510801 	cmp	r1, #65536	; 0x10000
   179a4:	21a01821 	lsrcs	r1, r1, #16
   179a8:	23a02010 	movcs	r2, #16
   179ac:	33a02000 	movcc	r2, #0
   179b0:	e3510c01 	cmp	r1, #256	; 0x100
   179b4:	21a01421 	lsrcs	r1, r1, #8
   179b8:	22822008 	addcs	r2, r2, #8
   179bc:	e3510010 	cmp	r1, #16
   179c0:	21a01221 	lsrcs	r1, r1, #4
   179c4:	22822004 	addcs	r2, r2, #4
   179c8:	e3510004 	cmp	r1, #4
   179cc:	82822003 	addhi	r2, r2, #3
   179d0:	908220a1 	addls	r2, r2, r1, lsr #1
   179d4:	e35c0000 	cmp	ip, #0
   179d8:	e1a00233 	lsr	r0, r3, r2
   179dc:	42600000 	rsbmi	r0, r0, #0
   179e0:	e12fff1e 	bx	lr
   179e4:	e3500000 	cmp	r0, #0
   179e8:	c3e00102 	mvngt	r0, #-2147483648	; 0x80000000
   179ec:	b3a00102 	movlt	r0, #-2147483648	; 0x80000000
   179f0:	ea000007 	b	17a14 <__aeabi_idiv0>

000179f4 <__aeabi_idivmod>:
   179f4:	e3510000 	cmp	r1, #0
   179f8:	0afffff9 	beq	179e4 <.divsi3_skip_div0_test+0x110>
   179fc:	e92d4003 	push	{r0, r1, lr}
   17a00:	ebffffb3 	bl	178d4 <.divsi3_skip_div0_test>
   17a04:	e8bd4006 	pop	{r1, r2, lr}
   17a08:	e0030092 	mul	r3, r2, r0
   17a0c:	e0411003 	sub	r1, r1, r3
   17a10:	e12fff1e 	bx	lr

00017a14 <__aeabi_idiv0>:
   17a14:	e12fff1e 	bx	lr

00017a18 <__aeabi_uldivmod>:
   17a18:	e3530000 	cmp	r3, #0
   17a1c:	03520000 	cmpeq	r2, #0
   17a20:	1a000004 	bne	17a38 <__aeabi_uldivmod+0x20>
   17a24:	e3510000 	cmp	r1, #0
   17a28:	03500000 	cmpeq	r0, #0
   17a2c:	13e01000 	mvnne	r1, #0
   17a30:	13e00000 	mvnne	r0, #0
   17a34:	eafffff6 	b	17a14 <__aeabi_idiv0>
   17a38:	e24dd008 	sub	sp, sp, #8
   17a3c:	e92d6000 	push	{sp, lr}
   17a40:	eb000003 	bl	17a54 <__udivmoddi4>
   17a44:	e59de004 	ldr	lr, [sp, #4]
   17a48:	e28dd008 	add	sp, sp, #8
   17a4c:	e8bd000c 	pop	{r2, r3}
   17a50:	e12fff1e 	bx	lr

00017a54 <__udivmoddi4>:
   17a54:	e1510003 	cmp	r1, r3
   17a58:	e92d4ff8 	push	{r3, r4, r5, r6, r7, r8, r9, sl, fp, lr}
   17a5c:	01500002 	cmpeq	r0, r2
   17a60:	e1a04000 	mov	r4, r0
   17a64:	e1a05001 	mov	r5, r1
   17a68:	e59da028 	ldr	sl, [sp, #40]	; 0x28
   17a6c:	33a00000 	movcc	r0, #0
   17a70:	33a01000 	movcc	r1, #0
   17a74:	3a00003d 	bcc	17b70 <__udivmoddi4+0x11c>
   17a78:	e1a00002 	mov	r0, r2
   17a7c:	e1a01003 	mov	r1, r3
   17a80:	e1a08002 	mov	r8, r2
   17a84:	e1a09003 	mov	r9, r3
   17a88:	eb00003c 	bl	17b80 <__clzdi2>
   17a8c:	e1a01005 	mov	r1, r5
   17a90:	e1a0b000 	mov	fp, r0
   17a94:	e1a00004 	mov	r0, r4
   17a98:	eb000038 	bl	17b80 <__clzdi2>
   17a9c:	e04bb000 	sub	fp, fp, r0
   17aa0:	e24b2020 	sub	r2, fp, #32
   17aa4:	e1a07b19 	lsl	r7, r9, fp
   17aa8:	e1877218 	orr	r7, r7, r8, lsl r2
   17aac:	e26bc020 	rsb	ip, fp, #32
   17ab0:	e1877c38 	orr	r7, r7, r8, lsr ip
   17ab4:	e1550007 	cmp	r5, r7
   17ab8:	e1a06b18 	lsl	r6, r8, fp
   17abc:	01540006 	cmpeq	r4, r6
   17ac0:	33a00000 	movcc	r0, #0
   17ac4:	33a01000 	movcc	r1, #0
   17ac8:	3a000005 	bcc	17ae4 <__udivmoddi4+0x90>
   17acc:	e3a0e001 	mov	lr, #1
   17ad0:	e0544006 	subs	r4, r4, r6
   17ad4:	e1a0121e 	lsl	r1, lr, r2
   17ad8:	e1811c3e 	orr	r1, r1, lr, lsr ip
   17adc:	e0c55007 	sbc	r5, r5, r7
   17ae0:	e1a00b1e 	lsl	r0, lr, fp
   17ae4:	e35b0000 	cmp	fp, #0
   17ae8:	0a000020 	beq	17b70 <__udivmoddi4+0x11c>
   17aec:	e1b070a7 	lsrs	r7, r7, #1
   17af0:	e1a06066 	rrx	r6, r6
   17af4:	e1a0e00b 	mov	lr, fp
   17af8:	ea000007 	b	17b1c <__udivmoddi4+0xc8>
   17afc:	e0544006 	subs	r4, r4, r6
   17b00:	e0c55007 	sbc	r5, r5, r7
   17b04:	e0944004 	adds	r4, r4, r4
   17b08:	e0a55005 	adc	r5, r5, r5
   17b0c:	e2944001 	adds	r4, r4, #1
   17b10:	e2a55000 	adc	r5, r5, #0
   17b14:	e25ee001 	subs	lr, lr, #1
   17b18:	0a000006 	beq	17b38 <__udivmoddi4+0xe4>
   17b1c:	e1550007 	cmp	r5, r7
   17b20:	01540006 	cmpeq	r4, r6
   17b24:	2afffff4 	bcs	17afc <__udivmoddi4+0xa8>
   17b28:	e0944004 	adds	r4, r4, r4
   17b2c:	e0a55005 	adc	r5, r5, r5
   17b30:	e25ee001 	subs	lr, lr, #1
   17b34:	1afffff8 	bne	17b1c <__udivmoddi4+0xc8>
   17b38:	e1a0eb34 	lsr	lr, r4, fp
   17b3c:	e18eec15 	orr	lr, lr, r5, lsl ip
   17b40:	e18ee235 	orr	lr, lr, r5, lsr r2
   17b44:	e0906004 	adds	r6, r0, r4
   17b48:	e1a0400e 	mov	r4, lr
   17b4c:	e0a17005 	adc	r7, r1, r5
   17b50:	e1a01b35 	lsr	r1, r5, fp
   17b54:	e1a05001 	mov	r5, r1
   17b58:	e1a01b11 	lsl	r1, r1, fp
   17b5c:	e181121e 	orr	r1, r1, lr, lsl r2
   17b60:	e1a00b1e 	lsl	r0, lr, fp
   17b64:	e1811c3e 	orr	r1, r1, lr, lsr ip
   17b68:	e0560000 	subs	r0, r6, r0
   17b6c:	e0c71001 	sbc	r1, r7, r1
   17b70:	e35a0000 	cmp	sl, #0
   17b74:	188a0030 	stmne	sl, {r4, r5}
   17b78:	e8bd4ff8 	pop	{r3, r4, r5, r6, r7, r8, r9, sl, fp, lr}
   17b7c:	e12fff1e 	bx	lr

00017b80 <__clzdi2>:
   17b80:	e92d4010 	push	{r4, lr}
   17b84:	e3510000 	cmp	r1, #0
   17b88:	1a000002 	bne	17b98 <__clzdi2+0x18>
   17b8c:	eb000005 	bl	17ba8 <__clzsi2>
   17b90:	e2800020 	add	r0, r0, #32
   17b94:	ea000001 	b	17ba0 <__clzdi2+0x20>
   17b98:	e1a00001 	mov	r0, r1
   17b9c:	eb000001 	bl	17ba8 <__clzsi2>
   17ba0:	e8bd4010 	pop	{r4, lr}
   17ba4:	e12fff1e 	bx	lr

00017ba8 <__clzsi2>:
   17ba8:	e3a0101c 	mov	r1, #28
   17bac:	e3500801 	cmp	r0, #65536	; 0x10000
   17bb0:	21a00820 	lsrcs	r0, r0, #16
   17bb4:	22411010 	subcs	r1, r1, #16
   17bb8:	e3500c01 	cmp	r0, #256	; 0x100
   17bbc:	21a00420 	lsrcs	r0, r0, #8
   17bc0:	22411008 	subcs	r1, r1, #8
   17bc4:	e3500010 	cmp	r0, #16
   17bc8:	21a00220 	lsrcs	r0, r0, #4
   17bcc:	22411004 	subcs	r1, r1, #4
   17bd0:	e28f2008 	add	r2, pc, #8
   17bd4:	e7d20000 	ldrb	r0, [r2, r0]
   17bd8:	e0800001 	add	r0, r0, r1
   17bdc:	e12fff1e 	bx	lr
   17be0:	02020304 	.word	0x02020304
   17be4:	01010101 	.word	0x01010101
	...
